ARM GAS  /tmp/ccCW9AYs.s 			page 1


   1              		.cpu cortex-m4
   2              		.eabi_attribute 20, 1
   3              		.eabi_attribute 21, 1
   4              		.eabi_attribute 23, 3
   5              		.eabi_attribute 24, 1
   6              		.eabi_attribute 25, 1
   7              		.eabi_attribute 26, 1
   8              		.eabi_attribute 30, 2
   9              		.eabi_attribute 34, 1
  10              		.eabi_attribute 18, 4
  11              		.file	"board.c"
  12              		.text
  13              	.Ltext0:
  14              		.cfi_sections	.debug_frame
  15              		.section	.text.__early_init,"ax",%progbits
  16              		.align	1
  17              		.p2align 4,,15
  18              		.global	__early_init
  19              		.arch armv7e-m
  20              		.syntax unified
  21              		.thumb
  22              		.thumb_func
  23              		.fpu softvfp
  24              		.type	__early_init, %function
  25              	__early_init:
  26              	.LFB402:
  27              		.file 1 "../ChibiOS/os/hal/boards/ST_NUCLEO32_L432KC/board.c"
  28              		.loc 1 225 25 view -0
  29              		.cfi_startproc
  30              		@ args = 0, pretend = 0, frame = 0
  31              		@ frame_needed = 0, uses_anonymous_args = 0
  32              		@ link register save eliminated.
  33              		.loc 1 227 3 view .LVU1
  34              	.LBB20:
  35              	.LBI20:
  36              		.loc 1 169 13 view .LVU2
  37              	.LBB21:
  38              		.loc 1 173 3 view .LVU3
  39 0000 2E4A     		ldr	r2, .L4
  40 0002 D16A     		ldr	r1, [r2, #44]
  41 0004 41F00701 		orr	r1, r1, #7
  42              	.LBE21:
  43              	.LBE20:
  44              		.loc 1 225 25 is_stmt 0 view .LVU4
  45 0008 F0B4     		push	{r4, r5, r6, r7}
  46              		.cfi_def_cfa_offset 16
  47              		.cfi_offset 4, -16
  48              		.cfi_offset 5, -12
  49              		.cfi_offset 6, -8
  50              		.cfi_offset 7, -4
  51              	.LBB60:
  52              	.LBB58:
  53              		.loc 1 173 3 view .LVU5
  54 000a D162     		str	r1, [r2, #44]
  55              		.loc 1 173 3 is_stmt 1 view .LVU6
  56 000c D16A     		ldr	r1, [r2, #44]
  57              	.LBB22:
ARM GAS  /tmp/ccCW9AYs.s 			page 2


  58              	.LBB23:
  59              		.loc 1 165 18 is_stmt 0 view .LVU7
  60 000e 2C4E     		ldr	r6, .L4+4
  61              	.LBE23:
  62              	.LBE22:
  63              		.loc 1 173 3 view .LVU8
  64 0010 21F00701 		bic	r1, r1, #7
  65 0014 D162     		str	r1, [r2, #44]
  66              		.loc 1 173 3 is_stmt 1 view .LVU9
  67 0016 D16A     		ldr	r1, [r2, #44]
  68              		.loc 1 173 35 view .LVU10
  69              		.loc 1 174 3 view .LVU11
  70 0018 D16C     		ldr	r1, [r2, #76]
  71 001a 41F00701 		orr	r1, r1, #7
  72 001e D164     		str	r1, [r2, #76]
  73              		.loc 1 174 3 view .LVU12
  74              		.loc 1 174 3 view .LVU13
  75 0020 D16E     		ldr	r1, [r2, #108]
  76              	.LBB30:
  77              	.LBB24:
  78              		.loc 1 158 18 is_stmt 0 view .LVU14
  79 0022 4FF0904C 		mov	ip, #1207959552
  80              	.LBE24:
  81              	.LBE30:
  82              		.loc 1 174 3 view .LVU15
  83 0026 41F00701 		orr	r1, r1, #7
  84 002a D166     		str	r1, [r2, #108]
  85              		.loc 1 174 3 is_stmt 1 view .LVU16
  86              	.LBB31:
  87              	.LBB25:
  88              		.loc 1 158 18 is_stmt 0 view .LVU17
  89 002c 0023     		movs	r3, #0
  90              		.loc 1 160 18 view .LVU18
  91 002e 6FF05000 		mvn	r0, #80
  92              	.LBE25:
  93              	.LBE31:
  94              		.loc 1 174 3 view .LVU19
  95 0032 D26E     		ldr	r2, [r2, #108]
  96              		.loc 1 174 42 is_stmt 1 view .LVU20
  97              		.loc 1 178 3 view .LVU21
  98              	.LVL0:
  99              	.LBB32:
 100              	.LBI22:
 101              		.loc 1 156 13 view .LVU22
 102              	.LBB26:
 103              		.loc 1 158 3 view .LVU23
 104              		.loc 1 158 18 is_stmt 0 view .LVU24
 105 0034 CCF80430 		str	r3, [ip, #4]
 106              		.loc 1 159 3 is_stmt 1 view .LVU25
 107              		.loc 1 162 18 is_stmt 0 view .LVU26
 108 0038 4FF6FF75 		movw	r5, #65535
 109              		.loc 1 159 18 view .LVU27
 110 003c CCF82C30 		str	r3, [ip, #44]
 111              		.loc 1 160 3 is_stmt 1 view .LVU28
 112              		.loc 1 161 18 is_stmt 0 view .LVU29
 113 0040 4FF01051 		mov	r1, #603979776
 114              		.loc 1 160 18 view .LVU30
ARM GAS  /tmp/ccCW9AYs.s 			page 3


 115 0044 CCF80800 		str	r0, [ip, #8]
 116              		.loc 1 161 3 is_stmt 1 view .LVU31
 117              		.loc 1 163 18 is_stmt 0 view .LVU32
 118 0048 4FF4E062 		mov	r2, #1792
 119              	.LBE26:
 120              	.LBE32:
 121              	.LBB33:
 122              	.LBB34:
 123              		.loc 1 158 18 view .LVU33
 124 004c 1D48     		ldr	r0, .L4+8
 125              	.LBE34:
 126              	.LBE33:
 127              	.LBB40:
 128              	.LBB27:
 129              		.loc 1 161 18 view .LVU34
 130 004e CCF80C10 		str	r1, [ip, #12]
 131              		.loc 1 162 3 is_stmt 1 view .LVU35
 132              		.loc 1 164 18 is_stmt 0 view .LVU36
 133 0052 4FF04057 		mov	r7, #805306368
 134              		.loc 1 162 18 view .LVU37
 135 0056 CCF81450 		str	r5, [ip, #20]
 136              		.loc 1 163 3 is_stmt 1 view .LVU38
 137              	.LBE27:
 138              	.LBE40:
 139              	.LBB41:
 140              	.LBB35:
 141              		.loc 1 160 18 is_stmt 0 view .LVU39
 142 005a 4FF0FF34 		mov	r4, #-1
 143              	.LBE35:
 144              	.LBE41:
 145              	.LBB42:
 146              	.LBB28:
 147              		.loc 1 163 18 view .LVU40
 148 005e CCF82020 		str	r2, [ip, #32]
 149              		.loc 1 164 3 is_stmt 1 view .LVU41
 150              		.loc 1 164 18 is_stmt 0 view .LVU42
 151 0062 CCF82470 		str	r7, [ip, #36]
 152              		.loc 1 165 3 is_stmt 1 view .LVU43
 153              		.loc 1 165 18 is_stmt 0 view .LVU44
 154 0066 CCF80060 		str	r6, [ip]
 155              		.loc 1 166 3 is_stmt 1 view .LVU45
 156              	.LBE28:
 157              	.LBE42:
 158              	.LBB43:
 159              	.LBB36:
 160              		.loc 1 161 18 is_stmt 0 view .LVU46
 161 006a 0126     		movs	r6, #1
 162              	.LBE36:
 163              	.LBE43:
 164              	.LBB44:
 165              	.LBB29:
 166              		.loc 1 166 18 view .LVU47
 167 006c CCF81C30 		str	r3, [ip, #28]
 168              	.LVL1:
 169              		.loc 1 166 18 view .LVU48
 170              	.LBE29:
 171              	.LBE44:
ARM GAS  /tmp/ccCW9AYs.s 			page 4


 172              		.loc 1 181 3 is_stmt 1 view .LVU49
 173              	.LBB45:
 174              	.LBI33:
 175              		.loc 1 156 13 view .LVU50
 176              	.LBB37:
 177              		.loc 1 158 3 view .LVU51
 178              	.LBE37:
 179              	.LBE45:
 180              	.LBB46:
 181              	.LBB47:
 182              		.loc 1 158 18 is_stmt 0 view .LVU52
 183 0070 1549     		ldr	r1, .L4+12
 184              	.LBE47:
 185              	.LBE46:
 186              	.LBB49:
 187              	.LBB38:
 188 0072 4360     		str	r3, [r0, #4]
 189              		.loc 1 159 3 is_stmt 1 view .LVU53
 190              		.loc 1 159 18 is_stmt 0 view .LVU54
 191 0074 C362     		str	r3, [r0, #44]
 192              		.loc 1 160 3 is_stmt 1 view .LVU55
 193              		.loc 1 160 18 is_stmt 0 view .LVU56
 194 0076 8460     		str	r4, [r0, #8]
 195              		.loc 1 161 3 is_stmt 1 view .LVU57
 196              		.loc 1 161 18 is_stmt 0 view .LVU58
 197 0078 C660     		str	r6, [r0, #12]
 198              		.loc 1 162 3 is_stmt 1 view .LVU59
 199              		.loc 1 162 18 is_stmt 0 view .LVU60
 200 007a 4FF6F776 		movw	r6, #65527
 201              	.LBE38:
 202              	.LBE49:
 203              	.LBB50:
 204              	.LBB51:
 205              		.loc 1 158 18 view .LVU61
 206 007e 134A     		ldr	r2, .L4+16
 207              	.LBE51:
 208              	.LBE50:
 209              	.LBB54:
 210              	.LBB39:
 211              		.loc 1 162 18 view .LVU62
 212 0080 4661     		str	r6, [r0, #20]
 213              		.loc 1 163 3 is_stmt 1 view .LVU63
 214              		.loc 1 165 18 is_stmt 0 view .LVU64
 215 0082 6FF08306 		mvn	r6, #131
 216              		.loc 1 163 18 view .LVU65
 217 0086 0362     		str	r3, [r0, #32]
 218              		.loc 1 164 3 is_stmt 1 view .LVU66
 219              		.loc 1 164 18 is_stmt 0 view .LVU67
 220 0088 4362     		str	r3, [r0, #36]
 221              		.loc 1 165 3 is_stmt 1 view .LVU68
 222              		.loc 1 165 18 is_stmt 0 view .LVU69
 223 008a 0660     		str	r6, [r0]
 224              		.loc 1 166 3 is_stmt 1 view .LVU70
 225              		.loc 1 166 18 is_stmt 0 view .LVU71
 226 008c C361     		str	r3, [r0, #28]
 227              	.LVL2:
 228              		.loc 1 166 18 view .LVU72
ARM GAS  /tmp/ccCW9AYs.s 			page 5


 229              	.LBE39:
 230              	.LBE54:
 231              		.loc 1 184 3 is_stmt 1 view .LVU73
 232              	.LBB55:
 233              	.LBI46:
 234              		.loc 1 156 13 view .LVU74
 235              	.LBB48:
 236              		.loc 1 158 3 view .LVU75
 237              		.loc 1 158 18 is_stmt 0 view .LVU76
 238 008e 4B60     		str	r3, [r1, #4]
 239              		.loc 1 159 3 is_stmt 1 view .LVU77
 240              		.loc 1 159 18 is_stmt 0 view .LVU78
 241 0090 CB62     		str	r3, [r1, #44]
 242              		.loc 1 160 3 is_stmt 1 view .LVU79
 243              		.loc 1 160 18 is_stmt 0 view .LVU80
 244 0092 8C60     		str	r4, [r1, #8]
 245              		.loc 1 161 3 is_stmt 1 view .LVU81
 246              		.loc 1 161 18 is_stmt 0 view .LVU82
 247 0094 CB60     		str	r3, [r1, #12]
 248              		.loc 1 162 3 is_stmt 1 view .LVU83
 249              		.loc 1 162 18 is_stmt 0 view .LVU84
 250 0096 4D61     		str	r5, [r1, #20]
 251              		.loc 1 163 3 is_stmt 1 view .LVU85
 252              		.loc 1 163 18 is_stmt 0 view .LVU86
 253 0098 0B62     		str	r3, [r1, #32]
 254              		.loc 1 164 3 is_stmt 1 view .LVU87
 255              		.loc 1 164 18 is_stmt 0 view .LVU88
 256 009a 4B62     		str	r3, [r1, #36]
 257              		.loc 1 165 3 is_stmt 1 view .LVU89
 258              		.loc 1 165 18 is_stmt 0 view .LVU90
 259 009c 0C60     		str	r4, [r1]
 260              		.loc 1 166 3 is_stmt 1 view .LVU91
 261              		.loc 1 166 18 is_stmt 0 view .LVU92
 262 009e CB61     		str	r3, [r1, #28]
 263              	.LVL3:
 264              		.loc 1 166 18 view .LVU93
 265              	.LBE48:
 266              	.LBE55:
 267              		.loc 1 199 3 is_stmt 1 view .LVU94
 268              	.LBB56:
 269              	.LBI50:
 270              		.loc 1 156 13 view .LVU95
 271              	.LBB52:
 272              		.loc 1 158 3 view .LVU96
 273              		.loc 1 160 18 is_stmt 0 view .LVU97
 274 00a0 0F21     		movs	r1, #15
 275              		.loc 1 158 18 view .LVU98
 276 00a2 5360     		str	r3, [r2, #4]
 277              		.loc 1 159 3 is_stmt 1 view .LVU99
 278              		.loc 1 159 18 is_stmt 0 view .LVU100
 279 00a4 D362     		str	r3, [r2, #44]
 280              		.loc 1 160 3 is_stmt 1 view .LVU101
 281              		.loc 1 160 18 is_stmt 0 view .LVU102
 282 00a6 9160     		str	r1, [r2, #8]
 283              		.loc 1 161 3 is_stmt 1 view .LVU103
 284              		.loc 1 161 18 is_stmt 0 view .LVU104
 285 00a8 D360     		str	r3, [r2, #12]
ARM GAS  /tmp/ccCW9AYs.s 			page 6


 286              		.loc 1 162 3 is_stmt 1 view .LVU105
 287              		.loc 1 162 18 is_stmt 0 view .LVU106
 288 00aa 5561     		str	r5, [r2, #20]
 289              		.loc 1 163 3 is_stmt 1 view .LVU107
 290              		.loc 1 163 18 is_stmt 0 view .LVU108
 291 00ac 1362     		str	r3, [r2, #32]
 292              		.loc 1 164 3 is_stmt 1 view .LVU109
 293              		.loc 1 164 18 is_stmt 0 view .LVU110
 294 00ae 5362     		str	r3, [r2, #36]
 295              		.loc 1 165 3 is_stmt 1 view .LVU111
 296              		.loc 1 165 18 is_stmt 0 view .LVU112
 297 00b0 1460     		str	r4, [r2]
 298              		.loc 1 166 3 is_stmt 1 view .LVU113
 299              	.LBE52:
 300              	.LBE56:
 301              	.LBE58:
 302              	.LBE60:
 303              		.loc 1 229 1 is_stmt 0 view .LVU114
 304 00b2 F0BC     		pop	{r4, r5, r6, r7}
 305              		.cfi_restore 7
 306              		.cfi_restore 6
 307              		.cfi_restore 5
 308              		.cfi_restore 4
 309              		.cfi_def_cfa_offset 0
 310              	.LBB61:
 311              	.LBB59:
 312              	.LBB57:
 313              	.LBB53:
 314              		.loc 1 166 18 view .LVU115
 315 00b4 D361     		str	r3, [r2, #28]
 316              	.LVL4:
 317              		.loc 1 166 18 view .LVU116
 318              	.LBE53:
 319              	.LBE57:
 320              	.LBE59:
 321              	.LBE61:
 322              		.loc 1 228 3 is_stmt 1 view .LVU117
 323 00b6 FFF7FEBF 		b	stm32_clock_init
 324              	.LVL5:
 325              	.L5:
 326 00ba 00BF     		.align	2
 327              	.L4:
 328 00bc 00100240 		.word	1073876992
 329 00c0 EFFFFFAB 		.word	-1409286161
 330 00c4 00040048 		.word	1207960576
 331 00c8 00080048 		.word	1207961600
 332 00cc 001C0048 		.word	1207966720
 333              		.cfi_endproc
 334              	.LFE402:
 335              		.size	__early_init, .-__early_init
 336              		.section	.text.boardInit,"ax",%progbits
 337              		.align	1
 338              		.p2align 4,,15
 339              		.global	boardInit
 340              		.syntax unified
 341              		.thumb
 342              		.thumb_func
ARM GAS  /tmp/ccCW9AYs.s 			page 7


 343              		.fpu softvfp
 344              		.type	boardInit, %function
 345              	boardInit:
 346              	.LFB403:
 347              		.loc 1 279 22 view -0
 348              		.cfi_startproc
 349              		@ args = 0, pretend = 0, frame = 0
 350              		@ frame_needed = 0, uses_anonymous_args = 0
 351              		@ link register save eliminated.
 352              		.loc 1 281 1 view .LVU119
 353 0000 7047     		bx	lr
 354              		.cfi_endproc
 355              	.LFE403:
 356              		.size	boardInit, .-boardInit
 357 0002 00BF     		.text
 358              	.Letext0:
 359              		.file 2 "/opt/gcc-arm-none-eabi/gcc-arm-none-eabi-10.3-2021.07/arm-none-eabi/include/machine/_defa
 360              		.file 3 "/opt/gcc-arm-none-eabi/gcc-arm-none-eabi-10.3-2021.07/arm-none-eabi/include/sys/_stdint.h
 361              		.file 4 "../ChibiOS/os/common/ext/ST/STM32L4xx/stm32l432xx.h"
 362              		.file 5 "../ChibiOS/os/hal/ports/STM32/LLD/GPIOv3/stm32_gpio.h"
 363              		.file 6 "../ChibiOS/os/hal/ports/STM32/STM32L4xx/hal_lld.h"