ARM GAS  /tmp/ccIAvFqv.s 			page 1


   1              		.cpu cortex-m4
   2              		.eabi_attribute 20, 1
   3              		.eabi_attribute 21, 1
   4              		.eabi_attribute 23, 3
   5              		.eabi_attribute 24, 1
   6              		.eabi_attribute 25, 1
   7              		.eabi_attribute 26, 1
   8              		.eabi_attribute 30, 2
   9              		.eabi_attribute 34, 1
  10              		.eabi_attribute 18, 4
  11              		.file	"ch_test.c"
  12              		.text
  13              	.Ltext0:
  14              		.cfi_sections	.debug_frame
  15              		.section	.text.test_stream_putchar,"ax",%progbits
  16              		.align	1
  17              		.p2align 4,,15
  18              		.arch armv7e-m
  19              		.syntax unified
  20              		.thumb
  21              		.thumb_func
  22              		.fpu softvfp
  23              		.type	test_stream_putchar, %function
  24              	test_stream_putchar:
  25              	.LVL0:
  26              	.LFB404:
  27              		.file 1 "../ChibiOS/os/test/src/ch_test.c"
  28              		.loc 1 56 39 view -0
  29              		.cfi_startproc
  30              		@ args = 0, pretend = 0, frame = 0
  31              		@ frame_needed = 0, uses_anonymous_args = 0
  32              		.loc 1 58 3 view .LVU1
  33 0000 044B     		ldr	r3, .L4
  34              		.loc 1 56 39 is_stmt 0 view .LVU2
  35 0002 10B5     		push	{r4, lr}
  36              		.cfi_def_cfa_offset 8
  37              		.cfi_offset 4, -8
  38              		.cfi_offset 14, -4
  39              		.loc 1 56 39 view .LVU3
  40 0004 0446     		mov	r4, r0
  41              		.loc 1 58 3 view .LVU4
  42 0006 586A     		ldr	r0, [r3, #36]
  43              	.LVL1:
  44              		.loc 1 58 3 view .LVU5
  45 0008 0368     		ldr	r3, [r0]
  46 000a E1B2     		uxtb	r1, r4
  47 000c DB68     		ldr	r3, [r3, #12]
  48 000e 9847     		blx	r3
  49              	.LVL2:
  50              		.loc 1 60 3 is_stmt 1 view .LVU6
  51              		.loc 1 61 1 is_stmt 0 view .LVU7
  52 0010 2046     		mov	r0, r4
  53 0012 10BD     		pop	{r4, pc}
  54              	.LVL3:
  55              	.L5:
  56              		.loc 1 61 1 view .LVU8
  57              		.align	2
ARM GAS  /tmp/ccIAvFqv.s 			page 2


  58              	.L4:
  59 0014 00000000 		.word	.LANCHOR0
  60              		.cfi_endproc
  61              	.LFE404:
  62              		.size	test_stream_putchar, .-test_stream_putchar
  63              		.section	.rodata.test_execute_inner.str1.4,"aMS",%progbits,1
  64              		.align	2
  65              	.LC0:
  66 0000 0D0A00   		.ascii	"\015\012\000"
  67 0003 00       		.align	2
  68              	.LC1:
  69 0004 4641494C 		.ascii	"FAILURE\000"
  69      55524500 
  70              		.align	2
  71              	.LC2:
  72 000c 53554343 		.ascii	"SUCCESS\000"
  72      45535300 
  73              		.align	2
  74              	.LC3:
  75 0014 2A2A2A20 		.ascii	"*** %s\015\012\000"
  75      25730D0A 
  75      00
  76 001d 000000   		.align	2
  77              	.LC4:
  78 0020 2A2A2A20 		.ascii	"*** Test Suite\015\012\000"
  78      54657374 
  78      20537569 
  78      74650D0A 
  78      00
  79 0031 000000   		.align	2
  80              	.LC5:
  81 0034 2A2A2A0D 		.ascii	"***\015\012\000"
  81      0A00
  82 003a 0000     		.align	2
  83              	.LC6:
  84 003c 4F637420 		.ascii	"Oct 25 2021 - 20:04:11\000"
  84      32352032 
  84      30323120 
  84      2D203230 
  84      3A30343A 
  85 0053 00       		.align	2
  86              	.LC7:
  87 0054 2A2A2A20 		.ascii	"*** Compiled:     %s\015\012\000"
  87      436F6D70 
  87      696C6564 
  87      3A202020 
  87      20202573 
  88 006b 00       		.align	2
  89              	.LC8:
  90 006c 53544D33 		.ascii	"STM32L4xx Ultra Low Power\000"
  90      324C3478 
  90      7820556C 
  90      74726120 
  90      4C6F7720 
  91 0086 0000     		.align	2
  92              	.LC9:
  93 0088 2A2A2A20 		.ascii	"*** Platform:     %s\015\012\000"
ARM GAS  /tmp/ccIAvFqv.s 			page 3


  93      506C6174 
  93      666F726D 
  93      3A202020 
  93      20202573 
  94 009f 00       		.align	2
  95              	.LC10:
  96 00a0 53544D69 		.ascii	"STMicroelectronics STM32 Nucleo32-L432KC\000"
  96      63726F65 
  96      6C656374 
  96      726F6E69 
  96      63732053 
  97 00c9 000000   		.align	2
  98              	.LC11:
  99 00cc 2A2A2A20 		.ascii	"*** Test Board:   %s\015\012\000"
  99      54657374 
  99      20426F61 
  99      72643A20 
  99      20202573 
 100 00e3 00       		.align	2
 101              	.LC12:
 102 00e4 2A2A2A20 		.ascii	"*** Text size:    %u bytes\015\012\000"
 102      54657874 
 102      2073697A 
 102      653A2020 
 102      20202575 
 103 0101 000000   		.align	2
 104              	.LC13:
 105 0104 2A2A2A20 		.ascii	"*** RO data size: %u bytes\015\012\000"
 105      524F2064 
 105      61746120 
 105      73697A65 
 105      3A202575 
 106 0121 000000   		.align	2
 107              	.LC14:
 108 0124 2A2A2A20 		.ascii	"*** Data size:    %u bytes\015\012\000"
 108      44617461 
 108      2073697A 
 108      653A2020 
 108      20202575 
 109 0141 000000   		.align	2
 110              	.LC15:
 111 0144 2A2A2A20 		.ascii	"*** BSS size:     %u bytes\015\012\000"
 111      42535320 
 111      73697A65 
 111      3A202020 
 111      20202575 
 112 0161 000000   		.align	2
 113              	.LC16:
 114 0164 3D3D3D20 		.ascii	"=== Test Sequence %u (%s)\015\012\000"
 114      54657374 
 114      20536571 
 114      75656E63 
 114      65202575 
 115              		.align	2
 116              	.LC17:
 117 0180 2D2D2D20 		.ascii	"--- Test Case %u.%u (%s)\015\012\000"
 117      54657374 
ARM GAS  /tmp/ccIAvFqv.s 			page 4


 117      20436173 
 117      65202575 
 117      2E257520 
 118 019b 00       		.align	2
 119              	.LC18:
 120 019c 00       		.ascii	"\000"
 121 019d 000000   		.align	2
 122              	.LC19:
 123 01a0 2D2D2D20 		.ascii	"--- Result: FAILURE (#%u [\000"
 123      52657375 
 123      6C743A20 
 123      4641494C 
 123      55524520 
 124 01bb 00       		.align	2
 125              	.LC20:
 126 01bc 5D202225 		.ascii	"] \"%s\")\015\012\000"
 126      7322290D 
 126      0A00
 127 01c6 0000     		.align	2
 128              	.LC21:
 129 01c8 2D2D2D20 		.ascii	"--- Result: SUCCESS\015\012\000"
 129      52657375 
 129      6C743A20 
 129      53554343 
 129      4553530D 
 130 01de 0000     		.align	2
 131              	.LC22:
 132 01e0 46696E61 		.ascii	"Final result: %s\015\012\000"
 132      6C207265 
 132      73756C74 
 132      3A202573 
 132      0D0A00
 133              		.section	.text.test_execute_inner,"ax",%progbits
 134              		.align	1
 135              		.p2align 4,,15
 136              		.syntax unified
 137              		.thumb
 138              		.thumb_func
 139              		.fpu softvfp
 140              		.type	test_execute_inner, %function
 141              	test_execute_inner:
 142              	.LVL4:
 143              	.LFB411:
 144              		.loc 1 127 56 is_stmt 1 view -0
 145              		.cfi_startproc
 146              		@ args = 0, pretend = 0, frame = 0
 147              		@ frame_needed = 0, uses_anonymous_args = 0
 148              		.loc 1 128 3 view .LVU10
 149              		.loc 1 131 3 view .LVU11
 150              		.loc 1 127 56 is_stmt 0 view .LVU12
 151 0000 2DE9F84F 		push	{r3, r4, r5, r6, r7, r8, r9, r10, fp, lr}
 152              		.cfi_def_cfa_offset 40
 153              		.cfi_offset 3, -40
 154              		.cfi_offset 4, -36
 155              		.cfi_offset 5, -32
 156              		.cfi_offset 6, -28
 157              		.cfi_offset 7, -24
ARM GAS  /tmp/ccIAvFqv.s 			page 5


 158              		.cfi_offset 8, -20
 159              		.cfi_offset 9, -16
 160              		.cfi_offset 10, -12
 161              		.cfi_offset 11, -8
 162              		.cfi_offset 14, -4
 163              		.loc 1 127 56 view .LVU13
 164 0004 8046     		mov	r8, r0
 165              		.loc 1 131 3 view .LVU14
 166 0006 7548     		ldr	r0, .L48
 167              	.LVL5:
 168              		.loc 1 131 3 view .LVU15
 169 0008 FFF7FEFF 		bl	test_printf
 170              	.LVL6:
 171              		.loc 1 132 3 is_stmt 1 view .LVU16
 172              		.loc 1 132 10 is_stmt 0 view .LVU17
 173 000c D8F80010 		ldr	r1, [r8]
 174              		.loc 1 132 6 view .LVU18
 175 0010 0029     		cmp	r1, #0
 176 0012 00F0DF80 		beq	.L7
 177              		.loc 1 133 5 is_stmt 1 view .LVU19
 178 0016 7248     		ldr	r0, .L48+4
 179 0018 FFF7FEFF 		bl	test_printf
 180              	.LVL7:
 181              	.L8:
 182              		.loc 1 138 3 view .LVU20
 183 001c 7148     		ldr	r0, .L48+8
 184              		.loc 1 164 22 is_stmt 0 view .LVU21
 185 001e 724E     		ldr	r6, .L48+12
 186              		.loc 1 138 3 view .LVU22
 187 0020 FFF7FEFF 		bl	test_printf
 188              	.LVL8:
 189              		.loc 1 139 3 is_stmt 1 view .LVU23
 190 0024 7149     		ldr	r1, .L48+16
 191 0026 7248     		ldr	r0, .L48+20
 192 0028 FFF7FEFF 		bl	test_printf
 193              	.LVL9:
 194              		.loc 1 141 3 view .LVU24
 195 002c 7149     		ldr	r1, .L48+24
 196 002e 7248     		ldr	r0, .L48+28
 197 0030 FFF7FEFF 		bl	test_printf
 198              	.LVL10:
 199              		.loc 1 144 3 view .LVU25
 200 0034 7149     		ldr	r1, .L48+32
 201 0036 7248     		ldr	r0, .L48+36
 202 0038 FFF7FEFF 		bl	test_printf
 203              	.LVL11:
 204              	.LBB57:
 205              		.loc 1 148 5 view .LVU26
 206              		.loc 1 152 5 view .LVU27
 207 003c 6948     		ldr	r0, .L48+8
 208 003e FFF7FEFF 		bl	test_printf
 209              	.LVL12:
 210              		.loc 1 153 5 view .LVU28
 211 0042 704B     		ldr	r3, .L48+40
 212 0044 7049     		ldr	r1, .L48+44
 213 0046 7148     		ldr	r0, .L48+48
 214 0048 C91A     		subs	r1, r1, r3
ARM GAS  /tmp/ccIAvFqv.s 			page 6


 215 004a FFF7FEFF 		bl	test_printf
 216              	.LVL13:
 217              		.loc 1 154 5 view .LVU29
 218 004e 704B     		ldr	r3, .L48+52
 219 0050 7049     		ldr	r1, .L48+56
 220 0052 7148     		ldr	r0, .L48+60
 221 0054 C91A     		subs	r1, r1, r3
 222 0056 FFF7FEFF 		bl	test_printf
 223              	.LVL14:
 224              		.loc 1 155 5 view .LVU30
 225 005a 704B     		ldr	r3, .L48+64
 226 005c 7049     		ldr	r1, .L48+68
 227 005e 7148     		ldr	r0, .L48+72
 228 0060 C91A     		subs	r1, r1, r3
 229 0062 FFF7FEFF 		bl	test_printf
 230              	.LVL15:
 231              		.loc 1 156 5 view .LVU31
 232 0066 704B     		ldr	r3, .L48+76
 233 0068 7049     		ldr	r1, .L48+80
 234 006a 7148     		ldr	r0, .L48+84
 235 006c C91A     		subs	r1, r1, r3
 236 006e FFF7FEFF 		bl	test_printf
 237              	.LVL16:
 238              	.LBE57:
 239              		.loc 1 162 3 view .LVU32
 240 0072 5A48     		ldr	r0, .L48
 241 0074 FFF7FEFF 		bl	test_printf
 242              	.LVL17:
 243              		.loc 1 164 3 view .LVU33
 244              		.loc 1 166 24 is_stmt 0 view .LVU34
 245 0078 D8F80430 		ldr	r3, [r8, #4]
 246              		.loc 1 166 9 view .LVU35
 247 007c 1A68     		ldr	r2, [r3]
 248              		.loc 1 164 22 view .LVU36
 249 007e 0023     		movs	r3, #0
 250 0080 3371     		strb	r3, [r6, #4]
 251              		.loc 1 165 3 is_stmt 1 view .LVU37
 252              	.LVL18:
 253              		.loc 1 166 3 view .LVU38
 254              		.loc 1 166 9 view .LVU39
 255 0082 002A     		cmp	r2, #0
 256 0084 00F08480 		beq	.L23
 257              		.loc 1 165 8 is_stmt 0 view .LVU40
 258 0088 9A46     		mov	r10, r3
 259              		.loc 1 166 24 view .LVU41
 260 008a 9946     		mov	r9, r3
 261              	.LVL19:
 262              	.L9:
 263              		.loc 1 166 24 view .LVU42
 264 008c 4C24     		movs	r4, #76
 265              	.L11:
 266              	.LVL20:
 267              	.LBB58:
 268              	.LBB59:
 269              		.loc 1 114 5 is_stmt 1 view .LVU43
 270 008e 3D20     		movs	r0, #61
 271 0090 FFF7FEFF 		bl	test_putchar
ARM GAS  /tmp/ccIAvFqv.s 			page 7


 272              	.LVL21:
 273              		.loc 1 113 23 view .LVU44
 274              		.loc 1 113 15 view .LVU45
 275              		.loc 1 113 3 is_stmt 0 view .LVU46
 276 0094 013C     		subs	r4, r4, #1
 277              	.LVL22:
 278              		.loc 1 113 3 view .LVU47
 279 0096 FAD1     		bne	.L11
 280 0098 504D     		ldr	r5, .L48
 281              	.LBB60:
 282              	.LBB61:
 283              		.loc 1 95 13 view .LVU48
 284 009a 0D20     		movs	r0, #13
 285              	.L12:
 286              	.LVL23:
 287              		.loc 1 96 5 is_stmt 1 view .LVU49
 288 009c FFF7FEFF 		bl	test_putchar
 289              	.LVL24:
 290              		.loc 1 97 5 view .LVU50
 291              		.loc 1 95 9 view .LVU51
 292              		.loc 1 95 13 is_stmt 0 view .LVU52
 293 00a0 15F8010F 		ldrb	r0, [r5, #1]!	@ zero_extendqisi2
 294              	.LVL25:
 295              		.loc 1 95 9 view .LVU53
 296 00a4 0028     		cmp	r0, #0
 297 00a6 F9D1     		bne	.L12
 298              	.LVL26:
 299              		.loc 1 95 9 view .LVU54
 300              	.LBE61:
 301              	.LBE60:
 302              	.LBE59:
 303              	.LBE58:
 304              		.loc 1 172 5 is_stmt 1 view .LVU55
 305              		.loc 1 172 90 is_stmt 0 view .LVU56
 306 00a8 D8F80430 		ldr	r3, [r8, #4]
 307              		.loc 1 172 5 view .LVU57
 308 00ac 6148     		ldr	r0, .L48+88
 309 00ae 53F80930 		ldr	r3, [r3, r9]
 310 00b2 0AF1010A 		add	r10, r10, #1
 311              	.LVL27:
 312              		.loc 1 172 5 view .LVU58
 313 00b6 1A68     		ldr	r2, [r3]
 314 00b8 5146     		mov	r1, r10
 315 00ba FFF7FEFF 		bl	test_printf
 316              	.LVL28:
 317              		.loc 1 174 5 is_stmt 1 view .LVU59
 318              		.loc 1 175 5 view .LVU60
 319              		.loc 1 175 11 view .LVU61
 320              		.loc 1 175 15 is_stmt 0 view .LVU62
 321 00be D8F80420 		ldr	r2, [r8, #4]
 322              		.loc 1 175 32 view .LVU63
 323 00c2 52F80930 		ldr	r3, [r2, r9]
 324              		.loc 1 175 39 view .LVU64
 325 00c6 5B68     		ldr	r3, [r3, #4]
 326              		.loc 1 175 11 view .LVU65
 327 00c8 1B68     		ldr	r3, [r3]
 328 00ca 002B     		cmp	r3, #0
ARM GAS  /tmp/ccIAvFqv.s 			page 8


 329 00cc 59D0     		beq	.L13
 330              	.LVL29:
 331              	.L22:
 332              		.loc 1 175 11 view .LVU66
 333 00ce A700     		lsls	r7, r4, #2
 334              	.LVL30:
 335              	.LBB65:
 336              	.LBB64:
 337              	.LBB63:
 338              	.LBB62:
 339              		.loc 1 95 13 view .LVU67
 340 00d0 4C25     		movs	r5, #76
 341              	.L14:
 342              	.LVL31:
 343              		.loc 1 95 13 view .LVU68
 344              	.LBE62:
 345              	.LBE63:
 346              	.LBE64:
 347              	.LBE65:
 348              	.LBB66:
 349              	.LBB67:
 350              		.loc 1 105 5 is_stmt 1 view .LVU69
 351 00d2 2D20     		movs	r0, #45
 352 00d4 FFF7FEFF 		bl	test_putchar
 353              	.LVL32:
 354              		.loc 1 104 23 view .LVU70
 355              		.loc 1 104 15 view .LVU71
 356              		.loc 1 104 3 is_stmt 0 view .LVU72
 357 00d8 013D     		subs	r5, r5, #1
 358              	.LVL33:
 359              		.loc 1 104 3 view .LVU73
 360 00da FAD1     		bne	.L14
 361              	.LBB68:
 362              	.LBB69:
 363              		.loc 1 95 13 view .LVU74
 364 00dc 0D25     		movs	r5, #13
 365              	.LVL34:
 366              		.loc 1 95 13 view .LVU75
 367              	.LBE69:
 368              	.LBE68:
 369 00de DFF8FCB0 		ldr	fp, .L48
 370              	.LBB71:
 371              	.LBB70:
 372 00e2 2846     		mov	r0, r5
 373              	.L15:
 374              	.LVL35:
 375              		.loc 1 96 5 is_stmt 1 view .LVU76
 376 00e4 FFF7FEFF 		bl	test_putchar
 377              	.LVL36:
 378              		.loc 1 97 5 view .LVU77
 379              		.loc 1 95 9 view .LVU78
 380              		.loc 1 95 13 is_stmt 0 view .LVU79
 381 00e8 1BF8010F 		ldrb	r0, [fp, #1]!	@ zero_extendqisi2
 382              	.LVL37:
 383              		.loc 1 95 9 view .LVU80
 384 00ec 0028     		cmp	r0, #0
 385 00ee F9D1     		bne	.L15
ARM GAS  /tmp/ccIAvFqv.s 			page 9


 386              	.LVL38:
 387              		.loc 1 95 9 view .LVU81
 388              	.LBE70:
 389              	.LBE71:
 390              	.LBE67:
 391              	.LBE66:
 392              		.loc 1 177 7 is_stmt 1 view .LVU82
 393              		.loc 1 177 103 is_stmt 0 view .LVU83
 394 00f0 D8F80430 		ldr	r3, [r8, #4]
 395              		.loc 1 177 109 view .LVU84
 396 00f4 53F80930 		ldr	r3, [r3, r9]
 397              		.loc 1 177 116 view .LVU85
 398 00f8 5B68     		ldr	r3, [r3, #4]
 399              		.loc 1 177 7 view .LVU86
 400 00fa DB59     		ldr	r3, [r3, r7]
 401 00fc 0134     		adds	r4, r4, #1
 402              	.LVL39:
 403              		.loc 1 177 7 view .LVU87
 404 00fe 1B68     		ldr	r3, [r3]
 405              		.loc 1 177 103 view .LVU88
 406 0100 0546     		mov	r5, r0
 407              		.loc 1 177 7 view .LVU89
 408 0102 2246     		mov	r2, r4
 409 0104 5146     		mov	r1, r10
 410 0106 4C48     		ldr	r0, .L48+92
 411 0108 FFF7FEFF 		bl	test_printf
 412              	.LVL40:
 413              		.loc 1 179 7 is_stmt 1 view .LVU90
 414              	.LBB72:
 415              	.LBI72:
 416              		.file 2 "../ChibiOS/os/hal/osal/rt-nil/osal.h"
 417              		.loc 2 782 20 view .LVU91
 418              	.LBB73:
 419              		.loc 2 784 3 view .LVU92
 420 010c 4FF4FA60 		mov	r0, #2000
 421 0110 FFF7FEFF 		bl	chThdSleep
 422              	.LVL41:
 423              		.loc 2 784 3 is_stmt 0 view .LVU93
 424              	.LBE73:
 425              	.LBE72:
 426              		.loc 1 184 7 is_stmt 1 view .LVU94
 427              		.loc 1 184 39 is_stmt 0 view .LVU95
 428 0114 D8F80430 		ldr	r3, [r8, #4]
 429              		.loc 1 184 45 view .LVU96
 430 0118 53F80930 		ldr	r3, [r3, r9]
 431              		.loc 1 184 7 view .LVU97
 432 011c 5B68     		ldr	r3, [r3, #4]
 433 011e 53F807B0 		ldr	fp, [r3, r7]
 434              	.LVL42:
 435              	.LBB74:
 436              	.LBI74:
 437              		.loc 1 77 13 is_stmt 1 view .LVU98
 438              	.LBB75:
 439              		.loc 1 80 3 view .LVU99
 440              	.LBB76:
 441              	.LBI76:
 442              		.loc 1 64 13 view .LVU100
ARM GAS  /tmp/ccIAvFqv.s 			page 10


 443              	.LBB77:
 444              		.loc 1 66 3 view .LVU101
 445              		.loc 1 66 15 is_stmt 0 view .LVU102
 446 0122 464B     		ldr	r3, .L48+96
 447 0124 F360     		str	r3, [r6, #12]
 448              	.LBE77:
 449              	.LBE76:
 450              		.loc 1 81 3 is_stmt 1 view .LVU103
 451              		.loc 1 83 10 is_stmt 0 view .LVU104
 452 0126 DBF80430 		ldr	r3, [fp, #4]
 453              		.loc 1 81 21 view .LVU105
 454 012a 7571     		strb	r5, [r6, #5]
 455              		.loc 1 83 3 is_stmt 1 view .LVU106
 456              		.loc 1 83 6 is_stmt 0 view .LVU107
 457 012c 03B1     		cbz	r3, .L16
 458              		.loc 1 84 5 is_stmt 1 view .LVU108
 459 012e 9847     		blx	r3
 460              	.LVL43:
 461              	.L16:
 462              		.loc 1 86 3 view .LVU109
 463 0130 DBF80C30 		ldr	r3, [fp, #12]
 464 0134 9847     		blx	r3
 465              	.LVL44:
 466              		.loc 1 87 3 view .LVU110
 467              		.loc 1 87 10 is_stmt 0 view .LVU111
 468 0136 DBF80830 		ldr	r3, [fp, #8]
 469              		.loc 1 87 6 view .LVU112
 470 013a 03B1     		cbz	r3, .L17
 471              		.loc 1 88 5 is_stmt 1 view .LVU113
 472 013c 9847     		blx	r3
 473              	.LVL45:
 474              	.L17:
 475              		.loc 1 88 5 is_stmt 0 view .LVU114
 476              	.LBE75:
 477              	.LBE74:
 478              		.loc 1 185 7 is_stmt 1 view .LVU115
 479              		.loc 1 185 10 is_stmt 0 view .LVU116
 480 013e 7379     		ldrb	r3, [r6, #5]	@ zero_extendqisi2
 481 0140 002B     		cmp	r3, #0
 482 0142 43D0     		beq	.L18
 483              		.loc 1 186 9 is_stmt 1 view .LVU117
 484 0144 B368     		ldr	r3, [r6, #8]
 485 0146 3E4A     		ldr	r2, .L48+100
 486 0148 3168     		ldr	r1, [r6]
 487 014a 3E48     		ldr	r0, .L48+104
 488 014c FFF7FEFF 		bl	test_printf
 489              	.LVL46:
 490              		.loc 1 187 9 view .LVU118
 491              	.LBB78:
 492              	.LBI78:
 493              		.loc 1 69 13 view .LVU119
 494              	.LBB79:
 495              		.loc 1 70 3 view .LVU120
 496              		.loc 1 72 3 view .LVU121
 497              		.loc 1 72 9 view .LVU122
 498 0150 F368     		ldr	r3, [r6, #12]
 499 0152 3A4A     		ldr	r2, .L48+96
ARM GAS  /tmp/ccIAvFqv.s 			page 11


 500 0154 9342     		cmp	r3, r2
 501 0156 07D9     		bls	.L21
 502              		.loc 1 70 9 is_stmt 0 view .LVU123
 503 0158 384D     		ldr	r5, .L48+96
 504              	.LVL47:
 505              	.L19:
 506              		.loc 1 73 5 is_stmt 1 view .LVU124
 507              		.loc 1 73 5 is_stmt 0 view .LVU125
 508 015a 15F8010B 		ldrb	r0, [r5], #1	@ zero_extendqisi2
 509              	.LVL48:
 510              		.loc 1 73 5 view .LVU126
 511 015e FFF7FEFF 		bl	test_putchar
 512              	.LVL49:
 513              		.loc 1 72 9 is_stmt 1 view .LVU127
 514 0162 F368     		ldr	r3, [r6, #12]
 515 0164 9D42     		cmp	r5, r3
 516 0166 F8D3     		bcc	.L19
 517              	.LVL50:
 518              	.L21:
 519              		.loc 1 72 9 is_stmt 0 view .LVU128
 520              	.LBE79:
 521              	.LBE78:
 522              		.loc 1 188 9 is_stmt 1 view .LVU129
 523 0168 B168     		ldr	r1, [r6, #8]
 524 016a 3748     		ldr	r0, .L48+108
 525 016c FFF7FEFF 		bl	test_printf
 526              	.LVL51:
 527              	.L20:
 528              		.loc 1 175 11 view .LVU130
 529              		.loc 1 175 15 is_stmt 0 view .LVU131
 530 0170 D8F80420 		ldr	r2, [r8, #4]
 531              		.loc 1 175 32 view .LVU132
 532 0174 52F80930 		ldr	r3, [r2, r9]
 533              		.loc 1 175 39 view .LVU133
 534 0178 5B68     		ldr	r3, [r3, #4]
 535 017a 1F44     		add	r7, r7, r3
 536              		.loc 1 175 11 view .LVU134
 537 017c 7B68     		ldr	r3, [r7, #4]
 538 017e 002B     		cmp	r3, #0
 539 0180 A5D1     		bne	.L22
 540              	.LVL52:
 541              	.L13:
 542              		.loc 1 166 9 is_stmt 1 view .LVU135
 543              		.loc 1 166 24 is_stmt 0 view .LVU136
 544 0182 09F10409 		add	r9, r9, #4
 545              		.loc 1 166 9 view .LVU137
 546 0186 52F80930 		ldr	r3, [r2, r9]
 547 018a 002B     		cmp	r3, #0
 548 018c 7FF47EAF 		bne	.L9
 549              	.LVL53:
 550              	.L23:
 551              	.LBB81:
 552              	.LBB80:
 553              		.loc 1 70 9 view .LVU138
 554 0190 4C24     		movs	r4, #76
 555              	.L10:
 556              	.LVL54:
ARM GAS  /tmp/ccIAvFqv.s 			page 12


 557              		.loc 1 70 9 view .LVU139
 558              	.LBE80:
 559              	.LBE81:
 560              	.LBB82:
 561              	.LBB83:
 562              		.loc 1 105 5 is_stmt 1 view .LVU140
 563 0192 2D20     		movs	r0, #45
 564 0194 FFF7FEFF 		bl	test_putchar
 565              	.LVL55:
 566              		.loc 1 104 23 view .LVU141
 567              		.loc 1 104 15 view .LVU142
 568              		.loc 1 104 3 is_stmt 0 view .LVU143
 569 0198 013C     		subs	r4, r4, #1
 570              	.LVL56:
 571              		.loc 1 104 3 view .LVU144
 572 019a FAD1     		bne	.L10
 573 019c 0F4C     		ldr	r4, .L48
 574              	.LVL57:
 575              	.LBB84:
 576              	.LBB85:
 577              		.loc 1 95 13 view .LVU145
 578 019e 0D20     		movs	r0, #13
 579              	.L24:
 580              	.LVL58:
 581              		.loc 1 96 5 is_stmt 1 view .LVU146
 582 01a0 FFF7FEFF 		bl	test_putchar
 583              	.LVL59:
 584              		.loc 1 97 5 view .LVU147
 585              		.loc 1 95 9 view .LVU148
 586              		.loc 1 95 13 is_stmt 0 view .LVU149
 587 01a4 14F8010F 		ldrb	r0, [r4, #1]!	@ zero_extendqisi2
 588              	.LVL60:
 589              		.loc 1 95 9 view .LVU150
 590 01a8 0028     		cmp	r0, #0
 591 01aa F9D1     		bne	.L24
 592              	.LVL61:
 593              		.loc 1 95 9 view .LVU151
 594              	.LBE85:
 595              	.LBE84:
 596              	.LBE83:
 597              	.LBE82:
 598              		.loc 1 198 3 is_stmt 1 view .LVU152
 599 01ac 0B48     		ldr	r0, .L48
 600 01ae FFF7FEFF 		bl	test_printf
 601              	.LVL62:
 602              		.loc 1 199 3 view .LVU153
 603 01b2 3179     		ldrb	r1, [r6, #4]	@ zero_extendqisi2
 604 01b4 254A     		ldr	r2, .L48+112
 605 01b6 264B     		ldr	r3, .L48+116
 606 01b8 2648     		ldr	r0, .L48+120
 607 01ba 0029     		cmp	r1, #0
 608 01bc 14BF     		ite	ne
 609 01be 1146     		movne	r1, r2
 610 01c0 1946     		moveq	r1, r3
 611 01c2 FFF7FEFF 		bl	test_printf
 612              	.LVL63:
 613              		.loc 1 206 3 view .LVU154
ARM GAS  /tmp/ccIAvFqv.s 			page 13


 614              		.loc 1 207 1 is_stmt 0 view .LVU155
 615 01c6 3079     		ldrb	r0, [r6, #4]	@ zero_extendqisi2
 616 01c8 BDE8F88F 		pop	{r3, r4, r5, r6, r7, r8, r9, r10, fp, pc}
 617              	.LVL64:
 618              	.L18:
 619              		.loc 1 191 9 is_stmt 1 view .LVU156
 620 01cc 2248     		ldr	r0, .L48+124
 621 01ce FFF7FEFF 		bl	test_printf
 622              	.LVL65:
 623 01d2 CDE7     		b	.L20
 624              	.LVL66:
 625              	.L7:
 626              		.loc 1 136 5 view .LVU157
 627 01d4 2148     		ldr	r0, .L48+128
 628 01d6 FFF7FEFF 		bl	test_printf
 629              	.LVL67:
 630 01da 1FE7     		b	.L8
 631              	.L49:
 632              		.align	2
 633              	.L48:
 634 01dc 00000000 		.word	.LC0
 635 01e0 14000000 		.word	.LC3
 636 01e4 34000000 		.word	.LC5
 637 01e8 00000000 		.word	.LANCHOR0
 638 01ec 3C000000 		.word	.LC6
 639 01f0 54000000 		.word	.LC7
 640 01f4 6C000000 		.word	.LC8
 641 01f8 88000000 		.word	.LC9
 642 01fc A0000000 		.word	.LC10
 643 0200 CC000000 		.word	.LC11
 644 0204 00000000 		.word	__text_base__
 645 0208 00000000 		.word	__text_end__
 646 020c E4000000 		.word	.LC12
 647 0210 00000000 		.word	__rodata_base__
 648 0214 00000000 		.word	__rodata_end__
 649 0218 04010000 		.word	.LC13
 650 021c 00000000 		.word	__data_base__
 651 0220 00000000 		.word	__data_end__
 652 0224 24010000 		.word	.LC14
 653 0228 00000000 		.word	__bss_base__
 654 022c 00000000 		.word	__bss_end__
 655 0230 44010000 		.word	.LC15
 656 0234 64010000 		.word	.LC16
 657 0238 80010000 		.word	.LC17
 658 023c 10000000 		.word	.LANCHOR0+16
 659 0240 9C010000 		.word	.LC18
 660 0244 A0010000 		.word	.LC19
 661 0248 BC010000 		.word	.LC20
 662 024c 04000000 		.word	.LC1
 663 0250 0C000000 		.word	.LC2
 664 0254 E0010000 		.word	.LC22
 665 0258 C8010000 		.word	.LC21
 666 025c 20000000 		.word	.LC4
 667              		.cfi_endproc
 668              	.LFE411:
 669              		.size	test_execute_inner, .-test_execute_inner
 670              		.section	.text.__test_fail,"ax",%progbits
ARM GAS  /tmp/ccIAvFqv.s 			page 14


 671              		.align	1
 672              		.p2align 4,,15
 673              		.global	__test_fail
 674              		.syntax unified
 675              		.thumb
 676              		.thumb_func
 677              		.fpu softvfp
 678              		.type	__test_fail, %function
 679              	__test_fail:
 680              	.LVL68:
 681              	.LFB412:
 682              		.loc 1 213 35 view -0
 683              		.cfi_startproc
 684              		@ args = 0, pretend = 0, frame = 0
 685              		@ frame_needed = 0, uses_anonymous_args = 0
 686              		@ link register save eliminated.
 687              		.loc 1 215 3 view .LVU159
 688              		.loc 1 216 3 view .LVU160
 689              		.loc 1 216 26 is_stmt 0 view .LVU161
 690 0000 034B     		ldr	r3, .L51
 691 0002 40F20112 		movw	r2, #257
 692              		.loc 1 217 26 view .LVU162
 693 0006 9860     		str	r0, [r3, #8]
 694              		.loc 1 216 26 view .LVU163
 695 0008 9A80     		strh	r2, [r3, #4]	@ movhi
 696              		.loc 1 217 3 is_stmt 1 view .LVU164
 697              		.loc 1 218 3 view .LVU165
 698              		.loc 1 219 1 is_stmt 0 view .LVU166
 699 000a 0120     		movs	r0, #1
 700              	.LVL69:
 701              		.loc 1 219 1 view .LVU167
 702 000c 7047     		bx	lr
 703              	.L52:
 704 000e 00BF     		.align	2
 705              	.L51:
 706 0010 00000000 		.word	.LANCHOR0
 707              		.cfi_endproc
 708              	.LFE412:
 709              		.size	__test_fail, .-__test_fail
 710              		.section	.text.__test_assert,"ax",%progbits
 711              		.align	1
 712              		.p2align 4,,15
 713              		.global	__test_assert
 714              		.syntax unified
 715              		.thumb
 716              		.thumb_func
 717              		.fpu softvfp
 718              		.type	__test_assert, %function
 719              	__test_assert:
 720              	.LVL70:
 721              	.LFB413:
 722              		.loc 1 221 53 is_stmt 1 view -0
 723              		.cfi_startproc
 724              		@ args = 0, pretend = 0, frame = 0
 725              		@ frame_needed = 0, uses_anonymous_args = 0
 726              		@ link register save eliminated.
 727              		.loc 1 223 3 view .LVU169
ARM GAS  /tmp/ccIAvFqv.s 			page 15


 728              		.loc 1 223 6 is_stmt 0 view .LVU170
 729 0000 08B1     		cbz	r0, .L56
 730              		.loc 1 226 10 view .LVU171
 731 0002 0020     		movs	r0, #0
 732              	.LVL71:
 733              		.loc 1 227 1 view .LVU172
 734 0004 7047     		bx	lr
 735              	.LVL72:
 736              	.L56:
 737              		.loc 1 224 5 is_stmt 1 view .LVU173
 738              	.LBB86:
 739              	.LBI86:
 740              		.loc 1 213 6 view .LVU174
 741              	.LBB87:
 742              		.loc 1 215 3 view .LVU175
 743              		.loc 1 216 3 view .LVU176
 744              		.loc 1 216 26 is_stmt 0 view .LVU177
 745 0006 034B     		ldr	r3, .L57
 746 0008 40F20112 		movw	r2, #257
 747 000c 9A80     		strh	r2, [r3, #4]	@ movhi
 748              		.loc 1 217 3 is_stmt 1 view .LVU178
 749              		.loc 1 217 26 is_stmt 0 view .LVU179
 750 000e 9960     		str	r1, [r3, #8]
 751              		.loc 1 218 3 is_stmt 1 view .LVU180
 752              	.LVL73:
 753              		.loc 1 218 3 is_stmt 0 view .LVU181
 754              	.LBE87:
 755              	.LBE86:
 756              		.loc 1 224 12 view .LVU182
 757 0010 0120     		movs	r0, #1
 758              	.LVL74:
 759              		.loc 1 224 12 view .LVU183
 760 0012 7047     		bx	lr
 761              	.L58:
 762              		.align	2
 763              	.L57:
 764 0014 00000000 		.word	.LANCHOR0
 765              		.cfi_endproc
 766              	.LFE413:
 767              		.size	__test_assert, .-__test_assert
 768              		.section	.text.__test_assert_sequence,"ax",%progbits
 769              		.align	1
 770              		.p2align 4,,15
 771              		.global	__test_assert_sequence
 772              		.syntax unified
 773              		.thumb
 774              		.thumb_func
 775              		.fpu softvfp
 776              		.type	__test_assert_sequence, %function
 777              	__test_assert_sequence:
 778              	.LVL75:
 779              	.LFB414:
 780              		.loc 1 229 62 is_stmt 1 view -0
 781              		.cfi_startproc
 782              		@ args = 0, pretend = 0, frame = 0
 783              		@ frame_needed = 0, uses_anonymous_args = 0
 784              		@ link register save eliminated.
ARM GAS  /tmp/ccIAvFqv.s 			page 16


 785              		.loc 1 230 3 view .LVU185
 786              		.loc 1 232 3 view .LVU186
 787              		.loc 1 229 62 is_stmt 0 view .LVU187
 788 0000 70B4     		push	{r4, r5, r6}
 789              		.cfi_def_cfa_offset 12
 790              		.cfi_offset 4, -12
 791              		.cfi_offset 5, -8
 792              		.cfi_offset 6, -4
 793              		.loc 1 232 21 view .LVU188
 794 0002 0D4D     		ldr	r5, .L66
 795              		.loc 1 230 9 view .LVU189
 796 0004 05F11006 		add	r6, r5, #16
 797              		.loc 1 232 21 view .LVU190
 798 0008 EC68     		ldr	r4, [r5, #12]
 799              		.loc 1 230 9 view .LVU191
 800 000a 3346     		mov	r3, r6
 801              		.loc 1 232 9 view .LVU192
 802 000c 05E0     		b	.L60
 803              	.LVL76:
 804              	.L62:
 805              		.loc 1 233 8 view .LVU193
 806 000e 13F801CB 		ldrb	ip, [r3], #1	@ zero_extendqisi2
 807              	.LVL77:
 808              		.loc 1 233 8 view .LVU194
 809 0012 10F8012B 		ldrb	r2, [r0], #1	@ zero_extendqisi2
 810              	.LVL78:
 811              		.loc 1 233 8 view .LVU195
 812 0016 9445     		cmp	ip, r2
 813 0018 06D1     		bne	.L63
 814              	.LVL79:
 815              	.L60:
 816              		.loc 1 233 5 is_stmt 1 view .LVU196
 817              		.loc 1 232 9 view .LVU197
 818 001a 9C42     		cmp	r4, r3
 819 001c F7D8     		bhi	.L62
 820              		.loc 1 237 3 view .LVU198
 821              		.loc 1 237 6 is_stmt 0 view .LVU199
 822 001e 0078     		ldrb	r0, [r0]	@ zero_extendqisi2
 823              	.LVL80:
 824              		.loc 1 237 6 view .LVU200
 825 0020 10B9     		cbnz	r0, .L63
 826              		.loc 1 241 3 is_stmt 1 view .LVU201
 827              	.LBB88:
 828              	.LBI88:
 829              		.loc 1 64 13 view .LVU202
 830              	.LBB89:
 831              		.loc 1 66 3 view .LVU203
 832              		.loc 1 66 15 is_stmt 0 view .LVU204
 833 0022 EE60     		str	r6, [r5, #12]
 834              	.LBE89:
 835              	.LBE88:
 836              		.loc 1 243 3 is_stmt 1 view .LVU205
 837              		.loc 1 244 1 is_stmt 0 view .LVU206
 838 0024 70BC     		pop	{r4, r5, r6}
 839              		.cfi_remember_state
 840              		.cfi_restore 6
 841              		.cfi_restore 5
ARM GAS  /tmp/ccIAvFqv.s 			page 17


 842              		.cfi_restore 4
 843              		.cfi_def_cfa_offset 0
 844 0026 7047     		bx	lr
 845              	.LVL81:
 846              	.L63:
 847              		.cfi_restore_state
 848              		.loc 1 234 6 is_stmt 1 view .LVU207
 849              	.LBB90:
 850              	.LBI90:
 851              		.loc 1 213 6 view .LVU208
 852              	.LBB91:
 853              		.loc 1 215 3 view .LVU209
 854              		.loc 1 216 3 view .LVU210
 855              		.loc 1 216 26 is_stmt 0 view .LVU211
 856 0028 40F20113 		movw	r3, #257
 857 002c AB80     		strh	r3, [r5, #4]	@ movhi
 858              		.loc 1 217 3 is_stmt 1 view .LVU212
 859              		.loc 1 217 26 is_stmt 0 view .LVU213
 860 002e A960     		str	r1, [r5, #8]
 861              		.loc 1 218 3 is_stmt 1 view .LVU214
 862              	.LVL82:
 863              		.loc 1 218 3 is_stmt 0 view .LVU215
 864              	.LBE91:
 865              	.LBE90:
 866              		.loc 1 234 13 view .LVU216
 867 0030 0120     		movs	r0, #1
 868              		.loc 1 244 1 view .LVU217
 869 0032 70BC     		pop	{r4, r5, r6}
 870              		.cfi_restore 6
 871              		.cfi_restore 5
 872              		.cfi_restore 4
 873              		.cfi_def_cfa_offset 0
 874 0034 7047     		bx	lr
 875              	.L67:
 876 0036 00BF     		.align	2
 877              	.L66:
 878 0038 00000000 		.word	.LANCHOR0
 879              		.cfi_endproc
 880              	.LFE414:
 881              		.size	__test_assert_sequence, .-__test_assert_sequence
 882              		.section	.text.__test_assert_time_window,"ax",%progbits
 883              		.align	1
 884              		.p2align 4,,15
 885              		.global	__test_assert_time_window
 886              		.syntax unified
 887              		.thumb
 888              		.thumb_func
 889              		.fpu softvfp
 890              		.type	__test_assert_time_window, %function
 891              	__test_assert_time_window:
 892              	.LVL83:
 893              	.LFB415:
 894              		.loc 1 249 49 is_stmt 1 view -0
 895              		.cfi_startproc
 896              		@ args = 0, pretend = 0, frame = 0
 897              		@ frame_needed = 0, uses_anonymous_args = 0
 898              		.loc 1 251 3 view .LVU219
ARM GAS  /tmp/ccIAvFqv.s 			page 18


 899              	.LBB92:
 900              	.LBI92:
 901              		.loc 2 698 25 view .LVU220
 902              	.LBE92:
 903              		.loc 2 700 3 view .LVU221
 904              	.LBB100:
 905              	.LBB93:
 906              	.LBI93:
 907              		.file 3 "../ChibiOS/os/rt/include/chvt.h"
 908              		.loc 3 122 25 view .LVU222
 909              	.LBE93:
 910              	.LBE100:
 911              		.loc 3 127 3 view .LVU223
 912              	.LBB101:
 913              	.LBB98:
 914              	.LBB94:
 915              	.LBI94:
 916              		.file 4 "../ChibiOS/os/hal/osal/rt-nil/chcore_timer.h"
 917              		.loc 4 111 25 view .LVU224
 918              	.LBB95:
 919              		.loc 4 113 3 view .LVU225
 920              	.LBE95:
 921              	.LBE94:
 922              	.LBE98:
 923              	.LBE101:
 924              		.loc 1 249 49 is_stmt 0 view .LVU226
 925 0000 70B5     		push	{r4, r5, r6, lr}
 926              		.cfi_def_cfa_offset 16
 927              		.cfi_offset 4, -16
 928              		.cfi_offset 5, -12
 929              		.cfi_offset 6, -8
 930              		.cfi_offset 14, -4
 931              		.loc 1 249 49 view .LVU227
 932 0002 0546     		mov	r5, r0
 933 0004 0C46     		mov	r4, r1
 934 0006 1646     		mov	r6, r2
 935              	.LBB102:
 936              	.LBB99:
 937              	.LBB97:
 938              	.LBB96:
 939              		.loc 4 113 10 view .LVU228
 940 0008 FFF7FEFF 		bl	stGetCounter
 941              	.LVL84:
 942              		.loc 4 113 10 view .LVU229
 943              	.LBE96:
 944              	.LBE97:
 945              	.LBE99:
 946              	.LBE102:
 947              	.LBB103:
 948              	.LBI103:
 949              		.loc 2 746 20 is_stmt 1 view .LVU230
 950              	.LBE103:
 951              		.loc 2 750 3 view .LVU231
 952              	.LBB108:
 953              	.LBB104:
 954              	.LBI104:
 955              		.file 5 "../ChibiOS/os/rt/include/chtime.h"
ARM GAS  /tmp/ccIAvFqv.s 			page 19


 956              		.loc 5 484 20 view .LVU232
 957              	.LBB105:
 958              		.loc 5 488 3 view .LVU233
 959              		.loc 5 488 3 is_stmt 0 view .LVU234
 960              	.LBE105:
 961              	.LBE104:
 962              	.LBE108:
 963              	.LBB109:
 964              	.LBI109:
 965              		.loc 1 221 6 is_stmt 1 view .LVU235
 966              	.LBB110:
 967              		.loc 1 223 3 view .LVU236
 968              	.LBE110:
 969              	.LBE109:
 970              	.LBB115:
 971              	.LBB107:
 972              	.LBB106:
 973              		.loc 5 489 17 is_stmt 0 view .LVU237
 974 000c 641B     		subs	r4, r4, r5
 975              	.LVL85:
 976              		.loc 5 488 17 view .LVU238
 977 000e 401B     		subs	r0, r0, r5
 978              	.LVL86:
 979              		.loc 5 488 17 view .LVU239
 980              	.LBE106:
 981              	.LBE107:
 982              	.LBE115:
 983              	.LBB116:
 984              	.LBB113:
 985              		.loc 1 223 6 view .LVU240
 986 0010 A042     		cmp	r0, r4
 987 0012 01D2     		bcs	.L72
 988              		.loc 1 226 10 view .LVU241
 989 0014 0020     		movs	r0, #0
 990              	.LVL87:
 991              		.loc 1 226 10 view .LVU242
 992              	.LBE113:
 993              	.LBE116:
 994              		.loc 1 253 1 view .LVU243
 995 0016 70BD     		pop	{r4, r5, r6, pc}
 996              	.LVL88:
 997              	.L72:
 998              	.LBB117:
 999              	.LBB114:
 1000              		.loc 1 224 5 is_stmt 1 view .LVU244
 1001              	.LBB111:
 1002              	.LBI111:
 1003              		.loc 1 213 6 view .LVU245
 1004              	.LBB112:
 1005              		.loc 1 215 3 view .LVU246
 1006              		.loc 1 216 3 view .LVU247
 1007              		.loc 1 216 26 is_stmt 0 view .LVU248
 1008 0018 034B     		ldr	r3, .L73
 1009 001a 40F20112 		movw	r2, #257
 1010 001e 9A80     		strh	r2, [r3, #4]	@ movhi
 1011              		.loc 1 217 3 is_stmt 1 view .LVU249
 1012              		.loc 1 217 26 is_stmt 0 view .LVU250
ARM GAS  /tmp/ccIAvFqv.s 			page 20


 1013 0020 9E60     		str	r6, [r3, #8]
 1014              		.loc 1 218 3 is_stmt 1 view .LVU251
 1015              	.LVL89:
 1016              		.loc 1 218 3 is_stmt 0 view .LVU252
 1017              	.LBE112:
 1018              	.LBE111:
 1019              		.loc 1 224 12 view .LVU253
 1020 0022 0120     		movs	r0, #1
 1021              	.LVL90:
 1022              		.loc 1 224 12 view .LVU254
 1023              	.LBE114:
 1024              	.LBE117:
 1025              		.loc 1 253 1 view .LVU255
 1026 0024 70BD     		pop	{r4, r5, r6, pc}
 1027              	.LVL91:
 1028              	.L74:
 1029              		.loc 1 253 1 view .LVU256
 1030 0026 00BF     		.align	2
 1031              	.L73:
 1032 0028 00000000 		.word	.LANCHOR0
 1033              		.cfi_endproc
 1034              	.LFE415:
 1035              		.size	__test_assert_time_window, .-__test_assert_time_window
 1036              		.section	.text.test_emit_token,"ax",%progbits
 1037              		.align	1
 1038              		.p2align 4,,15
 1039              		.global	test_emit_token
 1040              		.syntax unified
 1041              		.thumb
 1042              		.thumb_func
 1043              		.fpu softvfp
 1044              		.type	test_emit_token, %function
 1045              	test_emit_token:
 1046              	.LVL92:
 1047              	.LFB416:
 1048              		.loc 1 263 34 is_stmt 1 view -0
 1049              		.cfi_startproc
 1050              		@ args = 0, pretend = 0, frame = 0
 1051              		@ frame_needed = 0, uses_anonymous_args = 0
 1052              		@ link register save eliminated.
 1053              		.loc 1 265 3 view .LVU258
 1054              		.loc 1 265 13 is_stmt 0 view .LVU259
 1055 0000 044B     		ldr	r3, .L77
 1056 0002 DA68     		ldr	r2, [r3, #12]
 1057              		.loc 1 265 6 view .LVU260
 1058 0004 03F12001 		add	r1, r3, #32
 1059 0008 8A42     		cmp	r2, r1
 1060 000a 02D2     		bcs	.L75
 1061              		.loc 1 266 5 is_stmt 1 view .LVU261
 1062              		.loc 1 266 17 is_stmt 0 view .LVU262
 1063 000c 511C     		adds	r1, r2, #1
 1064 000e D960     		str	r1, [r3, #12]
 1065              		.loc 1 266 20 view .LVU263
 1066 0010 1070     		strb	r0, [r2]
 1067              	.L75:
 1068              		.loc 1 268 1 view .LVU264
 1069 0012 7047     		bx	lr
ARM GAS  /tmp/ccIAvFqv.s 			page 21


 1070              	.L78:
 1071              		.align	2
 1072              	.L77:
 1073 0014 00000000 		.word	.LANCHOR0
 1074              		.cfi_endproc
 1075              	.LFE416:
 1076              		.size	test_emit_token, .-test_emit_token
 1077              		.section	.text.test_execute_putchar,"ax",%progbits
 1078              		.align	1
 1079              		.p2align 4,,15
 1080              		.global	test_execute_putchar
 1081              		.syntax unified
 1082              		.thumb
 1083              		.thumb_func
 1084              		.fpu softvfp
 1085              		.type	test_execute_putchar, %function
 1086              	test_execute_putchar:
 1087              	.LVL93:
 1088              	.LFB417:
 1089              		.loc 1 283 51 is_stmt 1 view -0
 1090              		.cfi_startproc
 1091              		@ args = 0, pretend = 0, frame = 0
 1092              		@ frame_needed = 0, uses_anonymous_args = 0
 1093              		@ link register save eliminated.
 1094              		.loc 1 286 3 view .LVU266
 1095              		.loc 1 286 18 is_stmt 0 view .LVU267
 1096 0000 044B     		ldr	r3, .L81
 1097              		.loc 1 283 51 view .LVU268
 1098 0002 10B4     		push	{r4}
 1099              		.cfi_def_cfa_offset 4
 1100              		.cfi_offset 4, -4
 1101              		.loc 1 283 51 view .LVU269
 1102 0004 0246     		mov	r2, r0
 1103              		.loc 1 286 18 view .LVU270
 1104 0006 0024     		movs	r4, #0
 1105              		.loc 1 287 18 view .LVU271
 1106 0008 C3E90824 		strd	r2, r4, [r3, #32]
 1107              		.loc 1 290 3 is_stmt 1 view .LVU272
 1108              		.loc 1 290 10 is_stmt 0 view .LVU273
 1109 000c 0846     		mov	r0, r1
 1110              	.LVL94:
 1111              		.loc 1 291 1 view .LVU274
 1112 000e 10BC     		pop	{r4}
 1113              		.cfi_restore 4
 1114              		.cfi_def_cfa_offset 0
 1115              		.loc 1 290 10 view .LVU275
 1116 0010 FFF7FEBF 		b	test_execute_inner
 1117              	.LVL95:
 1118              	.L82:
 1119              		.loc 1 290 10 view .LVU276
 1120              		.align	2
 1121              	.L81:
 1122 0014 00000000 		.word	.LANCHOR0
 1123              		.cfi_endproc
 1124              	.LFE417:
 1125              		.size	test_execute_putchar, .-test_execute_putchar
 1126              		.section	.text.test_execute_stream,"ax",%progbits
ARM GAS  /tmp/ccIAvFqv.s 			page 22


 1127              		.align	1
 1128              		.p2align 4,,15
 1129              		.global	test_execute_stream
 1130              		.syntax unified
 1131              		.thumb
 1132              		.thumb_func
 1133              		.fpu softvfp
 1134              		.type	test_execute_stream, %function
 1135              	test_execute_stream:
 1136              	.LVL96:
 1137              	.LFB418:
 1138              		.loc 1 307 50 is_stmt 1 view -0
 1139              		.cfi_startproc
 1140              		@ args = 0, pretend = 0, frame = 0
 1141              		@ frame_needed = 0, uses_anonymous_args = 0
 1142              		@ link register save eliminated.
 1143              		.loc 1 310 3 view .LVU278
 1144              		.loc 1 310 18 is_stmt 0 view .LVU279
 1145 0000 044B     		ldr	r3, .L85
 1146              		.loc 1 311 18 view .LVU280
 1147 0002 054A     		ldr	r2, .L85+4
 1148              		.loc 1 307 50 view .LVU281
 1149 0004 10B4     		push	{r4}
 1150              		.cfi_def_cfa_offset 4
 1151              		.cfi_offset 4, -4
 1152              		.loc 1 307 50 view .LVU282
 1153 0006 0446     		mov	r4, r0
 1154              		.loc 1 311 18 view .LVU283
 1155 0008 C3E90824 		strd	r2, r4, [r3, #32]
 1156              		.loc 1 314 3 is_stmt 1 view .LVU284
 1157              		.loc 1 314 10 is_stmt 0 view .LVU285
 1158 000c 0846     		mov	r0, r1
 1159              	.LVL97:
 1160              		.loc 1 315 1 view .LVU286
 1161 000e 10BC     		pop	{r4}
 1162              		.cfi_restore 4
 1163              		.cfi_def_cfa_offset 0
 1164              	.LVL98:
 1165              		.loc 1 314 10 view .LVU287
 1166 0010 FFF7FEBF 		b	test_execute_inner
 1167              	.LVL99:
 1168              	.L86:
 1169              		.loc 1 314 10 view .LVU288
 1170              		.align	2
 1171              	.L85:
 1172 0014 00000000 		.word	.LANCHOR0
 1173 0018 00000000 		.word	test_stream_putchar
 1174              		.cfi_endproc
 1175              	.LFE418:
 1176              		.size	test_execute_stream, .-test_execute_stream
 1177              		.global	chtest
 1178              		.section	.bss.chtest,"aw",%nobits
 1179              		.align	2
 1180              		.set	.LANCHOR0,. + 0
 1181              		.type	chtest, %object
 1182              		.size	chtest, 40
 1183              	chtest:
ARM GAS  /tmp/ccIAvFqv.s 			page 23


 1184 0000 00000000 		.space	40
 1184      00000000 
 1184      00000000 
 1184      00000000 
 1184      00000000 
 1185              		.text
 1186              	.Letext0:
 1187              		.file 6 "/opt/gcc-arm-none-eabi/gcc-arm-none-eabi-10.3-2021.07/lib/gcc/arm-none-eabi/10.3.1/includ
 1188              		.file 7 "/opt/gcc-arm-none-eabi/gcc-arm-none-eabi-10.3-2021.07/arm-none-eabi/include/machine/_defa
 1189              		.file 8 "/opt/gcc-arm-none-eabi/gcc-arm-none-eabi-10.3-2021.07/arm-none-eabi/include/sys/_stdint.h
 1190              		.file 9 "../ChibiOS/os/rt/include/chearly.h"
 1191              		.file 10 "../ChibiOS/os/hal/include/hal_streams.h"
 1192              		.file 11 "../ChibiOS/os/test/include/ch_test.h"
 1193              		.file 12 "../ChibiOS/os/hal/include/hal_st.h"
 1194              		.file 13 "../ChibiOS/os/rt/include/chthreads.h"