ARM GAS  /tmp/ccj41NtU.s 			page 1


   1              		.cpu cortex-m4
   2              		.eabi_attribute 20, 1
   3              		.eabi_attribute 21, 1
   4              		.eabi_attribute 23, 3
   5              		.eabi_attribute 24, 1
   6              		.eabi_attribute 25, 1
   7              		.eabi_attribute 26, 1
   8              		.eabi_attribute 30, 2
   9              		.eabi_attribute 34, 1
  10              		.eabi_attribute 18, 4
  11              		.file	"chcond.c"
  12              		.text
  13              	.Ltext0:
  14              		.cfi_sections	.debug_frame
  15              		.section	.text.chCondObjectInit,"ax",%progbits
  16              		.align	1
  17              		.p2align 4,,15
  18              		.global	chCondObjectInit
  19              		.arch armv7e-m
  20              		.syntax unified
  21              		.thumb
  22              		.thumb_func
  23              		.fpu softvfp
  24              		.type	chCondObjectInit, %function
  25              	chCondObjectInit:
  26              	.LVL0:
  27              	.LFB335:
  28              		.file 1 "../ChibiOS/os/rt/src/chcond.c"
  29              		.loc 1 75 49 view -0
  30              		.cfi_startproc
  31              		@ args = 0, pretend = 0, frame = 0
  32              		@ frame_needed = 0, uses_anonymous_args = 0
  33              		@ link register save eliminated.
  34              		.loc 1 77 3 view .LVU1
  35              		.loc 1 77 3 view .LVU2
  36              		.loc 1 77 3 view .LVU3
  37              		.loc 1 79 3 view .LVU4
  38              	.LBB83:
  39              	.LBI83:
  40              		.file 2 "../ChibiOS/os/rt/include/chlists.h"
  41              		.loc 2 222 20 view .LVU5
  42              	.LBB84:
  43              		.loc 2 224 3 view .LVU6
  44              		.loc 2 225 12 is_stmt 0 view .LVU7
  45 0000 C0E90000 		strd	r0, r0, [r0]
  46              	.LVL1:
  47              		.loc 2 225 12 view .LVU8
  48              	.LBE84:
  49              	.LBE83:
  50              		.loc 1 80 1 view .LVU9
  51 0004 7047     		bx	lr
  52              		.cfi_endproc
  53              	.LFE335:
  54              		.size	chCondObjectInit, .-chCondObjectInit
  55 0006 00BF     		.section	.text.chCondSignal,"ax",%progbits
  56              		.align	1
  57              		.p2align 4,,15
ARM GAS  /tmp/ccj41NtU.s 			page 2


  58              		.global	chCondSignal
  59              		.syntax unified
  60              		.thumb
  61              		.thumb_func
  62              		.fpu softvfp
  63              		.type	chCondSignal, %function
  64              	chCondSignal:
  65              	.LVL2:
  66              	.LFB336:
  67              		.loc 1 89 45 is_stmt 1 view -0
  68              		.cfi_startproc
  69              		@ args = 0, pretend = 0, frame = 0
  70              		@ frame_needed = 0, uses_anonymous_args = 0
  71              		.loc 1 91 3 view .LVU11
  72              		.loc 1 91 3 view .LVU12
  73              		.loc 1 91 3 view .LVU13
  74              		.loc 1 93 3 view .LVU14
  75              	.LBB85:
  76              	.LBI85:
  77              		.file 3 "../ChibiOS/os/rt/include/chsys.h"
  78              		.loc 3 407 20 view .LVU15
  79              	.LBE85:
  80              		.loc 3 409 3 view .LVU16
  81              	.LBB96:
  82              	.LBB86:
  83              	.LBI86:
  84              		.file 4 "../ChibiOS/os/common/ports/ARMv7-M/chcore.h"
  85              		.loc 4 806 27 view .LVU17
  86              	.LBE86:
  87              	.LBE96:
  88              		.loc 4 814 3 view .LVU18
  89              	.LBB97:
  90              	.LBB93:
  91              	.LBB87:
  92              	.LBI87:
  93              		.file 5 "../ChibiOS/os/common/ext/ARM/CMSIS/Core/Include/cmsis_gcc.h"
  94              		.loc 5 491 27 view .LVU19
  95              	.LBB88:
  96              		.loc 5 493 3 view .LVU20
  97              	.LBE88:
  98              	.LBE87:
  99              	.LBE93:
 100              	.LBE97:
 101              		.loc 1 89 45 is_stmt 0 view .LVU21
 102 0000 08B5     		push	{r3, lr}
 103              		.cfi_def_cfa_offset 8
 104              		.cfi_offset 3, -8
 105              		.cfi_offset 14, -4
 106              	.LBB98:
 107              	.LBB94:
 108              	.LBB91:
 109              	.LBB89:
 110              		.loc 5 493 3 view .LVU22
 111 0002 3022     		movs	r2, #48
 112              	.LBE89:
 113              	.LBE91:
 114              	.LBE94:
ARM GAS  /tmp/ccj41NtU.s 			page 3


 115              	.LBE98:
 116              		.loc 1 89 45 view .LVU23
 117 0004 0346     		mov	r3, r0
 118              	.LBB99:
 119              	.LBB95:
 120              	.LBB92:
 121              	.LBB90:
 122              		.loc 5 493 3 view .LVU24
 123              		.syntax unified
 124              	@ 493 "../ChibiOS/os/common/ext/ARM/CMSIS/Core/Include/cmsis_gcc.h" 1
 125 0006 82F31188 		MSR basepri, r2
 126              	@ 0 "" 2
 127              	.LVL3:
 128              		.loc 5 493 3 view .LVU25
 129              		.thumb
 130              		.syntax unified
 131              	.LBE90:
 132              	.LBE92:
 133              	.LBE95:
 134              	.LBE99:
 135              		.loc 3 410 35 is_stmt 1 view .LVU26
 136              		.loc 3 411 21 view .LVU27
 137              		.loc 1 94 3 view .LVU28
 138              	.LBB100:
 139              	.LBI100:
 140              		.loc 2 249 20 view .LVU29
 141              	.LBB101:
 142              		.loc 2 251 3 view .LVU30
 143              		.loc 2 251 19 is_stmt 0 view .LVU31
 144 000a 0068     		ldr	r0, [r0]
 145              	.LVL4:
 146              		.loc 2 251 19 view .LVU32
 147              	.LBE101:
 148              	.LBE100:
 149              		.loc 1 94 6 view .LVU33
 150 000c 8342     		cmp	r3, r0
 151 000e 05D0     		beq	.L4
 152              		.loc 1 95 5 is_stmt 1 view .LVU34
 153              	.LVL5:
 154              	.LBB102:
 155              	.LBI102:
 156              		.loc 2 280 27 view .LVU35
 157              	.LBB103:
 158              		.loc 2 281 3 view .LVU36
 159              		.loc 2 283 3 view .LVU37
 160              		.loc 2 283 21 is_stmt 0 view .LVU38
 161 0010 0268     		ldr	r2, [r0]
 162              		.loc 2 283 18 view .LVU39
 163 0012 1A60     		str	r2, [r3]
 164              		.loc 2 284 3 is_stmt 1 view .LVU40
 165              	.LBE103:
 166              	.LBE102:
 167              		.loc 1 95 5 is_stmt 0 view .LVU41
 168 0014 0021     		movs	r1, #0
 169              	.LBB105:
 170              	.LBB104:
 171              		.loc 2 284 18 view .LVU42
ARM GAS  /tmp/ccj41NtU.s 			page 4


 172 0016 5360     		str	r3, [r2, #4]
 173              		.loc 2 286 3 is_stmt 1 view .LVU43
 174              	.LVL6:
 175              		.loc 2 286 3 is_stmt 0 view .LVU44
 176              	.LBE104:
 177              	.LBE105:
 178              		.loc 1 95 5 view .LVU45
 179 0018 FFF7FEFF 		bl	chSchWakeupS
 180              	.LVL7:
 181              	.L4:
 182              		.loc 1 97 3 is_stmt 1 view .LVU46
 183              	.LBB106:
 184              	.LBI106:
 185              		.loc 3 421 20 view .LVU47
 186              	.LBB107:
 187              		.loc 3 423 23 view .LVU48
 188              		.loc 3 424 34 view .LVU49
 189              		.loc 3 430 3 view .LVU50
 190              		.loc 3 430 3 view .LVU51
 191              		.loc 3 430 3 view .LVU52
 192              		.loc 3 434 3 view .LVU53
 193              	.LBB108:
 194              	.LBI108:
 195              		.loc 4 830 27 view .LVU54
 196              	.LBE108:
 197              	.LBE107:
 198              	.LBE106:
 199              		.loc 4 833 3 view .LVU55
 200              	.LBB113:
 201              	.LBB112:
 202              	.LBB111:
 203              	.LBB109:
 204              	.LBI109:
 205              		.loc 5 491 27 view .LVU56
 206              	.LBB110:
 207              		.loc 5 493 3 view .LVU57
 208 001c 0023     		movs	r3, #0
 209              		.syntax unified
 210              	@ 493 "../ChibiOS/os/common/ext/ARM/CMSIS/Core/Include/cmsis_gcc.h" 1
 211 001e 83F31188 		MSR basepri, r3
 212              	@ 0 "" 2
 213              	.LVL8:
 214              		.loc 5 493 3 is_stmt 0 view .LVU58
 215              		.thumb
 216              		.syntax unified
 217              	.LBE110:
 218              	.LBE109:
 219              	.LBE111:
 220              	.LBE112:
 221              	.LBE113:
 222              		.loc 1 98 1 view .LVU59
 223 0022 08BD     		pop	{r3, pc}
 224              		.cfi_endproc
 225              	.LFE336:
 226              		.size	chCondSignal, .-chCondSignal
 227              		.section	.text.chCondSignalI,"ax",%progbits
 228              		.align	1
ARM GAS  /tmp/ccj41NtU.s 			page 5


 229              		.p2align 4,,15
 230              		.global	chCondSignalI
 231              		.syntax unified
 232              		.thumb
 233              		.thumb_func
 234              		.fpu softvfp
 235              		.type	chCondSignalI, %function
 236              	chCondSignalI:
 237              	.LVL9:
 238              	.LFB337:
 239              		.loc 1 111 46 is_stmt 1 view -0
 240              		.cfi_startproc
 241              		@ args = 0, pretend = 0, frame = 0
 242              		@ frame_needed = 0, uses_anonymous_args = 0
 243              		@ link register save eliminated.
 244              		.loc 1 113 21 view .LVU61
 245              		.loc 1 114 3 view .LVU62
 246              		.loc 1 114 3 view .LVU63
 247              		.loc 1 114 3 view .LVU64
 248              		.loc 1 116 3 view .LVU65
 249              		.loc 1 111 46 is_stmt 0 view .LVU66
 250 0000 0346     		mov	r3, r0
 251              	.LVL10:
 252              	.LBB114:
 253              	.LBI114:
 254              		.loc 2 249 20 is_stmt 1 view .LVU67
 255              	.LBB115:
 256              		.loc 2 251 3 view .LVU68
 257              		.loc 2 251 19 is_stmt 0 view .LVU69
 258 0002 0068     		ldr	r0, [r0]
 259              	.LVL11:
 260              		.loc 2 251 19 view .LVU70
 261              	.LBE115:
 262              	.LBE114:
 263              		.loc 1 116 6 view .LVU71
 264 0004 8342     		cmp	r3, r0
 265 0006 06D0     		beq	.L6
 266              	.LBB116:
 267              		.loc 1 117 5 is_stmt 1 view .LVU72
 268              	.LVL12:
 269              	.LBB117:
 270              	.LBI117:
 271              		.loc 2 280 27 view .LVU73
 272              	.LBB118:
 273              		.loc 2 281 3 view .LVU74
 274              		.loc 2 283 3 view .LVU75
 275              		.loc 2 283 21 is_stmt 0 view .LVU76
 276 0008 0268     		ldr	r2, [r0]
 277              		.loc 2 283 18 view .LVU77
 278 000a 1A60     		str	r2, [r3]
 279              		.loc 2 284 3 is_stmt 1 view .LVU78
 280              	.LBE118:
 281              	.LBE117:
 282              		.loc 1 118 18 is_stmt 0 view .LVU79
 283 000c 0021     		movs	r1, #0
 284              	.LBB120:
 285              	.LBB119:
ARM GAS  /tmp/ccj41NtU.s 			page 6


 286              		.loc 2 284 18 view .LVU80
 287 000e 5360     		str	r3, [r2, #4]
 288              		.loc 2 286 3 is_stmt 1 view .LVU81
 289              	.LVL13:
 290              		.loc 2 286 3 is_stmt 0 view .LVU82
 291              	.LBE119:
 292              	.LBE120:
 293              		.loc 1 118 5 is_stmt 1 view .LVU83
 294              		.loc 1 118 18 is_stmt 0 view .LVU84
 295 0010 8162     		str	r1, [r0, #40]
 296              		.loc 1 119 5 is_stmt 1 view .LVU85
 297              		.loc 1 119 12 is_stmt 0 view .LVU86
 298 0012 FFF7FEBF 		b	chSchReadyI
 299              	.LVL14:
 300              	.L6:
 301              		.loc 1 119 12 view .LVU87
 302              	.LBE116:
 303              		.loc 1 121 1 view .LVU88
 304 0016 7047     		bx	lr
 305              		.cfi_endproc
 306              	.LFE337:
 307              		.size	chCondSignalI, .-chCondSignalI
 308              		.section	.text.chCondBroadcast,"ax",%progbits
 309              		.align	1
 310              		.p2align 4,,15
 311              		.global	chCondBroadcast
 312              		.syntax unified
 313              		.thumb
 314              		.thumb_func
 315              		.fpu softvfp
 316              		.type	chCondBroadcast, %function
 317              	chCondBroadcast:
 318              	.LVL15:
 319              	.LFB338:
 320              		.loc 1 130 48 is_stmt 1 view -0
 321              		.cfi_startproc
 322              		@ args = 0, pretend = 0, frame = 0
 323              		@ frame_needed = 0, uses_anonymous_args = 0
 324              		.loc 1 132 3 view .LVU90
 325              	.LBB136:
 326              	.LBI136:
 327              		.loc 3 407 20 view .LVU91
 328              	.LBE136:
 329              		.loc 3 409 3 view .LVU92
 330              	.LBB144:
 331              	.LBB137:
 332              	.LBI137:
 333              		.loc 4 806 27 view .LVU93
 334              	.LBE137:
 335              	.LBE144:
 336              		.loc 4 814 3 view .LVU94
 337              	.LBB145:
 338              	.LBB142:
 339              	.LBB138:
 340              	.LBI138:
 341              		.loc 5 491 27 view .LVU95
 342              	.LBB139:
ARM GAS  /tmp/ccj41NtU.s 			page 7


 343              		.loc 5 493 3 view .LVU96
 344              	.LBE139:
 345              	.LBE138:
 346              	.LBE142:
 347              	.LBE145:
 348              		.loc 1 130 48 is_stmt 0 view .LVU97
 349 0000 38B5     		push	{r3, r4, r5, lr}
 350              		.cfi_def_cfa_offset 16
 351              		.cfi_offset 3, -16
 352              		.cfi_offset 4, -12
 353              		.cfi_offset 5, -8
 354              		.cfi_offset 14, -4
 355              	.LBB146:
 356              	.LBB143:
 357              	.LBB141:
 358              	.LBB140:
 359              		.loc 5 493 3 view .LVU98
 360 0002 3023     		movs	r3, #48
 361              		.syntax unified
 362              	@ 493 "../ChibiOS/os/common/ext/ARM/CMSIS/Core/Include/cmsis_gcc.h" 1
 363 0004 83F31188 		MSR basepri, r3
 364              	@ 0 "" 2
 365              	.LVL16:
 366              		.loc 5 493 3 view .LVU99
 367              		.thumb
 368              		.syntax unified
 369              	.LBE140:
 370              	.LBE141:
 371              	.LBE143:
 372              	.LBE146:
 373              		.loc 3 410 35 is_stmt 1 view .LVU100
 374              		.loc 3 411 21 view .LVU101
 375              		.loc 1 133 3 view .LVU102
 376              	.LBB147:
 377              	.LBI147:
 378              		.loc 1 149 6 view .LVU103
 379              	.LBB148:
 380              		.loc 1 151 21 view .LVU104
 381              		.loc 1 152 3 view .LVU105
 382              		.loc 1 152 3 view .LVU106
 383              		.loc 1 152 3 view .LVU107
 384              		.loc 1 157 3 view .LVU108
 385              		.loc 1 157 9 view .LVU109
 386              	.LBB149:
 387              	.LBI149:
 388              		.loc 2 249 20 view .LVU110
 389              	.LBB150:
 390              		.loc 2 251 3 view .LVU111
 391              		.loc 2 251 19 is_stmt 0 view .LVU112
 392 0008 0368     		ldr	r3, [r0]
 393              	.LVL17:
 394              		.loc 2 251 19 view .LVU113
 395              	.LBE150:
 396              	.LBE149:
 397              		.loc 1 157 9 view .LVU114
 398 000a 9842     		cmp	r0, r3
 399 000c 0CD0     		beq	.L9
ARM GAS  /tmp/ccj41NtU.s 			page 8


 400 000e 0446     		mov	r4, r0
 401              		.loc 1 158 72 view .LVU115
 402 0010 6FF00105 		mvn	r5, #1
 403              	.LVL18:
 404              	.L10:
 405              		.loc 1 158 5 is_stmt 1 view .LVU116
 406              	.LBB153:
 407              	.LBI153:
 408              		.loc 2 280 27 view .LVU117
 409              	.LBB154:
 410              		.loc 2 281 3 view .LVU118
 411              		.loc 2 283 3 view .LVU119
 412              		.loc 2 283 21 is_stmt 0 view .LVU120
 413 0014 1A68     		ldr	r2, [r3]
 414              		.loc 2 283 18 view .LVU121
 415 0016 2260     		str	r2, [r4]
 416              		.loc 2 284 3 is_stmt 1 view .LVU122
 417              	.LBE154:
 418              	.LBE153:
 419              		.loc 1 158 5 is_stmt 0 view .LVU123
 420 0018 1846     		mov	r0, r3
 421              	.LBB156:
 422              	.LBB155:
 423              		.loc 2 284 18 view .LVU124
 424 001a 5460     		str	r4, [r2, #4]
 425              		.loc 2 286 3 is_stmt 1 view .LVU125
 426              	.LVL19:
 427              		.loc 2 286 3 is_stmt 0 view .LVU126
 428              	.LBE155:
 429              	.LBE156:
 430              		.loc 1 158 5 view .LVU127
 431 001c FFF7FEFF 		bl	chSchReadyI
 432              	.LVL20:
 433              	.LBB157:
 434              	.LBB151:
 435              		.loc 2 251 19 view .LVU128
 436 0020 2368     		ldr	r3, [r4]
 437              	.LBE151:
 438              	.LBE157:
 439              		.loc 1 158 72 view .LVU129
 440 0022 8562     		str	r5, [r0, #40]
 441              		.loc 1 157 9 is_stmt 1 view .LVU130
 442              	.LVL21:
 443              	.LBB158:
 444              		.loc 2 249 20 view .LVU131
 445              	.LBB152:
 446              		.loc 2 251 3 view .LVU132
 447              		.loc 2 251 3 is_stmt 0 view .LVU133
 448              	.LBE152:
 449              	.LBE158:
 450              		.loc 1 157 9 view .LVU134
 451 0024 A342     		cmp	r3, r4
 452 0026 F5D1     		bne	.L10
 453              	.LVL22:
 454              	.L9:
 455              		.loc 1 157 9 view .LVU135
 456              	.LBE148:
ARM GAS  /tmp/ccj41NtU.s 			page 9


 457              	.LBE147:
 458              		.loc 1 134 3 is_stmt 1 view .LVU136
 459 0028 FFF7FEFF 		bl	chSchRescheduleS
 460              	.LVL23:
 461              		.loc 1 135 3 view .LVU137
 462              	.LBB159:
 463              	.LBI159:
 464              		.loc 3 421 20 view .LVU138
 465              	.LBB160:
 466              		.loc 3 423 23 view .LVU139
 467              		.loc 3 424 34 view .LVU140
 468              		.loc 3 430 3 view .LVU141
 469              		.loc 3 430 3 view .LVU142
 470              		.loc 3 430 3 view .LVU143
 471              		.loc 3 434 3 view .LVU144
 472              	.LBB161:
 473              	.LBI161:
 474              		.loc 4 830 27 view .LVU145
 475              	.LBE161:
 476              	.LBE160:
 477              	.LBE159:
 478              		.loc 4 833 3 view .LVU146
 479              	.LBB166:
 480              	.LBB165:
 481              	.LBB164:
 482              	.LBB162:
 483              	.LBI162:
 484              		.loc 5 491 27 view .LVU147
 485              	.LBB163:
 486              		.loc 5 493 3 view .LVU148
 487 002c 0023     		movs	r3, #0
 488              		.syntax unified
 489              	@ 493 "../ChibiOS/os/common/ext/ARM/CMSIS/Core/Include/cmsis_gcc.h" 1
 490 002e 83F31188 		MSR basepri, r3
 491              	@ 0 "" 2
 492              	.LVL24:
 493              		.loc 5 493 3 is_stmt 0 view .LVU149
 494              		.thumb
 495              		.syntax unified
 496              	.LBE163:
 497              	.LBE162:
 498              	.LBE164:
 499              	.LBE165:
 500              	.LBE166:
 501              		.loc 1 136 1 view .LVU150
 502 0032 38BD     		pop	{r3, r4, r5, pc}
 503              		.cfi_endproc
 504              	.LFE338:
 505              		.size	chCondBroadcast, .-chCondBroadcast
 506              		.section	.text.chCondBroadcastI,"ax",%progbits
 507              		.align	1
 508              		.p2align 4,,15
 509              		.global	chCondBroadcastI
 510              		.syntax unified
 511              		.thumb
 512              		.thumb_func
 513              		.fpu softvfp
ARM GAS  /tmp/ccj41NtU.s 			page 10


 514              		.type	chCondBroadcastI, %function
 515              	chCondBroadcastI:
 516              	.LVL25:
 517              	.LFB339:
 518              		.loc 1 149 49 is_stmt 1 view -0
 519              		.cfi_startproc
 520              		@ args = 0, pretend = 0, frame = 0
 521              		@ frame_needed = 0, uses_anonymous_args = 0
 522              		.loc 1 151 21 view .LVU152
 523              		.loc 1 152 3 view .LVU153
 524              		.loc 1 152 3 view .LVU154
 525              		.loc 1 152 3 view .LVU155
 526              		.loc 1 157 3 view .LVU156
 527              		.loc 1 157 9 view .LVU157
 528              	.LBB167:
 529              	.LBI167:
 530              		.loc 2 249 20 view .LVU158
 531              	.LBB168:
 532              		.loc 2 251 3 view .LVU159
 533              	.LBE168:
 534              	.LBE167:
 535              		.loc 1 149 49 is_stmt 0 view .LVU160
 536 0000 38B5     		push	{r3, r4, r5, lr}
 537              		.cfi_def_cfa_offset 16
 538              		.cfi_offset 3, -16
 539              		.cfi_offset 4, -12
 540              		.cfi_offset 5, -8
 541              		.cfi_offset 14, -4
 542              	.LBB172:
 543              	.LBB169:
 544              		.loc 2 251 19 view .LVU161
 545 0002 0368     		ldr	r3, [r0]
 546              	.LVL26:
 547              		.loc 2 251 19 view .LVU162
 548              	.LBE169:
 549              	.LBE172:
 550              		.loc 1 157 9 view .LVU163
 551 0004 8342     		cmp	r3, r0
 552 0006 0CD0     		beq	.L13
 553 0008 0446     		mov	r4, r0
 554              		.loc 1 158 72 view .LVU164
 555 000a 6FF00105 		mvn	r5, #1
 556              	.LVL27:
 557              	.L15:
 558              		.loc 1 158 5 is_stmt 1 view .LVU165
 559              	.LBB173:
 560              	.LBI173:
 561              		.loc 2 280 27 view .LVU166
 562              	.LBB174:
 563              		.loc 2 281 3 view .LVU167
 564              		.loc 2 283 3 view .LVU168
 565              		.loc 2 283 21 is_stmt 0 view .LVU169
 566 000e 1A68     		ldr	r2, [r3]
 567              		.loc 2 283 18 view .LVU170
 568 0010 2260     		str	r2, [r4]
 569              		.loc 2 284 3 is_stmt 1 view .LVU171
 570              	.LBE174:
ARM GAS  /tmp/ccj41NtU.s 			page 11


 571              	.LBE173:
 572              		.loc 1 158 5 is_stmt 0 view .LVU172
 573 0012 1846     		mov	r0, r3
 574              	.LBB176:
 575              	.LBB175:
 576              		.loc 2 284 18 view .LVU173
 577 0014 5460     		str	r4, [r2, #4]
 578              		.loc 2 286 3 is_stmt 1 view .LVU174
 579              	.LVL28:
 580              		.loc 2 286 3 is_stmt 0 view .LVU175
 581              	.LBE175:
 582              	.LBE176:
 583              		.loc 1 158 5 view .LVU176
 584 0016 FFF7FEFF 		bl	chSchReadyI
 585              	.LVL29:
 586              	.LBB177:
 587              	.LBB170:
 588              		.loc 2 251 19 view .LVU177
 589 001a 2368     		ldr	r3, [r4]
 590              	.LBE170:
 591              	.LBE177:
 592              		.loc 1 158 72 view .LVU178
 593 001c 8562     		str	r5, [r0, #40]
 594              		.loc 1 157 9 is_stmt 1 view .LVU179
 595              	.LVL30:
 596              	.LBB178:
 597              		.loc 2 249 20 view .LVU180
 598              	.LBB171:
 599              		.loc 2 251 3 view .LVU181
 600              		.loc 2 251 3 is_stmt 0 view .LVU182
 601              	.LBE171:
 602              	.LBE178:
 603              		.loc 1 157 9 view .LVU183
 604 001e A342     		cmp	r3, r4
 605 0020 F5D1     		bne	.L15
 606              	.LVL31:
 607              	.L13:
 608              		.loc 1 160 1 view .LVU184
 609 0022 38BD     		pop	{r3, r4, r5, pc}
 610              		.cfi_endproc
 611              	.LFE339:
 612              		.size	chCondBroadcastI, .-chCondBroadcastI
 613              		.section	.text.chCondWaitS,"ax",%progbits
 614              		.align	1
 615              		.p2align 4,,15
 616              		.global	chCondWaitS
 617              		.syntax unified
 618              		.thumb
 619              		.thumb_func
 620              		.fpu softvfp
 621              		.type	chCondWaitS, %function
 622              	chCondWaitS:
 623              	.LVL32:
 624              	.LFB341:
 625              		.loc 1 205 45 is_stmt 1 view -0
 626              		.cfi_startproc
 627              		@ args = 0, pretend = 0, frame = 0
ARM GAS  /tmp/ccj41NtU.s 			page 12


 628              		@ frame_needed = 0, uses_anonymous_args = 0
 629              		.loc 1 206 3 view .LVU186
 630              	.LBB185:
 631              	.LBI185:
 632              		.file 6 "../ChibiOS/os/rt/include/chthreads.h"
 633              		.loc 6 341 25 view .LVU187
 634              	.LBB186:
 635              		.loc 6 343 3 view .LVU188
 636              		.loc 6 343 10 is_stmt 0 view .LVU189
 637 0000 0F4B     		ldr	r3, .L24
 638              	.LBE186:
 639              	.LBE185:
 640              		.loc 1 205 45 view .LVU190
 641 0002 70B5     		push	{r4, r5, r6, lr}
 642              		.cfi_def_cfa_offset 16
 643              		.cfi_offset 4, -16
 644              		.cfi_offset 5, -12
 645              		.cfi_offset 6, -8
 646              		.cfi_offset 14, -4
 647              	.LBB188:
 648              	.LBB187:
 649              		.loc 6 343 10 view .LVU191
 650 0004 DC68     		ldr	r4, [r3, #12]
 651              	.LVL33:
 652              		.loc 6 343 10 view .LVU192
 653              	.LBE187:
 654              	.LBE188:
 655              		.loc 1 207 3 is_stmt 1 view .LVU193
 656              	.LBB189:
 657              	.LBI189:
 658              		.file 7 "../ChibiOS/os/rt/include/chmtx.h"
 659              		.loc 7 159 24 view .LVU194
 660              	.LBB190:
 661              		.loc 7 161 3 view .LVU195
 662              	.LBE190:
 663              	.LBE189:
 664              		.loc 6 343 3 view .LVU196
 665              	.LBB192:
 666              	.LBB191:
 667              		.loc 7 161 25 is_stmt 0 view .LVU197
 668 0006 E66B     		ldr	r6, [r4, #60]
 669              	.LVL34:
 670              		.loc 7 161 25 view .LVU198
 671              	.LBE191:
 672              	.LBE192:
 673              		.loc 1 208 3 is_stmt 1 view .LVU199
 674              		.loc 1 210 21 view .LVU200
 675              		.loc 1 211 3 view .LVU201
 676              		.loc 1 211 3 view .LVU202
 677              		.loc 1 211 3 view .LVU203
 678              		.loc 1 212 3 view .LVU204
 679              		.loc 1 212 3 view .LVU205
 680              		.loc 1 212 3 view .LVU206
 681              		.loc 1 215 3 view .LVU207
 682              		.loc 1 205 45 is_stmt 0 view .LVU208
 683 0008 0546     		mov	r5, r0
 684              		.loc 1 215 3 view .LVU209
ARM GAS  /tmp/ccj41NtU.s 			page 13


 685 000a 3046     		mov	r0, r6
 686              	.LVL35:
 687              		.loc 1 215 3 view .LVU210
 688 000c FFF7FEFF 		bl	chMtxUnlockS
 689              	.LVL36:
 690              		.loc 1 219 3 is_stmt 1 view .LVU211
 691              		.loc 1 219 20 is_stmt 0 view .LVU212
 692 0010 A562     		str	r5, [r4, #40]
 693              		.loc 1 220 3 is_stmt 1 view .LVU213
 694              	.LVL37:
 695              	.LBB193:
 696              	.LBI193:
 697              		.file 8 "../ChibiOS/os/rt/include/chschd.h"
 698              		.loc 8 175 20 view .LVU214
 699              	.LBB194:
 700              		.loc 8 177 3 view .LVU215
 701              		.loc 8 177 15 is_stmt 0 view .LVU216
 702 0012 2B46     		mov	r3, r5
 703 0014 03E0     		b	.L20
 704              	.LVL38:
 705              	.L23:
 706              		.loc 8 180 23 view .LVU217
 707 0016 9968     		ldr	r1, [r3, #8]
 708 0018 A268     		ldr	r2, [r4, #8]
 709 001a 9142     		cmp	r1, r2
 710 001c 02D3     		bcc	.L19
 711              	.L20:
 712              		.loc 8 178 3 is_stmt 1 view .LVU218
 713              		.loc 8 179 5 view .LVU219
 714              		.loc 8 179 8 is_stmt 0 view .LVU220
 715 001e 1B68     		ldr	r3, [r3]
 716              	.LVL39:
 717              		.loc 8 180 11 is_stmt 1 view .LVU221
 718              		.loc 8 181 12 is_stmt 0 view .LVU222
 719 0020 9D42     		cmp	r5, r3
 720 0022 F8D1     		bne	.L23
 721              	.L19:
 722              		.loc 8 182 3 is_stmt 1 view .LVU223
 723              		.loc 8 183 22 is_stmt 0 view .LVU224
 724 0024 5A68     		ldr	r2, [r3, #4]
 725              	.LBE194:
 726              	.LBE193:
 727              		.loc 1 221 3 view .LVU225
 728 0026 0720     		movs	r0, #7
 729              	.LBB196:
 730              	.LBB195:
 731              		.loc 8 183 18 view .LVU226
 732 0028 C4E90032 		strd	r3, r2, [r4]
 733              		.loc 8 184 3 is_stmt 1 view .LVU227
 734              		.loc 8 184 18 is_stmt 0 view .LVU228
 735 002c 1460     		str	r4, [r2]
 736              		.loc 8 185 3 is_stmt 1 view .LVU229
 737              		.loc 8 185 18 is_stmt 0 view .LVU230
 738 002e 5C60     		str	r4, [r3, #4]
 739              	.LVL40:
 740              		.loc 8 185 18 view .LVU231
 741              	.LBE195:
ARM GAS  /tmp/ccj41NtU.s 			page 14


 742              	.LBE196:
 743              		.loc 1 221 3 is_stmt 1 view .LVU232
 744 0030 FFF7FEFF 		bl	chSchGoSleepS
 745              	.LVL41:
 746              		.loc 1 222 3 view .LVU233
 747              		.loc 1 222 7 is_stmt 0 view .LVU234
 748 0034 A46A     		ldr	r4, [r4, #40]
 749              	.LVL42:
 750              		.loc 1 223 3 is_stmt 1 view .LVU235
 751 0036 3046     		mov	r0, r6
 752 0038 FFF7FEFF 		bl	chMtxLockS
 753              	.LVL43:
 754              		.loc 1 225 3 view .LVU236
 755              		.loc 1 226 1 is_stmt 0 view .LVU237
 756 003c 2046     		mov	r0, r4
 757 003e 70BD     		pop	{r4, r5, r6, pc}
 758              	.LVL44:
 759              	.L25:
 760              		.loc 1 226 1 view .LVU238
 761              		.align	2
 762              	.L24:
 763 0040 00000000 		.word	ch0
 764              		.cfi_endproc
 765              	.LFE341:
 766              		.size	chCondWaitS, .-chCondWaitS
 767              		.section	.text.chCondWait,"ax",%progbits
 768              		.align	1
 769              		.p2align 4,,15
 770              		.global	chCondWait
 771              		.syntax unified
 772              		.thumb
 773              		.thumb_func
 774              		.fpu softvfp
 775              		.type	chCondWait, %function
 776              	chCondWait:
 777              	.LVL45:
 778              	.LFB340:
 779              		.loc 1 179 44 is_stmt 1 view -0
 780              		.cfi_startproc
 781              		@ args = 0, pretend = 0, frame = 0
 782              		@ frame_needed = 0, uses_anonymous_args = 0
 783              		.loc 1 180 3 view .LVU240
 784              		.loc 1 182 3 view .LVU241
 785              	.LBB197:
 786              	.LBI197:
 787              		.loc 3 407 20 view .LVU242
 788              	.LBE197:
 789              		.loc 3 409 3 view .LVU243
 790              	.LBB205:
 791              	.LBB198:
 792              	.LBI198:
 793              		.loc 4 806 27 view .LVU244
 794              	.LBE198:
 795              	.LBE205:
 796              		.loc 4 814 3 view .LVU245
 797              	.LBB206:
 798              	.LBB203:
ARM GAS  /tmp/ccj41NtU.s 			page 15


 799              	.LBB199:
 800              	.LBI199:
 801              		.loc 5 491 27 view .LVU246
 802              	.LBB200:
 803              		.loc 5 493 3 view .LVU247
 804              	.LBE200:
 805              	.LBE199:
 806              	.LBE203:
 807              	.LBE206:
 808              		.loc 1 179 44 is_stmt 0 view .LVU248
 809 0000 08B5     		push	{r3, lr}
 810              		.cfi_def_cfa_offset 8
 811              		.cfi_offset 3, -8
 812              		.cfi_offset 14, -4
 813              	.LBB207:
 814              	.LBB204:
 815              	.LBB202:
 816              	.LBB201:
 817              		.loc 5 493 3 view .LVU249
 818 0002 3023     		movs	r3, #48
 819              		.syntax unified
 820              	@ 493 "../ChibiOS/os/common/ext/ARM/CMSIS/Core/Include/cmsis_gcc.h" 1
 821 0004 83F31188 		MSR basepri, r3
 822              	@ 0 "" 2
 823              	.LVL46:
 824              		.loc 5 493 3 view .LVU250
 825              		.thumb
 826              		.syntax unified
 827              	.LBE201:
 828              	.LBE202:
 829              	.LBE204:
 830              	.LBE207:
 831              		.loc 3 410 35 is_stmt 1 view .LVU251
 832              		.loc 3 411 21 view .LVU252
 833              		.loc 1 183 3 view .LVU253
 834              		.loc 1 183 9 is_stmt 0 view .LVU254
 835 0008 FFF7FEFF 		bl	chCondWaitS
 836              	.LVL47:
 837              		.loc 1 184 3 is_stmt 1 view .LVU255
 838              	.LBB208:
 839              	.LBI208:
 840              		.loc 3 421 20 view .LVU256
 841              	.LBB209:
 842              		.loc 3 423 23 view .LVU257
 843              		.loc 3 424 34 view .LVU258
 844              		.loc 3 430 3 view .LVU259
 845              		.loc 3 430 3 view .LVU260
 846              		.loc 3 430 3 view .LVU261
 847              		.loc 3 434 3 view .LVU262
 848              	.LBB210:
 849              	.LBI210:
 850              		.loc 4 830 27 view .LVU263
 851              	.LBE210:
 852              	.LBE209:
 853              	.LBE208:
 854              		.loc 4 833 3 view .LVU264
 855              	.LBB215:
ARM GAS  /tmp/ccj41NtU.s 			page 16


 856              	.LBB214:
 857              	.LBB213:
 858              	.LBB211:
 859              	.LBI211:
 860              		.loc 5 491 27 view .LVU265
 861              	.LBB212:
 862              		.loc 5 493 3 view .LVU266
 863 000c 0023     		movs	r3, #0
 864              		.syntax unified
 865              	@ 493 "../ChibiOS/os/common/ext/ARM/CMSIS/Core/Include/cmsis_gcc.h" 1
 866 000e 83F31188 		MSR basepri, r3
 867              	@ 0 "" 2
 868              	.LVL48:
 869              		.loc 5 493 3 is_stmt 0 view .LVU267
 870              		.thumb
 871              		.syntax unified
 872              	.LBE212:
 873              	.LBE211:
 874              	.LBE213:
 875              	.LBE214:
 876              	.LBE215:
 877              		.loc 1 185 3 is_stmt 1 view .LVU268
 878              		.loc 1 186 1 is_stmt 0 view .LVU269
 879 0012 08BD     		pop	{r3, pc}
 880              		.cfi_endproc
 881              	.LFE340:
 882              		.size	chCondWait, .-chCondWait
 883              		.section	.text.chCondWaitTimeoutS,"ax",%progbits
 884              		.align	1
 885              		.p2align 4,,15
 886              		.global	chCondWaitTimeoutS
 887              		.syntax unified
 888              		.thumb
 889              		.thumb_func
 890              		.fpu softvfp
 891              		.type	chCondWaitTimeoutS, %function
 892              	chCondWaitTimeoutS:
 893              	.LVL49:
 894              	.LFB343:
 895              		.loc 1 295 75 is_stmt 1 view -0
 896              		.cfi_startproc
 897              		@ args = 0, pretend = 0, frame = 0
 898              		@ frame_needed = 0, uses_anonymous_args = 0
 899              		.loc 1 296 3 view .LVU271
 900              	.LBB222:
 901              	.LBI222:
 902              		.loc 6 341 25 view .LVU272
 903              	.LBB223:
 904              		.loc 6 343 3 view .LVU273
 905              	.LBE223:
 906              	.LBE222:
 907              		.loc 1 295 75 is_stmt 0 view .LVU274
 908 0000 F8B5     		push	{r3, r4, r5, r6, r7, lr}
 909              		.cfi_def_cfa_offset 24
 910              		.cfi_offset 3, -24
 911              		.cfi_offset 4, -20
 912              		.cfi_offset 5, -16
ARM GAS  /tmp/ccj41NtU.s 			page 17


 913              		.cfi_offset 6, -12
 914              		.cfi_offset 7, -8
 915              		.cfi_offset 14, -4
 916              	.LBB225:
 917              	.LBB224:
 918              		.loc 6 343 10 view .LVU275
 919 0002 114B     		ldr	r3, .L38
 920 0004 DC68     		ldr	r4, [r3, #12]
 921              	.LVL50:
 922              		.loc 6 343 10 view .LVU276
 923              	.LBE224:
 924              	.LBE225:
 925              		.loc 1 297 3 is_stmt 1 view .LVU277
 926              	.LBB226:
 927              	.LBI226:
 928              		.loc 7 159 24 view .LVU278
 929              	.LBB227:
 930              		.loc 7 161 3 view .LVU279
 931              	.LBE227:
 932              	.LBE226:
 933              		.loc 6 343 3 view .LVU280
 934              	.LBB229:
 935              	.LBB228:
 936              		.loc 7 161 25 is_stmt 0 view .LVU281
 937 0006 E66B     		ldr	r6, [r4, #60]
 938              	.LVL51:
 939              		.loc 7 161 25 view .LVU282
 940              	.LBE228:
 941              	.LBE229:
 942              		.loc 1 298 3 is_stmt 1 view .LVU283
 943              		.loc 1 300 21 view .LVU284
 944              		.loc 1 301 3 view .LVU285
 945              		.loc 1 301 3 view .LVU286
 946              		.loc 1 301 3 view .LVU287
 947              		.loc 1 302 3 view .LVU288
 948              		.loc 1 302 3 view .LVU289
 949              		.loc 1 302 3 view .LVU290
 950              		.loc 1 305 3 view .LVU291
 951              		.loc 1 295 75 is_stmt 0 view .LVU292
 952 0008 0546     		mov	r5, r0
 953              		.loc 1 305 3 view .LVU293
 954 000a 3046     		mov	r0, r6
 955              	.LVL52:
 956              		.loc 1 295 75 view .LVU294
 957 000c 0F46     		mov	r7, r1
 958              		.loc 1 305 3 view .LVU295
 959 000e FFF7FEFF 		bl	chMtxUnlockS
 960              	.LVL53:
 961              		.loc 1 309 3 is_stmt 1 view .LVU296
 962              		.loc 1 309 20 is_stmt 0 view .LVU297
 963 0012 A562     		str	r5, [r4, #40]
 964              		.loc 1 310 3 is_stmt 1 view .LVU298
 965              	.LVL54:
 966              	.LBB230:
 967              	.LBI230:
 968              		.loc 8 175 20 view .LVU299
 969              	.LBB231:
ARM GAS  /tmp/ccj41NtU.s 			page 18


 970              		.loc 8 177 3 view .LVU300
 971              		.loc 8 177 15 is_stmt 0 view .LVU301
 972 0014 2B46     		mov	r3, r5
 973 0016 03E0     		b	.L30
 974              	.LVL55:
 975              	.L37:
 976              		.loc 8 180 23 view .LVU302
 977 0018 A268     		ldr	r2, [r4, #8]
 978 001a 9968     		ldr	r1, [r3, #8]
 979 001c 9142     		cmp	r1, r2
 980 001e 02D3     		bcc	.L29
 981              	.L30:
 982              		.loc 8 178 3 is_stmt 1 view .LVU303
 983              		.loc 8 179 5 view .LVU304
 984              		.loc 8 179 8 is_stmt 0 view .LVU305
 985 0020 1B68     		ldr	r3, [r3]
 986              	.LVL56:
 987              		.loc 8 180 11 is_stmt 1 view .LVU306
 988              		.loc 8 181 12 is_stmt 0 view .LVU307
 989 0022 9D42     		cmp	r5, r3
 990 0024 F8D1     		bne	.L37
 991              	.L29:
 992              		.loc 8 182 3 is_stmt 1 view .LVU308
 993              		.loc 8 183 22 is_stmt 0 view .LVU309
 994 0026 5A68     		ldr	r2, [r3, #4]
 995              	.LBE231:
 996              	.LBE230:
 997              		.loc 1 311 9 view .LVU310
 998 0028 3946     		mov	r1, r7
 999              	.LBB234:
 1000              	.LBB232:
 1001              		.loc 8 183 18 view .LVU311
 1002 002a C4E90032 		strd	r3, r2, [r4]
 1003              		.loc 8 184 3 is_stmt 1 view .LVU312
 1004              	.LBE232:
 1005              	.LBE234:
 1006              		.loc 1 311 9 is_stmt 0 view .LVU313
 1007 002e 0720     		movs	r0, #7
 1008              	.LBB235:
 1009              	.LBB233:
 1010              		.loc 8 184 18 view .LVU314
 1011 0030 1460     		str	r4, [r2]
 1012              		.loc 8 185 3 is_stmt 1 view .LVU315
 1013              		.loc 8 185 18 is_stmt 0 view .LVU316
 1014 0032 5C60     		str	r4, [r3, #4]
 1015              	.LVL57:
 1016              		.loc 8 185 18 view .LVU317
 1017              	.LBE233:
 1018              	.LBE235:
 1019              		.loc 1 311 3 is_stmt 1 view .LVU318
 1020              		.loc 1 311 9 is_stmt 0 view .LVU319
 1021 0034 FFF7FEFF 		bl	chSchGoSleepTimeoutS
 1022              	.LVL58:
 1023              		.loc 1 312 6 view .LVU320
 1024 0038 431C     		adds	r3, r0, #1
 1025              		.loc 1 311 9 view .LVU321
 1026 003a 0446     		mov	r4, r0
ARM GAS  /tmp/ccj41NtU.s 			page 19


 1027              	.LVL59:
 1028              		.loc 1 312 3 is_stmt 1 view .LVU322
 1029              		.loc 1 312 6 is_stmt 0 view .LVU323
 1030 003c 02D0     		beq	.L28
 1031              		.loc 1 313 5 is_stmt 1 view .LVU324
 1032 003e 3046     		mov	r0, r6
 1033              	.LVL60:
 1034              		.loc 1 313 5 is_stmt 0 view .LVU325
 1035 0040 FFF7FEFF 		bl	chMtxLockS
 1036              	.LVL61:
 1037              		.loc 1 316 3 is_stmt 1 view .LVU326
 1038              	.L28:
 1039              		.loc 1 317 1 is_stmt 0 view .LVU327
 1040 0044 2046     		mov	r0, r4
 1041 0046 F8BD     		pop	{r3, r4, r5, r6, r7, pc}
 1042              	.LVL62:
 1043              	.L39:
 1044              		.loc 1 317 1 view .LVU328
 1045              		.align	2
 1046              	.L38:
 1047 0048 00000000 		.word	ch0
 1048              		.cfi_endproc
 1049              	.LFE343:
 1050              		.size	chCondWaitTimeoutS, .-chCondWaitTimeoutS
 1051              		.section	.text.chCondWaitTimeout,"ax",%progbits
 1052              		.align	1
 1053              		.p2align 4,,15
 1054              		.global	chCondWaitTimeout
 1055              		.syntax unified
 1056              		.thumb
 1057              		.thumb_func
 1058              		.fpu softvfp
 1059              		.type	chCondWaitTimeout, %function
 1060              	chCondWaitTimeout:
 1061              	.LVL63:
 1062              	.LFB342:
 1063              		.loc 1 257 74 is_stmt 1 view -0
 1064              		.cfi_startproc
 1065              		@ args = 0, pretend = 0, frame = 0
 1066              		@ frame_needed = 0, uses_anonymous_args = 0
 1067              		.loc 1 258 3 view .LVU330
 1068              		.loc 1 260 3 view .LVU331
 1069              	.LBB236:
 1070              	.LBI236:
 1071              		.loc 3 407 20 view .LVU332
 1072              	.LBE236:
 1073              		.loc 3 409 3 view .LVU333
 1074              	.LBB244:
 1075              	.LBB237:
 1076              	.LBI237:
 1077              		.loc 4 806 27 view .LVU334
 1078              	.LBE237:
 1079              	.LBE244:
 1080              		.loc 4 814 3 view .LVU335
 1081              	.LBB245:
 1082              	.LBB242:
 1083              	.LBB238:
ARM GAS  /tmp/ccj41NtU.s 			page 20


 1084              	.LBI238:
 1085              		.loc 5 491 27 view .LVU336
 1086              	.LBB239:
 1087              		.loc 5 493 3 view .LVU337
 1088              	.LBE239:
 1089              	.LBE238:
 1090              	.LBE242:
 1091              	.LBE245:
 1092              		.loc 1 257 74 is_stmt 0 view .LVU338
 1093 0000 08B5     		push	{r3, lr}
 1094              		.cfi_def_cfa_offset 8
 1095              		.cfi_offset 3, -8
 1096              		.cfi_offset 14, -4
 1097              	.LBB246:
 1098              	.LBB243:
 1099              	.LBB241:
 1100              	.LBB240:
 1101              		.loc 5 493 3 view .LVU339
 1102 0002 3023     		movs	r3, #48
 1103              		.syntax unified
 1104              	@ 493 "../ChibiOS/os/common/ext/ARM/CMSIS/Core/Include/cmsis_gcc.h" 1
 1105 0004 83F31188 		MSR basepri, r3
 1106              	@ 0 "" 2
 1107              	.LVL64:
 1108              		.loc 5 493 3 view .LVU340
 1109              		.thumb
 1110              		.syntax unified
 1111              	.LBE240:
 1112              	.LBE241:
 1113              	.LBE243:
 1114              	.LBE246:
 1115              		.loc 3 410 35 is_stmt 1 view .LVU341
 1116              		.loc 3 411 21 view .LVU342
 1117              		.loc 1 261 3 view .LVU343
 1118              		.loc 1 261 9 is_stmt 0 view .LVU344
 1119 0008 FFF7FEFF 		bl	chCondWaitTimeoutS
 1120              	.LVL65:
 1121              		.loc 1 262 3 is_stmt 1 view .LVU345
 1122              	.LBB247:
 1123              	.LBI247:
 1124              		.loc 3 421 20 view .LVU346
 1125              	.LBB248:
 1126              		.loc 3 423 23 view .LVU347
 1127              		.loc 3 424 34 view .LVU348
 1128              		.loc 3 430 3 view .LVU349
 1129              		.loc 3 430 3 view .LVU350
 1130              		.loc 3 430 3 view .LVU351
 1131              		.loc 3 434 3 view .LVU352
 1132              	.LBB249:
 1133              	.LBI249:
 1134              		.loc 4 830 27 view .LVU353
 1135              	.LBE249:
 1136              	.LBE248:
 1137              	.LBE247:
 1138              		.loc 4 833 3 view .LVU354
 1139              	.LBB254:
 1140              	.LBB253:
ARM GAS  /tmp/ccj41NtU.s 			page 21


 1141              	.LBB252:
 1142              	.LBB250:
 1143              	.LBI250:
 1144              		.loc 5 491 27 view .LVU355
 1145              	.LBB251:
 1146              		.loc 5 493 3 view .LVU356
 1147 000c 0023     		movs	r3, #0
 1148              		.syntax unified
 1149              	@ 493 "../ChibiOS/os/common/ext/ARM/CMSIS/Core/Include/cmsis_gcc.h" 1
 1150 000e 83F31188 		MSR basepri, r3
 1151              	@ 0 "" 2
 1152              	.LVL66:
 1153              		.loc 5 493 3 is_stmt 0 view .LVU357
 1154              		.thumb
 1155              		.syntax unified
 1156              	.LBE251:
 1157              	.LBE250:
 1158              	.LBE252:
 1159              	.LBE253:
 1160              	.LBE254:
 1161              		.loc 1 264 3 is_stmt 1 view .LVU358
 1162              		.loc 1 265 1 is_stmt 0 view .LVU359
 1163 0012 08BD     		pop	{r3, pc}
 1164              		.cfi_endproc
 1165              	.LFE342:
 1166              		.size	chCondWaitTimeout, .-chCondWaitTimeout
 1167              		.text
 1168              	.Letext0:
 1169              		.file 9 "/opt/gcc-arm-none-eabi/gcc-arm-none-eabi-10.3-2021.07/arm-none-eabi/include/machine/_defa
 1170              		.file 10 "/opt/gcc-arm-none-eabi/gcc-arm-none-eabi-10.3-2021.07/arm-none-eabi/include/sys/_stdint.
 1171              		.file 11 "../ChibiOS/os/common/ports/ARM-common/chtypes.h"
 1172              		.file 12 "../ChibiOS/os/rt/include/chearly.h"
 1173              		.file 13 "../ChibiOS/os/rt/include/chobjects.h"
 1174              		.file 14 "../ChibiOS/os/rt/include/chrfcu.h"
 1175              		.file 15 "../ChibiOS/os/rt/include/chdebug.h"
 1176              		.file 16 "../ChibiOS/os/rt/include/chtime.h"
 1177              		.file 17 "../ChibiOS/os/rt/include/chsem.h"
 1178              		.file 18 "../ChibiOS/os/rt/include/chcond.h"