ARM GAS  /tmp/ccbPtfLi.s 			page 1


   1              		.cpu cortex-m4
   2              		.eabi_attribute 20, 1
   3              		.eabi_attribute 21, 1
   4              		.eabi_attribute 23, 3
   5              		.eabi_attribute 24, 1
   6              		.eabi_attribute 25, 1
   7              		.eabi_attribute 26, 1
   8              		.eabi_attribute 30, 2
   9              		.eabi_attribute 34, 1
  10              		.eabi_attribute 18, 4
  11              		.file	"chcore.c"
  12              		.text
  13              	.Ltext0:
  14              		.cfi_sections	.debug_frame
  15              		.section	.text.SVC_Handler,"ax",%progbits
  16              		.align	1
  17              		.p2align 4,,15
  18              		.global	SVC_Handler
  19              		.arch armv7e-m
  20              		.syntax unified
  21              		.thumb
  22              		.thumb_func
  23              		.fpu softvfp
  24              		.type	SVC_Handler, %function
  25              	SVC_Handler:
  26              	.LFB335:
  27              		.file 1 "../ChibiOS/os/common/ports/ARMv7-M/chcore.c"
  28              		.loc 1 123 24 view -0
  29              		.cfi_startproc
  30              		@ args = 0, pretend = 0, frame = 0
  31              		@ frame_needed = 0, uses_anonymous_args = 0
  32              		@ link register save eliminated.
  33              		.loc 1 125 3 view .LVU1
  34              	.LBB60:
  35              	.LBI60:
  36              		.file 2 "../ChibiOS/os/common/ext/ARM/CMSIS/Core/Include/cmsis_gcc.h"
  37              		.loc 2 247 31 view .LVU2
  38              	.LBB61:
  39              		.loc 2 249 3 view .LVU3
  40              		.loc 2 251 3 view .LVU4
  41              		.syntax unified
  42              	@ 251 "../ChibiOS/os/common/ext/ARM/CMSIS/Core/Include/cmsis_gcc.h" 1
  43 0000 EFF30983 		MRS r3, psp
  44              	@ 0 "" 2
  45              	.LVL0:
  46              		.loc 2 252 3 view .LVU5
  47              		.loc 2 252 3 is_stmt 0 view .LVU6
  48              		.thumb
  49              		.syntax unified
  50              	.LBE61:
  51              	.LBE60:
  52              		.loc 1 182 5 is_stmt 1 view .LVU7
  53              		.loc 1 199 5 view .LVU8
  54              	.LBB62:
  55              	.LBI62:
  56              		.loc 2 277 27 view .LVU9
  57              	.LBB63:
ARM GAS  /tmp/ccbPtfLi.s 			page 2


  58              		.loc 2 279 3 view .LVU10
  59              	.LBE63:
  60              	.LBE62:
  61              		.loc 1 182 9 is_stmt 0 view .LVU11
  62 0004 2033     		adds	r3, r3, #32
  63              	.LVL1:
  64              	.LBB65:
  65              	.LBB64:
  66              		.loc 2 279 3 view .LVU12
  67              		.syntax unified
  68              	@ 279 "../ChibiOS/os/common/ext/ARM/CMSIS/Core/Include/cmsis_gcc.h" 1
  69 0006 83F30988 		MSR psp, r3
  70              	@ 0 "" 2
  71              	.LVL2:
  72              		.loc 2 279 3 view .LVU13
  73              		.thumb
  74              		.syntax unified
  75              	.LBE64:
  76              	.LBE65:
  77              		.loc 1 203 5 is_stmt 1 view .LVU14
  78              	.LBB66:
  79              	.LBI66:
  80              		.file 3 "../ChibiOS/os/common/ports/ARMv7-M/chcore.h"
  81              		.loc 3 856 27 view .LVU15
  82              	.LBE66:
  83              		.loc 3 858 3 view .LVU16
  84              	.LBB71:
  85              	.LBB67:
  86              	.LBI67:
  87              		.loc 3 830 27 view .LVU17
  88              	.LBE67:
  89              	.LBE71:
  90              		.loc 3 833 3 view .LVU18
  91              	.LBB72:
  92              	.LBB70:
  93              	.LBB68:
  94              	.LBI68:
  95              		.loc 2 491 27 view .LVU19
  96              	.LBB69:
  97              		.loc 2 493 3 view .LVU20
  98 000a 0023     		movs	r3, #0
  99              	.LVL3:
 100              		.loc 2 493 3 is_stmt 0 view .LVU21
 101              		.syntax unified
 102              	@ 493 "../ChibiOS/os/common/ext/ARM/CMSIS/Core/Include/cmsis_gcc.h" 1
 103 000c 83F31188 		MSR basepri, r3
 104              	@ 0 "" 2
 105              	.LVL4:
 106              		.loc 2 493 3 view .LVU22
 107              		.thumb
 108              		.syntax unified
 109              	.LBE69:
 110              	.LBE68:
 111              	.LBE70:
 112              	.LBE72:
 113              		.loc 1 205 1 view .LVU23
 114 0010 7047     		bx	lr
ARM GAS  /tmp/ccbPtfLi.s 			page 3


 115              		.cfi_endproc
 116              	.LFE335:
 117              		.size	SVC_Handler, .-SVC_Handler
 118 0012 00BF     		.section	.text.port_init,"ax",%progbits
 119              		.align	1
 120              		.p2align 4,,15
 121              		.global	port_init
 122              		.syntax unified
 123              		.thumb
 124              		.thumb_func
 125              		.fpu softvfp
 126              		.type	port_init, %function
 127              	port_init:
 128              	.LVL5:
 129              	.LFB336:
 130              		.loc 1 254 36 is_stmt 1 view -0
 131              		.cfi_startproc
 132              		@ args = 0, pretend = 0, frame = 0
 133              		@ frame_needed = 0, uses_anonymous_args = 0
 134              		@ link register save eliminated.
 135              		.loc 1 256 3 view .LVU25
 136              		.loc 1 259 3 view .LVU26
 137              	.LBB73:
 138              	.LBI73:
 139              		.loc 3 876 27 view .LVU27
 140              	.LBE73:
 141              		.loc 3 879 3 view .LVU28
 142              	.LBB78:
 143              	.LBB74:
 144              	.LBI74:
 145              		.loc 2 491 27 view .LVU29
 146              	.LBB75:
 147              		.loc 2 493 3 view .LVU30
 148 0000 3020     		movs	r0, #48
 149              	.LVL6:
 150              		.loc 2 493 3 is_stmt 0 view .LVU31
 151              		.syntax unified
 152              	@ 493 "../ChibiOS/os/common/ext/ARM/CMSIS/Core/Include/cmsis_gcc.h" 1
 153 0002 80F31188 		MSR basepri, r0
 154              	@ 0 "" 2
 155              	.LVL7:
 156              		.loc 2 493 3 view .LVU32
 157              		.thumb
 158              		.syntax unified
 159              	.LBE75:
 160              	.LBE74:
 161              	.LBE78:
 162              		.loc 3 880 3 is_stmt 1 view .LVU33
 163              	.LBB79:
 164              	.LBB76:
 165              	.LBI76:
 166              		.loc 2 129 27 view .LVU34
 167              	.LBB77:
 168              		.loc 2 131 3 view .LVU35
 169              		.syntax unified
 170              	@ 131 "../ChibiOS/os/common/ext/ARM/CMSIS/Core/Include/cmsis_gcc.h" 1
 171 0006 62B6     		cpsie i
ARM GAS  /tmp/ccbPtfLi.s 			page 4


 172              	@ 0 "" 2
 173              		.thumb
 174              		.syntax unified
 175              	.LBE77:
 176              	.LBE76:
 177              	.LBE79:
 178              		.loc 1 262 3 view .LVU36
 179              	.LVL8:
 180              	.LBB80:
 181              	.LBI80:
 182              		.file 4 "../ChibiOS/os/common/ext/ARM/CMSIS/Core/Include/core_cm4.h"
 183              		.loc 4 1657 22 view .LVU37
 184              	.LBB81:
 185              		.loc 4 1659 3 view .LVU38
 186              		.loc 4 1660 3 view .LVU39
 187              		.loc 4 1662 3 view .LVU40
 188              		.loc 4 1662 14 is_stmt 0 view .LVU41
 189 0008 0D4B     		ldr	r3, .L4
 190              		.loc 4 1664 14 view .LVU42
 191 000a 0E4A     		ldr	r2, .L4+4
 192              		.loc 4 1662 14 view .LVU43
 193 000c D968     		ldr	r1, [r3, #12]
 194              	.LVL9:
 195              		.loc 4 1663 3 is_stmt 1 view .LVU44
 196              		.loc 4 1663 13 is_stmt 0 view .LVU45
 197 000e 4FF6FF0C 		movw	ip, #63743
 198 0012 01EA0C01 		and	r1, r1, ip
 199              	.LVL10:
 200              		.loc 4 1664 3 is_stmt 1 view .LVU46
 201              		.loc 4 1664 14 is_stmt 0 view .LVU47
 202 0016 0A43     		orrs	r2, r2, r1
 203              	.LVL11:
 204              		.loc 4 1667 3 is_stmt 1 view .LVU48
 205              		.loc 4 1667 14 is_stmt 0 view .LVU49
 206 0018 DA60     		str	r2, [r3, #12]
 207              	.LVL12:
 208              		.loc 4 1667 14 view .LVU50
 209              	.LBE81:
 210              	.LBE80:
 211              		.loc 1 265 3 is_stmt 1 view .LVU51
 212              		.loc 1 265 20 is_stmt 0 view .LVU52
 213 001a D3F8FC20 		ldr	r2, [r3, #252]
 214              		.loc 1 269 13 view .LVU53
 215 001e 0A49     		ldr	r1, .L4+8
 216              		.loc 1 265 20 view .LVU54
 217 0020 42F08072 		orr	r2, r2, #16777216
 218 0024 C3F8FC20 		str	r2, [r3, #252]
 219              		.loc 1 269 3 is_stmt 1 view .LVU55
 220              		.loc 1 269 13 is_stmt 0 view .LVU56
 221 0028 0A68     		ldr	r2, [r1]
 222              	.LBB82:
 223              	.LBB83:
 224              		.loc 4 1824 46 view .LVU57
 225 002a 4FF0200C 		mov	ip, #32
 226              	.LBE83:
 227              	.LBE82:
 228              		.loc 1 269 13 view .LVU58
ARM GAS  /tmp/ccbPtfLi.s 			page 5


 229 002e 42F00102 		orr	r2, r2, #1
 230 0032 0A60     		str	r2, [r1]
 231              		.loc 1 273 3 is_stmt 1 view .LVU59
 232              	.LVL13:
 233              	.LBB85:
 234              	.LBI82:
 235              		.loc 4 1816 22 view .LVU60
 236              	.LBB84:
 237              		.loc 4 1818 3 view .LVU61
 238              		.loc 4 1824 5 view .LVU62
 239              		.loc 4 1824 46 is_stmt 0 view .LVU63
 240 0034 83F81FC0 		strb	ip, [r3, #31]
 241              	.LVL14:
 242              		.loc 4 1824 46 view .LVU64
 243              	.LBE84:
 244              	.LBE85:
 245              		.loc 1 275 3 is_stmt 1 view .LVU65
 246              	.LBB86:
 247              	.LBI86:
 248              		.loc 4 1816 22 view .LVU66
 249              	.LBB87:
 250              		.loc 4 1818 3 view .LVU67
 251              		.loc 4 1824 5 view .LVU68
 252              		.loc 4 1824 46 is_stmt 0 view .LVU69
 253 0038 83F82200 		strb	r0, [r3, #34]
 254              	.LVL15:
 255              		.loc 4 1824 46 view .LVU70
 256              	.LBE87:
 257              	.LBE86:
 258              		.loc 1 296 1 view .LVU71
 259 003c 7047     		bx	lr
 260              	.L5:
 261 003e 00BF     		.align	2
 262              	.L4:
 263 0040 00ED00E0 		.word	-536810240
 264 0044 0003FA05 		.word	100270848
 265 0048 001000E0 		.word	-536866816
 266              		.cfi_endproc
 267              	.LFE336:
 268              		.size	port_init, .-port_init
 269              		.section	.text.__port_irq_epilogue,"ax",%progbits
 270              		.align	1
 271              		.p2align 4,,15
 272              		.global	__port_irq_epilogue
 273              		.syntax unified
 274              		.thumb
 275              		.thumb_func
 276              		.fpu softvfp
 277              		.type	__port_irq_epilogue, %function
 278              	__port_irq_epilogue:
 279              	.LFB337:
 280              		.loc 1 312 32 is_stmt 1 view -0
 281              		.cfi_startproc
 282              		@ args = 0, pretend = 0, frame = 0
 283              		@ frame_needed = 0, uses_anonymous_args = 0
 284              		.loc 1 314 3 view .LVU73
 285              	.LBB88:
ARM GAS  /tmp/ccbPtfLi.s 			page 6


 286              	.LBI88:
 287              		.loc 3 845 27 view .LVU74
 288              	.LBE88:
 289              		.loc 3 847 3 view .LVU75
 290              	.LBB93:
 291              	.LBB89:
 292              	.LBI89:
 293              		.loc 3 806 27 view .LVU76
 294              	.LBE89:
 295              	.LBE93:
 296              		.loc 3 814 3 view .LVU77
 297              	.LVL16:
 298              	.LBB94:
 299              	.LBB92:
 300              	.LBB90:
 301              	.LBI90:
 302              		.loc 2 491 27 view .LVU78
 303              	.LBB91:
 304              		.loc 2 493 3 view .LVU79
 305 0000 3023     		movs	r3, #48
 306              		.syntax unified
 307              	@ 493 "../ChibiOS/os/common/ext/ARM/CMSIS/Core/Include/cmsis_gcc.h" 1
 308 0002 83F31188 		MSR basepri, r3
 309              	@ 0 "" 2
 310              	.LVL17:
 311              		.loc 2 493 3 is_stmt 0 view .LVU80
 312              		.thumb
 313              		.syntax unified
 314              	.LBE91:
 315              	.LBE90:
 316              	.LBE92:
 317              	.LBE94:
 318              		.loc 1 315 3 is_stmt 1 view .LVU81
 319              		.loc 1 315 11 is_stmt 0 view .LVU82
 320 0006 0D4B     		ldr	r3, .L15
 321 0008 5B68     		ldr	r3, [r3, #4]
 322              		.loc 1 315 6 view .LVU83
 323 000a 13F40063 		ands	r3, r3, #2048
 324 000e 02D1     		bne	.L14
 325              		.loc 1 392 3 is_stmt 1 view .LVU84
 326              	.LBB95:
 327              	.LBI95:
 328              		.loc 3 856 27 view .LVU85
 329              	.LBB96:
 330              		.loc 3 858 3 view .LVU86
 331              	.LBB97:
 332              	.LBI97:
 333              		.loc 3 830 27 view .LVU87
 334              	.LBE97:
 335              	.LBE96:
 336              	.LBE95:
 337              		.loc 3 833 3 view .LVU88
 338              	.LVL18:
 339              	.LBB102:
 340              	.LBB101:
 341              	.LBB100:
 342              	.LBB98:
ARM GAS  /tmp/ccbPtfLi.s 			page 7


 343              	.LBI98:
 344              		.loc 2 491 27 view .LVU89
 345              	.LBB99:
 346              		.loc 2 493 3 view .LVU90
 347              		.syntax unified
 348              	@ 493 "../ChibiOS/os/common/ext/ARM/CMSIS/Core/Include/cmsis_gcc.h" 1
 349 0010 83F31188 		MSR basepri, r3
 350              	@ 0 "" 2
 351              	.LVL19:
 352              		.loc 2 493 3 is_stmt 0 view .LVU91
 353              		.thumb
 354              		.syntax unified
 355 0014 7047     		bx	lr
 356              	.L14:
 357              	.LBE99:
 358              	.LBE98:
 359              	.LBE100:
 360              	.LBE101:
 361              	.LBE102:
 362              	.LBB103:
 363              		.loc 1 316 5 is_stmt 1 view .LVU92
 364              		.loc 1 317 5 view .LVU93
 365              		.loc 1 357 5 view .LVU94
 366              	.LBB104:
 367              	.LBI104:
 368              		.loc 2 247 31 view .LVU95
 369              	.LBB105:
 370              		.loc 2 249 3 view .LVU96
 371              		.loc 2 251 3 view .LVU97
 372              	.LBE105:
 373              	.LBE104:
 374              	.LBE103:
 375              		.loc 1 312 32 is_stmt 0 view .LVU98
 376 0016 10B5     		push	{r4, lr}
 377              		.cfi_def_cfa_offset 8
 378              		.cfi_offset 4, -8
 379              		.cfi_offset 14, -4
 380              	.LBB110:
 381              	.LBB107:
 382              	.LBB106:
 383              		.loc 2 251 3 view .LVU99
 384              		.syntax unified
 385              	@ 251 "../ChibiOS/os/common/ext/ARM/CMSIS/Core/Include/cmsis_gcc.h" 1
 386 0018 EFF30984 		MRS r4, psp
 387              	@ 0 "" 2
 388              	.LVL20:
 389              		.loc 2 252 3 is_stmt 1 view .LVU100
 390              		.loc 2 252 3 is_stmt 0 view .LVU101
 391              		.thumb
 392              		.syntax unified
 393              	.LBE106:
 394              	.LBE107:
 395              		.loc 1 362 5 is_stmt 1 view .LVU102
 396              		.loc 1 362 11 is_stmt 0 view .LVU103
 397 001c 203C     		subs	r4, r4, #32
 398              	.LVL21:
 399              		.loc 1 365 5 is_stmt 1 view .LVU104
ARM GAS  /tmp/ccbPtfLi.s 			page 8


 400              		.loc 1 368 5 view .LVU105
 401              		.loc 1 368 17 is_stmt 0 view .LVU106
 402 001e 4FF08073 		mov	r3, #16777216
 403 0022 E361     		str	r3, [r4, #28]
 404              		.loc 1 374 5 is_stmt 1 view .LVU107
 405              	.LVL22:
 406              	.LBB108:
 407              	.LBI108:
 408              		.loc 2 277 27 view .LVU108
 409              	.LBB109:
 410              		.loc 2 279 3 view .LVU109
 411              		.syntax unified
 412              	@ 279 "../ChibiOS/os/common/ext/ARM/CMSIS/Core/Include/cmsis_gcc.h" 1
 413 0024 84F30988 		MSR psp, r4
 414              	@ 0 "" 2
 415              	.LVL23:
 416              		.loc 2 279 3 is_stmt 0 view .LVU110
 417              		.thumb
 418              		.syntax unified
 419              	.LBE109:
 420              	.LBE108:
 421              		.loc 1 378 5 is_stmt 1 view .LVU111
 422              		.loc 1 378 9 is_stmt 0 view .LVU112
 423 0028 FFF7FEFF 		bl	chSchIsPreemptionRequired
 424              	.LVL24:
 425              		.loc 1 378 8 view .LVU113
 426 002c 10B1     		cbz	r0, .L8
 427              		.loc 1 380 7 is_stmt 1 view .LVU114
 428              		.loc 1 380 17 is_stmt 0 view .LVU115
 429 002e 044B     		ldr	r3, .L15+4
 430 0030 A361     		str	r3, [r4, #24]
 431              	.LBE110:
 432              		.loc 1 393 1 view .LVU116
 433 0032 10BD     		pop	{r4, pc}
 434              	.LVL25:
 435              	.L8:
 436              	.LBB111:
 437              		.loc 1 385 7 is_stmt 1 view .LVU117
 438              		.loc 1 385 17 is_stmt 0 view .LVU118
 439 0034 034B     		ldr	r3, .L15+8
 440 0036 A361     		str	r3, [r4, #24]
 441              	.LBE111:
 442              		.loc 1 393 1 view .LVU119
 443 0038 10BD     		pop	{r4, pc}
 444              	.LVL26:
 445              	.L16:
 446              		.loc 1 393 1 view .LVU120
 447 003a 00BF     		.align	2
 448              	.L15:
 449 003c 00ED00E0 		.word	-536810240
 450 0040 00000000 		.word	__port_switch_from_isr
 451 0044 00000000 		.word	__port_exit_from_isr
 452              		.cfi_endproc
 453              	.LFE337:
 454              		.size	__port_irq_epilogue, .-__port_irq_epilogue
 455              		.text
 456              	.Letext0:
ARM GAS  /tmp/ccbPtfLi.s 			page 9


 457              		.file 5 "/opt/gcc-arm-none-eabi/gcc-arm-none-eabi-10.3-2021.07/arm-none-eabi/include/machine/_defa
 458              		.file 6 "/opt/gcc-arm-none-eabi/gcc-arm-none-eabi-10.3-2021.07/arm-none-eabi/include/sys/_stdint.h
 459              		.file 7 "../ChibiOS/os/common/ports/ARM-common/chtypes.h"
 460              		.file 8 "../ChibiOS/os/rt/include/chearly.h"
 461              		.file 9 "../ChibiOS/os/rt/include/chobjects.h"
 462              		.file 10 "../ChibiOS/os/rt/include/chrfcu.h"
 463              		.file 11 "../ChibiOS/os/rt/include/chdebug.h"
 464              		.file 12 "../ChibiOS/os/rt/include/chtime.h"
 465              		.file 13 "../ChibiOS/os/rt/include/chlists.h"
 466              		.file 14 "../ChibiOS/os/common/ext/ST/STM32L4xx/stm32l432xx.h"
 467              		.file 15 "../ChibiOS/os/rt/include/chsem.h"
 468              		.file 16 "../ChibiOS/os/rt/include/chmtx.h"
 469              		.file 17 "../ChibiOS/os/rt/include/chschd.h"