ARM GAS  /tmp/cct1v8PA.s 			page 1


   1              		.cpu cortex-m4
   2              		.eabi_attribute 20, 1
   3              		.eabi_attribute 21, 1
   4              		.eabi_attribute 23, 3
   5              		.eabi_attribute 24, 1
   6              		.eabi_attribute 25, 1
   7              		.eabi_attribute 26, 1
   8              		.eabi_attribute 30, 2
   9              		.eabi_attribute 34, 1
  10              		.eabi_attribute 18, 4
  11              		.file	"chdelegates.c"
  12              		.text
  13              	.Ltext0:
  14              		.cfi_sections	.debug_frame
  15              		.section	.text.__ch_delegate_fn0,"ax",%progbits
  16              		.align	1
  17              		.p2align 4,,15
  18              		.global	__ch_delegate_fn0
  19              		.arch armv7e-m
  20              		.syntax unified
  21              		.thumb
  22              		.thumb_func
  23              		.fpu softvfp
  24              		.type	__ch_delegate_fn0, %function
  25              	__ch_delegate_fn0:
  26              	.LVL0:
  27              	.LFB335:
  28              		.file 1 "../ChibiOS/os/oslib/src/chdelegates.c"
  29              		.loc 1 88 41 view -0
  30              		.cfi_startproc
  31              		@ args = 0, pretend = 0, frame = 0
  32              		@ frame_needed = 0, uses_anonymous_args = 0
  33              		@ link register save eliminated.
  34              		.loc 1 89 3 view .LVU1
  35              		.loc 1 89 18 is_stmt 0 view .LVU2
  36 0000 0368     		ldr	r3, [r0]
  37 0002 1A1D     		adds	r2, r3, #4
  38 0004 0260     		str	r2, [r0]
  39              		.loc 1 90 3 is_stmt 1 view .LVU3
  40              		.loc 1 90 10 is_stmt 0 view .LVU4
  41 0006 1B68     		ldr	r3, [r3]
  42 0008 1847     		bx	r3
  43              	.LVL1:
  44              		.loc 1 90 10 view .LVU5
  45              		.cfi_endproc
  46              	.LFE335:
  47              		.size	__ch_delegate_fn0, .-__ch_delegate_fn0
  48 000a 00BF     		.section	.text.__ch_delegate_fn1,"ax",%progbits
  49              		.align	1
  50              		.p2align 4,,15
  51              		.global	__ch_delegate_fn1
  52              		.syntax unified
  53              		.thumb
  54              		.thumb_func
  55              		.fpu softvfp
  56              		.type	__ch_delegate_fn1, %function
  57              	__ch_delegate_fn1:
ARM GAS  /tmp/cct1v8PA.s 			page 2


  58              	.LVL2:
  59              	.LFB336:
  60              		.loc 1 99 41 is_stmt 1 view -0
  61              		.cfi_startproc
  62              		@ args = 0, pretend = 0, frame = 0
  63              		@ frame_needed = 0, uses_anonymous_args = 0
  64              		@ link register save eliminated.
  65              		.loc 1 100 3 view .LVU7
  66              		.loc 1 100 18 is_stmt 0 view .LVU8
  67 0000 0168     		ldr	r1, [r0]
  68              		.loc 1 99 41 view .LVU9
  69 0002 0346     		mov	r3, r0
  70              		.loc 1 100 18 view .LVU10
  71 0004 0A46     		mov	r2, r1
  72 0006 081D     		adds	r0, r1, #4
  73              	.LVL3:
  74              		.loc 1 99 41 view .LVU11
  75 0008 10B4     		push	{r4}
  76              		.cfi_def_cfa_offset 4
  77              		.cfi_offset 4, -4
  78              		.loc 1 100 18 view .LVU12
  79 000a 1860     		str	r0, [r3]
  80 000c 52F8084B 		ldr	r4, [r2], #8
  81              		.loc 1 101 3 is_stmt 1 view .LVU13
  82              		.loc 1 102 10 is_stmt 0 view .LVU14
  83 0010 4868     		ldr	r0, [r1, #4]
  84              		.loc 1 101 9 view .LVU15
  85 0012 1A60     		str	r2, [r3]
  86              		.loc 1 102 3 is_stmt 1 view .LVU16
  87              		.loc 1 102 10 is_stmt 0 view .LVU17
  88 0014 2346     		mov	r3, r4
  89              	.LVL4:
  90              		.loc 1 103 1 view .LVU18
  91 0016 10BC     		pop	{r4}
  92              		.cfi_restore 4
  93              		.cfi_def_cfa_offset 0
  94              		.loc 1 102 10 view .LVU19
  95 0018 1847     		bx	r3
  96              	.LVL5:
  97              		.cfi_endproc
  98              	.LFE336:
  99              		.size	__ch_delegate_fn1, .-__ch_delegate_fn1
 100 001a 00BF     		.section	.text.__ch_delegate_fn2,"ax",%progbits
 101              		.align	1
 102              		.p2align 4,,15
 103              		.global	__ch_delegate_fn2
 104              		.syntax unified
 105              		.thumb
 106              		.thumb_func
 107              		.fpu softvfp
 108              		.type	__ch_delegate_fn2, %function
 109              	__ch_delegate_fn2:
 110              	.LVL6:
 111              	.LFB337:
 112              		.loc 1 111 41 is_stmt 1 view -0
 113              		.cfi_startproc
 114              		@ args = 0, pretend = 0, frame = 0
ARM GAS  /tmp/cct1v8PA.s 			page 3


 115              		@ frame_needed = 0, uses_anonymous_args = 0
 116              		@ link register save eliminated.
 117              		.loc 1 112 3 view .LVU21
 118              		.loc 1 112 18 is_stmt 0 view .LVU22
 119 0000 0268     		ldr	r2, [r0]
 120              		.loc 1 111 41 view .LVU23
 121 0002 30B4     		push	{r4, r5}
 122              		.cfi_def_cfa_offset 8
 123              		.cfi_offset 4, -8
 124              		.cfi_offset 5, -4
 125              		.loc 1 111 41 view .LVU24
 126 0004 0346     		mov	r3, r0
 127              		.loc 1 112 18 view .LVU25
 128 0006 111D     		adds	r1, r2, #4
 129              		.loc 1 113 9 view .LVU26
 130 0008 5068     		ldr	r0, [r2, #4]
 131              	.LVL7:
 132              		.loc 1 112 18 view .LVU27
 133 000a 1960     		str	r1, [r3]
 134 000c 1468     		ldr	r4, [r2]
 135              		.loc 1 113 3 is_stmt 1 view .LVU28
 136              		.loc 1 114 3 view .LVU29
 137              		.loc 1 115 10 is_stmt 0 view .LVU30
 138 000e 9168     		ldr	r1, [r2, #8]
 139              		.loc 1 114 9 view .LVU31
 140 0010 02F10C05 		add	r5, r2, #12
 141 0014 1D60     		str	r5, [r3]
 142              		.loc 1 115 3 is_stmt 1 view .LVU32
 143              		.loc 1 115 10 is_stmt 0 view .LVU33
 144 0016 2346     		mov	r3, r4
 145              	.LVL8:
 146              		.loc 1 116 1 view .LVU34
 147 0018 30BC     		pop	{r4, r5}
 148              		.cfi_restore 5
 149              		.cfi_restore 4
 150              		.cfi_def_cfa_offset 0
 151              		.loc 1 115 10 view .LVU35
 152 001a 1847     		bx	r3
 153              	.LVL9:
 154              		.cfi_endproc
 155              	.LFE337:
 156              		.size	__ch_delegate_fn2, .-__ch_delegate_fn2
 157              		.section	.text.__ch_delegate_fn3,"ax",%progbits
 158              		.align	1
 159              		.p2align 4,,15
 160              		.global	__ch_delegate_fn3
 161              		.syntax unified
 162              		.thumb
 163              		.thumb_func
 164              		.fpu softvfp
 165              		.type	__ch_delegate_fn3, %function
 166              	__ch_delegate_fn3:
 167              	.LVL10:
 168              	.LFB338:
 169              		.loc 1 124 41 is_stmt 1 view -0
 170              		.cfi_startproc
 171              		@ args = 0, pretend = 0, frame = 0
ARM GAS  /tmp/cct1v8PA.s 			page 4


 172              		@ frame_needed = 0, uses_anonymous_args = 0
 173              		@ link register save eliminated.
 174              		.loc 1 125 3 view .LVU37
 175              		.loc 1 125 18 is_stmt 0 view .LVU38
 176 0000 0368     		ldr	r3, [r0]
 177              		.loc 1 124 41 view .LVU39
 178 0002 30B4     		push	{r4, r5}
 179              		.cfi_def_cfa_offset 8
 180              		.cfi_offset 4, -8
 181              		.cfi_offset 5, -4
 182              		.loc 1 124 41 view .LVU40
 183 0004 0246     		mov	r2, r0
 184              		.loc 1 125 18 view .LVU41
 185 0006 1C1D     		adds	r4, r3, #4
 186              		.loc 1 127 9 view .LVU42
 187 0008 D3E90101 		ldrd	r0, r1, [r3, #4]
 188              	.LVL11:
 189              		.loc 1 125 18 view .LVU43
 190 000c 1460     		str	r4, [r2]
 191 000e 1C68     		ldr	r4, [r3]
 192              		.loc 1 126 3 is_stmt 1 view .LVU44
 193              		.loc 1 127 3 view .LVU45
 194              		.loc 1 128 3 view .LVU46
 195              		.loc 1 128 9 is_stmt 0 view .LVU47
 196 0010 03F11005 		add	r5, r3, #16
 197 0014 1560     		str	r5, [r2]
 198              		.loc 1 129 3 is_stmt 1 view .LVU48
 199              		.loc 1 129 10 is_stmt 0 view .LVU49
 200 0016 DA68     		ldr	r2, [r3, #12]
 201              	.LVL12:
 202              		.loc 1 129 10 view .LVU50
 203 0018 2346     		mov	r3, r4
 204              		.loc 1 130 1 view .LVU51
 205 001a 30BC     		pop	{r4, r5}
 206              		.cfi_restore 5
 207              		.cfi_restore 4
 208              		.cfi_def_cfa_offset 0
 209              		.loc 1 129 10 view .LVU52
 210 001c 1847     		bx	r3
 211              	.LVL13:
 212              		.cfi_endproc
 213              	.LFE338:
 214              		.size	__ch_delegate_fn3, .-__ch_delegate_fn3
 215 001e 00BF     		.section	.text.__ch_delegate_fn4,"ax",%progbits
 216              		.align	1
 217              		.p2align 4,,15
 218              		.global	__ch_delegate_fn4
 219              		.syntax unified
 220              		.thumb
 221              		.thumb_func
 222              		.fpu softvfp
 223              		.type	__ch_delegate_fn4, %function
 224              	__ch_delegate_fn4:
 225              	.LVL14:
 226              	.LFB339:
 227              		.loc 1 138 41 is_stmt 1 view -0
 228              		.cfi_startproc
ARM GAS  /tmp/cct1v8PA.s 			page 5


 229              		@ args = 0, pretend = 0, frame = 0
 230              		@ frame_needed = 0, uses_anonymous_args = 0
 231              		@ link register save eliminated.
 232              		.loc 1 139 3 view .LVU54
 233              		.loc 1 139 18 is_stmt 0 view .LVU55
 234 0000 0368     		ldr	r3, [r0]
 235              		.loc 1 138 41 view .LVU56
 236 0002 30B4     		push	{r4, r5}
 237              		.cfi_def_cfa_offset 8
 238              		.cfi_offset 4, -8
 239              		.cfi_offset 5, -4
 240              		.loc 1 138 41 view .LVU57
 241 0004 8446     		mov	ip, r0
 242              		.loc 1 139 18 view .LVU58
 243 0006 1C1D     		adds	r4, r3, #4
 244              		.loc 1 141 9 view .LVU59
 245 0008 D3E90101 		ldrd	r0, r1, [r3, #4]
 246              	.LVL15:
 247              		.loc 1 142 9 view .LVU60
 248 000c DA68     		ldr	r2, [r3, #12]
 249              		.loc 1 139 18 view .LVU61
 250 000e CCF80040 		str	r4, [ip]
 251 0012 1C68     		ldr	r4, [r3]
 252              		.loc 1 140 3 is_stmt 1 view .LVU62
 253              		.loc 1 141 3 view .LVU63
 254              		.loc 1 142 3 view .LVU64
 255              		.loc 1 143 3 view .LVU65
 256              		.loc 1 143 9 is_stmt 0 view .LVU66
 257 0014 03F11405 		add	r5, r3, #20
 258 0018 CCF80050 		str	r5, [ip]
 259              		.loc 1 144 3 is_stmt 1 view .LVU67
 260              		.loc 1 144 10 is_stmt 0 view .LVU68
 261 001c 1B69     		ldr	r3, [r3, #16]
 262 001e A446     		mov	ip, r4
 263              	.LVL16:
 264              		.loc 1 145 1 view .LVU69
 265 0020 30BC     		pop	{r4, r5}
 266              		.cfi_restore 5
 267              		.cfi_restore 4
 268              		.cfi_def_cfa_offset 0
 269              		.loc 1 144 10 view .LVU70
 270 0022 6047     		bx	ip
 271              	.LVL17:
 272              		.cfi_endproc
 273              	.LFE339:
 274              		.size	__ch_delegate_fn4, .-__ch_delegate_fn4
 275              		.section	.text.chDelegateCallVeneer,"ax",%progbits
 276              		.align	1
 277              		.p2align 4,,15
 278              		.global	chDelegateCallVeneer
 279              		.syntax unified
 280              		.thumb
 281              		.thumb_func
 282              		.fpu softvfp
 283              		.type	chDelegateCallVeneer, %function
 284              	chDelegateCallVeneer:
 285              	.LVL18:
ARM GAS  /tmp/cct1v8PA.s 			page 6


 286              	.LFB340:
 287              		.loc 1 158 73 is_stmt 1 view -0
 288              		.cfi_startproc
 289              		@ args = 4, pretend = 12, frame = 16
 290              		@ frame_needed = 0, uses_anonymous_args = 1
 291              		.loc 1 159 3 view .LVU72
 292              		.loc 1 160 3 view .LVU73
 293              		.loc 1 161 3 view .LVU74
 294              		.loc 1 163 3 view .LVU75
 295              		.loc 1 158 73 is_stmt 0 view .LVU76
 296 0000 0EB4     		push	{r1, r2, r3}
 297              		.cfi_def_cfa_offset 12
 298              		.cfi_offset 1, -12
 299              		.cfi_offset 2, -8
 300              		.cfi_offset 3, -4
 301 0002 10B5     		push	{r4, lr}
 302              		.cfi_def_cfa_offset 20
 303              		.cfi_offset 4, -20
 304              		.cfi_offset 14, -16
 305 0004 85B0     		sub	sp, sp, #20
 306              		.cfi_def_cfa_offset 40
 307              		.loc 1 158 73 view .LVU77
 308 0006 07AB     		add	r3, sp, #28
 309              		.loc 1 167 13 view .LVU78
 310 0008 01AA     		add	r2, sp, #4
 311              		.loc 1 158 73 view .LVU79
 312 000a 53F8044B 		ldr	r4, [r3], #4
 313              		.loc 1 167 13 view .LVU80
 314 000e 0392     		str	r2, [sp, #12]
 315              		.loc 1 172 9 view .LVU81
 316 0010 02A9     		add	r1, sp, #8
 317              		.loc 1 166 13 view .LVU82
 318 0012 CDE90134 		strd	r3, r4, [sp, #4]
 319              		.loc 1 167 3 is_stmt 1 view .LVU83
 320              		.loc 1 168 3 view .LVU84
 321              		.loc 1 172 3 view .LVU85
 322              		.loc 1 172 9 is_stmt 0 view .LVU86
 323 0016 FFF7FEFF 		bl	chMsgSend
 324              	.LVL19:
 325              		.loc 1 174 3 is_stmt 1 view .LVU87
 326              		.loc 1 176 3 view .LVU88
 327              		.loc 1 177 1 is_stmt 0 view .LVU89
 328 001a 05B0     		add	sp, sp, #20
 329              		.cfi_def_cfa_offset 20
 330              		@ sp needed
 331 001c BDE81040 		pop	{r4, lr}
 332              		.cfi_restore 14
 333              		.cfi_restore 4
 334              		.cfi_def_cfa_offset 12
 335 0020 03B0     		add	sp, sp, #12
 336              		.cfi_restore 3
 337              		.cfi_restore 2
 338              		.cfi_restore 1
 339              		.cfi_def_cfa_offset 0
 340 0022 7047     		bx	lr
 341              		.cfi_endproc
 342              	.LFE340:
ARM GAS  /tmp/cct1v8PA.s 			page 7


 343              		.size	chDelegateCallVeneer, .-chDelegateCallVeneer
 344              		.section	.text.chDelegateDispatch,"ax",%progbits
 345              		.align	1
 346              		.p2align 4,,15
 347              		.global	chDelegateDispatch
 348              		.syntax unified
 349              		.thumb
 350              		.thumb_func
 351              		.fpu softvfp
 352              		.type	chDelegateDispatch, %function
 353              	chDelegateDispatch:
 354              	.LFB341:
 355              		.loc 1 190 31 is_stmt 1 view -0
 356              		.cfi_startproc
 357              		@ args = 0, pretend = 0, frame = 0
 358              		@ frame_needed = 0, uses_anonymous_args = 0
 359              		.loc 1 191 3 view .LVU91
 360              		.loc 1 192 3 view .LVU92
 361              		.loc 1 193 3 view .LVU93
 362              		.loc 1 195 3 view .LVU94
 363              	.LBB60:
 364              	.LBI60:
 365              		.file 2 "../ChibiOS/os/rt/include/chmsg.h"
 366              		.loc 2 95 25 view .LVU95
 367              	.LBB61:
 368              		.loc 2 96 3 view .LVU96
 369              		.loc 2 98 3 view .LVU97
 370              	.LBB62:
 371              	.LBI62:
 372              		.file 3 "../ChibiOS/os/rt/include/chsys.h"
 373              		.loc 3 407 20 view .LVU98
 374              	.LBE62:
 375              	.LBE61:
 376              	.LBE60:
 377              		.loc 3 409 3 view .LVU99
 378              	.LBB91:
 379              	.LBB86:
 380              	.LBB70:
 381              	.LBB63:
 382              	.LBI63:
 383              		.file 4 "../ChibiOS/os/common/ports/ARMv7-M/chcore.h"
 384              		.loc 4 806 27 view .LVU100
 385              	.LBE63:
 386              	.LBE70:
 387              	.LBE86:
 388              	.LBE91:
 389              		.loc 4 814 3 view .LVU101
 390              	.LVL20:
 391              	.LBB92:
 392              	.LBB87:
 393              	.LBB71:
 394              	.LBB68:
 395              	.LBB64:
 396              	.LBI64:
 397              		.file 5 "../ChibiOS/os/common/ext/ARM/CMSIS/Core/Include/cmsis_gcc.h"
 398              		.loc 5 491 27 view .LVU102
 399              	.LBB65:
ARM GAS  /tmp/cct1v8PA.s 			page 8


 400              		.loc 5 493 3 view .LVU103
 401              	.LBE65:
 402              	.LBE64:
 403              	.LBE68:
 404              	.LBE71:
 405              	.LBE87:
 406              	.LBE92:
 407              		.loc 1 190 31 is_stmt 0 view .LVU104
 408 0000 10B5     		push	{r4, lr}
 409              		.cfi_def_cfa_offset 8
 410              		.cfi_offset 4, -8
 411              		.cfi_offset 14, -4
 412              	.LBB93:
 413              	.LBB88:
 414              	.LBB72:
 415              	.LBB69:
 416              	.LBB67:
 417              	.LBB66:
 418              		.loc 5 493 3 view .LVU105
 419 0002 3023     		movs	r3, #48
 420              		.syntax unified
 421              	@ 493 "../ChibiOS/os/common/ext/ARM/CMSIS/Core/Include/cmsis_gcc.h" 1
 422 0004 83F31188 		MSR basepri, r3
 423              	@ 0 "" 2
 424              	.LVL21:
 425              		.loc 5 493 3 view .LVU106
 426              		.thumb
 427              		.syntax unified
 428              	.LBE66:
 429              	.LBE67:
 430              	.LBE69:
 431              	.LBE72:
 432              	.LBE88:
 433              	.LBE93:
 434              		.loc 3 410 35 is_stmt 1 view .LVU107
 435              		.loc 3 411 21 view .LVU108
 436              	.LBB94:
 437              	.LBB89:
 438              		.loc 2 99 3 view .LVU109
 439              		.loc 2 99 8 is_stmt 0 view .LVU110
 440 0008 FFF7FEFF 		bl	chMsgWaitS
 441              	.LVL22:
 442              	.LBB73:
 443              	.LBB74:
 444              	.LBB75:
 445              	.LBB76:
 446              	.LBB77:
 447              		.loc 5 493 3 view .LVU111
 448 000c 0023     		movs	r3, #0
 449              	.LBE77:
 450              	.LBE76:
 451              	.LBE75:
 452              	.LBE74:
 453              	.LBE73:
 454              		.loc 2 99 8 view .LVU112
 455 000e 0446     		mov	r4, r0
 456              	.LVL23:
ARM GAS  /tmp/cct1v8PA.s 			page 9


 457              		.loc 2 100 3 is_stmt 1 view .LVU113
 458              	.LBB84:
 459              	.LBI73:
 460              		.loc 3 421 20 view .LVU114
 461              	.LBB82:
 462              		.loc 3 423 23 view .LVU115
 463              		.loc 3 424 34 view .LVU116
 464              		.loc 3 430 3 view .LVU117
 465              		.loc 3 430 3 view .LVU118
 466              		.loc 3 430 3 view .LVU119
 467              		.loc 3 434 3 view .LVU120
 468              	.LBB80:
 469              	.LBI75:
 470              		.loc 4 830 27 view .LVU121
 471              	.LBE80:
 472              	.LBE82:
 473              	.LBE84:
 474              	.LBE89:
 475              	.LBE94:
 476              		.loc 4 833 3 view .LVU122
 477              	.LBB95:
 478              	.LBB90:
 479              	.LBB85:
 480              	.LBB83:
 481              	.LBB81:
 482              	.LBB79:
 483              	.LBI76:
 484              		.loc 5 491 27 view .LVU123
 485              	.LBB78:
 486              		.loc 5 493 3 view .LVU124
 487              		.syntax unified
 488              	@ 493 "../ChibiOS/os/common/ext/ARM/CMSIS/Core/Include/cmsis_gcc.h" 1
 489 0010 83F31188 		MSR basepri, r3
 490              	@ 0 "" 2
 491              	.LVL24:
 492              		.loc 5 493 3 is_stmt 0 view .LVU125
 493              		.thumb
 494              		.syntax unified
 495              	.LBE78:
 496              	.LBE79:
 497              	.LBE81:
 498              	.LBE83:
 499              	.LBE85:
 500              		.loc 2 102 3 is_stmt 1 view .LVU126
 501              		.loc 2 102 3 is_stmt 0 view .LVU127
 502              	.LBE90:
 503              	.LBE95:
 504              		.loc 1 196 3 is_stmt 1 view .LVU128
 505              	.LBB96:
 506              	.LBI96:
 507              		.loc 2 190 21 view .LVU129
 508              	.LBB97:
 509              		.loc 2 192 3 view .LVU130
 510              		.loc 2 192 3 view .LVU131
 511              		.loc 2 192 3 view .LVU132
 512              		.loc 2 194 3 view .LVU133
 513              		.loc 2 194 3 is_stmt 0 view .LVU134
ARM GAS  /tmp/cct1v8PA.s 			page 10


 514              	.LBE97:
 515              	.LBE96:
 516              		.loc 1 196 7 view .LVU135
 517 0014 836A     		ldr	r3, [r0, #40]
 518              	.LVL25:
 519              		.loc 1 197 3 is_stmt 1 view .LVU136
 520              		.loc 1 197 9 is_stmt 0 view .LVU137
 521 0016 D3E90020 		ldrd	r2, r0, [r3]
 522              	.LVL26:
 523              		.loc 1 197 9 view .LVU138
 524 001a 9047     		blx	r2
 525              	.LVL27:
 526              		.loc 1 197 9 view .LVU139
 527 001c 0146     		mov	r1, r0
 528              	.LVL28:
 529              		.loc 1 199 3 is_stmt 1 view .LVU140
 530 001e 2046     		mov	r0, r4
 531              	.LVL29:
 532              		.loc 1 200 1 is_stmt 0 view .LVU141
 533 0020 BDE81040 		pop	{r4, lr}
 534              		.cfi_restore 14
 535              		.cfi_restore 4
 536              		.cfi_def_cfa_offset 0
 537              	.LVL30:
 538              		.loc 1 199 3 view .LVU142
 539 0024 FFF7FEBF 		b	chMsgRelease
 540              	.LVL31:
 541              		.loc 1 199 3 view .LVU143
 542              		.cfi_endproc
 543              	.LFE341:
 544              		.size	chDelegateDispatch, .-chDelegateDispatch
 545              		.section	.text.chDelegateDispatchTimeout,"ax",%progbits
 546              		.align	1
 547              		.p2align 4,,15
 548              		.global	chDelegateDispatchTimeout
 549              		.syntax unified
 550              		.thumb
 551              		.thumb_func
 552              		.fpu softvfp
 553              		.type	chDelegateDispatchTimeout, %function
 554              	chDelegateDispatchTimeout:
 555              	.LVL32:
 556              	.LFB342:
 557              		.loc 1 219 56 is_stmt 1 view -0
 558              		.cfi_startproc
 559              		@ args = 0, pretend = 0, frame = 0
 560              		@ frame_needed = 0, uses_anonymous_args = 0
 561              		.loc 1 220 3 view .LVU145
 562              		.loc 1 221 3 view .LVU146
 563              		.loc 1 222 3 view .LVU147
 564              		.loc 1 224 3 view .LVU148
 565              	.LBB98:
 566              	.LBI98:
 567              		.loc 2 128 25 view .LVU149
 568              	.LBB99:
 569              		.loc 2 129 3 view .LVU150
 570              		.loc 2 131 3 view .LVU151
ARM GAS  /tmp/cct1v8PA.s 			page 11


 571              	.LBB100:
 572              	.LBI100:
 573              		.loc 3 407 20 view .LVU152
 574              	.LBE100:
 575              	.LBE99:
 576              	.LBE98:
 577              		.loc 3 409 3 view .LVU153
 578              	.LBB124:
 579              	.LBB119:
 580              	.LBB108:
 581              	.LBB101:
 582              	.LBI101:
 583              		.loc 4 806 27 view .LVU154
 584              	.LBE101:
 585              	.LBE108:
 586              	.LBE119:
 587              	.LBE124:
 588              		.loc 4 814 3 view .LVU155
 589              	.LBB125:
 590              	.LBB120:
 591              	.LBB109:
 592              	.LBB106:
 593              	.LBB102:
 594              	.LBI102:
 595              		.loc 5 491 27 view .LVU156
 596              	.LBB103:
 597              		.loc 5 493 3 view .LVU157
 598              	.LBE103:
 599              	.LBE102:
 600              	.LBE106:
 601              	.LBE109:
 602              	.LBE120:
 603              	.LBE125:
 604              		.loc 1 219 56 is_stmt 0 view .LVU158
 605 0000 38B5     		push	{r3, r4, r5, lr}
 606              		.cfi_def_cfa_offset 16
 607              		.cfi_offset 3, -16
 608              		.cfi_offset 4, -12
 609              		.cfi_offset 5, -8
 610              		.cfi_offset 14, -4
 611              	.LBB126:
 612              	.LBB121:
 613              	.LBB110:
 614              	.LBB107:
 615              	.LBB105:
 616              	.LBB104:
 617              		.loc 5 493 3 view .LVU159
 618 0002 3023     		movs	r3, #48
 619              		.syntax unified
 620              	@ 493 "../ChibiOS/os/common/ext/ARM/CMSIS/Core/Include/cmsis_gcc.h" 1
 621 0004 83F31188 		MSR basepri, r3
 622              	@ 0 "" 2
 623              	.LVL33:
 624              		.loc 5 493 3 view .LVU160
 625              		.thumb
 626              		.syntax unified
 627              	.LBE104:
ARM GAS  /tmp/cct1v8PA.s 			page 12


 628              	.LBE105:
 629              	.LBE107:
 630              	.LBE110:
 631              	.LBE121:
 632              	.LBE126:
 633              		.loc 3 410 35 is_stmt 1 view .LVU161
 634              		.loc 3 411 21 view .LVU162
 635              	.LBB127:
 636              	.LBB122:
 637              		.loc 2 132 3 view .LVU163
 638              		.loc 2 132 8 is_stmt 0 view .LVU164
 639 0008 FFF7FEFF 		bl	chMsgWaitTimeoutS
 640              	.LVL34:
 641              		.loc 2 133 3 is_stmt 1 view .LVU165
 642              	.LBB111:
 643              	.LBI111:
 644              		.loc 3 421 20 view .LVU166
 645              	.LBB112:
 646              		.loc 3 423 23 view .LVU167
 647              		.loc 3 424 34 view .LVU168
 648              		.loc 3 430 3 view .LVU169
 649              		.loc 3 430 3 view .LVU170
 650              		.loc 3 430 3 view .LVU171
 651              		.loc 3 434 3 view .LVU172
 652              	.LBB113:
 653              	.LBI113:
 654              		.loc 4 830 27 view .LVU173
 655              	.LBE113:
 656              	.LBE112:
 657              	.LBE111:
 658              	.LBE122:
 659              	.LBE127:
 660              		.loc 4 833 3 view .LVU174
 661              	.LBB128:
 662              	.LBB123:
 663              	.LBB118:
 664              	.LBB117:
 665              	.LBB116:
 666              	.LBB114:
 667              	.LBI114:
 668              		.loc 5 491 27 view .LVU175
 669              	.LBB115:
 670              		.loc 5 493 3 view .LVU176
 671 000c 0025     		movs	r5, #0
 672              		.syntax unified
 673              	@ 493 "../ChibiOS/os/common/ext/ARM/CMSIS/Core/Include/cmsis_gcc.h" 1
 674 000e 85F31188 		MSR basepri, r5
 675              	@ 0 "" 2
 676              	.LVL35:
 677              		.loc 5 493 3 is_stmt 0 view .LVU177
 678              		.thumb
 679              		.syntax unified
 680              	.LBE115:
 681              	.LBE114:
 682              	.LBE116:
 683              	.LBE117:
 684              	.LBE118:
ARM GAS  /tmp/cct1v8PA.s 			page 13


 685              		.loc 2 135 3 is_stmt 1 view .LVU178
 686              		.loc 2 135 3 is_stmt 0 view .LVU179
 687              	.LBE123:
 688              	.LBE128:
 689              		.loc 1 225 3 is_stmt 1 view .LVU180
 690              		.loc 1 225 6 is_stmt 0 view .LVU181
 691 0012 50B1     		cbz	r0, .L17
 692              		.loc 1 229 3 is_stmt 1 view .LVU182
 693              	.LVL36:
 694              	.LBB129:
 695              	.LBI129:
 696              		.loc 2 190 21 view .LVU183
 697              	.LBB130:
 698              		.loc 2 192 3 view .LVU184
 699              		.loc 2 192 3 view .LVU185
 700              		.loc 2 192 3 view .LVU186
 701              		.loc 2 194 3 view .LVU187
 702              		.loc 2 194 3 is_stmt 0 view .LVU188
 703              	.LBE130:
 704              	.LBE129:
 705              		.loc 1 229 7 view .LVU189
 706 0014 836A     		ldr	r3, [r0, #40]
 707              	.LVL37:
 708              		.loc 1 230 3 is_stmt 1 view .LVU190
 709 0016 0446     		mov	r4, r0
 710              		.loc 1 230 9 is_stmt 0 view .LVU191
 711 0018 D3E90020 		ldrd	r2, r0, [r3]
 712              	.LVL38:
 713              		.loc 1 230 9 view .LVU192
 714 001c 9047     		blx	r2
 715              	.LVL39:
 716              		.loc 1 230 9 view .LVU193
 717 001e 0146     		mov	r1, r0
 718              	.LVL40:
 719              		.loc 1 232 3 is_stmt 1 view .LVU194
 720 0020 2046     		mov	r0, r4
 721              	.LVL41:
 722              		.loc 1 232 3 is_stmt 0 view .LVU195
 723 0022 FFF7FEFF 		bl	chMsgRelease
 724              	.LVL42:
 725              		.loc 1 234 3 is_stmt 1 view .LVU196
 726              		.loc 1 234 10 is_stmt 0 view .LVU197
 727 0026 2846     		mov	r0, r5
 728              		.loc 1 235 1 view .LVU198
 729 0028 38BD     		pop	{r3, r4, r5, pc}
 730              	.LVL43:
 731              	.L17:
 732              		.loc 1 226 12 view .LVU199
 733 002a 4FF0FF30 		mov	r0, #-1
 734              	.LVL44:
 735              		.loc 1 235 1 view .LVU200
 736 002e 38BD     		pop	{r3, r4, r5, pc}
 737              		.cfi_endproc
 738              	.LFE342:
 739              		.size	chDelegateDispatchTimeout, .-chDelegateDispatchTimeout
 740              		.text
 741              	.Letext0:
ARM GAS  /tmp/cct1v8PA.s 			page 14


 742              		.file 6 "/opt/gcc-arm-none-eabi/gcc-arm-none-eabi-10.3-2021.07/arm-none-eabi/include/machine/_defa
 743              		.file 7 "/opt/gcc-arm-none-eabi/gcc-arm-none-eabi-10.3-2021.07/arm-none-eabi/include/sys/_stdint.h
 744              		.file 8 "../ChibiOS/os/common/ports/ARM-common/chtypes.h"
 745              		.file 9 "../ChibiOS/os/rt/include/chearly.h"
 746              		.file 10 "../ChibiOS/os/rt/include/chobjects.h"
 747              		.file 11 "../ChibiOS/os/rt/include/chrfcu.h"
 748              		.file 12 "../ChibiOS/os/rt/include/chdebug.h"
 749              		.file 13 "../ChibiOS/os/rt/include/chtime.h"
 750              		.file 14 "../ChibiOS/os/rt/include/chlists.h"
 751              		.file 15 "../ChibiOS/os/rt/include/chsem.h"
 752              		.file 16 "../ChibiOS/os/rt/include/chmtx.h"
 753              		.file 17 "/opt/gcc-arm-none-eabi/gcc-arm-none-eabi-10.3-2021.07/lib/gcc/arm-none-eabi/10.3.1/inclu
 754              		.file 18 "../ChibiOS/os/oslib/include/chdelegates.h"
 755              		.file 19 "<built-in>"