ARM GAS  /tmp/ccuwivV2.s 			page 1


   1              		.cpu cortex-m4
   2              		.eabi_attribute 20, 1
   3              		.eabi_attribute 21, 1
   4              		.eabi_attribute 23, 3
   5              		.eabi_attribute 24, 1
   6              		.eabi_attribute 25, 1
   7              		.eabi_attribute 26, 1
   8              		.eabi_attribute 30, 2
   9              		.eabi_attribute 34, 1
  10              		.eabi_attribute 18, 4
  11              		.file	"chdynamic.c"
  12              		.text
  13              	.Ltext0:
  14              		.cfi_sections	.debug_frame
  15              		.section	.text.chThdCreateFromHeap,"ax",%progbits
  16              		.align	1
  17              		.p2align 4,,15
  18              		.global	chThdCreateFromHeap
  19              		.arch armv7e-m
  20              		.syntax unified
  21              		.thumb
  22              		.thumb_func
  23              		.fpu softvfp
  24              		.type	chThdCreateFromHeap, %function
  25              	chThdCreateFromHeap:
  26              	.LVL0:
  27              	.LFB335:
  28              		.file 1 "../ChibiOS/os/rt/src/chdynamic.c"
  29              		.loc 1 84 54 view -0
  30              		.cfi_startproc
  31              		@ args = 8, pretend = 0, frame = 24
  32              		@ frame_needed = 0, uses_anonymous_args = 0
  33              		.loc 1 85 3 view .LVU1
  34              		.loc 1 86 3 view .LVU2
  35              		.loc 1 88 3 view .LVU3
  36              		.loc 1 84 54 is_stmt 0 view .LVU4
  37 0000 F0B5     		push	{r4, r5, r6, r7, lr}
  38              		.cfi_def_cfa_offset 20
  39              		.cfi_offset 4, -20
  40              		.cfi_offset 5, -16
  41              		.cfi_offset 6, -12
  42              		.cfi_offset 7, -8
  43              		.cfi_offset 14, -4
  44 0002 1746     		mov	r7, r2
  45 0004 87B0     		sub	sp, sp, #28
  46              		.cfi_def_cfa_offset 48
  47              		.loc 1 88 11 view .LVU5
  48 0006 0822     		movs	r2, #8
  49              	.LVL1:
  50              		.loc 1 84 54 view .LVU6
  51 0008 0D46     		mov	r5, r1
  52 000a 1E46     		mov	r6, r3
  53              		.loc 1 88 11 view .LVU7
  54 000c FFF7FEFF 		bl	chHeapAllocAligned
  55              	.LVL2:
  56              		.loc 1 89 3 is_stmt 1 view .LVU8
  57              		.loc 1 89 6 is_stmt 0 view .LVU9
ARM GAS  /tmp/ccuwivV2.s 			page 2


  58 0010 0446     		mov	r4, r0
  59 0012 C0B1     		cbz	r0, .L1
  60              		.loc 1 92 3 is_stmt 1 view .LVU10
  61              	.LVL3:
  62              		.loc 1 94 3 view .LVU11
  63              		.loc 1 94 23 is_stmt 0 view .LVU12
  64 0014 0C9B     		ldr	r3, [sp, #48]
  65 0016 0493     		str	r3, [sp, #16]
  66              		.loc 1 92 8 view .LVU13
  67 0018 0544     		add	r5, r5, r0
  68              	.LVL4:
  69              		.loc 1 94 23 view .LVU14
  70 001a 0D9B     		ldr	r3, [sp, #52]
  71 001c 0593     		str	r3, [sp, #20]
  72              		.loc 1 100 3 is_stmt 1 view .LVU15
  73              	.LBB34:
  74              	.LBI34:
  75              		.file 2 "../ChibiOS/os/rt/include/chsys.h"
  76              		.loc 2 407 20 view .LVU16
  77              	.LBE34:
  78              		.loc 2 409 3 view .LVU17
  79              	.LBB42:
  80              	.LBB35:
  81              	.LBI35:
  82              		.file 3 "../ChibiOS/os/common/ports/ARMv7-M/chcore.h"
  83              		.loc 3 806 27 view .LVU18
  84              	.LBE35:
  85              	.LBE42:
  86              		.loc 3 814 3 view .LVU19
  87              	.LVL5:
  88              	.LBB43:
  89              	.LBB40:
  90              	.LBB36:
  91              	.LBI36:
  92              		.file 4 "../ChibiOS/os/common/ext/ARM/CMSIS/Core/Include/cmsis_gcc.h"
  93              		.loc 4 491 27 view .LVU20
  94              	.LBB37:
  95              		.loc 4 493 3 view .LVU21
  96              	.LBE37:
  97              	.LBE36:
  98              	.LBE40:
  99              	.LBE43:
 100              		.loc 1 94 23 is_stmt 0 view .LVU22
 101 001e 0295     		str	r5, [sp, #8]
 102 0020 CDE90070 		strd	r7, r0, [sp]
 103 0024 0396     		str	r6, [sp, #12]
 104              	.LBB44:
 105              	.LBB41:
 106              	.LBB39:
 107              	.LBB38:
 108              		.loc 4 493 3 view .LVU23
 109 0026 3023     		movs	r3, #48
 110              		.syntax unified
 111              	@ 493 "../ChibiOS/os/common/ext/ARM/CMSIS/Core/Include/cmsis_gcc.h" 1
 112 0028 83F31188 		MSR basepri, r3
 113              	@ 0 "" 2
 114              	.LVL6:
ARM GAS  /tmp/ccuwivV2.s 			page 3


 115              		.loc 4 493 3 view .LVU24
 116              		.thumb
 117              		.syntax unified
 118              	.LBE38:
 119              	.LBE39:
 120              	.LBE41:
 121              	.LBE44:
 122              		.loc 2 410 35 is_stmt 1 view .LVU25
 123              		.loc 2 411 21 view .LVU26
 124              		.loc 1 101 3 view .LVU27
 125              		.loc 1 101 8 is_stmt 0 view .LVU28
 126 002c 6846     		mov	r0, sp
 127              	.LVL7:
 128              		.loc 1 101 8 view .LVU29
 129 002e FFF7FEFF 		bl	chThdCreateSuspendedI
 130              	.LVL8:
 131              		.loc 1 102 13 view .LVU30
 132 0032 0123     		movs	r3, #1
 133 0034 80F82530 		strb	r3, [r0, #37]
 134              		.loc 1 103 3 view .LVU31
 135 0038 0021     		movs	r1, #0
 136              		.loc 1 101 8 view .LVU32
 137 003a 0446     		mov	r4, r0
 138              	.LVL9:
 139              		.loc 1 102 3 is_stmt 1 view .LVU33
 140              		.loc 1 103 3 view .LVU34
 141 003c FFF7FEFF 		bl	chSchWakeupS
 142              	.LVL10:
 143              		.loc 1 104 3 view .LVU35
 144              	.LBB45:
 145              	.LBI45:
 146              		.loc 2 421 20 view .LVU36
 147              	.LBB46:
 148              		.loc 2 423 23 view .LVU37
 149              		.loc 2 424 34 view .LVU38
 150              		.loc 2 430 3 view .LVU39
 151              		.loc 2 430 3 view .LVU40
 152              		.loc 2 430 3 view .LVU41
 153              		.loc 2 434 3 view .LVU42
 154              	.LBB47:
 155              	.LBI47:
 156              		.loc 3 830 27 view .LVU43
 157              	.LBE47:
 158              	.LBE46:
 159              	.LBE45:
 160              		.loc 3 833 3 view .LVU44
 161              	.LBB52:
 162              	.LBB51:
 163              	.LBB50:
 164              	.LBB48:
 165              	.LBI48:
 166              		.loc 4 491 27 view .LVU45
 167              	.LBB49:
 168              		.loc 4 493 3 view .LVU46
 169 0040 0023     		movs	r3, #0
 170              		.syntax unified
 171              	@ 493 "../ChibiOS/os/common/ext/ARM/CMSIS/Core/Include/cmsis_gcc.h" 1
ARM GAS  /tmp/ccuwivV2.s 			page 4


 172 0042 83F31188 		MSR basepri, r3
 173              	@ 0 "" 2
 174              	.LVL11:
 175              		.loc 4 493 3 is_stmt 0 view .LVU47
 176              		.thumb
 177              		.syntax unified
 178              	.LBE49:
 179              	.LBE48:
 180              	.LBE50:
 181              	.LBE51:
 182              	.LBE52:
 183              		.loc 1 106 3 is_stmt 1 view .LVU48
 184              	.L1:
 185              		.loc 1 107 1 is_stmt 0 view .LVU49
 186 0046 2046     		mov	r0, r4
 187 0048 07B0     		add	sp, sp, #28
 188              		.cfi_def_cfa_offset 20
 189              		@ sp needed
 190 004a F0BD     		pop	{r4, r5, r6, r7, pc}
 191              		.loc 1 107 1 view .LVU50
 192              		.cfi_endproc
 193              	.LFE335:
 194              		.size	chThdCreateFromHeap, .-chThdCreateFromHeap
 195              		.section	.text.chThdCreateFromMemoryPool,"ax",%progbits
 196              		.align	1
 197              		.p2align 4,,15
 198              		.global	chThdCreateFromMemoryPool
 199              		.syntax unified
 200              		.thumb
 201              		.thumb_func
 202              		.fpu softvfp
 203              		.type	chThdCreateFromMemoryPool, %function
 204              	chThdCreateFromMemoryPool:
 205              	.LVL12:
 206              	.LFB336:
 207              		.loc 1 138 74 is_stmt 1 view -0
 208              		.cfi_startproc
 209              		@ args = 4, pretend = 0, frame = 24
 210              		@ frame_needed = 0, uses_anonymous_args = 0
 211              		.loc 1 139 3 view .LVU52
 212              		.loc 1 140 3 view .LVU53
 213              		.loc 1 142 3 view .LVU54
 214              		.loc 1 142 3 view .LVU55
 215              		.loc 1 142 3 view .LVU56
 216              		.loc 1 144 3 view .LVU57
 217              		.loc 1 138 74 is_stmt 0 view .LVU58
 218 0000 2DE9F041 		push	{r4, r5, r6, r7, r8, lr}
 219              		.cfi_def_cfa_offset 24
 220              		.cfi_offset 4, -24
 221              		.cfi_offset 5, -20
 222              		.cfi_offset 6, -16
 223              		.cfi_offset 7, -12
 224              		.cfi_offset 8, -8
 225              		.cfi_offset 14, -4
 226 0004 86B0     		sub	sp, sp, #24
 227              		.cfi_def_cfa_offset 48
 228              		.loc 1 138 74 view .LVU59
ARM GAS  /tmp/ccuwivV2.s 			page 5


 229 0006 0546     		mov	r5, r0
 230 0008 8846     		mov	r8, r1
 231 000a 1746     		mov	r7, r2
 232 000c 1E46     		mov	r6, r3
 233              		.loc 1 144 11 view .LVU60
 234 000e FFF7FEFF 		bl	chPoolAlloc
 235              	.LVL13:
 236              		.loc 1 145 3 is_stmt 1 view .LVU61
 237              		.loc 1 145 6 is_stmt 0 view .LVU62
 238 0012 0446     		mov	r4, r0
 239 0014 C8B1     		cbz	r0, .L8
 240              		.loc 1 148 3 is_stmt 1 view .LVU63
 241              		.loc 1 150 23 is_stmt 0 view .LVU64
 242 0016 CDE90080 		strd	r8, r0, [sp]
 243              		.loc 1 148 8 view .LVU65
 244 001a 6868     		ldr	r0, [r5, #4]
 245              	.LVL14:
 246              		.loc 1 150 23 view .LVU66
 247 001c 0C9B     		ldr	r3, [sp, #48]
 248 001e 0593     		str	r3, [sp, #20]
 249              		.loc 1 148 8 view .LVU67
 250 0020 0444     		add	r4, r4, r0
 251              	.LVL15:
 252              		.loc 1 150 3 is_stmt 1 view .LVU68
 253              		.loc 1 156 3 view .LVU69
 254              	.LBB53:
 255              	.LBI53:
 256              		.loc 2 407 20 view .LVU70
 257              	.LBE53:
 258              		.loc 2 409 3 view .LVU71
 259              	.LBB64:
 260              	.LBB54:
 261              	.LBI54:
 262              		.loc 3 806 27 view .LVU72
 263              	.LBE54:
 264              	.LBE64:
 265              		.loc 3 814 3 view .LVU73
 266              	.LBB65:
 267              	.LBB61:
 268              	.LBB55:
 269              	.LBI55:
 270              		.loc 4 491 27 view .LVU74
 271              	.LBB56:
 272              		.loc 4 493 3 view .LVU75
 273              	.LBE56:
 274              	.LBE55:
 275              	.LBE61:
 276              	.LBE65:
 277              		.loc 1 150 23 is_stmt 0 view .LVU76
 278 0022 CDE90376 		strd	r7, r6, [sp, #12]
 279              	.LBB66:
 280              	.LBB62:
 281              	.LBB59:
 282              	.LBB57:
 283              		.loc 4 493 3 view .LVU77
 284 0026 3023     		movs	r3, #48
 285              	.LBE57:
ARM GAS  /tmp/ccuwivV2.s 			page 6


 286              	.LBE59:
 287              	.LBE62:
 288              	.LBE66:
 289              		.loc 1 150 23 view .LVU78
 290 0028 0294     		str	r4, [sp, #8]
 291              	.LBB67:
 292              	.LBB63:
 293              	.LBB60:
 294              	.LBB58:
 295              		.loc 4 493 3 view .LVU79
 296              		.syntax unified
 297              	@ 493 "../ChibiOS/os/common/ext/ARM/CMSIS/Core/Include/cmsis_gcc.h" 1
 298 002a 83F31188 		MSR basepri, r3
 299              	@ 0 "" 2
 300              	.LVL16:
 301              		.loc 4 493 3 view .LVU80
 302              		.thumb
 303              		.syntax unified
 304              	.LBE58:
 305              	.LBE60:
 306              	.LBE63:
 307              	.LBE67:
 308              		.loc 2 410 35 is_stmt 1 view .LVU81
 309              		.loc 2 411 21 view .LVU82
 310              		.loc 1 157 3 view .LVU83
 311              		.loc 1 157 8 is_stmt 0 view .LVU84
 312 002e 6846     		mov	r0, sp
 313 0030 FFF7FEFF 		bl	chThdCreateSuspendedI
 314              	.LVL17:
 315              		.loc 1 158 13 view .LVU85
 316 0034 0223     		movs	r3, #2
 317 0036 80F82530 		strb	r3, [r0, #37]
 318              		.loc 1 159 13 view .LVU86
 319 003a 4564     		str	r5, [r0, #68]
 320              		.loc 1 160 3 view .LVU87
 321 003c 0021     		movs	r1, #0
 322              		.loc 1 157 8 view .LVU88
 323 003e 0446     		mov	r4, r0
 324              	.LVL18:
 325              		.loc 1 158 3 is_stmt 1 view .LVU89
 326              		.loc 1 159 3 view .LVU90
 327              		.loc 1 160 3 view .LVU91
 328 0040 FFF7FEFF 		bl	chSchWakeupS
 329              	.LVL19:
 330              		.loc 1 161 3 view .LVU92
 331              	.LBB68:
 332              	.LBI68:
 333              		.loc 2 421 20 view .LVU93
 334              	.LBB69:
 335              		.loc 2 423 23 view .LVU94
 336              		.loc 2 424 34 view .LVU95
 337              		.loc 2 430 3 view .LVU96
 338              		.loc 2 430 3 view .LVU97
 339              		.loc 2 430 3 view .LVU98
 340              		.loc 2 434 3 view .LVU99
 341              	.LBB70:
 342              	.LBI70:
ARM GAS  /tmp/ccuwivV2.s 			page 7


 343              		.loc 3 830 27 view .LVU100
 344              	.LBE70:
 345              	.LBE69:
 346              	.LBE68:
 347              		.loc 3 833 3 view .LVU101
 348              	.LBB75:
 349              	.LBB74:
 350              	.LBB73:
 351              	.LBB71:
 352              	.LBI71:
 353              		.loc 4 491 27 view .LVU102
 354              	.LBB72:
 355              		.loc 4 493 3 view .LVU103
 356 0044 0023     		movs	r3, #0
 357              		.syntax unified
 358              	@ 493 "../ChibiOS/os/common/ext/ARM/CMSIS/Core/Include/cmsis_gcc.h" 1
 359 0046 83F31188 		MSR basepri, r3
 360              	@ 0 "" 2
 361              	.LVL20:
 362              		.loc 4 493 3 is_stmt 0 view .LVU104
 363              		.thumb
 364              		.syntax unified
 365              	.LBE72:
 366              	.LBE71:
 367              	.LBE73:
 368              	.LBE74:
 369              	.LBE75:
 370              		.loc 1 163 3 is_stmt 1 view .LVU105
 371              	.L8:
 372              		.loc 1 164 1 is_stmt 0 view .LVU106
 373 004a 2046     		mov	r0, r4
 374 004c 06B0     		add	sp, sp, #24
 375              		.cfi_def_cfa_offset 24
 376              		@ sp needed
 377 004e BDE8F081 		pop	{r4, r5, r6, r7, r8, pc}
 378              		.loc 1 164 1 view .LVU107
 379              		.cfi_endproc
 380              	.LFE336:
 381              		.size	chThdCreateFromMemoryPool, .-chThdCreateFromMemoryPool
 382 0052 00BF     		.text
 383              	.Letext0:
 384              		.file 5 "/opt/gcc-arm-none-eabi/gcc-arm-none-eabi-10.3-2021.07/lib/gcc/arm-none-eabi/10.3.1/includ
 385              		.file 6 "/opt/gcc-arm-none-eabi/gcc-arm-none-eabi-10.3-2021.07/arm-none-eabi/include/machine/_defa
 386              		.file 7 "/opt/gcc-arm-none-eabi/gcc-arm-none-eabi-10.3-2021.07/arm-none-eabi/include/sys/_stdint.h
 387              		.file 8 "../ChibiOS/os/common/ports/ARM-common/chtypes.h"
 388              		.file 9 "../ChibiOS/os/rt/include/chearly.h"
 389              		.file 10 "../ChibiOS/os/rt/include/chobjects.h"
 390              		.file 11 "../ChibiOS/os/rt/include/chrfcu.h"
 391              		.file 12 "../ChibiOS/os/rt/include/chdebug.h"
 392              		.file 13 "../ChibiOS/os/rt/include/chtime.h"
 393              		.file 14 "../ChibiOS/os/rt/include/chlists.h"
 394              		.file 15 "../ChibiOS/os/rt/include/chsem.h"
 395              		.file 16 "../ChibiOS/os/rt/include/chmtx.h"
 396              		.file 17 "../ChibiOS/os/rt/include/chthreads.h"
 397              		.file 18 "../ChibiOS/os/oslib/include/chmemcore.h"
 398              		.file 19 "../ChibiOS/os/oslib/include/chmemheaps.h"
 399              		.file 20 "../ChibiOS/os/oslib/include/chmempools.h"
ARM GAS  /tmp/ccuwivV2.s 			page 8


 400              		.file 21 "../ChibiOS/os/rt/include/chschd.h"