ARM GAS  /tmp/cc6nZmxe.s 			page 1


   1              		.cpu cortex-m4
   2              		.eabi_attribute 20, 1
   3              		.eabi_attribute 21, 1
   4              		.eabi_attribute 23, 3
   5              		.eabi_attribute 24, 1
   6              		.eabi_attribute 25, 1
   7              		.eabi_attribute 26, 1
   8              		.eabi_attribute 30, 2
   9              		.eabi_attribute 34, 1
  10              		.eabi_attribute 18, 4
  11              		.file	"chevents.c"
  12              		.text
  13              	.Ltext0:
  14              		.cfi_sections	.debug_frame
  15              		.section	.text.chEvtRegisterMaskWithFlagsI,"ax",%progbits
  16              		.align	1
  17              		.p2align 4,,15
  18              		.global	chEvtRegisterMaskWithFlagsI
  19              		.arch armv7e-m
  20              		.syntax unified
  21              		.thumb
  22              		.thumb_func
  23              		.fpu softvfp
  24              		.type	chEvtRegisterMaskWithFlagsI, %function
  25              	chEvtRegisterMaskWithFlagsI:
  26              	.LVL0:
  27              	.LFB335:
  28              		.file 1 "../ChibiOS/os/rt/src/chevents.c"
  29              		.loc 1 106 55 view -0
  30              		.cfi_startproc
  31              		@ args = 0, pretend = 0, frame = 0
  32              		@ frame_needed = 0, uses_anonymous_args = 0
  33              		@ link register save eliminated.
  34              		.loc 1 107 3 view .LVU1
  35              	.LBB200:
  36              	.LBI200:
  37              		.file 2 "../ChibiOS/os/rt/include/chthreads.h"
  38              		.loc 2 341 25 view .LVU2
  39              	.LBB201:
  40              		.loc 2 343 3 view .LVU3
  41              	.LBE201:
  42              	.LBE200:
  43              		.loc 1 106 55 is_stmt 0 view .LVU4
  44 0000 10B4     		push	{r4}
  45              		.cfi_def_cfa_offset 4
  46              		.cfi_offset 4, -4
  47              	.LBB204:
  48              	.LBB202:
  49              		.loc 2 343 10 view .LVU5
  50 0002 074C     		ldr	r4, .L4
  51              	.LBE202:
  52              	.LBE204:
  53              		.loc 1 112 17 view .LVU6
  54 0004 D0F800C0 		ldr	ip, [r0]
  55              	.LBB205:
  56              	.LBB203:
  57              		.loc 2 343 10 view .LVU7
ARM GAS  /tmp/cc6nZmxe.s 			page 2


  58 0008 E468     		ldr	r4, [r4, #12]
  59              	.LVL1:
  60              		.loc 2 343 10 view .LVU8
  61              	.LBE203:
  62              	.LBE205:
  63              		.loc 1 109 21 is_stmt 1 view .LVU9
  64              		.loc 1 110 3 view .LVU10
  65              		.loc 1 110 3 view .LVU11
  66              		.loc 1 110 3 view .LVU12
  67              		.loc 1 112 3 view .LVU13
  68              		.loc 1 112 17 is_stmt 0 view .LVU14
  69 000a C1F800C0 		str	ip, [r1]
  70              		.loc 1 113 3 is_stmt 1 view .LVU15
  71              		.loc 1 113 17 is_stmt 0 view .LVU16
  72 000e 0160     		str	r1, [r0]
  73              		.loc 1 114 3 is_stmt 1 view .LVU17
  74              		.loc 1 116 17 is_stmt 0 view .LVU18
  75 0010 0020     		movs	r0, #0
  76              	.LVL2:
  77              		.loc 1 115 17 view .LVU19
  78 0012 C1E90142 		strd	r4, r2, [r1, #4]
  79              		.loc 1 116 3 is_stmt 1 view .LVU20
  80              		.loc 1 117 17 is_stmt 0 view .LVU21
  81 0016 C1E90303 		strd	r0, r3, [r1, #12]
  82              		.loc 1 118 1 view .LVU22
  83 001a 10BC     		pop	{r4}
  84              		.cfi_restore 4
  85              		.cfi_def_cfa_offset 0
  86              	.LVL3:
  87              		.loc 1 118 1 view .LVU23
  88 001c 7047     		bx	lr
  89              	.L5:
  90 001e 00BF     		.align	2
  91              	.L4:
  92 0020 00000000 		.word	ch0
  93              		.cfi_endproc
  94              	.LFE335:
  95              		.size	chEvtRegisterMaskWithFlagsI, .-chEvtRegisterMaskWithFlagsI
  96              		.section	.text.chEvtRegisterMaskWithFlags,"ax",%progbits
  97              		.align	1
  98              		.p2align 4,,15
  99              		.global	chEvtRegisterMaskWithFlags
 100              		.syntax unified
 101              		.thumb
 102              		.thumb_func
 103              		.fpu softvfp
 104              		.type	chEvtRegisterMaskWithFlags, %function
 105              	chEvtRegisterMaskWithFlags:
 106              	.LVL4:
 107              	.LFB336:
 108              		.loc 1 138 54 is_stmt 1 view -0
 109              		.cfi_startproc
 110              		@ args = 0, pretend = 0, frame = 0
 111              		@ frame_needed = 0, uses_anonymous_args = 0
 112              		@ link register save eliminated.
 113              		.loc 1 140 3 view .LVU25
 114              	.LBB206:
ARM GAS  /tmp/cc6nZmxe.s 			page 3


 115              	.LBI206:
 116              		.file 3 "../ChibiOS/os/rt/include/chsys.h"
 117              		.loc 3 407 20 view .LVU26
 118              	.LBE206:
 119              		.loc 3 409 3 view .LVU27
 120              	.LBB214:
 121              	.LBB207:
 122              	.LBI207:
 123              		.file 4 "../ChibiOS/os/common/ports/ARMv7-M/chcore.h"
 124              		.loc 4 806 27 view .LVU28
 125              	.LBE207:
 126              	.LBE214:
 127              		.loc 4 814 3 view .LVU29
 128              	.LBB215:
 129              	.LBB212:
 130              	.LBB208:
 131              	.LBI208:
 132              		.file 5 "../ChibiOS/os/common/ext/ARM/CMSIS/Core/Include/cmsis_gcc.h"
 133              		.loc 5 491 27 view .LVU30
 134              	.LBB209:
 135              		.loc 5 493 3 view .LVU31
 136              	.LBE209:
 137              	.LBE208:
 138              	.LBE212:
 139              	.LBE215:
 140              		.loc 1 138 54 is_stmt 0 view .LVU32
 141 0000 10B4     		push	{r4}
 142              		.cfi_def_cfa_offset 4
 143              		.cfi_offset 4, -4
 144              	.LBB216:
 145              	.LBB213:
 146              	.LBB211:
 147              	.LBB210:
 148              		.loc 5 493 3 view .LVU33
 149 0002 3024     		movs	r4, #48
 150              		.syntax unified
 151              	@ 493 "../ChibiOS/os/common/ext/ARM/CMSIS/Core/Include/cmsis_gcc.h" 1
 152 0004 84F31188 		MSR basepri, r4
 153              	@ 0 "" 2
 154              	.LVL5:
 155              		.loc 5 493 3 view .LVU34
 156              		.thumb
 157              		.syntax unified
 158              	.LBE210:
 159              	.LBE211:
 160              	.LBE213:
 161              	.LBE216:
 162              		.loc 3 410 35 is_stmt 1 view .LVU35
 163              		.loc 3 411 21 view .LVU36
 164              		.loc 1 141 3 view .LVU37
 165              	.LBB217:
 166              	.LBI217:
 167              		.loc 1 103 6 view .LVU38
 168              	.LBB218:
 169              		.loc 1 107 3 view .LVU39
 170              	.LBB219:
 171              	.LBI219:
ARM GAS  /tmp/cc6nZmxe.s 			page 4


 172              		.loc 2 341 25 view .LVU40
 173              	.LBB220:
 174              		.loc 2 343 3 view .LVU41
 175              		.loc 2 343 10 is_stmt 0 view .LVU42
 176 0008 074C     		ldr	r4, .L8
 177              	.LBE220:
 178              	.LBE219:
 179              		.loc 1 112 17 view .LVU43
 180 000a D0F800C0 		ldr	ip, [r0]
 181              	.LBB222:
 182              	.LBB221:
 183              		.loc 2 343 10 view .LVU44
 184 000e E468     		ldr	r4, [r4, #12]
 185              	.LVL6:
 186              		.loc 2 343 10 view .LVU45
 187              	.LBE221:
 188              	.LBE222:
 189              		.loc 1 109 21 is_stmt 1 view .LVU46
 190              		.loc 1 110 3 view .LVU47
 191              		.loc 1 110 3 view .LVU48
 192              		.loc 1 110 3 view .LVU49
 193              		.loc 1 112 3 view .LVU50
 194              		.loc 1 112 17 is_stmt 0 view .LVU51
 195 0010 C1F800C0 		str	ip, [r1]
 196              		.loc 1 113 3 is_stmt 1 view .LVU52
 197              		.loc 1 113 17 is_stmt 0 view .LVU53
 198 0014 0160     		str	r1, [r0]
 199              		.loc 1 114 3 is_stmt 1 view .LVU54
 200              		.loc 1 116 17 is_stmt 0 view .LVU55
 201 0016 0020     		movs	r0, #0
 202              	.LVL7:
 203              		.loc 1 115 17 view .LVU56
 204 0018 C1E90142 		strd	r4, r2, [r1, #4]
 205              		.loc 1 116 3 is_stmt 1 view .LVU57
 206              		.loc 1 117 17 is_stmt 0 view .LVU58
 207 001c C1E90303 		strd	r0, r3, [r1, #12]
 208              	.LVL8:
 209              		.loc 1 117 17 view .LVU59
 210              	.LBE218:
 211              	.LBE217:
 212              		.loc 1 142 3 is_stmt 1 view .LVU60
 213              	.LBB223:
 214              	.LBI223:
 215              		.loc 3 421 20 view .LVU61
 216              	.LBB224:
 217              		.loc 3 423 23 view .LVU62
 218              		.loc 3 424 34 view .LVU63
 219              		.loc 3 430 3 view .LVU64
 220              		.loc 3 430 3 view .LVU65
 221              		.loc 3 430 3 view .LVU66
 222              		.loc 3 434 3 view .LVU67
 223              	.LBB225:
 224              	.LBI225:
 225              		.loc 4 830 27 view .LVU68
 226              	.LBE225:
 227              	.LBE224:
 228              	.LBE223:
ARM GAS  /tmp/cc6nZmxe.s 			page 5


 229              		.loc 4 833 3 view .LVU69
 230              	.LBB230:
 231              	.LBB229:
 232              	.LBB228:
 233              	.LBB226:
 234              	.LBI226:
 235              		.loc 5 491 27 view .LVU70
 236              	.LBB227:
 237              		.loc 5 493 3 view .LVU71
 238              		.syntax unified
 239              	@ 493 "../ChibiOS/os/common/ext/ARM/CMSIS/Core/Include/cmsis_gcc.h" 1
 240 0020 80F31188 		MSR basepri, r0
 241              	@ 0 "" 2
 242              	.LVL9:
 243              		.loc 5 493 3 is_stmt 0 view .LVU72
 244              		.thumb
 245              		.syntax unified
 246              	.LBE227:
 247              	.LBE226:
 248              	.LBE228:
 249              	.LBE229:
 250              	.LBE230:
 251              		.loc 1 143 1 view .LVU73
 252 0024 10BC     		pop	{r4}
 253              		.cfi_restore 4
 254              		.cfi_def_cfa_offset 0
 255              	.LVL10:
 256              		.loc 1 143 1 view .LVU74
 257 0026 7047     		bx	lr
 258              	.L9:
 259              		.align	2
 260              	.L8:
 261 0028 00000000 		.word	ch0
 262              		.cfi_endproc
 263              	.LFE336:
 264              		.size	chEvtRegisterMaskWithFlags, .-chEvtRegisterMaskWithFlags
 265              		.section	.text.chEvtUnregister,"ax",%progbits
 266              		.align	1
 267              		.p2align 4,,15
 268              		.global	chEvtUnregister
 269              		.syntax unified
 270              		.thumb
 271              		.thumb_func
 272              		.fpu softvfp
 273              		.type	chEvtUnregister, %function
 274              	chEvtUnregister:
 275              	.LVL11:
 276              	.LFB337:
 277              		.loc 1 158 66 is_stmt 1 view -0
 278              		.cfi_startproc
 279              		@ args = 0, pretend = 0, frame = 0
 280              		@ frame_needed = 0, uses_anonymous_args = 0
 281              		@ link register save eliminated.
 282              		.loc 1 159 3 view .LVU76
 283              		.loc 1 161 3 view .LVU77
 284              		.loc 1 161 3 view .LVU78
 285              		.loc 1 161 3 view .LVU79
ARM GAS  /tmp/cc6nZmxe.s 			page 6


 286              		.loc 1 164 3 view .LVU80
 287              		.loc 1 166 3 view .LVU81
 288              	.LBB231:
 289              	.LBI231:
 290              		.loc 3 407 20 view .LVU82
 291              	.LBB232:
 292              		.loc 3 409 3 view .LVU83
 293              	.LBB233:
 294              	.LBI233:
 295              		.loc 4 806 27 view .LVU84
 296              	.LBE233:
 297              	.LBE232:
 298              	.LBE231:
 299              		.loc 4 814 3 view .LVU85
 300              	.LBB239:
 301              	.LBB237:
 302              	.LBB236:
 303              	.LBB234:
 304              	.LBI234:
 305              		.loc 5 491 27 view .LVU86
 306              	.LBB235:
 307              		.loc 5 493 3 view .LVU87
 308 0000 3023     		movs	r3, #48
 309              		.syntax unified
 310              	@ 493 "../ChibiOS/os/common/ext/ARM/CMSIS/Core/Include/cmsis_gcc.h" 1
 311 0002 83F31188 		MSR basepri, r3
 312              	@ 0 "" 2
 313              	.LVL12:
 314              		.loc 5 493 3 is_stmt 0 view .LVU88
 315              		.thumb
 316              		.syntax unified
 317              	.LBE235:
 318              	.LBE234:
 319              	.LBE236:
 320              		.loc 3 410 35 is_stmt 1 view .LVU89
 321              		.loc 3 411 21 view .LVU90
 322              	.LBE237:
 323              	.LBE239:
 324              		.loc 1 164 5 is_stmt 0 view .LVU91
 325 0006 0346     		mov	r3, r0
 326              	.LBB240:
 327              	.LBB238:
 328              		.loc 3 412 1 view .LVU92
 329 0008 01E0     		b	.L11
 330              	.LVL13:
 331              	.L13:
 332              		.loc 3 412 1 view .LVU93
 333              	.LBE238:
 334              	.LBE240:
 335              		.loc 1 170 8 view .LVU94
 336 000a 8B42     		cmp	r3, r1
 337 000c 07D0     		beq	.L15
 338              	.LVL14:
 339              	.L11:
 340              		.loc 1 170 5 is_stmt 1 view .LVU95
 341              		.loc 1 168 9 view .LVU96
 342 000e 1A46     		mov	r2, r3
ARM GAS  /tmp/cc6nZmxe.s 			page 7


 343              		.loc 1 168 11 is_stmt 0 view .LVU97
 344 0010 1B68     		ldr	r3, [r3]
 345              	.LVL15:
 346              		.loc 1 168 9 view .LVU98
 347 0012 9842     		cmp	r0, r3
 348 0014 F9D1     		bne	.L13
 349              		.loc 1 176 3 is_stmt 1 view .LVU99
 350              	.LBB241:
 351              	.LBI241:
 352              		.loc 3 421 20 view .LVU100
 353              	.LBB242:
 354              		.loc 3 423 23 view .LVU101
 355              		.loc 3 424 34 view .LVU102
 356              		.loc 3 430 3 view .LVU103
 357              		.loc 3 430 3 view .LVU104
 358              		.loc 3 430 3 view .LVU105
 359              		.loc 3 434 3 view .LVU106
 360              	.LBB243:
 361              	.LBI243:
 362              		.loc 4 830 27 view .LVU107
 363              	.LBE243:
 364              	.LBE242:
 365              	.LBE241:
 366              		.loc 4 833 3 view .LVU108
 367              	.LVL16:
 368              	.LBB254:
 369              	.LBB251:
 370              	.LBB248:
 371              	.LBB244:
 372              	.LBI244:
 373              		.loc 5 491 27 view .LVU109
 374              	.LBB245:
 375              		.loc 5 493 3 view .LVU110
 376 0016 0023     		movs	r3, #0
 377              		.syntax unified
 378              	@ 493 "../ChibiOS/os/common/ext/ARM/CMSIS/Core/Include/cmsis_gcc.h" 1
 379 0018 83F31188 		MSR basepri, r3
 380              	@ 0 "" 2
 381              	.LVL17:
 382              		.loc 5 493 3 is_stmt 0 view .LVU111
 383              		.thumb
 384              		.syntax unified
 385              	.LBE245:
 386              	.LBE244:
 387              	.LBE248:
 388              	.LBE251:
 389              	.LBE254:
 390              		.loc 1 177 1 view .LVU112
 391 001c 7047     		bx	lr
 392              	.L15:
 393              		.loc 1 171 7 is_stmt 1 view .LVU113
 394              		.loc 1 171 20 is_stmt 0 view .LVU114
 395 001e 1B68     		ldr	r3, [r3]
 396              		.loc 1 171 15 view .LVU115
 397 0020 1360     		str	r3, [r2]
 398              		.loc 1 172 7 is_stmt 1 view .LVU116
 399              		.loc 1 176 3 view .LVU117
ARM GAS  /tmp/cc6nZmxe.s 			page 8


 400              	.LBB255:
 401              		.loc 3 421 20 view .LVU118
 402              	.LBB252:
 403              		.loc 3 423 23 view .LVU119
 404              		.loc 3 424 34 view .LVU120
 405              		.loc 3 430 3 view .LVU121
 406              		.loc 3 430 3 view .LVU122
 407              		.loc 3 430 3 view .LVU123
 408              		.loc 3 434 3 view .LVU124
 409              	.LBB249:
 410              		.loc 4 830 27 view .LVU125
 411              	.LBE249:
 412              	.LBE252:
 413              	.LBE255:
 414              		.loc 4 833 3 view .LVU126
 415              	.LVL18:
 416              	.LBB256:
 417              	.LBB253:
 418              	.LBB250:
 419              	.LBB247:
 420              		.loc 5 491 27 view .LVU127
 421              	.LBB246:
 422              		.loc 5 493 3 view .LVU128
 423 0022 0023     		movs	r3, #0
 424              		.syntax unified
 425              	@ 493 "../ChibiOS/os/common/ext/ARM/CMSIS/Core/Include/cmsis_gcc.h" 1
 426 0024 83F31188 		MSR basepri, r3
 427              	@ 0 "" 2
 428              	.LVL19:
 429              		.loc 5 493 3 is_stmt 0 view .LVU129
 430              		.thumb
 431              		.syntax unified
 432              	.LBE246:
 433              	.LBE247:
 434              	.LBE250:
 435              	.LBE253:
 436              	.LBE256:
 437              		.loc 1 177 1 view .LVU130
 438 0028 7047     		bx	lr
 439              		.cfi_endproc
 440              	.LFE337:
 441              		.size	chEvtUnregister, .-chEvtUnregister
 442 002a 00BF     		.section	.text.chEvtGetAndClearEventsI,"ax",%progbits
 443              		.align	1
 444              		.p2align 4,,15
 445              		.global	chEvtGetAndClearEventsI
 446              		.syntax unified
 447              		.thumb
 448              		.thumb_func
 449              		.fpu softvfp
 450              		.type	chEvtGetAndClearEventsI, %function
 451              	chEvtGetAndClearEventsI:
 452              	.LVL20:
 453              	.LFB338:
 454              		.loc 1 187 57 is_stmt 1 view -0
 455              		.cfi_startproc
 456              		@ args = 0, pretend = 0, frame = 0
ARM GAS  /tmp/cc6nZmxe.s 			page 9


 457              		@ frame_needed = 0, uses_anonymous_args = 0
 458              		@ link register save eliminated.
 459              		.loc 1 188 3 view .LVU132
 460              	.LBB257:
 461              	.LBI257:
 462              		.loc 2 341 25 view .LVU133
 463              	.LBB258:
 464              		.loc 2 343 3 view .LVU134
 465              		.loc 2 343 10 is_stmt 0 view .LVU135
 466 0000 034B     		ldr	r3, .L17
 467 0002 DA68     		ldr	r2, [r3, #12]
 468              	.LVL21:
 469              		.loc 2 343 10 view .LVU136
 470              	.LBE258:
 471              	.LBE257:
 472              		.loc 1 189 3 is_stmt 1 view .LVU137
 473              		.loc 1 191 21 view .LVU138
 474              		.loc 1 193 3 view .LVU139
 475              		.loc 1 193 13 is_stmt 0 view .LVU140
 476 0004 936B     		ldr	r3, [r2, #56]
 477              	.LVL22:
 478              		.loc 1 194 3 is_stmt 1 view .LVU141
 479              		.loc 1 194 20 is_stmt 0 view .LVU142
 480 0006 23EA0001 		bic	r1, r3, r0
 481 000a 9163     		str	r1, [r2, #56]
 482              		.loc 1 196 3 is_stmt 1 view .LVU143
 483              		.loc 1 197 1 is_stmt 0 view .LVU144
 484 000c 1840     		ands	r0, r0, r3
 485              	.LVL23:
 486              		.loc 1 197 1 view .LVU145
 487 000e 7047     		bx	lr
 488              	.L18:
 489              		.align	2
 490              	.L17:
 491 0010 00000000 		.word	ch0
 492              		.cfi_endproc
 493              	.LFE338:
 494              		.size	chEvtGetAndClearEventsI, .-chEvtGetAndClearEventsI
 495              		.section	.text.chEvtGetAndClearEvents,"ax",%progbits
 496              		.align	1
 497              		.p2align 4,,15
 498              		.global	chEvtGetAndClearEvents
 499              		.syntax unified
 500              		.thumb
 501              		.thumb_func
 502              		.fpu softvfp
 503              		.type	chEvtGetAndClearEvents, %function
 504              	chEvtGetAndClearEvents:
 505              	.LVL24:
 506              	.LFB339:
 507              		.loc 1 207 56 is_stmt 1 view -0
 508              		.cfi_startproc
 509              		@ args = 0, pretend = 0, frame = 0
 510              		@ frame_needed = 0, uses_anonymous_args = 0
 511              		@ link register save eliminated.
 512              		.loc 1 208 3 view .LVU147
 513              		.loc 1 210 3 view .LVU148
ARM GAS  /tmp/cc6nZmxe.s 			page 10


 514              	.LBB259:
 515              	.LBI259:
 516              		.loc 3 407 20 view .LVU149
 517              	.LBE259:
 518              		.loc 3 409 3 view .LVU150
 519              	.LBB267:
 520              	.LBB260:
 521              	.LBI260:
 522              		.loc 4 806 27 view .LVU151
 523              	.LBE260:
 524              	.LBE267:
 525              		.loc 4 814 3 view .LVU152
 526              	.LBB268:
 527              	.LBB265:
 528              	.LBB261:
 529              	.LBI261:
 530              		.loc 5 491 27 view .LVU153
 531              	.LBB262:
 532              		.loc 5 493 3 view .LVU154
 533              	.LBE262:
 534              	.LBE261:
 535              	.LBE265:
 536              	.LBE268:
 537              		.loc 1 207 56 is_stmt 0 view .LVU155
 538 0000 10B4     		push	{r4}
 539              		.cfi_def_cfa_offset 4
 540              		.cfi_offset 4, -4
 541              	.LBB269:
 542              	.LBB266:
 543              	.LBB264:
 544              	.LBB263:
 545              		.loc 5 493 3 view .LVU156
 546 0002 3023     		movs	r3, #48
 547              		.syntax unified
 548              	@ 493 "../ChibiOS/os/common/ext/ARM/CMSIS/Core/Include/cmsis_gcc.h" 1
 549 0004 83F31188 		MSR basepri, r3
 550              	@ 0 "" 2
 551              	.LVL25:
 552              		.loc 5 493 3 view .LVU157
 553              		.thumb
 554              		.syntax unified
 555              	.LBE263:
 556              	.LBE264:
 557              	.LBE266:
 558              	.LBE269:
 559              		.loc 3 410 35 is_stmt 1 view .LVU158
 560              		.loc 3 411 21 view .LVU159
 561              		.loc 1 211 3 view .LVU160
 562              	.LBB270:
 563              	.LBI270:
 564              		.loc 1 187 13 view .LVU161
 565              	.LBB271:
 566              		.loc 1 188 3 view .LVU162
 567              	.LBB272:
 568              	.LBI272:
 569              		.loc 2 341 25 view .LVU163
 570              	.LBB273:
ARM GAS  /tmp/cc6nZmxe.s 			page 11


 571              		.loc 2 343 3 view .LVU164
 572              		.loc 2 343 10 is_stmt 0 view .LVU165
 573 0008 054B     		ldr	r3, .L21
 574 000a DA68     		ldr	r2, [r3, #12]
 575              	.LVL26:
 576              		.loc 2 343 10 view .LVU166
 577              	.LBE273:
 578              	.LBE272:
 579              		.loc 1 189 3 is_stmt 1 view .LVU167
 580              		.loc 1 191 21 view .LVU168
 581              		.loc 1 193 3 view .LVU169
 582              		.loc 1 193 13 is_stmt 0 view .LVU170
 583 000c 936B     		ldr	r3, [r2, #56]
 584              	.LVL27:
 585              		.loc 1 194 3 is_stmt 1 view .LVU171
 586              		.loc 1 194 20 is_stmt 0 view .LVU172
 587 000e 23EA0004 		bic	r4, r3, r0
 588              	.LBE271:
 589              	.LBE270:
 590              	.LBB275:
 591              	.LBB276:
 592              	.LBB277:
 593              	.LBB278:
 594              	.LBB279:
 595              		.loc 5 493 3 view .LVU173
 596 0012 0021     		movs	r1, #0
 597              	.LBE279:
 598              	.LBE278:
 599              	.LBE277:
 600              	.LBE276:
 601              	.LBE275:
 602              	.LBB286:
 603              	.LBB274:
 604              		.loc 1 194 20 view .LVU174
 605 0014 9463     		str	r4, [r2, #56]
 606              		.loc 1 196 3 is_stmt 1 view .LVU175
 607              	.LVL28:
 608              		.loc 1 196 3 is_stmt 0 view .LVU176
 609              	.LBE274:
 610              	.LBE286:
 611              		.loc 1 212 3 is_stmt 1 view .LVU177
 612              	.LBB287:
 613              	.LBI275:
 614              		.loc 3 421 20 view .LVU178
 615              	.LBB284:
 616              		.loc 3 423 23 view .LVU179
 617              		.loc 3 424 34 view .LVU180
 618              		.loc 3 430 3 view .LVU181
 619              		.loc 3 430 3 view .LVU182
 620              		.loc 3 430 3 view .LVU183
 621              		.loc 3 434 3 view .LVU184
 622              	.LBB282:
 623              	.LBI277:
 624              		.loc 4 830 27 view .LVU185
 625              	.LBE282:
 626              	.LBE284:
 627              	.LBE287:
ARM GAS  /tmp/cc6nZmxe.s 			page 12


 628              		.loc 4 833 3 view .LVU186
 629              	.LBB288:
 630              	.LBB285:
 631              	.LBB283:
 632              	.LBB281:
 633              	.LBI278:
 634              		.loc 5 491 27 view .LVU187
 635              	.LBB280:
 636              		.loc 5 493 3 view .LVU188
 637              		.syntax unified
 638              	@ 493 "../ChibiOS/os/common/ext/ARM/CMSIS/Core/Include/cmsis_gcc.h" 1
 639 0016 81F31188 		MSR basepri, r1
 640              	@ 0 "" 2
 641              	.LVL29:
 642              		.loc 5 493 3 is_stmt 0 view .LVU189
 643              		.thumb
 644              		.syntax unified
 645              	.LBE280:
 646              	.LBE281:
 647              	.LBE283:
 648              	.LBE285:
 649              	.LBE288:
 650              		.loc 1 214 3 is_stmt 1 view .LVU190
 651              		.loc 1 215 1 is_stmt 0 view .LVU191
 652 001a 1840     		ands	r0, r0, r3
 653              	.LVL30:
 654              		.loc 1 215 1 view .LVU192
 655 001c 10BC     		pop	{r4}
 656              		.cfi_restore 4
 657              		.cfi_def_cfa_offset 0
 658 001e 7047     		bx	lr
 659              	.L22:
 660              		.align	2
 661              	.L21:
 662 0020 00000000 		.word	ch0
 663              		.cfi_endproc
 664              	.LFE339:
 665              		.size	chEvtGetAndClearEvents, .-chEvtGetAndClearEvents
 666              		.section	.text.chEvtAddEvents,"ax",%progbits
 667              		.align	1
 668              		.p2align 4,,15
 669              		.global	chEvtAddEvents
 670              		.syntax unified
 671              		.thumb
 672              		.thumb_func
 673              		.fpu softvfp
 674              		.type	chEvtAddEvents, %function
 675              	chEvtAddEvents:
 676              	.LVL31:
 677              	.LFB340:
 678              		.loc 1 226 48 is_stmt 1 view -0
 679              		.cfi_startproc
 680              		@ args = 0, pretend = 0, frame = 0
 681              		@ frame_needed = 0, uses_anonymous_args = 0
 682              		@ link register save eliminated.
 683              		.loc 1 227 3 view .LVU194
 684              		.loc 1 229 3 view .LVU195
ARM GAS  /tmp/cc6nZmxe.s 			page 13


 685              	.LBB289:
 686              	.LBI289:
 687              		.loc 3 407 20 view .LVU196
 688              	.LBE289:
 689              		.loc 3 409 3 view .LVU197
 690              	.LBB294:
 691              	.LBB290:
 692              	.LBI290:
 693              		.loc 4 806 27 view .LVU198
 694              	.LBE290:
 695              	.LBE294:
 696              		.loc 4 814 3 view .LVU199
 697              	.LBB295:
 698              	.LBB293:
 699              	.LBB291:
 700              	.LBI291:
 701              		.loc 5 491 27 view .LVU200
 702              	.LBB292:
 703              		.loc 5 493 3 view .LVU201
 704 0000 3023     		movs	r3, #48
 705              		.syntax unified
 706              	@ 493 "../ChibiOS/os/common/ext/ARM/CMSIS/Core/Include/cmsis_gcc.h" 1
 707 0002 83F31188 		MSR basepri, r3
 708              	@ 0 "" 2
 709              	.LVL32:
 710              		.loc 5 493 3 is_stmt 0 view .LVU202
 711              		.thumb
 712              		.syntax unified
 713              	.LBE292:
 714              	.LBE291:
 715              	.LBE293:
 716              	.LBE295:
 717              		.loc 3 410 35 is_stmt 1 view .LVU203
 718              		.loc 3 411 21 view .LVU204
 719              		.loc 1 230 3 view .LVU205
 720              	.LBB296:
 721              	.LBI296:
 722              		.file 6 "../ChibiOS/os/rt/include/chevents.h"
 723              		.loc 6 273 27 view .LVU206
 724              	.LBB297:
 725              		.loc 6 275 3 view .LVU207
 726              		.loc 6 275 10 is_stmt 0 view .LVU208
 727 0006 044B     		ldr	r3, .L24
 728 0008 DB68     		ldr	r3, [r3, #12]
 729              		.loc 6 275 43 view .LVU209
 730 000a 996B     		ldr	r1, [r3, #56]
 731 000c 0843     		orrs	r0, r0, r1
 732              	.LVL33:
 733              		.loc 6 275 43 view .LVU210
 734              	.LBE297:
 735              	.LBE296:
 736              	.LBB299:
 737              	.LBB300:
 738              	.LBB301:
 739              	.LBB302:
 740              	.LBB303:
 741              		.loc 5 493 3 view .LVU211
ARM GAS  /tmp/cc6nZmxe.s 			page 14


 742 000e 0022     		movs	r2, #0
 743              	.LBE303:
 744              	.LBE302:
 745              	.LBE301:
 746              	.LBE300:
 747              	.LBE299:
 748              	.LBB310:
 749              	.LBB298:
 750              		.loc 6 275 43 view .LVU212
 751 0010 9863     		str	r0, [r3, #56]
 752              	.LVL34:
 753              		.loc 6 275 43 view .LVU213
 754              	.LBE298:
 755              	.LBE310:
 756              		.loc 1 231 3 is_stmt 1 view .LVU214
 757              	.LBB311:
 758              	.LBI299:
 759              		.loc 3 421 20 view .LVU215
 760              	.LBB308:
 761              		.loc 3 423 23 view .LVU216
 762              		.loc 3 424 34 view .LVU217
 763              		.loc 3 430 3 view .LVU218
 764              		.loc 3 430 3 view .LVU219
 765              		.loc 3 430 3 view .LVU220
 766              		.loc 3 434 3 view .LVU221
 767              	.LBB306:
 768              	.LBI301:
 769              		.loc 4 830 27 view .LVU222
 770              	.LBE306:
 771              	.LBE308:
 772              	.LBE311:
 773              		.loc 4 833 3 view .LVU223
 774              	.LBB312:
 775              	.LBB309:
 776              	.LBB307:
 777              	.LBB305:
 778              	.LBI302:
 779              		.loc 5 491 27 view .LVU224
 780              	.LBB304:
 781              		.loc 5 493 3 view .LVU225
 782              		.syntax unified
 783              	@ 493 "../ChibiOS/os/common/ext/ARM/CMSIS/Core/Include/cmsis_gcc.h" 1
 784 0012 82F31188 		MSR basepri, r2
 785              	@ 0 "" 2
 786              	.LVL35:
 787              		.loc 5 493 3 is_stmt 0 view .LVU226
 788              		.thumb
 789              		.syntax unified
 790              	.LBE304:
 791              	.LBE305:
 792              	.LBE307:
 793              	.LBE309:
 794              	.LBE312:
 795              		.loc 1 233 3 is_stmt 1 view .LVU227
 796              		.loc 1 234 1 is_stmt 0 view .LVU228
 797 0016 7047     		bx	lr
 798              	.L25:
ARM GAS  /tmp/cc6nZmxe.s 			page 15


 799              		.align	2
 800              	.L24:
 801 0018 00000000 		.word	ch0
 802              		.cfi_endproc
 803              	.LFE340:
 804              		.size	chEvtAddEvents, .-chEvtAddEvents
 805              		.section	.text.chEvtGetAndClearFlagsI,"ax",%progbits
 806              		.align	1
 807              		.p2align 4,,15
 808              		.global	chEvtGetAndClearFlagsI
 809              		.syntax unified
 810              		.thumb
 811              		.thumb_func
 812              		.fpu softvfp
 813              		.type	chEvtGetAndClearFlagsI, %function
 814              	chEvtGetAndClearFlagsI:
 815              	.LVL36:
 816              	.LFB341:
 817              		.loc 1 247 60 is_stmt 1 view -0
 818              		.cfi_startproc
 819              		@ args = 0, pretend = 0, frame = 0
 820              		@ frame_needed = 0, uses_anonymous_args = 0
 821              		@ link register save eliminated.
 822              		.loc 1 248 3 view .LVU230
 823              		.loc 1 250 21 view .LVU231
 824              		.loc 1 251 3 view .LVU232
 825              		.loc 1 251 3 view .LVU233
 826              		.loc 1 251 3 view .LVU234
 827              		.loc 1 253 3 view .LVU235
 828              		.loc 1 256 16 is_stmt 0 view .LVU236
 829 0000 D0E90323 		ldrd	r2, r3, [r0, #12]
 830              		.loc 1 254 14 view .LVU237
 831 0004 0021     		movs	r1, #0
 832 0006 C160     		str	r1, [r0, #12]
 833              		.loc 1 256 3 is_stmt 1 view .LVU238
 834              		.loc 1 257 1 is_stmt 0 view .LVU239
 835 0008 02EA0300 		and	r0, r2, r3
 836              	.LVL37:
 837              		.loc 1 257 1 view .LVU240
 838 000c 7047     		bx	lr
 839              		.cfi_endproc
 840              	.LFE341:
 841              		.size	chEvtGetAndClearFlagsI, .-chEvtGetAndClearFlagsI
 842 000e 00BF     		.section	.text.chEvtGetAndClearFlags,"ax",%progbits
 843              		.align	1
 844              		.p2align 4,,15
 845              		.global	chEvtGetAndClearFlags
 846              		.syntax unified
 847              		.thumb
 848              		.thumb_func
 849              		.fpu softvfp
 850              		.type	chEvtGetAndClearFlags, %function
 851              	chEvtGetAndClearFlags:
 852              	.LVL38:
 853              	.LFB342:
 854              		.loc 1 270 59 is_stmt 1 view -0
 855              		.cfi_startproc
ARM GAS  /tmp/cc6nZmxe.s 			page 16


 856              		@ args = 0, pretend = 0, frame = 0
 857              		@ frame_needed = 0, uses_anonymous_args = 0
 858              		@ link register save eliminated.
 859              		.loc 1 271 3 view .LVU242
 860              		.loc 1 273 3 view .LVU243
 861              		.loc 1 273 3 view .LVU244
 862              		.loc 1 273 3 view .LVU245
 863              		.loc 1 275 3 view .LVU246
 864              	.LBB313:
 865              	.LBI313:
 866              		.loc 3 407 20 view .LVU247
 867              	.LBE313:
 868              		.loc 3 409 3 view .LVU248
 869              	.LBB318:
 870              	.LBB314:
 871              	.LBI314:
 872              		.loc 4 806 27 view .LVU249
 873              	.LBE314:
 874              	.LBE318:
 875              		.loc 4 814 3 view .LVU250
 876              	.LBB319:
 877              	.LBB317:
 878              	.LBB315:
 879              	.LBI315:
 880              		.loc 5 491 27 view .LVU251
 881              	.LBB316:
 882              		.loc 5 493 3 view .LVU252
 883 0000 3023     		movs	r3, #48
 884              		.syntax unified
 885              	@ 493 "../ChibiOS/os/common/ext/ARM/CMSIS/Core/Include/cmsis_gcc.h" 1
 886 0002 83F31188 		MSR basepri, r3
 887              	@ 0 "" 2
 888              	.LVL39:
 889              		.loc 5 493 3 is_stmt 0 view .LVU253
 890              		.thumb
 891              		.syntax unified
 892              	.LBE316:
 893              	.LBE315:
 894              	.LBE317:
 895              	.LBE319:
 896              		.loc 3 410 35 is_stmt 1 view .LVU254
 897              		.loc 3 411 21 view .LVU255
 898              		.loc 1 276 3 view .LVU256
 899              		.loc 1 277 14 is_stmt 0 view .LVU257
 900 0006 0023     		movs	r3, #0
 901              		.loc 1 276 9 view .LVU258
 902 0008 C268     		ldr	r2, [r0, #12]
 903              	.LVL40:
 904              		.loc 1 277 3 is_stmt 1 view .LVU259
 905              		.loc 1 277 14 is_stmt 0 view .LVU260
 906 000a C360     		str	r3, [r0, #12]
 907              		.loc 1 278 3 is_stmt 1 view .LVU261
 908              	.LBB320:
 909              	.LBI320:
 910              		.loc 3 421 20 view .LVU262
 911              	.LBB321:
 912              		.loc 3 423 23 view .LVU263
ARM GAS  /tmp/cc6nZmxe.s 			page 17


 913              		.loc 3 424 34 view .LVU264
 914              		.loc 3 430 3 view .LVU265
 915              		.loc 3 430 3 view .LVU266
 916              		.loc 3 430 3 view .LVU267
 917              		.loc 3 434 3 view .LVU268
 918              	.LBB322:
 919              	.LBI322:
 920              		.loc 4 830 27 view .LVU269
 921              	.LBE322:
 922              	.LBE321:
 923              	.LBE320:
 924              		.loc 4 833 3 view .LVU270
 925              	.LVL41:
 926              	.LBB327:
 927              	.LBB326:
 928              	.LBB325:
 929              	.LBB323:
 930              	.LBI323:
 931              		.loc 5 491 27 view .LVU271
 932              	.LBB324:
 933              		.loc 5 493 3 view .LVU272
 934              		.syntax unified
 935              	@ 493 "../ChibiOS/os/common/ext/ARM/CMSIS/Core/Include/cmsis_gcc.h" 1
 936 000c 83F31188 		MSR basepri, r3
 937              	@ 0 "" 2
 938              	.LVL42:
 939              		.loc 5 493 3 is_stmt 0 view .LVU273
 940              		.thumb
 941              		.syntax unified
 942              	.LBE324:
 943              	.LBE323:
 944              	.LBE325:
 945              	.LBE326:
 946              	.LBE327:
 947              		.loc 1 280 3 is_stmt 1 view .LVU274
 948              		.loc 1 280 16 is_stmt 0 view .LVU275
 949 0010 0069     		ldr	r0, [r0, #16]
 950              	.LVL43:
 951              		.loc 1 281 1 view .LVU276
 952 0012 1040     		ands	r0, r0, r2
 953 0014 7047     		bx	lr
 954              		.cfi_endproc
 955              	.LFE342:
 956              		.size	chEvtGetAndClearFlags, .-chEvtGetAndClearFlags
 957 0016 00BF     		.section	.text.chEvtSignalI,"ax",%progbits
 958              		.align	1
 959              		.p2align 4,,15
 960              		.global	chEvtSignalI
 961              		.syntax unified
 962              		.thumb
 963              		.thumb_func
 964              		.fpu softvfp
 965              		.type	chEvtSignalI, %function
 966              	chEvtSignalI:
 967              	.LVL44:
 968              	.LFB343:
 969              		.loc 1 295 53 is_stmt 1 view -0
ARM GAS  /tmp/cc6nZmxe.s 			page 18


 970              		.cfi_startproc
 971              		@ args = 0, pretend = 0, frame = 0
 972              		@ frame_needed = 0, uses_anonymous_args = 0
 973              		@ link register save eliminated.
 974              		.loc 1 297 21 view .LVU278
 975              		.loc 1 298 3 view .LVU279
 976              		.loc 1 298 3 view .LVU280
 977              		.loc 1 298 3 view .LVU281
 978              		.loc 1 300 3 view .LVU282
 979              		.loc 1 300 16 is_stmt 0 view .LVU283
 980 0000 826B     		ldr	r2, [r0, #56]
 981              		.loc 1 302 11 view .LVU284
 982 0002 90F82430 		ldrb	r3, [r0, #36]	@ zero_extendqisi2
 983              		.loc 1 300 16 view .LVU285
 984 0006 1143     		orrs	r1, r1, r2
 985              	.LVL45:
 986              		.loc 1 302 6 view .LVU286
 987 0008 0A2B     		cmp	r3, #10
 988              		.loc 1 300 16 view .LVU287
 989 000a 8163     		str	r1, [r0, #56]
 990              		.loc 1 302 3 is_stmt 1 view .LVU288
 991              		.loc 1 302 6 is_stmt 0 view .LVU289
 992 000c 09D0     		beq	.L32
 993              		.loc 1 303 59 view .LVU290
 994 000e 0B2B     		cmp	r3, #11
 995 0010 00D0     		beq	.L33
 996              	.L28:
 997              		.loc 1 309 1 view .LVU291
 998 0012 7047     		bx	lr
 999              	.L33:
 1000              		.loc 1 305 30 view .LVU292
 1001 0014 836A     		ldr	r3, [r0, #40]
 1002              		.loc 1 304 41 view .LVU293
 1003 0016 8B43     		bics	r3, r3, r1
 1004 0018 FBD1     		bne	.L28
 1005              	.L30:
 1006              		.loc 1 306 5 is_stmt 1 view .LVU294
 1007              		.loc 1 306 18 is_stmt 0 view .LVU295
 1008 001a 0023     		movs	r3, #0
 1009 001c 8362     		str	r3, [r0, #40]
 1010              		.loc 1 307 5 is_stmt 1 view .LVU296
 1011              		.loc 1 307 12 is_stmt 0 view .LVU297
 1012 001e FFF7FEBF 		b	chSchReadyI
 1013              	.LVL46:
 1014              	.L32:
 1015              		.loc 1 303 23 discriminator 1 view .LVU298
 1016 0022 836A     		ldr	r3, [r0, #40]
 1017              		.loc 1 302 40 discriminator 1 view .LVU299
 1018 0024 1942     		tst	r1, r3
 1019 0026 F8D1     		bne	.L30
 1020 0028 7047     		bx	lr
 1021              		.cfi_endproc
 1022              	.LFE343:
 1023              		.size	chEvtSignalI, .-chEvtSignalI
 1024 002a 00BF     		.section	.text.chEvtSignal,"ax",%progbits
 1025              		.align	1
 1026              		.p2align 4,,15
ARM GAS  /tmp/cc6nZmxe.s 			page 19


 1027              		.global	chEvtSignal
 1028              		.syntax unified
 1029              		.thumb
 1030              		.thumb_func
 1031              		.fpu softvfp
 1032              		.type	chEvtSignal, %function
 1033              	chEvtSignal:
 1034              	.LVL47:
 1035              	.LFB344:
 1036              		.loc 1 319 52 is_stmt 1 view -0
 1037              		.cfi_startproc
 1038              		@ args = 0, pretend = 0, frame = 0
 1039              		@ frame_needed = 0, uses_anonymous_args = 0
 1040              		.loc 1 321 3 view .LVU301
 1041              		.loc 1 321 3 view .LVU302
 1042              		.loc 1 321 3 view .LVU303
 1043              		.loc 1 323 3 view .LVU304
 1044              	.LBB339:
 1045              	.LBI339:
 1046              		.loc 3 407 20 view .LVU305
 1047              	.LBE339:
 1048              		.loc 3 409 3 view .LVU306
 1049              	.LBB347:
 1050              	.LBB340:
 1051              	.LBI340:
 1052              		.loc 4 806 27 view .LVU307
 1053              	.LBE340:
 1054              	.LBE347:
 1055              		.loc 4 814 3 view .LVU308
 1056              	.LBB348:
 1057              	.LBB345:
 1058              	.LBB341:
 1059              	.LBI341:
 1060              		.loc 5 491 27 view .LVU309
 1061              	.LBB342:
 1062              		.loc 5 493 3 view .LVU310
 1063              	.LBE342:
 1064              	.LBE341:
 1065              	.LBE345:
 1066              	.LBE348:
 1067              		.loc 1 319 52 is_stmt 0 view .LVU311
 1068 0000 08B5     		push	{r3, lr}
 1069              		.cfi_def_cfa_offset 8
 1070              		.cfi_offset 3, -8
 1071              		.cfi_offset 14, -4
 1072              	.LBB349:
 1073              	.LBB346:
 1074              	.LBB344:
 1075              	.LBB343:
 1076              		.loc 5 493 3 view .LVU312
 1077 0002 3023     		movs	r3, #48
 1078              		.syntax unified
 1079              	@ 493 "../ChibiOS/os/common/ext/ARM/CMSIS/Core/Include/cmsis_gcc.h" 1
 1080 0004 83F31188 		MSR basepri, r3
 1081              	@ 0 "" 2
 1082              	.LVL48:
 1083              		.loc 5 493 3 view .LVU313
ARM GAS  /tmp/cc6nZmxe.s 			page 20


 1084              		.thumb
 1085              		.syntax unified
 1086              	.LBE343:
 1087              	.LBE344:
 1088              	.LBE346:
 1089              	.LBE349:
 1090              		.loc 3 410 35 is_stmt 1 view .LVU314
 1091              		.loc 3 411 21 view .LVU315
 1092              		.loc 1 324 3 view .LVU316
 1093              	.LBB350:
 1094              	.LBI350:
 1095              		.loc 1 295 6 view .LVU317
 1096              	.LBB351:
 1097              		.loc 1 297 21 view .LVU318
 1098              		.loc 1 298 3 view .LVU319
 1099              		.loc 1 298 3 view .LVU320
 1100              		.loc 1 298 3 view .LVU321
 1101              		.loc 1 300 3 view .LVU322
 1102              		.loc 1 300 16 is_stmt 0 view .LVU323
 1103 0008 826B     		ldr	r2, [r0, #56]
 1104              		.loc 1 302 11 view .LVU324
 1105 000a 90F82430 		ldrb	r3, [r0, #36]	@ zero_extendqisi2
 1106              		.loc 1 300 16 view .LVU325
 1107 000e 1143     		orrs	r1, r1, r2
 1108              	.LVL49:
 1109              		.loc 1 302 6 view .LVU326
 1110 0010 0A2B     		cmp	r3, #10
 1111              		.loc 1 300 16 view .LVU327
 1112 0012 8163     		str	r1, [r0, #56]
 1113              		.loc 1 302 3 is_stmt 1 view .LVU328
 1114              		.loc 1 302 6 is_stmt 0 view .LVU329
 1115 0014 14D0     		beq	.L40
 1116              		.loc 1 303 59 view .LVU330
 1117 0016 0B2B     		cmp	r3, #11
 1118 0018 05D0     		beq	.L41
 1119              	.L37:
 1120              	.LVL50:
 1121              		.loc 1 303 59 view .LVU331
 1122              	.LBE351:
 1123              	.LBE350:
 1124              		.loc 1 325 3 is_stmt 1 view .LVU332
 1125 001a FFF7FEFF 		bl	chSchRescheduleS
 1126              	.LVL51:
 1127              		.loc 1 326 3 view .LVU333
 1128              	.LBB354:
 1129              	.LBI354:
 1130              		.loc 3 421 20 view .LVU334
 1131              	.LBB355:
 1132              		.loc 3 423 23 view .LVU335
 1133              		.loc 3 424 34 view .LVU336
 1134              		.loc 3 430 3 view .LVU337
 1135              		.loc 3 430 3 view .LVU338
 1136              		.loc 3 430 3 view .LVU339
 1137              		.loc 3 434 3 view .LVU340
 1138              	.LBB356:
 1139              	.LBI356:
 1140              		.loc 4 830 27 view .LVU341
ARM GAS  /tmp/cc6nZmxe.s 			page 21


 1141              	.LBE356:
 1142              	.LBE355:
 1143              	.LBE354:
 1144              		.loc 4 833 3 view .LVU342
 1145              	.LBB367:
 1146              	.LBB364:
 1147              	.LBB361:
 1148              	.LBB357:
 1149              	.LBI357:
 1150              		.loc 5 491 27 view .LVU343
 1151              	.LBB358:
 1152              		.loc 5 493 3 view .LVU344
 1153 001e 0023     		movs	r3, #0
 1154              		.syntax unified
 1155              	@ 493 "../ChibiOS/os/common/ext/ARM/CMSIS/Core/Include/cmsis_gcc.h" 1
 1156 0020 83F31188 		MSR basepri, r3
 1157              	@ 0 "" 2
 1158              	.LVL52:
 1159              		.loc 5 493 3 is_stmt 0 view .LVU345
 1160              		.thumb
 1161              		.syntax unified
 1162              	.LBE358:
 1163              	.LBE357:
 1164              	.LBE361:
 1165              	.LBE364:
 1166              	.LBE367:
 1167              		.loc 1 327 1 view .LVU346
 1168 0024 08BD     		pop	{r3, pc}
 1169              	.LVL53:
 1170              	.L41:
 1171              	.LBB368:
 1172              	.LBB352:
 1173              		.loc 1 305 30 view .LVU347
 1174 0026 836A     		ldr	r3, [r0, #40]
 1175              		.loc 1 304 41 view .LVU348
 1176 0028 8B43     		bics	r3, r3, r1
 1177 002a F6D1     		bne	.L37
 1178              		.loc 1 306 5 is_stmt 1 view .LVU349
 1179              		.loc 1 306 18 is_stmt 0 view .LVU350
 1180 002c 0023     		movs	r3, #0
 1181 002e 8362     		str	r3, [r0, #40]
 1182              		.loc 1 307 5 is_stmt 1 view .LVU351
 1183              		.loc 1 307 12 is_stmt 0 view .LVU352
 1184 0030 FFF7FEFF 		bl	chSchReadyI
 1185              	.LVL54:
 1186              	.L42:
 1187              		.loc 1 307 12 view .LVU353
 1188              	.LBE352:
 1189              	.LBE368:
 1190              		.loc 1 325 3 is_stmt 1 view .LVU354
 1191 0034 FFF7FEFF 		bl	chSchRescheduleS
 1192              	.LVL55:
 1193              		.loc 1 326 3 view .LVU355
 1194              	.LBB369:
 1195              		.loc 3 421 20 view .LVU356
 1196              	.LBB365:
 1197              		.loc 3 423 23 view .LVU357
ARM GAS  /tmp/cc6nZmxe.s 			page 22


 1198              		.loc 3 424 34 view .LVU358
 1199              		.loc 3 430 3 view .LVU359
 1200              		.loc 3 430 3 view .LVU360
 1201              		.loc 3 430 3 view .LVU361
 1202              		.loc 3 434 3 view .LVU362
 1203              	.LBB362:
 1204              		.loc 4 830 27 view .LVU363
 1205              	.LBE362:
 1206              	.LBE365:
 1207              	.LBE369:
 1208              		.loc 4 833 3 view .LVU364
 1209              	.LBB370:
 1210              	.LBB366:
 1211              	.LBB363:
 1212              	.LBB360:
 1213              		.loc 5 491 27 view .LVU365
 1214              	.LBB359:
 1215              		.loc 5 493 3 view .LVU366
 1216 0038 0023     		movs	r3, #0
 1217              		.syntax unified
 1218              	@ 493 "../ChibiOS/os/common/ext/ARM/CMSIS/Core/Include/cmsis_gcc.h" 1
 1219 003a 83F31188 		MSR basepri, r3
 1220              	@ 0 "" 2
 1221              	.LVL56:
 1222              		.loc 5 493 3 is_stmt 0 view .LVU367
 1223              		.thumb
 1224              		.syntax unified
 1225              	.LBE359:
 1226              	.LBE360:
 1227              	.LBE363:
 1228              	.LBE366:
 1229              	.LBE370:
 1230              		.loc 1 327 1 view .LVU368
 1231 003e 08BD     		pop	{r3, pc}
 1232              	.LVL57:
 1233              	.L40:
 1234              	.LBB371:
 1235              	.LBB353:
 1236              		.loc 1 303 23 view .LVU369
 1237 0040 836A     		ldr	r3, [r0, #40]
 1238              		.loc 1 302 40 view .LVU370
 1239 0042 1942     		tst	r1, r3
 1240 0044 E9D0     		beq	.L37
 1241              		.loc 1 306 5 is_stmt 1 view .LVU371
 1242              		.loc 1 306 18 is_stmt 0 view .LVU372
 1243 0046 0023     		movs	r3, #0
 1244 0048 8362     		str	r3, [r0, #40]
 1245              		.loc 1 307 5 is_stmt 1 view .LVU373
 1246              		.loc 1 307 12 is_stmt 0 view .LVU374
 1247 004a FFF7FEFF 		bl	chSchReadyI
 1248              	.LVL58:
 1249              		.loc 1 307 12 view .LVU375
 1250 004e F1E7     		b	.L42
 1251              	.LBE353:
 1252              	.LBE371:
 1253              		.cfi_endproc
 1254              	.LFE344:
ARM GAS  /tmp/cc6nZmxe.s 			page 23


 1255              		.size	chEvtSignal, .-chEvtSignal
 1256              		.section	.text.chEvtBroadcastFlagsI,"ax",%progbits
 1257              		.align	1
 1258              		.p2align 4,,15
 1259              		.global	chEvtBroadcastFlagsI
 1260              		.syntax unified
 1261              		.thumb
 1262              		.thumb_func
 1263              		.fpu softvfp
 1264              		.type	chEvtBroadcastFlagsI, %function
 1265              	chEvtBroadcastFlagsI:
 1266              	.LVL59:
 1267              	.LFB345:
 1268              		.loc 1 346 68 is_stmt 1 view -0
 1269              		.cfi_startproc
 1270              		@ args = 0, pretend = 0, frame = 0
 1271              		@ frame_needed = 0, uses_anonymous_args = 0
 1272              		.loc 1 347 3 view .LVU377
 1273              		.loc 1 349 21 view .LVU378
 1274              		.loc 1 350 3 view .LVU379
 1275              		.loc 1 350 3 view .LVU380
 1276              		.loc 1 350 3 view .LVU381
 1277              		.loc 1 352 3 view .LVU382
 1278              		.loc 1 346 68 is_stmt 0 view .LVU383
 1279 0000 F8B5     		push	{r3, r4, r5, r6, r7, lr}
 1280              		.cfi_def_cfa_offset 24
 1281              		.cfi_offset 3, -24
 1282              		.cfi_offset 4, -20
 1283              		.cfi_offset 5, -16
 1284              		.cfi_offset 6, -12
 1285              		.cfi_offset 7, -8
 1286              		.cfi_offset 14, -4
 1287              		.loc 1 352 7 view .LVU384
 1288 0002 0468     		ldr	r4, [r0]
 1289              	.LVL60:
 1290              		.loc 1 354 3 is_stmt 1 view .LVU385
 1291              		.loc 1 354 9 view .LVU386
 1292 0004 A042     		cmp	r0, r4
 1293 0006 21D0     		beq	.L43
 1294 0008 0746     		mov	r7, r0
 1295 000a 0D46     		mov	r5, r1
 1296              	.LBB374:
 1297              	.LBB375:
 1298              		.loc 1 306 18 is_stmt 0 view .LVU387
 1299 000c 0026     		movs	r6, #0
 1300 000e 04E0     		b	.L50
 1301              	.LVL61:
 1302              	.L47:
 1303              		.loc 1 303 59 view .LVU388
 1304 0010 0B2A     		cmp	r2, #11
 1305 0012 1CD0     		beq	.L56
 1306              	.L46:
 1307              		.loc 1 303 59 view .LVU389
 1308              	.LBE375:
 1309              	.LBE374:
 1310              		.loc 1 363 5 is_stmt 1 view .LVU390
 1311              		.loc 1 363 9 is_stmt 0 view .LVU391
ARM GAS  /tmp/cc6nZmxe.s 			page 24


 1312 0014 2468     		ldr	r4, [r4]
 1313              	.LVL62:
 1314              		.loc 1 354 9 is_stmt 1 view .LVU392
 1315 0016 A742     		cmp	r7, r4
 1316 0018 18D0     		beq	.L43
 1317              	.L50:
 1318              		.loc 1 356 5 view .LVU393
 1319              		.loc 1 361 7 view .LVU394
 1320              		.loc 1 356 16 is_stmt 0 view .LVU395
 1321 001a E368     		ldr	r3, [r4, #12]
 1322 001c 2B43     		orrs	r3, r3, r5
 1323 001e E360     		str	r3, [r4, #12]
 1324              		.loc 1 359 5 is_stmt 1 view .LVU396
 1325              		.loc 1 359 8 is_stmt 0 view .LVU397
 1326 0020 15B1     		cbz	r5, .L45
 1327              		.loc 1 360 17 discriminator 1 view .LVU398
 1328 0022 2369     		ldr	r3, [r4, #16]
 1329              		.loc 1 359 36 discriminator 1 view .LVU399
 1330 0024 1D42     		tst	r5, r3
 1331 0026 F5D0     		beq	.L46
 1332              	.L45:
 1333              	.LBB378:
 1334              	.LBB376:
 1335              		.loc 1 300 16 view .LVU400
 1336 0028 D4E90103 		ldrd	r0, r3, [r4, #4]
 1337 002c 816B     		ldr	r1, [r0, #56]
 1338              		.loc 1 302 11 view .LVU401
 1339 002e 90F82420 		ldrb	r2, [r0, #36]	@ zero_extendqisi2
 1340              		.loc 1 300 16 view .LVU402
 1341 0032 0B43     		orrs	r3, r3, r1
 1342              		.loc 1 302 6 view .LVU403
 1343 0034 0A2A     		cmp	r2, #10
 1344              		.loc 1 300 16 view .LVU404
 1345 0036 8363     		str	r3, [r0, #56]
 1346              		.loc 1 302 3 is_stmt 1 view .LVU405
 1347              		.loc 1 302 6 is_stmt 0 view .LVU406
 1348 0038 EAD1     		bne	.L47
 1349              		.loc 1 303 23 view .LVU407
 1350 003a 826A     		ldr	r2, [r0, #40]
 1351              		.loc 1 302 40 view .LVU408
 1352 003c 1342     		tst	r3, r2
 1353 003e E9D0     		beq	.L46
 1354              	.L48:
 1355              		.loc 1 306 5 is_stmt 1 view .LVU409
 1356              		.loc 1 306 18 is_stmt 0 view .LVU410
 1357 0040 8662     		str	r6, [r0, #40]
 1358              		.loc 1 307 5 is_stmt 1 view .LVU411
 1359              		.loc 1 307 12 is_stmt 0 view .LVU412
 1360 0042 FFF7FEFF 		bl	chSchReadyI
 1361              	.LVL63:
 1362              	.LBE376:
 1363              	.LBE378:
 1364              		.loc 1 363 5 is_stmt 1 view .LVU413
 1365              		.loc 1 363 9 is_stmt 0 view .LVU414
 1366 0046 2468     		ldr	r4, [r4]
 1367              	.LVL64:
 1368              		.loc 1 354 9 is_stmt 1 view .LVU415
ARM GAS  /tmp/cc6nZmxe.s 			page 25


 1369 0048 A742     		cmp	r7, r4
 1370 004a E6D1     		bne	.L50
 1371              	.LVL65:
 1372              	.L43:
 1373              		.loc 1 365 1 is_stmt 0 view .LVU416
 1374 004c F8BD     		pop	{r3, r4, r5, r6, r7, pc}
 1375              	.LVL66:
 1376              	.L56:
 1377              	.LBB379:
 1378              	.LBB377:
 1379              		.loc 1 305 30 view .LVU417
 1380 004e 826A     		ldr	r2, [r0, #40]
 1381              		.loc 1 304 41 view .LVU418
 1382 0050 32EA0303 		bics	r3, r2, r3
 1383 0054 DED1     		bne	.L46
 1384 0056 F3E7     		b	.L48
 1385              	.LBE377:
 1386              	.LBE379:
 1387              		.cfi_endproc
 1388              	.LFE345:
 1389              		.size	chEvtBroadcastFlagsI, .-chEvtBroadcastFlagsI
 1390              		.section	.text.chEvtBroadcastFlags,"ax",%progbits
 1391              		.align	1
 1392              		.p2align 4,,15
 1393              		.global	chEvtBroadcastFlags
 1394              		.syntax unified
 1395              		.thumb
 1396              		.thumb_func
 1397              		.fpu softvfp
 1398              		.type	chEvtBroadcastFlags, %function
 1399              	chEvtBroadcastFlags:
 1400              	.LVL67:
 1401              	.LFB346:
 1402              		.loc 1 380 67 is_stmt 1 view -0
 1403              		.cfi_startproc
 1404              		@ args = 0, pretend = 0, frame = 0
 1405              		@ frame_needed = 0, uses_anonymous_args = 0
 1406              		.loc 1 382 3 view .LVU420
 1407              	.LBB380:
 1408              	.LBI380:
 1409              		.loc 3 407 20 view .LVU421
 1410              	.LBE380:
 1411              		.loc 3 409 3 view .LVU422
 1412              	.LBB388:
 1413              	.LBB381:
 1414              	.LBI381:
 1415              		.loc 4 806 27 view .LVU423
 1416              	.LBE381:
 1417              	.LBE388:
 1418              		.loc 4 814 3 view .LVU424
 1419              	.LBB389:
 1420              	.LBB386:
 1421              	.LBB382:
 1422              	.LBI382:
 1423              		.loc 5 491 27 view .LVU425
 1424              	.LBB383:
 1425              		.loc 5 493 3 view .LVU426
ARM GAS  /tmp/cc6nZmxe.s 			page 26


 1426              	.LBE383:
 1427              	.LBE382:
 1428              	.LBE386:
 1429              	.LBE389:
 1430              		.loc 1 380 67 is_stmt 0 view .LVU427
 1431 0000 08B5     		push	{r3, lr}
 1432              		.cfi_def_cfa_offset 8
 1433              		.cfi_offset 3, -8
 1434              		.cfi_offset 14, -4
 1435              	.LBB390:
 1436              	.LBB387:
 1437              	.LBB385:
 1438              	.LBB384:
 1439              		.loc 5 493 3 view .LVU428
 1440 0002 3023     		movs	r3, #48
 1441              		.syntax unified
 1442              	@ 493 "../ChibiOS/os/common/ext/ARM/CMSIS/Core/Include/cmsis_gcc.h" 1
 1443 0004 83F31188 		MSR basepri, r3
 1444              	@ 0 "" 2
 1445              	.LVL68:
 1446              		.loc 5 493 3 view .LVU429
 1447              		.thumb
 1448              		.syntax unified
 1449              	.LBE384:
 1450              	.LBE385:
 1451              	.LBE387:
 1452              	.LBE390:
 1453              		.loc 3 410 35 is_stmt 1 view .LVU430
 1454              		.loc 3 411 21 view .LVU431
 1455              		.loc 1 383 3 view .LVU432
 1456 0008 FFF7FEFF 		bl	chEvtBroadcastFlagsI
 1457              	.LVL69:
 1458              		.loc 1 384 3 view .LVU433
 1459 000c FFF7FEFF 		bl	chSchRescheduleS
 1460              	.LVL70:
 1461              		.loc 1 385 3 view .LVU434
 1462              	.LBB391:
 1463              	.LBI391:
 1464              		.loc 3 421 20 view .LVU435
 1465              	.LBB392:
 1466              		.loc 3 423 23 view .LVU436
 1467              		.loc 3 424 34 view .LVU437
 1468              		.loc 3 430 3 view .LVU438
 1469              		.loc 3 430 3 view .LVU439
 1470              		.loc 3 430 3 view .LVU440
 1471              		.loc 3 434 3 view .LVU441
 1472              	.LBB393:
 1473              	.LBI393:
 1474              		.loc 4 830 27 view .LVU442
 1475              	.LBE393:
 1476              	.LBE392:
 1477              	.LBE391:
 1478              		.loc 4 833 3 view .LVU443
 1479              	.LBB398:
 1480              	.LBB397:
 1481              	.LBB396:
 1482              	.LBB394:
ARM GAS  /tmp/cc6nZmxe.s 			page 27


 1483              	.LBI394:
 1484              		.loc 5 491 27 view .LVU444
 1485              	.LBB395:
 1486              		.loc 5 493 3 view .LVU445
 1487 0010 0023     		movs	r3, #0
 1488              		.syntax unified
 1489              	@ 493 "../ChibiOS/os/common/ext/ARM/CMSIS/Core/Include/cmsis_gcc.h" 1
 1490 0012 83F31188 		MSR basepri, r3
 1491              	@ 0 "" 2
 1492              	.LVL71:
 1493              		.loc 5 493 3 is_stmt 0 view .LVU446
 1494              		.thumb
 1495              		.syntax unified
 1496              	.LBE395:
 1497              	.LBE394:
 1498              	.LBE396:
 1499              	.LBE397:
 1500              	.LBE398:
 1501              		.loc 1 386 1 view .LVU447
 1502 0016 08BD     		pop	{r3, pc}
 1503              		.cfi_endproc
 1504              	.LFE346:
 1505              		.size	chEvtBroadcastFlags, .-chEvtBroadcastFlags
 1506              		.section	.text.chEvtDispatch,"ax",%progbits
 1507              		.align	1
 1508              		.p2align 4,,15
 1509              		.global	chEvtDispatch
 1510              		.syntax unified
 1511              		.thumb
 1512              		.thumb_func
 1513              		.fpu softvfp
 1514              		.type	chEvtDispatch, %function
 1515              	chEvtDispatch:
 1516              	.LVL72:
 1517              	.LFB347:
 1518              		.loc 1 397 69 is_stmt 1 view -0
 1519              		.cfi_startproc
 1520              		@ args = 0, pretend = 0, frame = 0
 1521              		@ frame_needed = 0, uses_anonymous_args = 0
 1522              		.loc 1 398 3 view .LVU449
 1523              		.loc 1 400 3 view .LVU450
 1524              		.loc 1 400 3 view .LVU451
 1525              		.loc 1 400 3 view .LVU452
 1526              		.loc 1 402 3 view .LVU453
 1527              		.loc 1 403 3 view .LVU454
 1528              		.loc 1 403 9 view .LVU455
 1529 0000 B9B1     		cbz	r1, .L71
 1530              		.loc 1 397 69 is_stmt 0 view .LVU456
 1531 0002 F8B5     		push	{r3, r4, r5, r6, r7, lr}
 1532              		.cfi_def_cfa_offset 24
 1533              		.cfi_offset 3, -24
 1534              		.cfi_offset 4, -20
 1535              		.cfi_offset 5, -16
 1536              		.cfi_offset 6, -12
 1537              		.cfi_offset 7, -8
 1538              		.cfi_offset 14, -4
 1539 0004 0746     		mov	r7, r0
ARM GAS  /tmp/cc6nZmxe.s 			page 28


 1540 0006 0D46     		mov	r5, r1
 1541              		.loc 1 402 7 view .LVU457
 1542 0008 0024     		movs	r4, #0
 1543              		.loc 1 406 18 view .LVU458
 1544 000a 0126     		movs	r6, #1
 1545              	.LVL73:
 1546              	.L62:
 1547              		.loc 1 404 5 is_stmt 1 view .LVU459
 1548              		.loc 1 405 7 view .LVU460
 1549              		.loc 1 405 7 view .LVU461
 1550              		.loc 1 405 7 view .LVU462
 1551              		.loc 1 406 7 view .LVU463
 1552              		.loc 1 409 5 view .LVU464
 1553              		.loc 1 404 36 is_stmt 0 view .LVU465
 1554 000c 25FA04F3 		lsr	r3, r5, r4
 1555              		.loc 1 404 8 view .LVU466
 1556 0010 13F0010F 		tst	r3, #1
 1557              		.loc 1 406 18 view .LVU467
 1558 0014 06FA04F2 		lsl	r2, r6, r4
 1559              		.loc 1 407 7 view .LVU468
 1560 0018 2046     		mov	r0, r4
 1561              		.loc 1 404 8 view .LVU469
 1562 001a 08D0     		beq	.L61
 1563              		.loc 1 407 7 discriminator 5 view .LVU470
 1564 001c 57F82430 		ldr	r3, [r7, r4, lsl #2]
 1565              		.loc 1 406 14 discriminator 5 view .LVU471
 1566 0020 25EA0205 		bic	r5, r5, r2
 1567              	.LVL74:
 1568              		.loc 1 407 7 is_stmt 1 discriminator 5 view .LVU472
 1569              		.loc 1 409 8 is_stmt 0 discriminator 5 view .LVU473
 1570 0024 0134     		adds	r4, r4, #1
 1571              	.LVL75:
 1572              		.loc 1 407 7 discriminator 5 view .LVU474
 1573 0026 9847     		blx	r3
 1574              	.LVL76:
 1575              		.loc 1 409 5 is_stmt 1 discriminator 5 view .LVU475
 1576              		.loc 1 403 9 discriminator 5 view .LVU476
 1577 0028 002D     		cmp	r5, #0
 1578 002a EFD1     		bne	.L62
 1579              		.loc 1 411 1 is_stmt 0 view .LVU477
 1580 002c F8BD     		pop	{r3, r4, r5, r6, r7, pc}
 1581              	.LVL77:
 1582              	.L61:
 1583              		.loc 1 409 8 view .LVU478
 1584 002e 0134     		adds	r4, r4, #1
 1585              	.LVL78:
 1586              		.loc 1 403 9 is_stmt 1 view .LVU479
 1587              		.loc 1 403 9 is_stmt 0 view .LVU480
 1588 0030 ECE7     		b	.L62
 1589              	.LVL79:
 1590              	.L71:
 1591              		.cfi_def_cfa_offset 0
 1592              		.cfi_restore 3
 1593              		.cfi_restore 4
 1594              		.cfi_restore 5
 1595              		.cfi_restore 6
 1596              		.cfi_restore 7
ARM GAS  /tmp/cc6nZmxe.s 			page 29


 1597              		.cfi_restore 14
 1598              		.loc 1 403 9 view .LVU481
 1599 0032 7047     		bx	lr
 1600              		.cfi_endproc
 1601              	.LFE347:
 1602              		.size	chEvtDispatch, .-chEvtDispatch
 1603              		.section	.text.chEvtWaitOne,"ax",%progbits
 1604              		.align	1
 1605              		.p2align 4,,15
 1606              		.global	chEvtWaitOne
 1607              		.syntax unified
 1608              		.thumb
 1609              		.thumb_func
 1610              		.fpu softvfp
 1611              		.type	chEvtWaitOne, %function
 1612              	chEvtWaitOne:
 1613              	.LVL80:
 1614              	.LFB348:
 1615              		.loc 1 432 46 is_stmt 1 view -0
 1616              		.cfi_startproc
 1617              		@ args = 0, pretend = 0, frame = 0
 1618              		@ frame_needed = 0, uses_anonymous_args = 0
 1619              		.loc 1 433 3 view .LVU483
 1620              	.LBB399:
 1621              	.LBI399:
 1622              		.loc 2 341 25 view .LVU484
 1623              	.LBB400:
 1624              		.loc 2 343 3 view .LVU485
 1625              	.LBE400:
 1626              	.LBE399:
 1627              		.loc 1 432 46 is_stmt 0 view .LVU486
 1628 0000 38B5     		push	{r3, r4, r5, lr}
 1629              		.cfi_def_cfa_offset 16
 1630              		.cfi_offset 3, -16
 1631              		.cfi_offset 4, -12
 1632              		.cfi_offset 5, -8
 1633              		.cfi_offset 14, -4
 1634              	.LBB402:
 1635              	.LBB401:
 1636              		.loc 2 343 10 view .LVU487
 1637 0002 0D4B     		ldr	r3, .L78
 1638 0004 DD68     		ldr	r5, [r3, #12]
 1639              	.LVL81:
 1640              		.loc 2 343 10 view .LVU488
 1641              	.LBE401:
 1642              	.LBE402:
 1643              		.loc 1 434 3 is_stmt 1 view .LVU489
 1644              		.loc 1 436 3 view .LVU490
 1645              	.LBB403:
 1646              	.LBI403:
 1647              		.loc 3 407 20 view .LVU491
 1648              	.LBE403:
 1649              		.loc 3 409 3 view .LVU492
 1650              	.LBB408:
 1651              	.LBB404:
 1652              	.LBI404:
 1653              		.loc 4 806 27 view .LVU493
ARM GAS  /tmp/cc6nZmxe.s 			page 30


 1654              	.LBE404:
 1655              	.LBE408:
 1656              		.loc 4 814 3 view .LVU494
 1657              	.LBB409:
 1658              	.LBB407:
 1659              	.LBB405:
 1660              	.LBI405:
 1661              		.loc 5 491 27 view .LVU495
 1662              	.LBB406:
 1663              		.loc 5 493 3 view .LVU496
 1664 0006 3023     		movs	r3, #48
 1665              		.syntax unified
 1666              	@ 493 "../ChibiOS/os/common/ext/ARM/CMSIS/Core/Include/cmsis_gcc.h" 1
 1667 0008 83F31188 		MSR basepri, r3
 1668              	@ 0 "" 2
 1669              	.LVL82:
 1670              		.loc 5 493 3 is_stmt 0 view .LVU497
 1671              		.thumb
 1672              		.syntax unified
 1673              	.LBE406:
 1674              	.LBE405:
 1675              	.LBE407:
 1676              	.LBE409:
 1677              		.loc 3 410 35 is_stmt 1 view .LVU498
 1678              		.loc 3 411 21 view .LVU499
 1679              		.loc 1 437 3 view .LVU500
 1680              		.loc 1 437 13 is_stmt 0 view .LVU501
 1681 000c AB6B     		ldr	r3, [r5, #56]
 1682              	.LVL83:
 1683              		.loc 1 438 3 is_stmt 1 view .LVU502
 1684              		.loc 1 438 6 is_stmt 0 view .LVU503
 1685 000e 13EA0002 		ands	r2, r3, r0
 1686 0012 08D0     		beq	.L77
 1687              	.LVL84:
 1688              	.L75:
 1689              		.loc 1 443 3 is_stmt 1 view .LVU504
 1690              		.loc 1 443 5 is_stmt 0 view .LVU505
 1691 0014 5042     		rsbs	r0, r2, #0
 1692 0016 1040     		ands	r0, r0, r2
 1693              	.LVL85:
 1694              		.loc 1 444 3 is_stmt 1 view .LVU506
 1695              		.loc 1 444 20 is_stmt 0 view .LVU507
 1696 0018 23EA0003 		bic	r3, r3, r0
 1697 001c AB63     		str	r3, [r5, #56]
 1698              		.loc 1 445 3 is_stmt 1 view .LVU508
 1699              	.LBB410:
 1700              	.LBI410:
 1701              		.loc 3 421 20 view .LVU509
 1702              	.LBB411:
 1703              		.loc 3 423 23 view .LVU510
 1704              		.loc 3 424 34 view .LVU511
 1705              		.loc 3 430 3 view .LVU512
 1706              		.loc 3 430 3 view .LVU513
 1707              		.loc 3 430 3 view .LVU514
 1708              		.loc 3 434 3 view .LVU515
 1709              	.LBB412:
 1710              	.LBI412:
ARM GAS  /tmp/cc6nZmxe.s 			page 31


 1711              		.loc 4 830 27 view .LVU516
 1712              	.LBE412:
 1713              	.LBE411:
 1714              	.LBE410:
 1715              		.loc 4 833 3 view .LVU517
 1716              	.LVL86:
 1717              	.LBB417:
 1718              	.LBB416:
 1719              	.LBB415:
 1720              	.LBB413:
 1721              	.LBI413:
 1722              		.loc 5 491 27 view .LVU518
 1723              	.LBB414:
 1724              		.loc 5 493 3 view .LVU519
 1725 001e 0023     		movs	r3, #0
 1726              		.syntax unified
 1727              	@ 493 "../ChibiOS/os/common/ext/ARM/CMSIS/Core/Include/cmsis_gcc.h" 1
 1728 0020 83F31188 		MSR basepri, r3
 1729              	@ 0 "" 2
 1730              	.LVL87:
 1731              		.loc 5 493 3 is_stmt 0 view .LVU520
 1732              		.thumb
 1733              		.syntax unified
 1734              	.LBE414:
 1735              	.LBE413:
 1736              	.LBE415:
 1737              	.LBE416:
 1738              	.LBE417:
 1739              		.loc 1 447 3 is_stmt 1 view .LVU521
 1740              		.loc 1 448 1 is_stmt 0 view .LVU522
 1741 0024 38BD     		pop	{r3, r4, r5, pc}
 1742              	.LVL88:
 1743              	.L77:
 1744              		.loc 1 448 1 view .LVU523
 1745 0026 0446     		mov	r4, r0
 1746              		.loc 1 439 5 is_stmt 1 view .LVU524
 1747              		.loc 1 439 22 is_stmt 0 view .LVU525
 1748 0028 A862     		str	r0, [r5, #40]
 1749              		.loc 1 440 5 is_stmt 1 view .LVU526
 1750 002a 0A20     		movs	r0, #10
 1751              	.LVL89:
 1752              		.loc 1 440 5 is_stmt 0 view .LVU527
 1753 002c FFF7FEFF 		bl	chSchGoSleepS
 1754              	.LVL90:
 1755              		.loc 1 441 5 is_stmt 1 view .LVU528
 1756              		.loc 1 441 15 is_stmt 0 view .LVU529
 1757 0030 AB6B     		ldr	r3, [r5, #56]
 1758              		.loc 1 441 7 view .LVU530
 1759 0032 03EA0402 		and	r2, r3, r4
 1760              	.LVL91:
 1761              		.loc 1 441 7 view .LVU531
 1762 0036 EDE7     		b	.L75
 1763              	.L79:
 1764              		.align	2
 1765              	.L78:
 1766 0038 00000000 		.word	ch0
 1767              		.cfi_endproc
ARM GAS  /tmp/cc6nZmxe.s 			page 32


 1768              	.LFE348:
 1769              		.size	chEvtWaitOne, .-chEvtWaitOne
 1770              		.section	.text.chEvtWaitAny,"ax",%progbits
 1771              		.align	1
 1772              		.p2align 4,,15
 1773              		.global	chEvtWaitAny
 1774              		.syntax unified
 1775              		.thumb
 1776              		.thumb_func
 1777              		.fpu softvfp
 1778              		.type	chEvtWaitAny, %function
 1779              	chEvtWaitAny:
 1780              	.LVL92:
 1781              	.LFB349:
 1782              		.loc 1 462 46 is_stmt 1 view -0
 1783              		.cfi_startproc
 1784              		@ args = 0, pretend = 0, frame = 0
 1785              		@ frame_needed = 0, uses_anonymous_args = 0
 1786              		.loc 1 463 3 view .LVU533
 1787              	.LBB418:
 1788              	.LBI418:
 1789              		.loc 2 341 25 view .LVU534
 1790              	.LBB419:
 1791              		.loc 2 343 3 view .LVU535
 1792              	.LBE419:
 1793              	.LBE418:
 1794              		.loc 1 462 46 is_stmt 0 view .LVU536
 1795 0000 38B5     		push	{r3, r4, r5, lr}
 1796              		.cfi_def_cfa_offset 16
 1797              		.cfi_offset 3, -16
 1798              		.cfi_offset 4, -12
 1799              		.cfi_offset 5, -8
 1800              		.cfi_offset 14, -4
 1801              	.LBB422:
 1802              	.LBB420:
 1803              		.loc 2 343 10 view .LVU537
 1804 0002 0C4B     		ldr	r3, .L84
 1805              	.LBE420:
 1806              	.LBE422:
 1807              		.loc 1 462 46 view .LVU538
 1808 0004 0446     		mov	r4, r0
 1809              	.LBB423:
 1810              	.LBB421:
 1811              		.loc 2 343 10 view .LVU539
 1812 0006 DD68     		ldr	r5, [r3, #12]
 1813              	.LVL93:
 1814              		.loc 2 343 10 view .LVU540
 1815              	.LBE421:
 1816              	.LBE423:
 1817              		.loc 1 464 3 is_stmt 1 view .LVU541
 1818              		.loc 1 466 3 view .LVU542
 1819              	.LBB424:
 1820              	.LBI424:
 1821              		.loc 3 407 20 view .LVU543
 1822              	.LBE424:
 1823              		.loc 3 409 3 view .LVU544
 1824              	.LBB429:
ARM GAS  /tmp/cc6nZmxe.s 			page 33


 1825              	.LBB425:
 1826              	.LBI425:
 1827              		.loc 4 806 27 view .LVU545
 1828              	.LBE425:
 1829              	.LBE429:
 1830              		.loc 4 814 3 view .LVU546
 1831              	.LBB430:
 1832              	.LBB428:
 1833              	.LBB426:
 1834              	.LBI426:
 1835              		.loc 5 491 27 view .LVU547
 1836              	.LBB427:
 1837              		.loc 5 493 3 view .LVU548
 1838 0008 3023     		movs	r3, #48
 1839              		.syntax unified
 1840              	@ 493 "../ChibiOS/os/common/ext/ARM/CMSIS/Core/Include/cmsis_gcc.h" 1
 1841 000a 83F31188 		MSR basepri, r3
 1842              	@ 0 "" 2
 1843              	.LVL94:
 1844              		.loc 5 493 3 is_stmt 0 view .LVU549
 1845              		.thumb
 1846              		.syntax unified
 1847              	.LBE427:
 1848              	.LBE426:
 1849              	.LBE428:
 1850              	.LBE430:
 1851              		.loc 3 410 35 is_stmt 1 view .LVU550
 1852              		.loc 3 411 21 view .LVU551
 1853              		.loc 1 467 3 view .LVU552
 1854              		.loc 1 467 13 is_stmt 0 view .LVU553
 1855 000e AB6B     		ldr	r3, [r5, #56]
 1856              	.LVL95:
 1857              		.loc 1 468 3 is_stmt 1 view .LVU554
 1858              		.loc 1 468 6 is_stmt 0 view .LVU555
 1859 0010 1840     		ands	r0, r3, r0
 1860              	.LVL96:
 1861              		.loc 1 468 6 view .LVU556
 1862 0012 06D0     		beq	.L83
 1863              	.LVL97:
 1864              	.L81:
 1865              		.loc 1 473 3 is_stmt 1 view .LVU557
 1866              		.loc 1 473 20 is_stmt 0 view .LVU558
 1867 0014 23EA0003 		bic	r3, r3, r0
 1868 0018 AB63     		str	r3, [r5, #56]
 1869              		.loc 1 474 3 is_stmt 1 view .LVU559
 1870              	.LBB431:
 1871              	.LBI431:
 1872              		.loc 3 421 20 view .LVU560
 1873              	.LBB432:
 1874              		.loc 3 423 23 view .LVU561
 1875              		.loc 3 424 34 view .LVU562
 1876              		.loc 3 430 3 view .LVU563
 1877              		.loc 3 430 3 view .LVU564
 1878              		.loc 3 430 3 view .LVU565
 1879              		.loc 3 434 3 view .LVU566
 1880              	.LBB433:
 1881              	.LBI433:
ARM GAS  /tmp/cc6nZmxe.s 			page 34


 1882              		.loc 4 830 27 view .LVU567
 1883              	.LBE433:
 1884              	.LBE432:
 1885              	.LBE431:
 1886              		.loc 4 833 3 view .LVU568
 1887              	.LVL98:
 1888              	.LBB438:
 1889              	.LBB437:
 1890              	.LBB436:
 1891              	.LBB434:
 1892              	.LBI434:
 1893              		.loc 5 491 27 view .LVU569
 1894              	.LBB435:
 1895              		.loc 5 493 3 view .LVU570
 1896 001a 0023     		movs	r3, #0
 1897              		.syntax unified
 1898              	@ 493 "../ChibiOS/os/common/ext/ARM/CMSIS/Core/Include/cmsis_gcc.h" 1
 1899 001c 83F31188 		MSR basepri, r3
 1900              	@ 0 "" 2
 1901              	.LVL99:
 1902              		.loc 5 493 3 is_stmt 0 view .LVU571
 1903              		.thumb
 1904              		.syntax unified
 1905              	.LBE435:
 1906              	.LBE434:
 1907              	.LBE436:
 1908              	.LBE437:
 1909              	.LBE438:
 1910              		.loc 1 476 3 is_stmt 1 view .LVU572
 1911              		.loc 1 477 1 is_stmt 0 view .LVU573
 1912 0020 38BD     		pop	{r3, r4, r5, pc}
 1913              	.LVL100:
 1914              	.L83:
 1915              		.loc 1 469 5 is_stmt 1 view .LVU574
 1916              		.loc 1 470 5 is_stmt 0 view .LVU575
 1917 0022 0A20     		movs	r0, #10
 1918              	.LVL101:
 1919              		.loc 1 469 22 view .LVU576
 1920 0024 AC62     		str	r4, [r5, #40]
 1921              		.loc 1 470 5 is_stmt 1 view .LVU577
 1922 0026 FFF7FEFF 		bl	chSchGoSleepS
 1923              	.LVL102:
 1924              		.loc 1 471 5 view .LVU578
 1925              		.loc 1 471 15 is_stmt 0 view .LVU579
 1926 002a AB6B     		ldr	r3, [r5, #56]
 1927              		.loc 1 471 7 view .LVU580
 1928 002c 03EA0400 		and	r0, r3, r4
 1929              	.LVL103:
 1930              		.loc 1 471 7 view .LVU581
 1931 0030 F0E7     		b	.L81
 1932              	.L85:
 1933 0032 00BF     		.align	2
 1934              	.L84:
 1935 0034 00000000 		.word	ch0
 1936              		.cfi_endproc
 1937              	.LFE349:
 1938              		.size	chEvtWaitAny, .-chEvtWaitAny
ARM GAS  /tmp/cc6nZmxe.s 			page 35


 1939              		.section	.text.chEvtWaitAll,"ax",%progbits
 1940              		.align	1
 1941              		.p2align 4,,15
 1942              		.global	chEvtWaitAll
 1943              		.syntax unified
 1944              		.thumb
 1945              		.thumb_func
 1946              		.fpu softvfp
 1947              		.type	chEvtWaitAll, %function
 1948              	chEvtWaitAll:
 1949              	.LVL104:
 1950              	.LFB350:
 1951              		.loc 1 490 46 is_stmt 1 view -0
 1952              		.cfi_startproc
 1953              		@ args = 0, pretend = 0, frame = 0
 1954              		@ frame_needed = 0, uses_anonymous_args = 0
 1955              		.loc 1 491 3 view .LVU583
 1956              	.LBB439:
 1957              	.LBI439:
 1958              		.loc 2 341 25 view .LVU584
 1959              	.LBB440:
 1960              		.loc 2 343 3 view .LVU585
 1961              	.LBE440:
 1962              	.LBE439:
 1963              		.loc 1 490 46 is_stmt 0 view .LVU586
 1964 0000 38B5     		push	{r3, r4, r5, lr}
 1965              		.cfi_def_cfa_offset 16
 1966              		.cfi_offset 3, -16
 1967              		.cfi_offset 4, -12
 1968              		.cfi_offset 5, -8
 1969              		.cfi_offset 14, -4
 1970              	.LBB443:
 1971              	.LBB441:
 1972              		.loc 2 343 10 view .LVU587
 1973 0002 0B4B     		ldr	r3, .L89
 1974              	.LBE441:
 1975              	.LBE443:
 1976              		.loc 1 490 46 view .LVU588
 1977 0004 0446     		mov	r4, r0
 1978              	.LBB444:
 1979              	.LBB442:
 1980              		.loc 2 343 10 view .LVU589
 1981 0006 DD68     		ldr	r5, [r3, #12]
 1982              	.LVL105:
 1983              		.loc 2 343 10 view .LVU590
 1984              	.LBE442:
 1985              	.LBE444:
 1986              		.loc 1 493 3 is_stmt 1 view .LVU591
 1987              	.LBB445:
 1988              	.LBI445:
 1989              		.loc 3 407 20 view .LVU592
 1990              	.LBE445:
 1991              		.loc 3 409 3 view .LVU593
 1992              	.LBB450:
 1993              	.LBB446:
 1994              	.LBI446:
 1995              		.loc 4 806 27 view .LVU594
ARM GAS  /tmp/cc6nZmxe.s 			page 36


 1996              	.LBE446:
 1997              	.LBE450:
 1998              		.loc 4 814 3 view .LVU595
 1999              	.LBB451:
 2000              	.LBB449:
 2001              	.LBB447:
 2002              	.LBI447:
 2003              		.loc 5 491 27 view .LVU596
 2004              	.LBB448:
 2005              		.loc 5 493 3 view .LVU597
 2006 0008 3023     		movs	r3, #48
 2007              		.syntax unified
 2008              	@ 493 "../ChibiOS/os/common/ext/ARM/CMSIS/Core/Include/cmsis_gcc.h" 1
 2009 000a 83F31188 		MSR basepri, r3
 2010              	@ 0 "" 2
 2011              	.LVL106:
 2012              		.loc 5 493 3 is_stmt 0 view .LVU598
 2013              		.thumb
 2014              		.syntax unified
 2015              	.LBE448:
 2016              	.LBE447:
 2017              	.LBE449:
 2018              	.LBE451:
 2019              		.loc 3 410 35 is_stmt 1 view .LVU599
 2020              		.loc 3 411 21 view .LVU600
 2021              		.loc 1 494 3 view .LVU601
 2022              		.loc 1 494 14 is_stmt 0 view .LVU602
 2023 000e AB6B     		ldr	r3, [r5, #56]
 2024              		.loc 1 494 6 view .LVU603
 2025 0010 30EA0302 		bics	r2, r0, r3
 2026 0014 04D0     		beq	.L87
 2027              		.loc 1 495 5 is_stmt 1 view .LVU604
 2028              		.loc 1 495 22 is_stmt 0 view .LVU605
 2029 0016 A862     		str	r0, [r5, #40]
 2030              		.loc 1 496 5 is_stmt 1 view .LVU606
 2031 0018 0B20     		movs	r0, #11
 2032              	.LVL107:
 2033              		.loc 1 496 5 is_stmt 0 view .LVU607
 2034 001a FFF7FEFF 		bl	chSchGoSleepS
 2035              	.LVL108:
 2036              		.loc 1 498 20 view .LVU608
 2037 001e AB6B     		ldr	r3, [r5, #56]
 2038              	.L87:
 2039              		.loc 1 498 3 is_stmt 1 view .LVU609
 2040              		.loc 1 498 20 is_stmt 0 view .LVU610
 2041 0020 23EA0403 		bic	r3, r3, r4
 2042 0024 AB63     		str	r3, [r5, #56]
 2043              		.loc 1 499 3 is_stmt 1 view .LVU611
 2044              	.LBB452:
 2045              	.LBI452:
 2046              		.loc 3 421 20 view .LVU612
 2047              	.LBB453:
 2048              		.loc 3 423 23 view .LVU613
 2049              		.loc 3 424 34 view .LVU614
 2050              		.loc 3 430 3 view .LVU615
 2051              		.loc 3 430 3 view .LVU616
 2052              		.loc 3 430 3 view .LVU617
ARM GAS  /tmp/cc6nZmxe.s 			page 37


 2053              		.loc 3 434 3 view .LVU618
 2054              	.LBB454:
 2055              	.LBI454:
 2056              		.loc 4 830 27 view .LVU619
 2057              	.LBE454:
 2058              	.LBE453:
 2059              	.LBE452:
 2060              		.loc 4 833 3 view .LVU620
 2061              	.LVL109:
 2062              	.LBB459:
 2063              	.LBB458:
 2064              	.LBB457:
 2065              	.LBB455:
 2066              	.LBI455:
 2067              		.loc 5 491 27 view .LVU621
 2068              	.LBB456:
 2069              		.loc 5 493 3 view .LVU622
 2070 0026 0023     		movs	r3, #0
 2071              		.syntax unified
 2072              	@ 493 "../ChibiOS/os/common/ext/ARM/CMSIS/Core/Include/cmsis_gcc.h" 1
 2073 0028 83F31188 		MSR basepri, r3
 2074              	@ 0 "" 2
 2075              	.LVL110:
 2076              		.loc 5 493 3 is_stmt 0 view .LVU623
 2077              		.thumb
 2078              		.syntax unified
 2079              	.LBE456:
 2080              	.LBE455:
 2081              	.LBE457:
 2082              	.LBE458:
 2083              	.LBE459:
 2084              		.loc 1 501 3 is_stmt 1 view .LVU624
 2085              		.loc 1 502 1 is_stmt 0 view .LVU625
 2086 002c 2046     		mov	r0, r4
 2087 002e 38BD     		pop	{r3, r4, r5, pc}
 2088              	.LVL111:
 2089              	.L90:
 2090              		.loc 1 502 1 view .LVU626
 2091              		.align	2
 2092              	.L89:
 2093 0030 00000000 		.word	ch0
 2094              		.cfi_endproc
 2095              	.LFE350:
 2096              		.size	chEvtWaitAll, .-chEvtWaitAll
 2097              		.section	.text.chEvtWaitOneTimeout,"ax",%progbits
 2098              		.align	1
 2099              		.p2align 4,,15
 2100              		.global	chEvtWaitOneTimeout
 2101              		.syntax unified
 2102              		.thumb
 2103              		.thumb_func
 2104              		.fpu softvfp
 2105              		.type	chEvtWaitOneTimeout, %function
 2106              	chEvtWaitOneTimeout:
 2107              	.LVL112:
 2108              	.LFB351:
 2109              		.loc 1 528 76 is_stmt 1 view -0
ARM GAS  /tmp/cc6nZmxe.s 			page 38


 2110              		.cfi_startproc
 2111              		@ args = 0, pretend = 0, frame = 0
 2112              		@ frame_needed = 0, uses_anonymous_args = 0
 2113              		.loc 1 529 3 view .LVU628
 2114              	.LBB460:
 2115              	.LBI460:
 2116              		.loc 2 341 25 view .LVU629
 2117              	.LBB461:
 2118              		.loc 2 343 3 view .LVU630
 2119              		.loc 2 343 10 is_stmt 0 view .LVU631
 2120 0000 114B     		ldr	r3, .L98
 2121              	.LBE461:
 2122              	.LBE460:
 2123              		.loc 1 528 76 view .LVU632
 2124 0002 70B5     		push	{r4, r5, r6, lr}
 2125              		.cfi_def_cfa_offset 16
 2126              		.cfi_offset 4, -16
 2127              		.cfi_offset 5, -12
 2128              		.cfi_offset 6, -8
 2129              		.cfi_offset 14, -4
 2130              	.LBB463:
 2131              	.LBB462:
 2132              		.loc 2 343 10 view .LVU633
 2133 0004 DE68     		ldr	r6, [r3, #12]
 2134              	.LVL113:
 2135              		.loc 2 343 10 view .LVU634
 2136              	.LBE462:
 2137              	.LBE463:
 2138              		.loc 1 530 3 is_stmt 1 view .LVU635
 2139              		.loc 1 532 3 view .LVU636
 2140              	.LBB464:
 2141              	.LBI464:
 2142              		.loc 3 407 20 view .LVU637
 2143              	.LBE464:
 2144              		.loc 3 409 3 view .LVU638
 2145              	.LBB469:
 2146              	.LBB465:
 2147              	.LBI465:
 2148              		.loc 4 806 27 view .LVU639
 2149              	.LBE465:
 2150              	.LBE469:
 2151              		.loc 4 814 3 view .LVU640
 2152              	.LBB470:
 2153              	.LBB468:
 2154              	.LBB466:
 2155              	.LBI466:
 2156              		.loc 5 491 27 view .LVU641
 2157              	.LBB467:
 2158              		.loc 5 493 3 view .LVU642
 2159 0006 3023     		movs	r3, #48
 2160              		.syntax unified
 2161              	@ 493 "../ChibiOS/os/common/ext/ARM/CMSIS/Core/Include/cmsis_gcc.h" 1
 2162 0008 83F31188 		MSR basepri, r3
 2163              	@ 0 "" 2
 2164              	.LVL114:
 2165              		.loc 5 493 3 is_stmt 0 view .LVU643
 2166              		.thumb
ARM GAS  /tmp/cc6nZmxe.s 			page 39


 2167              		.syntax unified
 2168              	.LBE467:
 2169              	.LBE466:
 2170              	.LBE468:
 2171              	.LBE470:
 2172              		.loc 3 410 35 is_stmt 1 view .LVU644
 2173              		.loc 3 411 21 view .LVU645
 2174              		.loc 1 533 3 view .LVU646
 2175              		.loc 1 533 13 is_stmt 0 view .LVU647
 2176 000c B36B     		ldr	r3, [r6, #56]
 2177              	.LVL115:
 2178              		.loc 1 534 3 is_stmt 1 view .LVU648
 2179              		.loc 1 534 6 is_stmt 0 view .LVU649
 2180 000e 13EA0005 		ands	r5, r3, r0
 2181 0012 0ED1     		bne	.L92
 2182              		.loc 1 535 5 is_stmt 1 view .LVU650
 2183              		.loc 1 535 8 is_stmt 0 view .LVU651
 2184 0014 19B9     		cbnz	r1, .L93
 2185              	.LVL116:
 2186              	.L97:
 2187              		.loc 1 541 7 is_stmt 1 view .LVU652
 2188              	.LBB471:
 2189              	.LBI471:
 2190              		.loc 3 421 20 view .LVU653
 2191              	.LBB472:
 2192              		.loc 3 423 23 view .LVU654
 2193              		.loc 3 424 34 view .LVU655
 2194              		.loc 3 430 3 view .LVU656
 2195              		.loc 3 430 3 view .LVU657
 2196              		.loc 3 430 3 view .LVU658
 2197              		.loc 3 434 3 view .LVU659
 2198              	.LBB473:
 2199              	.LBI473:
 2200              		.loc 4 830 27 view .LVU660
 2201              	.LBE473:
 2202              	.LBE472:
 2203              	.LBE471:
 2204              		.loc 4 833 3 view .LVU661
 2205              	.LBB478:
 2206              	.LBB477:
 2207              	.LBB476:
 2208              	.LBB474:
 2209              	.LBI474:
 2210              		.loc 5 491 27 view .LVU662
 2211              	.LBB475:
 2212              		.loc 5 493 3 view .LVU663
 2213              		.syntax unified
 2214              	@ 493 "../ChibiOS/os/common/ext/ARM/CMSIS/Core/Include/cmsis_gcc.h" 1
 2215 0016 85F31188 		MSR basepri, r5
 2216              	@ 0 "" 2
 2217              	.LVL117:
 2218              		.loc 5 493 3 is_stmt 0 view .LVU664
 2219              		.thumb
 2220              		.syntax unified
 2221              	.LBE475:
 2222              	.LBE474:
 2223              	.LBE476:
ARM GAS  /tmp/cc6nZmxe.s 			page 40


 2224              	.LBE477:
 2225              	.LBE478:
 2226              		.loc 1 542 7 is_stmt 1 view .LVU665
 2227              		.loc 1 551 1 is_stmt 0 view .LVU666
 2228 001a 2846     		mov	r0, r5
 2229 001c 70BD     		pop	{r4, r5, r6, pc}
 2230              	.LVL118:
 2231              	.L93:
 2232              		.loc 1 539 5 is_stmt 1 view .LVU667
 2233              		.loc 1 539 22 is_stmt 0 view .LVU668
 2234 001e B062     		str	r0, [r6, #40]
 2235              		.loc 1 540 5 is_stmt 1 view .LVU669
 2236 0020 0446     		mov	r4, r0
 2237              		.loc 1 540 9 is_stmt 0 view .LVU670
 2238 0022 0A20     		movs	r0, #10
 2239              	.LVL119:
 2240              		.loc 1 540 9 view .LVU671
 2241 0024 FFF7FEFF 		bl	chSchGoSleepTimeoutS
 2242              	.LVL120:
 2243              		.loc 1 540 8 view .LVU672
 2244 0028 0028     		cmp	r0, #0
 2245 002a F4DB     		blt	.L97
 2246              		.loc 1 544 5 is_stmt 1 view .LVU673
 2247              		.loc 1 544 15 is_stmt 0 view .LVU674
 2248 002c B36B     		ldr	r3, [r6, #56]
 2249              		.loc 1 544 7 view .LVU675
 2250 002e 03EA0405 		and	r5, r3, r4
 2251              	.LVL121:
 2252              	.L92:
 2253              		.loc 1 546 3 is_stmt 1 view .LVU676
 2254              		.loc 1 546 5 is_stmt 0 view .LVU677
 2255 0032 6A42     		rsbs	r2, r5, #0
 2256 0034 1540     		ands	r5, r5, r2
 2257              	.LVL122:
 2258              		.loc 1 547 3 is_stmt 1 view .LVU678
 2259              		.loc 1 547 20 is_stmt 0 view .LVU679
 2260 0036 23EA0503 		bic	r3, r3, r5
 2261 003a B363     		str	r3, [r6, #56]
 2262              		.loc 1 548 3 is_stmt 1 view .LVU680
 2263              	.LBB479:
 2264              	.LBI479:
 2265              		.loc 3 421 20 view .LVU681
 2266              	.LBB480:
 2267              		.loc 3 423 23 view .LVU682
 2268              		.loc 3 424 34 view .LVU683
 2269              		.loc 3 430 3 view .LVU684
 2270              		.loc 3 430 3 view .LVU685
 2271              		.loc 3 430 3 view .LVU686
 2272              		.loc 3 434 3 view .LVU687
 2273              	.LBB481:
 2274              	.LBI481:
 2275              		.loc 4 830 27 view .LVU688
 2276              	.LBE481:
 2277              	.LBE480:
 2278              	.LBE479:
 2279              		.loc 4 833 3 view .LVU689
 2280              	.LVL123:
ARM GAS  /tmp/cc6nZmxe.s 			page 41


 2281              	.LBB486:
 2282              	.LBB485:
 2283              	.LBB484:
 2284              	.LBB482:
 2285              	.LBI482:
 2286              		.loc 5 491 27 view .LVU690
 2287              	.LBB483:
 2288              		.loc 5 493 3 view .LVU691
 2289 003c 0023     		movs	r3, #0
 2290              		.syntax unified
 2291              	@ 493 "../ChibiOS/os/common/ext/ARM/CMSIS/Core/Include/cmsis_gcc.h" 1
 2292 003e 83F31188 		MSR basepri, r3
 2293              	@ 0 "" 2
 2294              	.LVL124:
 2295              		.loc 5 493 3 is_stmt 0 view .LVU692
 2296              		.thumb
 2297              		.syntax unified
 2298              	.LBE483:
 2299              	.LBE482:
 2300              	.LBE484:
 2301              	.LBE485:
 2302              	.LBE486:
 2303              		.loc 1 550 3 is_stmt 1 view .LVU693
 2304              		.loc 1 551 1 is_stmt 0 view .LVU694
 2305 0042 2846     		mov	r0, r5
 2306 0044 70BD     		pop	{r4, r5, r6, pc}
 2307              	.LVL125:
 2308              	.L99:
 2309              		.loc 1 551 1 view .LVU695
 2310 0046 00BF     		.align	2
 2311              	.L98:
 2312 0048 00000000 		.word	ch0
 2313              		.cfi_endproc
 2314              	.LFE351:
 2315              		.size	chEvtWaitOneTimeout, .-chEvtWaitOneTimeout
 2316              		.section	.text.chEvtWaitAnyTimeout,"ax",%progbits
 2317              		.align	1
 2318              		.p2align 4,,15
 2319              		.global	chEvtWaitAnyTimeout
 2320              		.syntax unified
 2321              		.thumb
 2322              		.thumb_func
 2323              		.fpu softvfp
 2324              		.type	chEvtWaitAnyTimeout, %function
 2325              	chEvtWaitAnyTimeout:
 2326              	.LVL126:
 2327              	.LFB352:
 2328              		.loc 1 571 76 is_stmt 1 view -0
 2329              		.cfi_startproc
 2330              		@ args = 0, pretend = 0, frame = 0
 2331              		@ frame_needed = 0, uses_anonymous_args = 0
 2332              		.loc 1 572 3 view .LVU697
 2333              	.LBB487:
 2334              	.LBI487:
 2335              		.loc 2 341 25 view .LVU698
 2336              	.LBB488:
 2337              		.loc 2 343 3 view .LVU699
ARM GAS  /tmp/cc6nZmxe.s 			page 42


 2338              		.loc 2 343 10 is_stmt 0 view .LVU700
 2339 0000 104B     		ldr	r3, .L107
 2340              	.LBE488:
 2341              	.LBE487:
 2342              		.loc 1 571 76 view .LVU701
 2343 0002 70B5     		push	{r4, r5, r6, lr}
 2344              		.cfi_def_cfa_offset 16
 2345              		.cfi_offset 4, -16
 2346              		.cfi_offset 5, -12
 2347              		.cfi_offset 6, -8
 2348              		.cfi_offset 14, -4
 2349              	.LBB490:
 2350              	.LBB489:
 2351              		.loc 2 343 10 view .LVU702
 2352 0004 DE68     		ldr	r6, [r3, #12]
 2353              	.LVL127:
 2354              		.loc 2 343 10 view .LVU703
 2355              	.LBE489:
 2356              	.LBE490:
 2357              		.loc 1 573 3 is_stmt 1 view .LVU704
 2358              		.loc 1 575 3 view .LVU705
 2359              	.LBB491:
 2360              	.LBI491:
 2361              		.loc 3 407 20 view .LVU706
 2362              	.LBE491:
 2363              		.loc 3 409 3 view .LVU707
 2364              	.LBB496:
 2365              	.LBB492:
 2366              	.LBI492:
 2367              		.loc 4 806 27 view .LVU708
 2368              	.LBE492:
 2369              	.LBE496:
 2370              		.loc 4 814 3 view .LVU709
 2371              	.LBB497:
 2372              	.LBB495:
 2373              	.LBB493:
 2374              	.LBI493:
 2375              		.loc 5 491 27 view .LVU710
 2376              	.LBB494:
 2377              		.loc 5 493 3 view .LVU711
 2378 0006 3023     		movs	r3, #48
 2379              		.syntax unified
 2380              	@ 493 "../ChibiOS/os/common/ext/ARM/CMSIS/Core/Include/cmsis_gcc.h" 1
 2381 0008 83F31188 		MSR basepri, r3
 2382              	@ 0 "" 2
 2383              	.LVL128:
 2384              		.loc 5 493 3 is_stmt 0 view .LVU712
 2385              		.thumb
 2386              		.syntax unified
 2387              	.LBE494:
 2388              	.LBE493:
 2389              	.LBE495:
 2390              	.LBE497:
 2391              		.loc 3 410 35 is_stmt 1 view .LVU713
 2392              		.loc 3 411 21 view .LVU714
 2393              		.loc 1 576 3 view .LVU715
 2394              		.loc 1 576 13 is_stmt 0 view .LVU716
ARM GAS  /tmp/cc6nZmxe.s 			page 43


 2395 000c B36B     		ldr	r3, [r6, #56]
 2396              	.LVL129:
 2397              		.loc 1 577 3 is_stmt 1 view .LVU717
 2398              		.loc 1 577 6 is_stmt 0 view .LVU718
 2399 000e 13EA0005 		ands	r5, r3, r0
 2400 0012 0ED1     		bne	.L101
 2401              		.loc 1 578 5 is_stmt 1 view .LVU719
 2402              		.loc 1 578 8 is_stmt 0 view .LVU720
 2403 0014 19B9     		cbnz	r1, .L102
 2404              	.LVL130:
 2405              	.L106:
 2406              		.loc 1 584 7 is_stmt 1 view .LVU721
 2407              	.LBB498:
 2408              	.LBI498:
 2409              		.loc 3 421 20 view .LVU722
 2410              	.LBB499:
 2411              		.loc 3 423 23 view .LVU723
 2412              		.loc 3 424 34 view .LVU724
 2413              		.loc 3 430 3 view .LVU725
 2414              		.loc 3 430 3 view .LVU726
 2415              		.loc 3 430 3 view .LVU727
 2416              		.loc 3 434 3 view .LVU728
 2417              	.LBB500:
 2418              	.LBI500:
 2419              		.loc 4 830 27 view .LVU729
 2420              	.LBE500:
 2421              	.LBE499:
 2422              	.LBE498:
 2423              		.loc 4 833 3 view .LVU730
 2424              	.LBB505:
 2425              	.LBB504:
 2426              	.LBB503:
 2427              	.LBB501:
 2428              	.LBI501:
 2429              		.loc 5 491 27 view .LVU731
 2430              	.LBB502:
 2431              		.loc 5 493 3 view .LVU732
 2432              		.syntax unified
 2433              	@ 493 "../ChibiOS/os/common/ext/ARM/CMSIS/Core/Include/cmsis_gcc.h" 1
 2434 0016 85F31188 		MSR basepri, r5
 2435              	@ 0 "" 2
 2436              	.LVL131:
 2437              		.loc 5 493 3 is_stmt 0 view .LVU733
 2438              		.thumb
 2439              		.syntax unified
 2440              	.LBE502:
 2441              	.LBE501:
 2442              	.LBE503:
 2443              	.LBE504:
 2444              	.LBE505:
 2445              		.loc 1 585 7 is_stmt 1 view .LVU734
 2446              		.loc 1 593 1 is_stmt 0 view .LVU735
 2447 001a 2846     		mov	r0, r5
 2448 001c 70BD     		pop	{r4, r5, r6, pc}
 2449              	.LVL132:
 2450              	.L102:
 2451              		.loc 1 582 5 is_stmt 1 view .LVU736
ARM GAS  /tmp/cc6nZmxe.s 			page 44


 2452              		.loc 1 582 22 is_stmt 0 view .LVU737
 2453 001e B062     		str	r0, [r6, #40]
 2454              		.loc 1 583 5 is_stmt 1 view .LVU738
 2455 0020 0446     		mov	r4, r0
 2456              		.loc 1 583 9 is_stmt 0 view .LVU739
 2457 0022 0A20     		movs	r0, #10
 2458              	.LVL133:
 2459              		.loc 1 583 9 view .LVU740
 2460 0024 FFF7FEFF 		bl	chSchGoSleepTimeoutS
 2461              	.LVL134:
 2462              		.loc 1 583 8 view .LVU741
 2463 0028 0028     		cmp	r0, #0
 2464 002a F4DB     		blt	.L106
 2465              		.loc 1 587 5 is_stmt 1 view .LVU742
 2466              		.loc 1 587 15 is_stmt 0 view .LVU743
 2467 002c B36B     		ldr	r3, [r6, #56]
 2468              		.loc 1 587 7 view .LVU744
 2469 002e 03EA0405 		and	r5, r3, r4
 2470              	.LVL135:
 2471              	.L101:
 2472              		.loc 1 589 3 is_stmt 1 view .LVU745
 2473              		.loc 1 589 20 is_stmt 0 view .LVU746
 2474 0032 23EA0503 		bic	r3, r3, r5
 2475 0036 B363     		str	r3, [r6, #56]
 2476              		.loc 1 590 3 is_stmt 1 view .LVU747
 2477              	.LBB506:
 2478              	.LBI506:
 2479              		.loc 3 421 20 view .LVU748
 2480              	.LBB507:
 2481              		.loc 3 423 23 view .LVU749
 2482              		.loc 3 424 34 view .LVU750
 2483              		.loc 3 430 3 view .LVU751
 2484              		.loc 3 430 3 view .LVU752
 2485              		.loc 3 430 3 view .LVU753
 2486              		.loc 3 434 3 view .LVU754
 2487              	.LBB508:
 2488              	.LBI508:
 2489              		.loc 4 830 27 view .LVU755
 2490              	.LBE508:
 2491              	.LBE507:
 2492              	.LBE506:
 2493              		.loc 4 833 3 view .LVU756
 2494              	.LVL136:
 2495              	.LBB513:
 2496              	.LBB512:
 2497              	.LBB511:
 2498              	.LBB509:
 2499              	.LBI509:
 2500              		.loc 5 491 27 view .LVU757
 2501              	.LBB510:
 2502              		.loc 5 493 3 view .LVU758
 2503 0038 0023     		movs	r3, #0
 2504              		.syntax unified
 2505              	@ 493 "../ChibiOS/os/common/ext/ARM/CMSIS/Core/Include/cmsis_gcc.h" 1
 2506 003a 83F31188 		MSR basepri, r3
 2507              	@ 0 "" 2
 2508              	.LVL137:
ARM GAS  /tmp/cc6nZmxe.s 			page 45


 2509              		.loc 5 493 3 is_stmt 0 view .LVU759
 2510              		.thumb
 2511              		.syntax unified
 2512              	.LBE510:
 2513              	.LBE509:
 2514              	.LBE511:
 2515              	.LBE512:
 2516              	.LBE513:
 2517              		.loc 1 592 3 is_stmt 1 view .LVU760
 2518              		.loc 1 593 1 is_stmt 0 view .LVU761
 2519 003e 2846     		mov	r0, r5
 2520 0040 70BD     		pop	{r4, r5, r6, pc}
 2521              	.LVL138:
 2522              	.L108:
 2523              		.loc 1 593 1 view .LVU762
 2524 0042 00BF     		.align	2
 2525              	.L107:
 2526 0044 00000000 		.word	ch0
 2527              		.cfi_endproc
 2528              	.LFE352:
 2529              		.size	chEvtWaitAnyTimeout, .-chEvtWaitAnyTimeout
 2530              		.section	.text.chEvtWaitAllTimeout,"ax",%progbits
 2531              		.align	1
 2532              		.p2align 4,,15
 2533              		.global	chEvtWaitAllTimeout
 2534              		.syntax unified
 2535              		.thumb
 2536              		.thumb_func
 2537              		.fpu softvfp
 2538              		.type	chEvtWaitAllTimeout, %function
 2539              	chEvtWaitAllTimeout:
 2540              	.LVL139:
 2541              	.LFB353:
 2542              		.loc 1 612 76 is_stmt 1 view -0
 2543              		.cfi_startproc
 2544              		@ args = 0, pretend = 0, frame = 0
 2545              		@ frame_needed = 0, uses_anonymous_args = 0
 2546              		.loc 1 613 3 view .LVU764
 2547              	.LBB514:
 2548              	.LBI514:
 2549              		.loc 2 341 25 view .LVU765
 2550              	.LBB515:
 2551              		.loc 2 343 3 view .LVU766
 2552              	.LBE515:
 2553              	.LBE514:
 2554              		.loc 1 612 76 is_stmt 0 view .LVU767
 2555 0000 38B5     		push	{r3, r4, r5, lr}
 2556              		.cfi_def_cfa_offset 16
 2557              		.cfi_offset 3, -16
 2558              		.cfi_offset 4, -12
 2559              		.cfi_offset 5, -8
 2560              		.cfi_offset 14, -4
 2561              	.LBB518:
 2562              	.LBB516:
 2563              		.loc 2 343 10 view .LVU768
 2564 0002 104B     		ldr	r3, .L116
 2565              	.LBE516:
ARM GAS  /tmp/cc6nZmxe.s 			page 46


 2566              	.LBE518:
 2567              		.loc 1 612 76 view .LVU769
 2568 0004 0446     		mov	r4, r0
 2569              	.LBB519:
 2570              	.LBB517:
 2571              		.loc 2 343 10 view .LVU770
 2572 0006 DD68     		ldr	r5, [r3, #12]
 2573              	.LVL140:
 2574              		.loc 2 343 10 view .LVU771
 2575              	.LBE517:
 2576              	.LBE519:
 2577              		.loc 1 615 3 is_stmt 1 view .LVU772
 2578              	.LBB520:
 2579              	.LBI520:
 2580              		.loc 3 407 20 view .LVU773
 2581              	.LBE520:
 2582              		.loc 3 409 3 view .LVU774
 2583              	.LBB525:
 2584              	.LBB521:
 2585              	.LBI521:
 2586              		.loc 4 806 27 view .LVU775
 2587              	.LBE521:
 2588              	.LBE525:
 2589              		.loc 4 814 3 view .LVU776
 2590              	.LBB526:
 2591              	.LBB524:
 2592              	.LBB522:
 2593              	.LBI522:
 2594              		.loc 5 491 27 view .LVU777
 2595              	.LBB523:
 2596              		.loc 5 493 3 view .LVU778
 2597 0008 3023     		movs	r3, #48
 2598              		.syntax unified
 2599              	@ 493 "../ChibiOS/os/common/ext/ARM/CMSIS/Core/Include/cmsis_gcc.h" 1
 2600 000a 83F31188 		MSR basepri, r3
 2601              	@ 0 "" 2
 2602              	.LVL141:
 2603              		.loc 5 493 3 is_stmt 0 view .LVU779
 2604              		.thumb
 2605              		.syntax unified
 2606              	.LBE523:
 2607              	.LBE522:
 2608              	.LBE524:
 2609              	.LBE526:
 2610              		.loc 3 410 35 is_stmt 1 view .LVU780
 2611              		.loc 3 411 21 view .LVU781
 2612              		.loc 1 616 3 view .LVU782
 2613              		.loc 1 616 14 is_stmt 0 view .LVU783
 2614 000e AB6B     		ldr	r3, [r5, #56]
 2615              		.loc 1 616 6 view .LVU784
 2616 0010 30EA0302 		bics	r2, r0, r3
 2617 0014 0BD0     		beq	.L110
 2618              		.loc 1 617 5 is_stmt 1 view .LVU785
 2619 0016 0846     		mov	r0, r1
 2620              	.LVL142:
 2621              		.loc 1 617 8 is_stmt 0 view .LVU786
 2622 0018 11B9     		cbnz	r1, .L111
ARM GAS  /tmp/cc6nZmxe.s 			page 47


 2623              	.LVL143:
 2624              	.L115:
 2625              	.LBB527:
 2626              	.LBB528:
 2627              	.LBB529:
 2628              	.LBB530:
 2629              	.LBB531:
 2630              		.loc 5 493 3 view .LVU787
 2631              		.syntax unified
 2632              	@ 493 "../ChibiOS/os/common/ext/ARM/CMSIS/Core/Include/cmsis_gcc.h" 1
 2633 001a 80F31188 		MSR basepri, r0
 2634              	@ 0 "" 2
 2635              		.thumb
 2636              		.syntax unified
 2637              	.LBE531:
 2638              	.LBE530:
 2639              	.LBE529:
 2640              	.LBE528:
 2641              	.LBE527:
 2642              		.loc 1 624 7 is_stmt 1 view .LVU788
 2643              		.loc 1 631 1 is_stmt 0 view .LVU789
 2644 001e 38BD     		pop	{r3, r4, r5, pc}
 2645              	.LVL144:
 2646              	.L111:
 2647              		.loc 1 621 5 is_stmt 1 view .LVU790
 2648              		.loc 1 621 22 is_stmt 0 view .LVU791
 2649 0020 AC62     		str	r4, [r5, #40]
 2650              		.loc 1 622 5 is_stmt 1 view .LVU792
 2651              		.loc 1 622 9 is_stmt 0 view .LVU793
 2652 0022 0B20     		movs	r0, #11
 2653              	.LVL145:
 2654              		.loc 1 622 9 view .LVU794
 2655 0024 FFF7FEFF 		bl	chSchGoSleepTimeoutS
 2656              	.LVL146:
 2657              		.loc 1 622 8 view .LVU795
 2658 0028 0028     		cmp	r0, #0
 2659 002a 08DB     		blt	.L113
 2660              		.loc 1 627 20 view .LVU796
 2661 002c AB6B     		ldr	r3, [r5, #56]
 2662              	.L110:
 2663              		.loc 1 627 3 is_stmt 1 view .LVU797
 2664              		.loc 1 627 20 is_stmt 0 view .LVU798
 2665 002e 23EA0403 		bic	r3, r3, r4
 2666 0032 AB63     		str	r3, [r5, #56]
 2667              		.loc 1 628 3 is_stmt 1 view .LVU799
 2668              	.LBB538:
 2669              	.LBI538:
 2670              		.loc 3 421 20 view .LVU800
 2671              	.LBB539:
 2672              		.loc 3 423 23 view .LVU801
 2673              		.loc 3 424 34 view .LVU802
 2674              		.loc 3 430 3 view .LVU803
 2675              		.loc 3 430 3 view .LVU804
 2676              		.loc 3 430 3 view .LVU805
 2677              		.loc 3 434 3 view .LVU806
 2678              	.LBB540:
 2679              	.LBI540:
ARM GAS  /tmp/cc6nZmxe.s 			page 48


 2680              		.loc 4 830 27 view .LVU807
 2681              	.LBE540:
 2682              	.LBE539:
 2683              	.LBE538:
 2684              		.loc 4 833 3 view .LVU808
 2685              	.LVL147:
 2686              	.LBB545:
 2687              	.LBB544:
 2688              	.LBB543:
 2689              	.LBB541:
 2690              	.LBI541:
 2691              		.loc 5 491 27 view .LVU809
 2692              	.LBB542:
 2693              		.loc 5 493 3 view .LVU810
 2694 0034 0023     		movs	r3, #0
 2695              		.syntax unified
 2696              	@ 493 "../ChibiOS/os/common/ext/ARM/CMSIS/Core/Include/cmsis_gcc.h" 1
 2697 0036 83F31188 		MSR basepri, r3
 2698              	@ 0 "" 2
 2699              	.LVL148:
 2700              		.loc 5 493 3 is_stmt 0 view .LVU811
 2701              		.thumb
 2702              		.syntax unified
 2703              	.LBE542:
 2704              	.LBE541:
 2705              	.LBE543:
 2706              	.LBE544:
 2707              	.LBE545:
 2708              		.loc 1 630 3 is_stmt 1 view .LVU812
 2709              		.loc 1 630 10 is_stmt 0 view .LVU813
 2710 003a 2046     		mov	r0, r4
 2711              		.loc 1 631 1 view .LVU814
 2712 003c 38BD     		pop	{r3, r4, r5, pc}
 2713              	.LVL149:
 2714              	.L113:
 2715              		.loc 1 623 7 is_stmt 1 view .LVU815
 2716              	.LBB546:
 2717              	.LBI527:
 2718              		.loc 3 421 20 view .LVU816
 2719              	.LBB536:
 2720              		.loc 3 423 23 view .LVU817
 2721              		.loc 3 424 34 view .LVU818
 2722              		.loc 3 430 3 view .LVU819
 2723              		.loc 3 430 3 view .LVU820
 2724              		.loc 3 430 3 view .LVU821
 2725              		.loc 3 434 3 view .LVU822
 2726              	.LBB534:
 2727              	.LBI529:
 2728              		.loc 4 830 27 view .LVU823
 2729              	.LBE534:
 2730              	.LBE536:
 2731              	.LBE546:
 2732              		.loc 4 833 3 view .LVU824
 2733              	.LBB547:
 2734              	.LBB537:
 2735              	.LBB535:
 2736              	.LBB533:
ARM GAS  /tmp/cc6nZmxe.s 			page 49


 2737              	.LBI530:
 2738              		.loc 5 491 27 view .LVU825
 2739              	.LBB532:
 2740              		.loc 5 493 3 view .LVU826
 2741 003e 0020     		movs	r0, #0
 2742 0040 EBE7     		b	.L115
 2743              	.L117:
 2744 0042 00BF     		.align	2
 2745              	.L116:
 2746 0044 00000000 		.word	ch0
 2747              	.LBE532:
 2748              	.LBE533:
 2749              	.LBE535:
 2750              	.LBE537:
 2751              	.LBE547:
 2752              		.cfi_endproc
 2753              	.LFE353:
 2754              		.size	chEvtWaitAllTimeout, .-chEvtWaitAllTimeout
 2755              		.text
 2756              	.Letext0:
 2757              		.file 7 "/opt/gcc-arm-none-eabi/gcc-arm-none-eabi-10.3-2021.07/arm-none-eabi/include/machine/_defa
 2758              		.file 8 "/opt/gcc-arm-none-eabi/gcc-arm-none-eabi-10.3-2021.07/arm-none-eabi/include/sys/_stdint.h
 2759              		.file 9 "../ChibiOS/os/common/ports/ARM-common/chtypes.h"
 2760              		.file 10 "../ChibiOS/os/rt/include/chearly.h"
 2761              		.file 11 "../ChibiOS/os/rt/include/chobjects.h"
 2762              		.file 12 "../ChibiOS/os/rt/include/chrfcu.h"
 2763              		.file 13 "../ChibiOS/os/rt/include/chdebug.h"
 2764              		.file 14 "../ChibiOS/os/rt/include/chtime.h"
 2765              		.file 15 "../ChibiOS/os/rt/include/chlists.h"
 2766              		.file 16 "../ChibiOS/os/rt/include/chsem.h"
 2767              		.file 17 "../ChibiOS/os/rt/include/chmtx.h"
 2768              		.file 18 "../ChibiOS/os/rt/include/chschd.h"