ARM GAS  /tmp/ccRHzBk5.s 			page 1


   1              		.cpu cortex-m4
   2              		.eabi_attribute 20, 1
   3              		.eabi_attribute 21, 1
   4              		.eabi_attribute 23, 3
   5              		.eabi_attribute 24, 1
   6              		.eabi_attribute 25, 1
   7              		.eabi_attribute 26, 1
   8              		.eabi_attribute 30, 2
   9              		.eabi_attribute 34, 1
  10              		.eabi_attribute 18, 4
  11              		.file	"chmboxes.c"
  12              		.text
  13              	.Ltext0:
  14              		.cfi_sections	.debug_frame
  15              		.section	.text.chMBObjectInit,"ax",%progbits
  16              		.align	1
  17              		.p2align 4,,15
  18              		.global	chMBObjectInit
  19              		.arch armv7e-m
  20              		.syntax unified
  21              		.thumb
  22              		.thumb_func
  23              		.fpu softvfp
  24              		.type	chMBObjectInit, %function
  25              	chMBObjectInit:
  26              	.LVL0:
  27              	.LFB335:
  28              		.file 1 "../ChibiOS/os/oslib/src/chmboxes.c"
  29              		.loc 1 87 59 view -0
  30              		.cfi_startproc
  31              		@ args = 0, pretend = 0, frame = 0
  32              		@ frame_needed = 0, uses_anonymous_args = 0
  33              		@ link register save eliminated.
  34              		.loc 1 89 3 view .LVU1
  35              		.loc 1 89 3 view .LVU2
  36              		.loc 1 89 3 view .LVU3
  37              		.loc 1 91 3 view .LVU4
  38              		.loc 1 87 59 is_stmt 0 view .LVU5
  39 0000 30B4     		push	{r4, r5}
  40              		.cfi_def_cfa_offset 8
  41              		.cfi_offset 4, -8
  42              		.cfi_offset 5, -4
  43              		.loc 1 94 17 view .LVU6
  44 0002 01EB8202 		add	r2, r1, r2, lsl #2
  45              	.LVL1:
  46              		.loc 1 95 15 view .LVU7
  47 0006 0025     		movs	r5, #0
  48              	.LBB96:
  49              	.LBB97:
  50              		.file 2 "../ChibiOS/os/rt/include/chthreads.h"
  51              		.loc 2 463 3 view .LVU8
  52 0008 00F11804 		add	r4, r0, #24
  53              	.LBE97:
  54              	.LBE96:
  55              	.LBB104:
  56              	.LBB105:
  57 000c 00F12003 		add	r3, r0, #32
ARM GAS  /tmp/ccRHzBk5.s 			page 2


  58              	.LBE105:
  59              	.LBE104:
  60              	.LBB112:
  61              	.LBB102:
  62              	.LBB98:
  63              	.LBB99:
  64              		.file 3 "../ChibiOS/os/rt/include/chlists.h"
  65              		.loc 3 225 12 view .LVU9
  66 0010 C0E90644 		strd	r4, r4, [r0, #24]
  67              	.LBE99:
  68              	.LBE98:
  69              	.LBE102:
  70              	.LBE112:
  71              		.loc 1 95 15 view .LVU10
  72 0014 0561     		str	r5, [r0, #16]
  73              		.loc 1 96 15 view .LVU11
  74 0016 0575     		strb	r5, [r0, #20]
  75              		.loc 1 93 15 view .LVU12
  76 0018 C0E90211 		strd	r1, r1, [r0, #8]
  77              		.loc 1 99 1 view .LVU13
  78 001c 30BC     		pop	{r4, r5}
  79              		.cfi_restore 5
  80              		.cfi_restore 4
  81              		.cfi_def_cfa_offset 0
  82              	.LBB113:
  83              	.LBB110:
  84              	.LBB106:
  85              	.LBB107:
  86              		.loc 3 225 12 view .LVU14
  87 001e C0E90833 		strd	r3, r3, [r0, #32]
  88              	.LBE107:
  89              	.LBE106:
  90              	.LBE110:
  91              	.LBE113:
  92              		.loc 1 91 15 view .LVU15
  93 0022 0160     		str	r1, [r0]
  94              		.loc 1 92 3 is_stmt 1 view .LVU16
  95              		.loc 1 94 3 view .LVU17
  96              		.loc 1 94 15 is_stmt 0 view .LVU18
  97 0024 4260     		str	r2, [r0, #4]
  98              		.loc 1 95 3 is_stmt 1 view .LVU19
  99              		.loc 1 96 3 view .LVU20
 100              		.loc 1 97 3 view .LVU21
 101              	.LVL2:
 102              	.LBB114:
 103              	.LBI96:
 104              		.loc 2 461 20 view .LVU22
 105              	.LBB103:
 106              		.loc 2 463 3 view .LVU23
 107              	.LBB101:
 108              	.LBI98:
 109              		.loc 3 222 20 view .LVU24
 110              	.LBB100:
 111              		.loc 3 224 3 view .LVU25
 112              		.loc 3 224 3 is_stmt 0 view .LVU26
 113              	.LBE100:
 114              	.LBE101:
ARM GAS  /tmp/ccRHzBk5.s 			page 3


 115              	.LBE103:
 116              	.LBE114:
 117              		.loc 1 98 3 is_stmt 1 view .LVU27
 118              	.LBB115:
 119              	.LBI104:
 120              		.loc 2 461 20 view .LVU28
 121              	.LBB111:
 122              		.loc 2 463 3 view .LVU29
 123              	.LBB109:
 124              	.LBI106:
 125              		.loc 3 222 20 view .LVU30
 126              	.LBB108:
 127              		.loc 3 224 3 view .LVU31
 128              		.loc 3 224 3 is_stmt 0 view .LVU32
 129              	.LBE108:
 130              	.LBE109:
 131              	.LBE111:
 132              	.LBE115:
 133              		.loc 1 99 1 view .LVU33
 134 0026 7047     		bx	lr
 135              		.cfi_endproc
 136              	.LFE335:
 137              		.size	chMBObjectInit, .-chMBObjectInit
 138              		.section	.text.chMBReset,"ax",%progbits
 139              		.align	1
 140              		.p2align 4,,15
 141              		.global	chMBReset
 142              		.syntax unified
 143              		.thumb
 144              		.thumb_func
 145              		.fpu softvfp
 146              		.type	chMBReset, %function
 147              	chMBReset:
 148              	.LVL3:
 149              	.LFB336:
 150              		.loc 1 113 32 is_stmt 1 view -0
 151              		.cfi_startproc
 152              		@ args = 0, pretend = 0, frame = 0
 153              		@ frame_needed = 0, uses_anonymous_args = 0
 154              		.loc 1 115 3 view .LVU35
 155              	.LBB127:
 156              	.LBI127:
 157              		.file 4 "../ChibiOS/os/rt/include/chsys.h"
 158              		.loc 4 407 20 view .LVU36
 159              	.LBE127:
 160              		.loc 4 409 3 view .LVU37
 161              	.LBB135:
 162              	.LBB128:
 163              	.LBI128:
 164              		.file 5 "../ChibiOS/os/common/ports/ARMv7-M/chcore.h"
 165              		.loc 5 806 27 view .LVU38
 166              	.LBE128:
 167              	.LBE135:
 168              		.loc 5 814 3 view .LVU39
 169              	.LBB136:
 170              	.LBB133:
 171              	.LBB129:
ARM GAS  /tmp/ccRHzBk5.s 			page 4


 172              	.LBI129:
 173              		.file 6 "../ChibiOS/os/common/ext/ARM/CMSIS/Core/Include/cmsis_gcc.h"
 174              		.loc 6 491 27 view .LVU40
 175              	.LBB130:
 176              		.loc 6 493 3 view .LVU41
 177              	.LBE130:
 178              	.LBE129:
 179              	.LBE133:
 180              	.LBE136:
 181              		.loc 1 113 32 is_stmt 0 view .LVU42
 182 0000 38B5     		push	{r3, r4, r5, lr}
 183              		.cfi_def_cfa_offset 16
 184              		.cfi_offset 3, -16
 185              		.cfi_offset 4, -12
 186              		.cfi_offset 5, -8
 187              		.cfi_offset 14, -4
 188              		.loc 1 113 32 view .LVU43
 189 0002 0446     		mov	r4, r0
 190              	.LBB137:
 191              	.LBB134:
 192              	.LBB132:
 193              	.LBB131:
 194              		.loc 6 493 3 view .LVU44
 195 0004 3023     		movs	r3, #48
 196              		.syntax unified
 197              	@ 493 "../ChibiOS/os/common/ext/ARM/CMSIS/Core/Include/cmsis_gcc.h" 1
 198 0006 83F31188 		MSR basepri, r3
 199              	@ 0 "" 2
 200              	.LVL4:
 201              		.loc 6 493 3 view .LVU45
 202              		.thumb
 203              		.syntax unified
 204              	.LBE131:
 205              	.LBE132:
 206              	.LBE134:
 207              	.LBE137:
 208              		.loc 4 410 35 is_stmt 1 view .LVU46
 209              		.loc 4 411 21 view .LVU47
 210              		.loc 1 116 3 view .LVU48
 211              	.LBB138:
 212              	.LBI138:
 213              		.loc 1 133 6 view .LVU49
 214              	.LBB139:
 215              		.loc 1 135 21 view .LVU50
 216              		.loc 1 136 3 view .LVU51
 217              		.loc 1 136 3 view .LVU52
 218              		.loc 1 136 3 view .LVU53
 219              		.loc 1 138 3 view .LVU54
 220              		.loc 1 138 19 is_stmt 0 view .LVU55
 221 000a 0368     		ldr	r3, [r0]
 222              		.loc 1 141 14 view .LVU56
 223 000c 0122     		movs	r2, #1
 224              		.loc 1 140 14 view .LVU57
 225 000e 0025     		movs	r5, #0
 226              		.loc 1 139 14 view .LVU58
 227 0010 C4E90233 		strd	r3, r3, [r4, #8]
 228              		.loc 1 140 3 is_stmt 1 view .LVU59
ARM GAS  /tmp/ccRHzBk5.s 			page 5


 229              		.loc 1 141 14 is_stmt 0 view .LVU60
 230 0014 2275     		strb	r2, [r4, #20]
 231              		.loc 1 142 3 view .LVU61
 232 0016 1830     		adds	r0, r0, #24
 233              	.LVL5:
 234              		.loc 1 140 14 view .LVU62
 235 0018 2561     		str	r5, [r4, #16]
 236              		.loc 1 141 3 is_stmt 1 view .LVU63
 237              		.loc 1 142 3 view .LVU64
 238 001a 6FF00101 		mvn	r1, #1
 239 001e FFF7FEFF 		bl	chThdDequeueAllI
 240              	.LVL6:
 241              		.loc 1 143 3 view .LVU65
 242 0022 6FF00101 		mvn	r1, #1
 243 0026 04F12000 		add	r0, r4, #32
 244 002a FFF7FEFF 		bl	chThdDequeueAllI
 245              	.LVL7:
 246              		.loc 1 143 3 is_stmt 0 view .LVU66
 247              	.LBE139:
 248              	.LBE138:
 249              		.loc 1 117 3 is_stmt 1 view .LVU67
 250 002e FFF7FEFF 		bl	chSchRescheduleS
 251              	.LVL8:
 252              		.loc 1 118 3 view .LVU68
 253              	.LBB140:
 254              	.LBI140:
 255              		.loc 4 421 20 view .LVU69
 256              	.LBB141:
 257              		.loc 4 423 23 view .LVU70
 258              		.loc 4 424 34 view .LVU71
 259              		.loc 4 430 3 view .LVU72
 260              		.loc 4 430 3 view .LVU73
 261              		.loc 4 430 3 view .LVU74
 262              		.loc 4 434 3 view .LVU75
 263              	.LBB142:
 264              	.LBI142:
 265              		.loc 5 830 27 view .LVU76
 266              	.LBE142:
 267              	.LBE141:
 268              	.LBE140:
 269              		.loc 5 833 3 view .LVU77
 270              	.LBB147:
 271              	.LBB146:
 272              	.LBB145:
 273              	.LBB143:
 274              	.LBI143:
 275              		.loc 6 491 27 view .LVU78
 276              	.LBB144:
 277              		.loc 6 493 3 view .LVU79
 278              		.syntax unified
 279              	@ 493 "../ChibiOS/os/common/ext/ARM/CMSIS/Core/Include/cmsis_gcc.h" 1
 280 0032 85F31188 		MSR basepri, r5
 281              	@ 0 "" 2
 282              	.LVL9:
 283              		.loc 6 493 3 is_stmt 0 view .LVU80
 284              		.thumb
 285              		.syntax unified
ARM GAS  /tmp/ccRHzBk5.s 			page 6


 286              	.LBE144:
 287              	.LBE143:
 288              	.LBE145:
 289              	.LBE146:
 290              	.LBE147:
 291              		.loc 1 119 1 view .LVU81
 292 0036 38BD     		pop	{r3, r4, r5, pc}
 293              		.loc 1 119 1 view .LVU82
 294              		.cfi_endproc
 295              	.LFE336:
 296              		.size	chMBReset, .-chMBReset
 297              		.section	.text.chMBResetI,"ax",%progbits
 298              		.align	1
 299              		.p2align 4,,15
 300              		.global	chMBResetI
 301              		.syntax unified
 302              		.thumb
 303              		.thumb_func
 304              		.fpu softvfp
 305              		.type	chMBResetI, %function
 306              	chMBResetI:
 307              	.LVL10:
 308              	.LFB337:
 309              		.loc 1 133 33 is_stmt 1 view -0
 310              		.cfi_startproc
 311              		@ args = 0, pretend = 0, frame = 0
 312              		@ frame_needed = 0, uses_anonymous_args = 0
 313              		.loc 1 135 21 view .LVU84
 314              		.loc 1 136 3 view .LVU85
 315              		.loc 1 136 3 view .LVU86
 316              		.loc 1 136 3 view .LVU87
 317              		.loc 1 138 3 view .LVU88
 318              		.loc 1 133 33 is_stmt 0 view .LVU89
 319 0000 10B5     		push	{r4, lr}
 320              		.cfi_def_cfa_offset 8
 321              		.cfi_offset 4, -8
 322              		.cfi_offset 14, -4
 323              		.loc 1 133 33 view .LVU90
 324 0002 0446     		mov	r4, r0
 325              		.loc 1 141 14 view .LVU91
 326 0004 0122     		movs	r2, #1
 327              		.loc 1 138 19 view .LVU92
 328 0006 2368     		ldr	r3, [r4]
 329              		.loc 1 141 14 view .LVU93
 330 0008 2275     		strb	r2, [r4, #20]
 331              		.loc 1 140 14 view .LVU94
 332 000a 0020     		movs	r0, #0
 333              	.LVL11:
 334              		.loc 1 140 14 view .LVU95
 335 000c 2061     		str	r0, [r4, #16]
 336              		.loc 1 139 14 view .LVU96
 337 000e C4E90233 		strd	r3, r3, [r4, #8]
 338              		.loc 1 140 3 is_stmt 1 view .LVU97
 339              		.loc 1 141 3 view .LVU98
 340              		.loc 1 142 3 view .LVU99
 341 0012 04F11800 		add	r0, r4, #24
 342 0016 6FF00101 		mvn	r1, #1
ARM GAS  /tmp/ccRHzBk5.s 			page 7


 343 001a FFF7FEFF 		bl	chThdDequeueAllI
 344              	.LVL12:
 345              		.loc 1 143 3 view .LVU100
 346 001e 04F12000 		add	r0, r4, #32
 347 0022 6FF00101 		mvn	r1, #1
 348              		.loc 1 144 1 is_stmt 0 view .LVU101
 349 0026 BDE81040 		pop	{r4, lr}
 350              		.cfi_restore 14
 351              		.cfi_restore 4
 352              		.cfi_def_cfa_offset 0
 353              	.LVL13:
 354              		.loc 1 143 3 view .LVU102
 355 002a FFF7FEBF 		b	chThdDequeueAllI
 356              	.LVL14:
 357              		.loc 1 143 3 view .LVU103
 358              		.cfi_endproc
 359              	.LFE337:
 360              		.size	chMBResetI, .-chMBResetI
 361 002e 00BF     		.section	.text.chMBPostTimeoutS,"ax",%progbits
 362              		.align	1
 363              		.p2align 4,,15
 364              		.global	chMBPostTimeoutS
 365              		.syntax unified
 366              		.thumb
 367              		.thumb_func
 368              		.fpu softvfp
 369              		.type	chMBPostTimeoutS, %function
 370              	chMBPostTimeoutS:
 371              	.LVL15:
 372              	.LFB339:
 373              		.loc 1 194 74 is_stmt 1 view -0
 374              		.cfi_startproc
 375              		@ args = 0, pretend = 0, frame = 0
 376              		@ frame_needed = 0, uses_anonymous_args = 0
 377              		.loc 1 195 3 view .LVU105
 378              		.loc 1 197 21 view .LVU106
 379              		.loc 1 198 3 view .LVU107
 380              		.loc 1 198 3 view .LVU108
 381              		.loc 1 194 74 is_stmt 0 view .LVU109
 382 0000 2DE9F843 		push	{r3, r4, r5, r6, r7, r8, r9, lr}
 383              		.cfi_def_cfa_offset 32
 384              		.cfi_offset 3, -32
 385              		.cfi_offset 4, -28
 386              		.cfi_offset 5, -24
 387              		.cfi_offset 6, -20
 388              		.cfi_offset 7, -16
 389              		.cfi_offset 8, -12
 390              		.cfi_offset 9, -8
 391              		.cfi_offset 14, -4
 392              		.loc 1 194 74 view .LVU110
 393 0004 0446     		mov	r4, r0
 394 0006 0F46     		mov	r7, r1
 395 0008 9046     		mov	r8, r2
 396              		.loc 1 222 14 view .LVU111
 397 000a 00F11809 		add	r9, r0, #24
 398 000e 09E0     		b	.L12
 399              	.LVL16:
ARM GAS  /tmp/ccRHzBk5.s 			page 8


 400              	.L18:
 401              	.LBB148:
 402              	.LBB149:
 403              	.LBB150:
 404              		.file 7 "../ChibiOS/os/oslib/include/chmboxes.h"
 405              		.loc 7 140 33 view .LVU112
 406 0010 D4E90065 		ldrd	r6, r5, [r4]
 407              	.LVL17:
 408              		.loc 7 140 33 view .LVU113
 409              	.LBE150:
 410              	.LBE149:
 411              	.LBB153:
 412              	.LBI153:
 413              		.loc 7 152 22 is_stmt 1 view .LVU114
 414              	.LBB154:
 415              		.loc 7 154 21 view .LVU115
 416              		.loc 7 156 3 view .LVU116
 417              		.loc 7 156 13 is_stmt 0 view .LVU117
 418 0014 2369     		ldr	r3, [r4, #16]
 419              	.LVL18:
 420              		.loc 7 156 13 view .LVU118
 421              	.LBE154:
 422              	.LBE153:
 423              	.LBB155:
 424              	.LBB151:
 425              		.loc 7 140 28 view .LVU119
 426 0016 AA1B     		subs	r2, r5, r6
 427              	.LBE151:
 428              	.LBE155:
 429              	.LBE148:
 430              		.loc 1 207 8 view .LVU120
 431 0018 B3EBA20F 		cmp	r3, r2, asr #2
 432 001c 0BD1     		bne	.L17
 433              		.loc 1 222 14 view .LVU121
 434 001e FFF7FEFF 		bl	chThdEnqueueTimeoutS
 435              	.LVL19:
 436              		.loc 1 223 11 is_stmt 1 view .LVU122
 437              		.loc 1 223 3 is_stmt 0 view .LVU123
 438 0022 30B9     		cbnz	r0, .L8
 439              	.LVL20:
 440              	.L12:
 441              		.loc 1 198 3 is_stmt 1 discriminator 5 view .LVU124
 442              		.loc 1 200 3 discriminator 5 view .LVU125
 443              		.loc 1 202 5 discriminator 5 view .LVU126
 444              		.loc 1 207 5 discriminator 5 view .LVU127
 445              	.LBB157:
 446              	.LBI148:
 447              		.loc 7 167 22 discriminator 5 view .LVU128
 448              	.LBE157:
 449              		.loc 7 169 21 discriminator 5 view .LVU129
 450              		.loc 7 171 3 discriminator 5 view .LVU130
 451              	.LBB158:
 452              	.LBB156:
 453              	.LBI149:
 454              		.loc 7 136 22 discriminator 5 view .LVU131
 455              	.LBB152:
 456              		.loc 7 140 3 discriminator 5 view .LVU132
ARM GAS  /tmp/ccRHzBk5.s 			page 9


 457              	.LBE152:
 458              	.LBE156:
 459              	.LBE158:
 460              		.loc 1 222 5 discriminator 5 view .LVU133
 461              		.loc 1 202 8 is_stmt 0 discriminator 5 view .LVU134
 462 0024 237D     		ldrb	r3, [r4, #20]	@ zero_extendqisi2
 463              		.loc 1 222 14 discriminator 5 view .LVU135
 464 0026 4146     		mov	r1, r8
 465 0028 4846     		mov	r0, r9
 466              		.loc 1 202 8 discriminator 5 view .LVU136
 467 002a 002B     		cmp	r3, #0
 468 002c F0D0     		beq	.L18
 469              	.LVL21:
 470              		.loc 1 203 14 view .LVU137
 471 002e 6FF00100 		mvn	r0, #1
 472              	.LVL22:
 473              	.L8:
 474              		.loc 1 226 1 view .LVU138
 475 0032 BDE8F883 		pop	{r3, r4, r5, r6, r7, r8, r9, pc}
 476              	.LVL23:
 477              	.L17:
 478              		.loc 1 208 7 is_stmt 1 view .LVU139
 479              		.loc 1 208 11 is_stmt 0 view .LVU140
 480 0036 A168     		ldr	r1, [r4, #8]
 481              	.LVL24:
 482              		.loc 1 208 18 view .LVU141
 483 0038 0A1D     		adds	r2, r1, #4
 484              		.loc 1 209 10 view .LVU142
 485 003a AA42     		cmp	r2, r5
 486              		.loc 1 212 15 view .LVU143
 487 003c 03F10103 		add	r3, r3, #1
 488              		.loc 1 208 18 view .LVU144
 489 0040 A260     		str	r2, [r4, #8]
 490              		.loc 1 215 7 view .LVU145
 491 0042 04F12000 		add	r0, r4, #32
 492              		.loc 1 208 21 view .LVU146
 493 0046 0F60     		str	r7, [r1]
 494              		.loc 1 209 7 is_stmt 1 view .LVU147
 495              		.loc 1 210 9 view .LVU148
 496              		.loc 1 212 7 view .LVU149
 497              		.loc 1 210 20 is_stmt 0 view .LVU150
 498 0048 28BF     		it	cs
 499 004a A660     		strcs	r6, [r4, #8]
 500              		.loc 1 215 7 view .LVU151
 501 004c 0021     		movs	r1, #0
 502              		.loc 1 212 15 view .LVU152
 503 004e 2361     		str	r3, [r4, #16]
 504              		.loc 1 215 7 is_stmt 1 view .LVU153
 505 0050 FFF7FEFF 		bl	chThdDequeueNextI
 506              	.LVL25:
 507              		.loc 1 216 7 view .LVU154
 508 0054 FFF7FEFF 		bl	chSchRescheduleS
 509              	.LVL26:
 510              		.loc 1 218 7 view .LVU155
 511              		.loc 1 218 14 is_stmt 0 view .LVU156
 512 0058 0020     		movs	r0, #0
 513              		.loc 1 226 1 view .LVU157
ARM GAS  /tmp/ccRHzBk5.s 			page 10


 514 005a BDE8F883 		pop	{r3, r4, r5, r6, r7, r8, r9, pc}
 515              		.loc 1 226 1 view .LVU158
 516              		.cfi_endproc
 517              	.LFE339:
 518              		.size	chMBPostTimeoutS, .-chMBPostTimeoutS
 519 005e 00BF     		.section	.text.chMBPostTimeout,"ax",%progbits
 520              		.align	1
 521              		.p2align 4,,15
 522              		.global	chMBPostTimeout
 523              		.syntax unified
 524              		.thumb
 525              		.thumb_func
 526              		.fpu softvfp
 527              		.type	chMBPostTimeout, %function
 528              	chMBPostTimeout:
 529              	.LVL27:
 530              	.LFB338:
 531              		.loc 1 165 73 is_stmt 1 view -0
 532              		.cfi_startproc
 533              		@ args = 0, pretend = 0, frame = 0
 534              		@ frame_needed = 0, uses_anonymous_args = 0
 535              		.loc 1 166 3 view .LVU160
 536              		.loc 1 168 3 view .LVU161
 537              	.LBB159:
 538              	.LBI159:
 539              		.loc 4 407 20 view .LVU162
 540              	.LBE159:
 541              		.loc 4 409 3 view .LVU163
 542              	.LBB167:
 543              	.LBB160:
 544              	.LBI160:
 545              		.loc 5 806 27 view .LVU164
 546              	.LBE160:
 547              	.LBE167:
 548              		.loc 5 814 3 view .LVU165
 549              	.LBB168:
 550              	.LBB165:
 551              	.LBB161:
 552              	.LBI161:
 553              		.loc 6 491 27 view .LVU166
 554              	.LBB162:
 555              		.loc 6 493 3 view .LVU167
 556              	.LBE162:
 557              	.LBE161:
 558              	.LBE165:
 559              	.LBE168:
 560              		.loc 1 165 73 is_stmt 0 view .LVU168
 561 0000 08B5     		push	{r3, lr}
 562              		.cfi_def_cfa_offset 8
 563              		.cfi_offset 3, -8
 564              		.cfi_offset 14, -4
 565              	.LBB169:
 566              	.LBB166:
 567              	.LBB164:
 568              	.LBB163:
 569              		.loc 6 493 3 view .LVU169
 570 0002 3023     		movs	r3, #48
ARM GAS  /tmp/ccRHzBk5.s 			page 11


 571              		.syntax unified
 572              	@ 493 "../ChibiOS/os/common/ext/ARM/CMSIS/Core/Include/cmsis_gcc.h" 1
 573 0004 83F31188 		MSR basepri, r3
 574              	@ 0 "" 2
 575              	.LVL28:
 576              		.loc 6 493 3 view .LVU170
 577              		.thumb
 578              		.syntax unified
 579              	.LBE163:
 580              	.LBE164:
 581              	.LBE166:
 582              	.LBE169:
 583              		.loc 4 410 35 is_stmt 1 view .LVU171
 584              		.loc 4 411 21 view .LVU172
 585              		.loc 1 169 3 view .LVU173
 586              		.loc 1 169 12 is_stmt 0 view .LVU174
 587 0008 FFF7FEFF 		bl	chMBPostTimeoutS
 588              	.LVL29:
 589              		.loc 1 170 3 is_stmt 1 view .LVU175
 590              	.LBB170:
 591              	.LBI170:
 592              		.loc 4 421 20 view .LVU176
 593              	.LBB171:
 594              		.loc 4 423 23 view .LVU177
 595              		.loc 4 424 34 view .LVU178
 596              		.loc 4 430 3 view .LVU179
 597              		.loc 4 430 3 view .LVU180
 598              		.loc 4 430 3 view .LVU181
 599              		.loc 4 434 3 view .LVU182
 600              	.LBB172:
 601              	.LBI172:
 602              		.loc 5 830 27 view .LVU183
 603              	.LBE172:
 604              	.LBE171:
 605              	.LBE170:
 606              		.loc 5 833 3 view .LVU184
 607              	.LBB177:
 608              	.LBB176:
 609              	.LBB175:
 610              	.LBB173:
 611              	.LBI173:
 612              		.loc 6 491 27 view .LVU185
 613              	.LBB174:
 614              		.loc 6 493 3 view .LVU186
 615 000c 0023     		movs	r3, #0
 616              		.syntax unified
 617              	@ 493 "../ChibiOS/os/common/ext/ARM/CMSIS/Core/Include/cmsis_gcc.h" 1
 618 000e 83F31188 		MSR basepri, r3
 619              	@ 0 "" 2
 620              	.LVL30:
 621              		.loc 6 493 3 is_stmt 0 view .LVU187
 622              		.thumb
 623              		.syntax unified
 624              	.LBE174:
 625              	.LBE173:
 626              	.LBE175:
 627              	.LBE176:
ARM GAS  /tmp/ccRHzBk5.s 			page 12


 628              	.LBE177:
 629              		.loc 1 172 3 is_stmt 1 view .LVU188
 630              		.loc 1 173 1 is_stmt 0 view .LVU189
 631 0012 08BD     		pop	{r3, pc}
 632              		.cfi_endproc
 633              	.LFE338:
 634              		.size	chMBPostTimeout, .-chMBPostTimeout
 635              		.section	.text.chMBPostI,"ax",%progbits
 636              		.align	1
 637              		.p2align 4,,15
 638              		.global	chMBPostI
 639              		.syntax unified
 640              		.thumb
 641              		.thumb_func
 642              		.fpu softvfp
 643              		.type	chMBPostI, %function
 644              	chMBPostI:
 645              	.LVL31:
 646              	.LFB340:
 647              		.loc 1 243 44 is_stmt 1 view -0
 648              		.cfi_startproc
 649              		@ args = 0, pretend = 0, frame = 0
 650              		@ frame_needed = 0, uses_anonymous_args = 0
 651              		.loc 1 245 21 view .LVU191
 652              		.loc 1 246 3 view .LVU192
 653              		.loc 1 246 3 view .LVU193
 654              		.loc 1 246 3 view .LVU194
 655              		.loc 1 249 3 view .LVU195
 656              		.loc 1 249 6 is_stmt 0 view .LVU196
 657 0000 037D     		ldrb	r3, [r0, #20]	@ zero_extendqisi2
 658 0002 EBB9     		cbnz	r3, .L24
 659              		.loc 1 254 3 is_stmt 1 view .LVU197
 660              	.LVL32:
 661              	.LBB178:
 662              	.LBI178:
 663              		.loc 7 167 22 view .LVU198
 664              	.LBE178:
 665              		.loc 7 169 21 view .LVU199
 666              		.loc 7 171 3 view .LVU200
 667              	.LBB187:
 668              	.LBB179:
 669              	.LBI179:
 670              		.loc 7 136 22 view .LVU201
 671              	.LBB180:
 672              		.loc 7 140 3 view .LVU202
 673              	.LBE180:
 674              	.LBE179:
 675              	.LBE187:
 676              		.loc 1 243 44 is_stmt 0 view .LVU203
 677 0004 70B5     		push	{r4, r5, r6, lr}
 678              		.cfi_def_cfa_offset 16
 679              		.cfi_offset 4, -16
 680              		.cfi_offset 5, -12
 681              		.cfi_offset 6, -8
 682              		.cfi_offset 14, -4
 683              	.LBB188:
 684              	.LBB183:
ARM GAS  /tmp/ccRHzBk5.s 			page 13


 685              	.LBB181:
 686              		.loc 7 140 33 view .LVU204
 687 0006 D0E90062 		ldrd	r6, r2, [r0]
 688              	.LVL33:
 689              		.loc 7 140 33 view .LVU205
 690              	.LBE181:
 691              	.LBE183:
 692              	.LBB184:
 693              	.LBI184:
 694              		.loc 7 152 22 is_stmt 1 view .LVU206
 695              	.LBB185:
 696              		.loc 7 154 21 view .LVU207
 697              		.loc 7 156 3 view .LVU208
 698              		.loc 7 156 13 is_stmt 0 view .LVU209
 699 000a 0369     		ldr	r3, [r0, #16]
 700              	.LVL34:
 701              		.loc 7 156 13 view .LVU210
 702              	.LBE185:
 703              	.LBE184:
 704              	.LBB186:
 705              	.LBB182:
 706              		.loc 7 140 28 view .LVU211
 707 000c 941B     		subs	r4, r2, r6
 708              	.LBE182:
 709              	.LBE186:
 710              	.LBE188:
 711              		.loc 1 254 6 view .LVU212
 712 000e B3EBA40F 		cmp	r3, r4, asr #2
 713 0012 12D0     		beq	.L25
 714              		.loc 1 255 5 is_stmt 1 view .LVU213
 715              		.loc 1 255 9 is_stmt 0 view .LVU214
 716 0014 8568     		ldr	r5, [r0, #8]
 717              		.loc 1 255 16 view .LVU215
 718 0016 2C1D     		adds	r4, r5, #4
 719              		.loc 1 256 8 view .LVU216
 720 0018 9442     		cmp	r4, r2
 721              		.loc 1 259 13 view .LVU217
 722 001a 03F10103 		add	r3, r3, #1
 723              		.loc 1 255 16 view .LVU218
 724 001e 8460     		str	r4, [r0, #8]
 725              		.loc 1 255 19 view .LVU219
 726 0020 2960     		str	r1, [r5]
 727              		.loc 1 256 5 is_stmt 1 view .LVU220
 728              		.loc 1 257 7 view .LVU221
 729              		.loc 1 259 5 view .LVU222
 730              		.loc 1 262 5 is_stmt 0 view .LVU223
 731 0022 00F12000 		add	r0, r0, #32
 732              	.LVL35:
 733              		.loc 1 257 18 view .LVU224
 734 0026 28BF     		it	cs
 735 0028 40F8186C 		strcs	r6, [r0, #-24]
 736              		.loc 1 259 13 view .LVU225
 737 002c 40F8103C 		str	r3, [r0, #-16]
 738              		.loc 1 262 5 is_stmt 1 view .LVU226
 739 0030 0021     		movs	r1, #0
 740              	.LVL36:
 741              		.loc 1 262 5 is_stmt 0 view .LVU227
ARM GAS  /tmp/ccRHzBk5.s 			page 14


 742 0032 FFF7FEFF 		bl	chThdDequeueNextI
 743              	.LVL37:
 744              		.loc 1 264 5 is_stmt 1 view .LVU228
 745              		.loc 1 264 12 is_stmt 0 view .LVU229
 746 0036 0020     		movs	r0, #0
 747              		.loc 1 269 1 view .LVU230
 748 0038 70BD     		pop	{r4, r5, r6, pc}
 749              	.LVL38:
 750              	.L25:
 751              		.loc 1 268 10 view .LVU231
 752 003a 4FF0FF30 		mov	r0, #-1
 753              	.LVL39:
 754              		.loc 1 269 1 view .LVU232
 755 003e 70BD     		pop	{r4, r5, r6, pc}
 756              	.LVL40:
 757              	.L24:
 758              		.cfi_def_cfa_offset 0
 759              		.cfi_restore 4
 760              		.cfi_restore 5
 761              		.cfi_restore 6
 762              		.cfi_restore 14
 763              		.loc 1 250 12 view .LVU233
 764 0040 6FF00100 		mvn	r0, #1
 765              	.LVL41:
 766              		.loc 1 269 1 view .LVU234
 767 0044 7047     		bx	lr
 768              		.cfi_endproc
 769              	.LFE340:
 770              		.size	chMBPostI, .-chMBPostI
 771 0046 00BF     		.section	.text.chMBPostAheadTimeoutS,"ax",%progbits
 772              		.align	1
 773              		.p2align 4,,15
 774              		.global	chMBPostAheadTimeoutS
 775              		.syntax unified
 776              		.thumb
 777              		.thumb_func
 778              		.fpu softvfp
 779              		.type	chMBPostAheadTimeoutS, %function
 780              	chMBPostAheadTimeoutS:
 781              	.LVL42:
 782              	.LFB342:
 783              		.loc 1 319 79 is_stmt 1 view -0
 784              		.cfi_startproc
 785              		@ args = 0, pretend = 0, frame = 0
 786              		@ frame_needed = 0, uses_anonymous_args = 0
 787              		.loc 1 320 3 view .LVU236
 788              		.loc 1 322 21 view .LVU237
 789              		.loc 1 323 3 view .LVU238
 790              		.loc 1 323 3 view .LVU239
 791              		.loc 1 319 79 is_stmt 0 view .LVU240
 792 0000 2DE9F843 		push	{r3, r4, r5, r6, r7, r8, r9, lr}
 793              		.cfi_def_cfa_offset 32
 794              		.cfi_offset 3, -32
 795              		.cfi_offset 4, -28
 796              		.cfi_offset 5, -24
 797              		.cfi_offset 6, -20
 798              		.cfi_offset 7, -16
ARM GAS  /tmp/ccRHzBk5.s 			page 15


 799              		.cfi_offset 8, -12
 800              		.cfi_offset 9, -8
 801              		.cfi_offset 14, -4
 802              		.loc 1 319 79 view .LVU241
 803 0004 0446     		mov	r4, r0
 804 0006 0E46     		mov	r6, r1
 805 0008 9046     		mov	r8, r2
 806              		.loc 1 347 14 view .LVU242
 807 000a 00F11809 		add	r9, r0, #24
 808 000e 09E0     		b	.L35
 809              	.LVL43:
 810              	.L42:
 811              	.LBB189:
 812              	.LBB190:
 813              	.LBB191:
 814              		.loc 7 140 33 view .LVU243
 815 0010 D4E90057 		ldrd	r5, r7, [r4]
 816              	.LVL44:
 817              		.loc 7 140 33 view .LVU244
 818              	.LBE191:
 819              	.LBE190:
 820              	.LBB194:
 821              	.LBI194:
 822              		.loc 7 152 22 is_stmt 1 view .LVU245
 823              	.LBB195:
 824              		.loc 7 154 21 view .LVU246
 825              		.loc 7 156 3 view .LVU247
 826              		.loc 7 156 13 is_stmt 0 view .LVU248
 827 0014 2369     		ldr	r3, [r4, #16]
 828              	.LVL45:
 829              		.loc 7 156 13 view .LVU249
 830              	.LBE195:
 831              	.LBE194:
 832              	.LBB196:
 833              	.LBB192:
 834              		.loc 7 140 28 view .LVU250
 835 0016 7A1B     		subs	r2, r7, r5
 836              	.LBE192:
 837              	.LBE196:
 838              	.LBE189:
 839              		.loc 1 332 8 view .LVU251
 840 0018 B3EBA20F 		cmp	r3, r2, asr #2
 841 001c 0BD1     		bne	.L41
 842              		.loc 1 347 14 view .LVU252
 843 001e FFF7FEFF 		bl	chThdEnqueueTimeoutS
 844              	.LVL46:
 845              		.loc 1 348 11 is_stmt 1 view .LVU253
 846              		.loc 1 348 3 is_stmt 0 view .LVU254
 847 0022 30B9     		cbnz	r0, .L30
 848              	.LVL47:
 849              	.L35:
 850              		.loc 1 323 3 is_stmt 1 discriminator 5 view .LVU255
 851              		.loc 1 325 3 discriminator 5 view .LVU256
 852              		.loc 1 327 5 discriminator 5 view .LVU257
 853              		.loc 1 332 5 discriminator 5 view .LVU258
 854              	.LBB198:
 855              	.LBI189:
ARM GAS  /tmp/ccRHzBk5.s 			page 16


 856              		.loc 7 167 22 discriminator 5 view .LVU259
 857              	.LBE198:
 858              		.loc 7 169 21 discriminator 5 view .LVU260
 859              		.loc 7 171 3 discriminator 5 view .LVU261
 860              	.LBB199:
 861              	.LBB197:
 862              	.LBI190:
 863              		.loc 7 136 22 discriminator 5 view .LVU262
 864              	.LBB193:
 865              		.loc 7 140 3 discriminator 5 view .LVU263
 866              	.LBE193:
 867              	.LBE197:
 868              	.LBE199:
 869              		.loc 1 347 5 discriminator 5 view .LVU264
 870              		.loc 1 327 8 is_stmt 0 discriminator 5 view .LVU265
 871 0024 237D     		ldrb	r3, [r4, #20]	@ zero_extendqisi2
 872              		.loc 1 347 14 discriminator 5 view .LVU266
 873 0026 4146     		mov	r1, r8
 874 0028 4846     		mov	r0, r9
 875              		.loc 1 327 8 discriminator 5 view .LVU267
 876 002a 002B     		cmp	r3, #0
 877 002c F0D0     		beq	.L42
 878              	.LVL48:
 879              		.loc 1 328 14 view .LVU268
 880 002e 6FF00100 		mvn	r0, #1
 881              	.LVL49:
 882              	.L30:
 883              		.loc 1 351 1 view .LVU269
 884 0032 BDE8F883 		pop	{r3, r4, r5, r6, r7, r8, r9, pc}
 885              	.LVL50:
 886              	.L41:
 887              		.loc 1 333 7 is_stmt 1 view .LVU270
 888              		.loc 1 333 11 is_stmt 0 view .LVU271
 889 0036 E268     		ldr	r2, [r4, #12]
 890 0038 043A     		subs	r2, r2, #4
 891              		.loc 1 333 10 view .LVU272
 892 003a AA42     		cmp	r2, r5
 893              		.loc 1 334 9 is_stmt 1 view .LVU273
 894              		.loc 1 336 7 view .LVU274
 895              		.loc 1 334 31 is_stmt 0 view .LVU275
 896 003c 38BF     		it	cc
 897 003e 3A1F     		subcc	r2, r7, #4
 898              		.loc 1 337 15 view .LVU276
 899 0040 0133     		adds	r3, r3, #1
 900              		.loc 1 334 20 view .LVU277
 901 0042 E260     		str	r2, [r4, #12]
 902              		.loc 1 340 7 view .LVU278
 903 0044 04F12000 		add	r0, r4, #32
 904              		.loc 1 336 19 view .LVU279
 905 0048 1660     		str	r6, [r2]
 906              		.loc 1 337 7 is_stmt 1 view .LVU280
 907              		.loc 1 340 7 is_stmt 0 view .LVU281
 908 004a 0021     		movs	r1, #0
 909              	.LVL51:
 910              		.loc 1 337 15 view .LVU282
 911 004c 2361     		str	r3, [r4, #16]
 912              		.loc 1 340 7 is_stmt 1 view .LVU283
ARM GAS  /tmp/ccRHzBk5.s 			page 17


 913 004e FFF7FEFF 		bl	chThdDequeueNextI
 914              	.LVL52:
 915              		.loc 1 341 7 view .LVU284
 916 0052 FFF7FEFF 		bl	chSchRescheduleS
 917              	.LVL53:
 918              		.loc 1 343 7 view .LVU285
 919              		.loc 1 343 14 is_stmt 0 view .LVU286
 920 0056 0020     		movs	r0, #0
 921              		.loc 1 351 1 view .LVU287
 922 0058 BDE8F883 		pop	{r3, r4, r5, r6, r7, r8, r9, pc}
 923              		.loc 1 351 1 view .LVU288
 924              		.cfi_endproc
 925              	.LFE342:
 926              		.size	chMBPostAheadTimeoutS, .-chMBPostAheadTimeoutS
 927              		.section	.text.chMBPostAheadTimeout,"ax",%progbits
 928              		.align	1
 929              		.p2align 4,,15
 930              		.global	chMBPostAheadTimeout
 931              		.syntax unified
 932              		.thumb
 933              		.thumb_func
 934              		.fpu softvfp
 935              		.type	chMBPostAheadTimeout, %function
 936              	chMBPostAheadTimeout:
 937              	.LVL54:
 938              	.LFB341:
 939              		.loc 1 290 78 is_stmt 1 view -0
 940              		.cfi_startproc
 941              		@ args = 0, pretend = 0, frame = 0
 942              		@ frame_needed = 0, uses_anonymous_args = 0
 943              		.loc 1 291 3 view .LVU290
 944              		.loc 1 293 3 view .LVU291
 945              	.LBB200:
 946              	.LBI200:
 947              		.loc 4 407 20 view .LVU292
 948              	.LBE200:
 949              		.loc 4 409 3 view .LVU293
 950              	.LBB208:
 951              	.LBB201:
 952              	.LBI201:
 953              		.loc 5 806 27 view .LVU294
 954              	.LBE201:
 955              	.LBE208:
 956              		.loc 5 814 3 view .LVU295
 957              	.LBB209:
 958              	.LBB206:
 959              	.LBB202:
 960              	.LBI202:
 961              		.loc 6 491 27 view .LVU296
 962              	.LBB203:
 963              		.loc 6 493 3 view .LVU297
 964              	.LBE203:
 965              	.LBE202:
 966              	.LBE206:
 967              	.LBE209:
 968              		.loc 1 290 78 is_stmt 0 view .LVU298
 969 0000 08B5     		push	{r3, lr}
ARM GAS  /tmp/ccRHzBk5.s 			page 18


 970              		.cfi_def_cfa_offset 8
 971              		.cfi_offset 3, -8
 972              		.cfi_offset 14, -4
 973              	.LBB210:
 974              	.LBB207:
 975              	.LBB205:
 976              	.LBB204:
 977              		.loc 6 493 3 view .LVU299
 978 0002 3023     		movs	r3, #48
 979              		.syntax unified
 980              	@ 493 "../ChibiOS/os/common/ext/ARM/CMSIS/Core/Include/cmsis_gcc.h" 1
 981 0004 83F31188 		MSR basepri, r3
 982              	@ 0 "" 2
 983              	.LVL55:
 984              		.loc 6 493 3 view .LVU300
 985              		.thumb
 986              		.syntax unified
 987              	.LBE204:
 988              	.LBE205:
 989              	.LBE207:
 990              	.LBE210:
 991              		.loc 4 410 35 is_stmt 1 view .LVU301
 992              		.loc 4 411 21 view .LVU302
 993              		.loc 1 294 3 view .LVU303
 994              		.loc 1 294 12 is_stmt 0 view .LVU304
 995 0008 FFF7FEFF 		bl	chMBPostAheadTimeoutS
 996              	.LVL56:
 997              		.loc 1 295 3 is_stmt 1 view .LVU305
 998              	.LBB211:
 999              	.LBI211:
 1000              		.loc 4 421 20 view .LVU306
 1001              	.LBB212:
 1002              		.loc 4 423 23 view .LVU307
 1003              		.loc 4 424 34 view .LVU308
 1004              		.loc 4 430 3 view .LVU309
 1005              		.loc 4 430 3 view .LVU310
 1006              		.loc 4 430 3 view .LVU311
 1007              		.loc 4 434 3 view .LVU312
 1008              	.LBB213:
 1009              	.LBI213:
 1010              		.loc 5 830 27 view .LVU313
 1011              	.LBE213:
 1012              	.LBE212:
 1013              	.LBE211:
 1014              		.loc 5 833 3 view .LVU314
 1015              	.LBB218:
 1016              	.LBB217:
 1017              	.LBB216:
 1018              	.LBB214:
 1019              	.LBI214:
 1020              		.loc 6 491 27 view .LVU315
 1021              	.LBB215:
 1022              		.loc 6 493 3 view .LVU316
 1023 000c 0023     		movs	r3, #0
 1024              		.syntax unified
 1025              	@ 493 "../ChibiOS/os/common/ext/ARM/CMSIS/Core/Include/cmsis_gcc.h" 1
 1026 000e 83F31188 		MSR basepri, r3
ARM GAS  /tmp/ccRHzBk5.s 			page 19


 1027              	@ 0 "" 2
 1028              	.LVL57:
 1029              		.loc 6 493 3 is_stmt 0 view .LVU317
 1030              		.thumb
 1031              		.syntax unified
 1032              	.LBE215:
 1033              	.LBE214:
 1034              	.LBE216:
 1035              	.LBE217:
 1036              	.LBE218:
 1037              		.loc 1 297 3 is_stmt 1 view .LVU318
 1038              		.loc 1 298 1 is_stmt 0 view .LVU319
 1039 0012 08BD     		pop	{r3, pc}
 1040              		.cfi_endproc
 1041              	.LFE341:
 1042              		.size	chMBPostAheadTimeout, .-chMBPostAheadTimeout
 1043              		.section	.text.chMBPostAheadI,"ax",%progbits
 1044              		.align	1
 1045              		.p2align 4,,15
 1046              		.global	chMBPostAheadI
 1047              		.syntax unified
 1048              		.thumb
 1049              		.thumb_func
 1050              		.fpu softvfp
 1051              		.type	chMBPostAheadI, %function
 1052              	chMBPostAheadI:
 1053              	.LVL58:
 1054              	.LFB343:
 1055              		.loc 1 368 49 is_stmt 1 view -0
 1056              		.cfi_startproc
 1057              		@ args = 0, pretend = 0, frame = 0
 1058              		@ frame_needed = 0, uses_anonymous_args = 0
 1059              		.loc 1 370 21 view .LVU321
 1060              		.loc 1 371 3 view .LVU322
 1061              		.loc 1 371 3 view .LVU323
 1062              		.loc 1 371 3 view .LVU324
 1063              		.loc 1 374 3 view .LVU325
 1064              		.loc 1 368 49 is_stmt 0 view .LVU326
 1065 0000 38B5     		push	{r3, r4, r5, lr}
 1066              		.cfi_def_cfa_offset 16
 1067              		.cfi_offset 3, -16
 1068              		.cfi_offset 4, -12
 1069              		.cfi_offset 5, -8
 1070              		.cfi_offset 14, -4
 1071              		.loc 1 374 6 view .LVU327
 1072 0002 037D     		ldrb	r3, [r0, #20]	@ zero_extendqisi2
 1073 0004 CBB9     		cbnz	r3, .L49
 1074              		.loc 1 379 3 is_stmt 1 view .LVU328
 1075              	.LVL59:
 1076              	.LBB219:
 1077              	.LBI219:
 1078              		.loc 7 167 22 view .LVU329
 1079              	.LBE219:
 1080              		.loc 7 169 21 view .LVU330
 1081              		.loc 7 171 3 view .LVU331
 1082              	.LBB226:
 1083              	.LBB220:
ARM GAS  /tmp/ccRHzBk5.s 			page 20


 1084              	.LBI220:
 1085              		.loc 7 136 22 view .LVU332
 1086              	.LBB221:
 1087              		.loc 7 140 3 view .LVU333
 1088              		.loc 7 140 33 is_stmt 0 view .LVU334
 1089 0006 D0E90045 		ldrd	r4, r5, [r0]
 1090              	.LVL60:
 1091              		.loc 7 140 33 view .LVU335
 1092              	.LBE221:
 1093              	.LBE220:
 1094              	.LBB223:
 1095              	.LBI223:
 1096              		.loc 7 152 22 is_stmt 1 view .LVU336
 1097              	.LBB224:
 1098              		.loc 7 154 21 view .LVU337
 1099              		.loc 7 156 3 view .LVU338
 1100              		.loc 7 156 13 is_stmt 0 view .LVU339
 1101 000a 0269     		ldr	r2, [r0, #16]
 1102              	.LVL61:
 1103              		.loc 7 156 13 view .LVU340
 1104              	.LBE224:
 1105              	.LBE223:
 1106              	.LBB225:
 1107              	.LBB222:
 1108              		.loc 7 140 28 view .LVU341
 1109 000c 2B1B     		subs	r3, r5, r4
 1110              	.LBE222:
 1111              	.LBE225:
 1112              	.LBE226:
 1113              		.loc 1 379 6 view .LVU342
 1114 000e B2EBA30F 		cmp	r2, r3, asr #2
 1115 0012 0FD0     		beq	.L50
 1116              		.loc 1 380 5 is_stmt 1 view .LVU343
 1117              		.loc 1 380 9 is_stmt 0 view .LVU344
 1118 0014 C368     		ldr	r3, [r0, #12]
 1119 0016 043B     		subs	r3, r3, #4
 1120              		.loc 1 380 8 view .LVU345
 1121 0018 A342     		cmp	r3, r4
 1122              		.loc 1 381 7 is_stmt 1 view .LVU346
 1123              		.loc 1 383 5 view .LVU347
 1124              		.loc 1 381 29 is_stmt 0 view .LVU348
 1125 001a 38BF     		it	cc
 1126 001c 2B1F     		subcc	r3, r5, #4
 1127              		.loc 1 384 13 view .LVU349
 1128 001e 0132     		adds	r2, r2, #1
 1129              		.loc 1 381 18 view .LVU350
 1130 0020 C360     		str	r3, [r0, #12]
 1131              		.loc 1 383 17 view .LVU351
 1132 0022 1960     		str	r1, [r3]
 1133              		.loc 1 384 5 is_stmt 1 view .LVU352
 1134              		.loc 1 387 5 is_stmt 0 view .LVU353
 1135 0024 2030     		adds	r0, r0, #32
 1136              	.LVL62:
 1137              		.loc 1 384 13 view .LVU354
 1138 0026 40F8102C 		str	r2, [r0, #-16]
 1139              		.loc 1 387 5 is_stmt 1 view .LVU355
 1140 002a 0021     		movs	r1, #0
ARM GAS  /tmp/ccRHzBk5.s 			page 21


 1141              	.LVL63:
 1142              		.loc 1 387 5 is_stmt 0 view .LVU356
 1143 002c FFF7FEFF 		bl	chThdDequeueNextI
 1144              	.LVL64:
 1145              		.loc 1 389 5 is_stmt 1 view .LVU357
 1146              		.loc 1 389 12 is_stmt 0 view .LVU358
 1147 0030 0020     		movs	r0, #0
 1148              		.loc 1 394 1 view .LVU359
 1149 0032 38BD     		pop	{r3, r4, r5, pc}
 1150              	.LVL65:
 1151              	.L50:
 1152              		.loc 1 393 10 view .LVU360
 1153 0034 4FF0FF30 		mov	r0, #-1
 1154              	.LVL66:
 1155              		.loc 1 394 1 view .LVU361
 1156 0038 38BD     		pop	{r3, r4, r5, pc}
 1157              	.LVL67:
 1158              	.L49:
 1159              		.loc 1 375 12 view .LVU362
 1160 003a 6FF00100 		mvn	r0, #1
 1161              	.LVL68:
 1162              		.loc 1 394 1 view .LVU363
 1163 003e 38BD     		pop	{r3, r4, r5, pc}
 1164              		.cfi_endproc
 1165              	.LFE343:
 1166              		.size	chMBPostAheadI, .-chMBPostAheadI
 1167              		.section	.text.chMBFetchTimeoutS,"ax",%progbits
 1168              		.align	1
 1169              		.p2align 4,,15
 1170              		.global	chMBFetchTimeoutS
 1171              		.syntax unified
 1172              		.thumb
 1173              		.thumb_func
 1174              		.fpu softvfp
 1175              		.type	chMBFetchTimeoutS, %function
 1176              	chMBFetchTimeoutS:
 1177              	.LVL69:
 1178              	.LFB345:
 1179              		.loc 1 444 77 is_stmt 1 view -0
 1180              		.cfi_startproc
 1181              		@ args = 0, pretend = 0, frame = 0
 1182              		@ frame_needed = 0, uses_anonymous_args = 0
 1183              		.loc 1 445 3 view .LVU365
 1184              		.loc 1 447 21 view .LVU366
 1185              		.loc 1 448 3 view .LVU367
 1186              		.loc 1 448 3 view .LVU368
 1187              		.loc 1 444 77 is_stmt 0 view .LVU369
 1188 0000 F8B5     		push	{r3, r4, r5, r6, r7, lr}
 1189              		.cfi_def_cfa_offset 24
 1190              		.cfi_offset 3, -24
 1191              		.cfi_offset 4, -20
 1192              		.cfi_offset 5, -16
 1193              		.cfi_offset 6, -12
 1194              		.cfi_offset 7, -8
 1195              		.cfi_offset 14, -4
 1196              		.loc 1 444 77 view .LVU370
 1197 0002 0446     		mov	r4, r0
ARM GAS  /tmp/ccRHzBk5.s 			page 22


 1198 0004 0E46     		mov	r6, r1
 1199 0006 1546     		mov	r5, r2
 1200              		.loc 1 472 14 view .LVU371
 1201 0008 00F12007 		add	r7, r0, #32
 1202 000c 04E0     		b	.L57
 1203              	.LVL70:
 1204              	.L63:
 1205              	.LBB227:
 1206              	.LBB228:
 1207              		.loc 7 156 13 view .LVU372
 1208 000e 2369     		ldr	r3, [r4, #16]
 1209              	.LVL71:
 1210              		.loc 7 156 13 view .LVU373
 1211              	.LBE228:
 1212              	.LBE227:
 1213              		.loc 1 457 8 view .LVU374
 1214 0010 53B9     		cbnz	r3, .L62
 1215              		.loc 1 472 14 view .LVU375
 1216 0012 FFF7FEFF 		bl	chThdEnqueueTimeoutS
 1217              	.LVL72:
 1218              		.loc 1 473 11 is_stmt 1 view .LVU376
 1219              		.loc 1 473 3 is_stmt 0 view .LVU377
 1220 0016 30B9     		cbnz	r0, .L53
 1221              	.LVL73:
 1222              	.L57:
 1223              		.loc 1 448 3 is_stmt 1 discriminator 7 view .LVU378
 1224              		.loc 1 450 3 discriminator 7 view .LVU379
 1225              		.loc 1 452 5 discriminator 7 view .LVU380
 1226              		.loc 1 457 5 discriminator 7 view .LVU381
 1227              	.LBB230:
 1228              	.LBI227:
 1229              		.loc 7 152 22 discriminator 7 view .LVU382
 1230              	.LBB229:
 1231              		.loc 7 154 21 discriminator 7 view .LVU383
 1232              		.loc 7 156 3 discriminator 7 view .LVU384
 1233              	.LBE229:
 1234              	.LBE230:
 1235              		.loc 1 472 5 discriminator 7 view .LVU385
 1236              		.loc 1 452 8 is_stmt 0 discriminator 7 view .LVU386
 1237 0018 237D     		ldrb	r3, [r4, #20]	@ zero_extendqisi2
 1238              		.loc 1 472 14 discriminator 7 view .LVU387
 1239 001a 2946     		mov	r1, r5
 1240 001c 3846     		mov	r0, r7
 1241              		.loc 1 452 8 discriminator 7 view .LVU388
 1242 001e 002B     		cmp	r3, #0
 1243 0020 F5D0     		beq	.L63
 1244              	.LVL74:
 1245              		.loc 1 453 14 view .LVU389
 1246 0022 6FF00100 		mvn	r0, #1
 1247              	.LVL75:
 1248              	.L53:
 1249              		.loc 1 476 1 view .LVU390
 1250 0026 F8BD     		pop	{r3, r4, r5, r6, r7, pc}
 1251              	.LVL76:
 1252              	.L62:
 1253              		.loc 1 458 7 is_stmt 1 view .LVU391
 1254              		.loc 1 458 19 is_stmt 0 view .LVU392
ARM GAS  /tmp/ccRHzBk5.s 			page 23


 1255 0028 E168     		ldr	r1, [r4, #12]
 1256              	.LVL77:
 1257              		.loc 1 458 26 view .LVU393
 1258 002a 0A1D     		adds	r2, r1, #4
 1259              		.loc 1 458 15 view .LVU394
 1260 002c 0968     		ldr	r1, [r1]
 1261              		.loc 1 458 26 view .LVU395
 1262 002e E260     		str	r2, [r4, #12]
 1263              		.loc 1 458 13 view .LVU396
 1264 0030 3160     		str	r1, [r6]
 1265              		.loc 1 459 7 is_stmt 1 view .LVU397
 1266              		.loc 1 459 10 is_stmt 0 view .LVU398
 1267 0032 6168     		ldr	r1, [r4, #4]
 1268 0034 8A42     		cmp	r2, r1
 1269              		.loc 1 460 9 is_stmt 1 view .LVU399
 1270              		.loc 1 462 7 view .LVU400
 1271              		.loc 1 460 20 is_stmt 0 view .LVU401
 1272 0036 24BF     		itt	cs
 1273 0038 2268     		ldrcs	r2, [r4]
 1274 003a E260     		strcs	r2, [r4, #12]
 1275              		.loc 1 462 15 view .LVU402
 1276 003c 013B     		subs	r3, r3, #1
 1277              		.loc 1 465 7 view .LVU403
 1278 003e 04F11800 		add	r0, r4, #24
 1279 0042 0021     		movs	r1, #0
 1280              		.loc 1 462 15 view .LVU404
 1281 0044 2361     		str	r3, [r4, #16]
 1282              		.loc 1 465 7 is_stmt 1 view .LVU405
 1283 0046 FFF7FEFF 		bl	chThdDequeueNextI
 1284              	.LVL78:
 1285              		.loc 1 466 7 view .LVU406
 1286 004a FFF7FEFF 		bl	chSchRescheduleS
 1287              	.LVL79:
 1288              		.loc 1 468 7 view .LVU407
 1289              		.loc 1 468 14 is_stmt 0 view .LVU408
 1290 004e 0020     		movs	r0, #0
 1291              		.loc 1 476 1 view .LVU409
 1292 0050 F8BD     		pop	{r3, r4, r5, r6, r7, pc}
 1293              		.loc 1 476 1 view .LVU410
 1294              		.cfi_endproc
 1295              	.LFE345:
 1296              		.size	chMBFetchTimeoutS, .-chMBFetchTimeoutS
 1297 0052 00BF     		.section	.text.chMBFetchTimeout,"ax",%progbits
 1298              		.align	1
 1299              		.p2align 4,,15
 1300              		.global	chMBFetchTimeout
 1301              		.syntax unified
 1302              		.thumb
 1303              		.thumb_func
 1304              		.fpu softvfp
 1305              		.type	chMBFetchTimeout, %function
 1306              	chMBFetchTimeout:
 1307              	.LVL80:
 1308              	.LFB344:
 1309              		.loc 1 415 76 is_stmt 1 view -0
 1310              		.cfi_startproc
 1311              		@ args = 0, pretend = 0, frame = 0
ARM GAS  /tmp/ccRHzBk5.s 			page 24


 1312              		@ frame_needed = 0, uses_anonymous_args = 0
 1313              		.loc 1 416 3 view .LVU412
 1314              		.loc 1 418 3 view .LVU413
 1315              	.LBB231:
 1316              	.LBI231:
 1317              		.loc 4 407 20 view .LVU414
 1318              	.LBE231:
 1319              		.loc 4 409 3 view .LVU415
 1320              	.LBB239:
 1321              	.LBB232:
 1322              	.LBI232:
 1323              		.loc 5 806 27 view .LVU416
 1324              	.LBE232:
 1325              	.LBE239:
 1326              		.loc 5 814 3 view .LVU417
 1327              	.LBB240:
 1328              	.LBB237:
 1329              	.LBB233:
 1330              	.LBI233:
 1331              		.loc 6 491 27 view .LVU418
 1332              	.LBB234:
 1333              		.loc 6 493 3 view .LVU419
 1334              	.LBE234:
 1335              	.LBE233:
 1336              	.LBE237:
 1337              	.LBE240:
 1338              		.loc 1 415 76 is_stmt 0 view .LVU420
 1339 0000 08B5     		push	{r3, lr}
 1340              		.cfi_def_cfa_offset 8
 1341              		.cfi_offset 3, -8
 1342              		.cfi_offset 14, -4
 1343              	.LBB241:
 1344              	.LBB238:
 1345              	.LBB236:
 1346              	.LBB235:
 1347              		.loc 6 493 3 view .LVU421
 1348 0002 3023     		movs	r3, #48
 1349              		.syntax unified
 1350              	@ 493 "../ChibiOS/os/common/ext/ARM/CMSIS/Core/Include/cmsis_gcc.h" 1
 1351 0004 83F31188 		MSR basepri, r3
 1352              	@ 0 "" 2
 1353              	.LVL81:
 1354              		.loc 6 493 3 view .LVU422
 1355              		.thumb
 1356              		.syntax unified
 1357              	.LBE235:
 1358              	.LBE236:
 1359              	.LBE238:
 1360              	.LBE241:
 1361              		.loc 4 410 35 is_stmt 1 view .LVU423
 1362              		.loc 4 411 21 view .LVU424
 1363              		.loc 1 419 3 view .LVU425
 1364              		.loc 1 419 12 is_stmt 0 view .LVU426
 1365 0008 FFF7FEFF 		bl	chMBFetchTimeoutS
 1366              	.LVL82:
 1367              		.loc 1 420 3 is_stmt 1 view .LVU427
 1368              	.LBB242:
ARM GAS  /tmp/ccRHzBk5.s 			page 25


 1369              	.LBI242:
 1370              		.loc 4 421 20 view .LVU428
 1371              	.LBB243:
 1372              		.loc 4 423 23 view .LVU429
 1373              		.loc 4 424 34 view .LVU430
 1374              		.loc 4 430 3 view .LVU431
 1375              		.loc 4 430 3 view .LVU432
 1376              		.loc 4 430 3 view .LVU433
 1377              		.loc 4 434 3 view .LVU434
 1378              	.LBB244:
 1379              	.LBI244:
 1380              		.loc 5 830 27 view .LVU435
 1381              	.LBE244:
 1382              	.LBE243:
 1383              	.LBE242:
 1384              		.loc 5 833 3 view .LVU436
 1385              	.LBB249:
 1386              	.LBB248:
 1387              	.LBB247:
 1388              	.LBB245:
 1389              	.LBI245:
 1390              		.loc 6 491 27 view .LVU437
 1391              	.LBB246:
 1392              		.loc 6 493 3 view .LVU438
 1393 000c 0023     		movs	r3, #0
 1394              		.syntax unified
 1395              	@ 493 "../ChibiOS/os/common/ext/ARM/CMSIS/Core/Include/cmsis_gcc.h" 1
 1396 000e 83F31188 		MSR basepri, r3
 1397              	@ 0 "" 2
 1398              	.LVL83:
 1399              		.loc 6 493 3 is_stmt 0 view .LVU439
 1400              		.thumb
 1401              		.syntax unified
 1402              	.LBE246:
 1403              	.LBE245:
 1404              	.LBE247:
 1405              	.LBE248:
 1406              	.LBE249:
 1407              		.loc 1 422 3 is_stmt 1 view .LVU440
 1408              		.loc 1 423 1 is_stmt 0 view .LVU441
 1409 0012 08BD     		pop	{r3, pc}
 1410              		.cfi_endproc
 1411              	.LFE344:
 1412              		.size	chMBFetchTimeout, .-chMBFetchTimeout
 1413              		.section	.text.chMBFetchI,"ax",%progbits
 1414              		.align	1
 1415              		.p2align 4,,15
 1416              		.global	chMBFetchI
 1417              		.syntax unified
 1418              		.thumb
 1419              		.thumb_func
 1420              		.fpu softvfp
 1421              		.type	chMBFetchI, %function
 1422              	chMBFetchI:
 1423              	.LVL84:
 1424              	.LFB346:
 1425              		.loc 1 493 47 is_stmt 1 view -0
ARM GAS  /tmp/ccRHzBk5.s 			page 26


 1426              		.cfi_startproc
 1427              		@ args = 0, pretend = 0, frame = 0
 1428              		@ frame_needed = 0, uses_anonymous_args = 0
 1429              		.loc 1 495 21 view .LVU443
 1430              		.loc 1 496 3 view .LVU444
 1431              		.loc 1 496 3 view .LVU445
 1432              		.loc 1 496 3 view .LVU446
 1433              		.loc 1 499 3 view .LVU447
 1434              		.loc 1 499 6 is_stmt 0 view .LVU448
 1435 0000 037D     		ldrb	r3, [r0, #20]	@ zero_extendqisi2
 1436 0002 BBB9     		cbnz	r3, .L69
 1437              		.loc 1 504 3 is_stmt 1 view .LVU449
 1438              	.LVL85:
 1439              	.LBB250:
 1440              	.LBI250:
 1441              		.loc 7 152 22 view .LVU450
 1442              	.LBB251:
 1443              		.loc 7 154 21 view .LVU451
 1444              		.loc 7 156 3 view .LVU452
 1445              		.loc 7 156 13 is_stmt 0 view .LVU453
 1446 0004 0369     		ldr	r3, [r0, #16]
 1447              	.LVL86:
 1448              		.loc 7 156 13 view .LVU454
 1449              	.LBE251:
 1450              	.LBE250:
 1451              		.loc 1 504 6 view .LVU455
 1452 0006 93B1     		cbz	r3, .L70
 1453              		.loc 1 505 5 is_stmt 1 view .LVU456
 1454              		.loc 1 493 47 is_stmt 0 view .LVU457
 1455 0008 10B5     		push	{r4, lr}
 1456              		.cfi_def_cfa_offset 8
 1457              		.cfi_offset 4, -8
 1458              		.cfi_offset 14, -4
 1459              		.loc 1 505 17 view .LVU458
 1460 000a C468     		ldr	r4, [r0, #12]
 1461              		.loc 1 505 24 view .LVU459
 1462 000c 221D     		adds	r2, r4, #4
 1463              		.loc 1 505 13 view .LVU460
 1464 000e 2468     		ldr	r4, [r4]
 1465              		.loc 1 505 24 view .LVU461
 1466 0010 C260     		str	r2, [r0, #12]
 1467              		.loc 1 505 11 view .LVU462
 1468 0012 0C60     		str	r4, [r1]
 1469              		.loc 1 506 5 is_stmt 1 view .LVU463
 1470              		.loc 1 506 8 is_stmt 0 view .LVU464
 1471 0014 4168     		ldr	r1, [r0, #4]
 1472              	.LVL87:
 1473              		.loc 1 506 8 view .LVU465
 1474 0016 8A42     		cmp	r2, r1
 1475              		.loc 1 507 7 is_stmt 1 view .LVU466
 1476              		.loc 1 509 5 view .LVU467
 1477              		.loc 1 507 18 is_stmt 0 view .LVU468
 1478 0018 24BF     		itt	cs
 1479 001a 0268     		ldrcs	r2, [r0]
 1480 001c C260     		strcs	r2, [r0, #12]
 1481              		.loc 1 509 13 view .LVU469
 1482 001e 013B     		subs	r3, r3, #1
ARM GAS  /tmp/ccRHzBk5.s 			page 27


 1483 0020 0361     		str	r3, [r0, #16]
 1484              		.loc 1 512 5 is_stmt 1 view .LVU470
 1485 0022 0021     		movs	r1, #0
 1486 0024 1830     		adds	r0, r0, #24
 1487              	.LVL88:
 1488              		.loc 1 512 5 is_stmt 0 view .LVU471
 1489 0026 FFF7FEFF 		bl	chThdDequeueNextI
 1490              	.LVL89:
 1491              		.loc 1 514 5 is_stmt 1 view .LVU472
 1492              		.loc 1 514 12 is_stmt 0 view .LVU473
 1493 002a 0020     		movs	r0, #0
 1494              		.loc 1 519 1 view .LVU474
 1495 002c 10BD     		pop	{r4, pc}
 1496              	.LVL90:
 1497              	.L70:
 1498              		.cfi_def_cfa_offset 0
 1499              		.cfi_restore 4
 1500              		.cfi_restore 14
 1501              		.loc 1 518 10 view .LVU475
 1502 002e 4FF0FF30 		mov	r0, #-1
 1503              	.LVL91:
 1504              		.loc 1 519 1 view .LVU476
 1505 0032 7047     		bx	lr
 1506              	.LVL92:
 1507              	.L69:
 1508              		.loc 1 500 12 view .LVU477
 1509 0034 6FF00100 		mvn	r0, #1
 1510              	.LVL93:
 1511              		.loc 1 500 12 view .LVU478
 1512 0038 7047     		bx	lr
 1513              		.cfi_endproc
 1514              	.LFE346:
 1515              		.size	chMBFetchI, .-chMBFetchI
 1516 003a 00BF     		.text
 1517              	.Letext0:
 1518              		.file 8 "/opt/gcc-arm-none-eabi/gcc-arm-none-eabi-10.3-2021.07/lib/gcc/arm-none-eabi/10.3.1/includ
 1519              		.file 9 "/opt/gcc-arm-none-eabi/gcc-arm-none-eabi-10.3-2021.07/arm-none-eabi/include/machine/_defa
 1520              		.file 10 "/opt/gcc-arm-none-eabi/gcc-arm-none-eabi-10.3-2021.07/arm-none-eabi/include/sys/_stdint.
 1521              		.file 11 "../ChibiOS/os/rt/include/chearly.h"
 1522              		.file 12 "../ChibiOS/os/rt/include/chtime.h"
 1523              		.file 13 "../ChibiOS/os/rt/include/chobjects.h"
 1524              		.file 14 "../ChibiOS/os/rt/include/chschd.h"