ARM GAS  /tmp/ccRHwacP.s 			page 1


   1              		.cpu cortex-m4
   2              		.eabi_attribute 20, 1
   3              		.eabi_attribute 21, 1
   4              		.eabi_attribute 23, 3
   5              		.eabi_attribute 24, 1
   6              		.eabi_attribute 25, 1
   7              		.eabi_attribute 26, 1
   8              		.eabi_attribute 30, 2
   9              		.eabi_attribute 34, 1
  10              		.eabi_attribute 18, 4
  11              		.file	"chmemcore.c"
  12              		.text
  13              	.Ltext0:
  14              		.cfi_sections	.debug_frame
  15              		.section	.text.__core_init,"ax",%progbits
  16              		.align	1
  17              		.p2align 4,,15
  18              		.global	__core_init
  19              		.arch armv7e-m
  20              		.syntax unified
  21              		.thumb
  22              		.thumb_func
  23              		.fpu softvfp
  24              		.type	__core_init, %function
  25              	__core_init:
  26              	.LFB335:
  27              		.file 1 "../ChibiOS/os/oslib/src/chmemcore.c"
  28              		.loc 1 81 24 view -0
  29              		.cfi_startproc
  30              		@ args = 0, pretend = 0, frame = 0
  31              		@ frame_needed = 0, uses_anonymous_args = 0
  32              		@ link register save eliminated.
  33              		.loc 1 83 3 view .LVU1
  34              		.loc 1 84 3 view .LVU2
  35              		.loc 1 87 3 view .LVU3
  36              		.loc 1 87 22 is_stmt 0 view .LVU4
  37 0000 024B     		ldr	r3, .L3
  38 0002 0349     		ldr	r1, .L3+4
  39              		.loc 1 88 22 view .LVU5
  40 0004 034A     		ldr	r2, .L3+8
  41 0006 C3E90012 		strd	r1, r2, [r3]
  42              		.loc 1 96 1 view .LVU6
  43 000a 7047     		bx	lr
  44              	.L4:
  45              		.align	2
  46              	.L3:
  47 000c 00000000 		.word	.LANCHOR0
  48 0010 00000000 		.word	__heap_base__
  49 0014 00000000 		.word	__heap_end__
  50              		.cfi_endproc
  51              	.LFE335:
  52              		.size	__core_init, .-__core_init
  53              		.section	.text.chCoreAllocFromBaseI,"ax",%progbits
  54              		.align	1
  55              		.p2align 4,,15
  56              		.global	chCoreAllocFromBaseI
  57              		.syntax unified
ARM GAS  /tmp/ccRHwacP.s 			page 2


  58              		.thumb
  59              		.thumb_func
  60              		.fpu softvfp
  61              		.type	chCoreAllocFromBaseI, %function
  62              	chCoreAllocFromBaseI:
  63              	.LVL0:
  64              	.LFB336:
  65              		.loc 1 112 72 is_stmt 1 view -0
  66              		.cfi_startproc
  67              		@ args = 0, pretend = 0, frame = 0
  68              		@ frame_needed = 0, uses_anonymous_args = 0
  69              		@ link register save eliminated.
  70              		.loc 1 113 3 view .LVU8
  71              		.loc 1 115 21 view .LVU9
  72              		.loc 1 116 3 view .LVU10
  73              		.loc 1 116 3 view .LVU11
  74              		.loc 1 116 3 view .LVU12
  75              		.loc 1 118 3 view .LVU13
  76              		.loc 1 118 18 is_stmt 0 view .LVU14
  77 0000 0B4B     		ldr	r3, .L10
  78              		.loc 1 112 72 view .LVU15
  79 0002 10B4     		push	{r4}
  80              		.cfi_def_cfa_offset 4
  81              		.cfi_offset 4, -4
  82              		.loc 1 118 18 view .LVU16
  83 0004 1C68     		ldr	r4, [r3]
  84 0006 01F1FF3C 		add	ip, r1, #-1
  85 000a 2244     		add	r2, r2, r4
  86              	.LVL1:
  87              		.loc 1 118 18 view .LVU17
  88 000c 4942     		rsbs	r1, r1, #0
  89              	.LVL2:
  90              		.loc 1 118 18 view .LVU18
  91 000e 6244     		add	r2, r2, ip
  92 0010 0A40     		ands	r2, r2, r1
  93              	.LVL3:
  94              		.loc 1 119 3 is_stmt 1 view .LVU19
  95              		.loc 1 122 6 is_stmt 0 view .LVU20
  96 0012 5968     		ldr	r1, [r3, #4]
  97              	.LVL4:
  98              		.loc 1 119 8 view .LVU21
  99 0014 1044     		add	r0, r0, r2
 100              	.LVL5:
 101              		.loc 1 122 3 is_stmt 1 view .LVU22
 102              		.loc 1 122 6 is_stmt 0 view .LVU23
 103 0016 8842     		cmp	r0, r1
 104 0018 05D8     		bhi	.L8
 105              		.loc 1 122 34 discriminator 1 view .LVU24
 106 001a A042     		cmp	r0, r4
 107 001c 03D3     		bcc	.L8
 108              		.loc 1 126 3 is_stmt 1 view .LVU25
 109              		.loc 1 126 22 is_stmt 0 view .LVU26
 110 001e 1860     		str	r0, [r3]
 111              		.loc 1 128 3 is_stmt 1 view .LVU27
 112              		.loc 1 129 1 is_stmt 0 view .LVU28
 113 0020 10BC     		pop	{r4}
 114              		.cfi_remember_state
ARM GAS  /tmp/ccRHwacP.s 			page 3


 115              		.cfi_restore 4
 116              		.cfi_def_cfa_offset 0
 117 0022 1046     		mov	r0, r2
 118              	.LVL6:
 119              		.loc 1 129 1 view .LVU29
 120 0024 7047     		bx	lr
 121              	.LVL7:
 122              	.L8:
 123              		.cfi_restore_state
 124              		.loc 1 123 12 view .LVU30
 125 0026 0022     		movs	r2, #0
 126              	.LVL8:
 127              		.loc 1 129 1 view .LVU31
 128 0028 1046     		mov	r0, r2
 129              	.LVL9:
 130              		.loc 1 129 1 view .LVU32
 131 002a 10BC     		pop	{r4}
 132              		.cfi_restore 4
 133              		.cfi_def_cfa_offset 0
 134              	.LVL10:
 135              		.loc 1 129 1 view .LVU33
 136 002c 7047     		bx	lr
 137              	.L11:
 138 002e 00BF     		.align	2
 139              	.L10:
 140 0030 00000000 		.word	.LANCHOR0
 141              		.cfi_endproc
 142              	.LFE336:
 143              		.size	chCoreAllocFromBaseI, .-chCoreAllocFromBaseI
 144              		.section	.text.chCoreAllocFromTopI,"ax",%progbits
 145              		.align	1
 146              		.p2align 4,,15
 147              		.global	chCoreAllocFromTopI
 148              		.syntax unified
 149              		.thumb
 150              		.thumb_func
 151              		.fpu softvfp
 152              		.type	chCoreAllocFromTopI, %function
 153              	chCoreAllocFromTopI:
 154              	.LVL11:
 155              	.LFB337:
 156              		.loc 1 145 71 is_stmt 1 view -0
 157              		.cfi_startproc
 158              		@ args = 0, pretend = 0, frame = 0
 159              		@ frame_needed = 0, uses_anonymous_args = 0
 160              		@ link register save eliminated.
 161              		.loc 1 146 3 view .LVU35
 162              		.loc 1 148 21 view .LVU36
 163              		.loc 1 149 3 view .LVU37
 164              		.loc 1 149 3 view .LVU38
 165              		.loc 1 149 3 view .LVU39
 166              		.loc 1 151 3 view .LVU40
 167              		.loc 1 151 18 is_stmt 0 view .LVU41
 168 0000 084B     		ldr	r3, .L17
 169              		.loc 1 145 71 view .LVU42
 170 0002 10B4     		push	{r4}
 171              		.cfi_def_cfa_offset 4
ARM GAS  /tmp/ccRHwacP.s 			page 4


 172              		.cfi_offset 4, -4
 173              		.loc 1 151 18 view .LVU43
 174 0004 5C68     		ldr	r4, [r3, #4]
 175 0006 4942     		rsbs	r1, r1, #0
 176              	.LVL12:
 177              		.loc 1 151 18 view .LVU44
 178 0008 201A     		subs	r0, r4, r0
 179              	.LVL13:
 180              		.loc 1 151 18 view .LVU45
 181 000a 0840     		ands	r0, r0, r1
 182              	.LVL14:
 183              		.loc 1 152 3 is_stmt 1 view .LVU46
 184              		.loc 1 155 6 is_stmt 0 view .LVU47
 185 000c 1968     		ldr	r1, [r3]
 186              	.LVL15:
 187              		.loc 1 152 8 view .LVU48
 188 000e 821A     		subs	r2, r0, r2
 189              	.LVL16:
 190              		.loc 1 155 3 is_stmt 1 view .LVU49
 191              		.loc 1 155 6 is_stmt 0 view .LVU50
 192 0010 8A42     		cmp	r2, r1
 193 0012 04D3     		bcc	.L15
 194              		.loc 1 155 35 discriminator 1 view .LVU51
 195 0014 A242     		cmp	r2, r4
 196 0016 02D8     		bhi	.L15
 197              		.loc 1 159 3 is_stmt 1 view .LVU52
 198              		.loc 1 162 1 is_stmt 0 view .LVU53
 199 0018 10BC     		pop	{r4}
 200              		.cfi_remember_state
 201              		.cfi_restore 4
 202              		.cfi_def_cfa_offset 0
 203              		.loc 1 159 21 view .LVU54
 204 001a 5A60     		str	r2, [r3, #4]
 205              		.loc 1 161 3 is_stmt 1 view .LVU55
 206              		.loc 1 162 1 is_stmt 0 view .LVU56
 207 001c 7047     		bx	lr
 208              	.L15:
 209              		.cfi_restore_state
 210              		.loc 1 156 12 view .LVU57
 211 001e 0020     		movs	r0, #0
 212              	.LVL17:
 213              		.loc 1 162 1 view .LVU58
 214 0020 10BC     		pop	{r4}
 215              		.cfi_restore 4
 216              		.cfi_def_cfa_offset 0
 217              	.LVL18:
 218              		.loc 1 162 1 view .LVU59
 219 0022 7047     		bx	lr
 220              	.L18:
 221              		.align	2
 222              	.L17:
 223 0024 00000000 		.word	.LANCHOR0
 224              		.cfi_endproc
 225              	.LFE337:
 226              		.size	chCoreAllocFromTopI, .-chCoreAllocFromTopI
 227              		.section	.text.chCoreAllocFromBase,"ax",%progbits
 228              		.align	1
ARM GAS  /tmp/ccRHwacP.s 			page 5


 229              		.p2align 4,,15
 230              		.global	chCoreAllocFromBase
 231              		.syntax unified
 232              		.thumb
 233              		.thumb_func
 234              		.fpu softvfp
 235              		.type	chCoreAllocFromBase, %function
 236              	chCoreAllocFromBase:
 237              	.LVL19:
 238              	.LFB338:
 239              		.loc 1 178 71 is_stmt 1 view -0
 240              		.cfi_startproc
 241              		@ args = 0, pretend = 0, frame = 0
 242              		@ frame_needed = 0, uses_anonymous_args = 0
 243              		@ link register save eliminated.
 244              		.loc 1 179 3 view .LVU61
 245              		.loc 1 181 3 view .LVU62
 246              	.LBB45:
 247              	.LBI45:
 248              		.file 2 "../ChibiOS/os/rt/include/chsys.h"
 249              		.loc 2 407 20 view .LVU63
 250              	.LBE45:
 251              		.loc 2 409 3 view .LVU64
 252              	.LBB53:
 253              	.LBB46:
 254              	.LBI46:
 255              		.file 3 "../ChibiOS/os/common/ports/ARMv7-M/chcore.h"
 256              		.loc 3 806 27 view .LVU65
 257              	.LBE46:
 258              	.LBE53:
 259              		.loc 3 814 3 view .LVU66
 260              	.LBB54:
 261              	.LBB51:
 262              	.LBB47:
 263              	.LBI47:
 264              		.file 4 "../ChibiOS/os/common/ext/ARM/CMSIS/Core/Include/cmsis_gcc.h"
 265              		.loc 4 491 27 view .LVU67
 266              	.LBB48:
 267              		.loc 4 493 3 view .LVU68
 268              	.LBE48:
 269              	.LBE47:
 270              	.LBE51:
 271              	.LBE54:
 272              		.loc 1 178 71 is_stmt 0 view .LVU69
 273 0000 0346     		mov	r3, r0
 274 0002 30B4     		push	{r4, r5}
 275              		.cfi_def_cfa_offset 8
 276              		.cfi_offset 4, -8
 277              		.cfi_offset 5, -4
 278              	.LBB55:
 279              	.LBB52:
 280              	.LBB50:
 281              	.LBB49:
 282              		.loc 4 493 3 view .LVU70
 283 0004 3020     		movs	r0, #48
 284              	.LVL20:
 285              		.loc 4 493 3 view .LVU71
ARM GAS  /tmp/ccRHwacP.s 			page 6


 286              		.syntax unified
 287              	@ 493 "../ChibiOS/os/common/ext/ARM/CMSIS/Core/Include/cmsis_gcc.h" 1
 288 0006 80F31188 		MSR basepri, r0
 289              	@ 0 "" 2
 290              	.LVL21:
 291              		.loc 4 493 3 view .LVU72
 292              		.thumb
 293              		.syntax unified
 294              	.LBE49:
 295              	.LBE50:
 296              	.LBE52:
 297              	.LBE55:
 298              		.loc 2 410 35 is_stmt 1 view .LVU73
 299              		.loc 2 411 21 view .LVU74
 300              		.loc 1 182 3 view .LVU75
 301              	.LBB56:
 302              	.LBI56:
 303              		.loc 1 112 7 view .LVU76
 304              	.LBB57:
 305              		.loc 1 113 3 view .LVU77
 306              		.loc 1 115 21 view .LVU78
 307              		.loc 1 116 3 view .LVU79
 308              		.loc 1 116 3 view .LVU80
 309              		.loc 1 116 3 view .LVU81
 310              		.loc 1 118 3 view .LVU82
 311              		.loc 1 118 18 is_stmt 0 view .LVU83
 312 000a 0C4C     		ldr	r4, .L24
 313 000c 2568     		ldr	r5, [r4]
 314 000e 481E     		subs	r0, r1, #1
 315 0010 2A44     		add	r2, r2, r5
 316              	.LVL22:
 317              		.loc 1 118 18 view .LVU84
 318 0012 1044     		add	r0, r0, r2
 319 0014 4942     		rsbs	r1, r1, #0
 320              	.LVL23:
 321              		.loc 1 122 6 view .LVU85
 322 0016 6268     		ldr	r2, [r4, #4]
 323              		.loc 1 118 18 view .LVU86
 324 0018 0840     		ands	r0, r0, r1
 325              	.LVL24:
 326              		.loc 1 119 3 is_stmt 1 view .LVU87
 327              		.loc 1 119 8 is_stmt 0 view .LVU88
 328 001a 0344     		add	r3, r3, r0
 329              	.LVL25:
 330              		.loc 1 122 3 is_stmt 1 view .LVU89
 331              		.loc 1 122 6 is_stmt 0 view .LVU90
 332 001c 9342     		cmp	r3, r2
 333 001e 07D8     		bhi	.L22
 334              		.loc 1 122 34 view .LVU91
 335 0020 9D42     		cmp	r5, r3
 336 0022 05D8     		bhi	.L22
 337              		.loc 1 126 3 is_stmt 1 view .LVU92
 338              		.loc 1 126 22 is_stmt 0 view .LVU93
 339 0024 2360     		str	r3, [r4]
 340              		.loc 1 128 3 is_stmt 1 view .LVU94
 341              	.LVL26:
 342              		.loc 1 128 3 is_stmt 0 view .LVU95
ARM GAS  /tmp/ccRHwacP.s 			page 7


 343              	.LBE57:
 344              	.LBE56:
 345              		.loc 1 183 3 is_stmt 1 view .LVU96
 346              	.LBB59:
 347              	.LBI59:
 348              		.loc 2 421 20 view .LVU97
 349              	.LBB60:
 350              		.loc 2 423 23 view .LVU98
 351              		.loc 2 424 34 view .LVU99
 352              		.loc 2 430 3 view .LVU100
 353              		.loc 2 430 3 view .LVU101
 354              		.loc 2 430 3 view .LVU102
 355              		.loc 2 434 3 view .LVU103
 356              	.LBB61:
 357              	.LBI61:
 358              		.loc 3 830 27 view .LVU104
 359              	.LBE61:
 360              	.LBE60:
 361              	.LBE59:
 362              		.loc 3 833 3 view .LVU105
 363              	.LBB72:
 364              	.LBB69:
 365              	.LBB66:
 366              	.LBB62:
 367              	.LBI62:
 368              		.loc 4 491 27 view .LVU106
 369              	.LBB63:
 370              		.loc 4 493 3 view .LVU107
 371 0026 0023     		movs	r3, #0
 372              		.syntax unified
 373              	@ 493 "../ChibiOS/os/common/ext/ARM/CMSIS/Core/Include/cmsis_gcc.h" 1
 374 0028 83F31188 		MSR basepri, r3
 375              	@ 0 "" 2
 376              	.LVL27:
 377              		.loc 4 493 3 is_stmt 0 view .LVU108
 378              		.thumb
 379              		.syntax unified
 380              	.LBE63:
 381              	.LBE62:
 382              	.LBE66:
 383              	.LBE69:
 384              	.LBE72:
 385              		.loc 1 185 3 is_stmt 1 view .LVU109
 386              		.loc 1 186 1 is_stmt 0 view .LVU110
 387 002c 30BC     		pop	{r4, r5}
 388              		.cfi_remember_state
 389              		.cfi_restore 5
 390              		.cfi_restore 4
 391              		.cfi_def_cfa_offset 0
 392 002e 7047     		bx	lr
 393              	.LVL28:
 394              	.L22:
 395              		.cfi_restore_state
 396              	.LBB73:
 397              	.LBB58:
 398              		.loc 1 123 12 view .LVU111
 399 0030 0020     		movs	r0, #0
ARM GAS  /tmp/ccRHwacP.s 			page 8


 400              	.LVL29:
 401              		.loc 1 123 12 view .LVU112
 402              	.LBE58:
 403              	.LBE73:
 404              		.loc 1 183 3 is_stmt 1 view .LVU113
 405              	.LBB74:
 406              		.loc 2 421 20 view .LVU114
 407              	.LBB70:
 408              		.loc 2 423 23 view .LVU115
 409              		.loc 2 424 34 view .LVU116
 410              		.loc 2 430 3 view .LVU117
 411              		.loc 2 430 3 view .LVU118
 412              		.loc 2 430 3 view .LVU119
 413              		.loc 2 434 3 view .LVU120
 414              	.LBB67:
 415              		.loc 3 830 27 view .LVU121
 416              	.LBE67:
 417              	.LBE70:
 418              	.LBE74:
 419              		.loc 3 833 3 view .LVU122
 420              	.LBB75:
 421              	.LBB71:
 422              	.LBB68:
 423              	.LBB65:
 424              		.loc 4 491 27 view .LVU123
 425              	.LBB64:
 426              		.loc 4 493 3 view .LVU124
 427 0032 0023     		movs	r3, #0
 428              		.syntax unified
 429              	@ 493 "../ChibiOS/os/common/ext/ARM/CMSIS/Core/Include/cmsis_gcc.h" 1
 430 0034 83F31188 		MSR basepri, r3
 431              	@ 0 "" 2
 432              	.LVL30:
 433              		.loc 4 493 3 is_stmt 0 view .LVU125
 434              		.thumb
 435              		.syntax unified
 436              	.LBE64:
 437              	.LBE65:
 438              	.LBE68:
 439              	.LBE71:
 440              	.LBE75:
 441              		.loc 1 185 3 is_stmt 1 view .LVU126
 442              		.loc 1 186 1 is_stmt 0 view .LVU127
 443 0038 30BC     		pop	{r4, r5}
 444              		.cfi_restore 5
 445              		.cfi_restore 4
 446              		.cfi_def_cfa_offset 0
 447 003a 7047     		bx	lr
 448              	.L25:
 449              		.align	2
 450              	.L24:
 451 003c 00000000 		.word	.LANCHOR0
 452              		.cfi_endproc
 453              	.LFE338:
 454              		.size	chCoreAllocFromBase, .-chCoreAllocFromBase
 455              		.section	.text.chCoreAllocFromTop,"ax",%progbits
 456              		.align	1
ARM GAS  /tmp/ccRHwacP.s 			page 9


 457              		.p2align 4,,15
 458              		.global	chCoreAllocFromTop
 459              		.syntax unified
 460              		.thumb
 461              		.thumb_func
 462              		.fpu softvfp
 463              		.type	chCoreAllocFromTop, %function
 464              	chCoreAllocFromTop:
 465              	.LVL31:
 466              	.LFB339:
 467              		.loc 1 202 70 is_stmt 1 view -0
 468              		.cfi_startproc
 469              		@ args = 0, pretend = 0, frame = 0
 470              		@ frame_needed = 0, uses_anonymous_args = 0
 471              		@ link register save eliminated.
 472              		.loc 1 203 3 view .LVU129
 473              		.loc 1 205 3 view .LVU130
 474              	.LBB87:
 475              	.LBI87:
 476              		.loc 2 407 20 view .LVU131
 477              	.LBE87:
 478              		.loc 2 409 3 view .LVU132
 479              	.LBB95:
 480              	.LBB88:
 481              	.LBI88:
 482              		.loc 3 806 27 view .LVU133
 483              	.LBE88:
 484              	.LBE95:
 485              		.loc 3 814 3 view .LVU134
 486              	.LBB96:
 487              	.LBB93:
 488              	.LBB89:
 489              	.LBI89:
 490              		.loc 4 491 27 view .LVU135
 491              	.LBB90:
 492              		.loc 4 493 3 view .LVU136
 493              	.LBE90:
 494              	.LBE89:
 495              	.LBE93:
 496              	.LBE96:
 497              		.loc 1 202 70 is_stmt 0 view .LVU137
 498 0000 10B4     		push	{r4}
 499              		.cfi_def_cfa_offset 4
 500              		.cfi_offset 4, -4
 501              	.LBB97:
 502              	.LBB94:
 503              	.LBB92:
 504              	.LBB91:
 505              		.loc 4 493 3 view .LVU138
 506 0002 3023     		movs	r3, #48
 507              		.syntax unified
 508              	@ 493 "../ChibiOS/os/common/ext/ARM/CMSIS/Core/Include/cmsis_gcc.h" 1
 509 0004 83F31188 		MSR basepri, r3
 510              	@ 0 "" 2
 511              	.LVL32:
 512              		.loc 4 493 3 view .LVU139
 513              		.thumb
ARM GAS  /tmp/ccRHwacP.s 			page 10


 514              		.syntax unified
 515              	.LBE91:
 516              	.LBE92:
 517              	.LBE94:
 518              	.LBE97:
 519              		.loc 2 410 35 is_stmt 1 view .LVU140
 520              		.loc 2 411 21 view .LVU141
 521              		.loc 1 206 3 view .LVU142
 522              	.LBB98:
 523              	.LBI98:
 524              		.loc 1 145 7 view .LVU143
 525              	.LBB99:
 526              		.loc 1 146 3 view .LVU144
 527              		.loc 1 148 21 view .LVU145
 528              		.loc 1 149 3 view .LVU146
 529              		.loc 1 149 3 view .LVU147
 530              		.loc 1 149 3 view .LVU148
 531              		.loc 1 151 3 view .LVU149
 532              		.loc 1 151 18 is_stmt 0 view .LVU150
 533 0008 0B4B     		ldr	r3, .L31
 534 000a 5C68     		ldr	r4, [r3, #4]
 535 000c 4942     		rsbs	r1, r1, #0
 536              	.LVL33:
 537              		.loc 1 151 18 view .LVU151
 538 000e 201A     		subs	r0, r4, r0
 539              	.LVL34:
 540              		.loc 1 151 18 view .LVU152
 541 0010 0840     		ands	r0, r0, r1
 542              	.LVL35:
 543              		.loc 1 152 3 is_stmt 1 view .LVU153
 544              		.loc 1 155 6 is_stmt 0 view .LVU154
 545 0012 1968     		ldr	r1, [r3]
 546              	.LVL36:
 547              		.loc 1 152 8 view .LVU155
 548 0014 821A     		subs	r2, r0, r2
 549              	.LVL37:
 550              		.loc 1 155 3 is_stmt 1 view .LVU156
 551              		.loc 1 155 6 is_stmt 0 view .LVU157
 552 0016 8A42     		cmp	r2, r1
 553 0018 07D3     		bcc	.L29
 554              		.loc 1 155 35 view .LVU158
 555 001a 9442     		cmp	r4, r2
 556 001c 05D3     		bcc	.L29
 557              		.loc 1 159 3 is_stmt 1 view .LVU159
 558              		.loc 1 159 21 is_stmt 0 view .LVU160
 559 001e 5A60     		str	r2, [r3, #4]
 560              		.loc 1 161 3 is_stmt 1 view .LVU161
 561              	.LVL38:
 562              		.loc 1 161 3 is_stmt 0 view .LVU162
 563              	.LBE99:
 564              	.LBE98:
 565              		.loc 1 207 3 is_stmt 1 view .LVU163
 566              	.LBB101:
 567              	.LBI101:
 568              		.loc 2 421 20 view .LVU164
 569              	.LBB102:
 570              		.loc 2 423 23 view .LVU165
ARM GAS  /tmp/ccRHwacP.s 			page 11


 571              		.loc 2 424 34 view .LVU166
 572              		.loc 2 430 3 view .LVU167
 573              		.loc 2 430 3 view .LVU168
 574              		.loc 2 430 3 view .LVU169
 575              		.loc 2 434 3 view .LVU170
 576              	.LBB103:
 577              	.LBI103:
 578              		.loc 3 830 27 view .LVU171
 579              	.LBE103:
 580              	.LBE102:
 581              	.LBE101:
 582              		.loc 3 833 3 view .LVU172
 583              	.LBB114:
 584              	.LBB111:
 585              	.LBB108:
 586              	.LBB104:
 587              	.LBI104:
 588              		.loc 4 491 27 view .LVU173
 589              	.LBB105:
 590              		.loc 4 493 3 view .LVU174
 591 0020 0023     		movs	r3, #0
 592              		.syntax unified
 593              	@ 493 "../ChibiOS/os/common/ext/ARM/CMSIS/Core/Include/cmsis_gcc.h" 1
 594 0022 83F31188 		MSR basepri, r3
 595              	@ 0 "" 2
 596              	.LVL39:
 597              		.loc 4 493 3 is_stmt 0 view .LVU175
 598              		.thumb
 599              		.syntax unified
 600              	.LBE105:
 601              	.LBE104:
 602              	.LBE108:
 603              	.LBE111:
 604              	.LBE114:
 605              		.loc 1 209 3 is_stmt 1 view .LVU176
 606              		.loc 1 210 1 is_stmt 0 view .LVU177
 607 0026 10BC     		pop	{r4}
 608              		.cfi_remember_state
 609              		.cfi_restore 4
 610              		.cfi_def_cfa_offset 0
 611 0028 7047     		bx	lr
 612              	.LVL40:
 613              	.L29:
 614              		.cfi_restore_state
 615              	.LBB115:
 616              	.LBB100:
 617              		.loc 1 156 12 view .LVU178
 618 002a 0020     		movs	r0, #0
 619              	.LVL41:
 620              		.loc 1 156 12 view .LVU179
 621              	.LBE100:
 622              	.LBE115:
 623              		.loc 1 207 3 is_stmt 1 view .LVU180
 624              	.LBB116:
 625              		.loc 2 421 20 view .LVU181
 626              	.LBB112:
 627              		.loc 2 423 23 view .LVU182
ARM GAS  /tmp/ccRHwacP.s 			page 12


 628              		.loc 2 424 34 view .LVU183
 629              		.loc 2 430 3 view .LVU184
 630              		.loc 2 430 3 view .LVU185
 631              		.loc 2 430 3 view .LVU186
 632              		.loc 2 434 3 view .LVU187
 633              	.LBB109:
 634              		.loc 3 830 27 view .LVU188
 635              	.LBE109:
 636              	.LBE112:
 637              	.LBE116:
 638              		.loc 3 833 3 view .LVU189
 639              	.LBB117:
 640              	.LBB113:
 641              	.LBB110:
 642              	.LBB107:
 643              		.loc 4 491 27 view .LVU190
 644              	.LBB106:
 645              		.loc 4 493 3 view .LVU191
 646 002c 0023     		movs	r3, #0
 647              		.syntax unified
 648              	@ 493 "../ChibiOS/os/common/ext/ARM/CMSIS/Core/Include/cmsis_gcc.h" 1
 649 002e 83F31188 		MSR basepri, r3
 650              	@ 0 "" 2
 651              	.LVL42:
 652              		.loc 4 493 3 is_stmt 0 view .LVU192
 653              		.thumb
 654              		.syntax unified
 655              	.LBE106:
 656              	.LBE107:
 657              	.LBE110:
 658              	.LBE113:
 659              	.LBE117:
 660              		.loc 1 209 3 is_stmt 1 view .LVU193
 661              		.loc 1 210 1 is_stmt 0 view .LVU194
 662 0032 10BC     		pop	{r4}
 663              		.cfi_restore 4
 664              		.cfi_def_cfa_offset 0
 665 0034 7047     		bx	lr
 666              	.L32:
 667 0036 00BF     		.align	2
 668              	.L31:
 669 0038 00000000 		.word	.LANCHOR0
 670              		.cfi_endproc
 671              	.LFE339:
 672              		.size	chCoreAllocFromTop, .-chCoreAllocFromTop
 673              		.section	.text.chCoreGetStatusX,"ax",%progbits
 674              		.align	1
 675              		.p2align 4,,15
 676              		.global	chCoreGetStatusX
 677              		.syntax unified
 678              		.thumb
 679              		.thumb_func
 680              		.fpu softvfp
 681              		.type	chCoreGetStatusX, %function
 682              	chCoreGetStatusX:
 683              	.LFB340:
 684              		.loc 1 219 31 is_stmt 1 view -0
ARM GAS  /tmp/ccRHwacP.s 			page 13


 685              		.cfi_startproc
 686              		@ args = 0, pretend = 0, frame = 0
 687              		@ frame_needed = 0, uses_anonymous_args = 0
 688              		@ link register save eliminated.
 689              		.loc 1 222 3 view .LVU196
 690              		.loc 1 222 29 is_stmt 0 view .LVU197
 691 0000 024B     		ldr	r3, .L34
 692              		.loc 1 222 37 view .LVU198
 693 0002 D3E90030 		ldrd	r3, r0, [r3]
 694              		.loc 1 224 1 view .LVU199
 695 0006 C01A     		subs	r0, r0, r3
 696 0008 7047     		bx	lr
 697              	.L35:
 698 000a 00BF     		.align	2
 699              	.L34:
 700 000c 00000000 		.word	.LANCHOR0
 701              		.cfi_endproc
 702              	.LFE340:
 703              		.size	chCoreGetStatusX, .-chCoreGetStatusX
 704              		.global	ch_memcore
 705              		.section	.bss.ch_memcore,"aw",%nobits
 706              		.align	2
 707              		.set	.LANCHOR0,. + 0
 708              		.type	ch_memcore, %object
 709              		.size	ch_memcore, 8
 710              	ch_memcore:
 711 0000 00000000 		.space	8
 711      00000000 
 712              		.text
 713              	.Letext0:
 714              		.file 5 "/opt/gcc-arm-none-eabi/gcc-arm-none-eabi-10.3-2021.07/lib/gcc/arm-none-eabi/10.3.1/includ
 715              		.file 6 "/opt/gcc-arm-none-eabi/gcc-arm-none-eabi-10.3-2021.07/arm-none-eabi/include/machine/_defa
 716              		.file 7 "/opt/gcc-arm-none-eabi/gcc-arm-none-eabi-10.3-2021.07/arm-none-eabi/include/sys/_stdint.h
 717              		.file 8 "../ChibiOS/os/oslib/include/chmemcore.h"