ARM GAS  /tmp/cclIf2wf.s 			page 1


   1              		.cpu cortex-m4
   2              		.eabi_attribute 20, 1
   3              		.eabi_attribute 21, 1
   4              		.eabi_attribute 23, 3
   5              		.eabi_attribute 24, 1
   6              		.eabi_attribute 25, 1
   7              		.eabi_attribute 26, 1
   8              		.eabi_attribute 30, 2
   9              		.eabi_attribute 34, 1
  10              		.eabi_attribute 18, 4
  11              		.file	"chmempools.c"
  12              		.text
  13              	.Ltext0:
  14              		.cfi_sections	.debug_frame
  15              		.section	.text.chPoolObjectInitAligned,"ax",%progbits
  16              		.align	1
  17              		.p2align 4,,15
  18              		.global	chPoolObjectInitAligned
  19              		.arch armv7e-m
  20              		.syntax unified
  21              		.thumb
  22              		.thumb_func
  23              		.fpu softvfp
  24              		.type	chPoolObjectInitAligned, %function
  25              	chPoolObjectInitAligned:
  26              	.LVL0:
  27              	.LFB335:
  28              		.file 1 "../ChibiOS/os/oslib/src/chmempools.c"
  29              		.loc 1 78 69 view -0
  30              		.cfi_startproc
  31              		@ args = 0, pretend = 0, frame = 0
  32              		@ frame_needed = 0, uses_anonymous_args = 0
  33              		@ link register save eliminated.
  34              		.loc 1 80 3 view .LVU1
  35              		.loc 1 80 3 view .LVU2
  36              		.loc 1 80 3 view .LVU3
  37              		.loc 1 85 3 view .LVU4
  38              		.loc 1 78 69 is_stmt 0 view .LVU5
  39 0000 10B4     		push	{r4}
  40              		.cfi_def_cfa_offset 4
  41              		.cfi_offset 4, -4
  42              		.loc 1 85 12 view .LVU6
  43 0002 0024     		movs	r4, #0
  44              		.loc 1 86 19 view .LVU7
  45 0004 C0E90041 		strd	r4, r1, [r0]
  46              		.loc 1 87 3 is_stmt 1 view .LVU8
  47              		.loc 1 88 16 is_stmt 0 view .LVU9
  48 0008 C0E90223 		strd	r2, r3, [r0, #8]
  49              		.loc 1 89 1 view .LVU10
  50 000c 10BC     		pop	{r4}
  51              		.cfi_restore 4
  52              		.cfi_def_cfa_offset 0
  53 000e 7047     		bx	lr
  54              		.cfi_endproc
  55              	.LFE335:
  56              		.size	chPoolObjectInitAligned, .-chPoolObjectInitAligned
  57              		.section	.text.chPoolLoadArray,"ax",%progbits
ARM GAS  /tmp/cclIf2wf.s 			page 2


  58              		.align	1
  59              		.p2align 4,,15
  60              		.global	chPoolLoadArray
  61              		.syntax unified
  62              		.thumb
  63              		.thumb_func
  64              		.fpu softvfp
  65              		.type	chPoolLoadArray, %function
  66              	chPoolLoadArray:
  67              	.LVL1:
  68              	.LFB336:
  69              		.loc 1 106 60 is_stmt 1 view -0
  70              		.cfi_startproc
  71              		@ args = 0, pretend = 0, frame = 0
  72              		@ frame_needed = 0, uses_anonymous_args = 0
  73              		.loc 1 108 3 view .LVU12
  74              		.loc 1 108 3 view .LVU13
  75              		.loc 1 108 3 view .LVU14
  76              		.loc 1 110 3 view .LVU15
  77              		.loc 1 110 9 view .LVU16
  78 0000 8AB1     		cbz	r2, .L12
  79              		.loc 1 106 60 is_stmt 0 view .LVU17
  80 0002 00B5     		push	{lr}
  81              		.cfi_def_cfa_offset 4
  82              		.cfi_offset 14, -4
  83              	.LBB93:
  84              	.LBB94:
  85              	.LBB95:
  86              	.LBB96:
  87              	.LBB97:
  88              	.LBB98:
  89              	.LBB99:
  90              		.file 2 "../ChibiOS/os/common/ext/ARM/CMSIS/Core/Include/cmsis_gcc.h"
  91              		.loc 2 493 3 view .LVU18
  92 0004 4FF0000C 		mov	ip, #0
  93              	.LBE99:
  94              	.LBE98:
  95              	.LBE97:
  96              	.LBE96:
  97              	.LBE95:
  98              	.LBB106:
  99              	.LBB107:
 100              	.LBB108:
 101              	.LBB109:
 102 0008 4FF0300E 		mov	lr, #48
 103              	.LVL2:
 104              	.L6:
 105              		.loc 2 493 3 view .LVU19
 106              	.LBE109:
 107              	.LBE108:
 108              	.LBE107:
 109              	.LBE106:
 110              	.LBE94:
 111              	.LBE93:
 112              		.loc 1 111 5 is_stmt 1 view .LVU20
 113              	.LBB128:
 114              	.LBI93:
ARM GAS  /tmp/cclIf2wf.s 			page 3


 115              		.file 3 "../ChibiOS/os/oslib/include/chmempools.h"
 116              		.loc 3 210 20 view .LVU21
 117              	.LBE128:
 118              		.loc 3 212 3 view .LVU22
 119              	.LBB129:
 120              	.LBB121:
 121              	.LBI94:
 122              		.loc 1 207 6 view .LVU23
 123              	.LBE121:
 124              	.LBE129:
 125              		.loc 1 209 3 view .LVU24
 126              	.LBB130:
 127              	.LBB122:
 128              	.LBB114:
 129              	.LBI106:
 130              		.file 4 "../ChibiOS/os/rt/include/chsys.h"
 131              		.loc 4 407 20 view .LVU25
 132              	.LBE114:
 133              	.LBE122:
 134              	.LBE130:
 135              		.loc 4 409 3 view .LVU26
 136              	.LBB131:
 137              	.LBB123:
 138              	.LBB115:
 139              	.LBB112:
 140              	.LBI107:
 141              		.file 5 "../ChibiOS/os/common/ports/ARMv7-M/chcore.h"
 142              		.loc 5 806 27 view .LVU27
 143              	.LBE112:
 144              	.LBE115:
 145              	.LBE123:
 146              	.LBE131:
 147              		.loc 5 814 3 view .LVU28
 148              	.LBB132:
 149              	.LBB124:
 150              	.LBB116:
 151              	.LBB113:
 152              	.LBB111:
 153              	.LBI108:
 154              		.loc 2 491 27 view .LVU29
 155              	.LBB110:
 156              		.loc 2 493 3 view .LVU30
 157              		.syntax unified
 158              	@ 493 "../ChibiOS/os/common/ext/ARM/CMSIS/Core/Include/cmsis_gcc.h" 1
 159 000c 8EF31188 		MSR basepri, lr
 160              	@ 0 "" 2
 161              	.LVL3:
 162              		.loc 2 493 3 is_stmt 0 view .LVU31
 163              		.thumb
 164              		.syntax unified
 165              	.LBE110:
 166              	.LBE111:
 167              	.LBE113:
 168              	.LBE116:
 169              	.LBE124:
 170              	.LBE132:
 171              		.loc 4 410 35 is_stmt 1 view .LVU32
ARM GAS  /tmp/cclIf2wf.s 			page 4


 172              		.loc 4 411 21 view .LVU33
 173              		.loc 1 210 3 view .LVU34
 174              	.LBB133:
 175              	.LBB125:
 176              	.LBB117:
 177              	.LBI117:
 178              		.loc 1 183 6 view .LVU35
 179              	.LBB118:
 180              		.loc 1 184 3 view .LVU36
 181              		.loc 1 186 21 view .LVU37
 182              		.loc 1 187 3 view .LVU38
 183              		.loc 1 187 3 view .LVU39
 184              		.loc 1 187 3 view .LVU40
 185              		.loc 1 191 3 view .LVU41
 186              		.loc 1 191 13 is_stmt 0 view .LVU42
 187 0010 0368     		ldr	r3, [r0]
 188 0012 0B60     		str	r3, [r1]
 189              		.loc 1 192 3 is_stmt 1 view .LVU43
 190              		.loc 1 192 12 is_stmt 0 view .LVU44
 191 0014 0160     		str	r1, [r0]
 192              	.LVL4:
 193              		.loc 1 192 12 view .LVU45
 194              	.LBE118:
 195              	.LBE117:
 196              	.LBE125:
 197              	.LBE133:
 198              		.loc 1 211 3 is_stmt 1 view .LVU46
 199              	.LBB134:
 200              	.LBB126:
 201              	.LBB119:
 202              	.LBI95:
 203              		.loc 4 421 20 view .LVU47
 204              	.LBB104:
 205              		.loc 4 423 23 view .LVU48
 206              		.loc 4 424 34 view .LVU49
 207              		.loc 4 430 3 view .LVU50
 208              		.loc 4 430 3 view .LVU51
 209              		.loc 4 430 3 view .LVU52
 210              		.loc 4 434 3 view .LVU53
 211              	.LBB102:
 212              	.LBI97:
 213              		.loc 5 830 27 view .LVU54
 214              	.LBE102:
 215              	.LBE104:
 216              	.LBE119:
 217              	.LBE126:
 218              	.LBE134:
 219              		.loc 5 833 3 view .LVU55
 220              	.LBB135:
 221              	.LBB127:
 222              	.LBB120:
 223              	.LBB105:
 224              	.LBB103:
 225              	.LBB101:
 226              	.LBI98:
 227              		.loc 2 491 27 view .LVU56
 228              	.LBB100:
ARM GAS  /tmp/cclIf2wf.s 			page 5


 229              		.loc 2 493 3 view .LVU57
 230              		.syntax unified
 231              	@ 493 "../ChibiOS/os/common/ext/ARM/CMSIS/Core/Include/cmsis_gcc.h" 1
 232 0016 8CF31188 		MSR basepri, ip
 233              	@ 0 "" 2
 234              	.LVL5:
 235              		.loc 2 493 3 is_stmt 0 view .LVU58
 236              		.thumb
 237              		.syntax unified
 238              	.LBE100:
 239              	.LBE101:
 240              	.LBE103:
 241              	.LBE105:
 242              	.LBE120:
 243              	.LBE127:
 244              	.LBE135:
 245              		.loc 1 113 5 is_stmt 1 view .LVU59
 246              		.loc 1 113 7 is_stmt 0 view .LVU60
 247 001a 4368     		ldr	r3, [r0, #4]
 248              		.loc 1 110 9 view .LVU61
 249 001c 013A     		subs	r2, r2, #1
 250              	.LVL6:
 251              		.loc 1 113 7 view .LVU62
 252 001e 1944     		add	r1, r1, r3
 253              	.LVL7:
 254              		.loc 1 115 5 is_stmt 1 view .LVU63
 255              		.loc 1 110 9 view .LVU64
 256 0020 F4D1     		bne	.L6
 257              		.loc 1 117 1 is_stmt 0 view .LVU65
 258 0022 5DF804FB 		ldr	pc, [sp], #4
 259              	.LVL8:
 260              	.L12:
 261              		.cfi_def_cfa_offset 0
 262              		.cfi_restore 14
 263              		.loc 1 117 1 view .LVU66
 264 0026 7047     		bx	lr
 265              		.cfi_endproc
 266              	.LFE336:
 267              		.size	chPoolLoadArray, .-chPoolLoadArray
 268              		.section	.text.chPoolAllocI,"ax",%progbits
 269              		.align	1
 270              		.p2align 4,,15
 271              		.global	chPoolAllocI
 272              		.syntax unified
 273              		.thumb
 274              		.thumb_func
 275              		.fpu softvfp
 276              		.type	chPoolAllocI, %function
 277              	chPoolAllocI:
 278              	.LVL9:
 279              	.LFB337:
 280              		.loc 1 129 39 is_stmt 1 view -0
 281              		.cfi_startproc
 282              		@ args = 0, pretend = 0, frame = 0
 283              		@ frame_needed = 0, uses_anonymous_args = 0
 284              		@ link register save eliminated.
 285              		.loc 1 130 3 view .LVU68
ARM GAS  /tmp/cclIf2wf.s 			page 6


 286              		.loc 1 132 21 view .LVU69
 287              		.loc 1 133 3 view .LVU70
 288              		.loc 1 133 3 view .LVU71
 289              		.loc 1 133 3 view .LVU72
 290              		.loc 1 135 3 view .LVU73
 291              		.loc 1 129 39 is_stmt 0 view .LVU74
 292 0000 0346     		mov	r3, r0
 293              		.loc 1 135 8 view .LVU75
 294 0002 0068     		ldr	r0, [r0]
 295              	.LVL10:
 296              		.loc 1 137 3 is_stmt 1 view .LVU76
 297              		.loc 1 137 6 is_stmt 0 view .LVU77
 298 0004 10B1     		cbz	r0, .L16
 299              		.loc 1 138 5 is_stmt 1 view .LVU78
 300              		.loc 1 138 14 is_stmt 0 view .LVU79
 301 0006 0268     		ldr	r2, [r0]
 302 0008 1A60     		str	r2, [r3]
 303 000a 7047     		bx	lr
 304              	.L16:
 305              	.LVL11:
 306              	.LBB138:
 307              	.LBI138:
 308              		.loc 1 129 7 is_stmt 1 view .LVU80
 309              	.LBB139:
 310              		.loc 1 140 8 view .LVU81
 311              		.loc 1 140 14 is_stmt 0 view .LVU82
 312 000c DA68     		ldr	r2, [r3, #12]
 313              		.loc 1 140 11 view .LVU83
 314 000e 12B1     		cbz	r2, .L15
 315              		.loc 1 141 5 is_stmt 1 view .LVU84
 316              		.loc 1 141 12 is_stmt 0 view .LVU85
 317 0010 D3E90101 		ldrd	r0, r1, [r3, #4]
 318              	.LVL12:
 319              		.loc 1 141 12 view .LVU86
 320 0014 1047     		bx	r2
 321              	.LVL13:
 322              	.L15:
 323              		.loc 1 141 12 view .LVU87
 324              	.LBE139:
 325              	.LBE138:
 326              		.loc 1 149 1 view .LVU88
 327 0016 7047     		bx	lr
 328              		.cfi_endproc
 329              	.LFE337:
 330              		.size	chPoolAllocI, .-chPoolAllocI
 331              		.section	.text.chPoolAlloc,"ax",%progbits
 332              		.align	1
 333              		.p2align 4,,15
 334              		.global	chPoolAlloc
 335              		.syntax unified
 336              		.thumb
 337              		.thumb_func
 338              		.fpu softvfp
 339              		.type	chPoolAlloc, %function
 340              	chPoolAlloc:
 341              	.LVL14:
 342              	.LFB338:
ARM GAS  /tmp/cclIf2wf.s 			page 7


 343              		.loc 1 161 38 is_stmt 1 view -0
 344              		.cfi_startproc
 345              		@ args = 0, pretend = 0, frame = 0
 346              		@ frame_needed = 0, uses_anonymous_args = 0
 347              		.loc 1 162 3 view .LVU90
 348              		.loc 1 164 3 view .LVU91
 349              	.LBB153:
 350              	.LBI153:
 351              		.loc 4 407 20 view .LVU92
 352              	.LBE153:
 353              		.loc 4 409 3 view .LVU93
 354              	.LBB164:
 355              	.LBB154:
 356              	.LBI154:
 357              		.loc 5 806 27 view .LVU94
 358              	.LBE154:
 359              	.LBE164:
 360              		.loc 5 814 3 view .LVU95
 361              	.LBB165:
 362              	.LBB161:
 363              	.LBB155:
 364              	.LBI155:
 365              		.loc 2 491 27 view .LVU96
 366              	.LBB156:
 367              		.loc 2 493 3 view .LVU97
 368              	.LBE156:
 369              	.LBE155:
 370              	.LBE161:
 371              	.LBE165:
 372              		.loc 1 161 38 is_stmt 0 view .LVU98
 373 0000 08B5     		push	{r3, lr}
 374              		.cfi_def_cfa_offset 8
 375              		.cfi_offset 3, -8
 376              		.cfi_offset 14, -4
 377              	.LBB166:
 378              	.LBB162:
 379              	.LBB159:
 380              	.LBB157:
 381              		.loc 2 493 3 view .LVU99
 382 0002 3022     		movs	r2, #48
 383              	.LBE157:
 384              	.LBE159:
 385              	.LBE162:
 386              	.LBE166:
 387              		.loc 1 161 38 view .LVU100
 388 0004 0346     		mov	r3, r0
 389              	.LBB167:
 390              	.LBB163:
 391              	.LBB160:
 392              	.LBB158:
 393              		.loc 2 493 3 view .LVU101
 394              		.syntax unified
 395              	@ 493 "../ChibiOS/os/common/ext/ARM/CMSIS/Core/Include/cmsis_gcc.h" 1
 396 0006 82F31188 		MSR basepri, r2
 397              	@ 0 "" 2
 398              	.LVL15:
 399              		.loc 2 493 3 view .LVU102
ARM GAS  /tmp/cclIf2wf.s 			page 8


 400              		.thumb
 401              		.syntax unified
 402              	.LBE158:
 403              	.LBE160:
 404              	.LBE163:
 405              	.LBE167:
 406              		.loc 4 410 35 is_stmt 1 view .LVU103
 407              		.loc 4 411 21 view .LVU104
 408              		.loc 1 165 3 view .LVU105
 409              	.LBB168:
 410              	.LBI168:
 411              		.loc 1 129 7 view .LVU106
 412              	.LBB169:
 413              		.loc 1 130 3 view .LVU107
 414              		.loc 1 132 21 view .LVU108
 415              		.loc 1 133 3 view .LVU109
 416              		.loc 1 133 3 view .LVU110
 417              		.loc 1 133 3 view .LVU111
 418              		.loc 1 135 3 view .LVU112
 419              		.loc 1 135 8 is_stmt 0 view .LVU113
 420 000a 0068     		ldr	r0, [r0]
 421              	.LVL16:
 422              		.loc 1 137 3 is_stmt 1 view .LVU114
 423              		.loc 1 137 6 is_stmt 0 view .LVU115
 424 000c 28B1     		cbz	r0, .L22
 425              		.loc 1 138 5 is_stmt 1 view .LVU116
 426              		.loc 1 138 14 is_stmt 0 view .LVU117
 427 000e 0268     		ldr	r2, [r0]
 428 0010 1A60     		str	r2, [r3]
 429              	.L23:
 430              		.loc 1 143 5 is_stmt 1 view .LVU118
 431              		.loc 1 148 3 view .LVU119
 432              	.LVL17:
 433              		.loc 1 148 3 is_stmt 0 view .LVU120
 434              	.LBE169:
 435              	.LBE168:
 436              		.loc 1 166 3 is_stmt 1 view .LVU121
 437              	.LBB173:
 438              	.LBI173:
 439              		.loc 4 421 20 view .LVU122
 440              	.LBB174:
 441              		.loc 4 423 23 view .LVU123
 442              		.loc 4 424 34 view .LVU124
 443              		.loc 4 430 3 view .LVU125
 444              		.loc 4 430 3 view .LVU126
 445              		.loc 4 430 3 view .LVU127
 446              		.loc 4 434 3 view .LVU128
 447              	.LBB175:
 448              	.LBI175:
 449              		.loc 5 830 27 view .LVU129
 450              	.LBE175:
 451              	.LBE174:
 452              	.LBE173:
 453              		.loc 5 833 3 view .LVU130
 454              	.LBB186:
 455              	.LBB183:
 456              	.LBB180:
ARM GAS  /tmp/cclIf2wf.s 			page 9


 457              	.LBB176:
 458              	.LBI176:
 459              		.loc 2 491 27 view .LVU131
 460              	.LBB177:
 461              		.loc 2 493 3 view .LVU132
 462 0012 0023     		movs	r3, #0
 463              	.LVL18:
 464              		.loc 2 493 3 is_stmt 0 view .LVU133
 465              		.syntax unified
 466              	@ 493 "../ChibiOS/os/common/ext/ARM/CMSIS/Core/Include/cmsis_gcc.h" 1
 467 0014 83F31188 		MSR basepri, r3
 468              	@ 0 "" 2
 469              	.LVL19:
 470              		.loc 2 493 3 view .LVU134
 471              		.thumb
 472              		.syntax unified
 473              	.LBE177:
 474              	.LBE176:
 475              	.LBE180:
 476              	.LBE183:
 477              	.LBE186:
 478              		.loc 1 168 3 is_stmt 1 view .LVU135
 479              		.loc 1 169 1 is_stmt 0 view .LVU136
 480 0018 08BD     		pop	{r3, pc}
 481              	.LVL20:
 482              	.L22:
 483              	.LBB187:
 484              	.LBB172:
 485              	.LBB170:
 486              	.LBI170:
 487              		.loc 1 129 7 is_stmt 1 view .LVU137
 488              	.LBB171:
 489              		.loc 1 140 8 view .LVU138
 490              		.loc 1 140 14 is_stmt 0 view .LVU139
 491 001a DA68     		ldr	r2, [r3, #12]
 492              		.loc 1 140 11 view .LVU140
 493 001c 002A     		cmp	r2, #0
 494 001e F8D0     		beq	.L23
 495              		.loc 1 141 5 is_stmt 1 view .LVU141
 496              		.loc 1 141 12 is_stmt 0 view .LVU142
 497 0020 D3E90101 		ldrd	r0, r1, [r3, #4]
 498              	.LVL21:
 499              		.loc 1 141 12 view .LVU143
 500 0024 9047     		blx	r2
 501              	.LVL22:
 502              		.loc 1 143 5 is_stmt 1 view .LVU144
 503              		.loc 1 143 5 view .LVU145
 504              		.loc 1 143 5 is_stmt 0 view .LVU146
 505              	.LBE171:
 506              	.LBE170:
 507              		.loc 1 143 5 is_stmt 1 view .LVU147
 508              		.loc 1 148 3 view .LVU148
 509              		.loc 1 148 3 is_stmt 0 view .LVU149
 510              	.LBE172:
 511              	.LBE187:
 512              		.loc 1 166 3 is_stmt 1 view .LVU150
 513              	.LBB188:
ARM GAS  /tmp/cclIf2wf.s 			page 10


 514              		.loc 4 421 20 view .LVU151
 515              	.LBB184:
 516              		.loc 4 423 23 view .LVU152
 517              		.loc 4 424 34 view .LVU153
 518              		.loc 4 430 3 view .LVU154
 519              		.loc 4 430 3 view .LVU155
 520              		.loc 4 430 3 view .LVU156
 521              		.loc 4 434 3 view .LVU157
 522              	.LBB181:
 523              		.loc 5 830 27 view .LVU158
 524              	.LBE181:
 525              	.LBE184:
 526              	.LBE188:
 527              		.loc 5 833 3 view .LVU159
 528              	.LBB189:
 529              	.LBB185:
 530              	.LBB182:
 531              	.LBB179:
 532              		.loc 2 491 27 view .LVU160
 533              	.LBB178:
 534              		.loc 2 493 3 view .LVU161
 535 0026 0023     		movs	r3, #0
 536              		.syntax unified
 537              	@ 493 "../ChibiOS/os/common/ext/ARM/CMSIS/Core/Include/cmsis_gcc.h" 1
 538 0028 83F31188 		MSR basepri, r3
 539              	@ 0 "" 2
 540              	.LVL23:
 541              		.loc 2 493 3 is_stmt 0 view .LVU162
 542              		.thumb
 543              		.syntax unified
 544              	.LBE178:
 545              	.LBE179:
 546              	.LBE182:
 547              	.LBE185:
 548              	.LBE189:
 549              		.loc 1 168 3 is_stmt 1 view .LVU163
 550              		.loc 1 169 1 is_stmt 0 view .LVU164
 551 002c 08BD     		pop	{r3, pc}
 552              		.cfi_endproc
 553              	.LFE338:
 554              		.size	chPoolAlloc, .-chPoolAlloc
 555 002e 00BF     		.section	.text.chPoolFreeI,"ax",%progbits
 556              		.align	1
 557              		.p2align 4,,15
 558              		.global	chPoolFreeI
 559              		.syntax unified
 560              		.thumb
 561              		.thumb_func
 562              		.fpu softvfp
 563              		.type	chPoolFreeI, %function
 564              	chPoolFreeI:
 565              	.LVL24:
 566              	.LFB339:
 567              		.loc 1 183 49 is_stmt 1 view -0
 568              		.cfi_startproc
 569              		@ args = 0, pretend = 0, frame = 0
 570              		@ frame_needed = 0, uses_anonymous_args = 0
ARM GAS  /tmp/cclIf2wf.s 			page 11


 571              		@ link register save eliminated.
 572              		.loc 1 184 3 view .LVU166
 573              		.loc 1 186 21 view .LVU167
 574              		.loc 1 187 3 view .LVU168
 575              		.loc 1 187 3 view .LVU169
 576              		.loc 1 187 3 view .LVU170
 577              		.loc 1 191 3 view .LVU171
 578              		.loc 1 191 13 is_stmt 0 view .LVU172
 579 0000 0368     		ldr	r3, [r0]
 580 0002 0B60     		str	r3, [r1]
 581              		.loc 1 192 3 is_stmt 1 view .LVU173
 582              		.loc 1 192 12 is_stmt 0 view .LVU174
 583 0004 0160     		str	r1, [r0]
 584              		.loc 1 193 1 view .LVU175
 585 0006 7047     		bx	lr
 586              		.cfi_endproc
 587              	.LFE339:
 588              		.size	chPoolFreeI, .-chPoolFreeI
 589              		.section	.text.chPoolFree,"ax",%progbits
 590              		.align	1
 591              		.p2align 4,,15
 592              		.global	chPoolFree
 593              		.syntax unified
 594              		.thumb
 595              		.thumb_func
 596              		.fpu softvfp
 597              		.type	chPoolFree, %function
 598              	chPoolFree:
 599              	.LVL25:
 600              	.LFB340:
 601              		.loc 1 207 48 is_stmt 1 view -0
 602              		.cfi_startproc
 603              		@ args = 0, pretend = 0, frame = 0
 604              		@ frame_needed = 0, uses_anonymous_args = 0
 605              		@ link register save eliminated.
 606              		.loc 1 209 3 view .LVU177
 607              	.LBB190:
 608              	.LBI190:
 609              		.loc 4 407 20 view .LVU178
 610              	.LBE190:
 611              		.loc 4 409 3 view .LVU179
 612              	.LBB195:
 613              	.LBB191:
 614              	.LBI191:
 615              		.loc 5 806 27 view .LVU180
 616              	.LBE191:
 617              	.LBE195:
 618              		.loc 5 814 3 view .LVU181
 619              	.LBB196:
 620              	.LBB194:
 621              	.LBB192:
 622              	.LBI192:
 623              		.loc 2 491 27 view .LVU182
 624              	.LBB193:
 625              		.loc 2 493 3 view .LVU183
 626 0000 3023     		movs	r3, #48
 627              		.syntax unified
ARM GAS  /tmp/cclIf2wf.s 			page 12


 628              	@ 493 "../ChibiOS/os/common/ext/ARM/CMSIS/Core/Include/cmsis_gcc.h" 1
 629 0002 83F31188 		MSR basepri, r3
 630              	@ 0 "" 2
 631              	.LVL26:
 632              		.loc 2 493 3 is_stmt 0 view .LVU184
 633              		.thumb
 634              		.syntax unified
 635              	.LBE193:
 636              	.LBE192:
 637              	.LBE194:
 638              	.LBE196:
 639              		.loc 4 410 35 is_stmt 1 view .LVU185
 640              		.loc 4 411 21 view .LVU186
 641              		.loc 1 210 3 view .LVU187
 642              	.LBB197:
 643              	.LBI197:
 644              		.loc 1 183 6 view .LVU188
 645              	.LBB198:
 646              		.loc 1 184 3 view .LVU189
 647              		.loc 1 186 21 view .LVU190
 648              		.loc 1 187 3 view .LVU191
 649              		.loc 1 187 3 view .LVU192
 650              		.loc 1 187 3 view .LVU193
 651              		.loc 1 191 3 view .LVU194
 652              		.loc 1 191 13 is_stmt 0 view .LVU195
 653 0006 0368     		ldr	r3, [r0]
 654 0008 0B60     		str	r3, [r1]
 655              		.loc 1 192 3 is_stmt 1 view .LVU196
 656              	.LBE198:
 657              	.LBE197:
 658              	.LBB200:
 659              	.LBB201:
 660              	.LBB202:
 661              	.LBB203:
 662              	.LBB204:
 663              		.loc 2 493 3 is_stmt 0 view .LVU197
 664 000a 0023     		movs	r3, #0
 665              	.LBE204:
 666              	.LBE203:
 667              	.LBE202:
 668              	.LBE201:
 669              	.LBE200:
 670              	.LBB211:
 671              	.LBB199:
 672              		.loc 1 192 12 view .LVU198
 673 000c 0160     		str	r1, [r0]
 674              	.LVL27:
 675              		.loc 1 192 12 view .LVU199
 676              	.LBE199:
 677              	.LBE211:
 678              		.loc 1 211 3 is_stmt 1 view .LVU200
 679              	.LBB212:
 680              	.LBI200:
 681              		.loc 4 421 20 view .LVU201
 682              	.LBB209:
 683              		.loc 4 423 23 view .LVU202
 684              		.loc 4 424 34 view .LVU203
ARM GAS  /tmp/cclIf2wf.s 			page 13


 685              		.loc 4 430 3 view .LVU204
 686              		.loc 4 430 3 view .LVU205
 687              		.loc 4 430 3 view .LVU206
 688              		.loc 4 434 3 view .LVU207
 689              	.LBB207:
 690              	.LBI202:
 691              		.loc 5 830 27 view .LVU208
 692              	.LBE207:
 693              	.LBE209:
 694              	.LBE212:
 695              		.loc 5 833 3 view .LVU209
 696              	.LBB213:
 697              	.LBB210:
 698              	.LBB208:
 699              	.LBB206:
 700              	.LBI203:
 701              		.loc 2 491 27 view .LVU210
 702              	.LBB205:
 703              		.loc 2 493 3 view .LVU211
 704              		.syntax unified
 705              	@ 493 "../ChibiOS/os/common/ext/ARM/CMSIS/Core/Include/cmsis_gcc.h" 1
 706 000e 83F31188 		MSR basepri, r3
 707              	@ 0 "" 2
 708              	.LVL28:
 709              		.loc 2 493 3 is_stmt 0 view .LVU212
 710              		.thumb
 711              		.syntax unified
 712              	.LBE205:
 713              	.LBE206:
 714              	.LBE208:
 715              	.LBE210:
 716              	.LBE213:
 717              		.loc 1 212 1 view .LVU213
 718 0012 7047     		bx	lr
 719              		.cfi_endproc
 720              	.LFE340:
 721              		.size	chPoolFree, .-chPoolFree
 722              		.section	.text.chGuardedPoolObjectInitAligned,"ax",%progbits
 723              		.align	1
 724              		.p2align 4,,15
 725              		.global	chGuardedPoolObjectInitAligned
 726              		.syntax unified
 727              		.thumb
 728              		.thumb_func
 729              		.fpu softvfp
 730              		.type	chGuardedPoolObjectInitAligned, %function
 731              	chGuardedPoolObjectInitAligned:
 732              	.LVL29:
 733              	.LFB341:
 734              		.loc 1 228 53 is_stmt 1 view -0
 735              		.cfi_startproc
 736              		@ args = 0, pretend = 0, frame = 0
 737              		@ frame_needed = 0, uses_anonymous_args = 0
 738              		@ link register save eliminated.
 739              		.loc 1 230 3 view .LVU215
 740              		.loc 1 228 53 is_stmt 0 view .LVU216
 741 0000 10B4     		push	{r4}
ARM GAS  /tmp/cclIf2wf.s 			page 14


 742              		.cfi_def_cfa_offset 4
 743              		.cfi_offset 4, -4
 744              	.LBB214:
 745              	.LBB215:
 746              		.loc 1 85 12 view .LVU217
 747 0002 0024     		movs	r4, #0
 748              	.LVL30:
 749              		.loc 1 85 12 view .LVU218
 750              	.LBE215:
 751              	.LBI214:
 752              		.loc 1 77 6 is_stmt 1 view .LVU219
 753              	.LBB216:
 754              		.loc 1 80 3 view .LVU220
 755              		.loc 1 80 3 view .LVU221
 756              		.loc 1 80 3 view .LVU222
 757              		.loc 1 85 3 view .LVU223
 758              		.loc 1 86 19 is_stmt 0 view .LVU224
 759 0004 C0E90341 		strd	r4, r1, [r0, #12]
 760              		.loc 1 87 3 is_stmt 1 view .LVU225
 761              		.loc 1 88 16 is_stmt 0 view .LVU226
 762 0008 C0E90524 		strd	r2, r4, [r0, #20]
 763              	.LVL31:
 764              		.loc 1 88 16 view .LVU227
 765              	.LBE216:
 766              	.LBE214:
 767              		.loc 1 231 3 is_stmt 1 view .LVU228
 768 000c 2146     		mov	r1, r4
 769              	.LVL32:
 770              		.loc 1 232 1 is_stmt 0 view .LVU229
 771 000e 10BC     		pop	{r4}
 772              		.cfi_restore 4
 773              		.cfi_def_cfa_offset 0
 774              		.loc 1 231 3 view .LVU230
 775 0010 FFF7FEBF 		b	chSemObjectInit
 776              	.LVL33:
 777              		.loc 1 231 3 view .LVU231
 778              		.cfi_endproc
 779              	.LFE341:
 780              		.size	chGuardedPoolObjectInitAligned, .-chGuardedPoolObjectInitAligned
 781              		.section	.text.chGuardedPoolLoadArray,"ax",%progbits
 782              		.align	1
 783              		.p2align 4,,15
 784              		.global	chGuardedPoolLoadArray
 785              		.syntax unified
 786              		.thumb
 787              		.thumb_func
 788              		.fpu softvfp
 789              		.type	chGuardedPoolLoadArray, %function
 790              	chGuardedPoolLoadArray:
 791              	.LVL34:
 792              	.LFB342:
 793              		.loc 1 247 76 is_stmt 1 view -0
 794              		.cfi_startproc
 795              		@ args = 0, pretend = 0, frame = 0
 796              		@ frame_needed = 0, uses_anonymous_args = 0
 797              		.loc 1 249 3 view .LVU233
 798              		.loc 1 249 3 view .LVU234
ARM GAS  /tmp/cclIf2wf.s 			page 15


 799              		.loc 1 249 3 view .LVU235
 800              		.loc 1 251 3 view .LVU236
 801              		.loc 1 251 9 view .LVU237
 802 0000 CAB1     		cbz	r2, .L38
 803              		.loc 1 247 76 is_stmt 0 view .LVU238
 804 0002 2DE9F041 		push	{r4, r5, r6, r7, r8, lr}
 805              		.cfi_def_cfa_offset 24
 806              		.cfi_offset 4, -24
 807              		.cfi_offset 5, -20
 808              		.cfi_offset 6, -16
 809              		.cfi_offset 7, -12
 810              		.cfi_offset 8, -8
 811              		.cfi_offset 14, -4
 812 0006 0446     		mov	r4, r0
 813 0008 0D46     		mov	r5, r1
 814 000a 1646     		mov	r6, r2
 815              	.LBB234:
 816              	.LBB235:
 817              	.LBB236:
 818              	.LBB237:
 819              	.LBB238:
 820              	.LBB239:
 821              	.LBB240:
 822              		.loc 2 493 3 view .LVU239
 823 000c 4FF03008 		mov	r8, #48
 824              	.LBE240:
 825              	.LBE239:
 826              	.LBE238:
 827              	.LBE237:
 828              	.LBB245:
 829              	.LBB246:
 830              	.LBB247:
 831              	.LBB248:
 832              	.LBB249:
 833 0010 0027     		movs	r7, #0
 834              	.LVL35:
 835              	.L34:
 836              		.loc 2 493 3 view .LVU240
 837              	.LBE249:
 838              	.LBE248:
 839              	.LBE247:
 840              	.LBE246:
 841              	.LBE245:
 842              	.LBE236:
 843              	.LBE235:
 844              	.LBE234:
 845              		.loc 1 252 5 is_stmt 1 view .LVU241
 846              	.LBB277:
 847              	.LBI234:
 848              		.loc 3 337 20 view .LVU242
 849              	.LBE277:
 850              		.loc 3 339 3 view .LVU243
 851              	.LBB278:
 852              	.LBB272:
 853              	.LBI235:
 854              		.loc 1 325 6 view .LVU244
 855              	.LBB267:
ARM GAS  /tmp/cclIf2wf.s 			page 16


 856              		.loc 1 327 3 view .LVU245
 857              	.LBB256:
 858              	.LBI237:
 859              		.loc 4 407 20 view .LVU246
 860              	.LBE256:
 861              	.LBE267:
 862              	.LBE272:
 863              	.LBE278:
 864              		.loc 4 409 3 view .LVU247
 865              	.LBB279:
 866              	.LBB273:
 867              	.LBB268:
 868              	.LBB257:
 869              	.LBB243:
 870              	.LBI238:
 871              		.loc 5 806 27 view .LVU248
 872              	.LBE243:
 873              	.LBE257:
 874              	.LBE268:
 875              	.LBE273:
 876              	.LBE279:
 877              		.loc 5 814 3 view .LVU249
 878              	.LBB280:
 879              	.LBB274:
 880              	.LBB269:
 881              	.LBB258:
 882              	.LBB244:
 883              	.LBB242:
 884              	.LBI239:
 885              		.loc 2 491 27 view .LVU250
 886              	.LBB241:
 887              		.loc 2 493 3 view .LVU251
 888              		.syntax unified
 889              	@ 493 "../ChibiOS/os/common/ext/ARM/CMSIS/Core/Include/cmsis_gcc.h" 1
 890 0012 88F31188 		MSR basepri, r8
 891              	@ 0 "" 2
 892              	.LVL36:
 893              		.loc 2 493 3 is_stmt 0 view .LVU252
 894              		.thumb
 895              		.syntax unified
 896              	.LBE241:
 897              	.LBE242:
 898              	.LBE244:
 899              	.LBE258:
 900              	.LBE269:
 901              	.LBE274:
 902              	.LBE280:
 903              		.loc 4 410 35 is_stmt 1 view .LVU253
 904              		.loc 4 411 21 view .LVU254
 905              	.LBB281:
 906              	.LBB275:
 907              	.LBB270:
 908              		.loc 1 328 3 view .LVU255
 909              	.LBB259:
 910              	.LBI259:
 911              		.loc 3 299 20 view .LVU256
 912              	.LBB260:
ARM GAS  /tmp/cclIf2wf.s 			page 17


 913              		.loc 3 301 3 view .LVU257
 914              	.LBB261:
 915              	.LBI261:
 916              		.loc 1 183 6 view .LVU258
 917              	.LBB262:
 918              		.loc 1 184 3 view .LVU259
 919              		.loc 1 186 21 view .LVU260
 920              		.loc 1 187 3 view .LVU261
 921              		.loc 1 187 3 view .LVU262
 922              		.loc 1 187 3 view .LVU263
 923              		.loc 1 191 3 view .LVU264
 924              		.loc 1 191 13 is_stmt 0 view .LVU265
 925 0016 E368     		ldr	r3, [r4, #12]
 926 0018 2B60     		str	r3, [r5]
 927              		.loc 1 192 3 is_stmt 1 view .LVU266
 928              	.LBE262:
 929              	.LBE261:
 930              		.loc 3 302 3 is_stmt 0 view .LVU267
 931 001a 2046     		mov	r0, r4
 932              	.LBB264:
 933              	.LBB263:
 934              		.loc 1 192 12 view .LVU268
 935 001c E560     		str	r5, [r4, #12]
 936              	.LVL37:
 937              		.loc 1 192 12 view .LVU269
 938              	.LBE263:
 939              	.LBE264:
 940              		.loc 3 302 3 is_stmt 1 view .LVU270
 941 001e FFF7FEFF 		bl	chSemSignalI
 942              	.LVL38:
 943              		.loc 3 302 3 is_stmt 0 view .LVU271
 944              	.LBE260:
 945              	.LBE259:
 946              		.loc 1 329 3 is_stmt 1 view .LVU272
 947 0022 FFF7FEFF 		bl	chSchRescheduleS
 948              	.LVL39:
 949              		.loc 1 330 3 view .LVU273
 950              	.LBB265:
 951              	.LBI245:
 952              		.loc 4 421 20 view .LVU274
 953              	.LBB254:
 954              		.loc 4 423 23 view .LVU275
 955              		.loc 4 424 34 view .LVU276
 956              		.loc 4 430 3 view .LVU277
 957              		.loc 4 430 3 view .LVU278
 958              		.loc 4 430 3 view .LVU279
 959              		.loc 4 434 3 view .LVU280
 960              	.LBB252:
 961              	.LBI247:
 962              		.loc 5 830 27 view .LVU281
 963              	.LBE252:
 964              	.LBE254:
 965              	.LBE265:
 966              	.LBE270:
 967              	.LBE275:
 968              	.LBE281:
 969              		.loc 5 833 3 view .LVU282
ARM GAS  /tmp/cclIf2wf.s 			page 18


 970              	.LBB282:
 971              	.LBB276:
 972              	.LBB271:
 973              	.LBB266:
 974              	.LBB255:
 975              	.LBB253:
 976              	.LBB251:
 977              	.LBI248:
 978              		.loc 2 491 27 view .LVU283
 979              	.LBB250:
 980              		.loc 2 493 3 view .LVU284
 981              		.syntax unified
 982              	@ 493 "../ChibiOS/os/common/ext/ARM/CMSIS/Core/Include/cmsis_gcc.h" 1
 983 0026 87F31188 		MSR basepri, r7
 984              	@ 0 "" 2
 985              	.LVL40:
 986              		.loc 2 493 3 is_stmt 0 view .LVU285
 987              		.thumb
 988              		.syntax unified
 989              	.LBE250:
 990              	.LBE251:
 991              	.LBE253:
 992              	.LBE255:
 993              	.LBE266:
 994              	.LBE271:
 995              	.LBE276:
 996              	.LBE282:
 997              		.loc 1 254 5 is_stmt 1 view .LVU286
 998              		.loc 1 254 7 is_stmt 0 view .LVU287
 999 002a 2369     		ldr	r3, [r4, #16]
 1000              		.loc 1 251 9 view .LVU288
 1001 002c 013E     		subs	r6, r6, #1
 1002              	.LVL41:
 1003              		.loc 1 254 7 view .LVU289
 1004 002e 1D44     		add	r5, r5, r3
 1005              	.LVL42:
 1006              		.loc 1 256 5 is_stmt 1 view .LVU290
 1007              		.loc 1 251 9 view .LVU291
 1008 0030 EFD1     		bne	.L34
 1009              		.loc 1 258 1 is_stmt 0 view .LVU292
 1010 0032 BDE8F081 		pop	{r4, r5, r6, r7, r8, pc}
 1011              	.LVL43:
 1012              	.L38:
 1013              		.cfi_def_cfa_offset 0
 1014              		.cfi_restore 4
 1015              		.cfi_restore 5
 1016              		.cfi_restore 6
 1017              		.cfi_restore 7
 1018              		.cfi_restore 8
 1019              		.cfi_restore 14
 1020              		.loc 1 258 1 view .LVU293
 1021 0036 7047     		bx	lr
 1022              		.cfi_endproc
 1023              	.LFE342:
 1024              		.size	chGuardedPoolLoadArray, .-chGuardedPoolLoadArray
 1025              		.section	.text.chGuardedPoolAllocTimeoutS,"ax",%progbits
 1026              		.align	1
ARM GAS  /tmp/cclIf2wf.s 			page 19


 1027              		.p2align 4,,15
 1028              		.global	chGuardedPoolAllocTimeoutS
 1029              		.syntax unified
 1030              		.thumb
 1031              		.thumb_func
 1032              		.fpu softvfp
 1033              		.type	chGuardedPoolAllocTimeoutS, %function
 1034              	chGuardedPoolAllocTimeoutS:
 1035              	.LVL44:
 1036              	.LFB343:
 1037              		.loc 1 276 57 is_stmt 1 view -0
 1038              		.cfi_startproc
 1039              		@ args = 0, pretend = 0, frame = 0
 1040              		@ frame_needed = 0, uses_anonymous_args = 0
 1041              		.loc 1 277 3 view .LVU295
 1042              		.loc 1 279 3 view .LVU296
 1043              		.loc 1 276 57 is_stmt 0 view .LVU297
 1044 0000 10B5     		push	{r4, lr}
 1045              		.cfi_def_cfa_offset 8
 1046              		.cfi_offset 4, -8
 1047              		.cfi_offset 14, -4
 1048              		.loc 1 276 57 view .LVU298
 1049 0002 0446     		mov	r4, r0
 1050              		.loc 1 279 9 view .LVU299
 1051 0004 FFF7FEFF 		bl	chSemWaitTimeoutS
 1052              	.LVL45:
 1053              		.loc 1 280 3 is_stmt 1 view .LVU300
 1054              		.loc 1 280 6 is_stmt 0 view .LVU301
 1055 0008 60B9     		cbnz	r0, .L44
 1056              		.loc 1 284 3 is_stmt 1 view .LVU302
 1057              	.LVL46:
 1058              	.LBB287:
 1059              	.LBI287:
 1060              		.loc 1 129 7 view .LVU303
 1061              	.LBB288:
 1062              		.loc 1 130 3 view .LVU304
 1063              		.loc 1 132 21 view .LVU305
 1064              		.loc 1 133 3 view .LVU306
 1065              		.loc 1 133 3 view .LVU307
 1066              		.loc 1 133 3 view .LVU308
 1067              		.loc 1 135 3 view .LVU309
 1068              		.loc 1 135 8 is_stmt 0 view .LVU310
 1069 000a E068     		ldr	r0, [r4, #12]
 1070              	.LVL47:
 1071              		.loc 1 137 3 is_stmt 1 view .LVU311
 1072              		.loc 1 137 6 is_stmt 0 view .LVU312
 1073 000c 10B1     		cbz	r0, .L43
 1074              		.loc 1 138 5 is_stmt 1 view .LVU313
 1075              		.loc 1 138 14 is_stmt 0 view .LVU314
 1076 000e 0368     		ldr	r3, [r0]
 1077 0010 E360     		str	r3, [r4, #12]
 1078              	.L41:
 1079              	.LBE288:
 1080              	.LBE287:
 1081              		.loc 1 285 1 view .LVU315
 1082 0012 10BD     		pop	{r4, pc}
 1083              	.LVL48:
ARM GAS  /tmp/cclIf2wf.s 			page 20


 1084              	.L43:
 1085              	.LBB295:
 1086              	.LBB293:
 1087              	.LBB289:
 1088              	.LBI289:
 1089              		.loc 1 129 7 is_stmt 1 view .LVU316
 1090              	.LBB290:
 1091              		.loc 1 140 8 view .LVU317
 1092              		.loc 1 140 14 is_stmt 0 view .LVU318
 1093 0014 A369     		ldr	r3, [r4, #24]
 1094              		.loc 1 140 11 view .LVU319
 1095 0016 002B     		cmp	r3, #0
 1096 0018 FBD0     		beq	.L41
 1097              		.loc 1 141 5 is_stmt 1 view .LVU320
 1098              		.loc 1 141 12 is_stmt 0 view .LVU321
 1099 001a D4E90401 		ldrd	r0, r1, [r4, #16]
 1100              	.LVL49:
 1101              		.loc 1 141 12 view .LVU322
 1102              	.LBE290:
 1103              	.LBE289:
 1104              	.LBE293:
 1105              	.LBE295:
 1106              		.loc 1 285 1 view .LVU323
 1107 001e BDE81040 		pop	{r4, lr}
 1108              		.cfi_remember_state
 1109              		.cfi_restore 14
 1110              		.cfi_restore 4
 1111              		.cfi_def_cfa_offset 0
 1112              	.LVL50:
 1113              	.LBB296:
 1114              	.LBB294:
 1115              	.LBB292:
 1116              	.LBB291:
 1117              		.loc 1 141 12 view .LVU324
 1118 0022 1847     		bx	r3
 1119              	.LVL51:
 1120              	.L44:
 1121              		.cfi_restore_state
 1122              		.loc 1 141 12 view .LVU325
 1123              	.LBE291:
 1124              	.LBE292:
 1125              	.LBE294:
 1126              	.LBE296:
 1127              		.loc 1 281 12 view .LVU326
 1128 0024 0020     		movs	r0, #0
 1129              	.LVL52:
 1130              		.loc 1 285 1 view .LVU327
 1131 0026 10BD     		pop	{r4, pc}
 1132              		.loc 1 285 1 view .LVU328
 1133              		.cfi_endproc
 1134              	.LFE343:
 1135              		.size	chGuardedPoolAllocTimeoutS, .-chGuardedPoolAllocTimeoutS
 1136              		.section	.text.chGuardedPoolAllocTimeout,"ax",%progbits
 1137              		.align	1
 1138              		.p2align 4,,15
 1139              		.global	chGuardedPoolAllocTimeout
 1140              		.syntax unified
ARM GAS  /tmp/cclIf2wf.s 			page 21


 1141              		.thumb
 1142              		.thumb_func
 1143              		.fpu softvfp
 1144              		.type	chGuardedPoolAllocTimeout, %function
 1145              	chGuardedPoolAllocTimeout:
 1146              	.LVL53:
 1147              	.LFB344:
 1148              		.loc 1 303 56 is_stmt 1 view -0
 1149              		.cfi_startproc
 1150              		@ args = 0, pretend = 0, frame = 0
 1151              		@ frame_needed = 0, uses_anonymous_args = 0
 1152              		.loc 1 303 56 is_stmt 0 view .LVU330
 1153 0000 10B5     		push	{r4, lr}
 1154              		.cfi_def_cfa_offset 8
 1155              		.cfi_offset 4, -8
 1156              		.cfi_offset 14, -4
 1157              	.LBB312:
 1158              	.LBB313:
 1159              	.LBB314:
 1160              	.LBB315:
 1161              		.loc 2 493 3 view .LVU331
 1162 0002 3023     		movs	r3, #48
 1163              	.LBE315:
 1164              	.LBE314:
 1165              	.LBE313:
 1166              	.LBE312:
 1167              		.loc 1 303 56 view .LVU332
 1168 0004 0446     		mov	r4, r0
 1169              		.loc 1 304 3 is_stmt 1 view .LVU333
 1170              		.loc 1 306 3 view .LVU334
 1171              	.LBB320:
 1172              	.LBI312:
 1173              		.loc 4 407 20 view .LVU335
 1174              	.LBE320:
 1175              		.loc 4 409 3 view .LVU336
 1176              	.LBB321:
 1177              	.LBB318:
 1178              	.LBI313:
 1179              		.loc 5 806 27 view .LVU337
 1180              	.LBE318:
 1181              	.LBE321:
 1182              		.loc 5 814 3 view .LVU338
 1183              	.LVL54:
 1184              	.LBB322:
 1185              	.LBB319:
 1186              	.LBB317:
 1187              	.LBI314:
 1188              		.loc 2 491 27 view .LVU339
 1189              	.LBB316:
 1190              		.loc 2 493 3 view .LVU340
 1191              		.syntax unified
 1192              	@ 493 "../ChibiOS/os/common/ext/ARM/CMSIS/Core/Include/cmsis_gcc.h" 1
 1193 0006 83F31188 		MSR basepri, r3
 1194              	@ 0 "" 2
 1195              	.LVL55:
 1196              		.loc 2 493 3 is_stmt 0 view .LVU341
 1197              		.thumb
ARM GAS  /tmp/cclIf2wf.s 			page 22


 1198              		.syntax unified
 1199              	.LBE316:
 1200              	.LBE317:
 1201              	.LBE319:
 1202              	.LBE322:
 1203              		.loc 4 410 35 is_stmt 1 view .LVU342
 1204              		.loc 4 411 21 view .LVU343
 1205              		.loc 1 307 3 view .LVU344
 1206              	.LBB323:
 1207              	.LBI323:
 1208              		.loc 1 275 7 view .LVU345
 1209              	.LBB324:
 1210              		.loc 1 277 3 view .LVU346
 1211              		.loc 1 279 3 view .LVU347
 1212              		.loc 1 279 9 is_stmt 0 view .LVU348
 1213 000a FFF7FEFF 		bl	chSemWaitTimeoutS
 1214              	.LVL56:
 1215              		.loc 1 280 3 is_stmt 1 view .LVU349
 1216              		.loc 1 280 6 is_stmt 0 view .LVU350
 1217 000e 88B9     		cbnz	r0, .L52
 1218              		.loc 1 284 3 is_stmt 1 view .LVU351
 1219              	.LVL57:
 1220              	.LBB325:
 1221              	.LBI325:
 1222              		.loc 1 129 7 view .LVU352
 1223              	.LBB326:
 1224              		.loc 1 130 3 view .LVU353
 1225              		.loc 1 132 21 view .LVU354
 1226              		.loc 1 133 3 view .LVU355
 1227              		.loc 1 133 3 view .LVU356
 1228              		.loc 1 133 3 view .LVU357
 1229              		.loc 1 135 3 view .LVU358
 1230              		.loc 1 135 8 is_stmt 0 view .LVU359
 1231 0010 E068     		ldr	r0, [r4, #12]
 1232              	.LVL58:
 1233              		.loc 1 137 3 is_stmt 1 view .LVU360
 1234              		.loc 1 137 6 is_stmt 0 view .LVU361
 1235 0012 28B1     		cbz	r0, .L51
 1236              		.loc 1 138 5 is_stmt 1 view .LVU362
 1237              		.loc 1 138 14 is_stmt 0 view .LVU363
 1238 0014 0368     		ldr	r3, [r0]
 1239 0016 E360     		str	r3, [r4, #12]
 1240              	.L50:
 1241              	.LVL59:
 1242              		.loc 1 138 14 view .LVU364
 1243              	.LBE326:
 1244              	.LBE325:
 1245              	.LBE324:
 1246              	.LBE323:
 1247              		.loc 1 308 3 is_stmt 1 view .LVU365
 1248              	.LBB333:
 1249              	.LBI333:
 1250              		.loc 4 421 20 view .LVU366
 1251              	.LBB334:
 1252              		.loc 4 423 23 view .LVU367
 1253              		.loc 4 424 34 view .LVU368
 1254              		.loc 4 430 3 view .LVU369
ARM GAS  /tmp/cclIf2wf.s 			page 23


 1255              		.loc 4 430 3 view .LVU370
 1256              		.loc 4 430 3 view .LVU371
 1257              		.loc 4 434 3 view .LVU372
 1258              	.LBB335:
 1259              	.LBI335:
 1260              		.loc 5 830 27 view .LVU373
 1261              	.LBE335:
 1262              	.LBE334:
 1263              	.LBE333:
 1264              		.loc 5 833 3 view .LVU374
 1265              	.LBB352:
 1266              	.LBB347:
 1267              	.LBB342:
 1268              	.LBB336:
 1269              	.LBI336:
 1270              		.loc 2 491 27 view .LVU375
 1271              	.LBB337:
 1272              		.loc 2 493 3 view .LVU376
 1273 0018 0023     		movs	r3, #0
 1274              		.syntax unified
 1275              	@ 493 "../ChibiOS/os/common/ext/ARM/CMSIS/Core/Include/cmsis_gcc.h" 1
 1276 001a 83F31188 		MSR basepri, r3
 1277              	@ 0 "" 2
 1278              	.LVL60:
 1279              		.loc 2 493 3 is_stmt 0 view .LVU377
 1280              		.thumb
 1281              		.syntax unified
 1282              	.LBE337:
 1283              	.LBE336:
 1284              	.LBE342:
 1285              	.LBE347:
 1286              	.LBE352:
 1287              		.loc 1 310 3 is_stmt 1 view .LVU378
 1288              		.loc 1 311 1 is_stmt 0 view .LVU379
 1289 001e 10BD     		pop	{r4, pc}
 1290              	.LVL61:
 1291              	.L51:
 1292              	.LBB353:
 1293              	.LBB331:
 1294              	.LBB330:
 1295              	.LBB329:
 1296              	.LBB327:
 1297              	.LBI327:
 1298              		.loc 1 129 7 is_stmt 1 view .LVU380
 1299              	.LBB328:
 1300              		.loc 1 140 8 view .LVU381
 1301              		.loc 1 140 14 is_stmt 0 view .LVU382
 1302 0020 A369     		ldr	r3, [r4, #24]
 1303              		.loc 1 140 11 view .LVU383
 1304 0022 002B     		cmp	r3, #0
 1305 0024 F8D0     		beq	.L50
 1306              		.loc 1 141 5 is_stmt 1 view .LVU384
 1307              		.loc 1 141 12 is_stmt 0 view .LVU385
 1308 0026 D4E90401 		ldrd	r0, r1, [r4, #16]
 1309              	.LVL62:
 1310              		.loc 1 141 12 view .LVU386
 1311 002a 9847     		blx	r3
ARM GAS  /tmp/cclIf2wf.s 			page 24


 1312              	.LVL63:
 1313              		.loc 1 143 5 is_stmt 1 view .LVU387
 1314              		.loc 1 143 5 view .LVU388
 1315              		.loc 1 143 5 is_stmt 0 view .LVU389
 1316              	.LBE328:
 1317              	.LBE327:
 1318              	.LBE329:
 1319              	.LBE330:
 1320              	.LBE331:
 1321              	.LBE353:
 1322              		.loc 1 308 3 is_stmt 1 view .LVU390
 1323              	.LBB354:
 1324              		.loc 4 421 20 view .LVU391
 1325              	.LBB348:
 1326              		.loc 4 423 23 view .LVU392
 1327              		.loc 4 424 34 view .LVU393
 1328              		.loc 4 430 3 view .LVU394
 1329              		.loc 4 430 3 view .LVU395
 1330              		.loc 4 430 3 view .LVU396
 1331              		.loc 4 434 3 view .LVU397
 1332              	.LBB343:
 1333              		.loc 5 830 27 view .LVU398
 1334              	.LBE343:
 1335              	.LBE348:
 1336              	.LBE354:
 1337              		.loc 5 833 3 view .LVU399
 1338              	.LBB355:
 1339              	.LBB349:
 1340              	.LBB344:
 1341              	.LBB340:
 1342              		.loc 2 491 27 view .LVU400
 1343              	.LBB338:
 1344              		.loc 2 493 3 view .LVU401
 1345 002c 0023     		movs	r3, #0
 1346              		.syntax unified
 1347              	@ 493 "../ChibiOS/os/common/ext/ARM/CMSIS/Core/Include/cmsis_gcc.h" 1
 1348 002e 83F31188 		MSR basepri, r3
 1349              	@ 0 "" 2
 1350              	.LVL64:
 1351              		.loc 2 493 3 is_stmt 0 view .LVU402
 1352              		.thumb
 1353              		.syntax unified
 1354              	.LBE338:
 1355              	.LBE340:
 1356              	.LBE344:
 1357              	.LBE349:
 1358              	.LBE355:
 1359              		.loc 1 310 3 is_stmt 1 view .LVU403
 1360              		.loc 1 311 1 is_stmt 0 view .LVU404
 1361 0032 10BD     		pop	{r4, pc}
 1362              	.LVL65:
 1363              	.L52:
 1364              	.LBB356:
 1365              	.LBB332:
 1366              		.loc 1 281 12 view .LVU405
 1367 0034 0020     		movs	r0, #0
 1368              	.LVL66:
ARM GAS  /tmp/cclIf2wf.s 			page 25


 1369              		.loc 1 281 12 view .LVU406
 1370              	.LBE332:
 1371              	.LBE356:
 1372              		.loc 1 308 3 is_stmt 1 view .LVU407
 1373              	.LBB357:
 1374              		.loc 4 421 20 view .LVU408
 1375              	.LBB350:
 1376              		.loc 4 423 23 view .LVU409
 1377              		.loc 4 424 34 view .LVU410
 1378              		.loc 4 430 3 view .LVU411
 1379              		.loc 4 430 3 view .LVU412
 1380              		.loc 4 430 3 view .LVU413
 1381              		.loc 4 434 3 view .LVU414
 1382              	.LBB345:
 1383              		.loc 5 830 27 view .LVU415
 1384              	.LBE345:
 1385              	.LBE350:
 1386              	.LBE357:
 1387              		.loc 5 833 3 view .LVU416
 1388              	.LBB358:
 1389              	.LBB351:
 1390              	.LBB346:
 1391              	.LBB341:
 1392              		.loc 2 491 27 view .LVU417
 1393              	.LBB339:
 1394              		.loc 2 493 3 view .LVU418
 1395 0036 0023     		movs	r3, #0
 1396              		.syntax unified
 1397              	@ 493 "../ChibiOS/os/common/ext/ARM/CMSIS/Core/Include/cmsis_gcc.h" 1
 1398 0038 83F31188 		MSR basepri, r3
 1399              	@ 0 "" 2
 1400              	.LVL67:
 1401              		.loc 2 493 3 is_stmt 0 view .LVU419
 1402              		.thumb
 1403              		.syntax unified
 1404              	.LBE339:
 1405              	.LBE341:
 1406              	.LBE346:
 1407              	.LBE351:
 1408              	.LBE358:
 1409              		.loc 1 310 3 is_stmt 1 view .LVU420
 1410              		.loc 1 311 1 is_stmt 0 view .LVU421
 1411 003c 10BD     		pop	{r4, pc}
 1412              		.loc 1 311 1 view .LVU422
 1413              		.cfi_endproc
 1414              	.LFE344:
 1415              		.size	chGuardedPoolAllocTimeout, .-chGuardedPoolAllocTimeout
 1416 003e 00BF     		.section	.text.chGuardedPoolFree,"ax",%progbits
 1417              		.align	1
 1418              		.p2align 4,,15
 1419              		.global	chGuardedPoolFree
 1420              		.syntax unified
 1421              		.thumb
 1422              		.thumb_func
 1423              		.fpu softvfp
 1424              		.type	chGuardedPoolFree, %function
 1425              	chGuardedPoolFree:
ARM GAS  /tmp/cclIf2wf.s 			page 26


 1426              	.LVL68:
 1427              	.LFB345:
 1428              		.loc 1 325 64 is_stmt 1 view -0
 1429              		.cfi_startproc
 1430              		@ args = 0, pretend = 0, frame = 0
 1431              		@ frame_needed = 0, uses_anonymous_args = 0
 1432              		.loc 1 327 3 view .LVU424
 1433              	.LBB359:
 1434              	.LBI359:
 1435              		.loc 4 407 20 view .LVU425
 1436              	.LBE359:
 1437              		.loc 4 409 3 view .LVU426
 1438              	.LBB367:
 1439              	.LBB360:
 1440              	.LBI360:
 1441              		.loc 5 806 27 view .LVU427
 1442              	.LBE360:
 1443              	.LBE367:
 1444              		.loc 5 814 3 view .LVU428
 1445              	.LBB368:
 1446              	.LBB365:
 1447              	.LBB361:
 1448              	.LBI361:
 1449              		.loc 2 491 27 view .LVU429
 1450              	.LBB362:
 1451              		.loc 2 493 3 view .LVU430
 1452              	.LBE362:
 1453              	.LBE361:
 1454              	.LBE365:
 1455              	.LBE368:
 1456              		.loc 1 325 64 is_stmt 0 view .LVU431
 1457 0000 08B5     		push	{r3, lr}
 1458              		.cfi_def_cfa_offset 8
 1459              		.cfi_offset 3, -8
 1460              		.cfi_offset 14, -4
 1461              	.LBB369:
 1462              	.LBB366:
 1463              	.LBB364:
 1464              	.LBB363:
 1465              		.loc 2 493 3 view .LVU432
 1466 0002 3022     		movs	r2, #48
 1467              		.syntax unified
 1468              	@ 493 "../ChibiOS/os/common/ext/ARM/CMSIS/Core/Include/cmsis_gcc.h" 1
 1469 0004 82F31188 		MSR basepri, r2
 1470              	@ 0 "" 2
 1471              	.LVL69:
 1472              		.loc 2 493 3 view .LVU433
 1473              		.thumb
 1474              		.syntax unified
 1475              	.LBE363:
 1476              	.LBE364:
 1477              	.LBE366:
 1478              	.LBE369:
 1479              		.loc 4 410 35 is_stmt 1 view .LVU434
 1480              		.loc 4 411 21 view .LVU435
 1481              		.loc 1 328 3 view .LVU436
 1482              	.LBB370:
ARM GAS  /tmp/cclIf2wf.s 			page 27


 1483              	.LBI370:
 1484              		.loc 3 299 20 view .LVU437
 1485              	.LBB371:
 1486              		.loc 3 301 3 view .LVU438
 1487              	.LBB372:
 1488              	.LBI372:
 1489              		.loc 1 183 6 view .LVU439
 1490              	.LBB373:
 1491              		.loc 1 184 3 view .LVU440
 1492              		.loc 1 186 21 view .LVU441
 1493              		.loc 1 187 3 view .LVU442
 1494              		.loc 1 187 3 view .LVU443
 1495              		.loc 1 187 3 view .LVU444
 1496              		.loc 1 191 3 view .LVU445
 1497              		.loc 1 191 13 is_stmt 0 view .LVU446
 1498 0008 C268     		ldr	r2, [r0, #12]
 1499 000a 0A60     		str	r2, [r1]
 1500              		.loc 1 192 3 is_stmt 1 view .LVU447
 1501              		.loc 1 192 12 is_stmt 0 view .LVU448
 1502 000c C160     		str	r1, [r0, #12]
 1503              	.LVL70:
 1504              		.loc 1 192 12 view .LVU449
 1505              	.LBE373:
 1506              	.LBE372:
 1507              		.loc 3 302 3 is_stmt 1 view .LVU450
 1508 000e FFF7FEFF 		bl	chSemSignalI
 1509              	.LVL71:
 1510              		.loc 3 302 3 is_stmt 0 view .LVU451
 1511              	.LBE371:
 1512              	.LBE370:
 1513              		.loc 1 329 3 is_stmt 1 view .LVU452
 1514 0012 FFF7FEFF 		bl	chSchRescheduleS
 1515              	.LVL72:
 1516              		.loc 1 330 3 view .LVU453
 1517              	.LBB374:
 1518              	.LBI374:
 1519              		.loc 4 421 20 view .LVU454
 1520              	.LBB375:
 1521              		.loc 4 423 23 view .LVU455
 1522              		.loc 4 424 34 view .LVU456
 1523              		.loc 4 430 3 view .LVU457
 1524              		.loc 4 430 3 view .LVU458
 1525              		.loc 4 430 3 view .LVU459
 1526              		.loc 4 434 3 view .LVU460
 1527              	.LBB376:
 1528              	.LBI376:
 1529              		.loc 5 830 27 view .LVU461
 1530              	.LBE376:
 1531              	.LBE375:
 1532              	.LBE374:
 1533              		.loc 5 833 3 view .LVU462
 1534              	.LBB381:
 1535              	.LBB380:
 1536              	.LBB379:
 1537              	.LBB377:
 1538              	.LBI377:
 1539              		.loc 2 491 27 view .LVU463
ARM GAS  /tmp/cclIf2wf.s 			page 28


 1540              	.LBB378:
 1541              		.loc 2 493 3 view .LVU464
 1542 0016 0023     		movs	r3, #0
 1543              		.syntax unified
 1544              	@ 493 "../ChibiOS/os/common/ext/ARM/CMSIS/Core/Include/cmsis_gcc.h" 1
 1545 0018 83F31188 		MSR basepri, r3
 1546              	@ 0 "" 2
 1547              	.LVL73:
 1548              		.loc 2 493 3 is_stmt 0 view .LVU465
 1549              		.thumb
 1550              		.syntax unified
 1551              	.LBE378:
 1552              	.LBE377:
 1553              	.LBE379:
 1554              	.LBE380:
 1555              	.LBE381:
 1556              		.loc 1 331 1 view .LVU466
 1557 001c 08BD     		pop	{r3, pc}
 1558              		.cfi_endproc
 1559              	.LFE345:
 1560              		.size	chGuardedPoolFree, .-chGuardedPoolFree
 1561 001e 00BF     		.text
 1562              	.Letext0:
 1563              		.file 6 "/opt/gcc-arm-none-eabi/gcc-arm-none-eabi-10.3-2021.07/lib/gcc/arm-none-eabi/10.3.1/includ
 1564              		.file 7 "/opt/gcc-arm-none-eabi/gcc-arm-none-eabi-10.3-2021.07/arm-none-eabi/include/machine/_defa
 1565              		.file 8 "/opt/gcc-arm-none-eabi/gcc-arm-none-eabi-10.3-2021.07/arm-none-eabi/include/sys/_stdint.h
 1566              		.file 9 "../ChibiOS/os/rt/include/chearly.h"
 1567              		.file 10 "../ChibiOS/os/rt/include/chtime.h"
 1568              		.file 11 "../ChibiOS/os/rt/include/chlists.h"
 1569              		.file 12 "../ChibiOS/os/rt/include/chsem.h"
 1570              		.file 13 "../ChibiOS/os/oslib/include/chmemcore.h"
 1571              		.file 14 "../ChibiOS/os/rt/include/chschd.h"