ARM GAS  /tmp/cc4Q69ox.s 			page 1


   1              		.cpu cortex-m4
   2              		.eabi_attribute 20, 1
   3              		.eabi_attribute 21, 1
   4              		.eabi_attribute 23, 3
   5              		.eabi_attribute 24, 1
   6              		.eabi_attribute 25, 1
   7              		.eabi_attribute 26, 1
   8              		.eabi_attribute 30, 2
   9              		.eabi_attribute 34, 1
  10              		.eabi_attribute 18, 4
  11              		.file	"chmsg.c"
  12              		.text
  13              	.Ltext0:
  14              		.cfi_sections	.debug_frame
  15              		.section	.text.chMsgSend,"ax",%progbits
  16              		.align	1
  17              		.p2align 4,,15
  18              		.global	chMsgSend
  19              		.arch armv7e-m
  20              		.syntax unified
  21              		.thumb
  22              		.thumb_func
  23              		.fpu softvfp
  24              		.type	chMsgSend, %function
  25              	chMsgSend:
  26              	.LVL0:
  27              	.LFB335:
  28              		.file 1 "../ChibiOS/os/rt/src/chmsg.c"
  29              		.loc 1 81 42 view -0
  30              		.cfi_startproc
  31              		@ args = 0, pretend = 0, frame = 0
  32              		@ frame_needed = 0, uses_anonymous_args = 0
  33              		.loc 1 82 3 view .LVU1
  34              	.LBB58:
  35              	.LBI58:
  36              		.file 2 "../ChibiOS/os/rt/include/chthreads.h"
  37              		.loc 2 341 25 view .LVU2
  38              	.LBB59:
  39              		.loc 2 343 3 view .LVU3
  40              	.LBE59:
  41              	.LBE58:
  42              		.loc 1 81 42 is_stmt 0 view .LVU4
  43 0000 38B5     		push	{r3, r4, r5, lr}
  44              		.cfi_def_cfa_offset 16
  45              		.cfi_offset 3, -16
  46              		.cfi_offset 4, -12
  47              		.cfi_offset 5, -8
  48              		.cfi_offset 14, -4
  49              	.LBB62:
  50              	.LBB60:
  51              		.loc 2 343 10 view .LVU5
  52 0002 0E4B     		ldr	r3, .L6
  53              	.LBE60:
  54              	.LBE62:
  55              	.LBB63:
  56              	.LBB64:
  57              	.LBB65:
ARM GAS  /tmp/cc4Q69ox.s 			page 2


  58              	.LBB66:
  59              		.file 3 "../ChibiOS/os/common/ext/ARM/CMSIS/Core/Include/cmsis_gcc.h"
  60              		.loc 3 493 3 view .LVU6
  61 0004 3022     		movs	r2, #48
  62              	.LBE66:
  63              	.LBE65:
  64              	.LBE64:
  65              	.LBE63:
  66              	.LBB71:
  67              	.LBB61:
  68              		.loc 2 343 10 view .LVU7
  69 0006 DC68     		ldr	r4, [r3, #12]
  70              	.LVL1:
  71              		.loc 2 343 10 view .LVU8
  72              	.LBE61:
  73              	.LBE71:
  74              		.loc 1 84 3 is_stmt 1 view .LVU9
  75              		.loc 1 84 3 view .LVU10
  76              		.loc 1 84 3 view .LVU11
  77              		.loc 1 86 3 view .LVU12
  78              	.LBB72:
  79              	.LBI63:
  80              		.file 4 "../ChibiOS/os/rt/include/chsys.h"
  81              		.loc 4 407 20 view .LVU13
  82              	.LBE72:
  83              		.loc 4 409 3 view .LVU14
  84              	.LBB73:
  85              	.LBB69:
  86              	.LBI64:
  87              		.file 5 "../ChibiOS/os/common/ports/ARMv7-M/chcore.h"
  88              		.loc 5 806 27 view .LVU15
  89              	.LBE69:
  90              	.LBE73:
  91              		.loc 5 814 3 view .LVU16
  92              	.LBB74:
  93              	.LBB70:
  94              	.LBB68:
  95              	.LBI65:
  96              		.loc 3 491 27 view .LVU17
  97              	.LBB67:
  98              		.loc 3 493 3 view .LVU18
  99              		.syntax unified
 100              	@ 493 "../ChibiOS/os/common/ext/ARM/CMSIS/Core/Include/cmsis_gcc.h" 1
 101 0008 82F31188 		MSR basepri, r2
 102              	@ 0 "" 2
 103              	.LVL2:
 104              		.loc 3 493 3 is_stmt 0 view .LVU19
 105              		.thumb
 106              		.syntax unified
 107              	.LBE67:
 108              	.LBE68:
 109              	.LBE70:
 110              	.LBE74:
 111              		.loc 4 410 35 is_stmt 1 view .LVU20
 112              		.loc 4 411 21 view .LVU21
 113              		.loc 1 87 3 view .LVU22
 114              	.LBB75:
ARM GAS  /tmp/cc4Q69ox.s 			page 3


 115              	.LBB76:
 116              		.file 6 "../ChibiOS/os/rt/include/chlists.h"
 117              		.loc 6 265 21 is_stmt 0 view .LVU23
 118 000c 426B     		ldr	r2, [r0, #52]
 119              		.loc 6 265 17 view .LVU24
 120 000e 6260     		str	r2, [r4, #4]
 121              	.LBE76:
 122              	.LBE75:
 123              		.loc 1 88 3 view .LVU25
 124 0010 00F13005 		add	r5, r0, #48
 125              	.LBB80:
 126              	.LBB77:
 127              		.loc 6 264 17 view .LVU26
 128 0014 2560     		str	r5, [r4]
 129              	.LBE77:
 130              	.LBE80:
 131              		.loc 1 87 21 view .LVU27
 132 0016 A162     		str	r1, [r4, #40]
 133              		.loc 1 88 3 is_stmt 1 view .LVU28
 134              	.LVL3:
 135              	.LBB81:
 136              	.LBI75:
 137              		.loc 6 262 20 view .LVU29
 138              	.LBB78:
 139              		.loc 6 264 3 view .LVU30
 140              		.loc 6 265 3 view .LVU31
 141              		.loc 6 266 3 view .LVU32
 142              		.loc 6 266 17 is_stmt 0 view .LVU33
 143 0018 1460     		str	r4, [r2]
 144              		.loc 6 267 3 is_stmt 1 view .LVU34
 145              	.LBE78:
 146              	.LBE81:
 147              		.loc 1 89 6 is_stmt 0 view .LVU35
 148 001a 90F82420 		ldrb	r2, [r0, #36]	@ zero_extendqisi2
 149              	.LBB82:
 150              	.LBB79:
 151              		.loc 6 267 17 view .LVU36
 152 001e 4463     		str	r4, [r0, #52]
 153              	.LVL4:
 154              		.loc 6 267 17 view .LVU37
 155              	.LBE79:
 156              	.LBE82:
 157              		.loc 1 89 3 is_stmt 1 view .LVU38
 158              		.loc 1 89 6 is_stmt 0 view .LVU39
 159 0020 0E2A     		cmp	r2, #14
 160 0022 07D0     		beq	.L5
 161              	.LVL5:
 162              	.L2:
 163              		.loc 1 92 3 is_stmt 1 view .LVU40
 164 0024 0C20     		movs	r0, #12
 165 0026 FFF7FEFF 		bl	chSchGoSleepS
 166              	.LVL6:
 167              		.loc 1 93 3 view .LVU41
 168              		.loc 1 93 7 is_stmt 0 view .LVU42
 169 002a A06A     		ldr	r0, [r4, #40]
 170              	.LVL7:
 171              		.loc 1 94 3 is_stmt 1 view .LVU43
ARM GAS  /tmp/cc4Q69ox.s 			page 4


 172              	.LBB83:
 173              	.LBI83:
 174              		.loc 4 421 20 view .LVU44
 175              	.LBB84:
 176              		.loc 4 423 23 view .LVU45
 177              		.loc 4 424 34 view .LVU46
 178              		.loc 4 430 3 view .LVU47
 179              		.loc 4 430 3 view .LVU48
 180              		.loc 4 430 3 view .LVU49
 181              		.loc 4 434 3 view .LVU50
 182              	.LBB85:
 183              	.LBI85:
 184              		.loc 5 830 27 view .LVU51
 185              	.LBE85:
 186              	.LBE84:
 187              	.LBE83:
 188              		.loc 5 833 3 view .LVU52
 189              	.LBB90:
 190              	.LBB89:
 191              	.LBB88:
 192              	.LBB86:
 193              	.LBI86:
 194              		.loc 3 491 27 view .LVU53
 195              	.LBB87:
 196              		.loc 3 493 3 view .LVU54
 197 002c 0023     		movs	r3, #0
 198              		.syntax unified
 199              	@ 493 "../ChibiOS/os/common/ext/ARM/CMSIS/Core/Include/cmsis_gcc.h" 1
 200 002e 83F31188 		MSR basepri, r3
 201              	@ 0 "" 2
 202              	.LVL8:
 203              		.loc 3 493 3 is_stmt 0 view .LVU55
 204              		.thumb
 205              		.syntax unified
 206              	.LBE87:
 207              	.LBE86:
 208              	.LBE88:
 209              	.LBE89:
 210              	.LBE90:
 211              		.loc 1 96 3 is_stmt 1 view .LVU56
 212              		.loc 1 97 1 is_stmt 0 view .LVU57
 213 0032 38BD     		pop	{r3, r4, r5, pc}
 214              	.LVL9:
 215              	.L5:
 216              		.loc 1 90 5 is_stmt 1 view .LVU58
 217              		.loc 1 90 12 is_stmt 0 view .LVU59
 218 0034 FFF7FEFF 		bl	chSchReadyI
 219              	.LVL10:
 220              		.loc 1 90 12 view .LVU60
 221 0038 F4E7     		b	.L2
 222              	.L7:
 223 003a 00BF     		.align	2
 224              	.L6:
 225 003c 00000000 		.word	ch0
 226              		.cfi_endproc
 227              	.LFE335:
 228              		.size	chMsgSend, .-chMsgSend
ARM GAS  /tmp/cc4Q69ox.s 			page 5


 229              		.section	.text.chMsgWaitS,"ax",%progbits
 230              		.align	1
 231              		.p2align 4,,15
 232              		.global	chMsgWaitS
 233              		.syntax unified
 234              		.thumb
 235              		.thumb_func
 236              		.fpu softvfp
 237              		.type	chMsgWaitS, %function
 238              	chMsgWaitS:
 239              	.LFB336:
 240              		.loc 1 115 28 is_stmt 1 view -0
 241              		.cfi_startproc
 242              		@ args = 0, pretend = 0, frame = 0
 243              		@ frame_needed = 0, uses_anonymous_args = 0
 244              		.loc 1 116 3 view .LVU62
 245              	.LBB91:
 246              	.LBI91:
 247              		.loc 2 341 25 view .LVU63
 248              	.LBB92:
 249              		.loc 2 343 3 view .LVU64
 250              	.LBE92:
 251              	.LBE91:
 252              		.loc 1 115 28 is_stmt 0 view .LVU65
 253 0000 38B5     		push	{r3, r4, r5, lr}
 254              		.cfi_def_cfa_offset 16
 255              		.cfi_offset 3, -16
 256              		.cfi_offset 4, -12
 257              		.cfi_offset 5, -8
 258              		.cfi_offset 14, -4
 259              	.LBB94:
 260              	.LBB93:
 261              		.loc 2 343 10 view .LVU66
 262 0002 094B     		ldr	r3, .L12
 263 0004 DD68     		ldr	r5, [r3, #12]
 264              	.LVL11:
 265              		.loc 2 343 10 view .LVU67
 266              	.LBE93:
 267              	.LBE94:
 268              		.loc 1 117 3 is_stmt 1 view .LVU68
 269              		.loc 1 119 21 view .LVU69
 270              		.loc 1 121 3 view .LVU70
 271              	.LBB95:
 272              	.LBI95:
 273              		.file 7 "../ChibiOS/os/rt/include/chmsg.h"
 274              		.loc 7 173 20 view .LVU71
 275              	.LBB96:
 276              		.loc 7 175 21 view .LVU72
 277              		.loc 7 177 3 view .LVU73
 278              		.loc 7 177 29 is_stmt 0 view .LVU74
 279 0006 2C46     		mov	r4, r5
 280 0008 54F8300F 		ldr	r0, [r4, #48]!
 281              	.LVL12:
 282              		.loc 7 177 29 view .LVU75
 283              	.LBE96:
 284              	.LBE95:
 285              		.loc 1 121 6 view .LVU76
ARM GAS  /tmp/cc4Q69ox.s 			page 6


 286 000c 8442     		cmp	r4, r0
 287 000e 06D0     		beq	.L11
 288              	.L9:
 289              		.loc 1 124 3 is_stmt 1 view .LVU77
 290              	.LVL13:
 291              	.LBB97:
 292              	.LBI97:
 293              		.loc 6 280 27 view .LVU78
 294              	.LBB98:
 295              		.loc 6 281 3 view .LVU79
 296              		.loc 6 283 3 view .LVU80
 297              		.loc 6 283 21 is_stmt 0 view .LVU81
 298 0010 0368     		ldr	r3, [r0]
 299              		.loc 6 283 18 view .LVU82
 300 0012 2B63     		str	r3, [r5, #48]
 301              	.LVL14:
 302              		.loc 6 284 3 is_stmt 1 view .LVU83
 303              	.LBE98:
 304              	.LBE97:
 305              		.loc 1 125 13 is_stmt 0 view .LVU84
 306 0014 0D22     		movs	r2, #13
 307              	.LBB101:
 308              	.LBB99:
 309              		.loc 6 284 18 view .LVU85
 310 0016 5C60     		str	r4, [r3, #4]
 311              		.loc 6 286 3 is_stmt 1 view .LVU86
 312              	.LVL15:
 313              		.loc 6 286 3 is_stmt 0 view .LVU87
 314              	.LBE99:
 315              	.LBE101:
 316              		.loc 1 125 3 is_stmt 1 view .LVU88
 317              		.loc 1 125 13 is_stmt 0 view .LVU89
 318 0018 80F82420 		strb	r2, [r0, #36]
 319              		.loc 1 127 3 is_stmt 1 view .LVU90
 320              		.loc 1 128 1 is_stmt 0 view .LVU91
 321 001c 38BD     		pop	{r3, r4, r5, pc}
 322              	.LVL16:
 323              	.L11:
 324              		.loc 1 122 5 is_stmt 1 view .LVU92
 325 001e 0E20     		movs	r0, #14
 326 0020 FFF7FEFF 		bl	chSchGoSleepS
 327              	.LVL17:
 328              	.LBB102:
 329              	.LBB100:
 330              		.loc 6 281 15 is_stmt 0 view .LVU93
 331 0024 286B     		ldr	r0, [r5, #48]
 332 0026 F3E7     		b	.L9
 333              	.L13:
 334              		.align	2
 335              	.L12:
 336 0028 00000000 		.word	ch0
 337              	.LBE100:
 338              	.LBE102:
 339              		.cfi_endproc
 340              	.LFE336:
 341              		.size	chMsgWaitS, .-chMsgWaitS
 342              		.section	.text.chMsgWaitTimeoutS,"ax",%progbits
ARM GAS  /tmp/cc4Q69ox.s 			page 7


 343              		.align	1
 344              		.p2align 4,,15
 345              		.global	chMsgWaitTimeoutS
 346              		.syntax unified
 347              		.thumb
 348              		.thumb_func
 349              		.fpu softvfp
 350              		.type	chMsgWaitTimeoutS, %function
 351              	chMsgWaitTimeoutS:
 352              	.LVL18:
 353              	.LFB337:
 354              		.loc 1 152 52 is_stmt 1 view -0
 355              		.cfi_startproc
 356              		@ args = 0, pretend = 0, frame = 0
 357              		@ frame_needed = 0, uses_anonymous_args = 0
 358              		.loc 1 153 3 view .LVU95
 359              	.LBB103:
 360              	.LBI103:
 361              		.loc 2 341 25 view .LVU96
 362              	.LBB104:
 363              		.loc 2 343 3 view .LVU97
 364              	.LBE104:
 365              	.LBE103:
 366              		.loc 1 152 52 is_stmt 0 view .LVU98
 367 0000 38B5     		push	{r3, r4, r5, lr}
 368              		.cfi_def_cfa_offset 16
 369              		.cfi_offset 3, -16
 370              		.cfi_offset 4, -12
 371              		.cfi_offset 5, -8
 372              		.cfi_offset 14, -4
 373              	.LBB106:
 374              	.LBB105:
 375              		.loc 2 343 10 view .LVU99
 376 0002 0B4B     		ldr	r3, .L20
 377 0004 DD68     		ldr	r5, [r3, #12]
 378              	.LVL19:
 379              		.loc 2 343 10 view .LVU100
 380              	.LBE105:
 381              	.LBE106:
 382              		.loc 1 154 3 is_stmt 1 view .LVU101
 383              		.loc 1 156 21 view .LVU102
 384              		.loc 1 158 3 view .LVU103
 385              	.LBB107:
 386              	.LBI107:
 387              		.loc 7 173 20 view .LVU104
 388              	.LBB108:
 389              		.loc 7 175 21 view .LVU105
 390              		.loc 7 177 3 view .LVU106
 391              		.loc 7 177 29 is_stmt 0 view .LVU107
 392 0006 2C46     		mov	r4, r5
 393              	.LBE108:
 394              	.LBE107:
 395              		.loc 1 152 52 view .LVU108
 396 0008 0146     		mov	r1, r0
 397              	.LBB110:
 398              	.LBB109:
 399              		.loc 7 177 29 view .LVU109
ARM GAS  /tmp/cc4Q69ox.s 			page 8


 400 000a 54F8300F 		ldr	r0, [r4, #48]!
 401              	.LVL20:
 402              		.loc 7 177 29 view .LVU110
 403              	.LBE109:
 404              	.LBE110:
 405              		.loc 1 158 6 view .LVU111
 406 000e 8442     		cmp	r4, r0
 407 0010 06D0     		beq	.L19
 408              	.LVL21:
 409              	.L15:
 410              		.loc 1 163 3 is_stmt 1 view .LVU112
 411              	.LBB111:
 412              	.LBI111:
 413              		.loc 6 280 27 view .LVU113
 414              	.LBB112:
 415              		.loc 6 281 3 view .LVU114
 416              		.loc 6 283 3 view .LVU115
 417              		.loc 6 283 21 is_stmt 0 view .LVU116
 418 0012 0368     		ldr	r3, [r0]
 419              		.loc 6 283 18 view .LVU117
 420 0014 2B63     		str	r3, [r5, #48]
 421              	.LVL22:
 422              		.loc 6 284 3 is_stmt 1 view .LVU118
 423              	.LBE112:
 424              	.LBE111:
 425              		.loc 1 164 13 is_stmt 0 view .LVU119
 426 0016 0D22     		movs	r2, #13
 427              	.LBB115:
 428              	.LBB113:
 429              		.loc 6 284 18 view .LVU120
 430 0018 5C60     		str	r4, [r3, #4]
 431              		.loc 6 286 3 is_stmt 1 view .LVU121
 432              	.LVL23:
 433              		.loc 6 286 3 is_stmt 0 view .LVU122
 434              	.LBE113:
 435              	.LBE115:
 436              		.loc 1 164 3 is_stmt 1 view .LVU123
 437              		.loc 1 164 13 is_stmt 0 view .LVU124
 438 001a 80F82420 		strb	r2, [r0, #36]
 439              		.loc 1 166 3 is_stmt 1 view .LVU125
 440              		.loc 1 167 1 is_stmt 0 view .LVU126
 441 001e 38BD     		pop	{r3, r4, r5, pc}
 442              	.LVL24:
 443              	.L19:
 444              		.loc 1 159 5 is_stmt 1 view .LVU127
 445              		.loc 1 159 9 is_stmt 0 view .LVU128
 446 0020 0E20     		movs	r0, #14
 447 0022 FFF7FEFF 		bl	chSchGoSleepTimeoutS
 448              	.LVL25:
 449              		.loc 1 159 8 view .LVU129
 450 0026 08B9     		cbnz	r0, .L17
 451              	.LBB116:
 452              	.LBB114:
 453              		.loc 6 281 15 view .LVU130
 454 0028 286B     		ldr	r0, [r5, #48]
 455 002a F2E7     		b	.L15
 456              	.L17:
ARM GAS  /tmp/cc4Q69ox.s 			page 9


 457              		.loc 6 281 15 view .LVU131
 458              	.LBE114:
 459              	.LBE116:
 460              		.loc 1 160 14 view .LVU132
 461 002c 0020     		movs	r0, #0
 462              		.loc 1 167 1 view .LVU133
 463 002e 38BD     		pop	{r3, r4, r5, pc}
 464              	.LVL26:
 465              	.L21:
 466              		.loc 1 167 1 view .LVU134
 467              		.align	2
 468              	.L20:
 469 0030 00000000 		.word	ch0
 470              		.cfi_endproc
 471              	.LFE337:
 472              		.size	chMsgWaitTimeoutS, .-chMsgWaitTimeoutS
 473              		.section	.text.chMsgPollS,"ax",%progbits
 474              		.align	1
 475              		.p2align 4,,15
 476              		.global	chMsgPollS
 477              		.syntax unified
 478              		.thumb
 479              		.thumb_func
 480              		.fpu softvfp
 481              		.type	chMsgPollS, %function
 482              	chMsgPollS:
 483              	.LFB338:
 484              		.loc 1 186 28 is_stmt 1 view -0
 485              		.cfi_startproc
 486              		@ args = 0, pretend = 0, frame = 0
 487              		@ frame_needed = 0, uses_anonymous_args = 0
 488              		@ link register save eliminated.
 489              		.loc 1 187 3 view .LVU136
 490              	.LBB117:
 491              	.LBI117:
 492              		.loc 2 341 25 view .LVU137
 493              	.LBB118:
 494              		.loc 2 343 3 view .LVU138
 495              		.loc 2 343 10 is_stmt 0 view .LVU139
 496 0000 084B     		ldr	r3, .L25
 497 0002 DA68     		ldr	r2, [r3, #12]
 498              	.LVL27:
 499              		.loc 2 343 10 view .LVU140
 500              	.LBE118:
 501              	.LBE117:
 502              		.loc 1 188 3 is_stmt 1 view .LVU141
 503              		.loc 1 190 3 view .LVU142
 504              	.LBB119:
 505              	.LBI119:
 506              		.loc 7 173 20 view .LVU143
 507              	.LBB120:
 508              		.loc 7 175 21 view .LVU144
 509              		.loc 7 177 3 view .LVU145
 510              		.loc 7 177 29 is_stmt 0 view .LVU146
 511 0004 1346     		mov	r3, r2
 512 0006 53F8300F 		ldr	r0, [r3, #48]!
 513              	.LVL28:
ARM GAS  /tmp/cc4Q69ox.s 			page 10


 514              		.loc 7 177 29 view .LVU147
 515              	.LBE120:
 516              	.LBE119:
 517              		.loc 1 190 6 view .LVU148
 518 000a 8342     		cmp	r3, r0
 519 000c 07D0     		beq	.L24
 520              		.loc 1 191 5 is_stmt 1 view .LVU149
 521              	.LVL29:
 522              	.LBB121:
 523              	.LBI121:
 524              		.loc 6 280 27 view .LVU150
 525              	.LBB122:
 526              		.loc 6 281 3 view .LVU151
 527              		.loc 6 283 3 view .LVU152
 528              		.loc 6 283 21 is_stmt 0 view .LVU153
 529 000e 0168     		ldr	r1, [r0]
 530              		.loc 6 283 18 view .LVU154
 531 0010 1163     		str	r1, [r2, #48]
 532              		.loc 6 284 3 is_stmt 1 view .LVU155
 533              	.LBE122:
 534              	.LBE121:
 535              		.loc 1 192 15 is_stmt 0 view .LVU156
 536 0012 4FF00D0C 		mov	ip, #13
 537              	.LBB124:
 538              	.LBB123:
 539              		.loc 6 284 18 view .LVU157
 540 0016 4B60     		str	r3, [r1, #4]
 541              		.loc 6 286 3 is_stmt 1 view .LVU158
 542              	.LVL30:
 543              		.loc 6 286 3 is_stmt 0 view .LVU159
 544              	.LBE123:
 545              	.LBE124:
 546              		.loc 1 192 5 is_stmt 1 view .LVU160
 547              		.loc 1 192 15 is_stmt 0 view .LVU161
 548 0018 80F824C0 		strb	ip, [r0, #36]
 549 001c 7047     		bx	lr
 550              	.LVL31:
 551              	.L24:
 552              		.loc 1 188 13 view .LVU162
 553 001e 0020     		movs	r0, #0
 554              		.loc 1 195 3 is_stmt 1 view .LVU163
 555              		.loc 1 196 1 is_stmt 0 view .LVU164
 556 0020 7047     		bx	lr
 557              	.L26:
 558 0022 00BF     		.align	2
 559              	.L25:
 560 0024 00000000 		.word	ch0
 561              		.cfi_endproc
 562              	.LFE338:
 563              		.size	chMsgPollS, .-chMsgPollS
 564              		.section	.text.chMsgRelease,"ax",%progbits
 565              		.align	1
 566              		.p2align 4,,15
 567              		.global	chMsgRelease
 568              		.syntax unified
 569              		.thumb
 570              		.thumb_func
ARM GAS  /tmp/cc4Q69ox.s 			page 11


 571              		.fpu softvfp
 572              		.type	chMsgRelease, %function
 573              	chMsgRelease:
 574              	.LVL32:
 575              	.LFB339:
 576              		.loc 1 208 44 is_stmt 1 view -0
 577              		.cfi_startproc
 578              		@ args = 0, pretend = 0, frame = 0
 579              		@ frame_needed = 0, uses_anonymous_args = 0
 580              		.loc 1 210 3 view .LVU166
 581              	.LBB125:
 582              	.LBI125:
 583              		.loc 4 407 20 view .LVU167
 584              	.LBE125:
 585              		.loc 4 409 3 view .LVU168
 586              	.LBB133:
 587              	.LBB126:
 588              	.LBI126:
 589              		.loc 5 806 27 view .LVU169
 590              	.LBE126:
 591              	.LBE133:
 592              		.loc 5 814 3 view .LVU170
 593              	.LBB134:
 594              	.LBB131:
 595              	.LBB127:
 596              	.LBI127:
 597              		.loc 3 491 27 view .LVU171
 598              	.LBB128:
 599              		.loc 3 493 3 view .LVU172
 600              	.LBE128:
 601              	.LBE127:
 602              	.LBE131:
 603              	.LBE134:
 604              		.loc 1 208 44 is_stmt 0 view .LVU173
 605 0000 08B5     		push	{r3, lr}
 606              		.cfi_def_cfa_offset 8
 607              		.cfi_offset 3, -8
 608              		.cfi_offset 14, -4
 609              	.LBB135:
 610              	.LBB132:
 611              	.LBB130:
 612              	.LBB129:
 613              		.loc 3 493 3 view .LVU174
 614 0002 3023     		movs	r3, #48
 615              		.syntax unified
 616              	@ 493 "../ChibiOS/os/common/ext/ARM/CMSIS/Core/Include/cmsis_gcc.h" 1
 617 0004 83F31188 		MSR basepri, r3
 618              	@ 0 "" 2
 619              	.LVL33:
 620              		.loc 3 493 3 view .LVU175
 621              		.thumb
 622              		.syntax unified
 623              	.LBE129:
 624              	.LBE130:
 625              	.LBE132:
 626              	.LBE135:
 627              		.loc 4 410 35 is_stmt 1 view .LVU176
ARM GAS  /tmp/cc4Q69ox.s 			page 12


 628              		.loc 4 411 21 view .LVU177
 629              		.loc 1 211 3 view .LVU178
 630              		.loc 1 211 3 view .LVU179
 631              		.loc 1 211 3 view .LVU180
 632              		.loc 1 212 3 view .LVU181
 633              	.LBB136:
 634              	.LBI136:
 635              		.loc 7 207 20 view .LVU182
 636              	.LBB137:
 637              		.loc 7 209 21 view .LVU183
 638              		.loc 7 211 3 view .LVU184
 639 0008 FFF7FEFF 		bl	chSchWakeupS
 640              	.LVL34:
 641              		.loc 7 211 3 is_stmt 0 view .LVU185
 642              	.LBE137:
 643              	.LBE136:
 644              		.loc 1 213 3 is_stmt 1 view .LVU186
 645              	.LBB138:
 646              	.LBI138:
 647              		.loc 4 421 20 view .LVU187
 648              	.LBB139:
 649              		.loc 4 423 23 view .LVU188
 650              		.loc 4 424 34 view .LVU189
 651              		.loc 4 430 3 view .LVU190
 652              		.loc 4 430 3 view .LVU191
 653              		.loc 4 430 3 view .LVU192
 654              		.loc 4 434 3 view .LVU193
 655              	.LBB140:
 656              	.LBI140:
 657              		.loc 5 830 27 view .LVU194
 658              	.LBE140:
 659              	.LBE139:
 660              	.LBE138:
 661              		.loc 5 833 3 view .LVU195
 662              	.LBB145:
 663              	.LBB144:
 664              	.LBB143:
 665              	.LBB141:
 666              	.LBI141:
 667              		.loc 3 491 27 view .LVU196
 668              	.LBB142:
 669              		.loc 3 493 3 view .LVU197
 670 000c 0023     		movs	r3, #0
 671              		.syntax unified
 672              	@ 493 "../ChibiOS/os/common/ext/ARM/CMSIS/Core/Include/cmsis_gcc.h" 1
 673 000e 83F31188 		MSR basepri, r3
 674              	@ 0 "" 2
 675              	.LVL35:
 676              		.loc 3 493 3 is_stmt 0 view .LVU198
 677              		.thumb
 678              		.syntax unified
 679              	.LBE142:
 680              	.LBE141:
 681              	.LBE143:
 682              	.LBE144:
 683              	.LBE145:
 684              		.loc 1 214 1 view .LVU199
ARM GAS  /tmp/cc4Q69ox.s 			page 13


 685 0012 08BD     		pop	{r3, pc}
 686              		.cfi_endproc
 687              	.LFE339:
 688              		.size	chMsgRelease, .-chMsgRelease
 689              		.text
 690              	.Letext0:
 691              		.file 8 "/opt/gcc-arm-none-eabi/gcc-arm-none-eabi-10.3-2021.07/arm-none-eabi/include/machine/_defa
 692              		.file 9 "/opt/gcc-arm-none-eabi/gcc-arm-none-eabi-10.3-2021.07/arm-none-eabi/include/sys/_stdint.h
 693              		.file 10 "../ChibiOS/os/common/ports/ARM-common/chtypes.h"
 694              		.file 11 "../ChibiOS/os/rt/include/chearly.h"
 695              		.file 12 "../ChibiOS/os/rt/include/chobjects.h"
 696              		.file 13 "../ChibiOS/os/rt/include/chrfcu.h"
 697              		.file 14 "../ChibiOS/os/rt/include/chdebug.h"
 698              		.file 15 "../ChibiOS/os/rt/include/chtime.h"
 699              		.file 16 "../ChibiOS/os/rt/include/chsem.h"
 700              		.file 17 "../ChibiOS/os/rt/include/chmtx.h"
 701              		.file 18 "../ChibiOS/os/rt/include/chschd.h"
 702              		.section	.debug_info,"",%progbits
 703              	.Ldebug_info0:
 704 0000 5E0D0000 		.4byte	0xd5e
 705 0004 0400     		.2byte	0x4
 706 0006 00000000 		.4byte	.Ldebug_abbrev0
 707 000a 04       		.byte	0x4
 708 000b 01       		.uleb128 0x1
 709 000c 80050000 		.4byte	.LASF129
 710 0010 0C       		.byte	0xc
 711 0011 BF030000 		.4byte	.LASF130
 712 0015 E3040000 		.4byte	.LASF131
 713 0019 A0010000 		.4byte	.Ldebug_ranges0+0x1a0
 714 001d 00000000 		.4byte	0
 715 0021 00000000 		.4byte	.Ldebug_line0
 716 0025 02       		.uleb128 0x2
 717 0026 04       		.byte	0x4
 718 0027 05       		.byte	0x5
 719 0028 696E7400 		.ascii	"int\000"
 720 002c 03       		.uleb128 0x3
 721 002d 04       		.byte	0x4
 722 002e 07       		.byte	0x7
 723 002f DA010000 		.4byte	.LASF0
 724 0033 03       		.uleb128 0x3
 725 0034 08       		.byte	0x8
 726 0035 05       		.byte	0x5
 727 0036 D0000000 		.4byte	.LASF1
 728 003a 03       		.uleb128 0x3
 729 003b 08       		.byte	0x8
 730 003c 04       		.byte	0x4
 731 003d 4B040000 		.4byte	.LASF2
 732 0041 03       		.uleb128 0x3
 733 0042 01       		.byte	0x1
 734 0043 06       		.byte	0x6
 735 0044 DE000000 		.4byte	.LASF3
 736 0048 04       		.uleb128 0x4
 737 0049 37000000 		.4byte	.LASF7
 738 004d 08       		.byte	0x8
 739 004e 2B       		.byte	0x2b
 740 004f 18       		.byte	0x18
 741 0050 54000000 		.4byte	0x54
ARM GAS  /tmp/cc4Q69ox.s 			page 14


 742 0054 03       		.uleb128 0x3
 743 0055 01       		.byte	0x1
 744 0056 08       		.byte	0x8
 745 0057 87030000 		.4byte	.LASF4
 746 005b 03       		.uleb128 0x3
 747 005c 02       		.byte	0x2
 748 005d 05       		.byte	0x5
 749 005e AC030000 		.4byte	.LASF5
 750 0062 03       		.uleb128 0x3
 751 0063 02       		.byte	0x2
 752 0064 07       		.byte	0x7
 753 0065 40020000 		.4byte	.LASF6
 754 0069 04       		.uleb128 0x4
 755 006a 83040000 		.4byte	.LASF8
 756 006e 08       		.byte	0x8
 757 006f 4D       		.byte	0x4d
 758 0070 18       		.byte	0x18
 759 0071 75000000 		.4byte	0x75
 760 0075 03       		.uleb128 0x3
 761 0076 04       		.byte	0x4
 762 0077 05       		.byte	0x5
 763 0078 22010000 		.4byte	.LASF9
 764 007c 04       		.uleb128 0x4
 765 007d 96010000 		.4byte	.LASF10
 766 0081 08       		.byte	0x8
 767 0082 4F       		.byte	0x4f
 768 0083 19       		.byte	0x19
 769 0084 88000000 		.4byte	0x88
 770 0088 03       		.uleb128 0x3
 771 0089 04       		.byte	0x4
 772 008a 07       		.byte	0x7
 773 008b EE010000 		.4byte	.LASF11
 774 008f 04       		.uleb128 0x4
 775 0090 44030000 		.4byte	.LASF12
 776 0094 08       		.byte	0x8
 777 0095 69       		.byte	0x69
 778 0096 19       		.byte	0x19
 779 0097 9B000000 		.4byte	0x9b
 780 009b 03       		.uleb128 0x3
 781 009c 08       		.byte	0x8
 782 009d 07       		.byte	0x7
 783 009e 7D000000 		.4byte	.LASF13
 784 00a2 04       		.uleb128 0x4
 785 00a3 6B050000 		.4byte	.LASF14
 786 00a7 09       		.byte	0x9
 787 00a8 18       		.byte	0x18
 788 00a9 13       		.byte	0x13
 789 00aa 48000000 		.4byte	0x48
 790 00ae 04       		.uleb128 0x4
 791 00af 7F030000 		.4byte	.LASF15
 792 00b3 09       		.byte	0x9
 793 00b4 2C       		.byte	0x2c
 794 00b5 13       		.byte	0x13
 795 00b6 69000000 		.4byte	0x69
 796 00ba 04       		.uleb128 0x4
 797 00bb 29040000 		.4byte	.LASF16
 798 00bf 09       		.byte	0x9
ARM GAS  /tmp/cc4Q69ox.s 			page 15


 799 00c0 30       		.byte	0x30
 800 00c1 14       		.byte	0x14
 801 00c2 7C000000 		.4byte	0x7c
 802 00c6 04       		.uleb128 0x4
 803 00c7 0B030000 		.4byte	.LASF17
 804 00cb 09       		.byte	0x9
 805 00cc 3C       		.byte	0x3c
 806 00cd 14       		.byte	0x14
 807 00ce 8F000000 		.4byte	0x8f
 808 00d2 05       		.uleb128 0x5
 809 00d3 C6000000 		.4byte	0xc6
 810 00d7 04       		.uleb128 0x4
 811 00d8 12020000 		.4byte	.LASF18
 812 00dc 0A       		.byte	0xa
 813 00dd 48       		.byte	0x48
 814 00de 1D       		.byte	0x1d
 815 00df C6000000 		.4byte	0xc6
 816 00e3 04       		.uleb128 0x4
 817 00e4 9D020000 		.4byte	.LASF19
 818 00e8 0B       		.byte	0xb
 819 00e9 50       		.byte	0x50
 820 00ea 19       		.byte	0x19
 821 00eb D7000000 		.4byte	0xd7
 822 00ef 04       		.uleb128 0x4
 823 00f0 73020000 		.4byte	.LASF20
 824 00f4 0B       		.byte	0xb
 825 00f5 53       		.byte	0x53
 826 00f6 19       		.byte	0x19
 827 00f7 A2000000 		.4byte	0xa2
 828 00fb 04       		.uleb128 0x4
 829 00fc 35010000 		.4byte	.LASF21
 830 0100 0B       		.byte	0xb
 831 0101 54       		.byte	0x54
 832 0102 19       		.byte	0x19
 833 0103 A2000000 		.4byte	0xa2
 834 0107 04       		.uleb128 0x4
 835 0108 59030000 		.4byte	.LASF22
 836 010c 0B       		.byte	0xb
 837 010d 55       		.byte	0x55
 838 010e 19       		.byte	0x19
 839 010f A2000000 		.4byte	0xa2
 840 0113 04       		.uleb128 0x4
 841 0114 61030000 		.4byte	.LASF23
 842 0118 0B       		.byte	0xb
 843 0119 57       		.byte	0x57
 844 011a 19       		.byte	0x19
 845 011b BA000000 		.4byte	0xba
 846 011f 04       		.uleb128 0x4
 847 0120 64020000 		.4byte	.LASF24
 848 0124 0B       		.byte	0xb
 849 0125 58       		.byte	0x58
 850 0126 19       		.byte	0x19
 851 0127 AE000000 		.4byte	0xae
 852 012b 04       		.uleb128 0x4
 853 012c 91020000 		.4byte	.LASF25
 854 0130 0B       		.byte	0xb
 855 0131 5A       		.byte	0x5a
ARM GAS  /tmp/cc4Q69ox.s 			page 16


 856 0132 19       		.byte	0x19
 857 0133 BA000000 		.4byte	0xba
 858 0137 04       		.uleb128 0x4
 859 0138 D4010000 		.4byte	.LASF26
 860 013c 0B       		.byte	0xb
 861 013d 5C       		.byte	0x5c
 862 013e 19       		.byte	0x19
 863 013f AE000000 		.4byte	0xae
 864 0143 04       		.uleb128 0x4
 865 0144 4F030000 		.4byte	.LASF27
 866 0148 0B       		.byte	0xb
 867 0149 80       		.byte	0x80
 868 014a 12       		.byte	0x12
 869 014b 2C000000 		.4byte	0x2c
 870 014f 04       		.uleb128 0x4
 871 0150 6A040000 		.4byte	.LASF28
 872 0154 0B       		.byte	0xb
 873 0155 85       		.byte	0x85
 874 0156 1A       		.byte	0x1a
 875 0157 5B010000 		.4byte	0x15b
 876 015b 06       		.uleb128 0x6
 877 015c 53020000 		.4byte	.LASF43
 878 0160 48       		.byte	0x48
 879 0161 0C       		.byte	0xc
 880 0162 9C       		.byte	0x9c
 881 0163 08       		.byte	0x8
 882 0164 3E020000 		.4byte	0x23e
 883 0168 07       		.uleb128 0x7
 884 0169 68647200 		.ascii	"hdr\000"
 885 016d 0C       		.byte	0xc
 886 016e AD       		.byte	0xad
 887 016f 05       		.byte	0x5
 888 0170 6B050000 		.4byte	0x56b
 889 0174 00       		.byte	0
 890 0175 07       		.uleb128 0x7
 891 0176 63747800 		.ascii	"ctx\000"
 892 017a 0C       		.byte	0xc
 893 017b B1       		.byte	0xb1
 894 017c 21       		.byte	0x21
 895 017d CD040000 		.4byte	0x4cd
 896 0181 0C       		.byte	0xc
 897 0182 08       		.uleb128 0x8
 898 0183 00020000 		.4byte	.LASF29
 899 0187 0C       		.byte	0xc
 900 0188 B6       		.byte	0xb6
 901 0189 21       		.byte	0x21
 902 018a 7F030000 		.4byte	0x37f
 903 018e 10       		.byte	0x10
 904 018f 08       		.uleb128 0x8
 905 0190 45040000 		.4byte	.LASF30
 906 0194 0C       		.byte	0xc
 907 0195 BB       		.byte	0xbb
 908 0196 22       		.byte	0x22
 909 0197 78060000 		.4byte	0x678
 910 019b 18       		.byte	0x18
 911 019c 08       		.uleb128 0x8
 912 019d 2A020000 		.4byte	.LASF31
ARM GAS  /tmp/cc4Q69ox.s 			page 17


 913 01a1 0C       		.byte	0xc
 914 01a2 C0       		.byte	0xc0
 915 01a3 22       		.byte	0x22
 916 01a4 17030000 		.4byte	0x317
 917 01a8 1C       		.byte	0x1c
 918 01a9 08       		.uleb128 0x8
 919 01aa 57040000 		.4byte	.LASF32
 920 01ae 0C       		.byte	0xc
 921 01af C9       		.byte	0xc9
 922 01b0 22       		.byte	0x22
 923 01b1 7E060000 		.4byte	0x67e
 924 01b5 20       		.byte	0x20
 925 01b6 08       		.uleb128 0x8
 926 01b7 1C010000 		.4byte	.LASF33
 927 01bb 0C       		.byte	0xc
 928 01bc CE       		.byte	0xce
 929 01bd 21       		.byte	0x21
 930 01be FB000000 		.4byte	0xfb
 931 01c2 24       		.byte	0x24
 932 01c3 08       		.uleb128 0x8
 933 01c4 73050000 		.4byte	.LASF34
 934 01c8 0C       		.byte	0xc
 935 01c9 D2       		.byte	0xd2
 936 01ca 21       		.byte	0x21
 937 01cb EF000000 		.4byte	0xef
 938 01cf 25       		.byte	0x25
 939 01d0 08       		.uleb128 0x8
 940 01d1 CB000000 		.4byte	.LASF35
 941 01d5 0C       		.byte	0xc
 942 01d6 D7       		.byte	0xd7
 943 01d7 21       		.byte	0x21
 944 01d8 07010000 		.4byte	0x107
 945 01dc 26       		.byte	0x26
 946 01dd 09       		.uleb128 0x9
 947 01de 7500     		.ascii	"u\000"
 948 01e0 0C       		.byte	0xc
 949 01e1 2801     		.2byte	0x128
 950 01e3 21       		.byte	0x21
 951 01e4 99050000 		.4byte	0x599
 952 01e8 28       		.byte	0x28
 953 01e9 0A       		.uleb128 0xa
 954 01ea A6010000 		.4byte	.LASF36
 955 01ee 0C       		.byte	0xc
 956 01ef 2D01     		.2byte	0x12d
 957 01f1 21       		.byte	0x21
 958 01f2 52030000 		.4byte	0x352
 959 01f6 2C       		.byte	0x2c
 960 01f7 0A       		.uleb128 0xa
 961 01f8 13010000 		.4byte	.LASF37
 962 01fc 0C       		.byte	0xc
 963 01fd 3301     		.2byte	0x133
 964 01ff 21       		.byte	0x21
 965 0200 7F030000 		.4byte	0x37f
 966 0204 30       		.byte	0x30
 967 0205 0A       		.uleb128 0xa
 968 0206 6A020000 		.4byte	.LASF38
 969 020a 0C       		.byte	0xc
ARM GAS  /tmp/cc4Q69ox.s 			page 18


 970 020b 3901     		.2byte	0x139
 971 020d 21       		.byte	0x21
 972 020e 2B010000 		.4byte	0x12b
 973 0212 38       		.byte	0x38
 974 0213 0A       		.uleb128 0xa
 975 0214 8C060000 		.4byte	.LASF39
 976 0218 0C       		.byte	0xc
 977 0219 4001     		.2byte	0x140
 978 021b 22       		.byte	0x22
 979 021c 72060000 		.4byte	0x672
 980 0220 3C       		.byte	0x3c
 981 0221 0A       		.uleb128 0xa
 982 0222 C2020000 		.4byte	.LASF40
 983 0226 0C       		.byte	0xc
 984 0227 4401     		.2byte	0x144
 985 0229 21       		.byte	0x21
 986 022a 13010000 		.4byte	0x113
 987 022e 40       		.byte	0x40
 988 022f 0A       		.uleb128 0xa
 989 0230 2F020000 		.4byte	.LASF41
 990 0234 0C       		.byte	0xc
 991 0235 4B01     		.2byte	0x14b
 992 0237 22       		.byte	0x22
 993 0238 EF040000 		.4byte	0x4ef
 994 023c 44       		.byte	0x44
 995 023d 00       		.byte	0
 996 023e 04       		.uleb128 0x4
 997 023f BB040000 		.4byte	.LASF42
 998 0243 0B       		.byte	0xb
 999 0244 8A       		.byte	0x8a
 1000 0245 1F       		.byte	0x1f
 1001 0246 4A020000 		.4byte	0x24a
 1002 024a 0B       		.uleb128 0xb
 1003 024b AC040000 		.4byte	.LASF44
 1004 024f 88       		.byte	0x88
 1005 0250 0C       		.byte	0xc
 1006 0251 8A01     		.2byte	0x18a
 1007 0253 08       		.byte	0x8
 1008 0254 C9020000 		.4byte	0x2c9
 1009 0258 0A       		.uleb128 0xa
 1010 0259 57050000 		.4byte	.LASF45
 1011 025d 0C       		.byte	0xc
 1012 025e 8E01     		.2byte	0x18e
 1013 0260 21       		.byte	0x21
 1014 0261 AF060000 		.4byte	0x6af
 1015 0265 00       		.byte	0
 1016 0266 0A       		.uleb128 0xa
 1017 0267 00010000 		.4byte	.LASF46
 1018 026b 0C       		.byte	0xc
 1019 026c 9201     		.2byte	0x192
 1020 026e 21       		.byte	0x21
 1021 026f 26050000 		.4byte	0x526
 1022 0273 10       		.byte	0x10
 1023 0274 0A       		.uleb128 0xa
 1024 0275 C9040000 		.4byte	.LASF47
 1025 0279 0C       		.byte	0xc
 1026 027a 9901     		.2byte	0x199
ARM GAS  /tmp/cc4Q69ox.s 			page 19


 1027 027c 21       		.byte	0x21
 1028 027d 4D050000 		.4byte	0x54d
 1029 0281 28       		.byte	0x28
 1030 0282 0A       		.uleb128 0xa
 1031 0283 61000000 		.4byte	.LASF48
 1032 0287 0C       		.byte	0xc
 1033 0288 9E01     		.2byte	0x19e
 1034 028a 21       		.byte	0x21
 1035 028b 43010000 		.4byte	0x143
 1036 028f 30       		.byte	0x30
 1037 0290 0A       		.uleb128 0xa
 1038 0291 0D000000 		.4byte	.LASF49
 1039 0295 0C       		.byte	0xc
 1040 0296 A401     		.2byte	0x1a4
 1041 0298 21       		.byte	0x21
 1042 0299 F0020000 		.4byte	0x2f0
 1043 029d 34       		.byte	0x34
 1044 029e 0A       		.uleb128 0xa
 1045 029f 63040000 		.4byte	.LASF50
 1046 02a3 0C       		.byte	0xc
 1047 02a4 A901     		.2byte	0x1a9
 1048 02a6 22       		.byte	0x22
 1049 02a7 23070000 		.4byte	0x723
 1050 02ab 38       		.byte	0x38
 1051 02ac 0A       		.uleb128 0xa
 1052 02ad 9D000000 		.4byte	.LASF51
 1053 02b1 0C       		.byte	0xc
 1054 02b2 AD01     		.2byte	0x1ad
 1055 02b4 21       		.byte	0x21
 1056 02b5 4F010000 		.4byte	0x14f
 1057 02b9 3C       		.byte	0x3c
 1058 02ba 09       		.uleb128 0x9
 1059 02bb 64626700 		.ascii	"dbg\000"
 1060 02bf 0C       		.byte	0xc
 1061 02c0 B101     		.2byte	0x1b1
 1062 02c2 21       		.byte	0x21
 1063 02c3 2E030000 		.4byte	0x32e
 1064 02c7 84       		.byte	0x84
 1065 02c8 00       		.byte	0
 1066 02c9 04       		.uleb128 0x4
 1067 02ca CB020000 		.4byte	.LASF52
 1068 02ce 0D       		.byte	0xd
 1069 02cf 3F       		.byte	0x3f
 1070 02d0 12       		.byte	0x12
 1071 02d1 BA000000 		.4byte	0xba
 1072 02d5 06       		.uleb128 0x6
 1073 02d6 3E010000 		.4byte	.LASF53
 1074 02da 04       		.byte	0x4
 1075 02db 0D       		.byte	0xd
 1076 02dc 44       		.byte	0x44
 1077 02dd 10       		.byte	0x10
 1078 02de F0020000 		.4byte	0x2f0
 1079 02e2 08       		.uleb128 0x8
 1080 02e3 A1010000 		.4byte	.LASF54
 1081 02e7 0D       		.byte	0xd
 1082 02e8 48       		.byte	0x48
 1083 02e9 21       		.byte	0x21
ARM GAS  /tmp/cc4Q69ox.s 			page 20


 1084 02ea C9020000 		.4byte	0x2c9
 1085 02ee 00       		.byte	0
 1086 02ef 00       		.byte	0
 1087 02f0 04       		.uleb128 0x4
 1088 02f1 95030000 		.4byte	.LASF55
 1089 02f5 0D       		.byte	0xd
 1090 02f6 49       		.byte	0x49
 1091 02f7 03       		.byte	0x3
 1092 02f8 D5020000 		.4byte	0x2d5
 1093 02fc 06       		.uleb128 0x6
 1094 02fd 69030000 		.4byte	.LASF56
 1095 0301 04       		.byte	0x4
 1096 0302 0E       		.byte	0xe
 1097 0303 3E       		.byte	0x3e
 1098 0304 10       		.byte	0x10
 1099 0305 17030000 		.4byte	0x317
 1100 0309 08       		.uleb128 0x8
 1101 030a 9B040000 		.4byte	.LASF57
 1102 030e 0E       		.byte	0xe
 1103 030f 46       		.byte	0x46
 1104 0310 24       		.byte	0x24
 1105 0311 1D030000 		.4byte	0x31d
 1106 0315 00       		.byte	0
 1107 0316 00       		.byte	0
 1108 0317 0C       		.uleb128 0xc
 1109 0318 04       		.byte	0x4
 1110 0319 29030000 		.4byte	0x329
 1111 031d 05       		.uleb128 0x5
 1112 031e 17030000 		.4byte	0x317
 1113 0322 03       		.uleb128 0x3
 1114 0323 01       		.byte	0x1
 1115 0324 08       		.byte	0x8
 1116 0325 5E040000 		.4byte	.LASF58
 1117 0329 0D       		.uleb128 0xd
 1118 032a 22030000 		.4byte	0x322
 1119 032e 04       		.uleb128 0x4
 1120 032f 52000000 		.4byte	.LASF59
 1121 0333 0E       		.byte	0xe
 1122 0334 51       		.byte	0x51
 1123 0335 03       		.byte	0x3
 1124 0336 FC020000 		.4byte	0x2fc
 1125 033a 04       		.uleb128 0x4
 1126 033b 79040000 		.4byte	.LASF60
 1127 033f 0F       		.byte	0xf
 1128 0340 6D       		.byte	0x6d
 1129 0341 12       		.byte	0x12
 1130 0342 BA000000 		.4byte	0xba
 1131 0346 04       		.uleb128 0x4
 1132 0347 C6010000 		.4byte	.LASF61
 1133 034b 0F       		.byte	0xf
 1134 034c 79       		.byte	0x79
 1135 034d 12       		.byte	0x12
 1136 034e BA000000 		.4byte	0xba
 1137 0352 04       		.uleb128 0x4
 1138 0353 01030000 		.4byte	.LASF62
 1139 0357 06       		.byte	0x6
 1140 0358 32       		.byte	0x32
ARM GAS  /tmp/cc4Q69ox.s 			page 21


 1141 0359 18       		.byte	0x18
 1142 035a 5E030000 		.4byte	0x35e
 1143 035e 06       		.uleb128 0x6
 1144 035f 7B020000 		.4byte	.LASF63
 1145 0363 04       		.byte	0x4
 1146 0364 06       		.byte	0x6
 1147 0365 38       		.byte	0x38
 1148 0366 08       		.byte	0x8
 1149 0367 79030000 		.4byte	0x379
 1150 036b 08       		.uleb128 0x8
 1151 036c C6000000 		.4byte	.LASF64
 1152 0370 06       		.byte	0x6
 1153 0371 39       		.byte	0x39
 1154 0372 1A       		.byte	0x1a
 1155 0373 79030000 		.4byte	0x379
 1156 0377 00       		.byte	0
 1157 0378 00       		.byte	0
 1158 0379 0C       		.uleb128 0xc
 1159 037a 04       		.byte	0x4
 1160 037b 52030000 		.4byte	0x352
 1161 037f 04       		.uleb128 0x4
 1162 0380 07020000 		.4byte	.LASF65
 1163 0384 06       		.byte	0x6
 1164 0385 3F       		.byte	0x3f
 1165 0386 19       		.byte	0x19
 1166 0387 8B030000 		.4byte	0x38b
 1167 038b 06       		.uleb128 0x6
 1168 038c 46010000 		.4byte	.LASF66
 1169 0390 08       		.byte	0x8
 1170 0391 06       		.byte	0x6
 1171 0392 45       		.byte	0x45
 1172 0393 08       		.byte	0x8
 1173 0394 B3030000 		.4byte	0x3b3
 1174 0398 08       		.uleb128 0x8
 1175 0399 C6000000 		.4byte	.LASF64
 1176 039d 06       		.byte	0x6
 1177 039e 46       		.byte	0x46
 1178 039f 1A       		.byte	0x1a
 1179 03a0 B3030000 		.4byte	0x3b3
 1180 03a4 00       		.byte	0
 1181 03a5 08       		.uleb128 0x8
 1182 03a6 41000000 		.4byte	.LASF67
 1183 03aa 06       		.byte	0x6
 1184 03ab 47       		.byte	0x47
 1185 03ac 1A       		.byte	0x1a
 1186 03ad B3030000 		.4byte	0x3b3
 1187 03b1 04       		.byte	0x4
 1188 03b2 00       		.byte	0
 1189 03b3 0C       		.uleb128 0xc
 1190 03b4 04       		.byte	0x4
 1191 03b5 7F030000 		.4byte	0x37f
 1192 03b9 04       		.uleb128 0x4
 1193 03ba 69000000 		.4byte	.LASF68
 1194 03be 06       		.byte	0x6
 1195 03bf 4E       		.byte	0x4e
 1196 03c0 22       		.byte	0x22
 1197 03c1 C5030000 		.4byte	0x3c5
ARM GAS  /tmp/cc4Q69ox.s 			page 22


 1198 03c5 06       		.uleb128 0x6
 1199 03c6 D1040000 		.4byte	.LASF69
 1200 03ca 0C       		.byte	0xc
 1201 03cb 06       		.byte	0x6
 1202 03cc 55       		.byte	0x55
 1203 03cd 08       		.byte	0x8
 1204 03ce FA030000 		.4byte	0x3fa
 1205 03d2 08       		.uleb128 0x8
 1206 03d3 C6000000 		.4byte	.LASF64
 1207 03d7 06       		.byte	0x6
 1208 03d8 56       		.byte	0x56
 1209 03d9 1A       		.byte	0x1a
 1210 03da FA030000 		.4byte	0x3fa
 1211 03de 00       		.byte	0
 1212 03df 08       		.uleb128 0x8
 1213 03e0 41000000 		.4byte	.LASF67
 1214 03e4 06       		.byte	0x6
 1215 03e5 57       		.byte	0x57
 1216 03e6 1A       		.byte	0x1a
 1217 03e7 FA030000 		.4byte	0x3fa
 1218 03eb 04       		.byte	0x4
 1219 03ec 08       		.uleb128 0x8
 1220 03ed 37030000 		.4byte	.LASF70
 1221 03f1 06       		.byte	0x6
 1222 03f2 58       		.byte	0x58
 1223 03f3 19       		.byte	0x19
 1224 03f4 13010000 		.4byte	0x113
 1225 03f8 08       		.byte	0x8
 1226 03f9 00       		.byte	0
 1227 03fa 0C       		.uleb128 0xc
 1228 03fb 04       		.byte	0x4
 1229 03fc B9030000 		.4byte	0x3b9
 1230 0400 04       		.uleb128 0x4
 1231 0401 6A010000 		.4byte	.LASF71
 1232 0405 06       		.byte	0x6
 1233 0406 5F       		.byte	0x5f
 1234 0407 1E       		.byte	0x1e
 1235 0408 0C040000 		.4byte	0x40c
 1236 040c 06       		.uleb128 0x6
 1237 040d EA000000 		.4byte	.LASF72
 1238 0411 0C       		.byte	0xc
 1239 0412 06       		.byte	0x6
 1240 0413 64       		.byte	0x64
 1241 0414 08       		.byte	0x8
 1242 0415 41040000 		.4byte	0x441
 1243 0419 08       		.uleb128 0x8
 1244 041a C6000000 		.4byte	.LASF64
 1245 041e 06       		.byte	0x6
 1246 041f 65       		.byte	0x65
 1247 0420 1A       		.byte	0x1a
 1248 0421 41040000 		.4byte	0x441
 1249 0425 00       		.byte	0
 1250 0426 08       		.uleb128 0x8
 1251 0427 41000000 		.4byte	.LASF67
 1252 042b 06       		.byte	0x6
 1253 042c 66       		.byte	0x66
 1254 042d 1A       		.byte	0x1a
ARM GAS  /tmp/cc4Q69ox.s 			page 23


 1255 042e 41040000 		.4byte	0x441
 1256 0432 04       		.byte	0x4
 1257 0433 08       		.uleb128 0x8
 1258 0434 18000000 		.4byte	.LASF73
 1259 0438 06       		.byte	0x6
 1260 0439 67       		.byte	0x67
 1261 043a 19       		.byte	0x19
 1262 043b 46030000 		.4byte	0x346
 1263 043f 08       		.byte	0x8
 1264 0440 00       		.byte	0
 1265 0441 0C       		.uleb128 0xc
 1266 0442 04       		.byte	0x4
 1267 0443 00040000 		.4byte	0x400
 1268 0447 0B       		.uleb128 0xb
 1269 0448 46000000 		.4byte	.LASF74
 1270 044c 24       		.byte	0x24
 1271 044d 05       		.byte	0x5
 1272 044e E001     		.2byte	0x1e0
 1273 0450 08       		.byte	0x8
 1274 0451 CD040000 		.4byte	0x4cd
 1275 0455 09       		.uleb128 0x9
 1276 0456 723400   		.ascii	"r4\000"
 1277 0459 05       		.byte	0x5
 1278 045a F901     		.2byte	0x1f9
 1279 045c 11       		.byte	0x11
 1280 045d BA000000 		.4byte	0xba
 1281 0461 00       		.byte	0
 1282 0462 09       		.uleb128 0x9
 1283 0463 723500   		.ascii	"r5\000"
 1284 0466 05       		.byte	0x5
 1285 0467 FA01     		.2byte	0x1fa
 1286 0469 11       		.byte	0x11
 1287 046a BA000000 		.4byte	0xba
 1288 046e 04       		.byte	0x4
 1289 046f 09       		.uleb128 0x9
 1290 0470 723600   		.ascii	"r6\000"
 1291 0473 05       		.byte	0x5
 1292 0474 FB01     		.2byte	0x1fb
 1293 0476 11       		.byte	0x11
 1294 0477 BA000000 		.4byte	0xba
 1295 047b 08       		.byte	0x8
 1296 047c 09       		.uleb128 0x9
 1297 047d 723700   		.ascii	"r7\000"
 1298 0480 05       		.byte	0x5
 1299 0481 FC01     		.2byte	0x1fc
 1300 0483 11       		.byte	0x11
 1301 0484 BA000000 		.4byte	0xba
 1302 0488 0C       		.byte	0xc
 1303 0489 09       		.uleb128 0x9
 1304 048a 723800   		.ascii	"r8\000"
 1305 048d 05       		.byte	0x5
 1306 048e FD01     		.2byte	0x1fd
 1307 0490 11       		.byte	0x11
 1308 0491 BA000000 		.4byte	0xba
 1309 0495 10       		.byte	0x10
 1310 0496 09       		.uleb128 0x9
 1311 0497 723900   		.ascii	"r9\000"
ARM GAS  /tmp/cc4Q69ox.s 			page 24


 1312 049a 05       		.byte	0x5
 1313 049b FE01     		.2byte	0x1fe
 1314 049d 11       		.byte	0x11
 1315 049e BA000000 		.4byte	0xba
 1316 04a2 14       		.byte	0x14
 1317 04a3 09       		.uleb128 0x9
 1318 04a4 72313000 		.ascii	"r10\000"
 1319 04a8 05       		.byte	0x5
 1320 04a9 FF01     		.2byte	0x1ff
 1321 04ab 11       		.byte	0x11
 1322 04ac BA000000 		.4byte	0xba
 1323 04b0 18       		.byte	0x18
 1324 04b1 09       		.uleb128 0x9
 1325 04b2 72313100 		.ascii	"r11\000"
 1326 04b6 05       		.byte	0x5
 1327 04b7 0002     		.2byte	0x200
 1328 04b9 11       		.byte	0x11
 1329 04ba BA000000 		.4byte	0xba
 1330 04be 1C       		.byte	0x1c
 1331 04bf 09       		.uleb128 0x9
 1332 04c0 6C7200   		.ascii	"lr\000"
 1333 04c3 05       		.byte	0x5
 1334 04c4 0102     		.2byte	0x201
 1335 04c6 11       		.byte	0x11
 1336 04c7 BA000000 		.4byte	0xba
 1337 04cb 20       		.byte	0x20
 1338 04cc 00       		.byte	0
 1339 04cd 0B       		.uleb128 0xb
 1340 04ce 2A030000 		.4byte	.LASF75
 1341 04d2 04       		.byte	0x4
 1342 04d3 05       		.byte	0x5
 1343 04d4 0A02     		.2byte	0x20a
 1344 04d6 08       		.byte	0x8
 1345 04d7 E9040000 		.4byte	0x4e9
 1346 04db 09       		.uleb128 0x9
 1347 04dc 737000   		.ascii	"sp\000"
 1348 04df 05       		.byte	0x5
 1349 04e0 0B02     		.2byte	0x20b
 1350 04e2 1A       		.byte	0x1a
 1351 04e3 E9040000 		.4byte	0x4e9
 1352 04e7 00       		.byte	0
 1353 04e8 00       		.byte	0
 1354 04e9 0C       		.uleb128 0xc
 1355 04ea 04       		.byte	0x4
 1356 04eb 47040000 		.4byte	0x447
 1357 04ef 0E       		.uleb128 0xe
 1358 04f0 04       		.byte	0x4
 1359 04f1 06       		.uleb128 0x6
 1360 04f2 EA020000 		.4byte	.LASF76
 1361 04f6 18       		.byte	0x18
 1362 04f7 0C       		.byte	0xc
 1363 04f8 64       		.byte	0x64
 1364 04f9 10       		.byte	0x10
 1365 04fa 26050000 		.4byte	0x526
 1366 04fe 08       		.uleb128 0x8
 1367 04ff 73040000 		.4byte	.LASF77
 1368 0503 0C       		.byte	0xc
ARM GAS  /tmp/cc4Q69ox.s 			page 25


 1369 0504 68       		.byte	0x68
 1370 0505 21       		.byte	0x21
 1371 0506 00040000 		.4byte	0x400
 1372 050a 00       		.byte	0
 1373 050b 08       		.uleb128 0x8
 1374 050c B6030000 		.4byte	.LASF78
 1375 0510 0C       		.byte	0xc
 1376 0511 73       		.byte	0x73
 1377 0512 21       		.byte	0x21
 1378 0513 3A030000 		.4byte	0x33a
 1379 0517 0C       		.byte	0xc
 1380 0518 08       		.uleb128 0x8
 1381 0519 B8020000 		.4byte	.LASF79
 1382 051d 0C       		.byte	0xc
 1383 051e 79       		.byte	0x79
 1384 051f 21       		.byte	0x21
 1385 0520 D2000000 		.4byte	0xd2
 1386 0524 10       		.byte	0x10
 1387 0525 00       		.byte	0
 1388 0526 04       		.uleb128 0x4
 1389 0527 B0000000 		.4byte	.LASF80
 1390 052b 0C       		.byte	0xc
 1391 052c 7B       		.byte	0x7b
 1392 052d 03       		.byte	0x3
 1393 052e F1040000 		.4byte	0x4f1
 1394 0532 06       		.uleb128 0x6
 1395 0533 8A010000 		.4byte	.LASF81
 1396 0537 08       		.byte	0x8
 1397 0538 0C       		.byte	0xc
 1398 0539 80       		.byte	0x80
 1399 053a 10       		.byte	0x10
 1400 053b 4D050000 		.4byte	0x54d
 1401 053f 08       		.uleb128 0x8
 1402 0540 4F010000 		.4byte	.LASF82
 1403 0544 0C       		.byte	0xc
 1404 0545 84       		.byte	0x84
 1405 0546 21       		.byte	0x21
 1406 0547 7F030000 		.4byte	0x37f
 1407 054b 00       		.byte	0
 1408 054c 00       		.byte	0
 1409 054d 04       		.uleb128 0x4
 1410 054e 1E040000 		.4byte	.LASF83
 1411 0552 0C       		.byte	0xc
 1412 0553 85       		.byte	0x85
 1413 0554 03       		.byte	0x3
 1414 0555 32050000 		.4byte	0x532
 1415 0559 04       		.uleb128 0x4
 1416 055a D7020000 		.4byte	.LASF84
 1417 055e 0C       		.byte	0xc
 1418 055f 8A       		.byte	0x8a
 1419 0560 14       		.byte	0x14
 1420 0561 65050000 		.4byte	0x565
 1421 0565 0C       		.uleb128 0xc
 1422 0566 04       		.byte	0x4
 1423 0567 4F010000 		.4byte	0x14f
 1424 056b 0F       		.uleb128 0xf
 1425 056c 0C       		.byte	0xc
ARM GAS  /tmp/cc4Q69ox.s 			page 26


 1426 056d 0C       		.byte	0xc
 1427 056e A0       		.byte	0xa0
 1428 056f 03       		.byte	0x3
 1429 0570 99050000 		.4byte	0x599
 1430 0574 10       		.uleb128 0x10
 1431 0575 6E060000 		.4byte	.LASF85
 1432 0579 0C       		.byte	0xc
 1433 057a A4       		.byte	0xa4
 1434 057b 21       		.byte	0x21
 1435 057c 52030000 		.4byte	0x352
 1436 0580 10       		.uleb128 0x10
 1437 0581 4F010000 		.4byte	.LASF82
 1438 0585 0C       		.byte	0xc
 1439 0586 A8       		.byte	0xa8
 1440 0587 21       		.byte	0x21
 1441 0588 7F030000 		.4byte	0x37f
 1442 058c 10       		.uleb128 0x10
 1443 058d A5040000 		.4byte	.LASF86
 1444 0591 0C       		.byte	0xc
 1445 0592 AC       		.byte	0xac
 1446 0593 21       		.byte	0x21
 1447 0594 B9030000 		.4byte	0x3b9
 1448 0598 00       		.byte	0
 1449 0599 0F       		.uleb128 0xf
 1450 059a 04       		.byte	0x4
 1451 059b 0C       		.byte	0xc
 1452 059c EB       		.byte	0xeb
 1453 059d 03       		.byte	0x3
 1454 059e 09060000 		.4byte	0x609
 1455 05a2 10       		.uleb128 0x10
 1456 05a3 1E000000 		.4byte	.LASF87
 1457 05a7 0C       		.byte	0xc
 1458 05a8 F2       		.byte	0xf2
 1459 05a9 21       		.byte	0x21
 1460 05aa 1F010000 		.4byte	0x11f
 1461 05ae 10       		.uleb128 0x10
 1462 05af 94000000 		.4byte	.LASF88
 1463 05b3 0C       		.byte	0xc
 1464 05b4 F9       		.byte	0xf9
 1465 05b5 21       		.byte	0x21
 1466 05b6 1F010000 		.4byte	0x11f
 1467 05ba 11       		.uleb128 0x11
 1468 05bb 79050000 		.4byte	.LASF89
 1469 05bf 0C       		.byte	0xc
 1470 05c0 0001     		.2byte	0x100
 1471 05c2 22       		.byte	0x22
 1472 05c3 EF040000 		.4byte	0x4ef
 1473 05c7 11       		.uleb128 0x11
 1474 05c8 12000000 		.4byte	.LASF90
 1475 05cc 0C       		.byte	0xc
 1476 05cd 0701     		.2byte	0x107
 1477 05cf 22       		.byte	0x22
 1478 05d0 09060000 		.4byte	0x609
 1479 05d4 11       		.uleb128 0x11
 1480 05d5 A8000000 		.4byte	.LASF91
 1481 05d9 0C       		.byte	0xc
 1482 05da 0C01     		.2byte	0x10c
ARM GAS  /tmp/cc4Q69ox.s 			page 27


 1483 05dc 21       		.byte	0x21
 1484 05dd 1F010000 		.4byte	0x11f
 1485 05e1 11       		.uleb128 0x11
 1486 05e2 E7010000 		.4byte	.LASF92
 1487 05e6 0C       		.byte	0xc
 1488 05e7 1501     		.2byte	0x115
 1489 05e9 22       		.byte	0x22
 1490 05ea 37060000 		.4byte	0x637
 1491 05ee 11       		.uleb128 0x11
 1492 05ef 32040000 		.4byte	.LASF93
 1493 05f3 0C       		.byte	0xc
 1494 05f4 1E01     		.2byte	0x11e
 1495 05f6 22       		.byte	0x22
 1496 05f7 72060000 		.4byte	0x672
 1497 05fb 11       		.uleb128 0x11
 1498 05fc DC030000 		.4byte	.LASF94
 1499 0600 0C       		.byte	0xc
 1500 0601 2601     		.2byte	0x126
 1501 0603 21       		.byte	0x21
 1502 0604 2B010000 		.4byte	0x12b
 1503 0608 00       		.byte	0
 1504 0609 0C       		.uleb128 0xc
 1505 060a 04       		.byte	0x4
 1506 060b 59050000 		.4byte	0x559
 1507 060f 06       		.uleb128 0x6
 1508 0610 03040000 		.4byte	.LASF95
 1509 0614 0C       		.byte	0xc
 1510 0615 10       		.byte	0x10
 1511 0616 34       		.byte	0x34
 1512 0617 10       		.byte	0x10
 1513 0618 37060000 		.4byte	0x637
 1514 061c 08       		.uleb128 0x8
 1515 061d 4F010000 		.4byte	.LASF82
 1516 0621 10       		.byte	0x10
 1517 0622 35       		.byte	0x35
 1518 0623 19       		.byte	0x19
 1519 0624 7F030000 		.4byte	0x37f
 1520 0628 00       		.byte	0
 1521 0629 07       		.uleb128 0x7
 1522 062a 636E7400 		.ascii	"cnt\000"
 1523 062e 10       		.byte	0x10
 1524 062f 37       		.byte	0x37
 1525 0630 19       		.byte	0x19
 1526 0631 37010000 		.4byte	0x137
 1527 0635 08       		.byte	0x8
 1528 0636 00       		.byte	0
 1529 0637 0C       		.uleb128 0xc
 1530 0638 04       		.byte	0x4
 1531 0639 0F060000 		.4byte	0x60f
 1532 063d 06       		.uleb128 0x6
 1533 063e 4E050000 		.4byte	.LASF96
 1534 0642 10       		.byte	0x10
 1535 0643 11       		.byte	0x11
 1536 0644 39       		.byte	0x39
 1537 0645 08       		.byte	0x8
 1538 0646 72060000 		.4byte	0x672
 1539 064a 08       		.uleb128 0x8
ARM GAS  /tmp/cc4Q69ox.s 			page 28


 1540 064b 4F010000 		.4byte	.LASF82
 1541 064f 11       		.byte	0x11
 1542 0650 3A       		.byte	0x3a
 1543 0651 19       		.byte	0x19
 1544 0652 7F030000 		.4byte	0x37f
 1545 0656 00       		.byte	0
 1546 0657 08       		.uleb128 0x8
 1547 0658 45040000 		.4byte	.LASF30
 1548 065c 11       		.byte	0x11
 1549 065d 3C       		.byte	0x3c
 1550 065e 1A       		.byte	0x1a
 1551 065f 65050000 		.4byte	0x565
 1552 0663 08       		.byte	0x8
 1553 0664 08       		.uleb128 0x8
 1554 0665 C6000000 		.4byte	.LASF64
 1555 0669 11       		.byte	0x11
 1556 066a 3E       		.byte	0x3e
 1557 066b 1A       		.byte	0x1a
 1558 066c 42070000 		.4byte	0x742
 1559 0670 0C       		.byte	0xc
 1560 0671 00       		.byte	0
 1561 0672 0C       		.uleb128 0xc
 1562 0673 04       		.byte	0x4
 1563 0674 3D060000 		.4byte	0x63d
 1564 0678 0C       		.uleb128 0xc
 1565 0679 04       		.byte	0x4
 1566 067a 3E020000 		.4byte	0x23e
 1567 067e 0C       		.uleb128 0xc
 1568 067f 04       		.byte	0x4
 1569 0680 E3000000 		.4byte	0xe3
 1570 0684 0B       		.uleb128 0xb
 1571 0685 83020000 		.4byte	.LASF97
 1572 0689 10       		.byte	0x10
 1573 068a 0C       		.byte	0xc
 1574 068b 5C01     		.2byte	0x15c
 1575 068d 10       		.byte	0x10
 1576 068e AF060000 		.4byte	0x6af
 1577 0692 0A       		.uleb128 0xa
 1578 0693 A5040000 		.4byte	.LASF86
 1579 0697 0C       		.byte	0xc
 1580 0698 6101     		.2byte	0x161
 1581 069a 21       		.byte	0x21
 1582 069b B9030000 		.4byte	0x3b9
 1583 069f 00       		.byte	0
 1584 06a0 0A       		.uleb128 0xa
 1585 06a1 3C030000 		.4byte	.LASF98
 1586 06a5 0C       		.byte	0xc
 1587 06a6 6501     		.2byte	0x165
 1588 06a8 22       		.byte	0x22
 1589 06a9 65050000 		.4byte	0x565
 1590 06ad 0C       		.byte	0xc
 1591 06ae 00       		.byte	0
 1592 06af 12       		.uleb128 0x12
 1593 06b0 00000000 		.4byte	.LASF99
 1594 06b4 0C       		.byte	0xc
 1595 06b5 6601     		.2byte	0x166
 1596 06b7 03       		.byte	0x3
ARM GAS  /tmp/cc4Q69ox.s 			page 29


 1597 06b8 84060000 		.4byte	0x684
 1598 06bc 0B       		.uleb128 0xb
 1599 06bd 14030000 		.4byte	.LASF100
 1600 06c1 14       		.byte	0x14
 1601 06c2 0C       		.byte	0xc
 1602 06c3 6B01     		.2byte	0x16b
 1603 06c5 10       		.byte	0x10
 1604 06c6 11070000 		.4byte	0x711
 1605 06ca 0A       		.uleb128 0xa
 1606 06cb 2A020000 		.4byte	.LASF31
 1607 06cf 0C       		.byte	0xc
 1608 06d0 6F01     		.2byte	0x16f
 1609 06d2 22       		.byte	0x22
 1610 06d3 17030000 		.4byte	0x317
 1611 06d7 00       		.byte	0
 1612 06d8 0A       		.uleb128 0xa
 1613 06d9 AE010000 		.4byte	.LASF101
 1614 06dd 0C       		.byte	0xc
 1615 06de 7501     		.2byte	0x175
 1616 06e0 22       		.byte	0x22
 1617 06e1 7E060000 		.4byte	0x67e
 1618 06e5 04       		.byte	0x4
 1619 06e6 0A       		.uleb128 0xa
 1620 06e7 1D050000 		.4byte	.LASF102
 1621 06eb 0C       		.byte	0xc
 1622 06ec 7901     		.2byte	0x179
 1623 06ee 22       		.byte	0x22
 1624 06ef 7E060000 		.4byte	0x67e
 1625 06f3 08       		.byte	0x8
 1626 06f4 0A       		.uleb128 0xa
 1627 06f5 A8020000 		.4byte	.LASF103
 1628 06f9 0C       		.byte	0xc
 1629 06fa 7F01     		.2byte	0x17f
 1630 06fc 22       		.byte	0x22
 1631 06fd 7E060000 		.4byte	0x67e
 1632 0701 0C       		.byte	0xc
 1633 0702 0A       		.uleb128 0xa
 1634 0703 7D060000 		.4byte	.LASF104
 1635 0707 0C       		.byte	0xc
 1636 0708 8301     		.2byte	0x183
 1637 070a 22       		.byte	0x22
 1638 070b 7E060000 		.4byte	0x67e
 1639 070f 10       		.byte	0x10
 1640 0710 00       		.byte	0
 1641 0711 12       		.uleb128 0x12
 1642 0712 39050000 		.4byte	.LASF105
 1643 0716 0C       		.byte	0xc
 1644 0717 8501     		.2byte	0x185
 1645 0719 03       		.byte	0x3
 1646 071a BC060000 		.4byte	0x6bc
 1647 071e 0D       		.uleb128 0xd
 1648 071f 11070000 		.4byte	0x711
 1649 0723 0C       		.uleb128 0xc
 1650 0724 04       		.byte	0x4
 1651 0725 1E070000 		.4byte	0x71e
 1652 0729 13       		.uleb128 0x13
 1653 072a 63683000 		.ascii	"ch0\000"
ARM GAS  /tmp/cc4Q69ox.s 			page 30


 1654 072e 04       		.byte	0x4
 1655 072f 4101     		.2byte	0x141
 1656 0731 16       		.byte	0x16
 1657 0732 3E020000 		.4byte	0x23e
 1658 0736 04       		.uleb128 0x4
 1659 0737 BE010000 		.4byte	.LASF106
 1660 073b 11       		.byte	0x11
 1661 073c 34       		.byte	0x34
 1662 073d 19       		.byte	0x19
 1663 073e 3D060000 		.4byte	0x63d
 1664 0742 0C       		.uleb128 0xc
 1665 0743 04       		.byte	0x4
 1666 0744 36070000 		.4byte	0x736
 1667 0748 03       		.uleb128 0x3
 1668 0749 01       		.byte	0x1
 1669 074a 02       		.byte	0x2
 1670 074b 79030000 		.4byte	.LASF107
 1671 074f 14       		.uleb128 0x14
 1672 0750 F6030000 		.4byte	.LASF132
 1673 0754 01       		.byte	0x1
 1674 0755 D0       		.byte	0xd0
 1675 0756 06       		.byte	0x6
 1676 0757 00000000 		.4byte	.LFB339
 1677 075b 14000000 		.4byte	.LFE339-.LFB339
 1678 075f 01       		.uleb128 0x1
 1679 0760 9C       		.byte	0x9c
 1680 0761 7A080000 		.4byte	0x87a
 1681 0765 15       		.uleb128 0x15
 1682 0766 747000   		.ascii	"tp\000"
 1683 0769 01       		.byte	0x1
 1684 076a D0       		.byte	0xd0
 1685 076b 1D       		.byte	0x1d
 1686 076c 65050000 		.4byte	0x565
 1687 0770 04000000 		.4byte	.LLST21
 1688 0774 00000000 		.4byte	.LVUS21
 1689 0778 15       		.uleb128 0x15
 1690 0779 6D736700 		.ascii	"msg\000"
 1691 077d 01       		.byte	0x1
 1692 077e D0       		.byte	0xd0
 1693 077f 27       		.byte	0x27
 1694 0780 1F010000 		.4byte	0x11f
 1695 0784 29000000 		.4byte	.LLST22
 1696 0788 25000000 		.4byte	.LVUS22
 1697 078c 16       		.uleb128 0x16
 1698 078d E3030000 		.4byte	.LASF114
 1699 0791 8A080000 		.4byte	0x88a
 1700 0795 17       		.uleb128 0x17
 1701 0796 A70C0000 		.4byte	0xca7
 1702 079a 00000000 		.4byte	.LBI125
 1703 079e 02       		.byte	.LVU167
 1704 079f 60010000 		.4byte	.Ldebug_ranges0+0x160
 1705 07a3 01       		.byte	0x1
 1706 07a4 D2       		.byte	0xd2
 1707 07a5 03       		.byte	0x3
 1708 07a6 DE070000 		.4byte	0x7de
 1709 07aa 18       		.uleb128 0x18
 1710 07ab BB0C0000 		.4byte	0xcbb
ARM GAS  /tmp/cc4Q69ox.s 			page 31


 1711 07af 00000000 		.4byte	.LBI126
 1712 07b3 04       		.byte	.LVU169
 1713 07b4 68010000 		.4byte	.Ldebug_ranges0+0x168
 1714 07b8 04       		.byte	0x4
 1715 07b9 9901     		.2byte	0x199
 1716 07bb 03       		.byte	0x3
 1717 07bc 18       		.uleb128 0x18
 1718 07bd C50C0000 		.4byte	0xcc5
 1719 07c1 00000000 		.4byte	.LBI127
 1720 07c5 06       		.byte	.LVU171
 1721 07c6 70010000 		.4byte	.Ldebug_ranges0+0x170
 1722 07ca 05       		.byte	0x5
 1723 07cb 2E03     		.2byte	0x32e
 1724 07cd 03       		.byte	0x3
 1725 07ce 19       		.uleb128 0x19
 1726 07cf D30C0000 		.4byte	0xcd3
 1727 07d3 4C000000 		.4byte	.LLST23
 1728 07d7 4A000000 		.4byte	.LVUS23
 1729 07db 00       		.byte	0
 1730 07dc 00       		.byte	0
 1731 07dd 00       		.byte	0
 1732 07de 1A       		.uleb128 0x1a
 1733 07df 2A0C0000 		.4byte	0xc2a
 1734 07e3 08000000 		.4byte	.LBI136
 1735 07e7 07       		.byte	.LVU182
 1736 07e8 08000000 		.4byte	.LBB136
 1737 07ec 04000000 		.4byte	.LBE136-.LBB136
 1738 07f0 01       		.byte	0x1
 1739 07f1 D4       		.byte	0xd4
 1740 07f2 03       		.byte	0x3
 1741 07f3 2A080000 		.4byte	0x82a
 1742 07f7 19       		.uleb128 0x19
 1743 07f8 420C0000 		.4byte	0xc42
 1744 07fc 65000000 		.4byte	.LLST24
 1745 0800 61000000 		.4byte	.LVUS24
 1746 0804 19       		.uleb128 0x19
 1747 0805 370C0000 		.4byte	0xc37
 1748 0809 8A000000 		.4byte	.LLST25
 1749 080d 86000000 		.4byte	.LVUS25
 1750 0811 1B       		.uleb128 0x1b
 1751 0812 0C000000 		.4byte	.LVL34
 1752 0816 310D0000 		.4byte	0xd31
 1753 081a 1C       		.uleb128 0x1c
 1754 081b 01       		.uleb128 0x1
 1755 081c 50       		.byte	0x50
 1756 081d 03       		.uleb128 0x3
 1757 081e F3       		.byte	0xf3
 1758 081f 01       		.uleb128 0x1
 1759 0820 50       		.byte	0x50
 1760 0821 1C       		.uleb128 0x1c
 1761 0822 01       		.uleb128 0x1
 1762 0823 51       		.byte	0x51
 1763 0824 03       		.uleb128 0x3
 1764 0825 F3       		.byte	0xf3
 1765 0826 01       		.uleb128 0x1
 1766 0827 51       		.byte	0x51
 1767 0828 00       		.byte	0
ARM GAS  /tmp/cc4Q69ox.s 			page 32


 1768 0829 00       		.byte	0
 1769 082a 1D       		.uleb128 0x1d
 1770 082b 7A0C0000 		.4byte	0xc7a
 1771 082f 0C000000 		.4byte	.LBI138
 1772 0833 02       		.byte	.LVU187
 1773 0834 88010000 		.4byte	.Ldebug_ranges0+0x188
 1774 0838 01       		.byte	0x1
 1775 0839 D5       		.byte	0xd5
 1776 083a 03       		.byte	0x3
 1777 083b 1E       		.uleb128 0x1e
 1778 083c 88010000 		.4byte	.Ldebug_ranges0+0x188
 1779 0840 18       		.uleb128 0x18
 1780 0841 B10C0000 		.4byte	0xcb1
 1781 0845 0C000000 		.4byte	.LBI140
 1782 0849 09       		.byte	.LVU194
 1783 084a 88010000 		.4byte	.Ldebug_ranges0+0x188
 1784 084e 04       		.byte	0x4
 1785 084f B201     		.2byte	0x1b2
 1786 0851 03       		.byte	0x3
 1787 0852 1F       		.uleb128 0x1f
 1788 0853 C50C0000 		.4byte	0xcc5
 1789 0857 0C000000 		.4byte	.LBI141
 1790 085b 0B       		.byte	.LVU196
 1791 085c 0C000000 		.4byte	.LBB141
 1792 0860 06000000 		.4byte	.LBE141-.LBB141
 1793 0864 05       		.byte	0x5
 1794 0865 4103     		.2byte	0x341
 1795 0867 03       		.byte	0x3
 1796 0868 19       		.uleb128 0x19
 1797 0869 D30C0000 		.4byte	0xcd3
 1798 086d AD000000 		.4byte	.LLST26
 1799 0871 AB000000 		.4byte	.LVUS26
 1800 0875 00       		.byte	0
 1801 0876 00       		.byte	0
 1802 0877 00       		.byte	0
 1803 0878 00       		.byte	0
 1804 0879 00       		.byte	0
 1805 087a 20       		.uleb128 0x20
 1806 087b 29030000 		.4byte	0x329
 1807 087f 8A080000 		.4byte	0x88a
 1808 0883 21       		.uleb128 0x21
 1809 0884 2C000000 		.4byte	0x2c
 1810 0888 0C       		.byte	0xc
 1811 0889 00       		.byte	0
 1812 088a 0D       		.uleb128 0xd
 1813 088b 7A080000 		.4byte	0x87a
 1814 088f 22       		.uleb128 0x22
 1815 0890 12050000 		.4byte	.LASF109
 1816 0894 01       		.byte	0x1
 1817 0895 BA       		.byte	0xba
 1818 0896 0B       		.byte	0xb
 1819 0897 65050000 		.4byte	0x565
 1820 089b 00000000 		.4byte	.LFB338
 1821 089f 28000000 		.4byte	.LFE338-.LFB338
 1822 08a3 01       		.uleb128 0x1
 1823 08a4 9C       		.byte	0x9c
 1824 08a5 3F090000 		.4byte	0x93f
ARM GAS  /tmp/cc4Q69ox.s 			page 33


 1825 08a9 23       		.uleb128 0x23
 1826 08aa 5D020000 		.4byte	.LASF108
 1827 08ae 01       		.byte	0x1
 1828 08af BB       		.byte	0xbb
 1829 08b0 0D       		.byte	0xd
 1830 08b1 65050000 		.4byte	0x565
 1831 08b5 C3000000 		.4byte	.LLST16
 1832 08b9 C1000000 		.4byte	.LVUS16
 1833 08bd 24       		.uleb128 0x24
 1834 08be 747000   		.ascii	"tp\000"
 1835 08c1 01       		.byte	0x1
 1836 08c2 BC       		.byte	0xbc
 1837 08c3 0D       		.byte	0xd
 1838 08c4 65050000 		.4byte	0x565
 1839 08c8 DC000000 		.4byte	.LLST17
 1840 08cc D6000000 		.4byte	.LVUS17
 1841 08d0 25       		.uleb128 0x25
 1842 08d1 6C0C0000 		.4byte	0xc6c
 1843 08d5 00000000 		.4byte	.LBI117
 1844 08d9 02       		.byte	.LVU137
 1845 08da 00000000 		.4byte	.LBB117
 1846 08de 04000000 		.4byte	.LBE117-.LBB117
 1847 08e2 01       		.byte	0x1
 1848 08e3 BB       		.byte	0xbb
 1849 08e4 16       		.byte	0x16
 1850 08e5 1A       		.uleb128 0x1a
 1851 08e6 4F0C0000 		.4byte	0xc4f
 1852 08ea 04000000 		.4byte	.LBI119
 1853 08ee 03       		.byte	.LVU143
 1854 08ef 04000000 		.4byte	.LBB119
 1855 08f3 06000000 		.4byte	.LBE119-.LBB119
 1856 08f7 01       		.byte	0x1
 1857 08f8 BE       		.byte	0xbe
 1858 08f9 07       		.byte	0x7
 1859 08fa 0C090000 		.4byte	0x90c
 1860 08fe 19       		.uleb128 0x19
 1861 08ff 600C0000 		.4byte	0xc60
 1862 0903 09010000 		.4byte	.LLST18
 1863 0907 07010000 		.4byte	.LVUS18
 1864 090b 00       		.byte	0
 1865 090c 1D       		.uleb128 0x1d
 1866 090d E10C0000 		.4byte	0xce1
 1867 0911 0E000000 		.4byte	.LBI121
 1868 0915 01       		.byte	.LVU150
 1869 0916 48010000 		.4byte	.Ldebug_ranges0+0x148
 1870 091a 01       		.byte	0x1
 1871 091b BF       		.byte	0xbf
 1872 091c 0A       		.byte	0xa
 1873 091d 19       		.uleb128 0x19
 1874 091e F30C0000 		.4byte	0xcf3
 1875 0922 1E010000 		.4byte	.LLST19
 1876 0926 1C010000 		.4byte	.LVUS19
 1877 092a 1E       		.uleb128 0x1e
 1878 092b 48010000 		.4byte	.Ldebug_ranges0+0x148
 1879 092f 26       		.uleb128 0x26
 1880 0930 FF0C0000 		.4byte	0xcff
 1881 0934 33010000 		.4byte	.LLST20
ARM GAS  /tmp/cc4Q69ox.s 			page 34


 1882 0938 31010000 		.4byte	.LVUS20
 1883 093c 00       		.byte	0
 1884 093d 00       		.byte	0
 1885 093e 00       		.byte	0
 1886 093f 22       		.uleb128 0x22
 1887 0940 25000000 		.4byte	.LASF110
 1888 0944 01       		.byte	0x1
 1889 0945 98       		.byte	0x98
 1890 0946 0B       		.byte	0xb
 1891 0947 65050000 		.4byte	0x565
 1892 094b 00000000 		.4byte	.LFB337
 1893 094f 34000000 		.4byte	.LFE337-.LFB337
 1894 0953 01       		.uleb128 0x1
 1895 0954 9C       		.byte	0x9c
 1896 0955 060A0000 		.4byte	0xa06
 1897 0959 27       		.uleb128 0x27
 1898 095a 22020000 		.4byte	.LASF111
 1899 095e 01       		.byte	0x1
 1900 095f 98       		.byte	0x98
 1901 0960 2B       		.byte	0x2b
 1902 0961 46030000 		.4byte	0x346
 1903 0965 50010000 		.4byte	.LLST11
 1904 0969 46010000 		.4byte	.LVUS11
 1905 096d 23       		.uleb128 0x23
 1906 096e 5D020000 		.4byte	.LASF108
 1907 0972 01       		.byte	0x1
 1908 0973 99       		.byte	0x99
 1909 0974 0D       		.byte	0xd
 1910 0975 65050000 		.4byte	0x565
 1911 0979 97010000 		.4byte	.LLST12
 1912 097d 95010000 		.4byte	.LVUS12
 1913 0981 28       		.uleb128 0x28
 1914 0982 747000   		.ascii	"tp\000"
 1915 0985 01       		.byte	0x1
 1916 0986 9A       		.byte	0x9a
 1917 0987 0D       		.byte	0xd
 1918 0988 65050000 		.4byte	0x565
 1919 098c 29       		.uleb128 0x29
 1920 098d 6C0C0000 		.4byte	0xc6c
 1921 0991 00000000 		.4byte	.LBI103
 1922 0995 02       		.byte	.LVU96
 1923 0996 F8000000 		.4byte	.Ldebug_ranges0+0xf8
 1924 099a 01       		.byte	0x1
 1925 099b 99       		.byte	0x99
 1926 099c 16       		.byte	0x16
 1927 099d 17       		.uleb128 0x17
 1928 099e 4F0C0000 		.4byte	0xc4f
 1929 09a2 06000000 		.4byte	.LBI107
 1930 09a6 04       		.byte	.LVU104
 1931 09a7 10010000 		.4byte	.Ldebug_ranges0+0x110
 1932 09ab 01       		.byte	0x1
 1933 09ac 9E       		.byte	0x9e
 1934 09ad 08       		.byte	0x8
 1935 09ae C0090000 		.4byte	0x9c0
 1936 09b2 19       		.uleb128 0x19
 1937 09b3 600C0000 		.4byte	0xc60
 1938 09b7 AC010000 		.4byte	.LLST13
ARM GAS  /tmp/cc4Q69ox.s 			page 35


 1939 09bb AA010000 		.4byte	.LVUS13
 1940 09bf 00       		.byte	0
 1941 09c0 17       		.uleb128 0x17
 1942 09c1 E10C0000 		.4byte	0xce1
 1943 09c5 12000000 		.4byte	.LBI111
 1944 09c9 01       		.byte	.LVU113
 1945 09ca 28010000 		.4byte	.Ldebug_ranges0+0x128
 1946 09ce 01       		.byte	0x1
 1947 09cf A3       		.byte	0xa3
 1948 09d0 08       		.byte	0x8
 1949 09d1 F6090000 		.4byte	0x9f6
 1950 09d5 19       		.uleb128 0x19
 1951 09d6 F30C0000 		.4byte	0xcf3
 1952 09da C1010000 		.4byte	.LLST14
 1953 09de BF010000 		.4byte	.LVUS14
 1954 09e2 1E       		.uleb128 0x1e
 1955 09e3 28010000 		.4byte	.Ldebug_ranges0+0x128
 1956 09e7 26       		.uleb128 0x26
 1957 09e8 FF0C0000 		.4byte	0xcff
 1958 09ec D6010000 		.4byte	.LLST15
 1959 09f0 D4010000 		.4byte	.LVUS15
 1960 09f4 00       		.byte	0
 1961 09f5 00       		.byte	0
 1962 09f6 1B       		.uleb128 0x1b
 1963 09f7 26000000 		.4byte	.LVL25
 1964 09fb 3D0D0000 		.4byte	0xd3d
 1965 09ff 1C       		.uleb128 0x1c
 1966 0a00 01       		.uleb128 0x1
 1967 0a01 50       		.byte	0x50
 1968 0a02 01       		.uleb128 0x1
 1969 0a03 3E       		.byte	0x3e
 1970 0a04 00       		.byte	0
 1971 0a05 00       		.byte	0
 1972 0a06 22       		.uleb128 0x22
 1973 0a07 35020000 		.4byte	.LASF112
 1974 0a0b 01       		.byte	0x1
 1975 0a0c 73       		.byte	0x73
 1976 0a0d 0B       		.byte	0xb
 1977 0a0e 65050000 		.4byte	0x565
 1978 0a12 00000000 		.4byte	.LFB336
 1979 0a16 2C000000 		.4byte	.LFE336-.LFB336
 1980 0a1a 01       		.uleb128 0x1
 1981 0a1b 9C       		.byte	0x9c
 1982 0a1c BD0A0000 		.4byte	0xabd
 1983 0a20 23       		.uleb128 0x23
 1984 0a21 5D020000 		.4byte	.LASF108
 1985 0a25 01       		.byte	0x1
 1986 0a26 74       		.byte	0x74
 1987 0a27 0D       		.byte	0xd
 1988 0a28 65050000 		.4byte	0x565
 1989 0a2c EC010000 		.4byte	.LLST7
 1990 0a30 EA010000 		.4byte	.LVUS7
 1991 0a34 28       		.uleb128 0x28
 1992 0a35 747000   		.ascii	"tp\000"
 1993 0a38 01       		.byte	0x1
 1994 0a39 75       		.byte	0x75
 1995 0a3a 0D       		.byte	0xd
ARM GAS  /tmp/cc4Q69ox.s 			page 36


 1996 0a3b 65050000 		.4byte	0x565
 1997 0a3f 29       		.uleb128 0x29
 1998 0a40 6C0C0000 		.4byte	0xc6c
 1999 0a44 00000000 		.4byte	.LBI91
 2000 0a48 02       		.byte	.LVU63
 2001 0a49 C0000000 		.4byte	.Ldebug_ranges0+0xc0
 2002 0a4d 01       		.byte	0x1
 2003 0a4e 74       		.byte	0x74
 2004 0a4f 16       		.byte	0x16
 2005 0a50 1A       		.uleb128 0x1a
 2006 0a51 4F0C0000 		.4byte	0xc4f
 2007 0a55 06000000 		.4byte	.LBI95
 2008 0a59 04       		.byte	.LVU71
 2009 0a5a 06000000 		.4byte	.LBB95
 2010 0a5e 06000000 		.4byte	.LBE95-.LBB95
 2011 0a62 01       		.byte	0x1
 2012 0a63 79       		.byte	0x79
 2013 0a64 08       		.byte	0x8
 2014 0a65 770A0000 		.4byte	0xa77
 2015 0a69 19       		.uleb128 0x19
 2016 0a6a 600C0000 		.4byte	0xc60
 2017 0a6e 01020000 		.4byte	.LLST8
 2018 0a72 FF010000 		.4byte	.LVUS8
 2019 0a76 00       		.byte	0
 2020 0a77 17       		.uleb128 0x17
 2021 0a78 E10C0000 		.4byte	0xce1
 2022 0a7c 10000000 		.4byte	.LBI97
 2023 0a80 01       		.byte	.LVU78
 2024 0a81 D8000000 		.4byte	.Ldebug_ranges0+0xd8
 2025 0a85 01       		.byte	0x1
 2026 0a86 7C       		.byte	0x7c
 2027 0a87 08       		.byte	0x8
 2028 0a88 AD0A0000 		.4byte	0xaad
 2029 0a8c 19       		.uleb128 0x19
 2030 0a8d F30C0000 		.4byte	0xcf3
 2031 0a91 16020000 		.4byte	.LLST9
 2032 0a95 14020000 		.4byte	.LVUS9
 2033 0a99 1E       		.uleb128 0x1e
 2034 0a9a D8000000 		.4byte	.Ldebug_ranges0+0xd8
 2035 0a9e 26       		.uleb128 0x26
 2036 0a9f FF0C0000 		.4byte	0xcff
 2037 0aa3 2B020000 		.4byte	.LLST10
 2038 0aa7 29020000 		.4byte	.LVUS10
 2039 0aab 00       		.byte	0
 2040 0aac 00       		.byte	0
 2041 0aad 1B       		.uleb128 0x1b
 2042 0aae 24000000 		.4byte	.LVL17
 2043 0ab2 490D0000 		.4byte	0xd49
 2044 0ab6 1C       		.uleb128 0x1c
 2045 0ab7 01       		.uleb128 0x1
 2046 0ab8 50       		.byte	0x50
 2047 0ab9 01       		.uleb128 0x1
 2048 0aba 3E       		.byte	0x3e
 2049 0abb 00       		.byte	0
 2050 0abc 00       		.byte	0
 2051 0abd 22       		.uleb128 0x22
 2052 0abe 2B010000 		.4byte	.LASF113
ARM GAS  /tmp/cc4Q69ox.s 			page 37


 2053 0ac2 01       		.byte	0x1
 2054 0ac3 51       		.byte	0x51
 2055 0ac4 07       		.byte	0x7
 2056 0ac5 1F010000 		.4byte	0x11f
 2057 0ac9 00000000 		.4byte	.LFB335
 2058 0acd 40000000 		.4byte	.LFE335-.LFB335
 2059 0ad1 01       		.uleb128 0x1
 2060 0ad2 9C       		.byte	0x9c
 2061 0ad3 150C0000 		.4byte	0xc15
 2062 0ad7 15       		.uleb128 0x15
 2063 0ad8 747000   		.ascii	"tp\000"
 2064 0adb 01       		.byte	0x1
 2065 0adc 51       		.byte	0x51
 2066 0add 1B       		.byte	0x1b
 2067 0ade 65050000 		.4byte	0x565
 2068 0ae2 47020000 		.4byte	.LLST0
 2069 0ae6 3F020000 		.4byte	.LVUS0
 2070 0aea 15       		.uleb128 0x15
 2071 0aeb 6D736700 		.ascii	"msg\000"
 2072 0aef 01       		.byte	0x1
 2073 0af0 51       		.byte	0x51
 2074 0af1 25       		.byte	0x25
 2075 0af2 1F010000 		.4byte	0x11f
 2076 0af6 89020000 		.4byte	.LLST1
 2077 0afa 7F020000 		.4byte	.LVUS1
 2078 0afe 23       		.uleb128 0x23
 2079 0aff 5D020000 		.4byte	.LASF108
 2080 0b03 01       		.byte	0x1
 2081 0b04 52       		.byte	0x52
 2082 0b05 0D       		.byte	0xd
 2083 0b06 65050000 		.4byte	0x565
 2084 0b0a D0020000 		.4byte	.LLST2
 2085 0b0e CE020000 		.4byte	.LVUS2
 2086 0b12 16       		.uleb128 0x16
 2087 0b13 E3030000 		.4byte	.LASF114
 2088 0b17 250C0000 		.4byte	0xc25
 2089 0b1b 29       		.uleb128 0x29
 2090 0b1c 6C0C0000 		.4byte	0xc6c
 2091 0b20 00000000 		.4byte	.LBI58
 2092 0b24 02       		.byte	.LVU2
 2093 0b25 00000000 		.4byte	.Ldebug_ranges0+0
 2094 0b29 01       		.byte	0x1
 2095 0b2a 52       		.byte	0x52
 2096 0b2b 16       		.byte	0x16
 2097 0b2c 17       		.uleb128 0x17
 2098 0b2d A70C0000 		.4byte	0xca7
 2099 0b31 08000000 		.4byte	.LBI63
 2100 0b35 05       		.byte	.LVU13
 2101 0b36 20000000 		.4byte	.Ldebug_ranges0+0x20
 2102 0b3a 01       		.byte	0x1
 2103 0b3b 56       		.byte	0x56
 2104 0b3c 03       		.byte	0x3
 2105 0b3d 750B0000 		.4byte	0xb75
 2106 0b41 18       		.uleb128 0x18
 2107 0b42 BB0C0000 		.4byte	0xcbb
 2108 0b46 08000000 		.4byte	.LBI64
 2109 0b4a 07       		.byte	.LVU15
ARM GAS  /tmp/cc4Q69ox.s 			page 38


 2110 0b4b 48000000 		.4byte	.Ldebug_ranges0+0x48
 2111 0b4f 04       		.byte	0x4
 2112 0b50 9901     		.2byte	0x199
 2113 0b52 03       		.byte	0x3
 2114 0b53 18       		.uleb128 0x18
 2115 0b54 C50C0000 		.4byte	0xcc5
 2116 0b58 08000000 		.4byte	.LBI65
 2117 0b5c 09       		.byte	.LVU17
 2118 0b5d 68000000 		.4byte	.Ldebug_ranges0+0x68
 2119 0b61 05       		.byte	0x5
 2120 0b62 2E03     		.2byte	0x32e
 2121 0b64 03       		.byte	0x3
 2122 0b65 19       		.uleb128 0x19
 2123 0b66 D30C0000 		.4byte	0xcd3
 2124 0b6a E5020000 		.4byte	.LLST3
 2125 0b6e E3020000 		.4byte	.LVUS3
 2126 0b72 00       		.byte	0
 2127 0b73 00       		.byte	0
 2128 0b74 00       		.byte	0
 2129 0b75 17       		.uleb128 0x17
 2130 0b76 0B0D0000 		.4byte	0xd0b
 2131 0b7a 18000000 		.4byte	.LBI75
 2132 0b7e 01       		.byte	.LVU29
 2133 0b7f 80000000 		.4byte	.Ldebug_ranges0+0x80
 2134 0b83 01       		.byte	0x1
 2135 0b84 58       		.byte	0x58
 2136 0b85 03       		.byte	0x3
 2137 0b86 A50B0000 		.4byte	0xba5
 2138 0b8a 19       		.uleb128 0x19
 2139 0b8b 250D0000 		.4byte	0xd25
 2140 0b8f FC020000 		.4byte	.LLST4
 2141 0b93 FA020000 		.4byte	.LVUS4
 2142 0b97 19       		.uleb128 0x19
 2143 0b98 190D0000 		.4byte	0xd19
 2144 0b9c 11030000 		.4byte	.LLST5
 2145 0ba0 0F030000 		.4byte	.LVUS5
 2146 0ba4 00       		.byte	0
 2147 0ba5 17       		.uleb128 0x17
 2148 0ba6 7A0C0000 		.4byte	0xc7a
 2149 0baa 2C000000 		.4byte	.LBI83
 2150 0bae 01       		.byte	.LVU44
 2151 0baf A8000000 		.4byte	.Ldebug_ranges0+0xa8
 2152 0bb3 01       		.byte	0x1
 2153 0bb4 5E       		.byte	0x5e
 2154 0bb5 03       		.byte	0x3
 2155 0bb6 F80B0000 		.4byte	0xbf8
 2156 0bba 1E       		.uleb128 0x1e
 2157 0bbb A8000000 		.4byte	.Ldebug_ranges0+0xa8
 2158 0bbf 18       		.uleb128 0x18
 2159 0bc0 B10C0000 		.4byte	0xcb1
 2160 0bc4 2C000000 		.4byte	.LBI85
 2161 0bc8 08       		.byte	.LVU51
 2162 0bc9 A8000000 		.4byte	.Ldebug_ranges0+0xa8
 2163 0bcd 04       		.byte	0x4
 2164 0bce B201     		.2byte	0x1b2
 2165 0bd0 03       		.byte	0x3
 2166 0bd1 1F       		.uleb128 0x1f
ARM GAS  /tmp/cc4Q69ox.s 			page 39


 2167 0bd2 C50C0000 		.4byte	0xcc5
 2168 0bd6 2C000000 		.4byte	.LBI86
 2169 0bda 0A       		.byte	.LVU53
 2170 0bdb 2C000000 		.4byte	.LBB86
 2171 0bdf 06000000 		.4byte	.LBE86-.LBB86
 2172 0be3 05       		.byte	0x5
 2173 0be4 4103     		.2byte	0x341
 2174 0be6 03       		.byte	0x3
 2175 0be7 19       		.uleb128 0x19
 2176 0be8 D30C0000 		.4byte	0xcd3
 2177 0bec 28030000 		.4byte	.LLST6
 2178 0bf0 26030000 		.4byte	.LVUS6
 2179 0bf4 00       		.byte	0
 2180 0bf5 00       		.byte	0
 2181 0bf6 00       		.byte	0
 2182 0bf7 00       		.byte	0
 2183 0bf8 2A       		.uleb128 0x2a
 2184 0bf9 2A000000 		.4byte	.LVL6
 2185 0bfd 490D0000 		.4byte	0xd49
 2186 0c01 0B0C0000 		.4byte	0xc0b
 2187 0c05 1C       		.uleb128 0x1c
 2188 0c06 01       		.uleb128 0x1
 2189 0c07 50       		.byte	0x50
 2190 0c08 01       		.uleb128 0x1
 2191 0c09 3C       		.byte	0x3c
 2192 0c0a 00       		.byte	0
 2193 0c0b 2B       		.uleb128 0x2b
 2194 0c0c 38000000 		.4byte	.LVL10
 2195 0c10 550D0000 		.4byte	0xd55
 2196 0c14 00       		.byte	0
 2197 0c15 20       		.uleb128 0x20
 2198 0c16 29030000 		.4byte	0x329
 2199 0c1a 250C0000 		.4byte	0xc25
 2200 0c1e 21       		.uleb128 0x21
 2201 0c1f 2C000000 		.4byte	0x2c
 2202 0c23 09       		.byte	0x9
 2203 0c24 00       		.byte	0
 2204 0c25 0D       		.uleb128 0xd
 2205 0c26 150C0000 		.4byte	0xc15
 2206 0c2a 2C       		.uleb128 0x2c
 2207 0c2b 60060000 		.4byte	.LASF115
 2208 0c2f 07       		.byte	0x7
 2209 0c30 CF       		.byte	0xcf
 2210 0c31 14       		.byte	0x14
 2211 0c32 03       		.byte	0x3
 2212 0c33 4F0C0000 		.4byte	0xc4f
 2213 0c37 2D       		.uleb128 0x2d
 2214 0c38 747000   		.ascii	"tp\000"
 2215 0c3b 07       		.byte	0x7
 2216 0c3c CF       		.byte	0xcf
 2217 0c3d 2C       		.byte	0x2c
 2218 0c3e 65050000 		.4byte	0x565
 2219 0c42 2D       		.uleb128 0x2d
 2220 0c43 6D736700 		.ascii	"msg\000"
 2221 0c47 07       		.byte	0x7
 2222 0c48 CF       		.byte	0xcf
 2223 0c49 36       		.byte	0x36
ARM GAS  /tmp/cc4Q69ox.s 			page 40


 2224 0c4a 1F010000 		.4byte	0x11f
 2225 0c4e 00       		.byte	0
 2226 0c4f 2E       		.uleb128 0x2e
 2227 0c50 7A010000 		.4byte	.LASF122
 2228 0c54 07       		.byte	0x7
 2229 0c55 AD       		.byte	0xad
 2230 0c56 14       		.byte	0x14
 2231 0c57 48070000 		.4byte	0x748
 2232 0c5b 03       		.byte	0x3
 2233 0c5c 6C0C0000 		.4byte	0xc6c
 2234 0c60 2D       		.uleb128 0x2d
 2235 0c61 747000   		.ascii	"tp\000"
 2236 0c64 07       		.byte	0x7
 2237 0c65 AD       		.byte	0xad
 2238 0c66 2E       		.byte	0x2e
 2239 0c67 65050000 		.4byte	0x565
 2240 0c6b 00       		.byte	0
 2241 0c6c 2F       		.uleb128 0x2f
 2242 0c6d 5D050000 		.4byte	.LASF133
 2243 0c71 02       		.byte	0x2
 2244 0c72 5501     		.2byte	0x155
 2245 0c74 19       		.byte	0x19
 2246 0c75 65050000 		.4byte	0x565
 2247 0c79 03       		.byte	0x3
 2248 0c7a 30       		.uleb128 0x30
 2249 0c7b 54060000 		.4byte	.LASF116
 2250 0c7f 04       		.byte	0x4
 2251 0c80 A501     		.2byte	0x1a5
 2252 0c82 14       		.byte	0x14
 2253 0c83 03       		.byte	0x3
 2254 0c84 920C0000 		.4byte	0xc92
 2255 0c88 16       		.uleb128 0x16
 2256 0c89 E3030000 		.4byte	.LASF114
 2257 0c8d A20C0000 		.4byte	0xca2
 2258 0c91 00       		.byte	0
 2259 0c92 20       		.uleb128 0x20
 2260 0c93 29030000 		.4byte	0x329
 2261 0c97 A20C0000 		.4byte	0xca2
 2262 0c9b 21       		.uleb128 0x21
 2263 0c9c 2C000000 		.4byte	0x2c
 2264 0ca0 0B       		.byte	0xb
 2265 0ca1 00       		.byte	0
 2266 0ca2 0D       		.uleb128 0xd
 2267 0ca3 920C0000 		.4byte	0xc92
 2268 0ca7 31       		.uleb128 0x31
 2269 0ca8 EC030000 		.4byte	.LASF117
 2270 0cac 04       		.byte	0x4
 2271 0cad 9701     		.2byte	0x197
 2272 0caf 14       		.byte	0x14
 2273 0cb0 03       		.byte	0x3
 2274 0cb1 31       		.uleb128 0x31
 2275 0cb2 07010000 		.4byte	.LASF118
 2276 0cb6 05       		.byte	0x5
 2277 0cb7 3E03     		.2byte	0x33e
 2278 0cb9 1B       		.byte	0x1b
 2279 0cba 03       		.byte	0x3
 2280 0cbb 31       		.uleb128 0x31
ARM GAS  /tmp/cc4Q69ox.s 			page 41


 2281 0cbc 73060000 		.4byte	.LASF119
 2282 0cc0 05       		.byte	0x5
 2283 0cc1 2603     		.2byte	0x326
 2284 0cc3 1B       		.byte	0x1b
 2285 0cc4 03       		.byte	0x3
 2286 0cc5 30       		.uleb128 0x30
 2287 0cc6 8D040000 		.4byte	.LASF120
 2288 0cca 03       		.byte	0x3
 2289 0ccb EB01     		.2byte	0x1eb
 2290 0ccd 1B       		.byte	0x1b
 2291 0cce 03       		.byte	0x3
 2292 0ccf E10C0000 		.4byte	0xce1
 2293 0cd3 32       		.uleb128 0x32
 2294 0cd4 F8000000 		.4byte	.LASF121
 2295 0cd8 03       		.byte	0x3
 2296 0cd9 EB01     		.2byte	0x1eb
 2297 0cdb 32       		.byte	0x32
 2298 0cdc BA000000 		.4byte	0xba
 2299 0ce0 00       		.byte	0
 2300 0ce1 33       		.uleb128 0x33
 2301 0ce2 55010000 		.4byte	.LASF123
 2302 0ce6 06       		.byte	0x6
 2303 0ce7 1801     		.2byte	0x118
 2304 0ce9 1B       		.byte	0x1b
 2305 0cea B3030000 		.4byte	0x3b3
 2306 0cee 03       		.byte	0x3
 2307 0cef 0B0D0000 		.4byte	0xd0b
 2308 0cf3 34       		.uleb128 0x34
 2309 0cf4 717000   		.ascii	"qp\000"
 2310 0cf7 06       		.byte	0x6
 2311 0cf8 1801     		.2byte	0x118
 2312 0cfa 3C       		.byte	0x3c
 2313 0cfb B3030000 		.4byte	0x3b3
 2314 0cff 35       		.uleb128 0x35
 2315 0d00 7000     		.ascii	"p\000"
 2316 0d02 06       		.byte	0x6
 2317 0d03 1901     		.2byte	0x119
 2318 0d05 0F       		.byte	0xf
 2319 0d06 B3030000 		.4byte	0x3b3
 2320 0d0a 00       		.byte	0
 2321 0d0b 30       		.uleb128 0x30
 2322 0d0c 9C030000 		.4byte	.LASF124
 2323 0d10 06       		.byte	0x6
 2324 0d11 0601     		.2byte	0x106
 2325 0d13 14       		.byte	0x14
 2326 0d14 03       		.byte	0x3
 2327 0d15 310D0000 		.4byte	0xd31
 2328 0d19 34       		.uleb128 0x34
 2329 0d1a 717000   		.ascii	"qp\000"
 2330 0d1d 06       		.byte	0x6
 2331 0d1e 0601     		.2byte	0x106
 2332 0d20 30       		.byte	0x30
 2333 0d21 B3030000 		.4byte	0x3b3
 2334 0d25 34       		.uleb128 0x34
 2335 0d26 7000     		.ascii	"p\000"
 2336 0d28 06       		.byte	0x6
 2337 0d29 0601     		.2byte	0x106
ARM GAS  /tmp/cc4Q69ox.s 			page 42


 2338 0d2b 40       		.byte	0x40
 2339 0d2c B3030000 		.4byte	0x3b3
 2340 0d30 00       		.byte	0
 2341 0d31 36       		.uleb128 0x36
 2342 0d32 2C050000 		.4byte	.LASF125
 2343 0d36 2C050000 		.4byte	.LASF125
 2344 0d3a 12       		.byte	0x12
 2345 0d3b 9A       		.byte	0x9a
 2346 0d3c 08       		.byte	0x8
 2347 0d3d 36       		.uleb128 0x36
 2348 0d3e 3F060000 		.4byte	.LASF126
 2349 0d42 3F060000 		.4byte	.LASF126
 2350 0d46 12       		.byte	0x12
 2351 0d47 99       		.byte	0x99
 2352 0d48 09       		.byte	0x9
 2353 0d49 36       		.uleb128 0x36
 2354 0d4a 10040000 		.4byte	.LASF127
 2355 0d4e 10040000 		.4byte	.LASF127
 2356 0d52 12       		.byte	0x12
 2357 0d53 98       		.byte	0x98
 2358 0d54 08       		.byte	0x8
 2359 0d55 36       		.uleb128 0x36
 2360 0d56 39040000 		.4byte	.LASF128
 2361 0d5a 39040000 		.4byte	.LASF128
 2362 0d5e 12       		.byte	0x12
 2363 0d5f 97       		.byte	0x97
 2364 0d60 0D       		.byte	0xd
 2365 0d61 00       		.byte	0
 2366              		.section	.debug_abbrev,"",%progbits
 2367              	.Ldebug_abbrev0:
 2368 0000 01       		.uleb128 0x1
 2369 0001 11       		.uleb128 0x11
 2370 0002 01       		.byte	0x1
 2371 0003 25       		.uleb128 0x25
 2372 0004 0E       		.uleb128 0xe
 2373 0005 13       		.uleb128 0x13
 2374 0006 0B       		.uleb128 0xb
 2375 0007 03       		.uleb128 0x3
 2376 0008 0E       		.uleb128 0xe
 2377 0009 1B       		.uleb128 0x1b
 2378 000a 0E       		.uleb128 0xe
 2379 000b 55       		.uleb128 0x55
 2380 000c 17       		.uleb128 0x17
 2381 000d 11       		.uleb128 0x11
 2382 000e 01       		.uleb128 0x1
 2383 000f 10       		.uleb128 0x10
 2384 0010 17       		.uleb128 0x17
 2385 0011 00       		.byte	0
 2386 0012 00       		.byte	0
 2387 0013 02       		.uleb128 0x2
 2388 0014 24       		.uleb128 0x24
 2389 0015 00       		.byte	0
 2390 0016 0B       		.uleb128 0xb
 2391 0017 0B       		.uleb128 0xb
 2392 0018 3E       		.uleb128 0x3e
 2393 0019 0B       		.uleb128 0xb
 2394 001a 03       		.uleb128 0x3
ARM GAS  /tmp/cc4Q69ox.s 			page 43


 2395 001b 08       		.uleb128 0x8
 2396 001c 00       		.byte	0
 2397 001d 00       		.byte	0
 2398 001e 03       		.uleb128 0x3
 2399 001f 24       		.uleb128 0x24
 2400 0020 00       		.byte	0
 2401 0021 0B       		.uleb128 0xb
 2402 0022 0B       		.uleb128 0xb
 2403 0023 3E       		.uleb128 0x3e
 2404 0024 0B       		.uleb128 0xb
 2405 0025 03       		.uleb128 0x3
 2406 0026 0E       		.uleb128 0xe
 2407 0027 00       		.byte	0
 2408 0028 00       		.byte	0
 2409 0029 04       		.uleb128 0x4
 2410 002a 16       		.uleb128 0x16
 2411 002b 00       		.byte	0
 2412 002c 03       		.uleb128 0x3
 2413 002d 0E       		.uleb128 0xe
 2414 002e 3A       		.uleb128 0x3a
 2415 002f 0B       		.uleb128 0xb
 2416 0030 3B       		.uleb128 0x3b
 2417 0031 0B       		.uleb128 0xb
 2418 0032 39       		.uleb128 0x39
 2419 0033 0B       		.uleb128 0xb
 2420 0034 49       		.uleb128 0x49
 2421 0035 13       		.uleb128 0x13
 2422 0036 00       		.byte	0
 2423 0037 00       		.byte	0
 2424 0038 05       		.uleb128 0x5
 2425 0039 35       		.uleb128 0x35
 2426 003a 00       		.byte	0
 2427 003b 49       		.uleb128 0x49
 2428 003c 13       		.uleb128 0x13
 2429 003d 00       		.byte	0
 2430 003e 00       		.byte	0
 2431 003f 06       		.uleb128 0x6
 2432 0040 13       		.uleb128 0x13
 2433 0041 01       		.byte	0x1
 2434 0042 03       		.uleb128 0x3
 2435 0043 0E       		.uleb128 0xe
 2436 0044 0B       		.uleb128 0xb
 2437 0045 0B       		.uleb128 0xb
 2438 0046 3A       		.uleb128 0x3a
 2439 0047 0B       		.uleb128 0xb
 2440 0048 3B       		.uleb128 0x3b
 2441 0049 0B       		.uleb128 0xb
 2442 004a 39       		.uleb128 0x39
 2443 004b 0B       		.uleb128 0xb
 2444 004c 01       		.uleb128 0x1
 2445 004d 13       		.uleb128 0x13
 2446 004e 00       		.byte	0
 2447 004f 00       		.byte	0
 2448 0050 07       		.uleb128 0x7
 2449 0051 0D       		.uleb128 0xd
 2450 0052 00       		.byte	0
 2451 0053 03       		.uleb128 0x3
ARM GAS  /tmp/cc4Q69ox.s 			page 44


 2452 0054 08       		.uleb128 0x8
 2453 0055 3A       		.uleb128 0x3a
 2454 0056 0B       		.uleb128 0xb
 2455 0057 3B       		.uleb128 0x3b
 2456 0058 0B       		.uleb128 0xb
 2457 0059 39       		.uleb128 0x39
 2458 005a 0B       		.uleb128 0xb
 2459 005b 49       		.uleb128 0x49
 2460 005c 13       		.uleb128 0x13
 2461 005d 38       		.uleb128 0x38
 2462 005e 0B       		.uleb128 0xb
 2463 005f 00       		.byte	0
 2464 0060 00       		.byte	0
 2465 0061 08       		.uleb128 0x8
 2466 0062 0D       		.uleb128 0xd
 2467 0063 00       		.byte	0
 2468 0064 03       		.uleb128 0x3
 2469 0065 0E       		.uleb128 0xe
 2470 0066 3A       		.uleb128 0x3a
 2471 0067 0B       		.uleb128 0xb
 2472 0068 3B       		.uleb128 0x3b
 2473 0069 0B       		.uleb128 0xb
 2474 006a 39       		.uleb128 0x39
 2475 006b 0B       		.uleb128 0xb
 2476 006c 49       		.uleb128 0x49
 2477 006d 13       		.uleb128 0x13
 2478 006e 38       		.uleb128 0x38
 2479 006f 0B       		.uleb128 0xb
 2480 0070 00       		.byte	0
 2481 0071 00       		.byte	0
 2482 0072 09       		.uleb128 0x9
 2483 0073 0D       		.uleb128 0xd
 2484 0074 00       		.byte	0
 2485 0075 03       		.uleb128 0x3
 2486 0076 08       		.uleb128 0x8
 2487 0077 3A       		.uleb128 0x3a
 2488 0078 0B       		.uleb128 0xb
 2489 0079 3B       		.uleb128 0x3b
 2490 007a 05       		.uleb128 0x5
 2491 007b 39       		.uleb128 0x39
 2492 007c 0B       		.uleb128 0xb
 2493 007d 49       		.uleb128 0x49
 2494 007e 13       		.uleb128 0x13
 2495 007f 38       		.uleb128 0x38
 2496 0080 0B       		.uleb128 0xb
 2497 0081 00       		.byte	0
 2498 0082 00       		.byte	0
 2499 0083 0A       		.uleb128 0xa
 2500 0084 0D       		.uleb128 0xd
 2501 0085 00       		.byte	0
 2502 0086 03       		.uleb128 0x3
 2503 0087 0E       		.uleb128 0xe
 2504 0088 3A       		.uleb128 0x3a
 2505 0089 0B       		.uleb128 0xb
 2506 008a 3B       		.uleb128 0x3b
 2507 008b 05       		.uleb128 0x5
 2508 008c 39       		.uleb128 0x39
ARM GAS  /tmp/cc4Q69ox.s 			page 45


 2509 008d 0B       		.uleb128 0xb
 2510 008e 49       		.uleb128 0x49
 2511 008f 13       		.uleb128 0x13
 2512 0090 38       		.uleb128 0x38
 2513 0091 0B       		.uleb128 0xb
 2514 0092 00       		.byte	0
 2515 0093 00       		.byte	0
 2516 0094 0B       		.uleb128 0xb
 2517 0095 13       		.uleb128 0x13
 2518 0096 01       		.byte	0x1
 2519 0097 03       		.uleb128 0x3
 2520 0098 0E       		.uleb128 0xe
 2521 0099 0B       		.uleb128 0xb
 2522 009a 0B       		.uleb128 0xb
 2523 009b 3A       		.uleb128 0x3a
 2524 009c 0B       		.uleb128 0xb
 2525 009d 3B       		.uleb128 0x3b
 2526 009e 05       		.uleb128 0x5
 2527 009f 39       		.uleb128 0x39
 2528 00a0 0B       		.uleb128 0xb
 2529 00a1 01       		.uleb128 0x1
 2530 00a2 13       		.uleb128 0x13
 2531 00a3 00       		.byte	0
 2532 00a4 00       		.byte	0
 2533 00a5 0C       		.uleb128 0xc
 2534 00a6 0F       		.uleb128 0xf
 2535 00a7 00       		.byte	0
 2536 00a8 0B       		.uleb128 0xb
 2537 00a9 0B       		.uleb128 0xb
 2538 00aa 49       		.uleb128 0x49
 2539 00ab 13       		.uleb128 0x13
 2540 00ac 00       		.byte	0
 2541 00ad 00       		.byte	0
 2542 00ae 0D       		.uleb128 0xd
 2543 00af 26       		.uleb128 0x26
 2544 00b0 00       		.byte	0
 2545 00b1 49       		.uleb128 0x49
 2546 00b2 13       		.uleb128 0x13
 2547 00b3 00       		.byte	0
 2548 00b4 00       		.byte	0
 2549 00b5 0E       		.uleb128 0xe
 2550 00b6 0F       		.uleb128 0xf
 2551 00b7 00       		.byte	0
 2552 00b8 0B       		.uleb128 0xb
 2553 00b9 0B       		.uleb128 0xb
 2554 00ba 00       		.byte	0
 2555 00bb 00       		.byte	0
 2556 00bc 0F       		.uleb128 0xf
 2557 00bd 17       		.uleb128 0x17
 2558 00be 01       		.byte	0x1
 2559 00bf 0B       		.uleb128 0xb
 2560 00c0 0B       		.uleb128 0xb
 2561 00c1 3A       		.uleb128 0x3a
 2562 00c2 0B       		.uleb128 0xb
 2563 00c3 3B       		.uleb128 0x3b
 2564 00c4 0B       		.uleb128 0xb
 2565 00c5 39       		.uleb128 0x39
ARM GAS  /tmp/cc4Q69ox.s 			page 46


 2566 00c6 0B       		.uleb128 0xb
 2567 00c7 01       		.uleb128 0x1
 2568 00c8 13       		.uleb128 0x13
 2569 00c9 00       		.byte	0
 2570 00ca 00       		.byte	0
 2571 00cb 10       		.uleb128 0x10
 2572 00cc 0D       		.uleb128 0xd
 2573 00cd 00       		.byte	0
 2574 00ce 03       		.uleb128 0x3
 2575 00cf 0E       		.uleb128 0xe
 2576 00d0 3A       		.uleb128 0x3a
 2577 00d1 0B       		.uleb128 0xb
 2578 00d2 3B       		.uleb128 0x3b
 2579 00d3 0B       		.uleb128 0xb
 2580 00d4 39       		.uleb128 0x39
 2581 00d5 0B       		.uleb128 0xb
 2582 00d6 49       		.uleb128 0x49
 2583 00d7 13       		.uleb128 0x13
 2584 00d8 00       		.byte	0
 2585 00d9 00       		.byte	0
 2586 00da 11       		.uleb128 0x11
 2587 00db 0D       		.uleb128 0xd
 2588 00dc 00       		.byte	0
 2589 00dd 03       		.uleb128 0x3
 2590 00de 0E       		.uleb128 0xe
 2591 00df 3A       		.uleb128 0x3a
 2592 00e0 0B       		.uleb128 0xb
 2593 00e1 3B       		.uleb128 0x3b
 2594 00e2 05       		.uleb128 0x5
 2595 00e3 39       		.uleb128 0x39
 2596 00e4 0B       		.uleb128 0xb
 2597 00e5 49       		.uleb128 0x49
 2598 00e6 13       		.uleb128 0x13
 2599 00e7 00       		.byte	0
 2600 00e8 00       		.byte	0
 2601 00e9 12       		.uleb128 0x12
 2602 00ea 16       		.uleb128 0x16
 2603 00eb 00       		.byte	0
 2604 00ec 03       		.uleb128 0x3
 2605 00ed 0E       		.uleb128 0xe
 2606 00ee 3A       		.uleb128 0x3a
 2607 00ef 0B       		.uleb128 0xb
 2608 00f0 3B       		.uleb128 0x3b
 2609 00f1 05       		.uleb128 0x5
 2610 00f2 39       		.uleb128 0x39
 2611 00f3 0B       		.uleb128 0xb
 2612 00f4 49       		.uleb128 0x49
 2613 00f5 13       		.uleb128 0x13
 2614 00f6 00       		.byte	0
 2615 00f7 00       		.byte	0
 2616 00f8 13       		.uleb128 0x13
 2617 00f9 34       		.uleb128 0x34
 2618 00fa 00       		.byte	0
 2619 00fb 03       		.uleb128 0x3
 2620 00fc 08       		.uleb128 0x8
 2621 00fd 3A       		.uleb128 0x3a
 2622 00fe 0B       		.uleb128 0xb
ARM GAS  /tmp/cc4Q69ox.s 			page 47


 2623 00ff 3B       		.uleb128 0x3b
 2624 0100 05       		.uleb128 0x5
 2625 0101 39       		.uleb128 0x39
 2626 0102 0B       		.uleb128 0xb
 2627 0103 49       		.uleb128 0x49
 2628 0104 13       		.uleb128 0x13
 2629 0105 3F       		.uleb128 0x3f
 2630 0106 19       		.uleb128 0x19
 2631 0107 3C       		.uleb128 0x3c
 2632 0108 19       		.uleb128 0x19
 2633 0109 00       		.byte	0
 2634 010a 00       		.byte	0
 2635 010b 14       		.uleb128 0x14
 2636 010c 2E       		.uleb128 0x2e
 2637 010d 01       		.byte	0x1
 2638 010e 3F       		.uleb128 0x3f
 2639 010f 19       		.uleb128 0x19
 2640 0110 03       		.uleb128 0x3
 2641 0111 0E       		.uleb128 0xe
 2642 0112 3A       		.uleb128 0x3a
 2643 0113 0B       		.uleb128 0xb
 2644 0114 3B       		.uleb128 0x3b
 2645 0115 0B       		.uleb128 0xb
 2646 0116 39       		.uleb128 0x39
 2647 0117 0B       		.uleb128 0xb
 2648 0118 27       		.uleb128 0x27
 2649 0119 19       		.uleb128 0x19
 2650 011a 11       		.uleb128 0x11
 2651 011b 01       		.uleb128 0x1
 2652 011c 12       		.uleb128 0x12
 2653 011d 06       		.uleb128 0x6
 2654 011e 40       		.uleb128 0x40
 2655 011f 18       		.uleb128 0x18
 2656 0120 9742     		.uleb128 0x2117
 2657 0122 19       		.uleb128 0x19
 2658 0123 01       		.uleb128 0x1
 2659 0124 13       		.uleb128 0x13
 2660 0125 00       		.byte	0
 2661 0126 00       		.byte	0
 2662 0127 15       		.uleb128 0x15
 2663 0128 05       		.uleb128 0x5
 2664 0129 00       		.byte	0
 2665 012a 03       		.uleb128 0x3
 2666 012b 08       		.uleb128 0x8
 2667 012c 3A       		.uleb128 0x3a
 2668 012d 0B       		.uleb128 0xb
 2669 012e 3B       		.uleb128 0x3b
 2670 012f 0B       		.uleb128 0xb
 2671 0130 39       		.uleb128 0x39
 2672 0131 0B       		.uleb128 0xb
 2673 0132 49       		.uleb128 0x49
 2674 0133 13       		.uleb128 0x13
 2675 0134 02       		.uleb128 0x2
 2676 0135 17       		.uleb128 0x17
 2677 0136 B742     		.uleb128 0x2137
 2678 0138 17       		.uleb128 0x17
 2679 0139 00       		.byte	0
ARM GAS  /tmp/cc4Q69ox.s 			page 48


 2680 013a 00       		.byte	0
 2681 013b 16       		.uleb128 0x16
 2682 013c 34       		.uleb128 0x34
 2683 013d 00       		.byte	0
 2684 013e 03       		.uleb128 0x3
 2685 013f 0E       		.uleb128 0xe
 2686 0140 49       		.uleb128 0x49
 2687 0141 13       		.uleb128 0x13
 2688 0142 34       		.uleb128 0x34
 2689 0143 19       		.uleb128 0x19
 2690 0144 00       		.byte	0
 2691 0145 00       		.byte	0
 2692 0146 17       		.uleb128 0x17
 2693 0147 1D       		.uleb128 0x1d
 2694 0148 01       		.byte	0x1
 2695 0149 31       		.uleb128 0x31
 2696 014a 13       		.uleb128 0x13
 2697 014b 52       		.uleb128 0x52
 2698 014c 01       		.uleb128 0x1
 2699 014d B842     		.uleb128 0x2138
 2700 014f 0B       		.uleb128 0xb
 2701 0150 55       		.uleb128 0x55
 2702 0151 17       		.uleb128 0x17
 2703 0152 58       		.uleb128 0x58
 2704 0153 0B       		.uleb128 0xb
 2705 0154 59       		.uleb128 0x59
 2706 0155 0B       		.uleb128 0xb
 2707 0156 57       		.uleb128 0x57
 2708 0157 0B       		.uleb128 0xb
 2709 0158 01       		.uleb128 0x1
 2710 0159 13       		.uleb128 0x13
 2711 015a 00       		.byte	0
 2712 015b 00       		.byte	0
 2713 015c 18       		.uleb128 0x18
 2714 015d 1D       		.uleb128 0x1d
 2715 015e 01       		.byte	0x1
 2716 015f 31       		.uleb128 0x31
 2717 0160 13       		.uleb128 0x13
 2718 0161 52       		.uleb128 0x52
 2719 0162 01       		.uleb128 0x1
 2720 0163 B842     		.uleb128 0x2138
 2721 0165 0B       		.uleb128 0xb
 2722 0166 55       		.uleb128 0x55
 2723 0167 17       		.uleb128 0x17
 2724 0168 58       		.uleb128 0x58
 2725 0169 0B       		.uleb128 0xb
 2726 016a 59       		.uleb128 0x59
 2727 016b 05       		.uleb128 0x5
 2728 016c 57       		.uleb128 0x57
 2729 016d 0B       		.uleb128 0xb
 2730 016e 00       		.byte	0
 2731 016f 00       		.byte	0
 2732 0170 19       		.uleb128 0x19
 2733 0171 05       		.uleb128 0x5
 2734 0172 00       		.byte	0
 2735 0173 31       		.uleb128 0x31
 2736 0174 13       		.uleb128 0x13
ARM GAS  /tmp/cc4Q69ox.s 			page 49


 2737 0175 02       		.uleb128 0x2
 2738 0176 17       		.uleb128 0x17
 2739 0177 B742     		.uleb128 0x2137
 2740 0179 17       		.uleb128 0x17
 2741 017a 00       		.byte	0
 2742 017b 00       		.byte	0
 2743 017c 1A       		.uleb128 0x1a
 2744 017d 1D       		.uleb128 0x1d
 2745 017e 01       		.byte	0x1
 2746 017f 31       		.uleb128 0x31
 2747 0180 13       		.uleb128 0x13
 2748 0181 52       		.uleb128 0x52
 2749 0182 01       		.uleb128 0x1
 2750 0183 B842     		.uleb128 0x2138
 2751 0185 0B       		.uleb128 0xb
 2752 0186 11       		.uleb128 0x11
 2753 0187 01       		.uleb128 0x1
 2754 0188 12       		.uleb128 0x12
 2755 0189 06       		.uleb128 0x6
 2756 018a 58       		.uleb128 0x58
 2757 018b 0B       		.uleb128 0xb
 2758 018c 59       		.uleb128 0x59
 2759 018d 0B       		.uleb128 0xb
 2760 018e 57       		.uleb128 0x57
 2761 018f 0B       		.uleb128 0xb
 2762 0190 01       		.uleb128 0x1
 2763 0191 13       		.uleb128 0x13
 2764 0192 00       		.byte	0
 2765 0193 00       		.byte	0
 2766 0194 1B       		.uleb128 0x1b
 2767 0195 898201   		.uleb128 0x4109
 2768 0198 01       		.byte	0x1
 2769 0199 11       		.uleb128 0x11
 2770 019a 01       		.uleb128 0x1
 2771 019b 31       		.uleb128 0x31
 2772 019c 13       		.uleb128 0x13
 2773 019d 00       		.byte	0
 2774 019e 00       		.byte	0
 2775 019f 1C       		.uleb128 0x1c
 2776 01a0 8A8201   		.uleb128 0x410a
 2777 01a3 00       		.byte	0
 2778 01a4 02       		.uleb128 0x2
 2779 01a5 18       		.uleb128 0x18
 2780 01a6 9142     		.uleb128 0x2111
 2781 01a8 18       		.uleb128 0x18
 2782 01a9 00       		.byte	0
 2783 01aa 00       		.byte	0
 2784 01ab 1D       		.uleb128 0x1d
 2785 01ac 1D       		.uleb128 0x1d
 2786 01ad 01       		.byte	0x1
 2787 01ae 31       		.uleb128 0x31
 2788 01af 13       		.uleb128 0x13
 2789 01b0 52       		.uleb128 0x52
 2790 01b1 01       		.uleb128 0x1
 2791 01b2 B842     		.uleb128 0x2138
 2792 01b4 0B       		.uleb128 0xb
 2793 01b5 55       		.uleb128 0x55
ARM GAS  /tmp/cc4Q69ox.s 			page 50


 2794 01b6 17       		.uleb128 0x17
 2795 01b7 58       		.uleb128 0x58
 2796 01b8 0B       		.uleb128 0xb
 2797 01b9 59       		.uleb128 0x59
 2798 01ba 0B       		.uleb128 0xb
 2799 01bb 57       		.uleb128 0x57
 2800 01bc 0B       		.uleb128 0xb
 2801 01bd 00       		.byte	0
 2802 01be 00       		.byte	0
 2803 01bf 1E       		.uleb128 0x1e
 2804 01c0 0B       		.uleb128 0xb
 2805 01c1 01       		.byte	0x1
 2806 01c2 55       		.uleb128 0x55
 2807 01c3 17       		.uleb128 0x17
 2808 01c4 00       		.byte	0
 2809 01c5 00       		.byte	0
 2810 01c6 1F       		.uleb128 0x1f
 2811 01c7 1D       		.uleb128 0x1d
 2812 01c8 01       		.byte	0x1
 2813 01c9 31       		.uleb128 0x31
 2814 01ca 13       		.uleb128 0x13
 2815 01cb 52       		.uleb128 0x52
 2816 01cc 01       		.uleb128 0x1
 2817 01cd B842     		.uleb128 0x2138
 2818 01cf 0B       		.uleb128 0xb
 2819 01d0 11       		.uleb128 0x11
 2820 01d1 01       		.uleb128 0x1
 2821 01d2 12       		.uleb128 0x12
 2822 01d3 06       		.uleb128 0x6
 2823 01d4 58       		.uleb128 0x58
 2824 01d5 0B       		.uleb128 0xb
 2825 01d6 59       		.uleb128 0x59
 2826 01d7 05       		.uleb128 0x5
 2827 01d8 57       		.uleb128 0x57
 2828 01d9 0B       		.uleb128 0xb
 2829 01da 00       		.byte	0
 2830 01db 00       		.byte	0
 2831 01dc 20       		.uleb128 0x20
 2832 01dd 01       		.uleb128 0x1
 2833 01de 01       		.byte	0x1
 2834 01df 49       		.uleb128 0x49
 2835 01e0 13       		.uleb128 0x13
 2836 01e1 01       		.uleb128 0x1
 2837 01e2 13       		.uleb128 0x13
 2838 01e3 00       		.byte	0
 2839 01e4 00       		.byte	0
 2840 01e5 21       		.uleb128 0x21
 2841 01e6 21       		.uleb128 0x21
 2842 01e7 00       		.byte	0
 2843 01e8 49       		.uleb128 0x49
 2844 01e9 13       		.uleb128 0x13
 2845 01ea 2F       		.uleb128 0x2f
 2846 01eb 0B       		.uleb128 0xb
 2847 01ec 00       		.byte	0
 2848 01ed 00       		.byte	0
 2849 01ee 22       		.uleb128 0x22
 2850 01ef 2E       		.uleb128 0x2e
ARM GAS  /tmp/cc4Q69ox.s 			page 51


 2851 01f0 01       		.byte	0x1
 2852 01f1 3F       		.uleb128 0x3f
 2853 01f2 19       		.uleb128 0x19
 2854 01f3 03       		.uleb128 0x3
 2855 01f4 0E       		.uleb128 0xe
 2856 01f5 3A       		.uleb128 0x3a
 2857 01f6 0B       		.uleb128 0xb
 2858 01f7 3B       		.uleb128 0x3b
 2859 01f8 0B       		.uleb128 0xb
 2860 01f9 39       		.uleb128 0x39
 2861 01fa 0B       		.uleb128 0xb
 2862 01fb 27       		.uleb128 0x27
 2863 01fc 19       		.uleb128 0x19
 2864 01fd 49       		.uleb128 0x49
 2865 01fe 13       		.uleb128 0x13
 2866 01ff 11       		.uleb128 0x11
 2867 0200 01       		.uleb128 0x1
 2868 0201 12       		.uleb128 0x12
 2869 0202 06       		.uleb128 0x6
 2870 0203 40       		.uleb128 0x40
 2871 0204 18       		.uleb128 0x18
 2872 0205 9742     		.uleb128 0x2117
 2873 0207 19       		.uleb128 0x19
 2874 0208 01       		.uleb128 0x1
 2875 0209 13       		.uleb128 0x13
 2876 020a 00       		.byte	0
 2877 020b 00       		.byte	0
 2878 020c 23       		.uleb128 0x23
 2879 020d 34       		.uleb128 0x34
 2880 020e 00       		.byte	0
 2881 020f 03       		.uleb128 0x3
 2882 0210 0E       		.uleb128 0xe
 2883 0211 3A       		.uleb128 0x3a
 2884 0212 0B       		.uleb128 0xb
 2885 0213 3B       		.uleb128 0x3b
 2886 0214 0B       		.uleb128 0xb
 2887 0215 39       		.uleb128 0x39
 2888 0216 0B       		.uleb128 0xb
 2889 0217 49       		.uleb128 0x49
 2890 0218 13       		.uleb128 0x13
 2891 0219 02       		.uleb128 0x2
 2892 021a 17       		.uleb128 0x17
 2893 021b B742     		.uleb128 0x2137
 2894 021d 17       		.uleb128 0x17
 2895 021e 00       		.byte	0
 2896 021f 00       		.byte	0
 2897 0220 24       		.uleb128 0x24
 2898 0221 34       		.uleb128 0x34
 2899 0222 00       		.byte	0
 2900 0223 03       		.uleb128 0x3
 2901 0224 08       		.uleb128 0x8
 2902 0225 3A       		.uleb128 0x3a
 2903 0226 0B       		.uleb128 0xb
 2904 0227 3B       		.uleb128 0x3b
 2905 0228 0B       		.uleb128 0xb
 2906 0229 39       		.uleb128 0x39
 2907 022a 0B       		.uleb128 0xb
ARM GAS  /tmp/cc4Q69ox.s 			page 52


 2908 022b 49       		.uleb128 0x49
 2909 022c 13       		.uleb128 0x13
 2910 022d 02       		.uleb128 0x2
 2911 022e 17       		.uleb128 0x17
 2912 022f B742     		.uleb128 0x2137
 2913 0231 17       		.uleb128 0x17
 2914 0232 00       		.byte	0
 2915 0233 00       		.byte	0
 2916 0234 25       		.uleb128 0x25
 2917 0235 1D       		.uleb128 0x1d
 2918 0236 00       		.byte	0
 2919 0237 31       		.uleb128 0x31
 2920 0238 13       		.uleb128 0x13
 2921 0239 52       		.uleb128 0x52
 2922 023a 01       		.uleb128 0x1
 2923 023b B842     		.uleb128 0x2138
 2924 023d 0B       		.uleb128 0xb
 2925 023e 11       		.uleb128 0x11
 2926 023f 01       		.uleb128 0x1
 2927 0240 12       		.uleb128 0x12
 2928 0241 06       		.uleb128 0x6
 2929 0242 58       		.uleb128 0x58
 2930 0243 0B       		.uleb128 0xb
 2931 0244 59       		.uleb128 0x59
 2932 0245 0B       		.uleb128 0xb
 2933 0246 57       		.uleb128 0x57
 2934 0247 0B       		.uleb128 0xb
 2935 0248 00       		.byte	0
 2936 0249 00       		.byte	0
 2937 024a 26       		.uleb128 0x26
 2938 024b 34       		.uleb128 0x34
 2939 024c 00       		.byte	0
 2940 024d 31       		.uleb128 0x31
 2941 024e 13       		.uleb128 0x13
 2942 024f 02       		.uleb128 0x2
 2943 0250 17       		.uleb128 0x17
 2944 0251 B742     		.uleb128 0x2137
 2945 0253 17       		.uleb128 0x17
 2946 0254 00       		.byte	0
 2947 0255 00       		.byte	0
 2948 0256 27       		.uleb128 0x27
 2949 0257 05       		.uleb128 0x5
 2950 0258 00       		.byte	0
 2951 0259 03       		.uleb128 0x3
 2952 025a 0E       		.uleb128 0xe
 2953 025b 3A       		.uleb128 0x3a
 2954 025c 0B       		.uleb128 0xb
 2955 025d 3B       		.uleb128 0x3b
 2956 025e 0B       		.uleb128 0xb
 2957 025f 39       		.uleb128 0x39
 2958 0260 0B       		.uleb128 0xb
 2959 0261 49       		.uleb128 0x49
 2960 0262 13       		.uleb128 0x13
 2961 0263 02       		.uleb128 0x2
 2962 0264 17       		.uleb128 0x17
 2963 0265 B742     		.uleb128 0x2137
 2964 0267 17       		.uleb128 0x17
ARM GAS  /tmp/cc4Q69ox.s 			page 53


 2965 0268 00       		.byte	0
 2966 0269 00       		.byte	0
 2967 026a 28       		.uleb128 0x28
 2968 026b 34       		.uleb128 0x34
 2969 026c 00       		.byte	0
 2970 026d 03       		.uleb128 0x3
 2971 026e 08       		.uleb128 0x8
 2972 026f 3A       		.uleb128 0x3a
 2973 0270 0B       		.uleb128 0xb
 2974 0271 3B       		.uleb128 0x3b
 2975 0272 0B       		.uleb128 0xb
 2976 0273 39       		.uleb128 0x39
 2977 0274 0B       		.uleb128 0xb
 2978 0275 49       		.uleb128 0x49
 2979 0276 13       		.uleb128 0x13
 2980 0277 00       		.byte	0
 2981 0278 00       		.byte	0
 2982 0279 29       		.uleb128 0x29
 2983 027a 1D       		.uleb128 0x1d
 2984 027b 00       		.byte	0
 2985 027c 31       		.uleb128 0x31
 2986 027d 13       		.uleb128 0x13
 2987 027e 52       		.uleb128 0x52
 2988 027f 01       		.uleb128 0x1
 2989 0280 B842     		.uleb128 0x2138
 2990 0282 0B       		.uleb128 0xb
 2991 0283 55       		.uleb128 0x55
 2992 0284 17       		.uleb128 0x17
 2993 0285 58       		.uleb128 0x58
 2994 0286 0B       		.uleb128 0xb
 2995 0287 59       		.uleb128 0x59
 2996 0288 0B       		.uleb128 0xb
 2997 0289 57       		.uleb128 0x57
 2998 028a 0B       		.uleb128 0xb
 2999 028b 00       		.byte	0
 3000 028c 00       		.byte	0
 3001 028d 2A       		.uleb128 0x2a
 3002 028e 898201   		.uleb128 0x4109
 3003 0291 01       		.byte	0x1
 3004 0292 11       		.uleb128 0x11
 3005 0293 01       		.uleb128 0x1
 3006 0294 31       		.uleb128 0x31
 3007 0295 13       		.uleb128 0x13
 3008 0296 01       		.uleb128 0x1
 3009 0297 13       		.uleb128 0x13
 3010 0298 00       		.byte	0
 3011 0299 00       		.byte	0
 3012 029a 2B       		.uleb128 0x2b
 3013 029b 898201   		.uleb128 0x4109
 3014 029e 00       		.byte	0
 3015 029f 11       		.uleb128 0x11
 3016 02a0 01       		.uleb128 0x1
 3017 02a1 31       		.uleb128 0x31
 3018 02a2 13       		.uleb128 0x13
 3019 02a3 00       		.byte	0
 3020 02a4 00       		.byte	0
 3021 02a5 2C       		.uleb128 0x2c
ARM GAS  /tmp/cc4Q69ox.s 			page 54


 3022 02a6 2E       		.uleb128 0x2e
 3023 02a7 01       		.byte	0x1
 3024 02a8 03       		.uleb128 0x3
 3025 02a9 0E       		.uleb128 0xe
 3026 02aa 3A       		.uleb128 0x3a
 3027 02ab 0B       		.uleb128 0xb
 3028 02ac 3B       		.uleb128 0x3b
 3029 02ad 0B       		.uleb128 0xb
 3030 02ae 39       		.uleb128 0x39
 3031 02af 0B       		.uleb128 0xb
 3032 02b0 27       		.uleb128 0x27
 3033 02b1 19       		.uleb128 0x19
 3034 02b2 20       		.uleb128 0x20
 3035 02b3 0B       		.uleb128 0xb
 3036 02b4 01       		.uleb128 0x1
 3037 02b5 13       		.uleb128 0x13
 3038 02b6 00       		.byte	0
 3039 02b7 00       		.byte	0
 3040 02b8 2D       		.uleb128 0x2d
 3041 02b9 05       		.uleb128 0x5
 3042 02ba 00       		.byte	0
 3043 02bb 03       		.uleb128 0x3
 3044 02bc 08       		.uleb128 0x8
 3045 02bd 3A       		.uleb128 0x3a
 3046 02be 0B       		.uleb128 0xb
 3047 02bf 3B       		.uleb128 0x3b
 3048 02c0 0B       		.uleb128 0xb
 3049 02c1 39       		.uleb128 0x39
 3050 02c2 0B       		.uleb128 0xb
 3051 02c3 49       		.uleb128 0x49
 3052 02c4 13       		.uleb128 0x13
 3053 02c5 00       		.byte	0
 3054 02c6 00       		.byte	0
 3055 02c7 2E       		.uleb128 0x2e
 3056 02c8 2E       		.uleb128 0x2e
 3057 02c9 01       		.byte	0x1
 3058 02ca 03       		.uleb128 0x3
 3059 02cb 0E       		.uleb128 0xe
 3060 02cc 3A       		.uleb128 0x3a
 3061 02cd 0B       		.uleb128 0xb
 3062 02ce 3B       		.uleb128 0x3b
 3063 02cf 0B       		.uleb128 0xb
 3064 02d0 39       		.uleb128 0x39
 3065 02d1 0B       		.uleb128 0xb
 3066 02d2 27       		.uleb128 0x27
 3067 02d3 19       		.uleb128 0x19
 3068 02d4 49       		.uleb128 0x49
 3069 02d5 13       		.uleb128 0x13
 3070 02d6 20       		.uleb128 0x20
 3071 02d7 0B       		.uleb128 0xb
 3072 02d8 01       		.uleb128 0x1
 3073 02d9 13       		.uleb128 0x13
 3074 02da 00       		.byte	0
 3075 02db 00       		.byte	0
 3076 02dc 2F       		.uleb128 0x2f
 3077 02dd 2E       		.uleb128 0x2e
 3078 02de 00       		.byte	0
ARM GAS  /tmp/cc4Q69ox.s 			page 55


 3079 02df 03       		.uleb128 0x3
 3080 02e0 0E       		.uleb128 0xe
 3081 02e1 3A       		.uleb128 0x3a
 3082 02e2 0B       		.uleb128 0xb
 3083 02e3 3B       		.uleb128 0x3b
 3084 02e4 05       		.uleb128 0x5
 3085 02e5 39       		.uleb128 0x39
 3086 02e6 0B       		.uleb128 0xb
 3087 02e7 27       		.uleb128 0x27
 3088 02e8 19       		.uleb128 0x19
 3089 02e9 49       		.uleb128 0x49
 3090 02ea 13       		.uleb128 0x13
 3091 02eb 20       		.uleb128 0x20
 3092 02ec 0B       		.uleb128 0xb
 3093 02ed 00       		.byte	0
 3094 02ee 00       		.byte	0
 3095 02ef 30       		.uleb128 0x30
 3096 02f0 2E       		.uleb128 0x2e
 3097 02f1 01       		.byte	0x1
 3098 02f2 03       		.uleb128 0x3
 3099 02f3 0E       		.uleb128 0xe
 3100 02f4 3A       		.uleb128 0x3a
 3101 02f5 0B       		.uleb128 0xb
 3102 02f6 3B       		.uleb128 0x3b
 3103 02f7 05       		.uleb128 0x5
 3104 02f8 39       		.uleb128 0x39
 3105 02f9 0B       		.uleb128 0xb
 3106 02fa 27       		.uleb128 0x27
 3107 02fb 19       		.uleb128 0x19
 3108 02fc 20       		.uleb128 0x20
 3109 02fd 0B       		.uleb128 0xb
 3110 02fe 01       		.uleb128 0x1
 3111 02ff 13       		.uleb128 0x13
 3112 0300 00       		.byte	0
 3113 0301 00       		.byte	0
 3114 0302 31       		.uleb128 0x31
 3115 0303 2E       		.uleb128 0x2e
 3116 0304 00       		.byte	0
 3117 0305 03       		.uleb128 0x3
 3118 0306 0E       		.uleb128 0xe
 3119 0307 3A       		.uleb128 0x3a
 3120 0308 0B       		.uleb128 0xb
 3121 0309 3B       		.uleb128 0x3b
 3122 030a 05       		.uleb128 0x5
 3123 030b 39       		.uleb128 0x39
 3124 030c 0B       		.uleb128 0xb
 3125 030d 27       		.uleb128 0x27
 3126 030e 19       		.uleb128 0x19
 3127 030f 20       		.uleb128 0x20
 3128 0310 0B       		.uleb128 0xb
 3129 0311 00       		.byte	0
 3130 0312 00       		.byte	0
 3131 0313 32       		.uleb128 0x32
 3132 0314 05       		.uleb128 0x5
 3133 0315 00       		.byte	0
 3134 0316 03       		.uleb128 0x3
 3135 0317 0E       		.uleb128 0xe
ARM GAS  /tmp/cc4Q69ox.s 			page 56


 3136 0318 3A       		.uleb128 0x3a
 3137 0319 0B       		.uleb128 0xb
 3138 031a 3B       		.uleb128 0x3b
 3139 031b 05       		.uleb128 0x5
 3140 031c 39       		.uleb128 0x39
 3141 031d 0B       		.uleb128 0xb
 3142 031e 49       		.uleb128 0x49
 3143 031f 13       		.uleb128 0x13
 3144 0320 00       		.byte	0
 3145 0321 00       		.byte	0
 3146 0322 33       		.uleb128 0x33
 3147 0323 2E       		.uleb128 0x2e
 3148 0324 01       		.byte	0x1
 3149 0325 03       		.uleb128 0x3
 3150 0326 0E       		.uleb128 0xe
 3151 0327 3A       		.uleb128 0x3a
 3152 0328 0B       		.uleb128 0xb
 3153 0329 3B       		.uleb128 0x3b
 3154 032a 05       		.uleb128 0x5
 3155 032b 39       		.uleb128 0x39
 3156 032c 0B       		.uleb128 0xb
 3157 032d 27       		.uleb128 0x27
 3158 032e 19       		.uleb128 0x19
 3159 032f 49       		.uleb128 0x49
 3160 0330 13       		.uleb128 0x13
 3161 0331 20       		.uleb128 0x20
 3162 0332 0B       		.uleb128 0xb
 3163 0333 01       		.uleb128 0x1
 3164 0334 13       		.uleb128 0x13
 3165 0335 00       		.byte	0
 3166 0336 00       		.byte	0
 3167 0337 34       		.uleb128 0x34
 3168 0338 05       		.uleb128 0x5
 3169 0339 00       		.byte	0
 3170 033a 03       		.uleb128 0x3
 3171 033b 08       		.uleb128 0x8
 3172 033c 3A       		.uleb128 0x3a
 3173 033d 0B       		.uleb128 0xb
 3174 033e 3B       		.uleb128 0x3b
 3175 033f 05       		.uleb128 0x5
 3176 0340 39       		.uleb128 0x39
 3177 0341 0B       		.uleb128 0xb
 3178 0342 49       		.uleb128 0x49
 3179 0343 13       		.uleb128 0x13
 3180 0344 00       		.byte	0
 3181 0345 00       		.byte	0
 3182 0346 35       		.uleb128 0x35
 3183 0347 34       		.uleb128 0x34
 3184 0348 00       		.byte	0
 3185 0349 03       		.uleb128 0x3
 3186 034a 08       		.uleb128 0x8
 3187 034b 3A       		.uleb128 0x3a
 3188 034c 0B       		.uleb128 0xb
 3189 034d 3B       		.uleb128 0x3b
 3190 034e 05       		.uleb128 0x5
 3191 034f 39       		.uleb128 0x39
 3192 0350 0B       		.uleb128 0xb
ARM GAS  /tmp/cc4Q69ox.s 			page 57


 3193 0351 49       		.uleb128 0x49
 3194 0352 13       		.uleb128 0x13
 3195 0353 00       		.byte	0
 3196 0354 00       		.byte	0
 3197 0355 36       		.uleb128 0x36
 3198 0356 2E       		.uleb128 0x2e
 3199 0357 00       		.byte	0
 3200 0358 3F       		.uleb128 0x3f
 3201 0359 19       		.uleb128 0x19
 3202 035a 3C       		.uleb128 0x3c
 3203 035b 19       		.uleb128 0x19
 3204 035c 6E       		.uleb128 0x6e
 3205 035d 0E       		.uleb128 0xe
 3206 035e 03       		.uleb128 0x3
 3207 035f 0E       		.uleb128 0xe
 3208 0360 3A       		.uleb128 0x3a
 3209 0361 0B       		.uleb128 0xb
 3210 0362 3B       		.uleb128 0x3b
 3211 0363 0B       		.uleb128 0xb
 3212 0364 39       		.uleb128 0x39
 3213 0365 0B       		.uleb128 0xb
 3214 0366 00       		.byte	0
 3215 0367 00       		.byte	0
 3216 0368 00       		.byte	0
 3217              		.section	.debug_loc,"",%progbits
 3218              	.Ldebug_loc0:
 3219              	.LVUS21:
 3220 0000 00       		.uleb128 0
 3221 0001 00       		.uleb128 .LVU185
 3222 0002 00       		.uleb128 .LVU185
 3223 0003 00       		.uleb128 0
 3224              	.LLST21:
 3225 0004 00000000 		.4byte	.LVL32
 3226 0008 0B000000 		.4byte	.LVL34-1
 3227 000c 0100     		.2byte	0x1
 3228 000e 50       		.byte	0x50
 3229 000f 0B000000 		.4byte	.LVL34-1
 3230 0013 14000000 		.4byte	.LFE339
 3231 0017 0400     		.2byte	0x4
 3232 0019 F3       		.byte	0xf3
 3233 001a 01       		.uleb128 0x1
 3234 001b 50       		.byte	0x50
 3235 001c 9F       		.byte	0x9f
 3236 001d 00000000 		.4byte	0
 3237 0021 00000000 		.4byte	0
 3238              	.LVUS22:
 3239 0025 00       		.uleb128 0
 3240 0026 00       		.uleb128 .LVU185
 3241 0027 00       		.uleb128 .LVU185
 3242 0028 00       		.uleb128 0
 3243              	.LLST22:
 3244 0029 00000000 		.4byte	.LVL32
 3245 002d 0B000000 		.4byte	.LVL34-1
 3246 0031 0100     		.2byte	0x1
 3247 0033 51       		.byte	0x51
 3248 0034 0B000000 		.4byte	.LVL34-1
 3249 0038 14000000 		.4byte	.LFE339
ARM GAS  /tmp/cc4Q69ox.s 			page 58


 3250 003c 0400     		.2byte	0x4
 3251 003e F3       		.byte	0xf3
 3252 003f 01       		.uleb128 0x1
 3253 0040 51       		.byte	0x51
 3254 0041 9F       		.byte	0x9f
 3255 0042 00000000 		.4byte	0
 3256 0046 00000000 		.4byte	0
 3257              	.LVUS23:
 3258 004a 06       		.uleb128 .LVU171
 3259 004b 00       		.uleb128 .LVU175
 3260              	.LLST23:
 3261 004c 00000000 		.4byte	.LVL32
 3262 0050 08000000 		.4byte	.LVL33
 3263 0054 0300     		.2byte	0x3
 3264 0056 08       		.byte	0x8
 3265 0057 30       		.byte	0x30
 3266 0058 9F       		.byte	0x9f
 3267 0059 00000000 		.4byte	0
 3268 005d 00000000 		.4byte	0
 3269              	.LVUS24:
 3270 0061 07       		.uleb128 .LVU182
 3271 0062 00       		.uleb128 .LVU185
 3272 0063 00       		.uleb128 .LVU185
 3273 0064 00       		.uleb128 .LVU185
 3274              	.LLST24:
 3275 0065 08000000 		.4byte	.LVL33
 3276 0069 0B000000 		.4byte	.LVL34-1
 3277 006d 0100     		.2byte	0x1
 3278 006f 51       		.byte	0x51
 3279 0070 0B000000 		.4byte	.LVL34-1
 3280 0074 0C000000 		.4byte	.LVL34
 3281 0078 0400     		.2byte	0x4
 3282 007a F3       		.byte	0xf3
 3283 007b 01       		.uleb128 0x1
 3284 007c 51       		.byte	0x51
 3285 007d 9F       		.byte	0x9f
 3286 007e 00000000 		.4byte	0
 3287 0082 00000000 		.4byte	0
 3288              	.LVUS25:
 3289 0086 07       		.uleb128 .LVU182
 3290 0087 00       		.uleb128 .LVU185
 3291 0088 00       		.uleb128 .LVU185
 3292 0089 00       		.uleb128 .LVU185
 3293              	.LLST25:
 3294 008a 08000000 		.4byte	.LVL33
 3295 008e 0B000000 		.4byte	.LVL34-1
 3296 0092 0100     		.2byte	0x1
 3297 0094 50       		.byte	0x50
 3298 0095 0B000000 		.4byte	.LVL34-1
 3299 0099 0C000000 		.4byte	.LVL34
 3300 009d 0400     		.2byte	0x4
 3301 009f F3       		.byte	0xf3
 3302 00a0 01       		.uleb128 0x1
 3303 00a1 50       		.byte	0x50
 3304 00a2 9F       		.byte	0x9f
 3305 00a3 00000000 		.4byte	0
 3306 00a7 00000000 		.4byte	0
ARM GAS  /tmp/cc4Q69ox.s 			page 59


 3307              	.LVUS26:
 3308 00ab 0B       		.uleb128 .LVU196
 3309 00ac 00       		.uleb128 .LVU198
 3310              	.LLST26:
 3311 00ad 0C000000 		.4byte	.LVL34
 3312 00b1 12000000 		.4byte	.LVL35
 3313 00b5 0200     		.2byte	0x2
 3314 00b7 30       		.byte	0x30
 3315 00b8 9F       		.byte	0x9f
 3316 00b9 00000000 		.4byte	0
 3317 00bd 00000000 		.4byte	0
 3318              	.LVUS16:
 3319 00c1 00       		.uleb128 .LVU140
 3320 00c2 00       		.uleb128 0
 3321              	.LLST16:
 3322 00c3 04000000 		.4byte	.LVL27
 3323 00c7 28000000 		.4byte	.LFE338
 3324 00cb 0100     		.2byte	0x1
 3325 00cd 52       		.byte	0x52
 3326 00ce 00000000 		.4byte	0
 3327 00d2 00000000 		.4byte	0
 3328              	.LVUS17:
 3329 00d6 02       		.uleb128 .LVU142
 3330 00d7 01       		.uleb128 .LVU159
 3331 00d8 01       		.uleb128 .LVU159
 3332 00d9 00       		.uleb128 .LVU162
 3333 00da 00       		.uleb128 .LVU162
 3334 00db 00       		.uleb128 0
 3335              	.LLST17:
 3336 00dc 04000000 		.4byte	.LVL27
 3337 00e0 18000000 		.4byte	.LVL30
 3338 00e4 0200     		.2byte	0x2
 3339 00e6 30       		.byte	0x30
 3340 00e7 9F       		.byte	0x9f
 3341 00e8 18000000 		.4byte	.LVL30
 3342 00ec 1E000000 		.4byte	.LVL31
 3343 00f0 0100     		.2byte	0x1
 3344 00f2 50       		.byte	0x50
 3345 00f3 1E000000 		.4byte	.LVL31
 3346 00f7 28000000 		.4byte	.LFE338
 3347 00fb 0200     		.2byte	0x2
 3348 00fd 30       		.byte	0x30
 3349 00fe 9F       		.byte	0x9f
 3350 00ff 00000000 		.4byte	0
 3351 0103 00000000 		.4byte	0
 3352              	.LVUS18:
 3353 0107 03       		.uleb128 .LVU143
 3354 0108 00       		.uleb128 .LVU147
 3355              	.LLST18:
 3356 0109 04000000 		.4byte	.LVL27
 3357 010d 0A000000 		.4byte	.LVL28
 3358 0111 0100     		.2byte	0x1
 3359 0113 52       		.byte	0x52
 3360 0114 00000000 		.4byte	0
 3361 0118 00000000 		.4byte	0
 3362              	.LVUS19:
 3363 011c 01       		.uleb128 .LVU150
ARM GAS  /tmp/cc4Q69ox.s 			page 60


 3364 011d 01       		.uleb128 .LVU159
 3365              	.LLST19:
 3366 011e 0E000000 		.4byte	.LVL29
 3367 0122 18000000 		.4byte	.LVL30
 3368 0126 0100     		.2byte	0x1
 3369 0128 53       		.byte	0x53
 3370 0129 00000000 		.4byte	0
 3371 012d 00000000 		.4byte	0
 3372              	.LVUS20:
 3373 0131 03       		.uleb128 .LVU152
 3374 0132 01       		.uleb128 .LVU159
 3375              	.LLST20:
 3376 0133 0E000000 		.4byte	.LVL29
 3377 0137 18000000 		.4byte	.LVL30
 3378 013b 0100     		.2byte	0x1
 3379 013d 50       		.byte	0x50
 3380 013e 00000000 		.4byte	0
 3381 0142 00000000 		.4byte	0
 3382              	.LVUS11:
 3383 0146 00       		.uleb128 0
 3384 0147 00       		.uleb128 .LVU110
 3385 0148 00       		.uleb128 .LVU110
 3386 0149 00       		.uleb128 .LVU112
 3387 014a 00       		.uleb128 .LVU112
 3388 014b 00       		.uleb128 .LVU127
 3389 014c 00       		.uleb128 .LVU127
 3390 014d 00       		.uleb128 .LVU129
 3391 014e 00       		.uleb128 .LVU129
 3392 014f 00       		.uleb128 0
 3393              	.LLST11:
 3394 0150 00000000 		.4byte	.LVL18
 3395 0154 0E000000 		.4byte	.LVL20
 3396 0158 0100     		.2byte	0x1
 3397 015a 50       		.byte	0x50
 3398 015b 0E000000 		.4byte	.LVL20
 3399 015f 12000000 		.4byte	.LVL21
 3400 0163 0100     		.2byte	0x1
 3401 0165 51       		.byte	0x51
 3402 0166 12000000 		.4byte	.LVL21
 3403 016a 20000000 		.4byte	.LVL24
 3404 016e 0400     		.2byte	0x4
 3405 0170 F3       		.byte	0xf3
 3406 0171 01       		.uleb128 0x1
 3407 0172 50       		.byte	0x50
 3408 0173 9F       		.byte	0x9f
 3409 0174 20000000 		.4byte	.LVL24
 3410 0178 25000000 		.4byte	.LVL25-1
 3411 017c 0100     		.2byte	0x1
 3412 017e 51       		.byte	0x51
 3413 017f 25000000 		.4byte	.LVL25-1
 3414 0183 34000000 		.4byte	.LFE337
 3415 0187 0400     		.2byte	0x4
 3416 0189 F3       		.byte	0xf3
 3417 018a 01       		.uleb128 0x1
 3418 018b 50       		.byte	0x50
 3419 018c 9F       		.byte	0x9f
 3420 018d 00000000 		.4byte	0
ARM GAS  /tmp/cc4Q69ox.s 			page 61


 3421 0191 00000000 		.4byte	0
 3422              	.LVUS12:
 3423 0195 00       		.uleb128 .LVU100
 3424 0196 00       		.uleb128 .LVU134
 3425              	.LLST12:
 3426 0197 06000000 		.4byte	.LVL19
 3427 019b 30000000 		.4byte	.LVL26
 3428 019f 0100     		.2byte	0x1
 3429 01a1 55       		.byte	0x55
 3430 01a2 00000000 		.4byte	0
 3431 01a6 00000000 		.4byte	0
 3432              	.LVUS13:
 3433 01aa 04       		.uleb128 .LVU104
 3434 01ab 00       		.uleb128 .LVU110
 3435              	.LLST13:
 3436 01ac 06000000 		.4byte	.LVL19
 3437 01b0 0E000000 		.4byte	.LVL20
 3438 01b4 0100     		.2byte	0x1
 3439 01b6 55       		.byte	0x55
 3440 01b7 00000000 		.4byte	0
 3441 01bb 00000000 		.4byte	0
 3442              	.LVUS14:
 3443 01bf 01       		.uleb128 .LVU113
 3444 01c0 01       		.uleb128 .LVU122
 3445              	.LLST14:
 3446 01c1 12000000 		.4byte	.LVL21
 3447 01c5 1A000000 		.4byte	.LVL23
 3448 01c9 0100     		.2byte	0x1
 3449 01cb 54       		.byte	0x54
 3450 01cc 00000000 		.4byte	0
 3451 01d0 00000000 		.4byte	0
 3452              	.LVUS15:
 3453 01d4 03       		.uleb128 .LVU115
 3454 01d5 00       		.uleb128 .LVU118
 3455              	.LLST15:
 3456 01d6 12000000 		.4byte	.LVL21
 3457 01da 16000000 		.4byte	.LVL22
 3458 01de 0200     		.2byte	0x2
 3459 01e0 75       		.byte	0x75
 3460 01e1 30       		.sleb128 48
 3461 01e2 00000000 		.4byte	0
 3462 01e6 00000000 		.4byte	0
 3463              	.LVUS7:
 3464 01ea 00       		.uleb128 .LVU67
 3465 01eb 00       		.uleb128 0
 3466              	.LLST7:
 3467 01ec 06000000 		.4byte	.LVL11
 3468 01f0 2C000000 		.4byte	.LFE336
 3469 01f4 0100     		.2byte	0x1
 3470 01f6 55       		.byte	0x55
 3471 01f7 00000000 		.4byte	0
 3472 01fb 00000000 		.4byte	0
 3473              	.LVUS8:
 3474 01ff 04       		.uleb128 .LVU71
 3475 0200 00       		.uleb128 .LVU75
 3476              	.LLST8:
 3477 0201 06000000 		.4byte	.LVL11
ARM GAS  /tmp/cc4Q69ox.s 			page 62


 3478 0205 0C000000 		.4byte	.LVL12
 3479 0209 0100     		.2byte	0x1
 3480 020b 55       		.byte	0x55
 3481 020c 00000000 		.4byte	0
 3482 0210 00000000 		.4byte	0
 3483              	.LVUS9:
 3484 0214 01       		.uleb128 .LVU78
 3485 0215 01       		.uleb128 .LVU87
 3486              	.LLST9:
 3487 0216 10000000 		.4byte	.LVL13
 3488 021a 18000000 		.4byte	.LVL15
 3489 021e 0100     		.2byte	0x1
 3490 0220 54       		.byte	0x54
 3491 0221 00000000 		.4byte	0
 3492 0225 00000000 		.4byte	0
 3493              	.LVUS10:
 3494 0229 03       		.uleb128 .LVU80
 3495 022a 00       		.uleb128 .LVU83
 3496              	.LLST10:
 3497 022b 10000000 		.4byte	.LVL13
 3498 022f 14000000 		.4byte	.LVL14
 3499 0233 0200     		.2byte	0x2
 3500 0235 75       		.byte	0x75
 3501 0236 30       		.sleb128 48
 3502 0237 00000000 		.4byte	0
 3503 023b 00000000 		.4byte	0
 3504              	.LVUS0:
 3505 023f 00       		.uleb128 0
 3506 0240 00       		.uleb128 .LVU40
 3507 0241 00       		.uleb128 .LVU40
 3508 0242 00       		.uleb128 .LVU58
 3509 0243 00       		.uleb128 .LVU58
 3510 0244 00       		.uleb128 .LVU60
 3511 0245 00       		.uleb128 .LVU60
 3512 0246 00       		.uleb128 0
 3513              	.LLST0:
 3514 0247 00000000 		.4byte	.LVL0
 3515 024b 24000000 		.4byte	.LVL5
 3516 024f 0100     		.2byte	0x1
 3517 0251 50       		.byte	0x50
 3518 0252 24000000 		.4byte	.LVL5
 3519 0256 34000000 		.4byte	.LVL9
 3520 025a 0300     		.2byte	0x3
 3521 025c 75       		.byte	0x75
 3522 025d 50       		.sleb128 -48
 3523 025e 9F       		.byte	0x9f
 3524 025f 34000000 		.4byte	.LVL9
 3525 0263 37000000 		.4byte	.LVL10-1
 3526 0267 0100     		.2byte	0x1
 3527 0269 50       		.byte	0x50
 3528 026a 37000000 		.4byte	.LVL10-1
 3529 026e 40000000 		.4byte	.LFE335
 3530 0272 0300     		.2byte	0x3
 3531 0274 75       		.byte	0x75
 3532 0275 50       		.sleb128 -48
 3533 0276 9F       		.byte	0x9f
 3534 0277 00000000 		.4byte	0
ARM GAS  /tmp/cc4Q69ox.s 			page 63


 3535 027b 00000000 		.4byte	0
 3536              	.LVUS1:
 3537 027f 00       		.uleb128 0
 3538 0280 00       		.uleb128 .LVU40
 3539 0281 00       		.uleb128 .LVU40
 3540 0282 00       		.uleb128 .LVU43
 3541 0283 00       		.uleb128 .LVU43
 3542 0284 00       		.uleb128 .LVU58
 3543 0285 00       		.uleb128 .LVU58
 3544 0286 00       		.uleb128 .LVU60
 3545 0287 00       		.uleb128 .LVU60
 3546 0288 00       		.uleb128 0
 3547              	.LLST1:
 3548 0289 00000000 		.4byte	.LVL0
 3549 028d 24000000 		.4byte	.LVL5
 3550 0291 0100     		.2byte	0x1
 3551 0293 51       		.byte	0x51
 3552 0294 24000000 		.4byte	.LVL5
 3553 0298 2C000000 		.4byte	.LVL7
 3554 029c 0400     		.2byte	0x4
 3555 029e F3       		.byte	0xf3
 3556 029f 01       		.uleb128 0x1
 3557 02a0 51       		.byte	0x51
 3558 02a1 9F       		.byte	0x9f
 3559 02a2 2C000000 		.4byte	.LVL7
 3560 02a6 34000000 		.4byte	.LVL9
 3561 02aa 0100     		.2byte	0x1
 3562 02ac 50       		.byte	0x50
 3563 02ad 34000000 		.4byte	.LVL9
 3564 02b1 37000000 		.4byte	.LVL10-1
 3565 02b5 0100     		.2byte	0x1
 3566 02b7 51       		.byte	0x51
 3567 02b8 37000000 		.4byte	.LVL10-1
 3568 02bc 40000000 		.4byte	.LFE335
 3569 02c0 0400     		.2byte	0x4
 3570 02c2 F3       		.byte	0xf3
 3571 02c3 01       		.uleb128 0x1
 3572 02c4 51       		.byte	0x51
 3573 02c5 9F       		.byte	0x9f
 3574 02c6 00000000 		.4byte	0
 3575 02ca 00000000 		.4byte	0
 3576              	.LVUS2:
 3577 02ce 00       		.uleb128 .LVU8
 3578 02cf 00       		.uleb128 0
 3579              	.LLST2:
 3580 02d0 08000000 		.4byte	.LVL1
 3581 02d4 40000000 		.4byte	.LFE335
 3582 02d8 0100     		.2byte	0x1
 3583 02da 54       		.byte	0x54
 3584 02db 00000000 		.4byte	0
 3585 02df 00000000 		.4byte	0
 3586              	.LVUS3:
 3587 02e3 09       		.uleb128 .LVU17
 3588 02e4 00       		.uleb128 .LVU19
 3589              	.LLST3:
 3590 02e5 08000000 		.4byte	.LVL1
 3591 02e9 0C000000 		.4byte	.LVL2
ARM GAS  /tmp/cc4Q69ox.s 			page 64


 3592 02ed 0300     		.2byte	0x3
 3593 02ef 08       		.byte	0x8
 3594 02f0 30       		.byte	0x30
 3595 02f1 9F       		.byte	0x9f
 3596 02f2 00000000 		.4byte	0
 3597 02f6 00000000 		.4byte	0
 3598              	.LVUS4:
 3599 02fa 01       		.uleb128 .LVU29
 3600 02fb 00       		.uleb128 .LVU37
 3601              	.LLST4:
 3602 02fc 18000000 		.4byte	.LVL3
 3603 0300 20000000 		.4byte	.LVL4
 3604 0304 0100     		.2byte	0x1
 3605 0306 54       		.byte	0x54
 3606 0307 00000000 		.4byte	0
 3607 030b 00000000 		.4byte	0
 3608              	.LVUS5:
 3609 030f 01       		.uleb128 .LVU29
 3610 0310 00       		.uleb128 .LVU37
 3611              	.LLST5:
 3612 0311 18000000 		.4byte	.LVL3
 3613 0315 20000000 		.4byte	.LVL4
 3614 0319 0300     		.2byte	0x3
 3615 031b 73       		.byte	0x73
 3616 031c 30       		.sleb128 48
 3617 031d 9F       		.byte	0x9f
 3618 031e 00000000 		.4byte	0
 3619 0322 00000000 		.4byte	0
 3620              	.LVUS6:
 3621 0326 0A       		.uleb128 .LVU53
 3622 0327 00       		.uleb128 .LVU55
 3623              	.LLST6:
 3624 0328 2C000000 		.4byte	.LVL7
 3625 032c 32000000 		.4byte	.LVL8
 3626 0330 0200     		.2byte	0x2
 3627 0332 30       		.byte	0x30
 3628 0333 9F       		.byte	0x9f
 3629 0334 00000000 		.4byte	0
 3630 0338 00000000 		.4byte	0
 3631              		.section	.debug_aranges,"",%progbits
 3632 0000 3C000000 		.4byte	0x3c
 3633 0004 0200     		.2byte	0x2
 3634 0006 00000000 		.4byte	.Ldebug_info0
 3635 000a 04       		.byte	0x4
 3636 000b 00       		.byte	0
 3637 000c 0000     		.2byte	0
 3638 000e 0000     		.2byte	0
 3639 0010 00000000 		.4byte	.LFB335
 3640 0014 40000000 		.4byte	.LFE335-.LFB335
 3641 0018 00000000 		.4byte	.LFB336
 3642 001c 2C000000 		.4byte	.LFE336-.LFB336
 3643 0020 00000000 		.4byte	.LFB337
 3644 0024 34000000 		.4byte	.LFE337-.LFB337
 3645 0028 00000000 		.4byte	.LFB338
 3646 002c 28000000 		.4byte	.LFE338-.LFB338
 3647 0030 00000000 		.4byte	.LFB339
 3648 0034 14000000 		.4byte	.LFE339-.LFB339
ARM GAS  /tmp/cc4Q69ox.s 			page 65


 3649 0038 00000000 		.4byte	0
 3650 003c 00000000 		.4byte	0
 3651              		.section	.debug_ranges,"",%progbits
 3652              	.Ldebug_ranges0:
 3653 0000 00000000 		.4byte	.LBB58
 3654 0004 00000000 		.4byte	.LBE58
 3655 0008 02000000 		.4byte	.LBB62
 3656 000c 04000000 		.4byte	.LBE62
 3657 0010 06000000 		.4byte	.LBB71
 3658 0014 08000000 		.4byte	.LBE71
 3659 0018 00000000 		.4byte	0
 3660 001c 00000000 		.4byte	0
 3661 0020 04000000 		.4byte	.LBB63
 3662 0024 06000000 		.4byte	.LBE63
 3663 0028 08000000 		.4byte	.LBB72
 3664 002c 08000000 		.4byte	.LBE72
 3665 0030 08000000 		.4byte	.LBB73
 3666 0034 08000000 		.4byte	.LBE73
 3667 0038 08000000 		.4byte	.LBB74
 3668 003c 0C000000 		.4byte	.LBE74
 3669 0040 00000000 		.4byte	0
 3670 0044 00000000 		.4byte	0
 3671 0048 04000000 		.4byte	.LBB64
 3672 004c 06000000 		.4byte	.LBE64
 3673 0050 08000000 		.4byte	.LBB69
 3674 0054 08000000 		.4byte	.LBE69
 3675 0058 08000000 		.4byte	.LBB70
 3676 005c 0C000000 		.4byte	.LBE70
 3677 0060 00000000 		.4byte	0
 3678 0064 00000000 		.4byte	0
 3679 0068 04000000 		.4byte	.LBB65
 3680 006c 06000000 		.4byte	.LBE65
 3681 0070 08000000 		.4byte	.LBB68
 3682 0074 0C000000 		.4byte	.LBE68
 3683 0078 00000000 		.4byte	0
 3684 007c 00000000 		.4byte	0
 3685 0080 0C000000 		.4byte	.LBB75
 3686 0084 10000000 		.4byte	.LBE75
 3687 0088 14000000 		.4byte	.LBB80
 3688 008c 16000000 		.4byte	.LBE80
 3689 0090 18000000 		.4byte	.LBB81
 3690 0094 1A000000 		.4byte	.LBE81
 3691 0098 1E000000 		.4byte	.LBB82
 3692 009c 20000000 		.4byte	.LBE82
 3693 00a0 00000000 		.4byte	0
 3694 00a4 00000000 		.4byte	0
 3695 00a8 2C000000 		.4byte	.LBB83
 3696 00ac 2C000000 		.4byte	.LBE83
 3697 00b0 2C000000 		.4byte	.LBB90
 3698 00b4 32000000 		.4byte	.LBE90
 3699 00b8 00000000 		.4byte	0
 3700 00bc 00000000 		.4byte	0
 3701 00c0 00000000 		.4byte	.LBB91
 3702 00c4 00000000 		.4byte	.LBE91
 3703 00c8 02000000 		.4byte	.LBB94
 3704 00cc 06000000 		.4byte	.LBE94
 3705 00d0 00000000 		.4byte	0
ARM GAS  /tmp/cc4Q69ox.s 			page 66


 3706 00d4 00000000 		.4byte	0
 3707 00d8 10000000 		.4byte	.LBB97
 3708 00dc 14000000 		.4byte	.LBE97
 3709 00e0 16000000 		.4byte	.LBB101
 3710 00e4 18000000 		.4byte	.LBE101
 3711 00e8 24000000 		.4byte	.LBB102
 3712 00ec 2C000000 		.4byte	.LBE102
 3713 00f0 00000000 		.4byte	0
 3714 00f4 00000000 		.4byte	0
 3715 00f8 00000000 		.4byte	.LBB103
 3716 00fc 00000000 		.4byte	.LBE103
 3717 0100 02000000 		.4byte	.LBB106
 3718 0104 06000000 		.4byte	.LBE106
 3719 0108 00000000 		.4byte	0
 3720 010c 00000000 		.4byte	0
 3721 0110 06000000 		.4byte	.LBB107
 3722 0114 08000000 		.4byte	.LBE107
 3723 0118 0A000000 		.4byte	.LBB110
 3724 011c 0E000000 		.4byte	.LBE110
 3725 0120 00000000 		.4byte	0
 3726 0124 00000000 		.4byte	0
 3727 0128 12000000 		.4byte	.LBB111
 3728 012c 16000000 		.4byte	.LBE111
 3729 0130 18000000 		.4byte	.LBB115
 3730 0134 1A000000 		.4byte	.LBE115
 3731 0138 28000000 		.4byte	.LBB116
 3732 013c 2C000000 		.4byte	.LBE116
 3733 0140 00000000 		.4byte	0
 3734 0144 00000000 		.4byte	0
 3735 0148 0E000000 		.4byte	.LBB121
 3736 014c 12000000 		.4byte	.LBE121
 3737 0150 16000000 		.4byte	.LBB124
 3738 0154 18000000 		.4byte	.LBE124
 3739 0158 00000000 		.4byte	0
 3740 015c 00000000 		.4byte	0
 3741 0160 00000000 		.4byte	.LBB125
 3742 0164 00000000 		.4byte	.LBE125
 3743 0168 00000000 		.4byte	.LBB133
 3744 016c 00000000 		.4byte	.LBE133
 3745 0170 00000000 		.4byte	.LBB134
 3746 0174 00000000 		.4byte	.LBE134
 3747 0178 02000000 		.4byte	.LBB135
 3748 017c 08000000 		.4byte	.LBE135
 3749 0180 00000000 		.4byte	0
 3750 0184 00000000 		.4byte	0
 3751 0188 0C000000 		.4byte	.LBB138
 3752 018c 0C000000 		.4byte	.LBE138
 3753 0190 0C000000 		.4byte	.LBB145
 3754 0194 12000000 		.4byte	.LBE145
 3755 0198 00000000 		.4byte	0
 3756 019c 00000000 		.4byte	0
 3757 01a0 00000000 		.4byte	.LFB335
 3758 01a4 40000000 		.4byte	.LFE335
 3759 01a8 00000000 		.4byte	.LFB336
 3760 01ac 2C000000 		.4byte	.LFE336
 3761 01b0 00000000 		.4byte	.LFB337
 3762 01b4 34000000 		.4byte	.LFE337
ARM GAS  /tmp/cc4Q69ox.s 			page 67


 3763 01b8 00000000 		.4byte	.LFB338
 3764 01bc 28000000 		.4byte	.LFE338
 3765 01c0 00000000 		.4byte	.LFB339
 3766 01c4 14000000 		.4byte	.LFE339
 3767 01c8 00000000 		.4byte	0
 3768 01cc 00000000 		.4byte	0
 3769              		.section	.debug_line,"",%progbits
 3770              	.Ldebug_line0:
 3771 0000 30060000 		.section	.debug_str,"MS",%progbits,1
 3771      03004702 
 3771      00000201 
 3771      FB0E0D00 
 3771      01010101 
 3772              	.LASF99:
 3773 0000 72656164 		.ascii	"ready_list_t\000"
 3773      795F6C69 
 3773      73745F74 
 3773      00
 3774              	.LASF49:
 3775 000d 72666375 		.ascii	"rfcu\000"
 3775      00
 3776              	.LASF90:
 3777 0012 77747472 		.ascii	"wttrp\000"
 3777      7000
 3778              	.LASF73:
 3779 0018 64656C74 		.ascii	"delta\000"
 3779      6100
 3780              	.LASF87:
 3781 001e 7264796D 		.ascii	"rdymsg\000"
 3781      736700
 3782              	.LASF110:
 3783 0025 63684D73 		.ascii	"chMsgWaitTimeoutS\000"
 3783      67576169 
 3783      7454696D 
 3783      656F7574 
 3783      5300
 3784              	.LASF7:
 3785 0037 5F5F7569 		.ascii	"__uint8_t\000"
 3785      6E74385F 
 3785      7400
 3786              	.LASF67:
 3787 0041 70726576 		.ascii	"prev\000"
 3787      00
 3788              	.LASF74:
 3789 0046 706F7274 		.ascii	"port_intctx\000"
 3789      5F696E74 
 3789      63747800 
 3790              	.LASF59:
 3791 0052 73797374 		.ascii	"system_debug_t\000"
 3791      656D5F64 
 3791      65627567 
 3791      5F7400
 3792              	.LASF48:
 3793 0061 636F7265 		.ascii	"core_id\000"
 3793      5F696400 
 3794              	.LASF68:
 3795 0069 63685F70 		.ascii	"ch_priority_queue_t\000"
ARM GAS  /tmp/cc4Q69ox.s 			page 68


 3795      72696F72 
 3795      6974795F 
 3795      71756575 
 3795      655F7400 
 3796              	.LASF13:
 3797 007d 6C6F6E67 		.ascii	"long long unsigned int\000"
 3797      206C6F6E 
 3797      6720756E 
 3797      7369676E 
 3797      65642069 
 3798              	.LASF88:
 3799 0094 65786974 		.ascii	"exitcode\000"
 3799      636F6465 
 3799      00
 3800              	.LASF51:
 3801 009d 6D61696E 		.ascii	"mainthread\000"
 3801      74687265 
 3801      616400
 3802              	.LASF91:
 3803 00a8 73656E74 		.ascii	"sentmsg\000"
 3803      6D736700 
 3804              	.LASF80:
 3805 00b0 76697274 		.ascii	"virtual_timers_list_t\000"
 3805      75616C5F 
 3805      74696D65 
 3805      72735F6C 
 3805      6973745F 
 3806              	.LASF64:
 3807 00c6 6E657874 		.ascii	"next\000"
 3807      00
 3808              	.LASF35:
 3809 00cb 72656673 		.ascii	"refs\000"
 3809      00
 3810              	.LASF1:
 3811 00d0 6C6F6E67 		.ascii	"long long int\000"
 3811      206C6F6E 
 3811      6720696E 
 3811      7400
 3812              	.LASF3:
 3813 00de 7369676E 		.ascii	"signed char\000"
 3813      65642063 
 3813      68617200 
 3814              	.LASF72:
 3815 00ea 63685F64 		.ascii	"ch_delta_list\000"
 3815      656C7461 
 3815      5F6C6973 
 3815      7400
 3816              	.LASF121:
 3817 00f8 62617365 		.ascii	"basePri\000"
 3817      50726900 
 3818              	.LASF46:
 3819 0100 76746C69 		.ascii	"vtlist\000"
 3819      737400
 3820              	.LASF118:
 3821 0107 706F7274 		.ascii	"port_unlock\000"
 3821      5F756E6C 
 3821      6F636B00 
ARM GAS  /tmp/cc4Q69ox.s 			page 69


 3822              	.LASF37:
 3823 0113 6D736771 		.ascii	"msgqueue\000"
 3823      75657565 
 3823      00
 3824              	.LASF33:
 3825 011c 73746174 		.ascii	"state\000"
 3825      6500
 3826              	.LASF9:
 3827 0122 6C6F6E67 		.ascii	"long int\000"
 3827      20696E74 
 3827      00
 3828              	.LASF113:
 3829 012b 63684D73 		.ascii	"chMsgSend\000"
 3829      6753656E 
 3829      6400
 3830              	.LASF21:
 3831 0135 74737461 		.ascii	"tstate_t\000"
 3831      74655F74 
 3831      00
 3832              	.LASF53:
 3833 013e 63685F72 		.ascii	"ch_rfcu\000"
 3833      66637500 
 3834              	.LASF66:
 3835 0146 63685F71 		.ascii	"ch_queue\000"
 3835      75657565 
 3835      00
 3836              	.LASF82:
 3837 014f 71756575 		.ascii	"queue\000"
 3837      6500
 3838              	.LASF123:
 3839 0155 63685F71 		.ascii	"ch_queue_fifo_remove\000"
 3839      75657565 
 3839      5F666966 
 3839      6F5F7265 
 3839      6D6F7665 
 3840              	.LASF71:
 3841 016a 63685F64 		.ascii	"ch_delta_list_t\000"
 3841      656C7461 
 3841      5F6C6973 
 3841      745F7400 
 3842              	.LASF122:
 3843 017a 63684D73 		.ascii	"chMsgIsPendingI\000"
 3843      67497350 
 3843      656E6469 
 3843      6E674900 
 3844              	.LASF81:
 3845 018a 63685F72 		.ascii	"ch_registry\000"
 3845      65676973 
 3845      74727900 
 3846              	.LASF10:
 3847 0196 5F5F7569 		.ascii	"__uint32_t\000"
 3847      6E743332 
 3847      5F7400
 3848              	.LASF54:
 3849 01a1 6D61736B 		.ascii	"mask\000"
 3849      00
 3850              	.LASF36:
ARM GAS  /tmp/cc4Q69ox.s 			page 70


 3851 01a6 77616974 		.ascii	"waiting\000"
 3851      696E6700 
 3852              	.LASF101:
 3853 01ae 6D61696E 		.ascii	"mainthread_base\000"
 3853      74687265 
 3853      61645F62 
 3853      61736500 
 3854              	.LASF106:
 3855 01be 6D757465 		.ascii	"mutex_t\000"
 3855      785F7400 
 3856              	.LASF61:
 3857 01c6 73797369 		.ascii	"sysinterval_t\000"
 3857      6E746572 
 3857      76616C5F 
 3857      7400
 3858              	.LASF26:
 3859 01d4 636E745F 		.ascii	"cnt_t\000"
 3859      7400
 3860              	.LASF0:
 3861 01da 756E7369 		.ascii	"unsigned int\000"
 3861      676E6564 
 3861      20696E74 
 3861      00
 3862              	.LASF92:
 3863 01e7 77747365 		.ascii	"wtsemp\000"
 3863      6D7000
 3864              	.LASF11:
 3865 01ee 6C6F6E67 		.ascii	"long unsigned int\000"
 3865      20756E73 
 3865      69676E65 
 3865      6420696E 
 3865      7400
 3866              	.LASF29:
 3867 0200 72717565 		.ascii	"rqueue\000"
 3867      756500
 3868              	.LASF65:
 3869 0207 63685F71 		.ascii	"ch_queue_t\000"
 3869      75657565 
 3869      5F7400
 3870              	.LASF18:
 3871 0212 706F7274 		.ascii	"port_stkalign_t\000"
 3871      5F73746B 
 3871      616C6967 
 3871      6E5F7400 
 3872              	.LASF111:
 3873 0222 74696D65 		.ascii	"timeout\000"
 3873      6F757400 
 3874              	.LASF31:
 3875 022a 6E616D65 		.ascii	"name\000"
 3875      00
 3876              	.LASF41:
 3877 022f 6D706F6F 		.ascii	"mpool\000"
 3877      6C00
 3878              	.LASF112:
 3879 0235 63684D73 		.ascii	"chMsgWaitS\000"
 3879      67576169 
 3879      745300
ARM GAS  /tmp/cc4Q69ox.s 			page 71


 3880              	.LASF6:
 3881 0240 73686F72 		.ascii	"short unsigned int\000"
 3881      7420756E 
 3881      7369676E 
 3881      65642069 
 3881      6E7400
 3882              	.LASF43:
 3883 0253 63685F74 		.ascii	"ch_thread\000"
 3883      68726561 
 3883      6400
 3884              	.LASF108:
 3885 025d 63757272 		.ascii	"currtp\000"
 3885      747000
 3886              	.LASF24:
 3887 0264 6D73675F 		.ascii	"msg_t\000"
 3887      7400
 3888              	.LASF38:
 3889 026a 6570656E 		.ascii	"epending\000"
 3889      64696E67 
 3889      00
 3890              	.LASF20:
 3891 0273 746D6F64 		.ascii	"tmode_t\000"
 3891      655F7400 
 3892              	.LASF63:
 3893 027b 63685F6C 		.ascii	"ch_list\000"
 3893      69737400 
 3894              	.LASF97:
 3895 0283 63685F72 		.ascii	"ch_ready_list\000"
 3895      65616479 
 3895      5F6C6973 
 3895      7400
 3896              	.LASF25:
 3897 0291 6576656E 		.ascii	"eventmask_t\000"
 3897      746D6173 
 3897      6B5F7400 
 3898              	.LASF19:
 3899 029d 73746B61 		.ascii	"stkalign_t\000"
 3899      6C69676E 
 3899      5F7400
 3900              	.LASF103:
 3901 02a8 69646C65 		.ascii	"idlethread_base\000"
 3901      74687265 
 3901      61645F62 
 3901      61736500 
 3902              	.LASF79:
 3903 02b8 6C617374 		.ascii	"laststamp\000"
 3903      7374616D 
 3903      7000
 3904              	.LASF40:
 3905 02c2 7265616C 		.ascii	"realprio\000"
 3905      7072696F 
 3905      00
 3906              	.LASF52:
 3907 02cb 72666375 		.ascii	"rfcu_mask_t\000"
 3907      5F6D6173 
 3907      6B5F7400 
 3908              	.LASF84:
ARM GAS  /tmp/cc4Q69ox.s 			page 72


 3909 02d7 74687265 		.ascii	"thread_reference_t\000"
 3909      61645F72 
 3909      65666572 
 3909      656E6365 
 3909      5F7400
 3910              	.LASF76:
 3911 02ea 63685F76 		.ascii	"ch_virtual_timers_list\000"
 3911      69727475 
 3911      616C5F74 
 3911      696D6572 
 3911      735F6C69 
 3912              	.LASF62:
 3913 0301 63685F6C 		.ascii	"ch_list_t\000"
 3913      6973745F 
 3913      7400
 3914              	.LASF17:
 3915 030b 75696E74 		.ascii	"uint64_t\000"
 3915      36345F74 
 3915      00
 3916              	.LASF100:
 3917 0314 63685F6F 		.ascii	"ch_os_instance_config\000"
 3917      735F696E 
 3917      7374616E 
 3917      63655F63 
 3917      6F6E6669 
 3918              	.LASF75:
 3919 032a 706F7274 		.ascii	"port_context\000"
 3919      5F636F6E 
 3919      74657874 
 3919      00
 3920              	.LASF70:
 3921 0337 7072696F 		.ascii	"prio\000"
 3921      00
 3922              	.LASF98:
 3923 033c 63757272 		.ascii	"current\000"
 3923      656E7400 
 3924              	.LASF12:
 3925 0344 5F5F7569 		.ascii	"__uint64_t\000"
 3925      6E743634 
 3925      5F7400
 3926              	.LASF27:
 3927 034f 636F7265 		.ascii	"core_id_t\000"
 3927      5F69645F 
 3927      7400
 3928              	.LASF22:
 3929 0359 74726566 		.ascii	"trefs_t\000"
 3929      735F7400 
 3930              	.LASF23:
 3931 0361 74707269 		.ascii	"tprio_t\000"
 3931      6F5F7400 
 3932              	.LASF56:
 3933 0369 63685F73 		.ascii	"ch_system_debug\000"
 3933      79737465 
 3933      6D5F6465 
 3933      62756700 
 3934              	.LASF107:
 3935 0379 5F426F6F 		.ascii	"_Bool\000"
ARM GAS  /tmp/cc4Q69ox.s 			page 73


 3935      6C00
 3936              	.LASF15:
 3937 037f 696E7433 		.ascii	"int32_t\000"
 3937      325F7400 
 3938              	.LASF4:
 3939 0387 756E7369 		.ascii	"unsigned char\000"
 3939      676E6564 
 3939      20636861 
 3939      7200
 3940              	.LASF55:
 3941 0395 72666375 		.ascii	"rfcu_t\000"
 3941      5F7400
 3942              	.LASF124:
 3943 039c 63685F71 		.ascii	"ch_queue_insert\000"
 3943      75657565 
 3943      5F696E73 
 3943      65727400 
 3944              	.LASF5:
 3945 03ac 73686F72 		.ascii	"short int\000"
 3945      7420696E 
 3945      7400
 3946              	.LASF78:
 3947 03b6 6C617374 		.ascii	"lasttime\000"
 3947      74696D65 
 3947      00
 3948              	.LASF130:
 3949 03bf 2E2E2F43 		.ascii	"../ChibiOS/os/rt/src/chmsg.c\000"
 3949      68696269 
 3949      4F532F6F 
 3949      732F7274 
 3949      2F737263 
 3950              	.LASF94:
 3951 03dc 65776D61 		.ascii	"ewmask\000"
 3951      736B00
 3952              	.LASF114:
 3953 03e3 5F5F6675 		.ascii	"__func__\000"
 3953      6E635F5F 
 3953      00
 3954              	.LASF117:
 3955 03ec 63685379 		.ascii	"chSysLock\000"
 3955      734C6F63 
 3955      6B00
 3956              	.LASF132:
 3957 03f6 63684D73 		.ascii	"chMsgRelease\000"
 3957      6752656C 
 3957      65617365 
 3957      00
 3958              	.LASF95:
 3959 0403 63685F73 		.ascii	"ch_semaphore\000"
 3959      656D6170 
 3959      686F7265 
 3959      00
 3960              	.LASF127:
 3961 0410 63685363 		.ascii	"chSchGoSleepS\000"
 3961      68476F53 
 3961      6C656570 
 3961      5300
ARM GAS  /tmp/cc4Q69ox.s 			page 74


 3962              	.LASF83:
 3963 041e 72656769 		.ascii	"registry_t\000"
 3963      73747279 
 3963      5F7400
 3964              	.LASF16:
 3965 0429 75696E74 		.ascii	"uint32_t\000"
 3965      33325F74 
 3965      00
 3966              	.LASF93:
 3967 0432 77746D74 		.ascii	"wtmtxp\000"
 3967      787000
 3968              	.LASF128:
 3969 0439 63685363 		.ascii	"chSchReadyI\000"
 3969      68526561 
 3969      64794900 
 3970              	.LASF30:
 3971 0445 6F776E65 		.ascii	"owner\000"
 3971      7200
 3972              	.LASF2:
 3973 044b 6C6F6E67 		.ascii	"long double\000"
 3973      20646F75 
 3973      626C6500 
 3974              	.LASF32:
 3975 0457 77616261 		.ascii	"wabase\000"
 3975      736500
 3976              	.LASF58:
 3977 045e 63686172 		.ascii	"char\000"
 3977      00
 3978              	.LASF50:
 3979 0463 636F6E66 		.ascii	"config\000"
 3979      696700
 3980              	.LASF28:
 3981 046a 74687265 		.ascii	"thread_t\000"
 3981      61645F74 
 3981      00
 3982              	.LASF77:
 3983 0473 646C6973 		.ascii	"dlist\000"
 3983      7400
 3984              	.LASF60:
 3985 0479 73797374 		.ascii	"systime_t\000"
 3985      696D655F 
 3985      7400
 3986              	.LASF8:
 3987 0483 5F5F696E 		.ascii	"__int32_t\000"
 3987      7433325F 
 3987      7400
 3988              	.LASF120:
 3989 048d 5F5F7365 		.ascii	"__set_BASEPRI\000"
 3989      745F4241 
 3989      53455052 
 3989      4900
 3990              	.LASF57:
 3991 049b 70616E69 		.ascii	"panic_msg\000"
 3991      635F6D73 
 3991      6700
 3992              	.LASF86:
 3993 04a5 70717565 		.ascii	"pqueue\000"
ARM GAS  /tmp/cc4Q69ox.s 			page 75


 3993      756500
 3994              	.LASF44:
 3995 04ac 63685F6F 		.ascii	"ch_os_instance\000"
 3995      735F696E 
 3995      7374616E 
 3995      636500
 3996              	.LASF42:
 3997 04bb 6F735F69 		.ascii	"os_instance_t\000"
 3997      6E737461 
 3997      6E63655F 
 3997      7400
 3998              	.LASF47:
 3999 04c9 7265676C 		.ascii	"reglist\000"
 3999      69737400 
 4000              	.LASF69:
 4001 04d1 63685F70 		.ascii	"ch_priority_queue\000"
 4001      72696F72 
 4001      6974795F 
 4001      71756575 
 4001      6500
 4002              	.LASF131:
 4003 04e3 2F686F6D 		.ascii	"/home/bhimebau/forge/analog_in_out/application\000"
 4003      652F6268 
 4003      696D6562 
 4003      61752F66 
 4003      6F726765 
 4004              	.LASF109:
 4005 0512 63684D73 		.ascii	"chMsgPollS\000"
 4005      67506F6C 
 4005      6C5300
 4006              	.LASF102:
 4007 051d 6D61696E 		.ascii	"mainthread_end\000"
 4007      74687265 
 4007      61645F65 
 4007      6E6400
 4008              	.LASF125:
 4009 052c 63685363 		.ascii	"chSchWakeupS\000"
 4009      6857616B 
 4009      65757053 
 4009      00
 4010              	.LASF105:
 4011 0539 6F735F69 		.ascii	"os_instance_config_t\000"
 4011      6E737461 
 4011      6E63655F 
 4011      636F6E66 
 4011      69675F74 
 4012              	.LASF96:
 4013 054e 63685F6D 		.ascii	"ch_mutex\000"
 4013      75746578 
 4013      00
 4014              	.LASF45:
 4015 0557 726C6973 		.ascii	"rlist\000"
 4015      7400
 4016              	.LASF133:
 4017 055d 63685468 		.ascii	"chThdGetSelfX\000"
 4017      64476574 
 4017      53656C66 
ARM GAS  /tmp/cc4Q69ox.s 			page 76


 4017      5800
 4018              	.LASF14:
 4019 056b 75696E74 		.ascii	"uint8_t\000"
 4019      385F7400 
 4020              	.LASF34:
 4021 0573 666C6167 		.ascii	"flags\000"
 4021      7300
 4022              	.LASF89:
 4023 0579 77746F62 		.ascii	"wtobjp\000"
 4023      6A7000
 4024              	.LASF129:
 4025 0580 474E5520 		.ascii	"GNU C17 10.3.1 20210621 (release) -mcpu=cortex-m4 -"
 4025      43313720 
 4025      31302E33 
 4025      2E312032 
 4025      30323130 
 4026 05b3 6D746875 		.ascii	"mthumb -mfloat-abi=soft -march=armv7e-m -ggdb -O2 -"
 4026      6D62202D 
 4026      6D666C6F 
 4026      61742D61 
 4026      62693D73 
 4027 05e6 666F6D69 		.ascii	"fomit-frame-pointer -falign-functions=16 -ffunction"
 4027      742D6672 
 4027      616D652D 
 4027      706F696E 
 4027      74657220 
 4028 0619 2D736563 		.ascii	"-sections -fdata-sections -fno-common\000"
 4028      74696F6E 
 4028      73202D66 
 4028      64617461 
 4028      2D736563 
 4029              	.LASF126:
 4030 063f 63685363 		.ascii	"chSchGoSleepTimeoutS\000"
 4030      68476F53 
 4030      6C656570 
 4030      54696D65 
 4030      6F757453 
 4031              	.LASF116:
 4032 0654 63685379 		.ascii	"chSysUnlock\000"
 4032      73556E6C 
 4032      6F636B00 
 4033              	.LASF115:
 4034 0660 63684D73 		.ascii	"chMsgReleaseS\000"
 4034      6752656C 
 4034      65617365 
 4034      5300
 4035              	.LASF85:
 4036 066e 6C697374 		.ascii	"list\000"
 4036      00
 4037              	.LASF119:
 4038 0673 706F7274 		.ascii	"port_lock\000"
 4038      5F6C6F63 
 4038      6B00
 4039              	.LASF104:
 4040 067d 69646C65 		.ascii	"idlethread_end\000"
 4040      74687265 
 4040      61645F65 
ARM GAS  /tmp/cc4Q69ox.s 			page 77


 4040      6E6400
 4041              	.LASF39:
 4042 068c 6D74786C 		.ascii	"mtxlist\000"
 4042      69737400 
 4043              		.ident	"GCC: (GNU Arm Embedded Toolchain 10.3-2021.07) 10.3.1 20210621 (release)"
ARM GAS  /tmp/cc4Q69ox.s 			page 78


DEFINED SYMBOLS
                            *ABS*:0000000000000000 chmsg.c
     /tmp/cc4Q69ox.s:16     .text.chMsgSend:0000000000000000 $t
     /tmp/cc4Q69ox.s:25     .text.chMsgSend:0000000000000000 chMsgSend
     /tmp/cc4Q69ox.s:225    .text.chMsgSend:000000000000003c $d
     /tmp/cc4Q69ox.s:230    .text.chMsgWaitS:0000000000000000 $t
     /tmp/cc4Q69ox.s:238    .text.chMsgWaitS:0000000000000000 chMsgWaitS
     /tmp/cc4Q69ox.s:336    .text.chMsgWaitS:0000000000000028 $d
     /tmp/cc4Q69ox.s:343    .text.chMsgWaitTimeoutS:0000000000000000 $t
     /tmp/cc4Q69ox.s:351    .text.chMsgWaitTimeoutS:0000000000000000 chMsgWaitTimeoutS
     /tmp/cc4Q69ox.s:469    .text.chMsgWaitTimeoutS:0000000000000030 $d
     /tmp/cc4Q69ox.s:474    .text.chMsgPollS:0000000000000000 $t
     /tmp/cc4Q69ox.s:482    .text.chMsgPollS:0000000000000000 chMsgPollS
     /tmp/cc4Q69ox.s:560    .text.chMsgPollS:0000000000000024 $d
     /tmp/cc4Q69ox.s:565    .text.chMsgRelease:0000000000000000 $t
     /tmp/cc4Q69ox.s:573    .text.chMsgRelease:0000000000000000 chMsgRelease

UNDEFINED SYMBOLS
chSchGoSleepS
chSchReadyI
ch0
chSchGoSleepTimeoutS
chSchWakeupS
