ARM GAS  /tmp/cc4Q69ox.s 			page 1


   1              		.cpu cortex-m4
   2              		.eabi_attribute 20, 1
   3              		.eabi_attribute 21, 1
   4              		.eabi_attribute 23, 3
   5              		.eabi_attribute 24, 1
   6              		.eabi_attribute 25, 1
   7              		.eabi_attribute 26, 1
   8              		.eabi_attribute 30, 2
   9              		.eabi_attribute 34, 1
  10              		.eabi_attribute 18, 4
  11              		.file	"chmsg.c"
  12              		.text
  13              	.Ltext0:
  14              		.cfi_sections	.debug_frame
  15              		.section	.text.chMsgSend,"ax",%progbits
  16              		.align	1
  17              		.p2align 4,,15
  18              		.global	chMsgSend
  19              		.arch armv7e-m
  20              		.syntax unified
  21              		.thumb
  22              		.thumb_func
  23              		.fpu softvfp
  24              		.type	chMsgSend, %function
  25              	chMsgSend:
  26              	.LVL0:
  27              	.LFB335:
  28              		.file 1 "../ChibiOS/os/rt/src/chmsg.c"
  29              		.loc 1 81 42 view -0
  30              		.cfi_startproc
  31              		@ args = 0, pretend = 0, frame = 0
  32              		@ frame_needed = 0, uses_anonymous_args = 0
  33              		.loc 1 82 3 view .LVU1
  34              	.LBB58:
  35              	.LBI58:
  36              		.file 2 "../ChibiOS/os/rt/include/chthreads.h"
  37              		.loc 2 341 25 view .LVU2
  38              	.LBB59:
  39              		.loc 2 343 3 view .LVU3
  40              	.LBE59:
  41              	.LBE58:
  42              		.loc 1 81 42 is_stmt 0 view .LVU4
  43 0000 38B5     		push	{r3, r4, r5, lr}
  44              		.cfi_def_cfa_offset 16
  45              		.cfi_offset 3, -16
  46              		.cfi_offset 4, -12
  47              		.cfi_offset 5, -8
  48              		.cfi_offset 14, -4
  49              	.LBB62:
  50              	.LBB60:
  51              		.loc 2 343 10 view .LVU5
  52 0002 0E4B     		ldr	r3, .L6
  53              	.LBE60:
  54              	.LBE62:
  55              	.LBB63:
  56              	.LBB64:
  57              	.LBB65:
ARM GAS  /tmp/cc4Q69ox.s 			page 2


  58              	.LBB66:
  59              		.file 3 "../ChibiOS/os/common/ext/ARM/CMSIS/Core/Include/cmsis_gcc.h"
  60              		.loc 3 493 3 view .LVU6
  61 0004 3022     		movs	r2, #48
  62              	.LBE66:
  63              	.LBE65:
  64              	.LBE64:
  65              	.LBE63:
  66              	.LBB71:
  67              	.LBB61:
  68              		.loc 2 343 10 view .LVU7
  69 0006 DC68     		ldr	r4, [r3, #12]
  70              	.LVL1:
  71              		.loc 2 343 10 view .LVU8
  72              	.LBE61:
  73              	.LBE71:
  74              		.loc 1 84 3 is_stmt 1 view .LVU9
  75              		.loc 1 84 3 view .LVU10
  76              		.loc 1 84 3 view .LVU11
  77              		.loc 1 86 3 view .LVU12
  78              	.LBB72:
  79              	.LBI63:
  80              		.file 4 "../ChibiOS/os/rt/include/chsys.h"
  81              		.loc 4 407 20 view .LVU13
  82              	.LBE72:
  83              		.loc 4 409 3 view .LVU14
  84              	.LBB73:
  85              	.LBB69:
  86              	.LBI64:
  87              		.file 5 "../ChibiOS/os/common/ports/ARMv7-M/chcore.h"
  88              		.loc 5 806 27 view .LVU15
  89              	.LBE69:
  90              	.LBE73:
  91              		.loc 5 814 3 view .LVU16
  92              	.LBB74:
  93              	.LBB70:
  94              	.LBB68:
  95              	.LBI65:
  96              		.loc 3 491 27 view .LVU17
  97              	.LBB67:
  98              		.loc 3 493 3 view .LVU18
  99              		.syntax unified
 100              	@ 493 "../ChibiOS/os/common/ext/ARM/CMSIS/Core/Include/cmsis_gcc.h" 1
 101 0008 82F31188 		MSR basepri, r2
 102              	@ 0 "" 2
 103              	.LVL2:
 104              		.loc 3 493 3 is_stmt 0 view .LVU19
 105              		.thumb
 106              		.syntax unified
 107              	.LBE67:
 108              	.LBE68:
 109              	.LBE70:
 110              	.LBE74:
 111              		.loc 4 410 35 is_stmt 1 view .LVU20
 112              		.loc 4 411 21 view .LVU21
 113              		.loc 1 87 3 view .LVU22
 114              	.LBB75:
ARM GAS  /tmp/cc4Q69ox.s 			page 3


 115              	.LBB76:
 116              		.file 6 "../ChibiOS/os/rt/include/chlists.h"
 117              		.loc 6 265 21 is_stmt 0 view .LVU23
 118 000c 426B     		ldr	r2, [r0, #52]
 119              		.loc 6 265 17 view .LVU24
 120 000e 6260     		str	r2, [r4, #4]
 121              	.LBE76:
 122              	.LBE75:
 123              		.loc 1 88 3 view .LVU25
 124 0010 00F13005 		add	r5, r0, #48
 125              	.LBB80:
 126              	.LBB77:
 127              		.loc 6 264 17 view .LVU26
 128 0014 2560     		str	r5, [r4]
 129              	.LBE77:
 130              	.LBE80:
 131              		.loc 1 87 21 view .LVU27
 132 0016 A162     		str	r1, [r4, #40]
 133              		.loc 1 88 3 is_stmt 1 view .LVU28
 134              	.LVL3:
 135              	.LBB81:
 136              	.LBI75:
 137              		.loc 6 262 20 view .LVU29
 138              	.LBB78:
 139              		.loc 6 264 3 view .LVU30
 140              		.loc 6 265 3 view .LVU31
 141              		.loc 6 266 3 view .LVU32
 142              		.loc 6 266 17 is_stmt 0 view .LVU33
 143 0018 1460     		str	r4, [r2]
 144              		.loc 6 267 3 is_stmt 1 view .LVU34
 145              	.LBE78:
 146              	.LBE81:
 147              		.loc 1 89 6 is_stmt 0 view .LVU35
 148 001a 90F82420 		ldrb	r2, [r0, #36]	@ zero_extendqisi2
 149              	.LBB82:
 150              	.LBB79:
 151              		.loc 6 267 17 view .LVU36
 152 001e 4463     		str	r4, [r0, #52]
 153              	.LVL4:
 154              		.loc 6 267 17 view .LVU37
 155              	.LBE79:
 156              	.LBE82:
 157              		.loc 1 89 3 is_stmt 1 view .LVU38
 158              		.loc 1 89 6 is_stmt 0 view .LVU39
 159 0020 0E2A     		cmp	r2, #14
 160 0022 07D0     		beq	.L5
 161              	.LVL5:
 162              	.L2:
 163              		.loc 1 92 3 is_stmt 1 view .LVU40
 164 0024 0C20     		movs	r0, #12
 165 0026 FFF7FEFF 		bl	chSchGoSleepS
 166              	.LVL6:
 167              		.loc 1 93 3 view .LVU41
 168              		.loc 1 93 7 is_stmt 0 view .LVU42
 169 002a A06A     		ldr	r0, [r4, #40]
 170              	.LVL7:
 171              		.loc 1 94 3 is_stmt 1 view .LVU43
ARM GAS  /tmp/cc4Q69ox.s 			page 4


 172              	.LBB83:
 173              	.LBI83:
 174              		.loc 4 421 20 view .LVU44
 175              	.LBB84:
 176              		.loc 4 423 23 view .LVU45
 177              		.loc 4 424 34 view .LVU46
 178              		.loc 4 430 3 view .LVU47
 179              		.loc 4 430 3 view .LVU48
 180              		.loc 4 430 3 view .LVU49
 181              		.loc 4 434 3 view .LVU50
 182              	.LBB85:
 183              	.LBI85:
 184              		.loc 5 830 27 view .LVU51
 185              	.LBE85:
 186              	.LBE84:
 187              	.LBE83:
 188              		.loc 5 833 3 view .LVU52
 189              	.LBB90:
 190              	.LBB89:
 191              	.LBB88:
 192              	.LBB86:
 193              	.LBI86:
 194              		.loc 3 491 27 view .LVU53
 195              	.LBB87:
 196              		.loc 3 493 3 view .LVU54
 197 002c 0023     		movs	r3, #0
 198              		.syntax unified
 199              	@ 493 "../ChibiOS/os/common/ext/ARM/CMSIS/Core/Include/cmsis_gcc.h" 1
 200 002e 83F31188 		MSR basepri, r3
 201              	@ 0 "" 2
 202              	.LVL8:
 203              		.loc 3 493 3 is_stmt 0 view .LVU55
 204              		.thumb
 205              		.syntax unified
 206              	.LBE87:
 207              	.LBE86:
 208              	.LBE88:
 209              	.LBE89:
 210              	.LBE90:
 211              		.loc 1 96 3 is_stmt 1 view .LVU56
 212              		.loc 1 97 1 is_stmt 0 view .LVU57
 213 0032 38BD     		pop	{r3, r4, r5, pc}
 214              	.LVL9:
 215              	.L5:
 216              		.loc 1 90 5 is_stmt 1 view .LVU58
 217              		.loc 1 90 12 is_stmt 0 view .LVU59
 218 0034 FFF7FEFF 		bl	chSchReadyI
 219              	.LVL10:
 220              		.loc 1 90 12 view .LVU60
 221 0038 F4E7     		b	.L2
 222              	.L7:
 223 003a 00BF     		.align	2
 224              	.L6:
 225 003c 00000000 		.word	ch0
 226              		.cfi_endproc
 227              	.LFE335:
 228              		.size	chMsgSend, .-chMsgSend
ARM GAS  /tmp/cc4Q69ox.s 			page 5


 229              		.section	.text.chMsgWaitS,"ax",%progbits
 230              		.align	1
 231              		.p2align 4,,15
 232              		.global	chMsgWaitS
 233              		.syntax unified
 234              		.thumb
 235              		.thumb_func
 236              		.fpu softvfp
 237              		.type	chMsgWaitS, %function
 238              	chMsgWaitS:
 239              	.LFB336:
 240              		.loc 1 115 28 is_stmt 1 view -0
 241              		.cfi_startproc
 242              		@ args = 0, pretend = 0, frame = 0
 243              		@ frame_needed = 0, uses_anonymous_args = 0
 244              		.loc 1 116 3 view .LVU62
 245              	.LBB91:
 246              	.LBI91:
 247              		.loc 2 341 25 view .LVU63
 248              	.LBB92:
 249              		.loc 2 343 3 view .LVU64
 250              	.LBE92:
 251              	.LBE91:
 252              		.loc 1 115 28 is_stmt 0 view .LVU65
 253 0000 38B5     		push	{r3, r4, r5, lr}
 254              		.cfi_def_cfa_offset 16
 255              		.cfi_offset 3, -16
 256              		.cfi_offset 4, -12
 257              		.cfi_offset 5, -8
 258              		.cfi_offset 14, -4
 259              	.LBB94:
 260              	.LBB93:
 261              		.loc 2 343 10 view .LVU66
 262 0002 094B     		ldr	r3, .L12
 263 0004 DD68     		ldr	r5, [r3, #12]
 264              	.LVL11:
 265              		.loc 2 343 10 view .LVU67
 266              	.LBE93:
 267              	.LBE94:
 268              		.loc 1 117 3 is_stmt 1 view .LVU68
 269              		.loc 1 119 21 view .LVU69
 270              		.loc 1 121 3 view .LVU70
 271              	.LBB95:
 272              	.LBI95:
 273              		.file 7 "../ChibiOS/os/rt/include/chmsg.h"
 274              		.loc 7 173 20 view .LVU71
 275              	.LBB96:
 276              		.loc 7 175 21 view .LVU72
 277              		.loc 7 177 3 view .LVU73
 278              		.loc 7 177 29 is_stmt 0 view .LVU74
 279 0006 2C46     		mov	r4, r5
 280 0008 54F8300F 		ldr	r0, [r4, #48]!
 281              	.LVL12:
 282              		.loc 7 177 29 view .LVU75
 283              	.LBE96:
 284              	.LBE95:
 285              		.loc 1 121 6 view .LVU76
ARM GAS  /tmp/cc4Q69ox.s 			page 6


 286 000c 8442     		cmp	r4, r0
 287 000e 06D0     		beq	.L11
 288              	.L9:
 289              		.loc 1 124 3 is_stmt 1 view .LVU77
 290              	.LVL13:
 291              	.LBB97:
 292              	.LBI97:
 293              		.loc 6 280 27 view .LVU78
 294              	.LBB98:
 295              		.loc 6 281 3 view .LVU79
 296              		.loc 6 283 3 view .LVU80
 297              		.loc 6 283 21 is_stmt 0 view .LVU81
 298 0010 0368     		ldr	r3, [r0]
 299              		.loc 6 283 18 view .LVU82
 300 0012 2B63     		str	r3, [r5, #48]
 301              	.LVL14:
 302              		.loc 6 284 3 is_stmt 1 view .LVU83
 303              	.LBE98:
 304              	.LBE97:
 305              		.loc 1 125 13 is_stmt 0 view .LVU84
 306 0014 0D22     		movs	r2, #13
 307              	.LBB101:
 308              	.LBB99:
 309              		.loc 6 284 18 view .LVU85
 310 0016 5C60     		str	r4, [r3, #4]
 311              		.loc 6 286 3 is_stmt 1 view .LVU86
 312              	.LVL15:
 313              		.loc 6 286 3 is_stmt 0 view .LVU87
 314              	.LBE99:
 315              	.LBE101:
 316              		.loc 1 125 3 is_stmt 1 view .LVU88
 317              		.loc 1 125 13 is_stmt 0 view .LVU89
 318 0018 80F82420 		strb	r2, [r0, #36]
 319              		.loc 1 127 3 is_stmt 1 view .LVU90
 320              		.loc 1 128 1 is_stmt 0 view .LVU91
 321 001c 38BD     		pop	{r3, r4, r5, pc}
 322              	.LVL16:
 323              	.L11:
 324              		.loc 1 122 5 is_stmt 1 view .LVU92
 325 001e 0E20     		movs	r0, #14
 326 0020 FFF7FEFF 		bl	chSchGoSleepS
 327              	.LVL17:
 328              	.LBB102:
 329              	.LBB100:
 330              		.loc 6 281 15 is_stmt 0 view .LVU93
 331 0024 286B     		ldr	r0, [r5, #48]
 332 0026 F3E7     		b	.L9
 333              	.L13:
 334              		.align	2
 335              	.L12:
 336 0028 00000000 		.word	ch0
 337              	.LBE100:
 338              	.LBE102:
 339              		.cfi_endproc
 340              	.LFE336:
 341              		.size	chMsgWaitS, .-chMsgWaitS
 342              		.section	.text.chMsgWaitTimeoutS,"ax",%progbits
ARM GAS  /tmp/cc4Q69ox.s 			page 7


 343              		.align	1
 344              		.p2align 4,,15
 345              		.global	chMsgWaitTimeoutS
 346              		.syntax unified
 347              		.thumb
 348              		.thumb_func
 349              		.fpu softvfp
 350              		.type	chMsgWaitTimeoutS, %function
 351              	chMsgWaitTimeoutS:
 352              	.LVL18:
 353              	.LFB337:
 354              		.loc 1 152 52 is_stmt 1 view -0
 355              		.cfi_startproc
 356              		@ args = 0, pretend = 0, frame = 0
 357              		@ frame_needed = 0, uses_anonymous_args = 0
 358              		.loc 1 153 3 view .LVU95
 359              	.LBB103:
 360              	.LBI103:
 361              		.loc 2 341 25 view .LVU96
 362              	.LBB104:
 363              		.loc 2 343 3 view .LVU97
 364              	.LBE104:
 365              	.LBE103:
 366              		.loc 1 152 52 is_stmt 0 view .LVU98
 367 0000 38B5     		push	{r3, r4, r5, lr}
 368              		.cfi_def_cfa_offset 16
 369              		.cfi_offset 3, -16
 370              		.cfi_offset 4, -12
 371              		.cfi_offset 5, -8
 372              		.cfi_offset 14, -4
 373              	.LBB106:
 374              	.LBB105:
 375              		.loc 2 343 10 view .LVU99
 376 0002 0B4B     		ldr	r3, .L20
 377 0004 DD68     		ldr	r5, [r3, #12]
 378              	.LVL19:
 379              		.loc 2 343 10 view .LVU100
 380              	.LBE105:
 381              	.LBE106:
 382              		.loc 1 154 3 is_stmt 1 view .LVU101
 383              		.loc 1 156 21 view .LVU102
 384              		.loc 1 158 3 view .LVU103
 385              	.LBB107:
 386              	.LBI107:
 387              		.loc 7 173 20 view .LVU104
 388              	.LBB108:
 389              		.loc 7 175 21 view .LVU105
 390              		.loc 7 177 3 view .LVU106
 391              		.loc 7 177 29 is_stmt 0 view .LVU107
 392 0006 2C46     		mov	r4, r5
 393              	.LBE108:
 394              	.LBE107:
 395              		.loc 1 152 52 view .LVU108
 396 0008 0146     		mov	r1, r0
 397              	.LBB110:
 398              	.LBB109:
 399              		.loc 7 177 29 view .LVU109
ARM GAS  /tmp/cc4Q69ox.s 			page 8


 400 000a 54F8300F 		ldr	r0, [r4, #48]!
 401              	.LVL20:
 402              		.loc 7 177 29 view .LVU110
 403              	.LBE109:
 404              	.LBE110:
 405              		.loc 1 158 6 view .LVU111
 406 000e 8442     		cmp	r4, r0
 407 0010 06D0     		beq	.L19
 408              	.LVL21:
 409              	.L15:
 410              		.loc 1 163 3 is_stmt 1 view .LVU112
 411              	.LBB111:
 412              	.LBI111:
 413              		.loc 6 280 27 view .LVU113
 414              	.LBB112:
 415              		.loc 6 281 3 view .LVU114
 416              		.loc 6 283 3 view .LVU115
 417              		.loc 6 283 21 is_stmt 0 view .LVU116
 418 0012 0368     		ldr	r3, [r0]
 419              		.loc 6 283 18 view .LVU117
 420 0014 2B63     		str	r3, [r5, #48]
 421              	.LVL22:
 422              		.loc 6 284 3 is_stmt 1 view .LVU118
 423              	.LBE112:
 424              	.LBE111:
 425              		.loc 1 164 13 is_stmt 0 view .LVU119
 426 0016 0D22     		movs	r2, #13
 427              	.LBB115:
 428              	.LBB113:
 429              		.loc 6 284 18 view .LVU120
 430 0018 5C60     		str	r4, [r3, #4]
 431              		.loc 6 286 3 is_stmt 1 view .LVU121
 432              	.LVL23:
 433              		.loc 6 286 3 is_stmt 0 view .LVU122
 434              	.LBE113:
 435              	.LBE115:
 436              		.loc 1 164 3 is_stmt 1 view .LVU123
 437              		.loc 1 164 13 is_stmt 0 view .LVU124
 438 001a 80F82420 		strb	r2, [r0, #36]
 439              		.loc 1 166 3 is_stmt 1 view .LVU125
 440              		.loc 1 167 1 is_stmt 0 view .LVU126
 441 001e 38BD     		pop	{r3, r4, r5, pc}
 442              	.LVL24:
 443              	.L19:
 444              		.loc 1 159 5 is_stmt 1 view .LVU127
 445              		.loc 1 159 9 is_stmt 0 view .LVU128
 446 0020 0E20     		movs	r0, #14
 447 0022 FFF7FEFF 		bl	chSchGoSleepTimeoutS
 448              	.LVL25:
 449              		.loc 1 159 8 view .LVU129
 450 0026 08B9     		cbnz	r0, .L17
 451              	.LBB116:
 452              	.LBB114:
 453              		.loc 6 281 15 view .LVU130
 454 0028 286B     		ldr	r0, [r5, #48]
 455 002a F2E7     		b	.L15
 456              	.L17:
ARM GAS  /tmp/cc4Q69ox.s 			page 9


 457              		.loc 6 281 15 view .LVU131
 458              	.LBE114:
 459              	.LBE116:
 460              		.loc 1 160 14 view .LVU132
 461 002c 0020     		movs	r0, #0
 462              		.loc 1 167 1 view .LVU133
 463 002e 38BD     		pop	{r3, r4, r5, pc}
 464              	.LVL26:
 465              	.L21:
 466              		.loc 1 167 1 view .LVU134
 467              		.align	2
 468              	.L20:
 469 0030 00000000 		.word	ch0
 470              		.cfi_endproc
 471              	.LFE337:
 472              		.size	chMsgWaitTimeoutS, .-chMsgWaitTimeoutS
 473              		.section	.text.chMsgPollS,"ax",%progbits
 474              		.align	1
 475              		.p2align 4,,15
 476              		.global	chMsgPollS
 477              		.syntax unified
 478              		.thumb
 479              		.thumb_func
 480              		.fpu softvfp
 481              		.type	chMsgPollS, %function
 482              	chMsgPollS:
 483              	.LFB338:
 484              		.loc 1 186 28 is_stmt 1 view -0
 485              		.cfi_startproc
 486              		@ args = 0, pretend = 0, frame = 0
 487              		@ frame_needed = 0, uses_anonymous_args = 0
 488              		@ link register save eliminated.
 489              		.loc 1 187 3 view .LVU136
 490              	.LBB117:
 491              	.LBI117:
 492              		.loc 2 341 25 view .LVU137
 493              	.LBB118:
 494              		.loc 2 343 3 view .LVU138
 495              		.loc 2 343 10 is_stmt 0 view .LVU139
 496 0000 084B     		ldr	r3, .L25
 497 0002 DA68     		ldr	r2, [r3, #12]
 498              	.LVL27:
 499              		.loc 2 343 10 view .LVU140
 500              	.LBE118:
 501              	.LBE117:
 502              		.loc 1 188 3 is_stmt 1 view .LVU141
 503              		.loc 1 190 3 view .LVU142
 504              	.LBB119:
 505              	.LBI119:
 506              		.loc 7 173 20 view .LVU143
 507              	.LBB120:
 508              		.loc 7 175 21 view .LVU144
 509              		.loc 7 177 3 view .LVU145
 510              		.loc 7 177 29 is_stmt 0 view .LVU146
 511 0004 1346     		mov	r3, r2
 512 0006 53F8300F 		ldr	r0, [r3, #48]!
 513              	.LVL28:
ARM GAS  /tmp/cc4Q69ox.s 			page 10


 514              		.loc 7 177 29 view .LVU147
 515              	.LBE120:
 516              	.LBE119:
 517              		.loc 1 190 6 view .LVU148
 518 000a 8342     		cmp	r3, r0
 519 000c 07D0     		beq	.L24
 520              		.loc 1 191 5 is_stmt 1 view .LVU149
 521              	.LVL29:
 522              	.LBB121:
 523              	.LBI121:
 524              		.loc 6 280 27 view .LVU150
 525              	.LBB122:
 526              		.loc 6 281 3 view .LVU151
 527              		.loc 6 283 3 view .LVU152
 528              		.loc 6 283 21 is_stmt 0 view .LVU153
 529 000e 0168     		ldr	r1, [r0]
 530              		.loc 6 283 18 view .LVU154
 531 0010 1163     		str	r1, [r2, #48]
 532              		.loc 6 284 3 is_stmt 1 view .LVU155
 533              	.LBE122:
 534              	.LBE121:
 535              		.loc 1 192 15 is_stmt 0 view .LVU156
 536 0012 4FF00D0C 		mov	ip, #13
 537              	.LBB124:
 538              	.LBB123:
 539              		.loc 6 284 18 view .LVU157
 540 0016 4B60     		str	r3, [r1, #4]
 541              		.loc 6 286 3 is_stmt 1 view .LVU158
 542              	.LVL30:
 543              		.loc 6 286 3 is_stmt 0 view .LVU159
 544              	.LBE123:
 545              	.LBE124:
 546              		.loc 1 192 5 is_stmt 1 view .LVU160
 547              		.loc 1 192 15 is_stmt 0 view .LVU161
 548 0018 80F824C0 		strb	ip, [r0, #36]
 549 001c 7047     		bx	lr
 550              	.LVL31:
 551              	.L24:
 552              		.loc 1 188 13 view .LVU162
 553 001e 0020     		movs	r0, #0
 554              		.loc 1 195 3 is_stmt 1 view .LVU163
 555              		.loc 1 196 1 is_stmt 0 view .LVU164
 556 0020 7047     		bx	lr
 557              	.L26:
 558 0022 00BF     		.align	2
 559              	.L25:
 560 0024 00000000 		.word	ch0
 561              		.cfi_endproc
 562              	.LFE338:
 563              		.size	chMsgPollS, .-chMsgPollS
 564              		.section	.text.chMsgRelease,"ax",%progbits
 565              		.align	1
 566              		.p2align 4,,15
 567              		.global	chMsgRelease
 568              		.syntax unified
 569              		.thumb
 570              		.thumb_func
ARM GAS  /tmp/cc4Q69ox.s 			page 11


 571              		.fpu softvfp
 572              		.type	chMsgRelease, %function
 573              	chMsgRelease:
 574              	.LVL32:
 575              	.LFB339:
 576              		.loc 1 208 44 is_stmt 1 view -0
 577              		.cfi_startproc
 578              		@ args = 0, pretend = 0, frame = 0
 579              		@ frame_needed = 0, uses_anonymous_args = 0
 580              		.loc 1 210 3 view .LVU166
 581              	.LBB125:
 582              	.LBI125:
 583              		.loc 4 407 20 view .LVU167
 584              	.LBE125:
 585              		.loc 4 409 3 view .LVU168
 586              	.LBB133:
 587              	.LBB126:
 588              	.LBI126:
 589              		.loc 5 806 27 view .LVU169
 590              	.LBE126:
 591              	.LBE133:
 592              		.loc 5 814 3 view .LVU170
 593              	.LBB134:
 594              	.LBB131:
 595              	.LBB127:
 596              	.LBI127:
 597              		.loc 3 491 27 view .LVU171
 598              	.LBB128:
 599              		.loc 3 493 3 view .LVU172
 600              	.LBE128:
 601              	.LBE127:
 602              	.LBE131:
 603              	.LBE134:
 604              		.loc 1 208 44 is_stmt 0 view .LVU173
 605 0000 08B5     		push	{r3, lr}
 606              		.cfi_def_cfa_offset 8
 607              		.cfi_offset 3, -8
 608              		.cfi_offset 14, -4
 609              	.LBB135:
 610              	.LBB132:
 611              	.LBB130:
 612              	.LBB129:
 613              		.loc 3 493 3 view .LVU174
 614 0002 3023     		movs	r3, #48
 615              		.syntax unified
 616              	@ 493 "../ChibiOS/os/common/ext/ARM/CMSIS/Core/Include/cmsis_gcc.h" 1
 617 0004 83F31188 		MSR basepri, r3
 618              	@ 0 "" 2
 619              	.LVL33:
 620              		.loc 3 493 3 view .LVU175
 621              		.thumb
 622              		.syntax unified
 623              	.LBE129:
 624              	.LBE130:
 625              	.LBE132:
 626              	.LBE135:
 627              		.loc 4 410 35 is_stmt 1 view .LVU176
ARM GAS  /tmp/cc4Q69ox.s 			page 12


 628              		.loc 4 411 21 view .LVU177
 629              		.loc 1 211 3 view .LVU178
 630              		.loc 1 211 3 view .LVU179
 631              		.loc 1 211 3 view .LVU180
 632              		.loc 1 212 3 view .LVU181
 633              	.LBB136:
 634              	.LBI136:
 635              		.loc 7 207 20 view .LVU182
 636              	.LBB137:
 637              		.loc 7 209 21 view .LVU183
 638              		.loc 7 211 3 view .LVU184
 639 0008 FFF7FEFF 		bl	chSchWakeupS
 640              	.LVL34:
 641              		.loc 7 211 3 is_stmt 0 view .LVU185
 642              	.LBE137:
 643              	.LBE136:
 644              		.loc 1 213 3 is_stmt 1 view .LVU186
 645              	.LBB138:
 646              	.LBI138:
 647              		.loc 4 421 20 view .LVU187
 648              	.LBB139:
 649              		.loc 4 423 23 view .LVU188
 650              		.loc 4 424 34 view .LVU189
 651              		.loc 4 430 3 view .LVU190
 652              		.loc 4 430 3 view .LVU191
 653              		.loc 4 430 3 view .LVU192
 654              		.loc 4 434 3 view .LVU193
 655              	.LBB140:
 656              	.LBI140:
 657              		.loc 5 830 27 view .LVU194
 658              	.LBE140:
 659              	.LBE139:
 660              	.LBE138:
 661              		.loc 5 833 3 view .LVU195
 662              	.LBB145:
 663              	.LBB144:
 664              	.LBB143:
 665              	.LBB141:
 666              	.LBI141:
 667              		.loc 3 491 27 view .LVU196
 668              	.LBB142:
 669              		.loc 3 493 3 view .LVU197
 670 000c 0023     		movs	r3, #0
 671              		.syntax unified
 672              	@ 493 "../ChibiOS/os/common/ext/ARM/CMSIS/Core/Include/cmsis_gcc.h" 1
 673 000e 83F31188 		MSR basepri, r3
 674              	@ 0 "" 2
 675              	.LVL35:
 676              		.loc 3 493 3 is_stmt 0 view .LVU198
 677              		.thumb
 678              		.syntax unified
 679              	.LBE142:
 680              	.LBE141:
 681              	.LBE143:
 682              	.LBE144:
 683              	.LBE145:
 684              		.loc 1 214 1 view .LVU199
ARM GAS  /tmp/cc4Q69ox.s 			page 13


 685 0012 08BD     		pop	{r3, pc}
 686              		.cfi_endproc
 687              	.LFE339:
 688              		.size	chMsgRelease, .-chMsgRelease
 689              		.text
 690              	.Letext0:
 691              		.file 8 "/opt/gcc-arm-none-eabi/gcc-arm-none-eabi-10.3-2021.07/arm-none-eabi/include/machine/_defa
 692              		.file 9 "/opt/gcc-arm-none-eabi/gcc-arm-none-eabi-10.3-2021.07/arm-none-eabi/include/sys/_stdint.h
 693              		.file 10 "../ChibiOS/os/common/ports/ARM-common/chtypes.h"
 694              		.file 11 "../ChibiOS/os/rt/include/chearly.h"
 695              		.file 12 "../ChibiOS/os/rt/include/chobjects.h"
 696              		.file 13 "../ChibiOS/os/rt/include/chrfcu.h"
 697              		.file 14 "../ChibiOS/os/rt/include/chdebug.h"
 698              		.file 15 "../ChibiOS/os/rt/include/chtime.h"
 699              		.file 16 "../ChibiOS/os/rt/include/chsem.h"
 700              		.file 17 "../ChibiOS/os/rt/include/chmtx.h"
 701              		.file 18 "../ChibiOS/os/rt/include/chschd.h"