ARM GAS  /tmp/ccTAkVsi.s 			page 1


   1              		.cpu cortex-m4
   2              		.eabi_attribute 20, 1
   3              		.eabi_attribute 21, 1
   4              		.eabi_attribute 23, 3
   5              		.eabi_attribute 24, 1
   6              		.eabi_attribute 25, 1
   7              		.eabi_attribute 26, 1
   8              		.eabi_attribute 30, 2
   9              		.eabi_attribute 34, 1
  10              		.eabi_attribute 18, 4
  11              		.file	"chmtx.c"
  12              		.text
  13              	.Ltext0:
  14              		.cfi_sections	.debug_frame
  15              		.section	.text.chMtxObjectInit,"ax",%progbits
  16              		.align	1
  17              		.p2align 4,,15
  18              		.global	chMtxObjectInit
  19              		.arch armv7e-m
  20              		.syntax unified
  21              		.thumb
  22              		.thumb_func
  23              		.fpu softvfp
  24              		.type	chMtxObjectInit, %function
  25              	chMtxObjectInit:
  26              	.LVL0:
  27              	.LFB335:
  28              		.file 1 "../ChibiOS/os/rt/src/chmtx.c"
  29              		.loc 1 103 35 view -0
  30              		.cfi_startproc
  31              		@ args = 0, pretend = 0, frame = 0
  32              		@ frame_needed = 0, uses_anonymous_args = 0
  33              		@ link register save eliminated.
  34              		.loc 1 105 3 view .LVU1
  35              		.loc 1 105 3 view .LVU2
  36              		.loc 1 105 3 view .LVU3
  37              		.loc 1 107 3 view .LVU4
  38              	.LBB109:
  39              	.LBI109:
  40              		.file 2 "../ChibiOS/os/rt/include/chlists.h"
  41              		.loc 2 222 20 view .LVU5
  42              	.LBB110:
  43              		.loc 2 224 3 view .LVU6
  44              	.LBE110:
  45              	.LBE109:
  46              		.loc 1 108 13 is_stmt 0 view .LVU7
  47 0000 0023     		movs	r3, #0
  48              	.LBB112:
  49              	.LBB111:
  50              		.loc 2 225 12 view .LVU8
  51 0002 C0E90000 		strd	r0, r0, [r0]
  52              	.LVL1:
  53              		.loc 2 225 12 view .LVU9
  54              	.LBE111:
  55              	.LBE112:
  56              		.loc 1 108 3 is_stmt 1 view .LVU10
  57              		.loc 1 108 13 is_stmt 0 view .LVU11
ARM GAS  /tmp/ccTAkVsi.s 			page 2


  58 0006 8360     		str	r3, [r0, #8]
  59              		.loc 1 112 1 view .LVU12
  60 0008 7047     		bx	lr
  61              		.cfi_endproc
  62              	.LFE335:
  63              		.size	chMtxObjectInit, .-chMtxObjectInit
  64 000a 00BF     		.section	.text.chMtxLockS,"ax",%progbits
  65              		.align	1
  66              		.p2align 4,,15
  67              		.global	chMtxLockS
  68              		.syntax unified
  69              		.thumb
  70              		.thumb_func
  71              		.fpu softvfp
  72              		.type	chMtxLockS, %function
  73              	chMtxLockS:
  74              	.LVL2:
  75              	.LFB337:
  76              		.loc 1 139 30 is_stmt 1 view -0
  77              		.cfi_startproc
  78              		@ args = 0, pretend = 0, frame = 0
  79              		@ frame_needed = 0, uses_anonymous_args = 0
  80              		.loc 1 140 3 view .LVU14
  81              	.LBB128:
  82              	.LBI128:
  83              		.file 3 "../ChibiOS/os/rt/include/chthreads.h"
  84              		.loc 3 341 25 view .LVU15
  85              	.LBB129:
  86              		.loc 3 343 3 view .LVU16
  87              	.LBE129:
  88              	.LBE128:
  89              		.loc 1 139 30 is_stmt 0 view .LVU17
  90 0000 70B5     		push	{r4, r5, r6, lr}
  91              		.cfi_def_cfa_offset 16
  92              		.cfi_offset 4, -16
  93              		.cfi_offset 5, -12
  94              		.cfi_offset 6, -8
  95              		.cfi_offset 14, -4
  96              	.LBB132:
  97              	.LBB130:
  98              		.loc 3 343 10 view .LVU18
  99 0002 2F4B     		ldr	r3, .L30
 100              	.LBE130:
 101              	.LBE132:
 102              		.loc 1 139 30 view .LVU19
 103 0004 0446     		mov	r4, r0
 104              		.loc 1 146 9 view .LVU20
 105 0006 8068     		ldr	r0, [r0, #8]
 106              	.LVL3:
 107              	.LBB133:
 108              	.LBB131:
 109              		.loc 3 343 10 view .LVU21
 110 0008 DD68     		ldr	r5, [r3, #12]
 111              	.LVL4:
 112              		.loc 3 343 10 view .LVU22
 113              	.LBE131:
 114              	.LBE133:
ARM GAS  /tmp/ccTAkVsi.s 			page 3


 115              		.loc 1 142 21 is_stmt 1 view .LVU23
 116              		.loc 1 143 3 view .LVU24
 117              		.loc 1 143 3 view .LVU25
 118              		.loc 1 143 3 view .LVU26
 119              		.loc 1 146 3 view .LVU27
 120              		.loc 1 146 6 is_stmt 0 view .LVU28
 121 000a 30B3     		cbz	r0, .L25
 122              	.LVL5:
 123              	.LBB134:
 124              		.loc 1 165 13 is_stmt 1 view .LVU29
 125              		.loc 1 165 54 is_stmt 0 view .LVU30
 126 000c AA68     		ldr	r2, [r5, #8]
 127              		.loc 1 165 13 view .LVU31
 128 000e 8368     		ldr	r3, [r0, #8]
 129 0010 9342     		cmp	r3, r2
 130 0012 07D2     		bcs	.L9
 131              	.L12:
 132              		.loc 1 167 9 is_stmt 1 view .LVU32
 133              		.loc 1 170 19 is_stmt 0 view .LVU33
 134 0014 90F82430 		ldrb	r3, [r0, #36]	@ zero_extendqisi2
 135              		.loc 1 167 29 view .LVU34
 136 0018 8260     		str	r2, [r0, #8]
 137              		.loc 1 170 9 is_stmt 1 view .LVU35
 138 001a 062B     		cmp	r3, #6
 139 001c 36D0     		beq	.L6
 140              		.loc 1 170 9 is_stmt 0 view .LVU36
 141 001e 072B     		cmp	r3, #7
 142 0020 20D0     		beq	.L7
 143 0022 9BB1     		cbz	r3, .L26
 144              	.LVL6:
 145              	.L9:
 146              		.loc 1 214 7 is_stmt 1 view .LVU37
 147              	.LBB135:
 148              	.LBI135:
 149              		.file 4 "../ChibiOS/os/rt/include/chschd.h"
 150              		.loc 4 175 20 view .LVU38
 151              	.LBB136:
 152              		.loc 4 177 3 view .LVU39
 153              		.loc 4 177 15 is_stmt 0 view .LVU40
 154 0024 2346     		mov	r3, r4
 155 0026 03E0     		b	.L17
 156              	.LVL7:
 157              	.L27:
 158              		.loc 4 180 23 view .LVU41
 159 0028 9968     		ldr	r1, [r3, #8]
 160 002a AA68     		ldr	r2, [r5, #8]
 161 002c 9142     		cmp	r1, r2
 162 002e 02D3     		bcc	.L16
 163              	.L17:
 164              		.loc 4 178 3 is_stmt 1 view .LVU42
 165              		.loc 4 179 5 view .LVU43
 166              		.loc 4 179 8 is_stmt 0 view .LVU44
 167 0030 1B68     		ldr	r3, [r3]
 168              	.LVL8:
 169              		.loc 4 180 11 is_stmt 1 view .LVU45
 170              		.loc 4 181 12 is_stmt 0 view .LVU46
 171 0032 9C42     		cmp	r4, r3
ARM GAS  /tmp/ccTAkVsi.s 			page 4


 172 0034 F8D1     		bne	.L27
 173              	.L16:
 174              		.loc 4 182 3 is_stmt 1 view .LVU47
 175              		.loc 4 183 22 is_stmt 0 view .LVU48
 176 0036 5A68     		ldr	r2, [r3, #4]
 177              	.LBE136:
 178              	.LBE135:
 179              		.loc 1 216 7 view .LVU49
 180 0038 0620     		movs	r0, #6
 181              	.LBB138:
 182              	.LBB137:
 183              		.loc 4 183 18 view .LVU50
 184 003a C5E90032 		strd	r3, r2, [r5]
 185              		.loc 4 184 3 is_stmt 1 view .LVU51
 186              		.loc 4 184 18 is_stmt 0 view .LVU52
 187 003e 1560     		str	r5, [r2]
 188              		.loc 4 185 3 is_stmt 1 view .LVU53
 189              		.loc 4 185 18 is_stmt 0 view .LVU54
 190 0040 5D60     		str	r5, [r3, #4]
 191              	.LVL9:
 192              		.loc 4 185 18 view .LVU55
 193              	.LBE137:
 194              	.LBE138:
 195              		.loc 1 215 7 is_stmt 1 view .LVU56
 196              		.loc 1 215 24 is_stmt 0 view .LVU57
 197 0042 AC62     		str	r4, [r5, #40]
 198              		.loc 1 216 7 is_stmt 1 view .LVU58
 199              	.LBE134:
 200              		.loc 1 238 1 is_stmt 0 view .LVU59
 201 0044 BDE87040 		pop	{r4, r5, r6, lr}
 202              		.cfi_remember_state
 203              		.cfi_restore 14
 204              		.cfi_restore 6
 205              		.cfi_restore 5
 206              		.cfi_restore 4
 207              		.cfi_def_cfa_offset 0
 208              	.LVL10:
 209              	.LBB153:
 210              		.loc 1 216 7 view .LVU60
 211 0048 FFF7FEBF 		b	chSchGoSleepS
 212              	.LVL11:
 213              	.L26:
 214              		.cfi_restore_state
 215              		.loc 1 204 11 is_stmt 1 view .LVU61
 216              	.LBB139:
 217              	.LBI139:
 218              		.loc 2 318 27 view .LVU62
 219              	.LBB140:
 220              		.loc 2 320 3 view .LVU63
 221              		.loc 2 320 20 is_stmt 0 view .LVU64
 222 004c D0E90032 		ldrd	r3, r2, [r0]
 223              		.loc 2 320 17 view .LVU65
 224 0050 1360     		str	r3, [r2]
 225              		.loc 2 321 3 is_stmt 1 view .LVU66
 226              		.loc 2 321 17 is_stmt 0 view .LVU67
 227 0052 5A60     		str	r2, [r3, #4]
 228              		.loc 2 323 3 is_stmt 1 view .LVU68
ARM GAS  /tmp/ccTAkVsi.s 			page 5


 229              	.LVL12:
 230              		.loc 2 323 3 is_stmt 0 view .LVU69
 231              	.LBE140:
 232              	.LBE139:
 233              		.loc 1 204 18 view .LVU70
 234 0054 FFF7FEFF 		bl	chSchReadyI
 235              	.LVL13:
 236              		.loc 1 205 11 is_stmt 1 view .LVU71
 237 0058 E4E7     		b	.L9
 238              	.L25:
 239              		.loc 1 205 11 is_stmt 0 view .LVU72
 240              	.LBE153:
 241              		.loc 1 234 5 is_stmt 1 view .LVU73
 242              		.loc 1 235 14 is_stmt 0 view .LVU74
 243 005a EB6B     		ldr	r3, [r5, #60]
 244 005c C4E90253 		strd	r5, r3, [r4, #8]
 245              		.loc 1 236 5 is_stmt 1 view .LVU75
 246              		.loc 1 236 21 is_stmt 0 view .LVU76
 247 0060 EC63     		str	r4, [r5, #60]
 248              		.loc 1 238 1 view .LVU77
 249 0062 70BD     		pop	{r4, r5, r6, pc}
 250              	.LVL14:
 251              	.L7:
 252              	.LBB154:
 253              		.loc 1 194 11 is_stmt 1 view .LVU78
 254              	.LBB141:
 255              	.LBB142:
 256              		.loc 2 320 20 is_stmt 0 view .LVU79
 257 0064 D0E90032 		ldrd	r3, r2, [r0]
 258              	.LBE142:
 259              	.LBE141:
 260              		.loc 1 194 11 view .LVU80
 261 0068 866A     		ldr	r6, [r0, #40]
 262              	.LVL15:
 263              	.LBB144:
 264              	.LBI141:
 265              		.loc 2 318 27 is_stmt 1 view .LVU81
 266              	.LBB143:
 267              		.loc 2 320 3 view .LVU82
 268              		.loc 2 320 17 is_stmt 0 view .LVU83
 269 006a 1360     		str	r3, [r2]
 270              		.loc 2 321 3 is_stmt 1 view .LVU84
 271              		.loc 2 321 17 is_stmt 0 view .LVU85
 272 006c 5A60     		str	r2, [r3, #4]
 273              		.loc 2 323 3 is_stmt 1 view .LVU86
 274              	.LVL16:
 275              		.loc 2 323 3 is_stmt 0 view .LVU87
 276              	.LBE143:
 277              	.LBE144:
 278              	.LBB145:
 279              	.LBI145:
 280              		.loc 4 175 20 is_stmt 1 view .LVU88
 281              	.LBB146:
 282              		.loc 4 177 3 view .LVU89
 283              		.loc 4 177 15 is_stmt 0 view .LVU90
 284 006e 3346     		mov	r3, r6
 285 0070 03E0     		b	.L14
ARM GAS  /tmp/ccTAkVsi.s 			page 6


 286              	.LVL17:
 287              	.L28:
 288              		.loc 4 180 23 view .LVU91
 289 0072 9968     		ldr	r1, [r3, #8]
 290 0074 8268     		ldr	r2, [r0, #8]
 291 0076 9142     		cmp	r1, r2
 292 0078 02D3     		bcc	.L13
 293              	.L14:
 294              		.loc 4 178 3 is_stmt 1 view .LVU92
 295              		.loc 4 179 5 view .LVU93
 296              		.loc 4 179 8 is_stmt 0 view .LVU94
 297 007a 1B68     		ldr	r3, [r3]
 298              	.LVL18:
 299              		.loc 4 180 11 is_stmt 1 view .LVU95
 300              		.loc 4 181 12 is_stmt 0 view .LVU96
 301 007c 9E42     		cmp	r6, r3
 302 007e F8D1     		bne	.L28
 303              	.L13:
 304              		.loc 4 182 3 is_stmt 1 view .LVU97
 305              		.loc 4 183 22 is_stmt 0 view .LVU98
 306 0080 5A68     		ldr	r2, [r3, #4]
 307              		.loc 4 183 18 view .LVU99
 308 0082 C0E90032 		strd	r3, r2, [r0]
 309              		.loc 4 184 3 is_stmt 1 view .LVU100
 310              		.loc 4 184 18 is_stmt 0 view .LVU101
 311 0086 1060     		str	r0, [r2]
 312              		.loc 4 185 3 is_stmt 1 view .LVU102
 313              		.loc 4 185 18 is_stmt 0 view .LVU103
 314 0088 5860     		str	r0, [r3, #4]
 315              		.loc 4 186 1 view .LVU104
 316 008a CBE7     		b	.L9
 317              	.LVL19:
 318              	.L6:
 319              		.loc 4 186 1 view .LVU105
 320              	.LBE146:
 321              	.LBE145:
 322              		.loc 1 173 11 is_stmt 1 view .LVU106
 323              	.LBB147:
 324              	.LBB148:
 325              		.loc 2 320 20 is_stmt 0 view .LVU107
 326 008c D0E90032 		ldrd	r3, r2, [r0]
 327              	.LBE148:
 328              	.LBE147:
 329              		.loc 1 173 36 view .LVU108
 330 0090 866A     		ldr	r6, [r0, #40]
 331              	.LVL20:
 332              	.LBB150:
 333              	.LBI147:
 334              		.loc 2 318 27 is_stmt 1 view .LVU109
 335              	.LBB149:
 336              		.loc 2 320 3 view .LVU110
 337              		.loc 2 320 17 is_stmt 0 view .LVU111
 338 0092 1360     		str	r3, [r2]
 339              		.loc 2 321 3 is_stmt 1 view .LVU112
 340              		.loc 2 321 17 is_stmt 0 view .LVU113
 341 0094 5A60     		str	r2, [r3, #4]
 342              		.loc 2 323 3 is_stmt 1 view .LVU114
ARM GAS  /tmp/ccTAkVsi.s 			page 7


 343              	.LVL21:
 344              		.loc 2 323 3 is_stmt 0 view .LVU115
 345              	.LBE149:
 346              	.LBE150:
 347              	.LBB151:
 348              	.LBI151:
 349              		.loc 4 175 20 is_stmt 1 view .LVU116
 350              	.LBB152:
 351              		.loc 4 177 3 view .LVU117
 352              		.loc 4 177 15 is_stmt 0 view .LVU118
 353 0096 3346     		mov	r3, r6
 354 0098 03E0     		b	.L11
 355              	.LVL22:
 356              	.L29:
 357              		.loc 4 180 23 view .LVU119
 358 009a 9968     		ldr	r1, [r3, #8]
 359 009c 8268     		ldr	r2, [r0, #8]
 360 009e 9142     		cmp	r1, r2
 361 00a0 02D3     		bcc	.L10
 362              	.L11:
 363              		.loc 4 178 3 is_stmt 1 view .LVU120
 364              		.loc 4 179 5 view .LVU121
 365              		.loc 4 179 8 is_stmt 0 view .LVU122
 366 00a2 1B68     		ldr	r3, [r3]
 367              	.LVL23:
 368              		.loc 4 180 11 is_stmt 1 view .LVU123
 369              		.loc 4 181 12 is_stmt 0 view .LVU124
 370 00a4 9E42     		cmp	r6, r3
 371 00a6 F8D1     		bne	.L29
 372              	.L10:
 373              		.loc 4 182 3 is_stmt 1 view .LVU125
 374              		.loc 4 183 22 is_stmt 0 view .LVU126
 375 00a8 5A68     		ldr	r2, [r3, #4]
 376              		.loc 4 182 18 view .LVU127
 377 00aa 0360     		str	r3, [r0]
 378              		.loc 4 183 3 is_stmt 1 view .LVU128
 379              		.loc 4 183 18 is_stmt 0 view .LVU129
 380 00ac 4260     		str	r2, [r0, #4]
 381              		.loc 4 184 3 is_stmt 1 view .LVU130
 382              		.loc 4 184 18 is_stmt 0 view .LVU131
 383 00ae 1060     		str	r0, [r2]
 384              		.loc 4 185 3 is_stmt 1 view .LVU132
 385              		.loc 4 185 18 is_stmt 0 view .LVU133
 386 00b0 5860     		str	r0, [r3, #4]
 387              	.LVL24:
 388              		.loc 4 185 18 view .LVU134
 389              	.LBE152:
 390              	.LBE151:
 391              		.loc 1 175 11 is_stmt 1 view .LVU135
 392              		.loc 1 175 14 is_stmt 0 view .LVU136
 393 00b2 B068     		ldr	r0, [r6, #8]
 394              	.LVL25:
 395              		.loc 1 177 11 is_stmt 1 view .LVU137
 396              		.loc 1 165 13 view .LVU138
 397              		.loc 1 165 54 is_stmt 0 view .LVU139
 398 00b4 AA68     		ldr	r2, [r5, #8]
 399              		.loc 1 165 13 view .LVU140
ARM GAS  /tmp/ccTAkVsi.s 			page 8


 400 00b6 8368     		ldr	r3, [r0, #8]
 401 00b8 9342     		cmp	r3, r2
 402 00ba ABD3     		bcc	.L12
 403 00bc B2E7     		b	.L9
 404              	.L31:
 405 00be 00BF     		.align	2
 406              	.L30:
 407 00c0 00000000 		.word	ch0
 408              	.LBE154:
 409              		.cfi_endproc
 410              	.LFE337:
 411              		.size	chMtxLockS, .-chMtxLockS
 412              		.section	.text.chMtxLock,"ax",%progbits
 413              		.align	1
 414              		.p2align 4,,15
 415              		.global	chMtxLock
 416              		.syntax unified
 417              		.thumb
 418              		.thumb_func
 419              		.fpu softvfp
 420              		.type	chMtxLock, %function
 421              	chMtxLock:
 422              	.LVL26:
 423              	.LFB336:
 424              		.loc 1 123 29 is_stmt 1 view -0
 425              		.cfi_startproc
 426              		@ args = 0, pretend = 0, frame = 0
 427              		@ frame_needed = 0, uses_anonymous_args = 0
 428              		.loc 1 125 3 view .LVU142
 429              	.LBB155:
 430              	.LBI155:
 431              		.file 5 "../ChibiOS/os/rt/include/chsys.h"
 432              		.loc 5 407 20 view .LVU143
 433              	.LBE155:
 434              		.loc 5 409 3 view .LVU144
 435              	.LBB163:
 436              	.LBB156:
 437              	.LBI156:
 438              		.file 6 "../ChibiOS/os/common/ports/ARMv7-M/chcore.h"
 439              		.loc 6 806 27 view .LVU145
 440              	.LBE156:
 441              	.LBE163:
 442              		.loc 6 814 3 view .LVU146
 443              	.LBB164:
 444              	.LBB161:
 445              	.LBB157:
 446              	.LBI157:
 447              		.file 7 "../ChibiOS/os/common/ext/ARM/CMSIS/Core/Include/cmsis_gcc.h"
 448              		.loc 7 491 27 view .LVU147
 449              	.LBB158:
 450              		.loc 7 493 3 view .LVU148
 451              	.LBE158:
 452              	.LBE157:
 453              	.LBE161:
 454              	.LBE164:
 455              		.loc 1 123 29 is_stmt 0 view .LVU149
 456 0000 08B5     		push	{r3, lr}
ARM GAS  /tmp/ccTAkVsi.s 			page 9


 457              		.cfi_def_cfa_offset 8
 458              		.cfi_offset 3, -8
 459              		.cfi_offset 14, -4
 460              	.LBB165:
 461              	.LBB162:
 462              	.LBB160:
 463              	.LBB159:
 464              		.loc 7 493 3 view .LVU150
 465 0002 3023     		movs	r3, #48
 466              		.syntax unified
 467              	@ 493 "../ChibiOS/os/common/ext/ARM/CMSIS/Core/Include/cmsis_gcc.h" 1
 468 0004 83F31188 		MSR basepri, r3
 469              	@ 0 "" 2
 470              	.LVL27:
 471              		.loc 7 493 3 view .LVU151
 472              		.thumb
 473              		.syntax unified
 474              	.LBE159:
 475              	.LBE160:
 476              	.LBE162:
 477              	.LBE165:
 478              		.loc 5 410 35 is_stmt 1 view .LVU152
 479              		.loc 5 411 21 view .LVU153
 480              		.loc 1 126 3 view .LVU154
 481 0008 FFF7FEFF 		bl	chMtxLockS
 482              	.LVL28:
 483              		.loc 1 127 3 view .LVU155
 484              	.LBB166:
 485              	.LBI166:
 486              		.loc 5 421 20 view .LVU156
 487              	.LBB167:
 488              		.loc 5 423 23 view .LVU157
 489              		.loc 5 424 34 view .LVU158
 490              		.loc 5 430 3 view .LVU159
 491              		.loc 5 430 3 view .LVU160
 492              		.loc 5 430 3 view .LVU161
 493              		.loc 5 434 3 view .LVU162
 494              	.LBB168:
 495              	.LBI168:
 496              		.loc 6 830 27 view .LVU163
 497              	.LBE168:
 498              	.LBE167:
 499              	.LBE166:
 500              		.loc 6 833 3 view .LVU164
 501              	.LBB173:
 502              	.LBB172:
 503              	.LBB171:
 504              	.LBB169:
 505              	.LBI169:
 506              		.loc 7 491 27 view .LVU165
 507              	.LBB170:
 508              		.loc 7 493 3 view .LVU166
 509 000c 0023     		movs	r3, #0
 510              		.syntax unified
 511              	@ 493 "../ChibiOS/os/common/ext/ARM/CMSIS/Core/Include/cmsis_gcc.h" 1
 512 000e 83F31188 		MSR basepri, r3
 513              	@ 0 "" 2
ARM GAS  /tmp/ccTAkVsi.s 			page 10


 514              	.LVL29:
 515              		.loc 7 493 3 is_stmt 0 view .LVU167
 516              		.thumb
 517              		.syntax unified
 518              	.LBE170:
 519              	.LBE169:
 520              	.LBE171:
 521              	.LBE172:
 522              	.LBE173:
 523              		.loc 1 128 1 view .LVU168
 524 0012 08BD     		pop	{r3, pc}
 525              		.cfi_endproc
 526              	.LFE336:
 527              		.size	chMtxLock, .-chMtxLock
 528              		.section	.text.chMtxTryLock,"ax",%progbits
 529              		.align	1
 530              		.p2align 4,,15
 531              		.global	chMtxTryLock
 532              		.syntax unified
 533              		.thumb
 534              		.thumb_func
 535              		.fpu softvfp
 536              		.type	chMtxTryLock, %function
 537              	chMtxTryLock:
 538              	.LVL30:
 539              	.LFB338:
 540              		.loc 1 257 32 is_stmt 1 view -0
 541              		.cfi_startproc
 542              		@ args = 0, pretend = 0, frame = 0
 543              		@ frame_needed = 0, uses_anonymous_args = 0
 544              		@ link register save eliminated.
 545              		.loc 1 258 3 view .LVU170
 546              		.loc 1 260 3 view .LVU171
 547              	.LBB174:
 548              	.LBI174:
 549              		.loc 5 407 20 view .LVU172
 550              	.LBE174:
 551              		.loc 5 409 3 view .LVU173
 552              	.LBB182:
 553              	.LBB175:
 554              	.LBI175:
 555              		.loc 6 806 27 view .LVU174
 556              	.LBE175:
 557              	.LBE182:
 558              		.loc 6 814 3 view .LVU175
 559              	.LBB183:
 560              	.LBB180:
 561              	.LBB176:
 562              	.LBI176:
 563              		.loc 7 491 27 view .LVU176
 564              	.LBB177:
 565              		.loc 7 493 3 view .LVU177
 566              	.LBE177:
 567              	.LBE176:
 568              	.LBE180:
 569              	.LBE183:
 570              		.loc 1 257 32 is_stmt 0 view .LVU178
ARM GAS  /tmp/ccTAkVsi.s 			page 11


 571 0000 0346     		mov	r3, r0
 572              	.LBB184:
 573              	.LBB181:
 574              	.LBB179:
 575              	.LBB178:
 576              		.loc 7 493 3 view .LVU179
 577 0002 3022     		movs	r2, #48
 578              		.syntax unified
 579              	@ 493 "../ChibiOS/os/common/ext/ARM/CMSIS/Core/Include/cmsis_gcc.h" 1
 580 0004 82F31188 		MSR basepri, r2
 581              	@ 0 "" 2
 582              	.LVL31:
 583              		.loc 7 493 3 view .LVU180
 584              		.thumb
 585              		.syntax unified
 586              	.LBE178:
 587              	.LBE179:
 588              	.LBE181:
 589              	.LBE184:
 590              		.loc 5 410 35 is_stmt 1 view .LVU181
 591              		.loc 5 411 21 view .LVU182
 592              		.loc 1 261 3 view .LVU183
 593              	.LBB185:
 594              	.LBI185:
 595              		.loc 1 284 6 view .LVU184
 596              	.LBB186:
 597              		.loc 1 285 3 view .LVU185
 598              	.LBB187:
 599              	.LBI187:
 600              		.loc 3 341 25 view .LVU186
 601              	.LBB188:
 602              		.loc 3 343 3 view .LVU187
 603              		.loc 3 343 3 is_stmt 0 view .LVU188
 604              	.LBE188:
 605              	.LBE187:
 606              		.loc 1 287 21 is_stmt 1 view .LVU189
 607              		.loc 1 288 3 view .LVU190
 608              		.loc 1 288 3 view .LVU191
 609              		.loc 1 288 3 view .LVU192
 610              		.loc 1 290 3 view .LVU193
 611              		.loc 1 290 6 is_stmt 0 view .LVU194
 612 0008 8268     		ldr	r2, [r0, #8]
 613 000a 22B1     		cbz	r2, .L37
 614              		.loc 1 300 12 view .LVU195
 615 000c 0020     		movs	r0, #0
 616              	.LVL32:
 617              		.loc 1 300 12 view .LVU196
 618              	.LBE186:
 619              	.LBE185:
 620              		.loc 1 262 3 is_stmt 1 view .LVU197
 621              	.LBB192:
 622              	.LBI192:
 623              		.loc 5 421 20 view .LVU198
 624              	.LBB193:
 625              		.loc 5 423 23 view .LVU199
 626              		.loc 5 424 34 view .LVU200
 627              		.loc 5 430 3 view .LVU201
ARM GAS  /tmp/ccTAkVsi.s 			page 12


 628              		.loc 5 430 3 view .LVU202
 629              		.loc 5 430 3 view .LVU203
 630              		.loc 5 434 3 view .LVU204
 631              	.LBB194:
 632              	.LBI194:
 633              		.loc 6 830 27 view .LVU205
 634              	.LBE194:
 635              	.LBE193:
 636              	.LBE192:
 637              		.loc 6 833 3 view .LVU206
 638              	.LBB205:
 639              	.LBB202:
 640              	.LBB199:
 641              	.LBB195:
 642              	.LBI195:
 643              		.loc 7 491 27 view .LVU207
 644              	.LBB196:
 645              		.loc 7 493 3 view .LVU208
 646 000e 0023     		movs	r3, #0
 647              	.LVL33:
 648              		.loc 7 493 3 is_stmt 0 view .LVU209
 649              		.syntax unified
 650              	@ 493 "../ChibiOS/os/common/ext/ARM/CMSIS/Core/Include/cmsis_gcc.h" 1
 651 0010 83F31188 		MSR basepri, r3
 652              	@ 0 "" 2
 653              	.LVL34:
 654              		.loc 7 493 3 view .LVU210
 655              		.thumb
 656              		.syntax unified
 657              	.LBE196:
 658              	.LBE195:
 659              	.LBE199:
 660              	.LBE202:
 661              	.LBE205:
 662              		.loc 1 264 3 is_stmt 1 view .LVU211
 663              		.loc 1 265 1 is_stmt 0 view .LVU212
 664 0014 7047     		bx	lr
 665              	.LVL35:
 666              	.L37:
 667              	.LBB206:
 668              	.LBB191:
 669              	.LBB190:
 670              	.LBB189:
 671              		.loc 3 343 10 view .LVU213
 672 0016 054A     		ldr	r2, .L38
 673 0018 D268     		ldr	r2, [r2, #12]
 674              	.LBE189:
 675              	.LBE190:
 676              		.loc 1 308 3 is_stmt 1 view .LVU214
 677              		.loc 1 308 13 is_stmt 0 view .LVU215
 678 001a 9A60     		str	r2, [r3, #8]
 679              		.loc 1 309 3 is_stmt 1 view .LVU216
 680              		.loc 1 309 12 is_stmt 0 view .LVU217
 681 001c D16B     		ldr	r1, [r2, #60]
 682 001e D960     		str	r1, [r3, #12]
 683              		.loc 1 310 3 is_stmt 1 view .LVU218
 684              		.loc 1 311 10 is_stmt 0 view .LVU219
ARM GAS  /tmp/ccTAkVsi.s 			page 13


 685 0020 0120     		movs	r0, #1
 686              	.LVL36:
 687              		.loc 1 310 19 view .LVU220
 688 0022 D363     		str	r3, [r2, #60]
 689              		.loc 1 311 3 is_stmt 1 view .LVU221
 690              	.LVL37:
 691              		.loc 1 311 3 is_stmt 0 view .LVU222
 692              	.LBE191:
 693              	.LBE206:
 694              		.loc 1 262 3 is_stmt 1 view .LVU223
 695              	.LBB207:
 696              		.loc 5 421 20 view .LVU224
 697              	.LBB203:
 698              		.loc 5 423 23 view .LVU225
 699              		.loc 5 424 34 view .LVU226
 700              		.loc 5 430 3 view .LVU227
 701              		.loc 5 430 3 view .LVU228
 702              		.loc 5 430 3 view .LVU229
 703              		.loc 5 434 3 view .LVU230
 704              	.LBB200:
 705              		.loc 6 830 27 view .LVU231
 706              	.LBE200:
 707              	.LBE203:
 708              	.LBE207:
 709              		.loc 6 833 3 view .LVU232
 710              	.LBB208:
 711              	.LBB204:
 712              	.LBB201:
 713              	.LBB198:
 714              		.loc 7 491 27 view .LVU233
 715              	.LBB197:
 716              		.loc 7 493 3 view .LVU234
 717 0024 0023     		movs	r3, #0
 718              	.LVL38:
 719              		.loc 7 493 3 is_stmt 0 view .LVU235
 720              		.syntax unified
 721              	@ 493 "../ChibiOS/os/common/ext/ARM/CMSIS/Core/Include/cmsis_gcc.h" 1
 722 0026 83F31188 		MSR basepri, r3
 723              	@ 0 "" 2
 724              	.LVL39:
 725              		.loc 7 493 3 view .LVU236
 726              		.thumb
 727              		.syntax unified
 728              	.LBE197:
 729              	.LBE198:
 730              	.LBE201:
 731              	.LBE204:
 732              	.LBE208:
 733              		.loc 1 264 3 is_stmt 1 view .LVU237
 734              		.loc 1 265 1 is_stmt 0 view .LVU238
 735 002a 7047     		bx	lr
 736              	.L39:
 737              		.align	2
 738              	.L38:
 739 002c 00000000 		.word	ch0
 740              		.cfi_endproc
 741              	.LFE338:
ARM GAS  /tmp/ccTAkVsi.s 			page 14


 742              		.size	chMtxTryLock, .-chMtxTryLock
 743              		.section	.text.chMtxTryLockS,"ax",%progbits
 744              		.align	1
 745              		.p2align 4,,15
 746              		.global	chMtxTryLockS
 747              		.syntax unified
 748              		.thumb
 749              		.thumb_func
 750              		.fpu softvfp
 751              		.type	chMtxTryLockS, %function
 752              	chMtxTryLockS:
 753              	.LVL40:
 754              	.LFB339:
 755              		.loc 1 284 33 is_stmt 1 view -0
 756              		.cfi_startproc
 757              		@ args = 0, pretend = 0, frame = 0
 758              		@ frame_needed = 0, uses_anonymous_args = 0
 759              		@ link register save eliminated.
 760              		.loc 1 285 3 view .LVU240
 761              	.LBB209:
 762              	.LBI209:
 763              		.loc 3 341 25 view .LVU241
 764              	.LBB210:
 765              		.loc 3 343 3 view .LVU242
 766              		.loc 3 343 3 is_stmt 0 view .LVU243
 767              	.LBE210:
 768              	.LBE209:
 769              		.loc 1 287 21 is_stmt 1 view .LVU244
 770              		.loc 1 288 3 view .LVU245
 771              		.loc 1 288 3 view .LVU246
 772              		.loc 1 288 3 view .LVU247
 773              		.loc 1 290 3 view .LVU248
 774              		.loc 1 290 6 is_stmt 0 view .LVU249
 775 0000 8268     		ldr	r2, [r0, #8]
 776              		.loc 1 284 33 view .LVU250
 777 0002 0346     		mov	r3, r0
 778              		.loc 1 290 6 view .LVU251
 779 0004 0AB1     		cbz	r2, .L43
 780              		.loc 1 300 12 view .LVU252
 781 0006 0020     		movs	r0, #0
 782              	.LVL41:
 783              		.loc 1 312 1 view .LVU253
 784 0008 7047     		bx	lr
 785              	.LVL42:
 786              	.L43:
 787              	.LBB212:
 788              	.LBB211:
 789              		.loc 3 343 10 view .LVU254
 790 000a 044A     		ldr	r2, .L44
 791 000c D268     		ldr	r2, [r2, #12]
 792              	.LBE211:
 793              	.LBE212:
 794              		.loc 1 308 3 is_stmt 1 view .LVU255
 795              		.loc 1 308 13 is_stmt 0 view .LVU256
 796 000e 9A60     		str	r2, [r3, #8]
 797              		.loc 1 309 3 is_stmt 1 view .LVU257
 798              		.loc 1 309 12 is_stmt 0 view .LVU258
ARM GAS  /tmp/ccTAkVsi.s 			page 15


 799 0010 D16B     		ldr	r1, [r2, #60]
 800 0012 D960     		str	r1, [r3, #12]
 801              		.loc 1 310 3 is_stmt 1 view .LVU259
 802              		.loc 1 311 10 is_stmt 0 view .LVU260
 803 0014 0120     		movs	r0, #1
 804              	.LVL43:
 805              		.loc 1 310 19 view .LVU261
 806 0016 D363     		str	r3, [r2, #60]
 807              		.loc 1 311 3 is_stmt 1 view .LVU262
 808              		.loc 1 311 10 is_stmt 0 view .LVU263
 809 0018 7047     		bx	lr
 810              	.L45:
 811 001a 00BF     		.align	2
 812              	.L44:
 813 001c 00000000 		.word	ch0
 814              		.cfi_endproc
 815              	.LFE339:
 816              		.size	chMtxTryLockS, .-chMtxTryLockS
 817              		.section	.text.chMtxUnlock,"ax",%progbits
 818              		.align	1
 819              		.p2align 4,,15
 820              		.global	chMtxUnlock
 821              		.syntax unified
 822              		.thumb
 823              		.thumb_func
 824              		.fpu softvfp
 825              		.type	chMtxUnlock, %function
 826              	chMtxUnlock:
 827              	.LVL44:
 828              	.LFB340:
 829              		.loc 1 326 31 is_stmt 1 view -0
 830              		.cfi_startproc
 831              		@ args = 0, pretend = 0, frame = 0
 832              		@ frame_needed = 0, uses_anonymous_args = 0
 833              		.loc 1 327 3 view .LVU265
 834              	.LBB213:
 835              	.LBI213:
 836              		.loc 3 341 25 view .LVU266
 837              	.LBB214:
 838              		.loc 3 343 3 view .LVU267
 839              		.loc 3 343 10 is_stmt 0 view .LVU268
 840 0000 174B     		ldr	r3, .L57
 841              	.LBE214:
 842              	.LBE213:
 843              		.loc 1 326 31 view .LVU269
 844 0002 10B5     		push	{r4, lr}
 845              		.cfi_def_cfa_offset 8
 846              		.cfi_offset 4, -8
 847              		.cfi_offset 14, -4
 848              	.LBB216:
 849              	.LBB215:
 850              		.loc 3 343 10 view .LVU270
 851 0004 DC68     		ldr	r4, [r3, #12]
 852              	.LVL45:
 853              		.loc 3 343 10 view .LVU271
 854              	.LBE215:
 855              	.LBE216:
ARM GAS  /tmp/ccTAkVsi.s 			page 16


 856              		.loc 1 328 3 is_stmt 1 view .LVU272
 857              		.loc 1 330 3 view .LVU273
 858              		.loc 1 330 3 view .LVU274
 859              		.loc 1 330 3 view .LVU275
 860              		.loc 1 332 3 view .LVU276
 861              	.LBB217:
 862              	.LBI217:
 863              		.loc 5 407 20 view .LVU277
 864              	.LBE217:
 865              		.loc 5 409 3 view .LVU278
 866              	.LBB222:
 867              	.LBB218:
 868              	.LBI218:
 869              		.loc 6 806 27 view .LVU279
 870              	.LBE218:
 871              	.LBE222:
 872              		.loc 6 814 3 view .LVU280
 873              	.LBB223:
 874              	.LBB221:
 875              	.LBB219:
 876              	.LBI219:
 877              		.loc 7 491 27 view .LVU281
 878              	.LBB220:
 879              		.loc 7 493 3 view .LVU282
 880 0006 3023     		movs	r3, #48
 881              		.syntax unified
 882              	@ 493 "../ChibiOS/os/common/ext/ARM/CMSIS/Core/Include/cmsis_gcc.h" 1
 883 0008 83F31188 		MSR basepri, r3
 884              	@ 0 "" 2
 885              	.LVL46:
 886              		.loc 7 493 3 is_stmt 0 view .LVU283
 887              		.thumb
 888              		.syntax unified
 889              	.LBE220:
 890              	.LBE219:
 891              	.LBE221:
 892              	.LBE223:
 893              		.loc 5 410 35 is_stmt 1 view .LVU284
 894              		.loc 5 411 21 view .LVU285
 895              		.loc 1 334 3 view .LVU286
 896              		.loc 1 334 3 view .LVU287
 897              		.loc 1 334 3 view .LVU288
 898              		.loc 1 335 3 view .LVU289
 899              		.loc 1 335 3 view .LVU290
 900              		.loc 1 335 3 view .LVU291
 901              		.loc 1 342 5 view .LVU292
 902              		.loc 1 342 5 view .LVU293
 903              		.loc 1 342 5 view .LVU294
 904              		.loc 1 347 5 view .LVU295
 905              		.loc 1 350 8 is_stmt 0 view .LVU296
 906 000c 0268     		ldr	r2, [r0]
 907              		.loc 1 347 25 view .LVU297
 908 000e C368     		ldr	r3, [r0, #12]
 909              		.loc 1 347 21 view .LVU298
 910 0010 E363     		str	r3, [r4, #60]
 911              		.loc 1 350 5 is_stmt 1 view .LVU299
 912              	.LVL47:
ARM GAS  /tmp/ccTAkVsi.s 			page 17


 913              	.LBB224:
 914              	.LBI224:
 915              		.file 8 "../ChibiOS/os/rt/include/chmtx.h"
 916              		.loc 8 128 20 view .LVU300
 917              	.LBB225:
 918              		.loc 8 130 21 view .LVU301
 919              		.loc 8 132 3 view .LVU302
 920              	.LBB226:
 921              	.LBI226:
 922              		.loc 2 249 20 view .LVU303
 923              	.LBB227:
 924              		.loc 2 251 3 view .LVU304
 925              		.loc 2 251 3 is_stmt 0 view .LVU305
 926              	.LBE227:
 927              	.LBE226:
 928              	.LBE225:
 929              	.LBE224:
 930              		.loc 1 350 8 view .LVU306
 931 0012 8242     		cmp	r2, r0
 932 0014 1DD0     		beq	.L47
 933              	.LBB228:
 934              		.loc 1 351 7 is_stmt 1 view .LVU307
 935              		.loc 1 355 7 view .LVU308
 936 0016 0146     		mov	r1, r0
 937              		.loc 1 355 15 is_stmt 0 view .LVU309
 938 0018 206C     		ldr	r0, [r4, #64]
 939              	.LVL48:
 940              		.loc 1 356 7 is_stmt 1 view .LVU310
 941              		.loc 1 357 7 view .LVU311
 942              		.loc 1 357 13 view .LVU312
 943 001a 4BB1     		cbz	r3, .L48
 944              	.L50:
 945              		.loc 1 361 9 view .LVU313
 946              	.LVL49:
 947              	.LBB229:
 948              	.LBI229:
 949              		.loc 8 128 20 view .LVU314
 950              	.LBB230:
 951              		.loc 8 130 21 view .LVU315
 952              		.loc 8 132 3 view .LVU316
 953              	.LBB231:
 954              	.LBI231:
 955              		.loc 2 249 20 view .LVU317
 956              	.LBB232:
 957              		.loc 2 251 3 view .LVU318
 958              		.loc 2 251 19 is_stmt 0 view .LVU319
 959 001c 1A68     		ldr	r2, [r3]
 960              	.LVL50:
 961              		.loc 2 251 19 view .LVU320
 962              	.LBE232:
 963              	.LBE231:
 964              	.LBE230:
 965              	.LBE229:
 966              		.loc 1 361 12 view .LVU321
 967 001e 9342     		cmp	r3, r2
 968 0020 03D0     		beq	.L49
 969              		.loc 1 361 12 view .LVU322
ARM GAS  /tmp/ccTAkVsi.s 			page 18


 970 0022 9268     		ldr	r2, [r2, #8]
 971 0024 9042     		cmp	r0, r2
 972 0026 38BF     		it	cc
 973 0028 1046     		movcc	r0, r2
 974              	.LVL51:
 975              	.L49:
 976              		.loc 1 365 9 is_stmt 1 view .LVU323
 977              		.loc 1 365 13 is_stmt 0 view .LVU324
 978 002a DB68     		ldr	r3, [r3, #12]
 979              	.LVL52:
 980              		.loc 1 357 13 is_stmt 1 view .LVU325
 981 002c 002B     		cmp	r3, #0
 982 002e F5D1     		bne	.L50
 983              	.L48:
 984              		.loc 1 370 7 view .LVU326
 985              		.loc 1 370 31 is_stmt 0 view .LVU327
 986 0030 A060     		str	r0, [r4, #8]
 987              		.loc 1 377 7 is_stmt 1 view .LVU328
 988              	.LVL53:
 989              	.LBB233:
 990              	.LBI233:
 991              		.loc 2 280 27 view .LVU329
 992              	.LBB234:
 993              		.loc 2 281 3 view .LVU330
 994              		.loc 2 281 15 is_stmt 0 view .LVU331
 995 0032 0868     		ldr	r0, [r1]
 996              	.LVL54:
 997              		.loc 2 283 3 is_stmt 1 view .LVU332
 998              	.LBE234:
 999              	.LBE233:
 1000              		.loc 1 379 16 is_stmt 0 view .LVU333
 1001 0034 C26B     		ldr	r2, [r0, #60]
 1002              	.LBB236:
 1003              	.LBB235:
 1004              		.loc 2 283 21 view .LVU334
 1005 0036 0368     		ldr	r3, [r0]
 1006              	.LVL55:
 1007              		.loc 2 283 18 view .LVU335
 1008 0038 0B60     		str	r3, [r1]
 1009              	.LVL56:
 1010              		.loc 2 284 3 is_stmt 1 view .LVU336
 1011              		.loc 2 284 18 is_stmt 0 view .LVU337
 1012 003a 5960     		str	r1, [r3, #4]
 1013              		.loc 2 286 3 is_stmt 1 view .LVU338
 1014              	.LVL57:
 1015              		.loc 2 286 3 is_stmt 0 view .LVU339
 1016              	.LBE235:
 1017              	.LBE236:
 1018              		.loc 1 378 7 is_stmt 1 view .LVU340
 1019              		.loc 1 379 16 is_stmt 0 view .LVU341
 1020 003c C1E90202 		strd	r0, r2, [r1, #8]
 1021              		.loc 1 380 7 is_stmt 1 view .LVU342
 1022              		.loc 1 380 19 is_stmt 0 view .LVU343
 1023 0040 C163     		str	r1, [r0, #60]
 1024              		.loc 1 386 7 is_stmt 1 view .LVU344
 1025              		.loc 1 386 14 is_stmt 0 view .LVU345
 1026 0042 FFF7FEFF 		bl	chSchReadyI
ARM GAS  /tmp/ccTAkVsi.s 			page 19


 1027              	.LVL58:
 1028              		.loc 1 387 7 is_stmt 1 view .LVU346
 1029 0046 FFF7FEFF 		bl	chSchRescheduleS
 1030              	.LVL59:
 1031              	.LBE228:
 1032              		.loc 1 396 3 view .LVU347
 1033              	.LBB237:
 1034              	.LBI237:
 1035              		.loc 5 421 20 view .LVU348
 1036              	.LBB238:
 1037              		.loc 5 423 23 view .LVU349
 1038              		.loc 5 424 34 view .LVU350
 1039              		.loc 5 430 3 view .LVU351
 1040              		.loc 5 430 3 view .LVU352
 1041              		.loc 5 430 3 view .LVU353
 1042              		.loc 5 434 3 view .LVU354
 1043              	.LBB239:
 1044              	.LBI239:
 1045              		.loc 6 830 27 view .LVU355
 1046              	.LBE239:
 1047              	.LBE238:
 1048              	.LBE237:
 1049              		.loc 6 833 3 view .LVU356
 1050              	.LBB250:
 1051              	.LBB247:
 1052              	.LBB244:
 1053              	.LBB240:
 1054              	.LBI240:
 1055              		.loc 7 491 27 view .LVU357
 1056              	.LBB241:
 1057              		.loc 7 493 3 view .LVU358
 1058 004a 0023     		movs	r3, #0
 1059              		.syntax unified
 1060              	@ 493 "../ChibiOS/os/common/ext/ARM/CMSIS/Core/Include/cmsis_gcc.h" 1
 1061 004c 83F31188 		MSR basepri, r3
 1062              	@ 0 "" 2
 1063              	.LVL60:
 1064              		.loc 7 493 3 is_stmt 0 view .LVU359
 1065              		.thumb
 1066              		.syntax unified
 1067              	.LBE241:
 1068              	.LBE240:
 1069              	.LBE244:
 1070              	.LBE247:
 1071              	.LBE250:
 1072              		.loc 1 397 1 view .LVU360
 1073 0050 10BD     		pop	{r4, pc}
 1074              	.LVL61:
 1075              	.L47:
 1076              		.loc 1 390 7 is_stmt 1 view .LVU361
 1077              		.loc 1 390 17 is_stmt 0 view .LVU362
 1078 0052 0023     		movs	r3, #0
 1079 0054 9360     		str	r3, [r2, #8]
 1080              		.loc 1 396 3 is_stmt 1 view .LVU363
 1081              	.LBB251:
 1082              		.loc 5 421 20 view .LVU364
 1083              	.LBB248:
ARM GAS  /tmp/ccTAkVsi.s 			page 20


 1084              		.loc 5 423 23 view .LVU365
 1085              		.loc 5 424 34 view .LVU366
 1086              		.loc 5 430 3 view .LVU367
 1087              		.loc 5 430 3 view .LVU368
 1088              		.loc 5 430 3 view .LVU369
 1089              		.loc 5 434 3 view .LVU370
 1090              	.LBB245:
 1091              		.loc 6 830 27 view .LVU371
 1092              	.LBE245:
 1093              	.LBE248:
 1094              	.LBE251:
 1095              		.loc 6 833 3 view .LVU372
 1096              	.LVL62:
 1097              	.LBB252:
 1098              	.LBB249:
 1099              	.LBB246:
 1100              	.LBB243:
 1101              		.loc 7 491 27 view .LVU373
 1102              	.LBB242:
 1103              		.loc 7 493 3 view .LVU374
 1104 0056 0023     		movs	r3, #0
 1105              		.syntax unified
 1106              	@ 493 "../ChibiOS/os/common/ext/ARM/CMSIS/Core/Include/cmsis_gcc.h" 1
 1107 0058 83F31188 		MSR basepri, r3
 1108              	@ 0 "" 2
 1109              	.LVL63:
 1110              		.loc 7 493 3 is_stmt 0 view .LVU375
 1111              		.thumb
 1112              		.syntax unified
 1113              	.LBE242:
 1114              	.LBE243:
 1115              	.LBE246:
 1116              	.LBE249:
 1117              	.LBE252:
 1118              		.loc 1 397 1 view .LVU376
 1119 005c 10BD     		pop	{r4, pc}
 1120              	.LVL64:
 1121              	.L58:
 1122              		.loc 1 397 1 view .LVU377
 1123 005e 00BF     		.align	2
 1124              	.L57:
 1125 0060 00000000 		.word	ch0
 1126              		.cfi_endproc
 1127              	.LFE340:
 1128              		.size	chMtxUnlock, .-chMtxUnlock
 1129              		.section	.text.chMtxUnlockS,"ax",%progbits
 1130              		.align	1
 1131              		.p2align 4,,15
 1132              		.global	chMtxUnlockS
 1133              		.syntax unified
 1134              		.thumb
 1135              		.thumb_func
 1136              		.fpu softvfp
 1137              		.type	chMtxUnlockS, %function
 1138              	chMtxUnlockS:
 1139              	.LVL65:
 1140              	.LFB341:
ARM GAS  /tmp/ccTAkVsi.s 			page 21


 1141              		.loc 1 413 32 is_stmt 1 view -0
 1142              		.cfi_startproc
 1143              		@ args = 0, pretend = 0, frame = 0
 1144              		@ frame_needed = 0, uses_anonymous_args = 0
 1145              		@ link register save eliminated.
 1146              		.loc 1 414 3 view .LVU379
 1147              	.LBB253:
 1148              	.LBI253:
 1149              		.loc 3 341 25 view .LVU380
 1150              	.LBB254:
 1151              		.loc 3 343 3 view .LVU381
 1152              		.loc 3 343 10 is_stmt 0 view .LVU382
 1153 0000 124B     		ldr	r3, .L69
 1154              	.LBE254:
 1155              	.LBE253:
 1156              		.loc 1 436 8 view .LVU383
 1157 0002 0268     		ldr	r2, [r0]
 1158              		.loc 1 413 32 view .LVU384
 1159 0004 10B4     		push	{r4}
 1160              		.cfi_def_cfa_offset 4
 1161              		.cfi_offset 4, -4
 1162              	.LBB256:
 1163              	.LBB255:
 1164              		.loc 3 343 10 view .LVU385
 1165 0006 DC68     		ldr	r4, [r3, #12]
 1166              	.LVL66:
 1167              		.loc 3 343 10 view .LVU386
 1168              	.LBE255:
 1169              	.LBE256:
 1170              		.loc 1 415 3 is_stmt 1 view .LVU387
 1171              		.loc 1 417 21 view .LVU388
 1172              		.loc 1 418 3 view .LVU389
 1173              		.loc 1 418 3 view .LVU390
 1174              		.loc 1 418 3 view .LVU391
 1175              		.loc 1 420 3 view .LVU392
 1176              		.loc 1 420 3 view .LVU393
 1177              		.loc 1 420 3 view .LVU394
 1178              		.loc 1 421 3 view .LVU395
 1179              		.loc 1 421 3 view .LVU396
 1180              		.loc 1 421 3 view .LVU397
 1181              		.loc 1 428 5 view .LVU398
 1182              		.loc 1 428 5 view .LVU399
 1183              		.loc 1 428 5 view .LVU400
 1184              		.loc 1 433 5 view .LVU401
 1185              		.loc 1 433 25 is_stmt 0 view .LVU402
 1186 0008 C368     		ldr	r3, [r0, #12]
 1187              		.loc 1 433 21 view .LVU403
 1188 000a E363     		str	r3, [r4, #60]
 1189              		.loc 1 436 5 is_stmt 1 view .LVU404
 1190              	.LVL67:
 1191              	.LBB257:
 1192              	.LBI257:
 1193              		.loc 8 128 20 view .LVU405
 1194              	.LBB258:
 1195              		.loc 8 130 21 view .LVU406
 1196              		.loc 8 132 3 view .LVU407
 1197              	.LBB259:
ARM GAS  /tmp/ccTAkVsi.s 			page 22


 1198              	.LBI259:
 1199              		.loc 2 249 20 view .LVU408
 1200              	.LBB260:
 1201              		.loc 2 251 3 view .LVU409
 1202              		.loc 2 251 3 is_stmt 0 view .LVU410
 1203              	.LBE260:
 1204              	.LBE259:
 1205              	.LBE258:
 1206              	.LBE257:
 1207              		.loc 1 436 8 view .LVU411
 1208 000c 8242     		cmp	r2, r0
 1209 000e 18D0     		beq	.L60
 1210              	.LBB261:
 1211              		.loc 1 437 7 is_stmt 1 view .LVU412
 1212              		.loc 1 441 7 view .LVU413
 1213 0010 0146     		mov	r1, r0
 1214              		.loc 1 441 15 is_stmt 0 view .LVU414
 1215 0012 206C     		ldr	r0, [r4, #64]
 1216              	.LVL68:
 1217              		.loc 1 442 7 is_stmt 1 view .LVU415
 1218              		.loc 1 443 7 view .LVU416
 1219              		.loc 1 443 13 view .LVU417
 1220 0014 4BB1     		cbz	r3, .L61
 1221              	.L63:
 1222              		.loc 1 447 9 view .LVU418
 1223              	.LVL69:
 1224              	.LBB262:
 1225              	.LBI262:
 1226              		.loc 8 128 20 view .LVU419
 1227              	.LBB263:
 1228              		.loc 8 130 21 view .LVU420
 1229              		.loc 8 132 3 view .LVU421
 1230              	.LBB264:
 1231              	.LBI264:
 1232              		.loc 2 249 20 view .LVU422
 1233              	.LBB265:
 1234              		.loc 2 251 3 view .LVU423
 1235              		.loc 2 251 19 is_stmt 0 view .LVU424
 1236 0016 1A68     		ldr	r2, [r3]
 1237              	.LVL70:
 1238              		.loc 2 251 19 view .LVU425
 1239              	.LBE265:
 1240              	.LBE264:
 1241              	.LBE263:
 1242              	.LBE262:
 1243              		.loc 1 447 12 view .LVU426
 1244 0018 9342     		cmp	r3, r2
 1245 001a 03D0     		beq	.L62
 1246              		.loc 1 447 12 view .LVU427
 1247 001c 9268     		ldr	r2, [r2, #8]
 1248 001e 9042     		cmp	r0, r2
 1249 0020 38BF     		it	cc
 1250 0022 1046     		movcc	r0, r2
 1251              	.LVL71:
 1252              	.L62:
 1253              		.loc 1 451 9 is_stmt 1 view .LVU428
 1254              		.loc 1 451 13 is_stmt 0 view .LVU429
ARM GAS  /tmp/ccTAkVsi.s 			page 23


 1255 0024 DB68     		ldr	r3, [r3, #12]
 1256              	.LVL72:
 1257              		.loc 1 443 13 is_stmt 1 view .LVU430
 1258 0026 002B     		cmp	r3, #0
 1259 0028 F5D1     		bne	.L63
 1260              	.L61:
 1261              		.loc 1 456 7 view .LVU431
 1262              		.loc 1 456 31 is_stmt 0 view .LVU432
 1263 002a A060     		str	r0, [r4, #8]
 1264              		.loc 1 463 7 is_stmt 1 view .LVU433
 1265              	.LVL73:
 1266              	.LBB266:
 1267              	.LBI266:
 1268              		.loc 2 280 27 view .LVU434
 1269              	.LBB267:
 1270              		.loc 2 281 3 view .LVU435
 1271              		.loc 2 281 15 is_stmt 0 view .LVU436
 1272 002c 0868     		ldr	r0, [r1]
 1273              	.LVL74:
 1274              		.loc 2 283 3 is_stmt 1 view .LVU437
 1275              	.LBE267:
 1276              	.LBE266:
 1277              	.LBE261:
 1278              		.loc 1 475 1 is_stmt 0 view .LVU438
 1279 002e 10BC     		pop	{r4}
 1280              		.cfi_remember_state
 1281              		.cfi_restore 4
 1282              		.cfi_def_cfa_offset 0
 1283              	.LVL75:
 1284              	.LBB270:
 1285              		.loc 1 465 16 view .LVU439
 1286 0030 C26B     		ldr	r2, [r0, #60]
 1287              	.LBB269:
 1288              	.LBB268:
 1289              		.loc 2 283 21 view .LVU440
 1290 0032 0368     		ldr	r3, [r0]
 1291              	.LVL76:
 1292              		.loc 2 283 18 view .LVU441
 1293 0034 0B60     		str	r3, [r1]
 1294              	.LVL77:
 1295              		.loc 2 284 3 is_stmt 1 view .LVU442
 1296              		.loc 2 284 18 is_stmt 0 view .LVU443
 1297 0036 5960     		str	r1, [r3, #4]
 1298              		.loc 2 286 3 is_stmt 1 view .LVU444
 1299              	.LVL78:
 1300              		.loc 2 286 3 is_stmt 0 view .LVU445
 1301              	.LBE268:
 1302              	.LBE269:
 1303              		.loc 1 464 7 is_stmt 1 view .LVU446
 1304              		.loc 1 465 16 is_stmt 0 view .LVU447
 1305 0038 C1E90202 		strd	r0, r2, [r1, #8]
 1306              		.loc 1 466 7 is_stmt 1 view .LVU448
 1307              		.loc 1 466 19 is_stmt 0 view .LVU449
 1308 003c C163     		str	r1, [r0, #60]
 1309              		.loc 1 467 7 is_stmt 1 view .LVU450
 1310              		.loc 1 467 14 is_stmt 0 view .LVU451
 1311 003e FFF7FEBF 		b	chSchReadyI
ARM GAS  /tmp/ccTAkVsi.s 			page 24


 1312              	.LVL79:
 1313              	.L60:
 1314              		.cfi_restore_state
 1315              		.loc 1 467 14 view .LVU452
 1316              	.LBE270:
 1317              		.loc 1 470 7 is_stmt 1 view .LVU453
 1318              		.loc 1 470 17 is_stmt 0 view .LVU454
 1319 0042 0023     		movs	r3, #0
 1320              		.loc 1 475 1 view .LVU455
 1321 0044 10BC     		pop	{r4}
 1322              		.cfi_restore 4
 1323              		.cfi_def_cfa_offset 0
 1324              	.LVL80:
 1325              		.loc 1 470 17 view .LVU456
 1326 0046 9360     		str	r3, [r2, #8]
 1327              		.loc 1 475 1 view .LVU457
 1328 0048 7047     		bx	lr
 1329              	.L70:
 1330 004a 00BF     		.align	2
 1331              	.L69:
 1332 004c 00000000 		.word	ch0
 1333              		.cfi_endproc
 1334              	.LFE341:
 1335              		.size	chMtxUnlockS, .-chMtxUnlockS
 1336              		.section	.text.chMtxUnlockAllS,"ax",%progbits
 1337              		.align	1
 1338              		.p2align 4,,15
 1339              		.global	chMtxUnlockAllS
 1340              		.syntax unified
 1341              		.thumb
 1342              		.thumb_func
 1343              		.fpu softvfp
 1344              		.type	chMtxUnlockAllS, %function
 1345              	chMtxUnlockAllS:
 1346              	.LFB342:
 1347              		.loc 1 490 28 is_stmt 1 view -0
 1348              		.cfi_startproc
 1349              		@ args = 0, pretend = 0, frame = 0
 1350              		@ frame_needed = 0, uses_anonymous_args = 0
 1351              		.loc 1 491 3 view .LVU459
 1352              	.LBB271:
 1353              	.LBI271:
 1354              		.loc 3 341 25 view .LVU460
 1355              	.LBB272:
 1356              		.loc 3 343 3 view .LVU461
 1357              		.loc 3 343 10 is_stmt 0 view .LVU462
 1358 0000 114B     		ldr	r3, .L79
 1359              	.LBE272:
 1360              	.LBE271:
 1361              		.loc 1 490 28 view .LVU463
 1362 0002 70B5     		push	{r4, r5, r6, lr}
 1363              		.cfi_def_cfa_offset 16
 1364              		.cfi_offset 4, -16
 1365              		.cfi_offset 5, -12
 1366              		.cfi_offset 6, -8
 1367              		.cfi_offset 14, -4
 1368              	.LBB274:
ARM GAS  /tmp/ccTAkVsi.s 			page 25


 1369              	.LBB273:
 1370              		.loc 3 343 10 view .LVU464
 1371 0004 DC68     		ldr	r4, [r3, #12]
 1372              	.LVL81:
 1373              		.loc 3 343 10 view .LVU465
 1374              	.LBE273:
 1375              	.LBE274:
 1376              		.loc 1 493 3 is_stmt 1 view .LVU466
 1377              		.loc 1 493 13 is_stmt 0 view .LVU467
 1378 0006 E36B     		ldr	r3, [r4, #60]
 1379              		.loc 1 493 6 view .LVU468
 1380 0008 EBB1     		cbz	r3, .L71
 1381              	.LBB275:
 1382              		.loc 1 512 19 view .LVU469
 1383 000a 0026     		movs	r6, #0
 1384              	.L75:
 1385              		.loc 1 512 19 view .LVU470
 1386              	.LBE275:
 1387              		.loc 1 494 5 is_stmt 1 view .LVU471
 1388              	.LBB294:
 1389              		.loc 1 495 7 view .LVU472
 1390              	.LVL82:
 1391              		.loc 1 496 7 view .LVU473
 1392              	.LBB276:
 1393              		.loc 1 498 9 view .LVU474
 1394              		.loc 1 502 9 view .LVU475
 1395              	.LBB277:
 1396              	.LBI277:
 1397              		.loc 2 280 27 view .LVU476
 1398              	.LBB278:
 1399              		.loc 2 281 3 view .LVU477
 1400              	.LBE278:
 1401              	.LBE277:
 1402              	.LBE276:
 1403              		.loc 1 512 9 view .LVU478
 1404              	.LBB283:
 1405              	.LBB284:
 1406              	.LBB285:
 1407              	.LBB286:
 1408              		.loc 2 251 19 is_stmt 0 view .LVU479
 1409 000c 1A68     		ldr	r2, [r3]
 1410              	.LVL83:
 1411              		.loc 2 251 19 view .LVU480
 1412              	.LBE286:
 1413              	.LBE285:
 1414              	.LBE284:
 1415              	.LBE283:
 1416              	.LBB290:
 1417              	.LBB281:
 1418              	.LBB279:
 1419              		.loc 2 283 3 is_stmt 1 view .LVU481
 1420              	.LBE279:
 1421              	.LBE281:
 1422              	.LBE290:
 1423              		.loc 1 496 27 is_stmt 0 view .LVU482
 1424 000e D968     		ldr	r1, [r3, #12]
 1425              		.loc 1 496 23 view .LVU483
ARM GAS  /tmp/ccTAkVsi.s 			page 26


 1426 0010 E163     		str	r1, [r4, #60]
 1427              	.LVL84:
 1428              		.loc 1 497 7 is_stmt 1 view .LVU484
 1429              	.LBB291:
 1430              	.LBI283:
 1431              		.loc 8 128 20 view .LVU485
 1432              	.LBB289:
 1433              		.loc 8 130 21 view .LVU486
 1434              		.loc 8 132 3 view .LVU487
 1435              	.LBB288:
 1436              	.LBI285:
 1437              		.loc 2 249 20 view .LVU488
 1438              	.LBB287:
 1439              		.loc 2 251 3 view .LVU489
 1440              		.loc 2 251 3 is_stmt 0 view .LVU490
 1441              	.LBE287:
 1442              	.LBE288:
 1443              	.LBE289:
 1444              	.LBE291:
 1445              		.loc 1 497 10 view .LVU491
 1446 0012 9342     		cmp	r3, r2
 1447              	.LBB292:
 1448              		.loc 1 506 16 view .LVU492
 1449 0014 1046     		mov	r0, r2
 1450              	.LBE292:
 1451              		.loc 1 497 10 view .LVU493
 1452 0016 11D0     		beq	.L73
 1453              	.LBB293:
 1454              		.loc 1 504 21 view .LVU494
 1455 0018 D56B     		ldr	r5, [r2, #60]
 1456              	.LBB282:
 1457              	.LBB280:
 1458              		.loc 2 283 21 view .LVU495
 1459 001a 1168     		ldr	r1, [r2]
 1460              		.loc 2 283 18 view .LVU496
 1461 001c 1960     		str	r1, [r3]
 1462              		.loc 2 284 3 is_stmt 1 view .LVU497
 1463              		.loc 2 284 18 is_stmt 0 view .LVU498
 1464 001e 4B60     		str	r3, [r1, #4]
 1465              		.loc 2 286 3 is_stmt 1 view .LVU499
 1466              	.LVL85:
 1467              		.loc 2 286 3 is_stmt 0 view .LVU500
 1468              	.LBE280:
 1469              	.LBE282:
 1470              		.loc 1 503 9 is_stmt 1 view .LVU501
 1471              		.loc 1 504 21 is_stmt 0 view .LVU502
 1472 0020 C3E90225 		strd	r2, r5, [r3, #8]
 1473              		.loc 1 505 9 is_stmt 1 view .LVU503
 1474              		.loc 1 505 21 is_stmt 0 view .LVU504
 1475 0024 D363     		str	r3, [r2, #60]
 1476              		.loc 1 506 9 is_stmt 1 view .LVU505
 1477              		.loc 1 506 16 is_stmt 0 view .LVU506
 1478 0026 FFF7FEFF 		bl	chSchReadyI
 1479              	.LVL86:
 1480              		.loc 1 506 16 view .LVU507
 1481              	.LBE293:
 1482              	.LBE294:
ARM GAS  /tmp/ccTAkVsi.s 			page 27


 1483              		.loc 1 514 13 is_stmt 1 view .LVU508
 1484              		.loc 1 514 20 is_stmt 0 view .LVU509
 1485 002a E36B     		ldr	r3, [r4, #60]
 1486              		.loc 1 514 5 view .LVU510
 1487 002c 002B     		cmp	r3, #0
 1488 002e EDD1     		bne	.L75
 1489              	.L78:
 1490              		.loc 1 515 5 is_stmt 1 view .LVU511
 1491              		.loc 1 515 29 is_stmt 0 view .LVU512
 1492 0030 236C     		ldr	r3, [r4, #64]
 1493 0032 A360     		str	r3, [r4, #8]
 1494              		.loc 1 516 5 is_stmt 1 view .LVU513
 1495              		.loc 1 518 1 is_stmt 0 view .LVU514
 1496 0034 BDE87040 		pop	{r4, r5, r6, lr}
 1497              		.cfi_remember_state
 1498              		.cfi_restore 14
 1499              		.cfi_restore 6
 1500              		.cfi_restore 5
 1501              		.cfi_restore 4
 1502              		.cfi_def_cfa_offset 0
 1503              	.LVL87:
 1504              		.loc 1 516 5 view .LVU515
 1505 0038 FFF7FEBF 		b	chSchRescheduleS
 1506              	.LVL88:
 1507              	.L73:
 1508              		.cfi_restore_state
 1509              	.LBB295:
 1510              		.loc 1 512 19 view .LVU516
 1511 003c 9E60     		str	r6, [r3, #8]
 1512 003e 0B46     		mov	r3, r1
 1513              	.LVL89:
 1514              		.loc 1 512 19 view .LVU517
 1515              	.LBE295:
 1516              		.loc 1 514 13 is_stmt 1 view .LVU518
 1517              		.loc 1 514 5 is_stmt 0 view .LVU519
 1518 0040 002B     		cmp	r3, #0
 1519 0042 E3D1     		bne	.L75
 1520 0044 F4E7     		b	.L78
 1521              	.LVL90:
 1522              	.L71:
 1523              		.loc 1 518 1 view .LVU520
 1524 0046 70BD     		pop	{r4, r5, r6, pc}
 1525              	.LVL91:
 1526              	.L80:
 1527              		.loc 1 518 1 view .LVU521
 1528              		.align	2
 1529              	.L79:
 1530 0048 00000000 		.word	ch0
 1531              		.cfi_endproc
 1532              	.LFE342:
 1533              		.size	chMtxUnlockAllS, .-chMtxUnlockAllS
 1534              		.section	.text.chMtxUnlockAll,"ax",%progbits
 1535              		.align	1
 1536              		.p2align 4,,15
 1537              		.global	chMtxUnlockAll
 1538              		.syntax unified
 1539              		.thumb
ARM GAS  /tmp/ccTAkVsi.s 			page 28


 1540              		.thumb_func
 1541              		.fpu softvfp
 1542              		.type	chMtxUnlockAll, %function
 1543              	chMtxUnlockAll:
 1544              	.LFB343:
 1545              		.loc 1 531 27 is_stmt 1 view -0
 1546              		.cfi_startproc
 1547              		@ args = 0, pretend = 0, frame = 0
 1548              		@ frame_needed = 0, uses_anonymous_args = 0
 1549              		.loc 1 533 3 view .LVU523
 1550              	.LBB296:
 1551              	.LBI296:
 1552              		.loc 5 407 20 view .LVU524
 1553              	.LBE296:
 1554              		.loc 5 409 3 view .LVU525
 1555              	.LBB304:
 1556              	.LBB297:
 1557              	.LBI297:
 1558              		.loc 6 806 27 view .LVU526
 1559              	.LBE297:
 1560              	.LBE304:
 1561              		.loc 6 814 3 view .LVU527
 1562              	.LVL92:
 1563              	.LBB305:
 1564              	.LBB302:
 1565              	.LBB298:
 1566              	.LBI298:
 1567              		.loc 7 491 27 view .LVU528
 1568              	.LBB299:
 1569              		.loc 7 493 3 view .LVU529
 1570              	.LBE299:
 1571              	.LBE298:
 1572              	.LBE302:
 1573              	.LBE305:
 1574              		.loc 1 531 27 is_stmt 0 view .LVU530
 1575 0000 08B5     		push	{r3, lr}
 1576              		.cfi_def_cfa_offset 8
 1577              		.cfi_offset 3, -8
 1578              		.cfi_offset 14, -4
 1579              	.LBB306:
 1580              	.LBB303:
 1581              	.LBB301:
 1582              	.LBB300:
 1583              		.loc 7 493 3 view .LVU531
 1584 0002 3023     		movs	r3, #48
 1585              		.syntax unified
 1586              	@ 493 "../ChibiOS/os/common/ext/ARM/CMSIS/Core/Include/cmsis_gcc.h" 1
 1587 0004 83F31188 		MSR basepri, r3
 1588              	@ 0 "" 2
 1589              	.LVL93:
 1590              		.loc 7 493 3 view .LVU532
 1591              		.thumb
 1592              		.syntax unified
 1593              	.LBE300:
 1594              	.LBE301:
 1595              	.LBE303:
 1596              	.LBE306:
ARM GAS  /tmp/ccTAkVsi.s 			page 29


 1597              		.loc 5 410 35 is_stmt 1 view .LVU533
 1598              		.loc 5 411 21 view .LVU534
 1599              		.loc 1 534 3 view .LVU535
 1600 0008 FFF7FEFF 		bl	chMtxUnlockAllS
 1601              	.LVL94:
 1602              		.loc 1 535 3 view .LVU536
 1603              	.LBB307:
 1604              	.LBI307:
 1605              		.loc 5 421 20 view .LVU537
 1606              	.LBB308:
 1607              		.loc 5 423 23 view .LVU538
 1608              		.loc 5 424 34 view .LVU539
 1609              		.loc 5 430 3 view .LVU540
 1610              		.loc 5 430 3 view .LVU541
 1611              		.loc 5 430 3 view .LVU542
 1612              		.loc 5 434 3 view .LVU543
 1613              	.LBB309:
 1614              	.LBI309:
 1615              		.loc 6 830 27 view .LVU544
 1616              	.LBE309:
 1617              	.LBE308:
 1618              	.LBE307:
 1619              		.loc 6 833 3 view .LVU545
 1620              	.LBB314:
 1621              	.LBB313:
 1622              	.LBB312:
 1623              	.LBB310:
 1624              	.LBI310:
 1625              		.loc 7 491 27 view .LVU546
 1626              	.LBB311:
 1627              		.loc 7 493 3 view .LVU547
 1628 000c 0023     		movs	r3, #0
 1629              		.syntax unified
 1630              	@ 493 "../ChibiOS/os/common/ext/ARM/CMSIS/Core/Include/cmsis_gcc.h" 1
 1631 000e 83F31188 		MSR basepri, r3
 1632              	@ 0 "" 2
 1633              	.LVL95:
 1634              		.loc 7 493 3 is_stmt 0 view .LVU548
 1635              		.thumb
 1636              		.syntax unified
 1637              	.LBE311:
 1638              	.LBE310:
 1639              	.LBE312:
 1640              	.LBE313:
 1641              	.LBE314:
 1642              		.loc 1 536 1 view .LVU549
 1643 0012 08BD     		pop	{r3, pc}
 1644              		.cfi_endproc
 1645              	.LFE343:
 1646              		.size	chMtxUnlockAll, .-chMtxUnlockAll
 1647              		.text
 1648              	.Letext0:
 1649              		.file 9 "/opt/gcc-arm-none-eabi/gcc-arm-none-eabi-10.3-2021.07/arm-none-eabi/include/machine/_defa
 1650              		.file 10 "/opt/gcc-arm-none-eabi/gcc-arm-none-eabi-10.3-2021.07/arm-none-eabi/include/sys/_stdint.
 1651              		.file 11 "../ChibiOS/os/common/ports/ARM-common/chtypes.h"
 1652              		.file 12 "../ChibiOS/os/rt/include/chearly.h"
 1653              		.file 13 "../ChibiOS/os/rt/include/chobjects.h"
ARM GAS  /tmp/ccTAkVsi.s 			page 30


 1654              		.file 14 "../ChibiOS/os/rt/include/chrfcu.h"
 1655              		.file 15 "../ChibiOS/os/rt/include/chdebug.h"
 1656              		.file 16 "../ChibiOS/os/rt/include/chtime.h"
 1657              		.file 17 "../ChibiOS/os/rt/include/chsem.h"