ARM GAS  /tmp/ccPjWNNF.s 			page 1


   1              		.cpu cortex-m4
   2              		.eabi_attribute 20, 1
   3              		.eabi_attribute 21, 1
   4              		.eabi_attribute 23, 3
   5              		.eabi_attribute 24, 1
   6              		.eabi_attribute 25, 1
   7              		.eabi_attribute 26, 1
   8              		.eabi_attribute 30, 2
   9              		.eabi_attribute 34, 1
  10              		.eabi_attribute 18, 4
  11              		.file	"chobjcaches.c"
  12              		.text
  13              	.Ltext0:
  14              		.cfi_sections	.debug_frame
  15              		.section	.text.chCacheObjectInit,"ax",%progbits
  16              		.align	1
  17              		.p2align 4,,15
  18              		.global	chCacheObjectInit
  19              		.arch armv7e-m
  20              		.syntax unified
  21              		.thumb
  22              		.thumb_func
  23              		.fpu softvfp
  24              		.type	chCacheObjectInit, %function
  25              	chCacheObjectInit:
  26              	.LVL0:
  27              	.LFB337:
  28              		.file 1 "../ChibiOS/os/oslib/src/chobjcaches.c"
  29              		.loc 1 248 44 view -0
  30              		.cfi_startproc
  31              		@ args = 16, pretend = 0, frame = 0
  32              		@ frame_needed = 0, uses_anonymous_args = 0
  33              		.loc 1 250 3 view .LVU1
  34              		.loc 1 250 3 view .LVU2
  35              		.loc 1 250 3 view .LVU3
  36              		.loc 1 256 3 view .LVU4
  37              		.loc 1 248 44 is_stmt 0 view .LVU5
  38 0000 2DE9F047 		push	{r4, r5, r6, r7, r8, r9, r10, lr}
  39              		.cfi_def_cfa_offset 32
  40              		.cfi_offset 4, -32
  41              		.cfi_offset 5, -28
  42              		.cfi_offset 6, -24
  43              		.cfi_offset 7, -20
  44              		.cfi_offset 8, -16
  45              		.cfi_offset 9, -12
  46              		.cfi_offset 10, -8
  47              		.cfi_offset 14, -4
  48              		.loc 1 248 44 view .LVU6
  49 0004 0646     		mov	r6, r0
  50 0006 1F46     		mov	r7, r3
  51 0008 8946     		mov	r9, r1
  52              		.loc 1 256 3 view .LVU7
  53 000a 2430     		adds	r0, r0, #36
  54              	.LVL1:
  55              		.loc 1 256 3 view .LVU8
  56 000c 0121     		movs	r1, #1
  57              	.LVL2:
ARM GAS  /tmp/ccPjWNNF.s 			page 2


  58              		.loc 1 248 44 view .LVU9
  59 000e 1546     		mov	r5, r2
  60 0010 099C     		ldr	r4, [sp, #36]
  61 0012 DDF82080 		ldr	r8, [sp, #32]
  62              		.loc 1 256 3 view .LVU10
  63 0016 FFF7FEFF 		bl	chSemObjectInit
  64              	.LVL3:
  65              		.loc 1 257 3 is_stmt 1 view .LVU11
  66 001a 3946     		mov	r1, r7
  67 001c 06F13000 		add	r0, r6, #48
  68 0020 FFF7FEFF 		bl	chSemObjectInit
  69              	.LVL4:
  70              		.loc 1 258 3 view .LVU12
  71              		.loc 1 262 25 is_stmt 0 view .LVU13
  72 0024 0A9B     		ldr	r3, [sp, #40]
  73 0026 F363     		str	r3, [r6, #60]
  74              		.loc 1 263 25 view .LVU14
  75 0028 0B9B     		ldr	r3, [sp, #44]
  76 002a 3364     		str	r3, [r6, #64]
  77              		.loc 1 259 25 view .LVU15
  78 002c C6E90095 		strd	r9, r5, [r6]
  79              		.loc 1 260 3 is_stmt 1 view .LVU16
  80              		.loc 1 274 20 is_stmt 0 view .LVU17
  81 0030 05EBC901 		add	r1, r5, r9, lsl #3
  82              		.loc 1 264 25 view .LVU18
  83 0034 0023     		movs	r3, #0
  84              		.loc 1 266 42 view .LVU19
  85 0036 06F11409 		add	r9, r6, #20
  86              	.LVL5:
  87              		.loc 1 265 25 view .LVU20
  88 003a C6E90533 		strd	r3, r3, [r6, #20]
  89              		.loc 1 267 25 view .LVU21
  90 003e C6E90799 		strd	r9, r9, [r6, #28]
  91              		.loc 1 260 25 view .LVU22
  92 0042 B760     		str	r7, [r6, #8]
  93              		.loc 1 261 3 is_stmt 1 view .LVU23
  94              		.loc 1 261 25 is_stmt 0 view .LVU24
  95 0044 3461     		str	r4, [r6, #16]
  96              		.loc 1 262 3 is_stmt 1 view .LVU25
  97              		.loc 1 263 3 view .LVU26
  98              		.loc 1 264 3 view .LVU27
  99              		.loc 1 266 3 view .LVU28
 100              	.L2:
 101              		.loc 1 270 3 discriminator 1 view .LVU29
 102              		.loc 1 271 5 discriminator 1 view .LVU30
 103              		.loc 1 272 22 is_stmt 0 discriminator 1 view .LVU31
 104 0046 C5E90055 		strd	r5, r5, [r5]
 105              		.loc 1 273 5 is_stmt 1 discriminator 1 view .LVU32
 106              		.loc 1 273 10 is_stmt 0 discriminator 1 view .LVU33
 107 004a 0835     		adds	r5, r5, #8
 108              	.LVL6:
 109              		.loc 1 274 11 is_stmt 1 discriminator 1 view .LVU34
 110              		.loc 1 274 3 is_stmt 0 discriminator 1 view .LVU35
 111 004c A942     		cmp	r1, r5
 112 004e FAD8     		bhi	.L2
 113              	.LBB45:
 114              		.loc 1 280 5 view .LVU36
ARM GAS  /tmp/ccPjWNNF.s 			page 3


 115 0050 4FF0010A 		mov	r10, #1
 116              		.loc 1 282 21 view .LVU37
 117 0054 0025     		movs	r5, #0
 118              	.LVL7:
 119              	.L3:
 120              		.loc 1 282 21 view .LVU38
 121              	.LBE45:
 122              		.loc 1 277 3 is_stmt 1 discriminator 1 view .LVU39
 123              	.LBB46:
 124              		.loc 1 278 5 discriminator 1 view .LVU40
 125              		.loc 1 280 5 discriminator 1 view .LVU41
 126 0056 04F11800 		add	r0, r4, #24
 127 005a 0121     		movs	r1, #1
 128 005c FFF7FEFF 		bl	chSemObjectInit
 129              	.LVL8:
 130              		.loc 1 281 5 discriminator 1 view .LVU42
 131 0060 F369     		ldr	r3, [r6, #28]
 132              	.LBE46:
 133              		.loc 1 288 3 is_stmt 0 discriminator 1 view .LVU43
 134 0062 013F     		subs	r7, r7, #1
 135              	.LVL9:
 136              	.LBB47:
 137              		.loc 1 281 5 discriminator 1 view .LVU44
 138 0064 C4E90239 		strd	r3, r9, [r4, #8]
 139              		.loc 1 281 5 is_stmt 1 discriminator 1 view .LVU45
 140 0068 DC60     		str	r4, [r3, #12]
 141              		.loc 1 281 5 discriminator 1 view .LVU46
 142 006a F461     		str	r4, [r6, #28]
 143              		.loc 1 281 31 discriminator 1 view .LVU47
 144              		.loc 1 282 5 discriminator 1 view .LVU48
 145              		.loc 1 283 21 is_stmt 0 discriminator 1 view .LVU49
 146 006c C4E90455 		strd	r5, r5, [r4, #16]
 147              		.loc 1 284 5 is_stmt 1 discriminator 1 view .LVU50
 148              		.loc 1 285 21 is_stmt 0 discriminator 1 view .LVU51
 149 0070 C4E909A5 		strd	r10, r5, [r4, #36]
 150              		.loc 1 286 5 is_stmt 1 discriminator 1 view .LVU52
 151              		.loc 1 286 11 is_stmt 0 discriminator 1 view .LVU53
 152 0074 4444     		add	r4, r4, r8
 153              	.LVL10:
 154              		.loc 1 287 5 is_stmt 1 discriminator 1 view .LVU54
 155              		.loc 1 287 5 is_stmt 0 discriminator 1 view .LVU55
 156              	.LBE47:
 157              		.loc 1 288 11 is_stmt 1 discriminator 1 view .LVU56
 158              		.loc 1 288 3 is_stmt 0 discriminator 1 view .LVU57
 159 0076 EED1     		bne	.L3
 160              		.loc 1 289 1 view .LVU58
 161 0078 BDE8F087 		pop	{r4, r5, r6, r7, r8, r9, r10, pc}
 162              		.loc 1 289 1 view .LVU59
 163              		.cfi_endproc
 164              	.LFE337:
 165              		.size	chCacheObjectInit, .-chCacheObjectInit
 166              		.section	.text.chCacheGetObject,"ax",%progbits
 167              		.align	1
 168              		.p2align 4,,15
 169              		.global	chCacheGetObject
 170              		.syntax unified
 171              		.thumb
ARM GAS  /tmp/ccPjWNNF.s 			page 4


 172              		.thumb_func
 173              		.fpu softvfp
 174              		.type	chCacheGetObject, %function
 175              	chCacheGetObject:
 176              	.LVL11:
 177              	.LFB338:
 178              		.loc 1 306 45 is_stmt 1 view -0
 179              		.cfi_startproc
 180              		@ args = 0, pretend = 0, frame = 8
 181              		@ frame_needed = 0, uses_anonymous_args = 0
 182              		.loc 1 307 3 view .LVU61
 183              		.loc 1 310 3 view .LVU62
 184              	.LBB78:
 185              	.LBI78:
 186              		.file 2 "../ChibiOS/os/rt/include/chsys.h"
 187              		.loc 2 407 20 view .LVU63
 188              	.LBE78:
 189              		.loc 2 409 3 view .LVU64
 190              	.LBB89:
 191              	.LBB79:
 192              	.LBI79:
 193              		.file 3 "../ChibiOS/os/common/ports/ARMv7-M/chcore.h"
 194              		.loc 3 806 27 view .LVU65
 195              	.LBE79:
 196              	.LBE89:
 197              		.loc 3 814 3 view .LVU66
 198              	.LBB90:
 199              	.LBB86:
 200              	.LBB80:
 201              	.LBI80:
 202              		.file 4 "../ChibiOS/os/common/ext/ARM/CMSIS/Core/Include/cmsis_gcc.h"
 203              		.loc 4 491 27 view .LVU67
 204              	.LBB81:
 205              		.loc 4 493 3 view .LVU68
 206              	.LBE81:
 207              	.LBE80:
 208              	.LBE86:
 209              	.LBE90:
 210              		.loc 1 306 45 is_stmt 0 view .LVU69
 211 0000 2DE9F047 		push	{r4, r5, r6, r7, r8, r9, r10, lr}
 212              		.cfi_def_cfa_offset 32
 213              		.cfi_offset 4, -32
 214              		.cfi_offset 5, -28
 215              		.cfi_offset 6, -24
 216              		.cfi_offset 7, -20
 217              		.cfi_offset 8, -16
 218              		.cfi_offset 9, -12
 219              		.cfi_offset 10, -8
 220              		.cfi_offset 14, -4
 221              	.LBB91:
 222              	.LBB87:
 223              	.LBB84:
 224              	.LBB82:
 225              		.loc 4 493 3 view .LVU70
 226 0004 3023     		movs	r3, #48
 227              	.LBE82:
 228              	.LBE84:
ARM GAS  /tmp/ccPjWNNF.s 			page 5


 229              	.LBE87:
 230              	.LBE91:
 231              		.loc 1 306 45 view .LVU71
 232 0006 82B0     		sub	sp, sp, #8
 233              		.cfi_def_cfa_offset 40
 234              		.loc 1 306 45 view .LVU72
 235 0008 0546     		mov	r5, r0
 236 000a 0F46     		mov	r7, r1
 237 000c 1446     		mov	r4, r2
 238              	.LBB92:
 239              	.LBB88:
 240              	.LBB85:
 241              	.LBB83:
 242              		.loc 4 493 3 view .LVU73
 243              		.syntax unified
 244              	@ 493 "../ChibiOS/os/common/ext/ARM/CMSIS/Core/Include/cmsis_gcc.h" 1
 245 000e 83F31188 		MSR basepri, r3
 246              	@ 0 "" 2
 247              	.LVL12:
 248              		.loc 4 493 3 view .LVU74
 249              		.thumb
 250              		.syntax unified
 251              	.LBE83:
 252              	.LBE85:
 253              	.LBE88:
 254              	.LBE92:
 255              		.loc 2 410 35 is_stmt 1 view .LVU75
 256              		.loc 2 411 21 view .LVU76
 257              		.loc 1 313 3 view .LVU77
 258              	.LBB93:
 259              	.LBI93:
 260              		.loc 1 134 21 view .LVU78
 261              	.LBB94:
 262              		.loc 1 137 3 view .LVU79
 263              		.loc 1 138 3 view .LVU80
 264              		.loc 1 141 3 view .LVU81
 265              		.loc 1 141 22 is_stmt 0 view .LVU82
 266 0012 0368     		ldr	r3, [r0]
 267 0014 8E18     		adds	r6, r1, r2
 268 0016 03F1FF3C 		add	ip, r3, #-1
 269 001a 0CEA060C 		and	ip, ip, r6
 270              		.loc 1 141 8 view .LVU83
 271 001e 4368     		ldr	r3, [r0, #4]
 272              		.loc 1 142 8 view .LVU84
 273 0020 53F83C10 		ldr	r1, [r3, ip, lsl #3]
 274              	.LVL13:
 275              		.loc 1 141 8 view .LVU85
 276 0024 03EBCC0C 		add	ip, r3, ip, lsl #3
 277              	.LVL14:
 278              		.loc 1 142 3 is_stmt 1 view .LVU86
 279              		.loc 1 145 3 view .LVU87
 280              		.loc 1 145 9 view .LVU88
 281 0028 8C45     		cmp	ip, r1
 282 002a 03D1     		bne	.L9
 283 002c 1CE0     		b	.L13
 284              	.L11:
 285              		.loc 1 151 10 is_stmt 0 view .LVU89
ARM GAS  /tmp/ccPjWNNF.s 			page 6


 286 002e 0968     		ldr	r1, [r1]
 287              	.LVL15:
 288              		.loc 1 145 9 is_stmt 1 view .LVU90
 289 0030 8C45     		cmp	ip, r1
 290 0032 19D0     		beq	.L13
 291              	.L9:
 292              		.loc 1 146 5 view .LVU91
 293              		.loc 1 151 5 view .LVU92
 294              		.loc 1 146 8 is_stmt 0 view .LVU93
 295 0034 4B69     		ldr	r3, [r1, #20]
 296 0036 9C42     		cmp	r4, r3
 297 0038 F9D1     		bne	.L11
 298              		.loc 1 146 32 view .LVU94
 299 003a 0B69     		ldr	r3, [r1, #16]
 300 003c 9F42     		cmp	r7, r3
 301 003e F6D1     		bne	.L11
 302              	.LVL16:
 303              		.loc 1 146 32 view .LVU95
 304              	.LBE94:
 305              	.LBE93:
 306              		.loc 1 314 3 is_stmt 1 view .LVU96
 307              		.loc 1 316 5 view .LVU97
 308              		.loc 1 316 5 view .LVU98
 309              		.loc 1 316 5 view .LVU99
 310              		.loc 1 321 5 view .LVU100
 311              	.LBB95:
 312              	.LBI95:
 313              		.file 5 "../ChibiOS/os/rt/include/chsem.h"
 314              		.loc 5 189 21 view .LVU101
 315              	.LBB96:
 316              		.loc 5 191 21 view .LVU102
 317              		.loc 5 193 3 view .LVU103
 318              		.loc 5 193 12 is_stmt 0 view .LVU104
 319 0040 0B6A     		ldr	r3, [r1, #32]
 320              	.LVL17:
 321              		.loc 5 193 12 view .LVU105
 322              	.LBE96:
 323              	.LBE95:
 324              		.loc 1 321 8 view .LVU106
 325 0042 002B     		cmp	r3, #0
 326 0044 4EDD     		ble	.L27
 327              		.loc 1 324 7 is_stmt 1 discriminator 5 view .LVU107
 328              		.loc 1 324 7 discriminator 5 view .LVU108
 329              		.loc 1 324 7 discriminator 5 view .LVU109
 330              		.loc 1 328 7 discriminator 5 view .LVU110
 331              		.loc 1 329 23 is_stmt 0 discriminator 5 view .LVU111
 332 0046 4A6A     		ldr	r2, [r1, #36]
 333              	.LVL18:
 334              		.loc 1 328 7 discriminator 5 view .LVU112
 335 0048 D1E90204 		ldrd	r0, r4, [r1, #8]
 336              	.LVL19:
 337              		.loc 1 329 23 discriminator 5 view .LVU113
 338 004c 22F00102 		bic	r2, r2, #1
 339              	.LBB97:
 340              	.LBB98:
 341              		.loc 5 162 10 discriminator 5 view .LVU114
 342 0050 013B     		subs	r3, r3, #1
ARM GAS  /tmp/ccPjWNNF.s 			page 7


 343              	.LBE98:
 344              	.LBE97:
 345              		.loc 1 328 7 discriminator 5 view .LVU115
 346 0052 A060     		str	r0, [r4, #8]
 347              		.loc 1 328 7 is_stmt 1 discriminator 5 view .LVU116
 348 0054 C460     		str	r4, [r0, #12]
 349              		.loc 1 328 23 discriminator 5 view .LVU117
 350              		.loc 1 329 7 discriminator 5 view .LVU118
 351              	.LBB100:
 352              	.LBB99:
 353              		.loc 5 162 10 is_stmt 0 discriminator 5 view .LVU119
 354 0056 C1E90832 		strd	r3, r2, [r1, #32]
 355              	.LVL20:
 356              	.L14:
 357              		.loc 5 162 10 discriminator 5 view .LVU120
 358              	.LBE99:
 359              	.LBE100:
 360              		.loc 1 353 39 is_stmt 1 discriminator 1 view .LVU121
 361              		.loc 1 357 3 discriminator 1 view .LVU122
 362              	.LBB101:
 363              	.LBI101:
 364              		.loc 2 421 20 discriminator 1 view .LVU123
 365              	.LBB102:
 366              		.loc 2 423 23 discriminator 1 view .LVU124
 367              		.loc 2 424 34 discriminator 1 view .LVU125
 368              		.loc 2 430 3 discriminator 1 view .LVU126
 369              		.loc 2 430 3 discriminator 1 view .LVU127
 370              		.loc 2 430 3 discriminator 1 view .LVU128
 371              		.loc 2 434 3 discriminator 1 view .LVU129
 372              	.LBB103:
 373              	.LBI103:
 374              		.loc 3 830 27 discriminator 1 view .LVU130
 375              	.LBE103:
 376              	.LBE102:
 377              	.LBE101:
 378              		.loc 3 833 3 discriminator 1 view .LVU131
 379              	.LBB108:
 380              	.LBB107:
 381              	.LBB106:
 382              	.LBB104:
 383              	.LBI104:
 384              		.loc 4 491 27 discriminator 1 view .LVU132
 385              	.LBB105:
 386              		.loc 4 493 3 discriminator 1 view .LVU133
 387 005a 0023     		movs	r3, #0
 388              		.syntax unified
 389              	@ 493 "../ChibiOS/os/common/ext/ARM/CMSIS/Core/Include/cmsis_gcc.h" 1
 390 005c 83F31188 		MSR basepri, r3
 391              	@ 0 "" 2
 392              	.LVL21:
 393              		.loc 4 493 3 is_stmt 0 discriminator 1 view .LVU134
 394              		.thumb
 395              		.syntax unified
 396              	.LBE105:
 397              	.LBE104:
 398              	.LBE106:
 399              	.LBE107:
ARM GAS  /tmp/ccPjWNNF.s 			page 8


 400              	.LBE108:
 401              		.loc 1 359 3 is_stmt 1 discriminator 1 view .LVU135
 402              		.loc 1 360 1 is_stmt 0 discriminator 1 view .LVU136
 403 0060 0846     		mov	r0, r1
 404 0062 02B0     		add	sp, sp, #8
 405              		.cfi_remember_state
 406              		.cfi_def_cfa_offset 32
 407              		@ sp needed
 408 0064 BDE8F087 		pop	{r4, r5, r6, r7, r8, r9, r10, pc}
 409              	.LVL22:
 410              	.L13:
 411              		.cfi_restore_state
 412              	.LBB109:
 413              	.LBB110:
 414              		.loc 1 170 12 view .LVU137
 415 0068 05F13008 		add	r8, r5, #48
 416              	.LBB111:
 417              	.LBB112:
 418              	.LBB113:
 419              	.LBB114:
 420              	.LBB115:
 421              		.loc 4 493 3 view .LVU138
 422 006c 4FF0000A 		mov	r10, #0
 423              	.LBE115:
 424              	.LBE114:
 425              	.LBE113:
 426              	.LBE112:
 427              	.LBE111:
 428              		.loc 1 210 21 view .LVU139
 429 0070 4FF02209 		mov	r9, #34
 430 0074 0AE0     		b	.L10
 431              	.LVL23:
 432              	.L15:
 433              	.LBB126:
 434              	.LBB123:
 435              	.LBB120:
 436              	.LBB118:
 437              	.LBB116:
 438              		.loc 4 493 3 view .LVU140
 439              		.syntax unified
 440              	@ 493 "../ChibiOS/os/common/ext/ARM/CMSIS/Core/Include/cmsis_gcc.h" 1
 441 0076 8AF31188 		MSR basepri, r10
 442              	@ 0 "" 2
 443              	.LVL24:
 444              		.loc 4 493 3 view .LVU141
 445              		.thumb
 446              		.syntax unified
 447              	.LBE116:
 448              	.LBE118:
 449              	.LBE120:
 450              	.LBE123:
 451              	.LBE126:
 452              		.loc 1 210 5 is_stmt 1 view .LVU142
 453              		.loc 1 211 12 is_stmt 0 view .LVU143
 454 007a 0122     		movs	r2, #1
 455 007c 2B6C     		ldr	r3, [r5, #64]
 456              		.loc 1 210 21 view .LVU144
ARM GAS  /tmp/ccPjWNNF.s 			page 9


 457 007e C1F82490 		str	r9, [r1, #36]
 458              		.loc 1 211 5 is_stmt 1 view .LVU145
 459              		.loc 1 211 12 is_stmt 0 view .LVU146
 460 0082 2846     		mov	r0, r5
 461 0084 9847     		blx	r3
 462              	.LVL25:
 463              		.loc 1 214 5 is_stmt 1 view .LVU147
 464              	.LBB127:
 465              	.LBI127:
 466              		.loc 2 407 20 view .LVU148
 467              	.LBB128:
 468              		.loc 2 409 3 view .LVU149
 469              	.LBB129:
 470              	.LBI129:
 471              		.loc 3 806 27 view .LVU150
 472              	.LBE129:
 473              	.LBE128:
 474              	.LBE127:
 475              	.LBE110:
 476              	.LBE109:
 477              		.loc 3 814 3 view .LVU151
 478              	.LBB145:
 479              	.LBB143:
 480              	.LBB134:
 481              	.LBB133:
 482              	.LBB132:
 483              	.LBB130:
 484              	.LBI130:
 485              		.loc 4 491 27 view .LVU152
 486              	.LBB131:
 487              		.loc 4 493 3 view .LVU153
 488 0086 3023     		movs	r3, #48
 489              		.syntax unified
 490              	@ 493 "../ChibiOS/os/common/ext/ARM/CMSIS/Core/Include/cmsis_gcc.h" 1
 491 0088 83F31188 		MSR basepri, r3
 492              	@ 0 "" 2
 493              	.LVL26:
 494              		.loc 4 493 3 is_stmt 0 view .LVU154
 495              		.thumb
 496              		.syntax unified
 497              	.LBE131:
 498              	.LBE130:
 499              	.LBE132:
 500              		.loc 2 410 35 is_stmt 1 view .LVU155
 501              		.loc 2 411 21 view .LVU156
 502              	.L10:
 503              		.loc 2 411 21 is_stmt 0 view .LVU157
 504              	.LBE133:
 505              	.LBE134:
 506              		.loc 1 166 3 is_stmt 1 view .LVU158
 507              		.loc 1 168 3 view .LVU159
 508              		.loc 1 170 5 view .LVU160
 509              		.loc 1 170 12 is_stmt 0 view .LVU161
 510 008c 4046     		mov	r0, r8
 511 008e FFF7FEFF 		bl	chSemWaitS
 512              	.LVL27:
 513              		.loc 1 174 5 is_stmt 1 view .LVU162
ARM GAS  /tmp/ccPjWNNF.s 			page 10


 514              		.loc 1 205 5 view .LVU163
 515              	.LBB135:
 516              	.LBI111:
 517              		.loc 2 421 20 view .LVU164
 518              	.LBB124:
 519              		.loc 2 423 23 view .LVU165
 520              		.loc 2 424 34 view .LVU166
 521              		.loc 2 430 3 view .LVU167
 522              		.loc 2 430 3 view .LVU168
 523              		.loc 2 430 3 view .LVU169
 524              		.loc 2 434 3 view .LVU170
 525              	.LBB121:
 526              	.LBI113:
 527              		.loc 3 830 27 view .LVU171
 528              	.LBE121:
 529              	.LBE124:
 530              	.LBE135:
 531              	.LBE143:
 532              	.LBE145:
 533              		.loc 3 833 3 view .LVU172
 534              	.LBB146:
 535              	.LBB144:
 536              	.LBB136:
 537              	.LBB125:
 538              	.LBB122:
 539              	.LBB119:
 540              	.LBI114:
 541              		.loc 4 491 27 view .LVU173
 542              	.LBB117:
 543              		.loc 4 493 3 view .LVU174
 544              	.LBE117:
 545              	.LBE119:
 546              	.LBE122:
 547              	.LBE125:
 548              	.LBE136:
 549              		.loc 1 174 10 is_stmt 0 view .LVU175
 550 0092 296A     		ldr	r1, [r5, #32]
 551              	.LVL28:
 552              		.loc 1 176 5 is_stmt 1 view .LVU176
 553              		.loc 1 176 5 view .LVU177
 554              		.loc 1 176 5 view .LVU178
 555              		.loc 1 178 5 view .LVU179
 556              		.loc 1 178 5 view .LVU180
 557              		.loc 1 178 5 view .LVU181
 558              		.loc 1 181 5 view .LVU182
 559              	.LBB137:
 560              	.LBB138:
 561              		.loc 5 162 10 is_stmt 0 view .LVU183
 562 0094 D1E90832 		ldrd	r3, r2, [r1, #32]
 563              	.LBE138:
 564              	.LBE137:
 565              		.loc 1 181 5 view .LVU184
 566 0098 D1E9020C 		ldrd	r0, ip, [r1, #8]
 567              	.LBB141:
 568              	.LBB139:
 569              		.loc 5 162 10 view .LVU185
 570 009c 013B     		subs	r3, r3, #1
ARM GAS  /tmp/ccPjWNNF.s 			page 11


 571              	.LBE139:
 572              	.LBE141:
 573              		.loc 1 181 5 view .LVU186
 574 009e CCF80800 		str	r0, [ip, #8]
 575              		.loc 1 181 5 is_stmt 1 view .LVU187
 576 00a2 C0F80CC0 		str	ip, [r0, #12]
 577              		.loc 1 181 21 view .LVU188
 578              		.loc 1 182 5 view .LVU189
 579              		.loc 1 182 21 is_stmt 0 view .LVU190
 580 00a6 22F00100 		bic	r0, r2, #1
 581              	.LBB142:
 582              	.LBB140:
 583              		.loc 5 162 10 view .LVU191
 584 00aa C1E90830 		strd	r3, r0, [r1, #32]
 585              	.LBE140:
 586              	.LBE142:
 587              		.loc 1 190 5 is_stmt 1 view .LVU192
 588              		.loc 1 190 8 is_stmt 0 view .LVU193
 589 00ae D006     		lsls	r0, r2, #27
 590 00b0 E1D4     		bmi	.L15
 591              		.loc 1 193 7 is_stmt 1 view .LVU194
 592              		.loc 1 193 10 is_stmt 0 view .LVU195
 593 00b2 9307     		lsls	r3, r2, #30
 594 00b4 04D5     		bpl	.L16
 595              		.loc 1 194 9 is_stmt 1 view .LVU196
 596 00b6 D1E90023 		ldrd	r2, r3, [r1]
 597 00ba 1A60     		str	r2, [r3]
 598              		.loc 1 194 9 view .LVU197
 599 00bc 0A68     		ldr	r2, [r1]
 600 00be 5360     		str	r3, [r2, #4]
 601              	.L16:
 602              		.loc 1 194 26 view .LVU198
 603              		.loc 1 198 7 view .LVU199
 604              		.loc 1 200 7 view .LVU200
 605              	.LVL29:
 606              		.loc 1 200 7 is_stmt 0 view .LVU201
 607              	.LBE144:
 608              	.LBE146:
 609              		.loc 1 350 5 is_stmt 1 view .LVU202
 610              	.LBB147:
 611              		.loc 1 353 5 is_stmt 0 view .LVU203
 612 00c0 D5E90032 		ldrd	r3, r2, [r5]
 613 00c4 013B     		subs	r3, r3, #1
 614 00c6 1E40     		ands	r6, r6, r3
 615              	.LBE147:
 616              		.loc 1 352 21 view .LVU204
 617 00c8 0A23     		movs	r3, #10
 618 00ca 4B62     		str	r3, [r1, #36]
 619              	.LBB148:
 620              		.loc 1 353 5 view .LVU205
 621 00cc 52F83630 		ldr	r3, [r2, r6, lsl #3]
 622              	.LBE148:
 623              		.loc 1 350 21 view .LVU206
 624 00d0 0F61     		str	r7, [r1, #16]
 625              		.loc 1 351 5 is_stmt 1 view .LVU207
 626              	.LBB149:
 627              		.loc 1 353 5 is_stmt 0 view .LVU208
ARM GAS  /tmp/ccPjWNNF.s 			page 12


 628 00d2 02EBC600 		add	r0, r2, r6, lsl #3
 629 00d6 C1E90030 		strd	r3, r0, [r1]
 630              	.LBE149:
 631              		.loc 1 351 21 view .LVU209
 632 00da 4C61     		str	r4, [r1, #20]
 633              		.loc 1 352 5 is_stmt 1 view .LVU210
 634              	.LBB150:
 635              		.loc 1 353 5 view .LVU211
 636              		.loc 1 353 5 view .LVU212
 637              	.LVL30:
 638              		.loc 1 353 5 view .LVU213
 639              		.loc 1 353 5 view .LVU214
 640 00dc 5960     		str	r1, [r3, #4]
 641              		.loc 1 353 5 view .LVU215
 642 00de 42F83610 		str	r1, [r2, r6, lsl #3]
 643 00e2 BAE7     		b	.L14
 644              	.LVL31:
 645              	.L27:
 646              		.loc 1 353 5 is_stmt 0 view .LVU216
 647              	.LBE150:
 648              		.loc 1 339 7 is_stmt 1 discriminator 5 view .LVU217
 649              		.loc 1 339 7 discriminator 5 view .LVU218
 650              		.loc 1 339 7 discriminator 5 view .LVU219
 651              		.loc 1 342 7 discriminator 5 view .LVU220
 652              		.loc 1 342 14 is_stmt 0 discriminator 5 view .LVU221
 653 00e4 01F11800 		add	r0, r1, #24
 654              	.LVL32:
 655              		.loc 1 342 14 discriminator 5 view .LVU222
 656 00e8 0191     		str	r1, [sp, #4]
 657 00ea FFF7FEFF 		bl	chSemWaitS
 658              	.LVL33:
 659              		.loc 1 342 14 discriminator 5 view .LVU223
 660 00ee 0199     		ldr	r1, [sp, #4]
 661 00f0 B3E7     		b	.L14
 662              		.cfi_endproc
 663              	.LFE338:
 664              		.size	chCacheGetObject, .-chCacheGetObject
 665 00f2 00BF     		.section	.text.chCacheReleaseObjectI,"ax",%progbits
 666              		.align	1
 667              		.p2align 4,,15
 668              		.global	chCacheReleaseObjectI
 669              		.syntax unified
 670              		.thumb
 671              		.thumb_func
 672              		.fpu softvfp
 673              		.type	chCacheReleaseObjectI, %function
 674              	chCacheReleaseObjectI:
 675              	.LVL34:
 676              	.LFB339:
 677              		.loc 1 380 47 is_stmt 1 view -0
 678              		.cfi_startproc
 679              		@ args = 0, pretend = 0, frame = 0
 680              		@ frame_needed = 0, uses_anonymous_args = 0
 681              		.loc 1 383 3 view .LVU225
 682              		.loc 1 383 3 view .LVU226
 683              		.loc 1 383 3 view .LVU227
 684              		.loc 1 387 3 view .LVU228
ARM GAS  /tmp/ccPjWNNF.s 			page 13


 685              		.loc 1 387 3 view .LVU229
 686              		.loc 1 387 3 view .LVU230
 687              		.loc 1 392 3 view .LVU231
 688              		.loc 1 392 6 is_stmt 0 view .LVU232
 689 0000 0B6A     		ldr	r3, [r1, #32]
 690 0002 002B     		cmp	r3, #0
 691              		.loc 1 380 47 view .LVU233
 692 0004 10B5     		push	{r4, lr}
 693              		.cfi_def_cfa_offset 8
 694              		.cfi_offset 4, -8
 695              		.cfi_offset 14, -4
 696              		.loc 1 396 21 view .LVU234
 697 0006 4B6A     		ldr	r3, [r1, #36]
 698              		.loc 1 380 47 view .LVU235
 699 0008 0C46     		mov	r4, r1
 700              	.LVL35:
 701              	.LBB151:
 702              	.LBI151:
 703              		.loc 5 189 21 is_stmt 1 view .LVU236
 704              	.LBB152:
 705              		.loc 5 191 21 view .LVU237
 706              		.loc 5 193 3 view .LVU238
 707              		.loc 5 193 3 is_stmt 0 view .LVU239
 708              	.LBE152:
 709              	.LBE151:
 710              		.loc 1 392 6 view .LVU240
 711 000a 2FDB     		blt	.L35
 712              		.loc 1 403 3 is_stmt 1 view .LVU241
 713              		.loc 1 403 6 is_stmt 0 view .LVU242
 714 000c 1907     		lsls	r1, r3, #28
 715              	.LVL36:
 716              		.loc 1 403 6 view .LVU243
 717 000e 14D4     		bmi	.L36
 718              		.loc 1 412 5 is_stmt 1 view .LVU244
 719              		.loc 1 412 8 is_stmt 0 view .LVU245
 720 0010 9A06     		lsls	r2, r3, #26
 721 0012 23D4     		bmi	.L32
 722              		.loc 1 414 7 is_stmt 1 view .LVU246
 723 0014 C269     		ldr	r2, [r0, #28]
 724 0016 00F11401 		add	r1, r0, #20
 725 001a C4E90221 		strd	r2, r1, [r4, #8]
 726              		.loc 1 414 7 view .LVU247
 727 001e D460     		str	r4, [r2, #12]
 728              		.loc 1 414 7 view .LVU248
 729 0020 C461     		str	r4, [r0, #28]
 730              		.loc 1 414 33 view .LVU249
 731              	.L33:
 732              		.loc 1 418 33 discriminator 1 view .LVU250
 733              		.loc 1 420 5 discriminator 1 view .LVU251
 734              		.loc 1 421 5 discriminator 1 view .LVU252
 735              		.loc 1 420 21 is_stmt 0 discriminator 1 view .LVU253
 736 0022 03F01203 		and	r3, r3, #18
 737              		.loc 1 421 21 discriminator 1 view .LVU254
 738 0026 43F00103 		orr	r3, r3, #1
 739 002a 6362     		str	r3, [r4, #36]
 740              	.L31:
 741              		.loc 1 425 3 is_stmt 1 view .LVU255
ARM GAS  /tmp/ccPjWNNF.s 			page 14


 742 002c 3030     		adds	r0, r0, #48
 743              	.LVL37:
 744              		.loc 1 425 3 is_stmt 0 view .LVU256
 745 002e FFF7FEFF 		bl	chSemSignalI
 746              	.LVL38:
 747              		.loc 1 429 3 is_stmt 1 view .LVU257
 748              	.LBB153:
 749              	.LBI153:
 750              		.loc 5 174 20 view .LVU258
 751              	.LBB154:
 752              		.loc 5 176 21 view .LVU259
 753              		.loc 5 178 3 view .LVU260
 754              		.loc 5 178 10 is_stmt 0 view .LVU261
 755 0032 236A     		ldr	r3, [r4, #32]
 756 0034 0133     		adds	r3, r3, #1
 757 0036 2362     		str	r3, [r4, #32]
 758              	.LVL39:
 759              		.loc 5 178 10 view .LVU262
 760              	.LBE154:
 761              	.LBE153:
 762              		.loc 1 430 1 view .LVU263
 763 0038 10BD     		pop	{r4, pc}
 764              	.LVL40:
 765              	.L36:
 766              		.loc 1 404 5 is_stmt 1 view .LVU264
 767 003a D4E90031 		ldrd	r3, r1, [r4]
 768              		.loc 1 405 5 is_stmt 0 view .LVU265
 769 003e 026A     		ldr	r2, [r0, #32]
 770              		.loc 1 404 5 view .LVU266
 771 0040 0B60     		str	r3, [r1]
 772              		.loc 1 404 5 is_stmt 1 view .LVU267
 773 0042 5960     		str	r1, [r3, #4]
 774              		.loc 1 404 22 view .LVU268
 775              		.loc 1 405 5 view .LVU269
 776 0044 00F11401 		add	r1, r0, #20
 777 0048 C4E90212 		strd	r1, r2, [r4, #8]
 778              		.loc 1 405 5 view .LVU270
 779              		.loc 1 406 21 is_stmt 0 view .LVU271
 780 004c 0023     		movs	r3, #0
 781              		.loc 1 408 21 view .LVU272
 782 004e 0121     		movs	r1, #1
 783              		.loc 1 405 5 view .LVU273
 784 0050 9460     		str	r4, [r2, #8]
 785              		.loc 1 405 5 is_stmt 1 view .LVU274
 786 0052 0462     		str	r4, [r0, #32]
 787              		.loc 1 405 31 view .LVU275
 788              		.loc 1 406 5 view .LVU276
 789              		.loc 1 407 21 is_stmt 0 view .LVU277
 790 0054 C4E90433 		strd	r3, r3, [r4, #16]
 791              		.loc 1 408 5 is_stmt 1 view .LVU278
 792              		.loc 1 408 21 is_stmt 0 view .LVU279
 793 0058 6162     		str	r1, [r4, #36]
 794 005a E7E7     		b	.L31
 795              	.L32:
 796              		.loc 1 418 7 is_stmt 1 view .LVU280
 797 005c 026A     		ldr	r2, [r0, #32]
 798 005e 00F11401 		add	r1, r0, #20
ARM GAS  /tmp/ccPjWNNF.s 			page 15


 799 0062 C4E90212 		strd	r1, r2, [r4, #8]
 800              		.loc 1 418 7 view .LVU281
 801 0066 9460     		str	r4, [r2, #8]
 802              		.loc 1 418 7 view .LVU282
 803 0068 0462     		str	r4, [r0, #32]
 804 006a DAE7     		b	.L33
 805              	.LVL41:
 806              	.L35:
 807              		.loc 1 396 5 view .LVU283
 808              		.loc 1 396 21 is_stmt 0 view .LVU284
 809 006c 03F01A03 		and	r3, r3, #26
 810              		.loc 1 430 1 view .LVU285
 811 0070 BDE81040 		pop	{r4, lr}
 812              		.cfi_restore 14
 813              		.cfi_restore 4
 814              		.cfi_def_cfa_offset 0
 815              		.loc 1 397 5 view .LVU286
 816 0074 01F11800 		add	r0, r1, #24
 817              	.LVL42:
 818              		.loc 1 396 21 view .LVU287
 819 0078 4B62     		str	r3, [r1, #36]
 820              		.loc 1 397 5 is_stmt 1 view .LVU288
 821 007a FFF7FEBF 		b	chSemSignalI
 822              	.LVL43:
 823              		.loc 1 397 5 is_stmt 0 view .LVU289
 824              		.cfi_endproc
 825              	.LFE339:
 826              		.size	chCacheReleaseObjectI, .-chCacheReleaseObjectI
 827 007e 00BF     		.section	.text.chCacheReadObject,"ax",%progbits
 828              		.align	1
 829              		.p2align 4,,15
 830              		.global	chCacheReadObject
 831              		.syntax unified
 832              		.thumb
 833              		.thumb_func
 834              		.fpu softvfp
 835              		.type	chCacheReadObject, %function
 836              	chCacheReadObject:
 837              	.LVL44:
 838              	.LFB340:
 839              		.loc 1 451 36 is_stmt 1 view -0
 840              		.cfi_startproc
 841              		@ args = 0, pretend = 0, frame = 0
 842              		@ frame_needed = 0, uses_anonymous_args = 0
 843              		@ link register save eliminated.
 844              		.loc 1 456 3 view .LVU291
 845              		.loc 1 451 36 is_stmt 0 view .LVU292
 846 0000 30B4     		push	{r4, r5}
 847              		.cfi_def_cfa_offset 8
 848              		.cfi_offset 4, -8
 849              		.cfi_offset 5, -4
 850              		.loc 1 456 19 view .LVU293
 851 0002 4C6A     		ldr	r4, [r1, #36]
 852              		.loc 1 458 10 view .LVU294
 853 0004 C56B     		ldr	r5, [r0, #60]
 854              		.loc 1 456 19 view .LVU295
 855 0006 44F00804 		orr	r4, r4, #8
ARM GAS  /tmp/ccPjWNNF.s 			page 16


 856 000a 4C62     		str	r4, [r1, #36]
 857              		.loc 1 458 3 is_stmt 1 view .LVU296
 858              		.loc 1 458 10 is_stmt 0 view .LVU297
 859 000c 2B46     		mov	r3, r5
 860              		.loc 1 459 1 view .LVU298
 861 000e 30BC     		pop	{r4, r5}
 862              		.cfi_restore 5
 863              		.cfi_restore 4
 864              		.cfi_def_cfa_offset 0
 865              		.loc 1 458 10 view .LVU299
 866 0010 1847     		bx	r3
 867              	.LVL45:
 868              		.loc 1 458 10 view .LVU300
 869              		.cfi_endproc
 870              	.LFE340:
 871              		.size	chCacheReadObject, .-chCacheReadObject
 872 0012 00BF     		.section	.text.chCacheWriteObject,"ax",%progbits
 873              		.align	1
 874              		.p2align 4,,15
 875              		.global	chCacheWriteObject
 876              		.syntax unified
 877              		.thumb
 878              		.thumb_func
 879              		.fpu softvfp
 880              		.type	chCacheWriteObject, %function
 881              	chCacheWriteObject:
 882              	.LVL46:
 883              	.LFB341:
 884              		.loc 1 480 37 is_stmt 1 view -0
 885              		.cfi_startproc
 886              		@ args = 0, pretend = 0, frame = 0
 887              		@ frame_needed = 0, uses_anonymous_args = 0
 888              		@ link register save eliminated.
 889              		.loc 1 484 3 view .LVU302
 890              		.loc 1 480 37 is_stmt 0 view .LVU303
 891 0000 30B4     		push	{r4, r5}
 892              		.cfi_def_cfa_offset 8
 893              		.cfi_offset 4, -8
 894              		.cfi_offset 5, -4
 895              		.loc 1 484 19 view .LVU304
 896 0002 4C6A     		ldr	r4, [r1, #36]
 897              		.loc 1 486 10 view .LVU305
 898 0004 056C     		ldr	r5, [r0, #64]
 899              		.loc 1 484 19 view .LVU306
 900 0006 24F01004 		bic	r4, r4, #16
 901 000a 4C62     		str	r4, [r1, #36]
 902              		.loc 1 486 3 is_stmt 1 view .LVU307
 903              		.loc 1 486 10 is_stmt 0 view .LVU308
 904 000c 2B46     		mov	r3, r5
 905              		.loc 1 487 1 view .LVU309
 906 000e 30BC     		pop	{r4, r5}
 907              		.cfi_restore 5
 908              		.cfi_restore 4
 909              		.cfi_def_cfa_offset 0
 910              		.loc 1 486 10 view .LVU310
 911 0010 1847     		bx	r3
 912              	.LVL47:
ARM GAS  /tmp/ccPjWNNF.s 			page 17


 913              		.loc 1 486 10 view .LVU311
 914              		.cfi_endproc
 915              	.LFE341:
 916              		.size	chCacheWriteObject, .-chCacheWriteObject
 917 0012 00BF     		.text
 918              	.Letext0:
 919              		.file 6 "/opt/gcc-arm-none-eabi/gcc-arm-none-eabi-10.3-2021.07/lib/gcc/arm-none-eabi/10.3.1/includ
 920              		.file 7 "/opt/gcc-arm-none-eabi/gcc-arm-none-eabi-10.3-2021.07/arm-none-eabi/include/machine/_defa
 921              		.file 8 "/opt/gcc-arm-none-eabi/gcc-arm-none-eabi-10.3-2021.07/arm-none-eabi/include/sys/_stdint.h
 922              		.file 9 "../ChibiOS/os/rt/include/chearly.h"
 923              		.file 10 "../ChibiOS/os/rt/include/chlists.h"
 924              		.file 11 "../ChibiOS/os/oslib/include/chobjcaches.h"