ARM GAS  /tmp/ccPjWNNF.s 			page 1


   1              		.cpu cortex-m4
   2              		.eabi_attribute 20, 1
   3              		.eabi_attribute 21, 1
   4              		.eabi_attribute 23, 3
   5              		.eabi_attribute 24, 1
   6              		.eabi_attribute 25, 1
   7              		.eabi_attribute 26, 1
   8              		.eabi_attribute 30, 2
   9              		.eabi_attribute 34, 1
  10              		.eabi_attribute 18, 4
  11              		.file	"chobjcaches.c"
  12              		.text
  13              	.Ltext0:
  14              		.cfi_sections	.debug_frame
  15              		.section	.text.chCacheObjectInit,"ax",%progbits
  16              		.align	1
  17              		.p2align 4,,15
  18              		.global	chCacheObjectInit
  19              		.arch armv7e-m
  20              		.syntax unified
  21              		.thumb
  22              		.thumb_func
  23              		.fpu softvfp
  24              		.type	chCacheObjectInit, %function
  25              	chCacheObjectInit:
  26              	.LVL0:
  27              	.LFB337:
  28              		.file 1 "../ChibiOS/os/oslib/src/chobjcaches.c"
  29              		.loc 1 248 44 view -0
  30              		.cfi_startproc
  31              		@ args = 16, pretend = 0, frame = 0
  32              		@ frame_needed = 0, uses_anonymous_args = 0
  33              		.loc 1 250 3 view .LVU1
  34              		.loc 1 250 3 view .LVU2
  35              		.loc 1 250 3 view .LVU3
  36              		.loc 1 256 3 view .LVU4
  37              		.loc 1 248 44 is_stmt 0 view .LVU5
  38 0000 2DE9F047 		push	{r4, r5, r6, r7, r8, r9, r10, lr}
  39              		.cfi_def_cfa_offset 32
  40              		.cfi_offset 4, -32
  41              		.cfi_offset 5, -28
  42              		.cfi_offset 6, -24
  43              		.cfi_offset 7, -20
  44              		.cfi_offset 8, -16
  45              		.cfi_offset 9, -12
  46              		.cfi_offset 10, -8
  47              		.cfi_offset 14, -4
  48              		.loc 1 248 44 view .LVU6
  49 0004 0646     		mov	r6, r0
  50 0006 1F46     		mov	r7, r3
  51 0008 8946     		mov	r9, r1
  52              		.loc 1 256 3 view .LVU7
  53 000a 2430     		adds	r0, r0, #36
  54              	.LVL1:
  55              		.loc 1 256 3 view .LVU8
  56 000c 0121     		movs	r1, #1
  57              	.LVL2:
ARM GAS  /tmp/ccPjWNNF.s 			page 2


  58              		.loc 1 248 44 view .LVU9
  59 000e 1546     		mov	r5, r2
  60 0010 099C     		ldr	r4, [sp, #36]
  61 0012 DDF82080 		ldr	r8, [sp, #32]
  62              		.loc 1 256 3 view .LVU10
  63 0016 FFF7FEFF 		bl	chSemObjectInit
  64              	.LVL3:
  65              		.loc 1 257 3 is_stmt 1 view .LVU11
  66 001a 3946     		mov	r1, r7
  67 001c 06F13000 		add	r0, r6, #48
  68 0020 FFF7FEFF 		bl	chSemObjectInit
  69              	.LVL4:
  70              		.loc 1 258 3 view .LVU12
  71              		.loc 1 262 25 is_stmt 0 view .LVU13
  72 0024 0A9B     		ldr	r3, [sp, #40]
  73 0026 F363     		str	r3, [r6, #60]
  74              		.loc 1 263 25 view .LVU14
  75 0028 0B9B     		ldr	r3, [sp, #44]
  76 002a 3364     		str	r3, [r6, #64]
  77              		.loc 1 259 25 view .LVU15
  78 002c C6E90095 		strd	r9, r5, [r6]
  79              		.loc 1 260 3 is_stmt 1 view .LVU16
  80              		.loc 1 274 20 is_stmt 0 view .LVU17
  81 0030 05EBC901 		add	r1, r5, r9, lsl #3
  82              		.loc 1 264 25 view .LVU18
  83 0034 0023     		movs	r3, #0
  84              		.loc 1 266 42 view .LVU19
  85 0036 06F11409 		add	r9, r6, #20
  86              	.LVL5:
  87              		.loc 1 265 25 view .LVU20
  88 003a C6E90533 		strd	r3, r3, [r6, #20]
  89              		.loc 1 267 25 view .LVU21
  90 003e C6E90799 		strd	r9, r9, [r6, #28]
  91              		.loc 1 260 25 view .LVU22
  92 0042 B760     		str	r7, [r6, #8]
  93              		.loc 1 261 3 is_stmt 1 view .LVU23
  94              		.loc 1 261 25 is_stmt 0 view .LVU24
  95 0044 3461     		str	r4, [r6, #16]
  96              		.loc 1 262 3 is_stmt 1 view .LVU25
  97              		.loc 1 263 3 view .LVU26
  98              		.loc 1 264 3 view .LVU27
  99              		.loc 1 266 3 view .LVU28
 100              	.L2:
 101              		.loc 1 270 3 discriminator 1 view .LVU29
 102              		.loc 1 271 5 discriminator 1 view .LVU30
 103              		.loc 1 272 22 is_stmt 0 discriminator 1 view .LVU31
 104 0046 C5E90055 		strd	r5, r5, [r5]
 105              		.loc 1 273 5 is_stmt 1 discriminator 1 view .LVU32
 106              		.loc 1 273 10 is_stmt 0 discriminator 1 view .LVU33
 107 004a 0835     		adds	r5, r5, #8
 108              	.LVL6:
 109              		.loc 1 274 11 is_stmt 1 discriminator 1 view .LVU34
 110              		.loc 1 274 3 is_stmt 0 discriminator 1 view .LVU35
 111 004c A942     		cmp	r1, r5
 112 004e FAD8     		bhi	.L2
 113              	.LBB45:
 114              		.loc 1 280 5 view .LVU36
ARM GAS  /tmp/ccPjWNNF.s 			page 3


 115 0050 4FF0010A 		mov	r10, #1
 116              		.loc 1 282 21 view .LVU37
 117 0054 0025     		movs	r5, #0
 118              	.LVL7:
 119              	.L3:
 120              		.loc 1 282 21 view .LVU38
 121              	.LBE45:
 122              		.loc 1 277 3 is_stmt 1 discriminator 1 view .LVU39
 123              	.LBB46:
 124              		.loc 1 278 5 discriminator 1 view .LVU40
 125              		.loc 1 280 5 discriminator 1 view .LVU41
 126 0056 04F11800 		add	r0, r4, #24
 127 005a 0121     		movs	r1, #1
 128 005c FFF7FEFF 		bl	chSemObjectInit
 129              	.LVL8:
 130              		.loc 1 281 5 discriminator 1 view .LVU42
 131 0060 F369     		ldr	r3, [r6, #28]
 132              	.LBE46:
 133              		.loc 1 288 3 is_stmt 0 discriminator 1 view .LVU43
 134 0062 013F     		subs	r7, r7, #1
 135              	.LVL9:
 136              	.LBB47:
 137              		.loc 1 281 5 discriminator 1 view .LVU44
 138 0064 C4E90239 		strd	r3, r9, [r4, #8]
 139              		.loc 1 281 5 is_stmt 1 discriminator 1 view .LVU45
 140 0068 DC60     		str	r4, [r3, #12]
 141              		.loc 1 281 5 discriminator 1 view .LVU46
 142 006a F461     		str	r4, [r6, #28]
 143              		.loc 1 281 31 discriminator 1 view .LVU47
 144              		.loc 1 282 5 discriminator 1 view .LVU48
 145              		.loc 1 283 21 is_stmt 0 discriminator 1 view .LVU49
 146 006c C4E90455 		strd	r5, r5, [r4, #16]
 147              		.loc 1 284 5 is_stmt 1 discriminator 1 view .LVU50
 148              		.loc 1 285 21 is_stmt 0 discriminator 1 view .LVU51
 149 0070 C4E909A5 		strd	r10, r5, [r4, #36]
 150              		.loc 1 286 5 is_stmt 1 discriminator 1 view .LVU52
 151              		.loc 1 286 11 is_stmt 0 discriminator 1 view .LVU53
 152 0074 4444     		add	r4, r4, r8
 153              	.LVL10:
 154              		.loc 1 287 5 is_stmt 1 discriminator 1 view .LVU54
 155              		.loc 1 287 5 is_stmt 0 discriminator 1 view .LVU55
 156              	.LBE47:
 157              		.loc 1 288 11 is_stmt 1 discriminator 1 view .LVU56
 158              		.loc 1 288 3 is_stmt 0 discriminator 1 view .LVU57
 159 0076 EED1     		bne	.L3
 160              		.loc 1 289 1 view .LVU58
 161 0078 BDE8F087 		pop	{r4, r5, r6, r7, r8, r9, r10, pc}
 162              		.loc 1 289 1 view .LVU59
 163              		.cfi_endproc
 164              	.LFE337:
 165              		.size	chCacheObjectInit, .-chCacheObjectInit
 166              		.section	.text.chCacheGetObject,"ax",%progbits
 167              		.align	1
 168              		.p2align 4,,15
 169              		.global	chCacheGetObject
 170              		.syntax unified
 171              		.thumb
ARM GAS  /tmp/ccPjWNNF.s 			page 4


 172              		.thumb_func
 173              		.fpu softvfp
 174              		.type	chCacheGetObject, %function
 175              	chCacheGetObject:
 176              	.LVL11:
 177              	.LFB338:
 178              		.loc 1 306 45 is_stmt 1 view -0
 179              		.cfi_startproc
 180              		@ args = 0, pretend = 0, frame = 8
 181              		@ frame_needed = 0, uses_anonymous_args = 0
 182              		.loc 1 307 3 view .LVU61
 183              		.loc 1 310 3 view .LVU62
 184              	.LBB78:
 185              	.LBI78:
 186              		.file 2 "../ChibiOS/os/rt/include/chsys.h"
 187              		.loc 2 407 20 view .LVU63
 188              	.LBE78:
 189              		.loc 2 409 3 view .LVU64
 190              	.LBB89:
 191              	.LBB79:
 192              	.LBI79:
 193              		.file 3 "../ChibiOS/os/common/ports/ARMv7-M/chcore.h"
 194              		.loc 3 806 27 view .LVU65
 195              	.LBE79:
 196              	.LBE89:
 197              		.loc 3 814 3 view .LVU66
 198              	.LBB90:
 199              	.LBB86:
 200              	.LBB80:
 201              	.LBI80:
 202              		.file 4 "../ChibiOS/os/common/ext/ARM/CMSIS/Core/Include/cmsis_gcc.h"
 203              		.loc 4 491 27 view .LVU67
 204              	.LBB81:
 205              		.loc 4 493 3 view .LVU68
 206              	.LBE81:
 207              	.LBE80:
 208              	.LBE86:
 209              	.LBE90:
 210              		.loc 1 306 45 is_stmt 0 view .LVU69
 211 0000 2DE9F047 		push	{r4, r5, r6, r7, r8, r9, r10, lr}
 212              		.cfi_def_cfa_offset 32
 213              		.cfi_offset 4, -32
 214              		.cfi_offset 5, -28
 215              		.cfi_offset 6, -24
 216              		.cfi_offset 7, -20
 217              		.cfi_offset 8, -16
 218              		.cfi_offset 9, -12
 219              		.cfi_offset 10, -8
 220              		.cfi_offset 14, -4
 221              	.LBB91:
 222              	.LBB87:
 223              	.LBB84:
 224              	.LBB82:
 225              		.loc 4 493 3 view .LVU70
 226 0004 3023     		movs	r3, #48
 227              	.LBE82:
 228              	.LBE84:
ARM GAS  /tmp/ccPjWNNF.s 			page 5


 229              	.LBE87:
 230              	.LBE91:
 231              		.loc 1 306 45 view .LVU71
 232 0006 82B0     		sub	sp, sp, #8
 233              		.cfi_def_cfa_offset 40
 234              		.loc 1 306 45 view .LVU72
 235 0008 0546     		mov	r5, r0
 236 000a 0F46     		mov	r7, r1
 237 000c 1446     		mov	r4, r2
 238              	.LBB92:
 239              	.LBB88:
 240              	.LBB85:
 241              	.LBB83:
 242              		.loc 4 493 3 view .LVU73
 243              		.syntax unified
 244              	@ 493 "../ChibiOS/os/common/ext/ARM/CMSIS/Core/Include/cmsis_gcc.h" 1
 245 000e 83F31188 		MSR basepri, r3
 246              	@ 0 "" 2
 247              	.LVL12:
 248              		.loc 4 493 3 view .LVU74
 249              		.thumb
 250              		.syntax unified
 251              	.LBE83:
 252              	.LBE85:
 253              	.LBE88:
 254              	.LBE92:
 255              		.loc 2 410 35 is_stmt 1 view .LVU75
 256              		.loc 2 411 21 view .LVU76
 257              		.loc 1 313 3 view .LVU77
 258              	.LBB93:
 259              	.LBI93:
 260              		.loc 1 134 21 view .LVU78
 261              	.LBB94:
 262              		.loc 1 137 3 view .LVU79
 263              		.loc 1 138 3 view .LVU80
 264              		.loc 1 141 3 view .LVU81
 265              		.loc 1 141 22 is_stmt 0 view .LVU82
 266 0012 0368     		ldr	r3, [r0]
 267 0014 8E18     		adds	r6, r1, r2
 268 0016 03F1FF3C 		add	ip, r3, #-1
 269 001a 0CEA060C 		and	ip, ip, r6
 270              		.loc 1 141 8 view .LVU83
 271 001e 4368     		ldr	r3, [r0, #4]
 272              		.loc 1 142 8 view .LVU84
 273 0020 53F83C10 		ldr	r1, [r3, ip, lsl #3]
 274              	.LVL13:
 275              		.loc 1 141 8 view .LVU85
 276 0024 03EBCC0C 		add	ip, r3, ip, lsl #3
 277              	.LVL14:
 278              		.loc 1 142 3 is_stmt 1 view .LVU86
 279              		.loc 1 145 3 view .LVU87
 280              		.loc 1 145 9 view .LVU88
 281 0028 8C45     		cmp	ip, r1
 282 002a 03D1     		bne	.L9
 283 002c 1CE0     		b	.L13
 284              	.L11:
 285              		.loc 1 151 10 is_stmt 0 view .LVU89
ARM GAS  /tmp/ccPjWNNF.s 			page 6


 286 002e 0968     		ldr	r1, [r1]
 287              	.LVL15:
 288              		.loc 1 145 9 is_stmt 1 view .LVU90
 289 0030 8C45     		cmp	ip, r1
 290 0032 19D0     		beq	.L13
 291              	.L9:
 292              		.loc 1 146 5 view .LVU91
 293              		.loc 1 151 5 view .LVU92
 294              		.loc 1 146 8 is_stmt 0 view .LVU93
 295 0034 4B69     		ldr	r3, [r1, #20]
 296 0036 9C42     		cmp	r4, r3
 297 0038 F9D1     		bne	.L11
 298              		.loc 1 146 32 view .LVU94
 299 003a 0B69     		ldr	r3, [r1, #16]
 300 003c 9F42     		cmp	r7, r3
 301 003e F6D1     		bne	.L11
 302              	.LVL16:
 303              		.loc 1 146 32 view .LVU95
 304              	.LBE94:
 305              	.LBE93:
 306              		.loc 1 314 3 is_stmt 1 view .LVU96
 307              		.loc 1 316 5 view .LVU97
 308              		.loc 1 316 5 view .LVU98
 309              		.loc 1 316 5 view .LVU99
 310              		.loc 1 321 5 view .LVU100
 311              	.LBB95:
 312              	.LBI95:
 313              		.file 5 "../ChibiOS/os/rt/include/chsem.h"
 314              		.loc 5 189 21 view .LVU101
 315              	.LBB96:
 316              		.loc 5 191 21 view .LVU102
 317              		.loc 5 193 3 view .LVU103
 318              		.loc 5 193 12 is_stmt 0 view .LVU104
 319 0040 0B6A     		ldr	r3, [r1, #32]
 320              	.LVL17:
 321              		.loc 5 193 12 view .LVU105
 322              	.LBE96:
 323              	.LBE95:
 324              		.loc 1 321 8 view .LVU106
 325 0042 002B     		cmp	r3, #0
 326 0044 4EDD     		ble	.L27
 327              		.loc 1 324 7 is_stmt 1 discriminator 5 view .LVU107
 328              		.loc 1 324 7 discriminator 5 view .LVU108
 329              		.loc 1 324 7 discriminator 5 view .LVU109
 330              		.loc 1 328 7 discriminator 5 view .LVU110
 331              		.loc 1 329 23 is_stmt 0 discriminator 5 view .LVU111
 332 0046 4A6A     		ldr	r2, [r1, #36]
 333              	.LVL18:
 334              		.loc 1 328 7 discriminator 5 view .LVU112
 335 0048 D1E90204 		ldrd	r0, r4, [r1, #8]
 336              	.LVL19:
 337              		.loc 1 329 23 discriminator 5 view .LVU113
 338 004c 22F00102 		bic	r2, r2, #1
 339              	.LBB97:
 340              	.LBB98:
 341              		.loc 5 162 10 discriminator 5 view .LVU114
 342 0050 013B     		subs	r3, r3, #1
ARM GAS  /tmp/ccPjWNNF.s 			page 7


 343              	.LBE98:
 344              	.LBE97:
 345              		.loc 1 328 7 discriminator 5 view .LVU115
 346 0052 A060     		str	r0, [r4, #8]
 347              		.loc 1 328 7 is_stmt 1 discriminator 5 view .LVU116
 348 0054 C460     		str	r4, [r0, #12]
 349              		.loc 1 328 23 discriminator 5 view .LVU117
 350              		.loc 1 329 7 discriminator 5 view .LVU118
 351              	.LBB100:
 352              	.LBB99:
 353              		.loc 5 162 10 is_stmt 0 discriminator 5 view .LVU119
 354 0056 C1E90832 		strd	r3, r2, [r1, #32]
 355              	.LVL20:
 356              	.L14:
 357              		.loc 5 162 10 discriminator 5 view .LVU120
 358              	.LBE99:
 359              	.LBE100:
 360              		.loc 1 353 39 is_stmt 1 discriminator 1 view .LVU121
 361              		.loc 1 357 3 discriminator 1 view .LVU122
 362              	.LBB101:
 363              	.LBI101:
 364              		.loc 2 421 20 discriminator 1 view .LVU123
 365              	.LBB102:
 366              		.loc 2 423 23 discriminator 1 view .LVU124
 367              		.loc 2 424 34 discriminator 1 view .LVU125
 368              		.loc 2 430 3 discriminator 1 view .LVU126
 369              		.loc 2 430 3 discriminator 1 view .LVU127
 370              		.loc 2 430 3 discriminator 1 view .LVU128
 371              		.loc 2 434 3 discriminator 1 view .LVU129
 372              	.LBB103:
 373              	.LBI103:
 374              		.loc 3 830 27 discriminator 1 view .LVU130
 375              	.LBE103:
 376              	.LBE102:
 377              	.LBE101:
 378              		.loc 3 833 3 discriminator 1 view .LVU131
 379              	.LBB108:
 380              	.LBB107:
 381              	.LBB106:
 382              	.LBB104:
 383              	.LBI104:
 384              		.loc 4 491 27 discriminator 1 view .LVU132
 385              	.LBB105:
 386              		.loc 4 493 3 discriminator 1 view .LVU133
 387 005a 0023     		movs	r3, #0
 388              		.syntax unified
 389              	@ 493 "../ChibiOS/os/common/ext/ARM/CMSIS/Core/Include/cmsis_gcc.h" 1
 390 005c 83F31188 		MSR basepri, r3
 391              	@ 0 "" 2
 392              	.LVL21:
 393              		.loc 4 493 3 is_stmt 0 discriminator 1 view .LVU134
 394              		.thumb
 395              		.syntax unified
 396              	.LBE105:
 397              	.LBE104:
 398              	.LBE106:
 399              	.LBE107:
ARM GAS  /tmp/ccPjWNNF.s 			page 8


 400              	.LBE108:
 401              		.loc 1 359 3 is_stmt 1 discriminator 1 view .LVU135
 402              		.loc 1 360 1 is_stmt 0 discriminator 1 view .LVU136
 403 0060 0846     		mov	r0, r1
 404 0062 02B0     		add	sp, sp, #8
 405              		.cfi_remember_state
 406              		.cfi_def_cfa_offset 32
 407              		@ sp needed
 408 0064 BDE8F087 		pop	{r4, r5, r6, r7, r8, r9, r10, pc}
 409              	.LVL22:
 410              	.L13:
 411              		.cfi_restore_state
 412              	.LBB109:
 413              	.LBB110:
 414              		.loc 1 170 12 view .LVU137
 415 0068 05F13008 		add	r8, r5, #48
 416              	.LBB111:
 417              	.LBB112:
 418              	.LBB113:
 419              	.LBB114:
 420              	.LBB115:
 421              		.loc 4 493 3 view .LVU138
 422 006c 4FF0000A 		mov	r10, #0
 423              	.LBE115:
 424              	.LBE114:
 425              	.LBE113:
 426              	.LBE112:
 427              	.LBE111:
 428              		.loc 1 210 21 view .LVU139
 429 0070 4FF02209 		mov	r9, #34
 430 0074 0AE0     		b	.L10
 431              	.LVL23:
 432              	.L15:
 433              	.LBB126:
 434              	.LBB123:
 435              	.LBB120:
 436              	.LBB118:
 437              	.LBB116:
 438              		.loc 4 493 3 view .LVU140
 439              		.syntax unified
 440              	@ 493 "../ChibiOS/os/common/ext/ARM/CMSIS/Core/Include/cmsis_gcc.h" 1
 441 0076 8AF31188 		MSR basepri, r10
 442              	@ 0 "" 2
 443              	.LVL24:
 444              		.loc 4 493 3 view .LVU141
 445              		.thumb
 446              		.syntax unified
 447              	.LBE116:
 448              	.LBE118:
 449              	.LBE120:
 450              	.LBE123:
 451              	.LBE126:
 452              		.loc 1 210 5 is_stmt 1 view .LVU142
 453              		.loc 1 211 12 is_stmt 0 view .LVU143
 454 007a 0122     		movs	r2, #1
 455 007c 2B6C     		ldr	r3, [r5, #64]
 456              		.loc 1 210 21 view .LVU144
ARM GAS  /tmp/ccPjWNNF.s 			page 9


 457 007e C1F82490 		str	r9, [r1, #36]
 458              		.loc 1 211 5 is_stmt 1 view .LVU145
 459              		.loc 1 211 12 is_stmt 0 view .LVU146
 460 0082 2846     		mov	r0, r5
 461 0084 9847     		blx	r3
 462              	.LVL25:
 463              		.loc 1 214 5 is_stmt 1 view .LVU147
 464              	.LBB127:
 465              	.LBI127:
 466              		.loc 2 407 20 view .LVU148
 467              	.LBB128:
 468              		.loc 2 409 3 view .LVU149
 469              	.LBB129:
 470              	.LBI129:
 471              		.loc 3 806 27 view .LVU150
 472              	.LBE129:
 473              	.LBE128:
 474              	.LBE127:
 475              	.LBE110:
 476              	.LBE109:
 477              		.loc 3 814 3 view .LVU151
 478              	.LBB145:
 479              	.LBB143:
 480              	.LBB134:
 481              	.LBB133:
 482              	.LBB132:
 483              	.LBB130:
 484              	.LBI130:
 485              		.loc 4 491 27 view .LVU152
 486              	.LBB131:
 487              		.loc 4 493 3 view .LVU153
 488 0086 3023     		movs	r3, #48
 489              		.syntax unified
 490              	@ 493 "../ChibiOS/os/common/ext/ARM/CMSIS/Core/Include/cmsis_gcc.h" 1
 491 0088 83F31188 		MSR basepri, r3
 492              	@ 0 "" 2
 493              	.LVL26:
 494              		.loc 4 493 3 is_stmt 0 view .LVU154
 495              		.thumb
 496              		.syntax unified
 497              	.LBE131:
 498              	.LBE130:
 499              	.LBE132:
 500              		.loc 2 410 35 is_stmt 1 view .LVU155
 501              		.loc 2 411 21 view .LVU156
 502              	.L10:
 503              		.loc 2 411 21 is_stmt 0 view .LVU157
 504              	.LBE133:
 505              	.LBE134:
 506              		.loc 1 166 3 is_stmt 1 view .LVU158
 507              		.loc 1 168 3 view .LVU159
 508              		.loc 1 170 5 view .LVU160
 509              		.loc 1 170 12 is_stmt 0 view .LVU161
 510 008c 4046     		mov	r0, r8
 511 008e FFF7FEFF 		bl	chSemWaitS
 512              	.LVL27:
 513              		.loc 1 174 5 is_stmt 1 view .LVU162
ARM GAS  /tmp/ccPjWNNF.s 			page 10


 514              		.loc 1 205 5 view .LVU163
 515              	.LBB135:
 516              	.LBI111:
 517              		.loc 2 421 20 view .LVU164
 518              	.LBB124:
 519              		.loc 2 423 23 view .LVU165
 520              		.loc 2 424 34 view .LVU166
 521              		.loc 2 430 3 view .LVU167
 522              		.loc 2 430 3 view .LVU168
 523              		.loc 2 430 3 view .LVU169
 524              		.loc 2 434 3 view .LVU170
 525              	.LBB121:
 526              	.LBI113:
 527              		.loc 3 830 27 view .LVU171
 528              	.LBE121:
 529              	.LBE124:
 530              	.LBE135:
 531              	.LBE143:
 532              	.LBE145:
 533              		.loc 3 833 3 view .LVU172
 534              	.LBB146:
 535              	.LBB144:
 536              	.LBB136:
 537              	.LBB125:
 538              	.LBB122:
 539              	.LBB119:
 540              	.LBI114:
 541              		.loc 4 491 27 view .LVU173
 542              	.LBB117:
 543              		.loc 4 493 3 view .LVU174
 544              	.LBE117:
 545              	.LBE119:
 546              	.LBE122:
 547              	.LBE125:
 548              	.LBE136:
 549              		.loc 1 174 10 is_stmt 0 view .LVU175
 550 0092 296A     		ldr	r1, [r5, #32]
 551              	.LVL28:
 552              		.loc 1 176 5 is_stmt 1 view .LVU176
 553              		.loc 1 176 5 view .LVU177
 554              		.loc 1 176 5 view .LVU178
 555              		.loc 1 178 5 view .LVU179
 556              		.loc 1 178 5 view .LVU180
 557              		.loc 1 178 5 view .LVU181
 558              		.loc 1 181 5 view .LVU182
 559              	.LBB137:
 560              	.LBB138:
 561              		.loc 5 162 10 is_stmt 0 view .LVU183
 562 0094 D1E90832 		ldrd	r3, r2, [r1, #32]
 563              	.LBE138:
 564              	.LBE137:
 565              		.loc 1 181 5 view .LVU184
 566 0098 D1E9020C 		ldrd	r0, ip, [r1, #8]
 567              	.LBB141:
 568              	.LBB139:
 569              		.loc 5 162 10 view .LVU185
 570 009c 013B     		subs	r3, r3, #1
ARM GAS  /tmp/ccPjWNNF.s 			page 11


 571              	.LBE139:
 572              	.LBE141:
 573              		.loc 1 181 5 view .LVU186
 574 009e CCF80800 		str	r0, [ip, #8]
 575              		.loc 1 181 5 is_stmt 1 view .LVU187
 576 00a2 C0F80CC0 		str	ip, [r0, #12]
 577              		.loc 1 181 21 view .LVU188
 578              		.loc 1 182 5 view .LVU189
 579              		.loc 1 182 21 is_stmt 0 view .LVU190
 580 00a6 22F00100 		bic	r0, r2, #1
 581              	.LBB142:
 582              	.LBB140:
 583              		.loc 5 162 10 view .LVU191
 584 00aa C1E90830 		strd	r3, r0, [r1, #32]
 585              	.LBE140:
 586              	.LBE142:
 587              		.loc 1 190 5 is_stmt 1 view .LVU192
 588              		.loc 1 190 8 is_stmt 0 view .LVU193
 589 00ae D006     		lsls	r0, r2, #27
 590 00b0 E1D4     		bmi	.L15
 591              		.loc 1 193 7 is_stmt 1 view .LVU194
 592              		.loc 1 193 10 is_stmt 0 view .LVU195
 593 00b2 9307     		lsls	r3, r2, #30
 594 00b4 04D5     		bpl	.L16
 595              		.loc 1 194 9 is_stmt 1 view .LVU196
 596 00b6 D1E90023 		ldrd	r2, r3, [r1]
 597 00ba 1A60     		str	r2, [r3]
 598              		.loc 1 194 9 view .LVU197
 599 00bc 0A68     		ldr	r2, [r1]
 600 00be 5360     		str	r3, [r2, #4]
 601              	.L16:
 602              		.loc 1 194 26 view .LVU198
 603              		.loc 1 198 7 view .LVU199
 604              		.loc 1 200 7 view .LVU200
 605              	.LVL29:
 606              		.loc 1 200 7 is_stmt 0 view .LVU201
 607              	.LBE144:
 608              	.LBE146:
 609              		.loc 1 350 5 is_stmt 1 view .LVU202
 610              	.LBB147:
 611              		.loc 1 353 5 is_stmt 0 view .LVU203
 612 00c0 D5E90032 		ldrd	r3, r2, [r5]
 613 00c4 013B     		subs	r3, r3, #1
 614 00c6 1E40     		ands	r6, r6, r3
 615              	.LBE147:
 616              		.loc 1 352 21 view .LVU204
 617 00c8 0A23     		movs	r3, #10
 618 00ca 4B62     		str	r3, [r1, #36]
 619              	.LBB148:
 620              		.loc 1 353 5 view .LVU205
 621 00cc 52F83630 		ldr	r3, [r2, r6, lsl #3]
 622              	.LBE148:
 623              		.loc 1 350 21 view .LVU206
 624 00d0 0F61     		str	r7, [r1, #16]
 625              		.loc 1 351 5 is_stmt 1 view .LVU207
 626              	.LBB149:
 627              		.loc 1 353 5 is_stmt 0 view .LVU208
ARM GAS  /tmp/ccPjWNNF.s 			page 12


 628 00d2 02EBC600 		add	r0, r2, r6, lsl #3
 629 00d6 C1E90030 		strd	r3, r0, [r1]
 630              	.LBE149:
 631              		.loc 1 351 21 view .LVU209
 632 00da 4C61     		str	r4, [r1, #20]
 633              		.loc 1 352 5 is_stmt 1 view .LVU210
 634              	.LBB150:
 635              		.loc 1 353 5 view .LVU211
 636              		.loc 1 353 5 view .LVU212
 637              	.LVL30:
 638              		.loc 1 353 5 view .LVU213
 639              		.loc 1 353 5 view .LVU214
 640 00dc 5960     		str	r1, [r3, #4]
 641              		.loc 1 353 5 view .LVU215
 642 00de 42F83610 		str	r1, [r2, r6, lsl #3]
 643 00e2 BAE7     		b	.L14
 644              	.LVL31:
 645              	.L27:
 646              		.loc 1 353 5 is_stmt 0 view .LVU216
 647              	.LBE150:
 648              		.loc 1 339 7 is_stmt 1 discriminator 5 view .LVU217
 649              		.loc 1 339 7 discriminator 5 view .LVU218
 650              		.loc 1 339 7 discriminator 5 view .LVU219
 651              		.loc 1 342 7 discriminator 5 view .LVU220
 652              		.loc 1 342 14 is_stmt 0 discriminator 5 view .LVU221
 653 00e4 01F11800 		add	r0, r1, #24
 654              	.LVL32:
 655              		.loc 1 342 14 discriminator 5 view .LVU222
 656 00e8 0191     		str	r1, [sp, #4]
 657 00ea FFF7FEFF 		bl	chSemWaitS
 658              	.LVL33:
 659              		.loc 1 342 14 discriminator 5 view .LVU223
 660 00ee 0199     		ldr	r1, [sp, #4]
 661 00f0 B3E7     		b	.L14
 662              		.cfi_endproc
 663              	.LFE338:
 664              		.size	chCacheGetObject, .-chCacheGetObject
 665 00f2 00BF     		.section	.text.chCacheReleaseObjectI,"ax",%progbits
 666              		.align	1
 667              		.p2align 4,,15
 668              		.global	chCacheReleaseObjectI
 669              		.syntax unified
 670              		.thumb
 671              		.thumb_func
 672              		.fpu softvfp
 673              		.type	chCacheReleaseObjectI, %function
 674              	chCacheReleaseObjectI:
 675              	.LVL34:
 676              	.LFB339:
 677              		.loc 1 380 47 is_stmt 1 view -0
 678              		.cfi_startproc
 679              		@ args = 0, pretend = 0, frame = 0
 680              		@ frame_needed = 0, uses_anonymous_args = 0
 681              		.loc 1 383 3 view .LVU225
 682              		.loc 1 383 3 view .LVU226
 683              		.loc 1 383 3 view .LVU227
 684              		.loc 1 387 3 view .LVU228
ARM GAS  /tmp/ccPjWNNF.s 			page 13


 685              		.loc 1 387 3 view .LVU229
 686              		.loc 1 387 3 view .LVU230
 687              		.loc 1 392 3 view .LVU231
 688              		.loc 1 392 6 is_stmt 0 view .LVU232
 689 0000 0B6A     		ldr	r3, [r1, #32]
 690 0002 002B     		cmp	r3, #0
 691              		.loc 1 380 47 view .LVU233
 692 0004 10B5     		push	{r4, lr}
 693              		.cfi_def_cfa_offset 8
 694              		.cfi_offset 4, -8
 695              		.cfi_offset 14, -4
 696              		.loc 1 396 21 view .LVU234
 697 0006 4B6A     		ldr	r3, [r1, #36]
 698              		.loc 1 380 47 view .LVU235
 699 0008 0C46     		mov	r4, r1
 700              	.LVL35:
 701              	.LBB151:
 702              	.LBI151:
 703              		.loc 5 189 21 is_stmt 1 view .LVU236
 704              	.LBB152:
 705              		.loc 5 191 21 view .LVU237
 706              		.loc 5 193 3 view .LVU238
 707              		.loc 5 193 3 is_stmt 0 view .LVU239
 708              	.LBE152:
 709              	.LBE151:
 710              		.loc 1 392 6 view .LVU240
 711 000a 2FDB     		blt	.L35
 712              		.loc 1 403 3 is_stmt 1 view .LVU241
 713              		.loc 1 403 6 is_stmt 0 view .LVU242
 714 000c 1907     		lsls	r1, r3, #28
 715              	.LVL36:
 716              		.loc 1 403 6 view .LVU243
 717 000e 14D4     		bmi	.L36
 718              		.loc 1 412 5 is_stmt 1 view .LVU244
 719              		.loc 1 412 8 is_stmt 0 view .LVU245
 720 0010 9A06     		lsls	r2, r3, #26
 721 0012 23D4     		bmi	.L32
 722              		.loc 1 414 7 is_stmt 1 view .LVU246
 723 0014 C269     		ldr	r2, [r0, #28]
 724 0016 00F11401 		add	r1, r0, #20
 725 001a C4E90221 		strd	r2, r1, [r4, #8]
 726              		.loc 1 414 7 view .LVU247
 727 001e D460     		str	r4, [r2, #12]
 728              		.loc 1 414 7 view .LVU248
 729 0020 C461     		str	r4, [r0, #28]
 730              		.loc 1 414 33 view .LVU249
 731              	.L33:
 732              		.loc 1 418 33 discriminator 1 view .LVU250
 733              		.loc 1 420 5 discriminator 1 view .LVU251
 734              		.loc 1 421 5 discriminator 1 view .LVU252
 735              		.loc 1 420 21 is_stmt 0 discriminator 1 view .LVU253
 736 0022 03F01203 		and	r3, r3, #18
 737              		.loc 1 421 21 discriminator 1 view .LVU254
 738 0026 43F00103 		orr	r3, r3, #1
 739 002a 6362     		str	r3, [r4, #36]
 740              	.L31:
 741              		.loc 1 425 3 is_stmt 1 view .LVU255
ARM GAS  /tmp/ccPjWNNF.s 			page 14


 742 002c 3030     		adds	r0, r0, #48
 743              	.LVL37:
 744              		.loc 1 425 3 is_stmt 0 view .LVU256
 745 002e FFF7FEFF 		bl	chSemSignalI
 746              	.LVL38:
 747              		.loc 1 429 3 is_stmt 1 view .LVU257
 748              	.LBB153:
 749              	.LBI153:
 750              		.loc 5 174 20 view .LVU258
 751              	.LBB154:
 752              		.loc 5 176 21 view .LVU259
 753              		.loc 5 178 3 view .LVU260
 754              		.loc 5 178 10 is_stmt 0 view .LVU261
 755 0032 236A     		ldr	r3, [r4, #32]
 756 0034 0133     		adds	r3, r3, #1
 757 0036 2362     		str	r3, [r4, #32]
 758              	.LVL39:
 759              		.loc 5 178 10 view .LVU262
 760              	.LBE154:
 761              	.LBE153:
 762              		.loc 1 430 1 view .LVU263
 763 0038 10BD     		pop	{r4, pc}
 764              	.LVL40:
 765              	.L36:
 766              		.loc 1 404 5 is_stmt 1 view .LVU264
 767 003a D4E90031 		ldrd	r3, r1, [r4]
 768              		.loc 1 405 5 is_stmt 0 view .LVU265
 769 003e 026A     		ldr	r2, [r0, #32]
 770              		.loc 1 404 5 view .LVU266
 771 0040 0B60     		str	r3, [r1]
 772              		.loc 1 404 5 is_stmt 1 view .LVU267
 773 0042 5960     		str	r1, [r3, #4]
 774              		.loc 1 404 22 view .LVU268
 775              		.loc 1 405 5 view .LVU269
 776 0044 00F11401 		add	r1, r0, #20
 777 0048 C4E90212 		strd	r1, r2, [r4, #8]
 778              		.loc 1 405 5 view .LVU270
 779              		.loc 1 406 21 is_stmt 0 view .LVU271
 780 004c 0023     		movs	r3, #0
 781              		.loc 1 408 21 view .LVU272
 782 004e 0121     		movs	r1, #1
 783              		.loc 1 405 5 view .LVU273
 784 0050 9460     		str	r4, [r2, #8]
 785              		.loc 1 405 5 is_stmt 1 view .LVU274
 786 0052 0462     		str	r4, [r0, #32]
 787              		.loc 1 405 31 view .LVU275
 788              		.loc 1 406 5 view .LVU276
 789              		.loc 1 407 21 is_stmt 0 view .LVU277
 790 0054 C4E90433 		strd	r3, r3, [r4, #16]
 791              		.loc 1 408 5 is_stmt 1 view .LVU278
 792              		.loc 1 408 21 is_stmt 0 view .LVU279
 793 0058 6162     		str	r1, [r4, #36]
 794 005a E7E7     		b	.L31
 795              	.L32:
 796              		.loc 1 418 7 is_stmt 1 view .LVU280
 797 005c 026A     		ldr	r2, [r0, #32]
 798 005e 00F11401 		add	r1, r0, #20
ARM GAS  /tmp/ccPjWNNF.s 			page 15


 799 0062 C4E90212 		strd	r1, r2, [r4, #8]
 800              		.loc 1 418 7 view .LVU281
 801 0066 9460     		str	r4, [r2, #8]
 802              		.loc 1 418 7 view .LVU282
 803 0068 0462     		str	r4, [r0, #32]
 804 006a DAE7     		b	.L33
 805              	.LVL41:
 806              	.L35:
 807              		.loc 1 396 5 view .LVU283
 808              		.loc 1 396 21 is_stmt 0 view .LVU284
 809 006c 03F01A03 		and	r3, r3, #26
 810              		.loc 1 430 1 view .LVU285
 811 0070 BDE81040 		pop	{r4, lr}
 812              		.cfi_restore 14
 813              		.cfi_restore 4
 814              		.cfi_def_cfa_offset 0
 815              		.loc 1 397 5 view .LVU286
 816 0074 01F11800 		add	r0, r1, #24
 817              	.LVL42:
 818              		.loc 1 396 21 view .LVU287
 819 0078 4B62     		str	r3, [r1, #36]
 820              		.loc 1 397 5 is_stmt 1 view .LVU288
 821 007a FFF7FEBF 		b	chSemSignalI
 822              	.LVL43:
 823              		.loc 1 397 5 is_stmt 0 view .LVU289
 824              		.cfi_endproc
 825              	.LFE339:
 826              		.size	chCacheReleaseObjectI, .-chCacheReleaseObjectI
 827 007e 00BF     		.section	.text.chCacheReadObject,"ax",%progbits
 828              		.align	1
 829              		.p2align 4,,15
 830              		.global	chCacheReadObject
 831              		.syntax unified
 832              		.thumb
 833              		.thumb_func
 834              		.fpu softvfp
 835              		.type	chCacheReadObject, %function
 836              	chCacheReadObject:
 837              	.LVL44:
 838              	.LFB340:
 839              		.loc 1 451 36 is_stmt 1 view -0
 840              		.cfi_startproc
 841              		@ args = 0, pretend = 0, frame = 0
 842              		@ frame_needed = 0, uses_anonymous_args = 0
 843              		@ link register save eliminated.
 844              		.loc 1 456 3 view .LVU291
 845              		.loc 1 451 36 is_stmt 0 view .LVU292
 846 0000 30B4     		push	{r4, r5}
 847              		.cfi_def_cfa_offset 8
 848              		.cfi_offset 4, -8
 849              		.cfi_offset 5, -4
 850              		.loc 1 456 19 view .LVU293
 851 0002 4C6A     		ldr	r4, [r1, #36]
 852              		.loc 1 458 10 view .LVU294
 853 0004 C56B     		ldr	r5, [r0, #60]
 854              		.loc 1 456 19 view .LVU295
 855 0006 44F00804 		orr	r4, r4, #8
ARM GAS  /tmp/ccPjWNNF.s 			page 16


 856 000a 4C62     		str	r4, [r1, #36]
 857              		.loc 1 458 3 is_stmt 1 view .LVU296
 858              		.loc 1 458 10 is_stmt 0 view .LVU297
 859 000c 2B46     		mov	r3, r5
 860              		.loc 1 459 1 view .LVU298
 861 000e 30BC     		pop	{r4, r5}
 862              		.cfi_restore 5
 863              		.cfi_restore 4
 864              		.cfi_def_cfa_offset 0
 865              		.loc 1 458 10 view .LVU299
 866 0010 1847     		bx	r3
 867              	.LVL45:
 868              		.loc 1 458 10 view .LVU300
 869              		.cfi_endproc
 870              	.LFE340:
 871              		.size	chCacheReadObject, .-chCacheReadObject
 872 0012 00BF     		.section	.text.chCacheWriteObject,"ax",%progbits
 873              		.align	1
 874              		.p2align 4,,15
 875              		.global	chCacheWriteObject
 876              		.syntax unified
 877              		.thumb
 878              		.thumb_func
 879              		.fpu softvfp
 880              		.type	chCacheWriteObject, %function
 881              	chCacheWriteObject:
 882              	.LVL46:
 883              	.LFB341:
 884              		.loc 1 480 37 is_stmt 1 view -0
 885              		.cfi_startproc
 886              		@ args = 0, pretend = 0, frame = 0
 887              		@ frame_needed = 0, uses_anonymous_args = 0
 888              		@ link register save eliminated.
 889              		.loc 1 484 3 view .LVU302
 890              		.loc 1 480 37 is_stmt 0 view .LVU303
 891 0000 30B4     		push	{r4, r5}
 892              		.cfi_def_cfa_offset 8
 893              		.cfi_offset 4, -8
 894              		.cfi_offset 5, -4
 895              		.loc 1 484 19 view .LVU304
 896 0002 4C6A     		ldr	r4, [r1, #36]
 897              		.loc 1 486 10 view .LVU305
 898 0004 056C     		ldr	r5, [r0, #64]
 899              		.loc 1 484 19 view .LVU306
 900 0006 24F01004 		bic	r4, r4, #16
 901 000a 4C62     		str	r4, [r1, #36]
 902              		.loc 1 486 3 is_stmt 1 view .LVU307
 903              		.loc 1 486 10 is_stmt 0 view .LVU308
 904 000c 2B46     		mov	r3, r5
 905              		.loc 1 487 1 view .LVU309
 906 000e 30BC     		pop	{r4, r5}
 907              		.cfi_restore 5
 908              		.cfi_restore 4
 909              		.cfi_def_cfa_offset 0
 910              		.loc 1 486 10 view .LVU310
 911 0010 1847     		bx	r3
 912              	.LVL47:
ARM GAS  /tmp/ccPjWNNF.s 			page 17


 913              		.loc 1 486 10 view .LVU311
 914              		.cfi_endproc
 915              	.LFE341:
 916              		.size	chCacheWriteObject, .-chCacheWriteObject
 917 0012 00BF     		.text
 918              	.Letext0:
 919              		.file 6 "/opt/gcc-arm-none-eabi/gcc-arm-none-eabi-10.3-2021.07/lib/gcc/arm-none-eabi/10.3.1/includ
 920              		.file 7 "/opt/gcc-arm-none-eabi/gcc-arm-none-eabi-10.3-2021.07/arm-none-eabi/include/machine/_defa
 921              		.file 8 "/opt/gcc-arm-none-eabi/gcc-arm-none-eabi-10.3-2021.07/arm-none-eabi/include/sys/_stdint.h
 922              		.file 9 "../ChibiOS/os/rt/include/chearly.h"
 923              		.file 10 "../ChibiOS/os/rt/include/chlists.h"
 924              		.file 11 "../ChibiOS/os/oslib/include/chobjcaches.h"
 925              		.section	.debug_info,"",%progbits
 926              	.Ldebug_info0:
 927 0000 C20A0000 		.4byte	0xac2
 928 0004 0400     		.2byte	0x4
 929 0006 00000000 		.4byte	.Ldebug_abbrev0
 930 000a 04       		.byte	0x4
 931 000b 01       		.uleb128 0x1
 932 000c CD010000 		.4byte	.LASF80
 933 0010 0C       		.byte	0xc
 934 0011 99010000 		.4byte	.LASF81
 935 0015 FC020000 		.4byte	.LASF82
 936 0019 60010000 		.4byte	.Ldebug_ranges0+0x160
 937 001d 00000000 		.4byte	0
 938 0021 00000000 		.4byte	.Ldebug_line0
 939 0025 02       		.uleb128 0x2
 940 0026 04       		.byte	0x4
 941 0027 05       		.byte	0x5
 942 0028 696E7400 		.ascii	"int\000"
 943 002c 03       		.uleb128 0x3
 944 002d 28000000 		.4byte	.LASF4
 945 0031 06       		.byte	0x6
 946 0032 D1       		.byte	0xd1
 947 0033 17       		.byte	0x17
 948 0034 38000000 		.4byte	0x38
 949 0038 04       		.uleb128 0x4
 950 0039 04       		.byte	0x4
 951 003a 07       		.byte	0x7
 952 003b E3020000 		.4byte	.LASF0
 953 003f 04       		.uleb128 0x4
 954 0040 08       		.byte	0x8
 955 0041 05       		.byte	0x5
 956 0042 4E010000 		.4byte	.LASF1
 957 0046 04       		.uleb128 0x4
 958 0047 08       		.byte	0x8
 959 0048 04       		.byte	0x4
 960 0049 37010000 		.4byte	.LASF2
 961 004d 04       		.uleb128 0x4
 962 004e 01       		.byte	0x1
 963 004f 06       		.byte	0x6
 964 0050 CB020000 		.4byte	.LASF3
 965 0054 03       		.uleb128 0x3
 966 0055 87010000 		.4byte	.LASF5
 967 0059 07       		.byte	0x7
 968 005a 2B       		.byte	0x2b
 969 005b 18       		.byte	0x18
ARM GAS  /tmp/ccPjWNNF.s 			page 18


 970 005c 60000000 		.4byte	0x60
 971 0060 04       		.uleb128 0x4
 972 0061 01       		.byte	0x1
 973 0062 08       		.byte	0x8
 974 0063 8C020000 		.4byte	.LASF6
 975 0067 04       		.uleb128 0x4
 976 0068 02       		.byte	0x2
 977 0069 05       		.byte	0x5
 978 006a 1E000000 		.4byte	.LASF7
 979 006e 04       		.uleb128 0x4
 980 006f 02       		.byte	0x2
 981 0070 07       		.byte	0x7
 982 0071 2B030000 		.4byte	.LASF8
 983 0075 03       		.uleb128 0x3
 984 0076 C1020000 		.4byte	.LASF9
 985 007a 07       		.byte	0x7
 986 007b 4D       		.byte	0x4d
 987 007c 18       		.byte	0x18
 988 007d 81000000 		.4byte	0x81
 989 0081 04       		.uleb128 0x4
 990 0082 04       		.byte	0x4
 991 0083 05       		.byte	0x5
 992 0084 7E010000 		.4byte	.LASF10
 993 0088 03       		.uleb128 0x3
 994 0089 D7030000 		.4byte	.LASF11
 995 008d 07       		.byte	0x7
 996 008e 4F       		.byte	0x4f
 997 008f 19       		.byte	0x19
 998 0090 94000000 		.4byte	0x94
 999 0094 04       		.uleb128 0x4
 1000 0095 04       		.byte	0x4
 1001 0096 07       		.byte	0x7
 1002 0097 A9030000 		.4byte	.LASF12
 1003 009b 04       		.uleb128 0x4
 1004 009c 08       		.byte	0x8
 1005 009d 07       		.byte	0x7
 1006 009e 5C010000 		.4byte	.LASF13
 1007 00a2 03       		.uleb128 0x3
 1008 00a3 E6000000 		.4byte	.LASF14
 1009 00a7 08       		.byte	0x8
 1010 00a8 18       		.byte	0x18
 1011 00a9 13       		.byte	0x13
 1012 00aa 54000000 		.4byte	0x54
 1013 00ae 03       		.uleb128 0x3
 1014 00af 77030000 		.4byte	.LASF15
 1015 00b3 08       		.byte	0x8
 1016 00b4 2C       		.byte	0x2c
 1017 00b5 13       		.byte	0x13
 1018 00b6 75000000 		.4byte	0x75
 1019 00ba 03       		.uleb128 0x3
 1020 00bb 1C010000 		.4byte	.LASF16
 1021 00bf 08       		.byte	0x8
 1022 00c0 30       		.byte	0x30
 1023 00c1 14       		.byte	0x14
 1024 00c2 88000000 		.4byte	0x88
 1025 00c6 03       		.uleb128 0x3
 1026 00c7 7F030000 		.4byte	.LASF17
ARM GAS  /tmp/ccPjWNNF.s 			page 19


 1027 00cb 09       		.byte	0x9
 1028 00cc 5C       		.byte	0x5c
 1029 00cd 19       		.byte	0x19
 1030 00ce AE000000 		.4byte	0xae
 1031 00d2 03       		.uleb128 0x3
 1032 00d3 70030000 		.4byte	.LASF18
 1033 00d7 09       		.byte	0x9
 1034 00d8 5D       		.byte	0x5d
 1035 00d9 19       		.byte	0x19
 1036 00da BA000000 		.4byte	0xba
 1037 00de 04       		.uleb128 0x4
 1038 00df 01       		.byte	0x1
 1039 00e0 08       		.byte	0x8
 1040 00e1 61030000 		.4byte	.LASF19
 1041 00e5 05       		.uleb128 0x5
 1042 00e6 DE000000 		.4byte	0xde
 1043 00ea 03       		.uleb128 0x3
 1044 00eb 11010000 		.4byte	.LASF20
 1045 00ef 0A       		.byte	0xa
 1046 00f0 3F       		.byte	0x3f
 1047 00f1 19       		.byte	0x19
 1048 00f2 F6000000 		.4byte	0xf6
 1049 00f6 06       		.uleb128 0x6
 1050 00f7 15040000 		.4byte	.LASF23
 1051 00fb 08       		.byte	0x8
 1052 00fc 0A       		.byte	0xa
 1053 00fd 45       		.byte	0x45
 1054 00fe 08       		.byte	0x8
 1055 00ff 1E010000 		.4byte	0x11e
 1056 0103 07       		.uleb128 0x7
 1057 0104 19000000 		.4byte	.LASF21
 1058 0108 0A       		.byte	0xa
 1059 0109 46       		.byte	0x46
 1060 010a 1A       		.byte	0x1a
 1061 010b 1E010000 		.4byte	0x11e
 1062 010f 00       		.byte	0
 1063 0110 07       		.uleb128 0x7
 1064 0111 77040000 		.4byte	.LASF22
 1065 0115 0A       		.byte	0xa
 1066 0116 47       		.byte	0x47
 1067 0117 1A       		.byte	0x1a
 1068 0118 1E010000 		.4byte	0x11e
 1069 011c 04       		.byte	0x4
 1070 011d 00       		.byte	0
 1071 011e 08       		.uleb128 0x8
 1072 011f 04       		.byte	0x4
 1073 0120 EA000000 		.4byte	0xea
 1074 0124 09       		.uleb128 0x9
 1075 0125 04       		.byte	0x4
 1076 0126 06       		.uleb128 0x6
 1077 0127 EE030000 		.4byte	.LASF24
 1078 012b 0C       		.byte	0xc
 1079 012c 05       		.byte	0x5
 1080 012d 34       		.byte	0x34
 1081 012e 10       		.byte	0x10
 1082 012f 4E010000 		.4byte	0x14e
 1083 0133 07       		.uleb128 0x7
ARM GAS  /tmp/ccPjWNNF.s 			page 20


 1084 0134 BF010000 		.4byte	.LASF25
 1085 0138 05       		.byte	0x5
 1086 0139 35       		.byte	0x35
 1087 013a 19       		.byte	0x19
 1088 013b EA000000 		.4byte	0xea
 1089 013f 00       		.byte	0
 1090 0140 0A       		.uleb128 0xa
 1091 0141 636E7400 		.ascii	"cnt\000"
 1092 0145 05       		.byte	0x5
 1093 0146 37       		.byte	0x37
 1094 0147 19       		.byte	0x19
 1095 0148 C6000000 		.4byte	0xc6
 1096 014c 08       		.byte	0x8
 1097 014d 00       		.byte	0
 1098 014e 03       		.uleb128 0x3
 1099 014f 25010000 		.4byte	.LASF26
 1100 0153 05       		.byte	0x5
 1101 0154 38       		.byte	0x38
 1102 0155 03       		.byte	0x3
 1103 0156 26010000 		.4byte	0x126
 1104 015a 05       		.uleb128 0x5
 1105 015b 4E010000 		.4byte	0x14e
 1106 015f 04       		.uleb128 0x4
 1107 0160 01       		.byte	0x1
 1108 0161 02       		.byte	0x2
 1109 0162 97030000 		.4byte	.LASF27
 1110 0166 03       		.uleb128 0x3
 1111 0167 73010000 		.4byte	.LASF28
 1112 016b 0B       		.byte	0xb
 1113 016c 40       		.byte	0x40
 1114 016d 12       		.byte	0x12
 1115 016e BA000000 		.4byte	0xba
 1116 0172 03       		.uleb128 0x3
 1117 0173 3C040000 		.4byte	.LASF29
 1118 0177 0B       		.byte	0xb
 1119 0178 45       		.byte	0x45
 1120 0179 22       		.byte	0x22
 1121 017a 7E010000 		.4byte	0x17e
 1122 017e 06       		.uleb128 0x6
 1123 017f BB030000 		.4byte	.LASF30
 1124 0183 08       		.byte	0x8
 1125 0184 0B       		.byte	0xb
 1126 0185 71       		.byte	0x71
 1127 0186 08       		.byte	0x8
 1128 0187 A6010000 		.4byte	0x1a6
 1129 018b 07       		.uleb128 0x7
 1130 018c CD030000 		.4byte	.LASF31
 1131 0190 0B       		.byte	0xb
 1132 0191 75       		.byte	0x75
 1133 0192 1A       		.byte	0x1a
 1134 0193 50030000 		.4byte	0x350
 1135 0197 00       		.byte	0
 1136 0198 07       		.uleb128 0x7
 1137 0199 4C030000 		.4byte	.LASF32
 1138 019d 0B       		.byte	0xb
 1139 019e 79       		.byte	0x79
 1140 019f 1A       		.byte	0x1a
ARM GAS  /tmp/ccPjWNNF.s 			page 21


 1141 01a0 50030000 		.4byte	0x350
 1142 01a4 04       		.byte	0x4
 1143 01a5 00       		.byte	0
 1144 01a6 03       		.uleb128 0x3
 1145 01a7 05040000 		.4byte	.LASF33
 1146 01ab 0B       		.byte	0xb
 1147 01ac 4A       		.byte	0x4a
 1148 01ad 21       		.byte	0x21
 1149 01ae B2010000 		.4byte	0x1b2
 1150 01b2 06       		.uleb128 0x6
 1151 01b3 1E040000 		.4byte	.LASF34
 1152 01b7 10       		.byte	0x10
 1153 01b8 0B       		.byte	0xb
 1154 01b9 7F       		.byte	0x7f
 1155 01ba 08       		.byte	0x8
 1156 01bb F4010000 		.4byte	0x1f4
 1157 01bf 07       		.uleb128 0x7
 1158 01c0 CD030000 		.4byte	.LASF31
 1159 01c4 0B       		.byte	0xb
 1160 01c5 83       		.byte	0x83
 1161 01c6 1A       		.byte	0x1a
 1162 01c7 50030000 		.4byte	0x350
 1163 01cb 00       		.byte	0
 1164 01cc 07       		.uleb128 0x7
 1165 01cd 4C030000 		.4byte	.LASF32
 1166 01d1 0B       		.byte	0xb
 1167 01d2 87       		.byte	0x87
 1168 01d3 1A       		.byte	0x1a
 1169 01d4 50030000 		.4byte	0x350
 1170 01d8 04       		.byte	0x4
 1171 01d9 07       		.uleb128 0x7
 1172 01da 7C040000 		.4byte	.LASF35
 1173 01de 0B       		.byte	0xb
 1174 01df 8B       		.byte	0x8b
 1175 01e0 1A       		.byte	0x1a
 1176 01e1 50030000 		.4byte	0x350
 1177 01e5 08       		.byte	0x8
 1178 01e6 07       		.uleb128 0x7
 1179 01e7 5B040000 		.4byte	.LASF36
 1180 01eb 0B       		.byte	0xb
 1181 01ec 8F       		.byte	0x8f
 1182 01ed 1A       		.byte	0x1a
 1183 01ee 50030000 		.4byte	0x350
 1184 01f2 0C       		.byte	0xc
 1185 01f3 00       		.byte	0
 1186 01f4 03       		.uleb128 0x3
 1187 01f5 9D000000 		.4byte	.LASF37
 1188 01f9 0B       		.byte	0xb
 1189 01fa 4F       		.byte	0x4f
 1190 01fb 1D       		.byte	0x1d
 1191 01fc 00020000 		.4byte	0x200
 1192 0200 06       		.uleb128 0x6
 1193 0201 50000000 		.4byte	.LASF38
 1194 0205 2C       		.byte	0x2c
 1195 0206 0B       		.byte	0xb
 1196 0207 95       		.byte	0x95
 1197 0208 08       		.byte	0x8
ARM GAS  /tmp/ccPjWNNF.s 			page 22


 1198 0209 83020000 		.4byte	0x283
 1199 020d 07       		.uleb128 0x7
 1200 020e CD030000 		.4byte	.LASF31
 1201 0212 0B       		.byte	0xb
 1202 0213 99       		.byte	0x99
 1203 0214 1A       		.byte	0x1a
 1204 0215 50030000 		.4byte	0x350
 1205 0219 00       		.byte	0
 1206 021a 07       		.uleb128 0x7
 1207 021b 4C030000 		.4byte	.LASF32
 1208 021f 0B       		.byte	0xb
 1209 0220 9D       		.byte	0x9d
 1210 0221 1A       		.byte	0x1a
 1211 0222 50030000 		.4byte	0x350
 1212 0226 04       		.byte	0x4
 1213 0227 07       		.uleb128 0x7
 1214 0228 7C040000 		.4byte	.LASF35
 1215 022c 0B       		.byte	0xb
 1216 022d A1       		.byte	0xa1
 1217 022e 1A       		.byte	0x1a
 1218 022f 50030000 		.4byte	0x350
 1219 0233 08       		.byte	0x8
 1220 0234 07       		.uleb128 0x7
 1221 0235 5B040000 		.4byte	.LASF36
 1222 0239 0B       		.byte	0xb
 1223 023a A5       		.byte	0xa5
 1224 023b 1A       		.byte	0x1a
 1225 023c 50030000 		.4byte	0x350
 1226 0240 0C       		.byte	0xc
 1227 0241 07       		.uleb128 0x7
 1228 0242 6E000000 		.4byte	.LASF39
 1229 0246 0B       		.byte	0xb
 1230 0247 A9       		.byte	0xa9
 1231 0248 19       		.byte	0x19
 1232 0249 BA000000 		.4byte	0xba
 1233 024d 10       		.byte	0x10
 1234 024e 07       		.uleb128 0x7
 1235 024f 91010000 		.4byte	.LASF40
 1236 0253 0B       		.byte	0xb
 1237 0254 AD       		.byte	0xad
 1238 0255 19       		.byte	0x19
 1239 0256 BA000000 		.4byte	0xba
 1240 025a 14       		.byte	0x14
 1241 025b 07       		.uleb128 0x7
 1242 025c C5010000 		.4byte	.LASF41
 1243 0260 0B       		.byte	0xb
 1244 0261 B1       		.byte	0xb1
 1245 0262 19       		.byte	0x19
 1246 0263 4E010000 		.4byte	0x14e
 1247 0267 18       		.byte	0x18
 1248 0268 07       		.uleb128 0x7
 1249 0269 5D000000 		.4byte	.LASF42
 1250 026d 0B       		.byte	0xb
 1251 026e B5       		.byte	0xb5
 1252 026f 19       		.byte	0x19
 1253 0270 66010000 		.4byte	0x166
 1254 0274 24       		.byte	0x24
ARM GAS  /tmp/ccPjWNNF.s 			page 23


 1255 0275 07       		.uleb128 0x7
 1256 0276 0C000000 		.4byte	.LASF43
 1257 027a 0B       		.byte	0xb
 1258 027b BB       		.byte	0xbb
 1259 027c 1A       		.byte	0x1a
 1260 027d 24010000 		.4byte	0x124
 1261 0281 28       		.byte	0x28
 1262 0282 00       		.byte	0
 1263 0283 03       		.uleb128 0x3
 1264 0284 C5000000 		.4byte	.LASF44
 1265 0288 0B       		.byte	0xb
 1266 0289 54       		.byte	0x54
 1267 028a 21       		.byte	0x21
 1268 028b 8F020000 		.4byte	0x28f
 1269 028f 06       		.uleb128 0x6
 1270 0290 D5000000 		.4byte	.LASF45
 1271 0294 44       		.byte	0x44
 1272 0295 0B       		.byte	0xb
 1273 0296 C1       		.byte	0xc1
 1274 0297 08       		.byte	0x8
 1275 0298 1F030000 		.4byte	0x31f
 1276 029c 07       		.uleb128 0x7
 1277 029d DD020000 		.4byte	.LASF46
 1278 02a1 0B       		.byte	0xb
 1279 02a2 C5       		.byte	0xc5
 1280 02a3 19       		.byte	0x19
 1281 02a4 D2000000 		.4byte	0xd2
 1282 02a8 00       		.byte	0
 1283 02a9 07       		.uleb128 0x7
 1284 02aa F0020000 		.4byte	.LASF47
 1285 02ae 0B       		.byte	0xb
 1286 02af C9       		.byte	0xc9
 1287 02b0 1A       		.byte	0x1a
 1288 02b1 62030000 		.4byte	0x362
 1289 02b5 04       		.byte	0x4
 1290 02b6 07       		.uleb128 0x7
 1291 02b7 FB030000 		.4byte	.LASF48
 1292 02bb 0B       		.byte	0xb
 1293 02bc CD       		.byte	0xcd
 1294 02bd 19       		.byte	0x19
 1295 02be D2000000 		.4byte	0xd2
 1296 02c2 08       		.byte	0x8
 1297 02c3 07       		.uleb128 0x7
 1298 02c4 31010000 		.4byte	.LASF49
 1299 02c8 0B       		.byte	0xb
 1300 02c9 D1       		.byte	0xd1
 1301 02ca 19       		.byte	0x19
 1302 02cb 2C000000 		.4byte	0x2c
 1303 02cf 0C       		.byte	0xc
 1304 02d0 07       		.uleb128 0x7
 1305 02d1 BF000000 		.4byte	.LASF50
 1306 02d5 0B       		.byte	0xb
 1307 02d6 D5       		.byte	0xd5
 1308 02d7 1A       		.byte	0x1a
 1309 02d8 24010000 		.4byte	0x124
 1310 02dc 10       		.byte	0x10
 1311 02dd 0A       		.uleb128 0xa
ARM GAS  /tmp/ccPjWNNF.s 			page 24


 1312 02de 6C727500 		.ascii	"lru\000"
 1313 02e2 0B       		.byte	0xb
 1314 02e3 D9       		.byte	0xd9
 1315 02e4 19       		.byte	0x19
 1316 02e5 A6010000 		.4byte	0x1a6
 1317 02e9 14       		.byte	0x14
 1318 02ea 07       		.uleb128 0x7
 1319 02eb 66030000 		.4byte	.LASF51
 1320 02ef 0B       		.byte	0xb
 1321 02f0 DD       		.byte	0xdd
 1322 02f1 19       		.byte	0x19
 1323 02f2 4E010000 		.4byte	0x14e
 1324 02f6 24       		.byte	0x24
 1325 02f7 07       		.uleb128 0x7
 1326 02f8 11000000 		.4byte	.LASF52
 1327 02fc 0B       		.byte	0xb
 1328 02fd E1       		.byte	0xe1
 1329 02fe 19       		.byte	0x19
 1330 02ff 4E010000 		.4byte	0x14e
 1331 0303 30       		.byte	0x30
 1332 0304 07       		.uleb128 0x7
 1333 0305 F6020000 		.4byte	.LASF53
 1334 0309 0B       		.byte	0xb
 1335 030a E5       		.byte	0xe5
 1336 030b 19       		.byte	0x19
 1337 030c 1F030000 		.4byte	0x31f
 1338 0310 3C       		.byte	0x3c
 1339 0311 07       		.uleb128 0x7
 1340 0312 67000000 		.4byte	.LASF54
 1341 0316 0B       		.byte	0xb
 1342 0317 E9       		.byte	0xe9
 1343 0318 19       		.byte	0x19
 1344 0319 56030000 		.4byte	0x356
 1345 031d 40       		.byte	0x40
 1346 031e 00       		.byte	0
 1347 031f 03       		.uleb128 0x3
 1348 0320 56030000 		.4byte	.LASF55
 1349 0324 0B       		.byte	0xb
 1350 0325 5E       		.byte	0x5e
 1351 0326 10       		.byte	0x10
 1352 0327 2B030000 		.4byte	0x32b
 1353 032b 08       		.uleb128 0x8
 1354 032c 04       		.byte	0x4
 1355 032d 31030000 		.4byte	0x331
 1356 0331 0B       		.uleb128 0xb
 1357 0332 5F010000 		.4byte	0x15f
 1358 0336 4A030000 		.4byte	0x34a
 1359 033a 0C       		.uleb128 0xc
 1360 033b 4A030000 		.4byte	0x34a
 1361 033f 0C       		.uleb128 0xc
 1362 0340 50030000 		.4byte	0x350
 1363 0344 0C       		.uleb128 0xc
 1364 0345 5F010000 		.4byte	0x15f
 1365 0349 00       		.byte	0
 1366 034a 08       		.uleb128 0x8
 1367 034b 04       		.byte	0x4
 1368 034c 83020000 		.4byte	0x283
ARM GAS  /tmp/ccPjWNNF.s 			page 25


 1369 0350 08       		.uleb128 0x8
 1370 0351 04       		.byte	0x4
 1371 0352 F4010000 		.4byte	0x1f4
 1372 0356 03       		.uleb128 0x3
 1373 0357 00000000 		.4byte	.LASF56
 1374 035b 0B       		.byte	0xb
 1375 035c 6A       		.byte	0x6a
 1376 035d 10       		.byte	0x10
 1377 035e 2B030000 		.4byte	0x32b
 1378 0362 08       		.uleb128 0x8
 1379 0363 04       		.byte	0x4
 1380 0364 72010000 		.4byte	0x172
 1381 0368 0D       		.uleb128 0xd
 1382 0369 64040000 		.4byte	.LASF59
 1383 036d 01       		.byte	0x1
 1384 036e DE01     		.2byte	0x1de
 1385 0370 06       		.byte	0x6
 1386 0371 5F010000 		.4byte	0x15f
 1387 0375 00000000 		.4byte	.LFB341
 1388 0379 12000000 		.4byte	.LFE341-.LFB341
 1389 037d 01       		.uleb128 0x1
 1390 037e 9C       		.byte	0x9c
 1391 037f D7030000 		.4byte	0x3d7
 1392 0383 0E       		.uleb128 0xe
 1393 0384 6F637000 		.ascii	"ocp\000"
 1394 0388 01       		.byte	0x1
 1395 0389 DE01     		.2byte	0x1de
 1396 038b 2A       		.byte	0x2a
 1397 038c 4A030000 		.4byte	0x34a
 1398 0390 04000000 		.4byte	.LLST29
 1399 0394 00000000 		.4byte	.LVUS29
 1400 0398 0F       		.uleb128 0xf
 1401 0399 00040000 		.4byte	.LASF57
 1402 039d 01       		.byte	0x1
 1403 039e DF01     		.2byte	0x1df
 1404 03a0 26       		.byte	0x26
 1405 03a1 50030000 		.4byte	0x350
 1406 03a5 29000000 		.4byte	.LLST30
 1407 03a9 25000000 		.4byte	.LVUS30
 1408 03ad 0F       		.uleb128 0xf
 1409 03ae 46030000 		.4byte	.LASF58
 1410 03b2 01       		.byte	0x1
 1411 03b3 E001     		.2byte	0x1e0
 1412 03b5 1E       		.byte	0x1e
 1413 03b6 5F010000 		.4byte	0x15f
 1414 03ba 4E000000 		.4byte	.LLST31
 1415 03be 4A000000 		.4byte	.LVUS31
 1416 03c2 10       		.uleb128 0x10
 1417 03c3 12000000 		.4byte	.LVL47
 1418 03c7 11       		.uleb128 0x11
 1419 03c8 01       		.uleb128 0x1
 1420 03c9 50       		.byte	0x50
 1421 03ca 03       		.uleb128 0x3
 1422 03cb F3       		.byte	0xf3
 1423 03cc 01       		.uleb128 0x1
 1424 03cd 50       		.byte	0x50
 1425 03ce 11       		.uleb128 0x11
ARM GAS  /tmp/ccPjWNNF.s 			page 26


 1426 03cf 01       		.uleb128 0x1
 1427 03d0 51       		.byte	0x51
 1428 03d1 03       		.uleb128 0x3
 1429 03d2 F3       		.byte	0xf3
 1430 03d3 01       		.uleb128 0x1
 1431 03d4 51       		.byte	0x51
 1432 03d5 00       		.byte	0
 1433 03d6 00       		.byte	0
 1434 03d7 0D       		.uleb128 0xd
 1435 03d8 85030000 		.4byte	.LASF60
 1436 03dc 01       		.byte	0x1
 1437 03dd C101     		.2byte	0x1c1
 1438 03df 06       		.byte	0x6
 1439 03e0 5F010000 		.4byte	0x15f
 1440 03e4 00000000 		.4byte	.LFB340
 1441 03e8 12000000 		.4byte	.LFE340-.LFB340
 1442 03ec 01       		.uleb128 0x1
 1443 03ed 9C       		.byte	0x9c
 1444 03ee 46040000 		.4byte	0x446
 1445 03f2 0E       		.uleb128 0xe
 1446 03f3 6F637000 		.ascii	"ocp\000"
 1447 03f7 01       		.byte	0x1
 1448 03f8 C101     		.2byte	0x1c1
 1449 03fa 29       		.byte	0x29
 1450 03fb 4A030000 		.4byte	0x34a
 1451 03ff 73000000 		.4byte	.LLST26
 1452 0403 6F000000 		.4byte	.LVUS26
 1453 0407 0F       		.uleb128 0xf
 1454 0408 00040000 		.4byte	.LASF57
 1455 040c 01       		.byte	0x1
 1456 040d C201     		.2byte	0x1c2
 1457 040f 25       		.byte	0x25
 1458 0410 50030000 		.4byte	0x350
 1459 0414 98000000 		.4byte	.LLST27
 1460 0418 94000000 		.4byte	.LVUS27
 1461 041c 0F       		.uleb128 0xf
 1462 041d 46030000 		.4byte	.LASF58
 1463 0421 01       		.byte	0x1
 1464 0422 C301     		.2byte	0x1c3
 1465 0424 1D       		.byte	0x1d
 1466 0425 5F010000 		.4byte	0x15f
 1467 0429 BD000000 		.4byte	.LLST28
 1468 042d B9000000 		.4byte	.LVUS28
 1469 0431 10       		.uleb128 0x10
 1470 0432 12000000 		.4byte	.LVL45
 1471 0436 11       		.uleb128 0x11
 1472 0437 01       		.uleb128 0x1
 1473 0438 50       		.byte	0x50
 1474 0439 03       		.uleb128 0x3
 1475 043a F3       		.byte	0xf3
 1476 043b 01       		.uleb128 0x1
 1477 043c 50       		.byte	0x50
 1478 043d 11       		.uleb128 0x11
 1479 043e 01       		.uleb128 0x1
 1480 043f 51       		.byte	0x51
 1481 0440 03       		.uleb128 0x3
 1482 0441 F3       		.byte	0xf3
ARM GAS  /tmp/ccPjWNNF.s 			page 27


 1483 0442 01       		.uleb128 0x1
 1484 0443 51       		.byte	0x51
 1485 0444 00       		.byte	0
 1486 0445 00       		.byte	0
 1487 0446 12       		.uleb128 0x12
 1488 0447 A9000000 		.4byte	.LASF64
 1489 044b 01       		.byte	0x1
 1490 044c 7B01     		.2byte	0x17b
 1491 044e 06       		.byte	0x6
 1492 044f 00000000 		.4byte	.LFB339
 1493 0453 7E000000 		.4byte	.LFE339-.LFB339
 1494 0457 01       		.uleb128 0x1
 1495 0458 9C       		.byte	0x9c
 1496 0459 0B050000 		.4byte	0x50b
 1497 045d 0E       		.uleb128 0xe
 1498 045e 6F637000 		.ascii	"ocp\000"
 1499 0462 01       		.byte	0x1
 1500 0463 7B01     		.2byte	0x17b
 1501 0465 2D       		.byte	0x2d
 1502 0466 4A030000 		.4byte	0x34a
 1503 046a E8000000 		.4byte	.LLST22
 1504 046e DE000000 		.4byte	.LVUS22
 1505 0472 0F       		.uleb128 0xf
 1506 0473 00040000 		.4byte	.LASF57
 1507 0477 01       		.byte	0x1
 1508 0478 7C01     		.2byte	0x17c
 1509 047a 29       		.byte	0x29
 1510 047b 50030000 		.4byte	0x350
 1511 047f 37010000 		.4byte	.LLST23
 1512 0483 2F010000 		.4byte	.LVUS23
 1513 0487 13       		.uleb128 0x13
 1514 0488 A9020000 		.4byte	.LASF63
 1515 048c 1B050000 		.4byte	0x51b
 1516 0490 14       		.uleb128 0x14
 1517 0491 DF090000 		.4byte	0x9df
 1518 0495 0A000000 		.4byte	.LBI151
 1519 0499 00       		.byte	.LVU236
 1520 049a 0A000000 		.4byte	.LBB151
 1521 049e 00000000 		.4byte	.LBE151-.LBB151
 1522 04a2 01       		.byte	0x1
 1523 04a3 8801     		.2byte	0x188
 1524 04a5 07       		.byte	0x7
 1525 04a6 B8040000 		.4byte	0x4b8
 1526 04aa 15       		.uleb128 0x15
 1527 04ab F0090000 		.4byte	0x9f0
 1528 04af 70010000 		.4byte	.LLST24
 1529 04b3 6E010000 		.4byte	.LVUS24
 1530 04b7 00       		.byte	0
 1531 04b8 14       		.uleb128 0x14
 1532 04b9 020A0000 		.4byte	0xa02
 1533 04bd 32000000 		.4byte	.LBI153
 1534 04c1 01       		.byte	.LVU258
 1535 04c2 32000000 		.4byte	.LBB153
 1536 04c6 06000000 		.4byte	.LBE153-.LBB153
 1537 04ca 01       		.byte	0x1
 1538 04cb AD01     		.2byte	0x1ad
 1539 04cd 03       		.byte	0x3
ARM GAS  /tmp/ccPjWNNF.s 			page 28


 1540 04ce E0040000 		.4byte	0x4e0
 1541 04d2 15       		.uleb128 0x15
 1542 04d3 0F0A0000 		.4byte	0xa0f
 1543 04d7 87010000 		.4byte	.LLST25
 1544 04db 85010000 		.4byte	.LVUS25
 1545 04df 00       		.byte	0
 1546 04e0 16       		.uleb128 0x16
 1547 04e1 32000000 		.4byte	.LVL38
 1548 04e5 A10A0000 		.4byte	0xaa1
 1549 04e9 F7040000 		.4byte	0x4f7
 1550 04ed 11       		.uleb128 0x11
 1551 04ee 01       		.uleb128 0x1
 1552 04ef 50       		.byte	0x50
 1553 04f0 05       		.uleb128 0x5
 1554 04f1 F3       		.byte	0xf3
 1555 04f2 01       		.uleb128 0x1
 1556 04f3 50       		.byte	0x50
 1557 04f4 23       		.byte	0x23
 1558 04f5 30       		.uleb128 0x30
 1559 04f6 00       		.byte	0
 1560 04f7 17       		.uleb128 0x17
 1561 04f8 7E000000 		.4byte	.LVL43
 1562 04fc A10A0000 		.4byte	0xaa1
 1563 0500 11       		.uleb128 0x11
 1564 0501 01       		.uleb128 0x1
 1565 0502 50       		.byte	0x50
 1566 0503 05       		.uleb128 0x5
 1567 0504 F3       		.byte	0xf3
 1568 0505 01       		.uleb128 0x1
 1569 0506 51       		.byte	0x51
 1570 0507 23       		.byte	0x23
 1571 0508 18       		.uleb128 0x18
 1572 0509 00       		.byte	0
 1573 050a 00       		.byte	0
 1574 050b 18       		.uleb128 0x18
 1575 050c E5000000 		.4byte	0xe5
 1576 0510 1B050000 		.4byte	0x51b
 1577 0514 19       		.uleb128 0x19
 1578 0515 38000000 		.4byte	0x38
 1579 0519 15       		.byte	0x15
 1580 051a 00       		.byte	0
 1581 051b 05       		.uleb128 0x5
 1582 051c 0B050000 		.4byte	0x50b
 1583 0520 0D       		.uleb128 0xd
 1584 0521 00010000 		.4byte	.LASF61
 1585 0525 01       		.byte	0x1
 1586 0526 3001     		.2byte	0x130
 1587 0528 0E       		.byte	0xe
 1588 0529 50030000 		.4byte	0x350
 1589 052d 00000000 		.4byte	.LFB338
 1590 0531 F2000000 		.4byte	.LFE338-.LFB338
 1591 0535 01       		.uleb128 0x1
 1592 0536 9C       		.byte	0x9c
 1593 0537 0A080000 		.4byte	0x80a
 1594 053b 0E       		.uleb128 0xe
 1595 053c 6F637000 		.ascii	"ocp\000"
 1596 0540 01       		.byte	0x1
ARM GAS  /tmp/ccPjWNNF.s 			page 29


 1597 0541 3001     		.2byte	0x130
 1598 0543 30       		.byte	0x30
 1599 0544 4A030000 		.4byte	0x34a
 1600 0548 A8010000 		.4byte	.LLST6
 1601 054c 9C010000 		.4byte	.LVUS6
 1602 0550 0F       		.uleb128 0xf
 1603 0551 D7020000 		.4byte	.LASF62
 1604 0555 01       		.byte	0x1
 1605 0556 3101     		.2byte	0x131
 1606 0558 28       		.byte	0x28
 1607 0559 BA000000 		.4byte	0xba
 1608 055d F6010000 		.4byte	.LLST7
 1609 0561 F2010000 		.4byte	.LVUS7
 1610 0565 0E       		.uleb128 0xe
 1611 0566 6B657900 		.ascii	"key\000"
 1612 056a 01       		.byte	0x1
 1613 056b 3201     		.2byte	0x132
 1614 056d 28       		.byte	0x28
 1615 056e BA000000 		.4byte	0xba
 1616 0572 22020000 		.4byte	.LLST8
 1617 0576 14020000 		.4byte	.LVUS8
 1618 057a 1A       		.uleb128 0x1a
 1619 057b 00040000 		.4byte	.LASF57
 1620 057f 01       		.byte	0x1
 1621 0580 3301     		.2byte	0x133
 1622 0582 10       		.byte	0x10
 1623 0583 50030000 		.4byte	0x350
 1624 0587 80020000 		.4byte	.LLST9
 1625 058b 7A020000 		.4byte	.LVUS9
 1626 058f 13       		.uleb128 0x13
 1627 0590 A9020000 		.4byte	.LASF63
 1628 0594 1A080000 		.4byte	0x81a
 1629 0598 1B       		.uleb128 0x1b
 1630 0599 38010000 		.4byte	.Ldebug_ranges0+0x138
 1631 059d B7050000 		.4byte	0x5b7
 1632 05a1 1C       		.uleb128 0x1c
 1633 05a2 68687000 		.ascii	"hhp\000"
 1634 05a6 01       		.byte	0x1
 1635 05a7 6101     		.2byte	0x161
 1636 05a9 05       		.byte	0x5
 1637 05aa 62030000 		.4byte	0x362
 1638 05ae AC020000 		.4byte	.LLST21
 1639 05b2 AA020000 		.4byte	.LVUS21
 1640 05b6 00       		.byte	0
 1641 05b7 1D       		.uleb128 0x1d
 1642 05b8 670A0000 		.4byte	0xa67
 1643 05bc 00000000 		.4byte	.LBI78
 1644 05c0 03       		.byte	.LVU63
 1645 05c1 20000000 		.4byte	.Ldebug_ranges0+0x20
 1646 05c5 01       		.byte	0x1
 1647 05c6 3601     		.2byte	0x136
 1648 05c8 03       		.byte	0x3
 1649 05c9 01060000 		.4byte	0x601
 1650 05cd 1E       		.uleb128 0x1e
 1651 05ce 7B0A0000 		.4byte	0xa7b
 1652 05d2 00000000 		.4byte	.LBI79
 1653 05d6 05       		.byte	.LVU65
ARM GAS  /tmp/ccPjWNNF.s 			page 30


 1654 05d7 28000000 		.4byte	.Ldebug_ranges0+0x28
 1655 05db 02       		.byte	0x2
 1656 05dc 9901     		.2byte	0x199
 1657 05de 03       		.byte	0x3
 1658 05df 1E       		.uleb128 0x1e
 1659 05e0 850A0000 		.4byte	0xa85
 1660 05e4 00000000 		.4byte	.LBI80
 1661 05e8 07       		.byte	.LVU67
 1662 05e9 30000000 		.4byte	.Ldebug_ranges0+0x30
 1663 05ed 03       		.byte	0x3
 1664 05ee 2E03     		.2byte	0x32e
 1665 05f0 03       		.byte	0x3
 1666 05f1 15       		.uleb128 0x15
 1667 05f2 930A0000 		.4byte	0xa93
 1668 05f6 C1020000 		.4byte	.LLST10
 1669 05fa BF020000 		.4byte	.LVUS10
 1670 05fe 00       		.byte	0
 1671 05ff 00       		.byte	0
 1672 0600 00       		.byte	0
 1673 0601 14       		.uleb128 0x14
 1674 0602 91090000 		.4byte	0x991
 1675 0606 12000000 		.4byte	.LBI93
 1676 060a 04       		.byte	.LVU78
 1677 060b 12000000 		.4byte	.LBB93
 1678 060f 2E000000 		.4byte	.LBE93-.LBB93
 1679 0613 01       		.byte	0x1
 1680 0614 3901     		.2byte	0x139
 1681 0616 0A       		.byte	0xa
 1682 0617 62060000 		.4byte	0x662
 1683 061b 1F       		.uleb128 0x1f
 1684 061c A2090000 		.4byte	0x9a2
 1685 0620 15       		.uleb128 0x15
 1686 0621 A2090000 		.4byte	0x9a2
 1687 0625 DA020000 		.4byte	.LLST11
 1688 0629 D6020000 		.4byte	.LVUS11
 1689 062d 15       		.uleb128 0x15
 1690 062e BA090000 		.4byte	0x9ba
 1691 0632 FC020000 		.4byte	.LLST12
 1692 0636 F8020000 		.4byte	.LVUS12
 1693 063a 15       		.uleb128 0x15
 1694 063b AE090000 		.4byte	0x9ae
 1695 063f 20030000 		.4byte	.LLST13
 1696 0643 1A030000 		.4byte	.LVUS13
 1697 0647 20       		.uleb128 0x20
 1698 0648 C6090000 		.4byte	0x9c6
 1699 064c 4D030000 		.4byte	.LLST14
 1700 0650 49030000 		.4byte	.LVUS14
 1701 0654 20       		.uleb128 0x20
 1702 0655 D2090000 		.4byte	0x9d2
 1703 0659 6F030000 		.4byte	.LLST15
 1704 065d 6B030000 		.4byte	.LVUS15
 1705 0661 00       		.byte	0
 1706 0662 14       		.uleb128 0x14
 1707 0663 DF090000 		.4byte	0x9df
 1708 0667 40000000 		.4byte	.LBI95
 1709 066b 06       		.byte	.LVU101
 1710 066c 40000000 		.4byte	.LBB95
ARM GAS  /tmp/ccPjWNNF.s 			page 31


 1711 0670 02000000 		.4byte	.LBE95-.LBB95
 1712 0674 01       		.byte	0x1
 1713 0675 4101     		.2byte	0x141
 1714 0677 09       		.byte	0x9
 1715 0678 8A060000 		.4byte	0x68a
 1716 067c 15       		.uleb128 0x15
 1717 067d F0090000 		.4byte	0x9f0
 1718 0681 8F030000 		.4byte	.LLST16
 1719 0685 8D030000 		.4byte	.LVUS16
 1720 0689 00       		.byte	0
 1721 068a 21       		.uleb128 0x21
 1722 068b 210A0000 		.4byte	0xa21
 1723 068f 50000000 		.4byte	.Ldebug_ranges0+0x50
 1724 0693 01       		.byte	0x1
 1725 0694 4D01     		.2byte	0x14d
 1726 0696 07       		.byte	0x7
 1727 0697 A1060000 		.4byte	0x6a1
 1728 069b 1F       		.uleb128 0x1f
 1729 069c 2E0A0000 		.4byte	0xa2e
 1730 06a0 00       		.byte	0
 1731 06a1 1D       		.uleb128 0x1d
 1732 06a2 3A0A0000 		.4byte	0xa3a
 1733 06a6 5A000000 		.4byte	.LBI101
 1734 06aa 03       		.byte	.LVU123
 1735 06ab 68000000 		.4byte	.Ldebug_ranges0+0x68
 1736 06af 01       		.byte	0x1
 1737 06b0 6501     		.2byte	0x165
 1738 06b2 03       		.byte	0x3
 1739 06b3 F5060000 		.4byte	0x6f5
 1740 06b7 22       		.uleb128 0x22
 1741 06b8 68000000 		.4byte	.Ldebug_ranges0+0x68
 1742 06bc 1E       		.uleb128 0x1e
 1743 06bd 710A0000 		.4byte	0xa71
 1744 06c1 5A000000 		.4byte	.LBI103
 1745 06c5 0A       		.byte	.LVU130
 1746 06c6 68000000 		.4byte	.Ldebug_ranges0+0x68
 1747 06ca 02       		.byte	0x2
 1748 06cb B201     		.2byte	0x1b2
 1749 06cd 03       		.byte	0x3
 1750 06ce 23       		.uleb128 0x23
 1751 06cf 850A0000 		.4byte	0xa85
 1752 06d3 5A000000 		.4byte	.LBI104
 1753 06d7 0C       		.byte	.LVU132
 1754 06d8 5A000000 		.4byte	.LBB104
 1755 06dc 06000000 		.4byte	.LBE104-.LBB104
 1756 06e0 03       		.byte	0x3
 1757 06e1 4103     		.2byte	0x341
 1758 06e3 03       		.byte	0x3
 1759 06e4 15       		.uleb128 0x15
 1760 06e5 930A0000 		.4byte	0xa93
 1761 06e9 A6030000 		.4byte	.LLST17
 1762 06ed A4030000 		.4byte	.LVUS17
 1763 06f1 00       		.byte	0
 1764 06f2 00       		.byte	0
 1765 06f3 00       		.byte	0
 1766 06f4 00       		.byte	0
 1767 06f5 21       		.uleb128 0x21
ARM GAS  /tmp/ccPjWNNF.s 			page 32


 1768 06f6 49090000 		.4byte	0x949
 1769 06fa 80000000 		.4byte	.Ldebug_ranges0+0x80
 1770 06fe 01       		.byte	0x1
 1771 06ff 5B01     		.2byte	0x15b
 1772 0701 0C       		.byte	0xc
 1773 0702 F6070000 		.4byte	0x7f6
 1774 0706 1F       		.uleb128 0x1f
 1775 0707 5A090000 		.4byte	0x95a
 1776 070b 22       		.uleb128 0x22
 1777 070c 80000000 		.4byte	.Ldebug_ranges0+0x80
 1778 0710 20       		.uleb128 0x20
 1779 0711 66090000 		.4byte	0x966
 1780 0715 BE030000 		.4byte	.LLST18
 1781 0719 BA030000 		.4byte	.LVUS18
 1782 071d 24       		.uleb128 0x24
 1783 071e 3A0A0000 		.4byte	0xa3a
 1784 0722 92000000 		.4byte	.LBI111
 1785 0726 02       		.byte	.LVU164
 1786 0727 A0000000 		.4byte	.Ldebug_ranges0+0xa0
 1787 072b 01       		.byte	0x1
 1788 072c CD       		.byte	0xcd
 1789 072d 05       		.byte	0x5
 1790 072e 6C070000 		.4byte	0x76c
 1791 0732 22       		.uleb128 0x22
 1792 0733 A0000000 		.4byte	.Ldebug_ranges0+0xa0
 1793 0737 1E       		.uleb128 0x1e
 1794 0738 710A0000 		.4byte	0xa71
 1795 073c 92000000 		.4byte	.LBI113
 1796 0740 09       		.byte	.LVU171
 1797 0741 A0000000 		.4byte	.Ldebug_ranges0+0xa0
 1798 0745 02       		.byte	0x2
 1799 0746 B201     		.2byte	0x1b2
 1800 0748 03       		.byte	0x3
 1801 0749 1E       		.uleb128 0x1e
 1802 074a 850A0000 		.4byte	0xa85
 1803 074e 92000000 		.4byte	.LBI114
 1804 0752 0B       		.byte	.LVU173
 1805 0753 C8000000 		.4byte	.Ldebug_ranges0+0xc8
 1806 0757 03       		.byte	0x3
 1807 0758 4103     		.2byte	0x341
 1808 075a 03       		.byte	0x3
 1809 075b 15       		.uleb128 0x15
 1810 075c 930A0000 		.4byte	0xa93
 1811 0760 E0030000 		.4byte	.LLST19
 1812 0764 DC030000 		.4byte	.LVUS19
 1813 0768 00       		.byte	0
 1814 0769 00       		.byte	0
 1815 076a 00       		.byte	0
 1816 076b 00       		.byte	0
 1817 076c 24       		.uleb128 0x24
 1818 076d 670A0000 		.4byte	0xa67
 1819 0771 86000000 		.4byte	.LBI127
 1820 0775 01       		.byte	.LVU148
 1821 0776 E8000000 		.4byte	.Ldebug_ranges0+0xe8
 1822 077a 01       		.byte	0x1
 1823 077b D6       		.byte	0xd6
 1824 077c 05       		.byte	0x5
ARM GAS  /tmp/ccPjWNNF.s 			page 33


 1825 077d B9070000 		.4byte	0x7b9
 1826 0781 1E       		.uleb128 0x1e
 1827 0782 7B0A0000 		.4byte	0xa7b
 1828 0786 86000000 		.4byte	.LBI129
 1829 078a 03       		.byte	.LVU150
 1830 078b 00010000 		.4byte	.Ldebug_ranges0+0x100
 1831 078f 02       		.byte	0x2
 1832 0790 9901     		.2byte	0x199
 1833 0792 03       		.byte	0x3
 1834 0793 23       		.uleb128 0x23
 1835 0794 850A0000 		.4byte	0xa85
 1836 0798 86000000 		.4byte	.LBI130
 1837 079c 05       		.byte	.LVU152
 1838 079d 86000000 		.4byte	.LBB130
 1839 07a1 06000000 		.4byte	.LBE130-.LBB130
 1840 07a5 03       		.byte	0x3
 1841 07a6 2E03     		.2byte	0x32e
 1842 07a8 03       		.byte	0x3
 1843 07a9 15       		.uleb128 0x15
 1844 07aa 930A0000 		.4byte	0xa93
 1845 07ae 02040000 		.4byte	.LLST20
 1846 07b2 00040000 		.4byte	.LVUS20
 1847 07b6 00       		.byte	0
 1848 07b7 00       		.byte	0
 1849 07b8 00       		.byte	0
 1850 07b9 25       		.uleb128 0x25
 1851 07ba 210A0000 		.4byte	0xa21
 1852 07be 18010000 		.4byte	.Ldebug_ranges0+0x118
 1853 07c2 01       		.byte	0x1
 1854 07c3 BA       		.byte	0xba
 1855 07c4 05       		.byte	0x5
 1856 07c5 CF070000 		.4byte	0x7cf
 1857 07c9 1F       		.uleb128 0x1f
 1858 07ca 2E0A0000 		.4byte	0xa2e
 1859 07ce 00       		.byte	0
 1860 07cf 26       		.uleb128 0x26
 1861 07d0 86000000 		.4byte	.LVL25
 1862 07d4 E4070000 		.4byte	0x7e4
 1863 07d8 11       		.uleb128 0x11
 1864 07d9 01       		.uleb128 0x1
 1865 07da 50       		.byte	0x50
 1866 07db 02       		.uleb128 0x2
 1867 07dc 75       		.byte	0x75
 1868 07dd 00       		.sleb128 0
 1869 07de 11       		.uleb128 0x11
 1870 07df 01       		.uleb128 0x1
 1871 07e0 52       		.byte	0x52
 1872 07e1 01       		.uleb128 0x1
 1873 07e2 31       		.byte	0x31
 1874 07e3 00       		.byte	0
 1875 07e4 27       		.uleb128 0x27
 1876 07e5 92000000 		.4byte	.LVL27
 1877 07e9 AD0A0000 		.4byte	0xaad
 1878 07ed 11       		.uleb128 0x11
 1879 07ee 01       		.uleb128 0x1
 1880 07ef 50       		.byte	0x50
 1881 07f0 02       		.uleb128 0x2
ARM GAS  /tmp/ccPjWNNF.s 			page 34


 1882 07f1 78       		.byte	0x78
 1883 07f2 00       		.sleb128 0
 1884 07f3 00       		.byte	0
 1885 07f4 00       		.byte	0
 1886 07f5 00       		.byte	0
 1887 07f6 27       		.uleb128 0x27
 1888 07f7 EE000000 		.4byte	.LVL33
 1889 07fb AD0A0000 		.4byte	0xaad
 1890 07ff 11       		.uleb128 0x11
 1891 0800 01       		.uleb128 0x1
 1892 0801 50       		.byte	0x50
 1893 0802 05       		.uleb128 0x5
 1894 0803 91       		.byte	0x91
 1895 0804 5C       		.sleb128 -36
 1896 0805 06       		.byte	0x6
 1897 0806 23       		.byte	0x23
 1898 0807 18       		.uleb128 0x18
 1899 0808 00       		.byte	0
 1900 0809 00       		.byte	0
 1901 080a 18       		.uleb128 0x18
 1902 080b E5000000 		.4byte	0xe5
 1903 080f 1A080000 		.4byte	0x81a
 1904 0813 19       		.uleb128 0x19
 1905 0814 38000000 		.4byte	0x38
 1906 0818 10       		.byte	0x10
 1907 0819 00       		.byte	0
 1908 081a 05       		.uleb128 0x5
 1909 081b 0A080000 		.4byte	0x80a
 1910 081f 28       		.uleb128 0x28
 1911 0820 EE000000 		.4byte	.LASF65
 1912 0824 01       		.byte	0x1
 1913 0825 F1       		.byte	0xf1
 1914 0826 06       		.byte	0x6
 1915 0827 00000000 		.4byte	.LFB337
 1916 082b 7C000000 		.4byte	.LFE337-.LFB337
 1917 082f 01       		.uleb128 0x1
 1918 0830 9C       		.byte	0x9c
 1919 0831 34090000 		.4byte	0x934
 1920 0835 29       		.uleb128 0x29
 1921 0836 6F637000 		.ascii	"ocp\000"
 1922 083a 01       		.byte	0x1
 1923 083b F1       		.byte	0xf1
 1924 083c 29       		.byte	0x29
 1925 083d 4A030000 		.4byte	0x34a
 1926 0841 1B040000 		.4byte	.LLST0
 1927 0845 17040000 		.4byte	.LVUS0
 1928 0849 2A       		.uleb128 0x2a
 1929 084a DD020000 		.4byte	.LASF46
 1930 084e 01       		.byte	0x1
 1931 084f F2       		.byte	0xf2
 1932 0850 1F       		.byte	0x1f
 1933 0851 D2000000 		.4byte	0xd2
 1934 0855 41040000 		.4byte	.LLST1
 1935 0859 39040000 		.4byte	.LVUS1
 1936 085d 2A       		.uleb128 0x2a
 1937 085e F0020000 		.4byte	.LASF47
 1938 0862 01       		.byte	0x1
ARM GAS  /tmp/ccPjWNNF.s 			page 35


 1939 0863 F3       		.byte	0xf3
 1940 0864 2A       		.byte	0x2a
 1941 0865 62030000 		.4byte	0x362
 1942 0869 7D040000 		.4byte	.LLST2
 1943 086d 79040000 		.4byte	.LVUS2
 1944 0871 2A       		.uleb128 0x2a
 1945 0872 FB030000 		.4byte	.LASF48
 1946 0876 01       		.byte	0x1
 1947 0877 F4       		.byte	0xf4
 1948 0878 1F       		.byte	0x1f
 1949 0879 D2000000 		.4byte	0xd2
 1950 087d A1040000 		.4byte	.LLST3
 1951 0881 9B040000 		.4byte	.LVUS3
 1952 0885 2B       		.uleb128 0x2b
 1953 0886 31010000 		.4byte	.LASF49
 1954 088a 01       		.byte	0x1
 1955 088b F5       		.byte	0xf5
 1956 088c 1F       		.byte	0x1f
 1957 088d 2C000000 		.4byte	0x2c
 1958 0891 02       		.uleb128 0x2
 1959 0892 91       		.byte	0x91
 1960 0893 00       		.sleb128 0
 1961 0894 2A       		.uleb128 0x2a
 1962 0895 BF000000 		.4byte	.LASF50
 1963 0899 01       		.byte	0x1
 1964 089a F6       		.byte	0xf6
 1965 089b 1E       		.byte	0x1e
 1966 089c 24010000 		.4byte	0x124
 1967 08a0 D0040000 		.4byte	.LLST4
 1968 08a4 CC040000 		.4byte	.LVUS4
 1969 08a8 2B       		.uleb128 0x2b
 1970 08a9 F6020000 		.4byte	.LASF53
 1971 08ad 01       		.byte	0x1
 1972 08ae F7       		.byte	0xf7
 1973 08af 23       		.byte	0x23
 1974 08b0 1F030000 		.4byte	0x31f
 1975 08b4 02       		.uleb128 0x2
 1976 08b5 91       		.byte	0x91
 1977 08b6 08       		.sleb128 8
 1978 08b7 2B       		.uleb128 0x2b
 1979 08b8 67000000 		.4byte	.LASF54
 1980 08bc 01       		.byte	0x1
 1981 08bd F8       		.byte	0xf8
 1982 08be 24       		.byte	0x24
 1983 08bf 56030000 		.4byte	0x356
 1984 08c3 02       		.uleb128 0x2
 1985 08c4 91       		.byte	0x91
 1986 08c5 0C       		.sleb128 12
 1987 08c6 13       		.uleb128 0x13
 1988 08c7 A9020000 		.4byte	.LASF63
 1989 08cb 44090000 		.4byte	0x944
 1990 08cf 1B       		.uleb128 0x1b
 1991 08d0 00000000 		.4byte	.Ldebug_ranges0+0
 1992 08d4 04090000 		.4byte	0x904
 1993 08d8 1A       		.uleb128 0x1a
 1994 08d9 00040000 		.4byte	.LASF57
 1995 08dd 01       		.byte	0x1
ARM GAS  /tmp/ccPjWNNF.s 			page 36


 1996 08de 1601     		.2byte	0x116
 1997 08e0 12       		.byte	0x12
 1998 08e1 50030000 		.4byte	0x350
 1999 08e5 F3040000 		.4byte	.LLST5
 2000 08e9 EF040000 		.4byte	.LVUS5
 2001 08ed 27       		.uleb128 0x27
 2002 08ee 60000000 		.4byte	.LVL8
 2003 08f2 B90A0000 		.4byte	0xab9
 2004 08f6 11       		.uleb128 0x11
 2005 08f7 01       		.uleb128 0x1
 2006 08f8 50       		.byte	0x50
 2007 08f9 02       		.uleb128 0x2
 2008 08fa 74       		.byte	0x74
 2009 08fb 18       		.sleb128 24
 2010 08fc 11       		.uleb128 0x11
 2011 08fd 01       		.uleb128 0x1
 2012 08fe 51       		.byte	0x51
 2013 08ff 02       		.uleb128 0x2
 2014 0900 7A       		.byte	0x7a
 2015 0901 00       		.sleb128 0
 2016 0902 00       		.byte	0
 2017 0903 00       		.byte	0
 2018 0904 16       		.uleb128 0x16
 2019 0905 1A000000 		.4byte	.LVL3
 2020 0909 B90A0000 		.4byte	0xab9
 2021 090d 1D090000 		.4byte	0x91d
 2022 0911 11       		.uleb128 0x11
 2023 0912 01       		.uleb128 0x1
 2024 0913 50       		.byte	0x50
 2025 0914 02       		.uleb128 0x2
 2026 0915 76       		.byte	0x76
 2027 0916 24       		.sleb128 36
 2028 0917 11       		.uleb128 0x11
 2029 0918 01       		.uleb128 0x1
 2030 0919 51       		.byte	0x51
 2031 091a 01       		.uleb128 0x1
 2032 091b 31       		.byte	0x31
 2033 091c 00       		.byte	0
 2034 091d 27       		.uleb128 0x27
 2035 091e 24000000 		.4byte	.LVL4
 2036 0922 B90A0000 		.4byte	0xab9
 2037 0926 11       		.uleb128 0x11
 2038 0927 01       		.uleb128 0x1
 2039 0928 50       		.byte	0x50
 2040 0929 02       		.uleb128 0x2
 2041 092a 76       		.byte	0x76
 2042 092b 30       		.sleb128 48
 2043 092c 11       		.uleb128 0x11
 2044 092d 01       		.uleb128 0x1
 2045 092e 51       		.byte	0x51
 2046 092f 02       		.uleb128 0x2
 2047 0930 77       		.byte	0x77
 2048 0931 00       		.sleb128 0
 2049 0932 00       		.byte	0
 2050 0933 00       		.byte	0
 2051 0934 18       		.uleb128 0x18
 2052 0935 E5000000 		.4byte	0xe5
ARM GAS  /tmp/ccPjWNNF.s 			page 37


 2053 0939 44090000 		.4byte	0x944
 2054 093d 19       		.uleb128 0x19
 2055 093e 38000000 		.4byte	0x38
 2056 0942 11       		.byte	0x11
 2057 0943 00       		.byte	0
 2058 0944 05       		.uleb128 0x5
 2059 0945 34090000 		.4byte	0x934
 2060 0949 2C       		.uleb128 0x2c
 2061 094a 9A020000 		.4byte	.LASF66
 2062 094e 01       		.byte	0x1
 2063 094f A5       		.byte	0xa5
 2064 0950 15       		.byte	0x15
 2065 0951 50030000 		.4byte	0x350
 2066 0955 01       		.byte	0x1
 2067 0956 7C090000 		.4byte	0x97c
 2068 095a 2D       		.uleb128 0x2d
 2069 095b 6F637000 		.ascii	"ocp\000"
 2070 095f 01       		.byte	0x1
 2071 0960 A5       		.byte	0xa5
 2072 0961 35       		.byte	0x35
 2073 0962 4A030000 		.4byte	0x34a
 2074 0966 2E       		.uleb128 0x2e
 2075 0967 00040000 		.4byte	.LASF57
 2076 096b 01       		.byte	0x1
 2077 096c A6       		.byte	0xa6
 2078 096d 10       		.byte	0x10
 2079 096e 50030000 		.4byte	0x350
 2080 0972 13       		.uleb128 0x13
 2081 0973 A9020000 		.4byte	.LASF63
 2082 0977 8C090000 		.4byte	0x98c
 2083 097b 00       		.byte	0
 2084 097c 18       		.uleb128 0x18
 2085 097d E5000000 		.4byte	0xe5
 2086 0981 8C090000 		.4byte	0x98c
 2087 0985 19       		.uleb128 0x19
 2088 0986 38000000 		.4byte	0x38
 2089 098a 0E       		.byte	0xe
 2090 098b 00       		.byte	0
 2091 098c 05       		.uleb128 0x5
 2092 098d 7C090000 		.4byte	0x97c
 2093 0991 2C       		.uleb128 0x2c
 2094 0992 85040000 		.4byte	.LASF67
 2095 0996 01       		.byte	0x1
 2096 0997 86       		.byte	0x86
 2097 0998 15       		.byte	0x15
 2098 0999 50030000 		.4byte	0x350
 2099 099d 01       		.byte	0x1
 2100 099e DF090000 		.4byte	0x9df
 2101 09a2 2D       		.uleb128 0x2d
 2102 09a3 6F637000 		.ascii	"ocp\000"
 2103 09a7 01       		.byte	0x1
 2104 09a8 86       		.byte	0x86
 2105 09a9 31       		.byte	0x31
 2106 09aa 4A030000 		.4byte	0x34a
 2107 09ae 2F       		.uleb128 0x2f
 2108 09af D7020000 		.4byte	.LASF62
 2109 09b3 01       		.byte	0x1
ARM GAS  /tmp/ccPjWNNF.s 			page 38


 2110 09b4 87       		.byte	0x87
 2111 09b5 29       		.byte	0x29
 2112 09b6 BA000000 		.4byte	0xba
 2113 09ba 2D       		.uleb128 0x2d
 2114 09bb 6B657900 		.ascii	"key\000"
 2115 09bf 01       		.byte	0x1
 2116 09c0 88       		.byte	0x88
 2117 09c1 29       		.byte	0x29
 2118 09c2 BA000000 		.4byte	0xba
 2119 09c6 30       		.uleb128 0x30
 2120 09c7 68687000 		.ascii	"hhp\000"
 2121 09cb 01       		.byte	0x1
 2122 09cc 89       		.byte	0x89
 2123 09cd 15       		.byte	0x15
 2124 09ce 62030000 		.4byte	0x362
 2125 09d2 2E       		.uleb128 0x2e
 2126 09d3 00040000 		.4byte	.LASF57
 2127 09d7 01       		.byte	0x1
 2128 09d8 8A       		.byte	0x8a
 2129 09d9 10       		.byte	0x10
 2130 09da 50030000 		.4byte	0x350
 2131 09de 00       		.byte	0
 2132 09df 2C       		.uleb128 0x2c
 2133 09e0 2F000000 		.4byte	.LASF68
 2134 09e4 05       		.byte	0x5
 2135 09e5 BD       		.byte	0xbd
 2136 09e6 15       		.byte	0x15
 2137 09e7 C6000000 		.4byte	0xc6
 2138 09eb 03       		.byte	0x3
 2139 09ec FC090000 		.4byte	0x9fc
 2140 09f0 2D       		.uleb128 0x2d
 2141 09f1 737000   		.ascii	"sp\000"
 2142 09f4 05       		.byte	0x5
 2143 09f5 BD       		.byte	0xbd
 2144 09f6 39       		.byte	0x39
 2145 09f7 FC090000 		.4byte	0x9fc
 2146 09fb 00       		.byte	0
 2147 09fc 08       		.uleb128 0x8
 2148 09fd 04       		.byte	0x4
 2149 09fe 5A010000 		.4byte	0x15a
 2150 0a02 31       		.uleb128 0x31
 2151 0a03 78000000 		.4byte	.LASF69
 2152 0a07 05       		.byte	0x5
 2153 0a08 AE       		.byte	0xae
 2154 0a09 14       		.byte	0x14
 2155 0a0a 03       		.byte	0x3
 2156 0a0b 1B0A0000 		.4byte	0xa1b
 2157 0a0f 2D       		.uleb128 0x2d
 2158 0a10 737000   		.ascii	"sp\000"
 2159 0a13 05       		.byte	0x5
 2160 0a14 AE       		.byte	0xae
 2161 0a15 32       		.byte	0x32
 2162 0a16 1B0A0000 		.4byte	0xa1b
 2163 0a1a 00       		.byte	0
 2164 0a1b 08       		.uleb128 0x8
 2165 0a1c 04       		.byte	0x4
 2166 0a1d 4E010000 		.4byte	0x14e
ARM GAS  /tmp/ccPjWNNF.s 			page 39


 2167 0a21 31       		.uleb128 0x31
 2168 0a22 B2020000 		.4byte	.LASF70
 2169 0a26 05       		.byte	0x5
 2170 0a27 9E       		.byte	0x9e
 2171 0a28 14       		.byte	0x14
 2172 0a29 03       		.byte	0x3
 2173 0a2a 3A0A0000 		.4byte	0xa3a
 2174 0a2e 2D       		.uleb128 0x2d
 2175 0a2f 737000   		.ascii	"sp\000"
 2176 0a32 05       		.byte	0x5
 2177 0a33 9E       		.byte	0x9e
 2178 0a34 30       		.byte	0x30
 2179 0a35 1B0A0000 		.4byte	0xa1b
 2180 0a39 00       		.byte	0
 2181 0a3a 32       		.uleb128 0x32
 2182 0a3b E2030000 		.4byte	.LASF71
 2183 0a3f 02       		.byte	0x2
 2184 0a40 A501     		.2byte	0x1a5
 2185 0a42 14       		.byte	0x14
 2186 0a43 03       		.byte	0x3
 2187 0a44 520A0000 		.4byte	0xa52
 2188 0a48 13       		.uleb128 0x13
 2189 0a49 A9020000 		.4byte	.LASF63
 2190 0a4d 620A0000 		.4byte	0xa62
 2191 0a51 00       		.byte	0
 2192 0a52 18       		.uleb128 0x18
 2193 0a53 E5000000 		.4byte	0xe5
 2194 0a57 620A0000 		.4byte	0xa62
 2195 0a5b 19       		.uleb128 0x19
 2196 0a5c 38000000 		.4byte	0x38
 2197 0a60 0B       		.byte	0xb
 2198 0a61 00       		.byte	0
 2199 0a62 05       		.uleb128 0x5
 2200 0a63 520A0000 		.4byte	0xa52
 2201 0a67 33       		.uleb128 0x33
 2202 0a68 93000000 		.4byte	.LASF72
 2203 0a6c 02       		.byte	0x2
 2204 0a6d 9701     		.2byte	0x197
 2205 0a6f 14       		.byte	0x14
 2206 0a70 03       		.byte	0x3
 2207 0a71 33       		.uleb128 0x33
 2208 0a72 9D030000 		.4byte	.LASF73
 2209 0a76 03       		.byte	0x3
 2210 0a77 3E03     		.2byte	0x33e
 2211 0a79 1B       		.byte	0x1b
 2212 0a7a 03       		.byte	0x3
 2213 0a7b 33       		.uleb128 0x33
 2214 0a7c 89000000 		.4byte	.LASF74
 2215 0a80 03       		.byte	0x3
 2216 0a81 2603     		.2byte	0x326
 2217 0a83 1B       		.byte	0x1b
 2218 0a84 03       		.byte	0x3
 2219 0a85 32       		.uleb128 0x32
 2220 0a86 4D040000 		.4byte	.LASF75
 2221 0a8a 04       		.byte	0x4
 2222 0a8b EB01     		.2byte	0x1eb
 2223 0a8d 1B       		.byte	0x1b
ARM GAS  /tmp/ccPjWNNF.s 			page 40


 2224 0a8e 03       		.byte	0x3
 2225 0a8f A10A0000 		.4byte	0xaa1
 2226 0a93 34       		.uleb128 0x34
 2227 0a94 3E030000 		.4byte	.LASF76
 2228 0a98 04       		.byte	0x4
 2229 0a99 EB01     		.2byte	0x1eb
 2230 0a9b 32       		.byte	0x32
 2231 0a9c BA000000 		.4byte	0xba
 2232 0aa0 00       		.byte	0
 2233 0aa1 35       		.uleb128 0x35
 2234 0aa2 2F040000 		.4byte	.LASF77
 2235 0aa6 2F040000 		.4byte	.LASF77
 2236 0aaa 05       		.byte	0x5
 2237 0aab 63       		.byte	0x63
 2238 0aac 08       		.byte	0x8
 2239 0aad 35       		.uleb128 0x35
 2240 0aae 43010000 		.4byte	.LASF78
 2241 0ab2 43010000 		.4byte	.LASF78
 2242 0ab6 05       		.byte	0x5
 2243 0ab7 5F       		.byte	0x5f
 2244 0ab8 09       		.byte	0x9
 2245 0ab9 35       		.uleb128 0x35
 2246 0aba 40000000 		.4byte	.LASF79
 2247 0abe 40000000 		.4byte	.LASF79
 2248 0ac2 05       		.byte	0x5
 2249 0ac3 5B       		.byte	0x5b
 2250 0ac4 08       		.byte	0x8
 2251 0ac5 00       		.byte	0
 2252              		.section	.debug_abbrev,"",%progbits
 2253              	.Ldebug_abbrev0:
 2254 0000 01       		.uleb128 0x1
 2255 0001 11       		.uleb128 0x11
 2256 0002 01       		.byte	0x1
 2257 0003 25       		.uleb128 0x25
 2258 0004 0E       		.uleb128 0xe
 2259 0005 13       		.uleb128 0x13
 2260 0006 0B       		.uleb128 0xb
 2261 0007 03       		.uleb128 0x3
 2262 0008 0E       		.uleb128 0xe
 2263 0009 1B       		.uleb128 0x1b
 2264 000a 0E       		.uleb128 0xe
 2265 000b 55       		.uleb128 0x55
 2266 000c 17       		.uleb128 0x17
 2267 000d 11       		.uleb128 0x11
 2268 000e 01       		.uleb128 0x1
 2269 000f 10       		.uleb128 0x10
 2270 0010 17       		.uleb128 0x17
 2271 0011 00       		.byte	0
 2272 0012 00       		.byte	0
 2273 0013 02       		.uleb128 0x2
 2274 0014 24       		.uleb128 0x24
 2275 0015 00       		.byte	0
 2276 0016 0B       		.uleb128 0xb
 2277 0017 0B       		.uleb128 0xb
 2278 0018 3E       		.uleb128 0x3e
 2279 0019 0B       		.uleb128 0xb
 2280 001a 03       		.uleb128 0x3
ARM GAS  /tmp/ccPjWNNF.s 			page 41


 2281 001b 08       		.uleb128 0x8
 2282 001c 00       		.byte	0
 2283 001d 00       		.byte	0
 2284 001e 03       		.uleb128 0x3
 2285 001f 16       		.uleb128 0x16
 2286 0020 00       		.byte	0
 2287 0021 03       		.uleb128 0x3
 2288 0022 0E       		.uleb128 0xe
 2289 0023 3A       		.uleb128 0x3a
 2290 0024 0B       		.uleb128 0xb
 2291 0025 3B       		.uleb128 0x3b
 2292 0026 0B       		.uleb128 0xb
 2293 0027 39       		.uleb128 0x39
 2294 0028 0B       		.uleb128 0xb
 2295 0029 49       		.uleb128 0x49
 2296 002a 13       		.uleb128 0x13
 2297 002b 00       		.byte	0
 2298 002c 00       		.byte	0
 2299 002d 04       		.uleb128 0x4
 2300 002e 24       		.uleb128 0x24
 2301 002f 00       		.byte	0
 2302 0030 0B       		.uleb128 0xb
 2303 0031 0B       		.uleb128 0xb
 2304 0032 3E       		.uleb128 0x3e
 2305 0033 0B       		.uleb128 0xb
 2306 0034 03       		.uleb128 0x3
 2307 0035 0E       		.uleb128 0xe
 2308 0036 00       		.byte	0
 2309 0037 00       		.byte	0
 2310 0038 05       		.uleb128 0x5
 2311 0039 26       		.uleb128 0x26
 2312 003a 00       		.byte	0
 2313 003b 49       		.uleb128 0x49
 2314 003c 13       		.uleb128 0x13
 2315 003d 00       		.byte	0
 2316 003e 00       		.byte	0
 2317 003f 06       		.uleb128 0x6
 2318 0040 13       		.uleb128 0x13
 2319 0041 01       		.byte	0x1
 2320 0042 03       		.uleb128 0x3
 2321 0043 0E       		.uleb128 0xe
 2322 0044 0B       		.uleb128 0xb
 2323 0045 0B       		.uleb128 0xb
 2324 0046 3A       		.uleb128 0x3a
 2325 0047 0B       		.uleb128 0xb
 2326 0048 3B       		.uleb128 0x3b
 2327 0049 0B       		.uleb128 0xb
 2328 004a 39       		.uleb128 0x39
 2329 004b 0B       		.uleb128 0xb
 2330 004c 01       		.uleb128 0x1
 2331 004d 13       		.uleb128 0x13
 2332 004e 00       		.byte	0
 2333 004f 00       		.byte	0
 2334 0050 07       		.uleb128 0x7
 2335 0051 0D       		.uleb128 0xd
 2336 0052 00       		.byte	0
 2337 0053 03       		.uleb128 0x3
ARM GAS  /tmp/ccPjWNNF.s 			page 42


 2338 0054 0E       		.uleb128 0xe
 2339 0055 3A       		.uleb128 0x3a
 2340 0056 0B       		.uleb128 0xb
 2341 0057 3B       		.uleb128 0x3b
 2342 0058 0B       		.uleb128 0xb
 2343 0059 39       		.uleb128 0x39
 2344 005a 0B       		.uleb128 0xb
 2345 005b 49       		.uleb128 0x49
 2346 005c 13       		.uleb128 0x13
 2347 005d 38       		.uleb128 0x38
 2348 005e 0B       		.uleb128 0xb
 2349 005f 00       		.byte	0
 2350 0060 00       		.byte	0
 2351 0061 08       		.uleb128 0x8
 2352 0062 0F       		.uleb128 0xf
 2353 0063 00       		.byte	0
 2354 0064 0B       		.uleb128 0xb
 2355 0065 0B       		.uleb128 0xb
 2356 0066 49       		.uleb128 0x49
 2357 0067 13       		.uleb128 0x13
 2358 0068 00       		.byte	0
 2359 0069 00       		.byte	0
 2360 006a 09       		.uleb128 0x9
 2361 006b 0F       		.uleb128 0xf
 2362 006c 00       		.byte	0
 2363 006d 0B       		.uleb128 0xb
 2364 006e 0B       		.uleb128 0xb
 2365 006f 00       		.byte	0
 2366 0070 00       		.byte	0
 2367 0071 0A       		.uleb128 0xa
 2368 0072 0D       		.uleb128 0xd
 2369 0073 00       		.byte	0
 2370 0074 03       		.uleb128 0x3
 2371 0075 08       		.uleb128 0x8
 2372 0076 3A       		.uleb128 0x3a
 2373 0077 0B       		.uleb128 0xb
 2374 0078 3B       		.uleb128 0x3b
 2375 0079 0B       		.uleb128 0xb
 2376 007a 39       		.uleb128 0x39
 2377 007b 0B       		.uleb128 0xb
 2378 007c 49       		.uleb128 0x49
 2379 007d 13       		.uleb128 0x13
 2380 007e 38       		.uleb128 0x38
 2381 007f 0B       		.uleb128 0xb
 2382 0080 00       		.byte	0
 2383 0081 00       		.byte	0
 2384 0082 0B       		.uleb128 0xb
 2385 0083 15       		.uleb128 0x15
 2386 0084 01       		.byte	0x1
 2387 0085 27       		.uleb128 0x27
 2388 0086 19       		.uleb128 0x19
 2389 0087 49       		.uleb128 0x49
 2390 0088 13       		.uleb128 0x13
 2391 0089 01       		.uleb128 0x1
 2392 008a 13       		.uleb128 0x13
 2393 008b 00       		.byte	0
 2394 008c 00       		.byte	0
ARM GAS  /tmp/ccPjWNNF.s 			page 43


 2395 008d 0C       		.uleb128 0xc
 2396 008e 05       		.uleb128 0x5
 2397 008f 00       		.byte	0
 2398 0090 49       		.uleb128 0x49
 2399 0091 13       		.uleb128 0x13
 2400 0092 00       		.byte	0
 2401 0093 00       		.byte	0
 2402 0094 0D       		.uleb128 0xd
 2403 0095 2E       		.uleb128 0x2e
 2404 0096 01       		.byte	0x1
 2405 0097 3F       		.uleb128 0x3f
 2406 0098 19       		.uleb128 0x19
 2407 0099 03       		.uleb128 0x3
 2408 009a 0E       		.uleb128 0xe
 2409 009b 3A       		.uleb128 0x3a
 2410 009c 0B       		.uleb128 0xb
 2411 009d 3B       		.uleb128 0x3b
 2412 009e 05       		.uleb128 0x5
 2413 009f 39       		.uleb128 0x39
 2414 00a0 0B       		.uleb128 0xb
 2415 00a1 27       		.uleb128 0x27
 2416 00a2 19       		.uleb128 0x19
 2417 00a3 49       		.uleb128 0x49
 2418 00a4 13       		.uleb128 0x13
 2419 00a5 11       		.uleb128 0x11
 2420 00a6 01       		.uleb128 0x1
 2421 00a7 12       		.uleb128 0x12
 2422 00a8 06       		.uleb128 0x6
 2423 00a9 40       		.uleb128 0x40
 2424 00aa 18       		.uleb128 0x18
 2425 00ab 9742     		.uleb128 0x2117
 2426 00ad 19       		.uleb128 0x19
 2427 00ae 01       		.uleb128 0x1
 2428 00af 13       		.uleb128 0x13
 2429 00b0 00       		.byte	0
 2430 00b1 00       		.byte	0
 2431 00b2 0E       		.uleb128 0xe
 2432 00b3 05       		.uleb128 0x5
 2433 00b4 00       		.byte	0
 2434 00b5 03       		.uleb128 0x3
 2435 00b6 08       		.uleb128 0x8
 2436 00b7 3A       		.uleb128 0x3a
 2437 00b8 0B       		.uleb128 0xb
 2438 00b9 3B       		.uleb128 0x3b
 2439 00ba 05       		.uleb128 0x5
 2440 00bb 39       		.uleb128 0x39
 2441 00bc 0B       		.uleb128 0xb
 2442 00bd 49       		.uleb128 0x49
 2443 00be 13       		.uleb128 0x13
 2444 00bf 02       		.uleb128 0x2
 2445 00c0 17       		.uleb128 0x17
 2446 00c1 B742     		.uleb128 0x2137
 2447 00c3 17       		.uleb128 0x17
 2448 00c4 00       		.byte	0
 2449 00c5 00       		.byte	0
 2450 00c6 0F       		.uleb128 0xf
 2451 00c7 05       		.uleb128 0x5
ARM GAS  /tmp/ccPjWNNF.s 			page 44


 2452 00c8 00       		.byte	0
 2453 00c9 03       		.uleb128 0x3
 2454 00ca 0E       		.uleb128 0xe
 2455 00cb 3A       		.uleb128 0x3a
 2456 00cc 0B       		.uleb128 0xb
 2457 00cd 3B       		.uleb128 0x3b
 2458 00ce 05       		.uleb128 0x5
 2459 00cf 39       		.uleb128 0x39
 2460 00d0 0B       		.uleb128 0xb
 2461 00d1 49       		.uleb128 0x49
 2462 00d2 13       		.uleb128 0x13
 2463 00d3 02       		.uleb128 0x2
 2464 00d4 17       		.uleb128 0x17
 2465 00d5 B742     		.uleb128 0x2137
 2466 00d7 17       		.uleb128 0x17
 2467 00d8 00       		.byte	0
 2468 00d9 00       		.byte	0
 2469 00da 10       		.uleb128 0x10
 2470 00db 898201   		.uleb128 0x4109
 2471 00de 01       		.byte	0x1
 2472 00df 11       		.uleb128 0x11
 2473 00e0 01       		.uleb128 0x1
 2474 00e1 9542     		.uleb128 0x2115
 2475 00e3 19       		.uleb128 0x19
 2476 00e4 00       		.byte	0
 2477 00e5 00       		.byte	0
 2478 00e6 11       		.uleb128 0x11
 2479 00e7 8A8201   		.uleb128 0x410a
 2480 00ea 00       		.byte	0
 2481 00eb 02       		.uleb128 0x2
 2482 00ec 18       		.uleb128 0x18
 2483 00ed 9142     		.uleb128 0x2111
 2484 00ef 18       		.uleb128 0x18
 2485 00f0 00       		.byte	0
 2486 00f1 00       		.byte	0
 2487 00f2 12       		.uleb128 0x12
 2488 00f3 2E       		.uleb128 0x2e
 2489 00f4 01       		.byte	0x1
 2490 00f5 3F       		.uleb128 0x3f
 2491 00f6 19       		.uleb128 0x19
 2492 00f7 03       		.uleb128 0x3
 2493 00f8 0E       		.uleb128 0xe
 2494 00f9 3A       		.uleb128 0x3a
 2495 00fa 0B       		.uleb128 0xb
 2496 00fb 3B       		.uleb128 0x3b
 2497 00fc 05       		.uleb128 0x5
 2498 00fd 39       		.uleb128 0x39
 2499 00fe 0B       		.uleb128 0xb
 2500 00ff 27       		.uleb128 0x27
 2501 0100 19       		.uleb128 0x19
 2502 0101 11       		.uleb128 0x11
 2503 0102 01       		.uleb128 0x1
 2504 0103 12       		.uleb128 0x12
 2505 0104 06       		.uleb128 0x6
 2506 0105 40       		.uleb128 0x40
 2507 0106 18       		.uleb128 0x18
 2508 0107 9742     		.uleb128 0x2117
ARM GAS  /tmp/ccPjWNNF.s 			page 45


 2509 0109 19       		.uleb128 0x19
 2510 010a 01       		.uleb128 0x1
 2511 010b 13       		.uleb128 0x13
 2512 010c 00       		.byte	0
 2513 010d 00       		.byte	0
 2514 010e 13       		.uleb128 0x13
 2515 010f 34       		.uleb128 0x34
 2516 0110 00       		.byte	0
 2517 0111 03       		.uleb128 0x3
 2518 0112 0E       		.uleb128 0xe
 2519 0113 49       		.uleb128 0x49
 2520 0114 13       		.uleb128 0x13
 2521 0115 34       		.uleb128 0x34
 2522 0116 19       		.uleb128 0x19
 2523 0117 00       		.byte	0
 2524 0118 00       		.byte	0
 2525 0119 14       		.uleb128 0x14
 2526 011a 1D       		.uleb128 0x1d
 2527 011b 01       		.byte	0x1
 2528 011c 31       		.uleb128 0x31
 2529 011d 13       		.uleb128 0x13
 2530 011e 52       		.uleb128 0x52
 2531 011f 01       		.uleb128 0x1
 2532 0120 B842     		.uleb128 0x2138
 2533 0122 0B       		.uleb128 0xb
 2534 0123 11       		.uleb128 0x11
 2535 0124 01       		.uleb128 0x1
 2536 0125 12       		.uleb128 0x12
 2537 0126 06       		.uleb128 0x6
 2538 0127 58       		.uleb128 0x58
 2539 0128 0B       		.uleb128 0xb
 2540 0129 59       		.uleb128 0x59
 2541 012a 05       		.uleb128 0x5
 2542 012b 57       		.uleb128 0x57
 2543 012c 0B       		.uleb128 0xb
 2544 012d 01       		.uleb128 0x1
 2545 012e 13       		.uleb128 0x13
 2546 012f 00       		.byte	0
 2547 0130 00       		.byte	0
 2548 0131 15       		.uleb128 0x15
 2549 0132 05       		.uleb128 0x5
 2550 0133 00       		.byte	0
 2551 0134 31       		.uleb128 0x31
 2552 0135 13       		.uleb128 0x13
 2553 0136 02       		.uleb128 0x2
 2554 0137 17       		.uleb128 0x17
 2555 0138 B742     		.uleb128 0x2137
 2556 013a 17       		.uleb128 0x17
 2557 013b 00       		.byte	0
 2558 013c 00       		.byte	0
 2559 013d 16       		.uleb128 0x16
 2560 013e 898201   		.uleb128 0x4109
 2561 0141 01       		.byte	0x1
 2562 0142 11       		.uleb128 0x11
 2563 0143 01       		.uleb128 0x1
 2564 0144 31       		.uleb128 0x31
 2565 0145 13       		.uleb128 0x13
ARM GAS  /tmp/ccPjWNNF.s 			page 46


 2566 0146 01       		.uleb128 0x1
 2567 0147 13       		.uleb128 0x13
 2568 0148 00       		.byte	0
 2569 0149 00       		.byte	0
 2570 014a 17       		.uleb128 0x17
 2571 014b 898201   		.uleb128 0x4109
 2572 014e 01       		.byte	0x1
 2573 014f 11       		.uleb128 0x11
 2574 0150 01       		.uleb128 0x1
 2575 0151 9542     		.uleb128 0x2115
 2576 0153 19       		.uleb128 0x19
 2577 0154 31       		.uleb128 0x31
 2578 0155 13       		.uleb128 0x13
 2579 0156 00       		.byte	0
 2580 0157 00       		.byte	0
 2581 0158 18       		.uleb128 0x18
 2582 0159 01       		.uleb128 0x1
 2583 015a 01       		.byte	0x1
 2584 015b 49       		.uleb128 0x49
 2585 015c 13       		.uleb128 0x13
 2586 015d 01       		.uleb128 0x1
 2587 015e 13       		.uleb128 0x13
 2588 015f 00       		.byte	0
 2589 0160 00       		.byte	0
 2590 0161 19       		.uleb128 0x19
 2591 0162 21       		.uleb128 0x21
 2592 0163 00       		.byte	0
 2593 0164 49       		.uleb128 0x49
 2594 0165 13       		.uleb128 0x13
 2595 0166 2F       		.uleb128 0x2f
 2596 0167 0B       		.uleb128 0xb
 2597 0168 00       		.byte	0
 2598 0169 00       		.byte	0
 2599 016a 1A       		.uleb128 0x1a
 2600 016b 34       		.uleb128 0x34
 2601 016c 00       		.byte	0
 2602 016d 03       		.uleb128 0x3
 2603 016e 0E       		.uleb128 0xe
 2604 016f 3A       		.uleb128 0x3a
 2605 0170 0B       		.uleb128 0xb
 2606 0171 3B       		.uleb128 0x3b
 2607 0172 05       		.uleb128 0x5
 2608 0173 39       		.uleb128 0x39
 2609 0174 0B       		.uleb128 0xb
 2610 0175 49       		.uleb128 0x49
 2611 0176 13       		.uleb128 0x13
 2612 0177 02       		.uleb128 0x2
 2613 0178 17       		.uleb128 0x17
 2614 0179 B742     		.uleb128 0x2137
 2615 017b 17       		.uleb128 0x17
 2616 017c 00       		.byte	0
 2617 017d 00       		.byte	0
 2618 017e 1B       		.uleb128 0x1b
 2619 017f 0B       		.uleb128 0xb
 2620 0180 01       		.byte	0x1
 2621 0181 55       		.uleb128 0x55
 2622 0182 17       		.uleb128 0x17
ARM GAS  /tmp/ccPjWNNF.s 			page 47


 2623 0183 01       		.uleb128 0x1
 2624 0184 13       		.uleb128 0x13
 2625 0185 00       		.byte	0
 2626 0186 00       		.byte	0
 2627 0187 1C       		.uleb128 0x1c
 2628 0188 34       		.uleb128 0x34
 2629 0189 00       		.byte	0
 2630 018a 03       		.uleb128 0x3
 2631 018b 08       		.uleb128 0x8
 2632 018c 3A       		.uleb128 0x3a
 2633 018d 0B       		.uleb128 0xb
 2634 018e 3B       		.uleb128 0x3b
 2635 018f 05       		.uleb128 0x5
 2636 0190 39       		.uleb128 0x39
 2637 0191 0B       		.uleb128 0xb
 2638 0192 49       		.uleb128 0x49
 2639 0193 13       		.uleb128 0x13
 2640 0194 02       		.uleb128 0x2
 2641 0195 17       		.uleb128 0x17
 2642 0196 B742     		.uleb128 0x2137
 2643 0198 17       		.uleb128 0x17
 2644 0199 00       		.byte	0
 2645 019a 00       		.byte	0
 2646 019b 1D       		.uleb128 0x1d
 2647 019c 1D       		.uleb128 0x1d
 2648 019d 01       		.byte	0x1
 2649 019e 31       		.uleb128 0x31
 2650 019f 13       		.uleb128 0x13
 2651 01a0 52       		.uleb128 0x52
 2652 01a1 01       		.uleb128 0x1
 2653 01a2 B842     		.uleb128 0x2138
 2654 01a4 0B       		.uleb128 0xb
 2655 01a5 55       		.uleb128 0x55
 2656 01a6 17       		.uleb128 0x17
 2657 01a7 58       		.uleb128 0x58
 2658 01a8 0B       		.uleb128 0xb
 2659 01a9 59       		.uleb128 0x59
 2660 01aa 05       		.uleb128 0x5
 2661 01ab 57       		.uleb128 0x57
 2662 01ac 0B       		.uleb128 0xb
 2663 01ad 01       		.uleb128 0x1
 2664 01ae 13       		.uleb128 0x13
 2665 01af 00       		.byte	0
 2666 01b0 00       		.byte	0
 2667 01b1 1E       		.uleb128 0x1e
 2668 01b2 1D       		.uleb128 0x1d
 2669 01b3 01       		.byte	0x1
 2670 01b4 31       		.uleb128 0x31
 2671 01b5 13       		.uleb128 0x13
 2672 01b6 52       		.uleb128 0x52
 2673 01b7 01       		.uleb128 0x1
 2674 01b8 B842     		.uleb128 0x2138
 2675 01ba 0B       		.uleb128 0xb
 2676 01bb 55       		.uleb128 0x55
 2677 01bc 17       		.uleb128 0x17
 2678 01bd 58       		.uleb128 0x58
 2679 01be 0B       		.uleb128 0xb
ARM GAS  /tmp/ccPjWNNF.s 			page 48


 2680 01bf 59       		.uleb128 0x59
 2681 01c0 05       		.uleb128 0x5
 2682 01c1 57       		.uleb128 0x57
 2683 01c2 0B       		.uleb128 0xb
 2684 01c3 00       		.byte	0
 2685 01c4 00       		.byte	0
 2686 01c5 1F       		.uleb128 0x1f
 2687 01c6 05       		.uleb128 0x5
 2688 01c7 00       		.byte	0
 2689 01c8 31       		.uleb128 0x31
 2690 01c9 13       		.uleb128 0x13
 2691 01ca 00       		.byte	0
 2692 01cb 00       		.byte	0
 2693 01cc 20       		.uleb128 0x20
 2694 01cd 34       		.uleb128 0x34
 2695 01ce 00       		.byte	0
 2696 01cf 31       		.uleb128 0x31
 2697 01d0 13       		.uleb128 0x13
 2698 01d1 02       		.uleb128 0x2
 2699 01d2 17       		.uleb128 0x17
 2700 01d3 B742     		.uleb128 0x2137
 2701 01d5 17       		.uleb128 0x17
 2702 01d6 00       		.byte	0
 2703 01d7 00       		.byte	0
 2704 01d8 21       		.uleb128 0x21
 2705 01d9 1D       		.uleb128 0x1d
 2706 01da 01       		.byte	0x1
 2707 01db 31       		.uleb128 0x31
 2708 01dc 13       		.uleb128 0x13
 2709 01dd 55       		.uleb128 0x55
 2710 01de 17       		.uleb128 0x17
 2711 01df 58       		.uleb128 0x58
 2712 01e0 0B       		.uleb128 0xb
 2713 01e1 59       		.uleb128 0x59
 2714 01e2 05       		.uleb128 0x5
 2715 01e3 57       		.uleb128 0x57
 2716 01e4 0B       		.uleb128 0xb
 2717 01e5 01       		.uleb128 0x1
 2718 01e6 13       		.uleb128 0x13
 2719 01e7 00       		.byte	0
 2720 01e8 00       		.byte	0
 2721 01e9 22       		.uleb128 0x22
 2722 01ea 0B       		.uleb128 0xb
 2723 01eb 01       		.byte	0x1
 2724 01ec 55       		.uleb128 0x55
 2725 01ed 17       		.uleb128 0x17
 2726 01ee 00       		.byte	0
 2727 01ef 00       		.byte	0
 2728 01f0 23       		.uleb128 0x23
 2729 01f1 1D       		.uleb128 0x1d
 2730 01f2 01       		.byte	0x1
 2731 01f3 31       		.uleb128 0x31
 2732 01f4 13       		.uleb128 0x13
 2733 01f5 52       		.uleb128 0x52
 2734 01f6 01       		.uleb128 0x1
 2735 01f7 B842     		.uleb128 0x2138
 2736 01f9 0B       		.uleb128 0xb
ARM GAS  /tmp/ccPjWNNF.s 			page 49


 2737 01fa 11       		.uleb128 0x11
 2738 01fb 01       		.uleb128 0x1
 2739 01fc 12       		.uleb128 0x12
 2740 01fd 06       		.uleb128 0x6
 2741 01fe 58       		.uleb128 0x58
 2742 01ff 0B       		.uleb128 0xb
 2743 0200 59       		.uleb128 0x59
 2744 0201 05       		.uleb128 0x5
 2745 0202 57       		.uleb128 0x57
 2746 0203 0B       		.uleb128 0xb
 2747 0204 00       		.byte	0
 2748 0205 00       		.byte	0
 2749 0206 24       		.uleb128 0x24
 2750 0207 1D       		.uleb128 0x1d
 2751 0208 01       		.byte	0x1
 2752 0209 31       		.uleb128 0x31
 2753 020a 13       		.uleb128 0x13
 2754 020b 52       		.uleb128 0x52
 2755 020c 01       		.uleb128 0x1
 2756 020d B842     		.uleb128 0x2138
 2757 020f 0B       		.uleb128 0xb
 2758 0210 55       		.uleb128 0x55
 2759 0211 17       		.uleb128 0x17
 2760 0212 58       		.uleb128 0x58
 2761 0213 0B       		.uleb128 0xb
 2762 0214 59       		.uleb128 0x59
 2763 0215 0B       		.uleb128 0xb
 2764 0216 57       		.uleb128 0x57
 2765 0217 0B       		.uleb128 0xb
 2766 0218 01       		.uleb128 0x1
 2767 0219 13       		.uleb128 0x13
 2768 021a 00       		.byte	0
 2769 021b 00       		.byte	0
 2770 021c 25       		.uleb128 0x25
 2771 021d 1D       		.uleb128 0x1d
 2772 021e 01       		.byte	0x1
 2773 021f 31       		.uleb128 0x31
 2774 0220 13       		.uleb128 0x13
 2775 0221 55       		.uleb128 0x55
 2776 0222 17       		.uleb128 0x17
 2777 0223 58       		.uleb128 0x58
 2778 0224 0B       		.uleb128 0xb
 2779 0225 59       		.uleb128 0x59
 2780 0226 0B       		.uleb128 0xb
 2781 0227 57       		.uleb128 0x57
 2782 0228 0B       		.uleb128 0xb
 2783 0229 01       		.uleb128 0x1
 2784 022a 13       		.uleb128 0x13
 2785 022b 00       		.byte	0
 2786 022c 00       		.byte	0
 2787 022d 26       		.uleb128 0x26
 2788 022e 898201   		.uleb128 0x4109
 2789 0231 01       		.byte	0x1
 2790 0232 11       		.uleb128 0x11
 2791 0233 01       		.uleb128 0x1
 2792 0234 01       		.uleb128 0x1
 2793 0235 13       		.uleb128 0x13
ARM GAS  /tmp/ccPjWNNF.s 			page 50


 2794 0236 00       		.byte	0
 2795 0237 00       		.byte	0
 2796 0238 27       		.uleb128 0x27
 2797 0239 898201   		.uleb128 0x4109
 2798 023c 01       		.byte	0x1
 2799 023d 11       		.uleb128 0x11
 2800 023e 01       		.uleb128 0x1
 2801 023f 31       		.uleb128 0x31
 2802 0240 13       		.uleb128 0x13
 2803 0241 00       		.byte	0
 2804 0242 00       		.byte	0
 2805 0243 28       		.uleb128 0x28
 2806 0244 2E       		.uleb128 0x2e
 2807 0245 01       		.byte	0x1
 2808 0246 3F       		.uleb128 0x3f
 2809 0247 19       		.uleb128 0x19
 2810 0248 03       		.uleb128 0x3
 2811 0249 0E       		.uleb128 0xe
 2812 024a 3A       		.uleb128 0x3a
 2813 024b 0B       		.uleb128 0xb
 2814 024c 3B       		.uleb128 0x3b
 2815 024d 0B       		.uleb128 0xb
 2816 024e 39       		.uleb128 0x39
 2817 024f 0B       		.uleb128 0xb
 2818 0250 27       		.uleb128 0x27
 2819 0251 19       		.uleb128 0x19
 2820 0252 11       		.uleb128 0x11
 2821 0253 01       		.uleb128 0x1
 2822 0254 12       		.uleb128 0x12
 2823 0255 06       		.uleb128 0x6
 2824 0256 40       		.uleb128 0x40
 2825 0257 18       		.uleb128 0x18
 2826 0258 9742     		.uleb128 0x2117
 2827 025a 19       		.uleb128 0x19
 2828 025b 01       		.uleb128 0x1
 2829 025c 13       		.uleb128 0x13
 2830 025d 00       		.byte	0
 2831 025e 00       		.byte	0
 2832 025f 29       		.uleb128 0x29
 2833 0260 05       		.uleb128 0x5
 2834 0261 00       		.byte	0
 2835 0262 03       		.uleb128 0x3
 2836 0263 08       		.uleb128 0x8
 2837 0264 3A       		.uleb128 0x3a
 2838 0265 0B       		.uleb128 0xb
 2839 0266 3B       		.uleb128 0x3b
 2840 0267 0B       		.uleb128 0xb
 2841 0268 39       		.uleb128 0x39
 2842 0269 0B       		.uleb128 0xb
 2843 026a 49       		.uleb128 0x49
 2844 026b 13       		.uleb128 0x13
 2845 026c 02       		.uleb128 0x2
 2846 026d 17       		.uleb128 0x17
 2847 026e B742     		.uleb128 0x2137
 2848 0270 17       		.uleb128 0x17
 2849 0271 00       		.byte	0
 2850 0272 00       		.byte	0
ARM GAS  /tmp/ccPjWNNF.s 			page 51


 2851 0273 2A       		.uleb128 0x2a
 2852 0274 05       		.uleb128 0x5
 2853 0275 00       		.byte	0
 2854 0276 03       		.uleb128 0x3
 2855 0277 0E       		.uleb128 0xe
 2856 0278 3A       		.uleb128 0x3a
 2857 0279 0B       		.uleb128 0xb
 2858 027a 3B       		.uleb128 0x3b
 2859 027b 0B       		.uleb128 0xb
 2860 027c 39       		.uleb128 0x39
 2861 027d 0B       		.uleb128 0xb
 2862 027e 49       		.uleb128 0x49
 2863 027f 13       		.uleb128 0x13
 2864 0280 02       		.uleb128 0x2
 2865 0281 17       		.uleb128 0x17
 2866 0282 B742     		.uleb128 0x2137
 2867 0284 17       		.uleb128 0x17
 2868 0285 00       		.byte	0
 2869 0286 00       		.byte	0
 2870 0287 2B       		.uleb128 0x2b
 2871 0288 05       		.uleb128 0x5
 2872 0289 00       		.byte	0
 2873 028a 03       		.uleb128 0x3
 2874 028b 0E       		.uleb128 0xe
 2875 028c 3A       		.uleb128 0x3a
 2876 028d 0B       		.uleb128 0xb
 2877 028e 3B       		.uleb128 0x3b
 2878 028f 0B       		.uleb128 0xb
 2879 0290 39       		.uleb128 0x39
 2880 0291 0B       		.uleb128 0xb
 2881 0292 49       		.uleb128 0x49
 2882 0293 13       		.uleb128 0x13
 2883 0294 02       		.uleb128 0x2
 2884 0295 18       		.uleb128 0x18
 2885 0296 00       		.byte	0
 2886 0297 00       		.byte	0
 2887 0298 2C       		.uleb128 0x2c
 2888 0299 2E       		.uleb128 0x2e
 2889 029a 01       		.byte	0x1
 2890 029b 03       		.uleb128 0x3
 2891 029c 0E       		.uleb128 0xe
 2892 029d 3A       		.uleb128 0x3a
 2893 029e 0B       		.uleb128 0xb
 2894 029f 3B       		.uleb128 0x3b
 2895 02a0 0B       		.uleb128 0xb
 2896 02a1 39       		.uleb128 0x39
 2897 02a2 0B       		.uleb128 0xb
 2898 02a3 27       		.uleb128 0x27
 2899 02a4 19       		.uleb128 0x19
 2900 02a5 49       		.uleb128 0x49
 2901 02a6 13       		.uleb128 0x13
 2902 02a7 20       		.uleb128 0x20
 2903 02a8 0B       		.uleb128 0xb
 2904 02a9 01       		.uleb128 0x1
 2905 02aa 13       		.uleb128 0x13
 2906 02ab 00       		.byte	0
 2907 02ac 00       		.byte	0
ARM GAS  /tmp/ccPjWNNF.s 			page 52


 2908 02ad 2D       		.uleb128 0x2d
 2909 02ae 05       		.uleb128 0x5
 2910 02af 00       		.byte	0
 2911 02b0 03       		.uleb128 0x3
 2912 02b1 08       		.uleb128 0x8
 2913 02b2 3A       		.uleb128 0x3a
 2914 02b3 0B       		.uleb128 0xb
 2915 02b4 3B       		.uleb128 0x3b
 2916 02b5 0B       		.uleb128 0xb
 2917 02b6 39       		.uleb128 0x39
 2918 02b7 0B       		.uleb128 0xb
 2919 02b8 49       		.uleb128 0x49
 2920 02b9 13       		.uleb128 0x13
 2921 02ba 00       		.byte	0
 2922 02bb 00       		.byte	0
 2923 02bc 2E       		.uleb128 0x2e
 2924 02bd 34       		.uleb128 0x34
 2925 02be 00       		.byte	0
 2926 02bf 03       		.uleb128 0x3
 2927 02c0 0E       		.uleb128 0xe
 2928 02c1 3A       		.uleb128 0x3a
 2929 02c2 0B       		.uleb128 0xb
 2930 02c3 3B       		.uleb128 0x3b
 2931 02c4 0B       		.uleb128 0xb
 2932 02c5 39       		.uleb128 0x39
 2933 02c6 0B       		.uleb128 0xb
 2934 02c7 49       		.uleb128 0x49
 2935 02c8 13       		.uleb128 0x13
 2936 02c9 00       		.byte	0
 2937 02ca 00       		.byte	0
 2938 02cb 2F       		.uleb128 0x2f
 2939 02cc 05       		.uleb128 0x5
 2940 02cd 00       		.byte	0
 2941 02ce 03       		.uleb128 0x3
 2942 02cf 0E       		.uleb128 0xe
 2943 02d0 3A       		.uleb128 0x3a
 2944 02d1 0B       		.uleb128 0xb
 2945 02d2 3B       		.uleb128 0x3b
 2946 02d3 0B       		.uleb128 0xb
 2947 02d4 39       		.uleb128 0x39
 2948 02d5 0B       		.uleb128 0xb
 2949 02d6 49       		.uleb128 0x49
 2950 02d7 13       		.uleb128 0x13
 2951 02d8 00       		.byte	0
 2952 02d9 00       		.byte	0
 2953 02da 30       		.uleb128 0x30
 2954 02db 34       		.uleb128 0x34
 2955 02dc 00       		.byte	0
 2956 02dd 03       		.uleb128 0x3
 2957 02de 08       		.uleb128 0x8
 2958 02df 3A       		.uleb128 0x3a
 2959 02e0 0B       		.uleb128 0xb
 2960 02e1 3B       		.uleb128 0x3b
 2961 02e2 0B       		.uleb128 0xb
 2962 02e3 39       		.uleb128 0x39
 2963 02e4 0B       		.uleb128 0xb
 2964 02e5 49       		.uleb128 0x49
ARM GAS  /tmp/ccPjWNNF.s 			page 53


 2965 02e6 13       		.uleb128 0x13
 2966 02e7 00       		.byte	0
 2967 02e8 00       		.byte	0
 2968 02e9 31       		.uleb128 0x31
 2969 02ea 2E       		.uleb128 0x2e
 2970 02eb 01       		.byte	0x1
 2971 02ec 03       		.uleb128 0x3
 2972 02ed 0E       		.uleb128 0xe
 2973 02ee 3A       		.uleb128 0x3a
 2974 02ef 0B       		.uleb128 0xb
 2975 02f0 3B       		.uleb128 0x3b
 2976 02f1 0B       		.uleb128 0xb
 2977 02f2 39       		.uleb128 0x39
 2978 02f3 0B       		.uleb128 0xb
 2979 02f4 27       		.uleb128 0x27
 2980 02f5 19       		.uleb128 0x19
 2981 02f6 20       		.uleb128 0x20
 2982 02f7 0B       		.uleb128 0xb
 2983 02f8 01       		.uleb128 0x1
 2984 02f9 13       		.uleb128 0x13
 2985 02fa 00       		.byte	0
 2986 02fb 00       		.byte	0
 2987 02fc 32       		.uleb128 0x32
 2988 02fd 2E       		.uleb128 0x2e
 2989 02fe 01       		.byte	0x1
 2990 02ff 03       		.uleb128 0x3
 2991 0300 0E       		.uleb128 0xe
 2992 0301 3A       		.uleb128 0x3a
 2993 0302 0B       		.uleb128 0xb
 2994 0303 3B       		.uleb128 0x3b
 2995 0304 05       		.uleb128 0x5
 2996 0305 39       		.uleb128 0x39
 2997 0306 0B       		.uleb128 0xb
 2998 0307 27       		.uleb128 0x27
 2999 0308 19       		.uleb128 0x19
 3000 0309 20       		.uleb128 0x20
 3001 030a 0B       		.uleb128 0xb
 3002 030b 01       		.uleb128 0x1
 3003 030c 13       		.uleb128 0x13
 3004 030d 00       		.byte	0
 3005 030e 00       		.byte	0
 3006 030f 33       		.uleb128 0x33
 3007 0310 2E       		.uleb128 0x2e
 3008 0311 00       		.byte	0
 3009 0312 03       		.uleb128 0x3
 3010 0313 0E       		.uleb128 0xe
 3011 0314 3A       		.uleb128 0x3a
 3012 0315 0B       		.uleb128 0xb
 3013 0316 3B       		.uleb128 0x3b
 3014 0317 05       		.uleb128 0x5
 3015 0318 39       		.uleb128 0x39
 3016 0319 0B       		.uleb128 0xb
 3017 031a 27       		.uleb128 0x27
 3018 031b 19       		.uleb128 0x19
 3019 031c 20       		.uleb128 0x20
 3020 031d 0B       		.uleb128 0xb
 3021 031e 00       		.byte	0
ARM GAS  /tmp/ccPjWNNF.s 			page 54


 3022 031f 00       		.byte	0
 3023 0320 34       		.uleb128 0x34
 3024 0321 05       		.uleb128 0x5
 3025 0322 00       		.byte	0
 3026 0323 03       		.uleb128 0x3
 3027 0324 0E       		.uleb128 0xe
 3028 0325 3A       		.uleb128 0x3a
 3029 0326 0B       		.uleb128 0xb
 3030 0327 3B       		.uleb128 0x3b
 3031 0328 05       		.uleb128 0x5
 3032 0329 39       		.uleb128 0x39
 3033 032a 0B       		.uleb128 0xb
 3034 032b 49       		.uleb128 0x49
 3035 032c 13       		.uleb128 0x13
 3036 032d 00       		.byte	0
 3037 032e 00       		.byte	0
 3038 032f 35       		.uleb128 0x35
 3039 0330 2E       		.uleb128 0x2e
 3040 0331 00       		.byte	0
 3041 0332 3F       		.uleb128 0x3f
 3042 0333 19       		.uleb128 0x19
 3043 0334 3C       		.uleb128 0x3c
 3044 0335 19       		.uleb128 0x19
 3045 0336 6E       		.uleb128 0x6e
 3046 0337 0E       		.uleb128 0xe
 3047 0338 03       		.uleb128 0x3
 3048 0339 0E       		.uleb128 0xe
 3049 033a 3A       		.uleb128 0x3a
 3050 033b 0B       		.uleb128 0xb
 3051 033c 3B       		.uleb128 0x3b
 3052 033d 0B       		.uleb128 0xb
 3053 033e 39       		.uleb128 0x39
 3054 033f 0B       		.uleb128 0xb
 3055 0340 00       		.byte	0
 3056 0341 00       		.byte	0
 3057 0342 00       		.byte	0
 3058              		.section	.debug_loc,"",%progbits
 3059              	.Ldebug_loc0:
 3060              	.LVUS29:
 3061 0000 00       		.uleb128 0
 3062 0001 00       		.uleb128 .LVU311
 3063 0002 00       		.uleb128 .LVU311
 3064 0003 00       		.uleb128 0
 3065              	.LLST29:
 3066 0004 00000000 		.4byte	.LVL46
 3067 0008 11000000 		.4byte	.LVL47-1
 3068 000c 0100     		.2byte	0x1
 3069 000e 50       		.byte	0x50
 3070 000f 11000000 		.4byte	.LVL47-1
 3071 0013 12000000 		.4byte	.LFE341
 3072 0017 0400     		.2byte	0x4
 3073 0019 F3       		.byte	0xf3
 3074 001a 01       		.uleb128 0x1
 3075 001b 50       		.byte	0x50
 3076 001c 9F       		.byte	0x9f
 3077 001d 00000000 		.4byte	0
 3078 0021 00000000 		.4byte	0
ARM GAS  /tmp/ccPjWNNF.s 			page 55


 3079              	.LVUS30:
 3080 0025 00       		.uleb128 0
 3081 0026 00       		.uleb128 .LVU311
 3082 0027 00       		.uleb128 .LVU311
 3083 0028 00       		.uleb128 0
 3084              	.LLST30:
 3085 0029 00000000 		.4byte	.LVL46
 3086 002d 11000000 		.4byte	.LVL47-1
 3087 0031 0100     		.2byte	0x1
 3088 0033 51       		.byte	0x51
 3089 0034 11000000 		.4byte	.LVL47-1
 3090 0038 12000000 		.4byte	.LFE341
 3091 003c 0400     		.2byte	0x4
 3092 003e F3       		.byte	0xf3
 3093 003f 01       		.uleb128 0x1
 3094 0040 51       		.byte	0x51
 3095 0041 9F       		.byte	0x9f
 3096 0042 00000000 		.4byte	0
 3097 0046 00000000 		.4byte	0
 3098              	.LVUS31:
 3099 004a 00       		.uleb128 0
 3100 004b 00       		.uleb128 .LVU311
 3101 004c 00       		.uleb128 .LVU311
 3102 004d 00       		.uleb128 0
 3103              	.LLST31:
 3104 004e 00000000 		.4byte	.LVL46
 3105 0052 11000000 		.4byte	.LVL47-1
 3106 0056 0100     		.2byte	0x1
 3107 0058 52       		.byte	0x52
 3108 0059 11000000 		.4byte	.LVL47-1
 3109 005d 12000000 		.4byte	.LFE341
 3110 0061 0400     		.2byte	0x4
 3111 0063 F3       		.byte	0xf3
 3112 0064 01       		.uleb128 0x1
 3113 0065 52       		.byte	0x52
 3114 0066 9F       		.byte	0x9f
 3115 0067 00000000 		.4byte	0
 3116 006b 00000000 		.4byte	0
 3117              	.LVUS26:
 3118 006f 00       		.uleb128 0
 3119 0070 00       		.uleb128 .LVU300
 3120 0071 00       		.uleb128 .LVU300
 3121 0072 00       		.uleb128 0
 3122              	.LLST26:
 3123 0073 00000000 		.4byte	.LVL44
 3124 0077 11000000 		.4byte	.LVL45-1
 3125 007b 0100     		.2byte	0x1
 3126 007d 50       		.byte	0x50
 3127 007e 11000000 		.4byte	.LVL45-1
 3128 0082 12000000 		.4byte	.LFE340
 3129 0086 0400     		.2byte	0x4
 3130 0088 F3       		.byte	0xf3
 3131 0089 01       		.uleb128 0x1
 3132 008a 50       		.byte	0x50
 3133 008b 9F       		.byte	0x9f
 3134 008c 00000000 		.4byte	0
 3135 0090 00000000 		.4byte	0
ARM GAS  /tmp/ccPjWNNF.s 			page 56


 3136              	.LVUS27:
 3137 0094 00       		.uleb128 0
 3138 0095 00       		.uleb128 .LVU300
 3139 0096 00       		.uleb128 .LVU300
 3140 0097 00       		.uleb128 0
 3141              	.LLST27:
 3142 0098 00000000 		.4byte	.LVL44
 3143 009c 11000000 		.4byte	.LVL45-1
 3144 00a0 0100     		.2byte	0x1
 3145 00a2 51       		.byte	0x51
 3146 00a3 11000000 		.4byte	.LVL45-1
 3147 00a7 12000000 		.4byte	.LFE340
 3148 00ab 0400     		.2byte	0x4
 3149 00ad F3       		.byte	0xf3
 3150 00ae 01       		.uleb128 0x1
 3151 00af 51       		.byte	0x51
 3152 00b0 9F       		.byte	0x9f
 3153 00b1 00000000 		.4byte	0
 3154 00b5 00000000 		.4byte	0
 3155              	.LVUS28:
 3156 00b9 00       		.uleb128 0
 3157 00ba 00       		.uleb128 .LVU300
 3158 00bb 00       		.uleb128 .LVU300
 3159 00bc 00       		.uleb128 0
 3160              	.LLST28:
 3161 00bd 00000000 		.4byte	.LVL44
 3162 00c1 11000000 		.4byte	.LVL45-1
 3163 00c5 0100     		.2byte	0x1
 3164 00c7 52       		.byte	0x52
 3165 00c8 11000000 		.4byte	.LVL45-1
 3166 00cc 12000000 		.4byte	.LFE340
 3167 00d0 0400     		.2byte	0x4
 3168 00d2 F3       		.byte	0xf3
 3169 00d3 01       		.uleb128 0x1
 3170 00d4 52       		.byte	0x52
 3171 00d5 9F       		.byte	0x9f
 3172 00d6 00000000 		.4byte	0
 3173 00da 00000000 		.4byte	0
 3174              	.LVUS22:
 3175 00de 00       		.uleb128 0
 3176 00df 00       		.uleb128 .LVU256
 3177 00e0 00       		.uleb128 .LVU256
 3178 00e1 00       		.uleb128 .LVU257
 3179 00e2 00       		.uleb128 .LVU257
 3180 00e3 00       		.uleb128 .LVU264
 3181 00e4 00       		.uleb128 .LVU264
 3182 00e5 00       		.uleb128 .LVU287
 3183 00e6 00       		.uleb128 .LVU287
 3184 00e7 00       		.uleb128 0
 3185              	.LLST22:
 3186 00e8 00000000 		.4byte	.LVL34
 3187 00ec 2E000000 		.4byte	.LVL37
 3188 00f0 0100     		.2byte	0x1
 3189 00f2 50       		.byte	0x50
 3190 00f3 2E000000 		.4byte	.LVL37
 3191 00f7 31000000 		.4byte	.LVL38-1
 3192 00fb 0300     		.2byte	0x3
ARM GAS  /tmp/ccPjWNNF.s 			page 57


 3193 00fd 70       		.byte	0x70
 3194 00fe 50       		.sleb128 -48
 3195 00ff 9F       		.byte	0x9f
 3196 0100 31000000 		.4byte	.LVL38-1
 3197 0104 3A000000 		.4byte	.LVL40
 3198 0108 0400     		.2byte	0x4
 3199 010a F3       		.byte	0xf3
 3200 010b 01       		.uleb128 0x1
 3201 010c 50       		.byte	0x50
 3202 010d 9F       		.byte	0x9f
 3203 010e 3A000000 		.4byte	.LVL40
 3204 0112 78000000 		.4byte	.LVL42
 3205 0116 0100     		.2byte	0x1
 3206 0118 50       		.byte	0x50
 3207 0119 78000000 		.4byte	.LVL42
 3208 011d 7E000000 		.4byte	.LFE339
 3209 0121 0400     		.2byte	0x4
 3210 0123 F3       		.byte	0xf3
 3211 0124 01       		.uleb128 0x1
 3212 0125 50       		.byte	0x50
 3213 0126 9F       		.byte	0x9f
 3214 0127 00000000 		.4byte	0
 3215 012b 00000000 		.4byte	0
 3216              	.LVUS23:
 3217 012f 00       		.uleb128 0
 3218 0130 00       		.uleb128 .LVU243
 3219 0131 00       		.uleb128 .LVU243
 3220 0132 00       		.uleb128 .LVU283
 3221 0133 00       		.uleb128 .LVU283
 3222 0134 00       		.uleb128 .LVU289
 3223 0135 00       		.uleb128 .LVU289
 3224 0136 00       		.uleb128 0
 3225              	.LLST23:
 3226 0137 00000000 		.4byte	.LVL34
 3227 013b 0E000000 		.4byte	.LVL36
 3228 013f 0100     		.2byte	0x1
 3229 0141 51       		.byte	0x51
 3230 0142 0E000000 		.4byte	.LVL36
 3231 0146 6C000000 		.4byte	.LVL41
 3232 014a 0100     		.2byte	0x1
 3233 014c 54       		.byte	0x54
 3234 014d 6C000000 		.4byte	.LVL41
 3235 0151 7D000000 		.4byte	.LVL43-1
 3236 0155 0100     		.2byte	0x1
 3237 0157 51       		.byte	0x51
 3238 0158 7D000000 		.4byte	.LVL43-1
 3239 015c 7E000000 		.4byte	.LFE339
 3240 0160 0400     		.2byte	0x4
 3241 0162 F3       		.byte	0xf3
 3242 0163 01       		.uleb128 0x1
 3243 0164 51       		.byte	0x51
 3244 0165 9F       		.byte	0x9f
 3245 0166 00000000 		.4byte	0
 3246 016a 00000000 		.4byte	0
 3247              	.LVUS24:
 3248 016e 00       		.uleb128 .LVU236
 3249 016f 03       		.uleb128 .LVU239
ARM GAS  /tmp/ccPjWNNF.s 			page 58


 3250              	.LLST24:
 3251 0170 0A000000 		.4byte	.LVL35
 3252 0174 0A000000 		.4byte	.LVL35
 3253 0178 0300     		.2byte	0x3
 3254 017a 71       		.byte	0x71
 3255 017b 18       		.sleb128 24
 3256 017c 9F       		.byte	0x9f
 3257 017d 00000000 		.4byte	0
 3258 0181 00000000 		.4byte	0
 3259              	.LVUS25:
 3260 0185 01       		.uleb128 .LVU258
 3261 0186 00       		.uleb128 .LVU262
 3262              	.LLST25:
 3263 0187 32000000 		.4byte	.LVL38
 3264 018b 38000000 		.4byte	.LVL39
 3265 018f 0300     		.2byte	0x3
 3266 0191 74       		.byte	0x74
 3267 0192 18       		.sleb128 24
 3268 0193 9F       		.byte	0x9f
 3269 0194 00000000 		.4byte	0
 3270 0198 00000000 		.4byte	0
 3271              	.LVUS6:
 3272 019c 00       		.uleb128 0
 3273 019d 00       		.uleb128 .LVU113
 3274 019e 00       		.uleb128 .LVU113
 3275 019f 00       		.uleb128 .LVU137
 3276 01a0 00       		.uleb128 .LVU137
 3277 01a1 00       		.uleb128 .LVU140
 3278 01a2 00       		.uleb128 .LVU140
 3279 01a3 00       		.uleb128 .LVU216
 3280 01a4 00       		.uleb128 .LVU216
 3281 01a5 00       		.uleb128 .LVU222
 3282 01a6 00       		.uleb128 .LVU222
 3283 01a7 00       		.uleb128 0
 3284              	.LLST6:
 3285 01a8 00000000 		.4byte	.LVL11
 3286 01ac 4C000000 		.4byte	.LVL19
 3287 01b0 0100     		.2byte	0x1
 3288 01b2 50       		.byte	0x50
 3289 01b3 4C000000 		.4byte	.LVL19
 3290 01b7 68000000 		.4byte	.LVL22
 3291 01bb 0100     		.2byte	0x1
 3292 01bd 55       		.byte	0x55
 3293 01be 68000000 		.4byte	.LVL22
 3294 01c2 76000000 		.4byte	.LVL23
 3295 01c6 0100     		.2byte	0x1
 3296 01c8 50       		.byte	0x50
 3297 01c9 76000000 		.4byte	.LVL23
 3298 01cd E4000000 		.4byte	.LVL31
 3299 01d1 0100     		.2byte	0x1
 3300 01d3 55       		.byte	0x55
 3301 01d4 E4000000 		.4byte	.LVL31
 3302 01d8 E8000000 		.4byte	.LVL32
 3303 01dc 0100     		.2byte	0x1
 3304 01de 50       		.byte	0x50
 3305 01df E8000000 		.4byte	.LVL32
 3306 01e3 F2000000 		.4byte	.LFE338
ARM GAS  /tmp/ccPjWNNF.s 			page 59


 3307 01e7 0100     		.2byte	0x1
 3308 01e9 55       		.byte	0x55
 3309 01ea 00000000 		.4byte	0
 3310 01ee 00000000 		.4byte	0
 3311              	.LVUS7:
 3312 01f2 00       		.uleb128 0
 3313 01f3 00       		.uleb128 .LVU85
 3314 01f4 00       		.uleb128 .LVU85
 3315 01f5 00       		.uleb128 0
 3316              	.LLST7:
 3317 01f6 00000000 		.4byte	.LVL11
 3318 01fa 24000000 		.4byte	.LVL13
 3319 01fe 0100     		.2byte	0x1
 3320 0200 51       		.byte	0x51
 3321 0201 24000000 		.4byte	.LVL13
 3322 0205 F2000000 		.4byte	.LFE338
 3323 0209 0100     		.2byte	0x1
 3324 020b 57       		.byte	0x57
 3325 020c 00000000 		.4byte	0
 3326 0210 00000000 		.4byte	0
 3327              	.LVUS8:
 3328 0214 00       		.uleb128 0
 3329 0215 00       		.uleb128 .LVU112
 3330 0216 00       		.uleb128 .LVU112
 3331 0217 00       		.uleb128 .LVU113
 3332 0218 00       		.uleb128 .LVU113
 3333 0219 00       		.uleb128 .LVU137
 3334 021a 00       		.uleb128 .LVU137
 3335 021b 00       		.uleb128 .LVU140
 3336 021c 00       		.uleb128 .LVU140
 3337 021d 00       		.uleb128 .LVU216
 3338 021e 00       		.uleb128 .LVU216
 3339 021f 00       		.uleb128 .LVU223
 3340 0220 00       		.uleb128 .LVU223
 3341 0221 00       		.uleb128 0
 3342              	.LLST8:
 3343 0222 00000000 		.4byte	.LVL11
 3344 0226 48000000 		.4byte	.LVL18
 3345 022a 0100     		.2byte	0x1
 3346 022c 52       		.byte	0x52
 3347 022d 48000000 		.4byte	.LVL18
 3348 0231 4C000000 		.4byte	.LVL19
 3349 0235 0100     		.2byte	0x1
 3350 0237 54       		.byte	0x54
 3351 0238 4C000000 		.4byte	.LVL19
 3352 023c 68000000 		.4byte	.LVL22
 3353 0240 0400     		.2byte	0x4
 3354 0242 F3       		.byte	0xf3
 3355 0243 01       		.uleb128 0x1
 3356 0244 52       		.byte	0x52
 3357 0245 9F       		.byte	0x9f
 3358 0246 68000000 		.4byte	.LVL22
 3359 024a 76000000 		.4byte	.LVL23
 3360 024e 0100     		.2byte	0x1
 3361 0250 52       		.byte	0x52
 3362 0251 76000000 		.4byte	.LVL23
 3363 0255 E4000000 		.4byte	.LVL31
ARM GAS  /tmp/ccPjWNNF.s 			page 60


 3364 0259 0100     		.2byte	0x1
 3365 025b 54       		.byte	0x54
 3366 025c E4000000 		.4byte	.LVL31
 3367 0260 ED000000 		.4byte	.LVL33-1
 3368 0264 0100     		.2byte	0x1
 3369 0266 52       		.byte	0x52
 3370 0267 ED000000 		.4byte	.LVL33-1
 3371 026b F2000000 		.4byte	.LFE338
 3372 026f 0100     		.2byte	0x1
 3373 0271 54       		.byte	0x54
 3374 0272 00000000 		.4byte	0
 3375 0276 00000000 		.4byte	0
 3376              	.LVUS9:
 3377 027a 00       		.uleb128 .LVU95
 3378 027b 00       		.uleb128 .LVU137
 3379 027c 03       		.uleb128 .LVU201
 3380 027d 00       		.uleb128 .LVU223
 3381 027e 00       		.uleb128 .LVU223
 3382 027f 00       		.uleb128 0
 3383              	.LLST9:
 3384 0280 40000000 		.4byte	.LVL16
 3385 0284 68000000 		.4byte	.LVL22
 3386 0288 0100     		.2byte	0x1
 3387 028a 51       		.byte	0x51
 3388 028b C0000000 		.4byte	.LVL29
 3389 028f ED000000 		.4byte	.LVL33-1
 3390 0293 0100     		.2byte	0x1
 3391 0295 51       		.byte	0x51
 3392 0296 ED000000 		.4byte	.LVL33-1
 3393 029a F2000000 		.4byte	.LFE338
 3394 029e 0200     		.2byte	0x2
 3395 02a0 91       		.byte	0x91
 3396 02a1 5C       		.sleb128 -36
 3397 02a2 00000000 		.4byte	0
 3398 02a6 00000000 		.4byte	0
 3399              	.LVUS21:
 3400 02aa 03       		.uleb128 .LVU213
 3401 02ab 00       		.uleb128 .LVU216
 3402              	.LLST21:
 3403 02ac DC000000 		.4byte	.LVL30
 3404 02b0 E4000000 		.4byte	.LVL31
 3405 02b4 0100     		.2byte	0x1
 3406 02b6 50       		.byte	0x50
 3407 02b7 00000000 		.4byte	0
 3408 02bb 00000000 		.4byte	0
 3409              	.LVUS10:
 3410 02bf 07       		.uleb128 .LVU67
 3411 02c0 00       		.uleb128 .LVU74
 3412              	.LLST10:
 3413 02c1 00000000 		.4byte	.LVL11
 3414 02c5 12000000 		.4byte	.LVL12
 3415 02c9 0300     		.2byte	0x3
 3416 02cb 08       		.byte	0x8
 3417 02cc 30       		.byte	0x30
 3418 02cd 9F       		.byte	0x9f
 3419 02ce 00000000 		.4byte	0
 3420 02d2 00000000 		.4byte	0
ARM GAS  /tmp/ccPjWNNF.s 			page 61


 3421              	.LVUS11:
 3422 02d6 05       		.uleb128 .LVU79
 3423 02d7 00       		.uleb128 .LVU95
 3424 02d8 00       		.uleb128 .LVU137
 3425 02d9 00       		.uleb128 .LVU140
 3426              	.LLST11:
 3427 02da 12000000 		.4byte	.LVL12
 3428 02de 40000000 		.4byte	.LVL16
 3429 02e2 0100     		.2byte	0x1
 3430 02e4 50       		.byte	0x50
 3431 02e5 68000000 		.4byte	.LVL22
 3432 02e9 76000000 		.4byte	.LVL23
 3433 02ed 0100     		.2byte	0x1
 3434 02ef 50       		.byte	0x50
 3435 02f0 00000000 		.4byte	0
 3436 02f4 00000000 		.4byte	0
 3437              	.LVUS12:
 3438 02f8 04       		.uleb128 .LVU78
 3439 02f9 00       		.uleb128 .LVU95
 3440 02fa 00       		.uleb128 .LVU137
 3441 02fb 00       		.uleb128 .LVU140
 3442              	.LLST12:
 3443 02fc 12000000 		.4byte	.LVL12
 3444 0300 40000000 		.4byte	.LVL16
 3445 0304 0100     		.2byte	0x1
 3446 0306 52       		.byte	0x52
 3447 0307 68000000 		.4byte	.LVL22
 3448 030b 76000000 		.4byte	.LVL23
 3449 030f 0100     		.2byte	0x1
 3450 0311 52       		.byte	0x52
 3451 0312 00000000 		.4byte	0
 3452 0316 00000000 		.4byte	0
 3453              	.LVUS13:
 3454 031a 04       		.uleb128 .LVU78
 3455 031b 00       		.uleb128 .LVU85
 3456 031c 00       		.uleb128 .LVU85
 3457 031d 00       		.uleb128 .LVU95
 3458 031e 00       		.uleb128 .LVU137
 3459 031f 00       		.uleb128 .LVU140
 3460              	.LLST13:
 3461 0320 12000000 		.4byte	.LVL12
 3462 0324 24000000 		.4byte	.LVL13
 3463 0328 0100     		.2byte	0x1
 3464 032a 51       		.byte	0x51
 3465 032b 24000000 		.4byte	.LVL13
 3466 032f 40000000 		.4byte	.LVL16
 3467 0333 0100     		.2byte	0x1
 3468 0335 57       		.byte	0x57
 3469 0336 68000000 		.4byte	.LVL22
 3470 033a 76000000 		.4byte	.LVL23
 3471 033e 0100     		.2byte	0x1
 3472 0340 57       		.byte	0x57
 3473 0341 00000000 		.4byte	0
 3474 0345 00000000 		.4byte	0
 3475              	.LVUS14:
 3476 0349 00       		.uleb128 .LVU86
 3477 034a 00       		.uleb128 .LVU95
ARM GAS  /tmp/ccPjWNNF.s 			page 62


 3478 034b 00       		.uleb128 .LVU137
 3479 034c 00       		.uleb128 .LVU140
 3480              	.LLST14:
 3481 034d 28000000 		.4byte	.LVL14
 3482 0351 40000000 		.4byte	.LVL16
 3483 0355 0100     		.2byte	0x1
 3484 0357 5C       		.byte	0x5c
 3485 0358 68000000 		.4byte	.LVL22
 3486 035c 76000000 		.4byte	.LVL23
 3487 0360 0100     		.2byte	0x1
 3488 0362 5C       		.byte	0x5c
 3489 0363 00000000 		.4byte	0
 3490 0367 00000000 		.4byte	0
 3491              	.LVUS15:
 3492 036b 01       		.uleb128 .LVU87
 3493 036c 00       		.uleb128 .LVU95
 3494 036d 00       		.uleb128 .LVU137
 3495 036e 00       		.uleb128 .LVU140
 3496              	.LLST15:
 3497 036f 28000000 		.4byte	.LVL14
 3498 0373 40000000 		.4byte	.LVL16
 3499 0377 0100     		.2byte	0x1
 3500 0379 51       		.byte	0x51
 3501 037a 68000000 		.4byte	.LVL22
 3502 037e 76000000 		.4byte	.LVL23
 3503 0382 0100     		.2byte	0x1
 3504 0384 51       		.byte	0x51
 3505 0385 00000000 		.4byte	0
 3506 0389 00000000 		.4byte	0
 3507              	.LVUS16:
 3508 038d 06       		.uleb128 .LVU101
 3509 038e 00       		.uleb128 .LVU105
 3510              	.LLST16:
 3511 038f 40000000 		.4byte	.LVL16
 3512 0393 42000000 		.4byte	.LVL17
 3513 0397 0300     		.2byte	0x3
 3514 0399 71       		.byte	0x71
 3515 039a 18       		.sleb128 24
 3516 039b 9F       		.byte	0x9f
 3517 039c 00000000 		.4byte	0
 3518 03a0 00000000 		.4byte	0
 3519              	.LVUS17:
 3520 03a4 0C       		.uleb128 .LVU132
 3521 03a5 00       		.uleb128 .LVU134
 3522              	.LLST17:
 3523 03a6 5A000000 		.4byte	.LVL20
 3524 03aa 60000000 		.4byte	.LVL21
 3525 03ae 0200     		.2byte	0x2
 3526 03b0 30       		.byte	0x30
 3527 03b1 9F       		.byte	0x9f
 3528 03b2 00000000 		.4byte	0
 3529 03b6 00000000 		.4byte	0
 3530              	.LVUS18:
 3531 03ba 00       		.uleb128 .LVU140
 3532 03bb 00       		.uleb128 .LVU147
 3533 03bc 00       		.uleb128 .LVU176
 3534 03bd 03       		.uleb128 .LVU201
ARM GAS  /tmp/ccPjWNNF.s 			page 63


 3535              	.LLST18:
 3536 03be 76000000 		.4byte	.LVL23
 3537 03c2 85000000 		.4byte	.LVL25-1
 3538 03c6 0100     		.2byte	0x1
 3539 03c8 51       		.byte	0x51
 3540 03c9 94000000 		.4byte	.LVL28
 3541 03cd C0000000 		.4byte	.LVL29
 3542 03d1 0100     		.2byte	0x1
 3543 03d3 51       		.byte	0x51
 3544 03d4 00000000 		.4byte	0
 3545 03d8 00000000 		.4byte	0
 3546              	.LVUS19:
 3547 03dc 00       		.uleb128 .LVU140
 3548 03dd 00       		.uleb128 .LVU141
 3549 03de 0B       		.uleb128 .LVU173
 3550 03df 00       		.uleb128 .LVU216
 3551              	.LLST19:
 3552 03e0 76000000 		.4byte	.LVL23
 3553 03e4 7A000000 		.4byte	.LVL24
 3554 03e8 0200     		.2byte	0x2
 3555 03ea 30       		.byte	0x30
 3556 03eb 9F       		.byte	0x9f
 3557 03ec 92000000 		.4byte	.LVL27
 3558 03f0 E4000000 		.4byte	.LVL31
 3559 03f4 0200     		.2byte	0x2
 3560 03f6 30       		.byte	0x30
 3561 03f7 9F       		.byte	0x9f
 3562 03f8 00000000 		.4byte	0
 3563 03fc 00000000 		.4byte	0
 3564              	.LVUS20:
 3565 0400 05       		.uleb128 .LVU152
 3566 0401 00       		.uleb128 .LVU154
 3567              	.LLST20:
 3568 0402 86000000 		.4byte	.LVL25
 3569 0406 8C000000 		.4byte	.LVL26
 3570 040a 0300     		.2byte	0x3
 3571 040c 08       		.byte	0x8
 3572 040d 30       		.byte	0x30
 3573 040e 9F       		.byte	0x9f
 3574 040f 00000000 		.4byte	0
 3575 0413 00000000 		.4byte	0
 3576              	.LVUS0:
 3577 0417 00       		.uleb128 0
 3578 0418 00       		.uleb128 .LVU8
 3579 0419 00       		.uleb128 .LVU8
 3580 041a 00       		.uleb128 0
 3581              	.LLST0:
 3582 041b 00000000 		.4byte	.LVL0
 3583 041f 0C000000 		.4byte	.LVL1
 3584 0423 0100     		.2byte	0x1
 3585 0425 50       		.byte	0x50
 3586 0426 0C000000 		.4byte	.LVL1
 3587 042a 7C000000 		.4byte	.LFE337
 3588 042e 0100     		.2byte	0x1
 3589 0430 56       		.byte	0x56
 3590 0431 00000000 		.4byte	0
 3591 0435 00000000 		.4byte	0
ARM GAS  /tmp/ccPjWNNF.s 			page 64


 3592              	.LVUS1:
 3593 0439 00       		.uleb128 0
 3594 043a 00       		.uleb128 .LVU9
 3595 043b 00       		.uleb128 .LVU9
 3596 043c 00       		.uleb128 .LVU20
 3597 043d 00       		.uleb128 .LVU20
 3598 043e 00       		.uleb128 .LVU38
 3599 043f 00       		.uleb128 .LVU38
 3600 0440 00       		.uleb128 0
 3601              	.LLST1:
 3602 0441 00000000 		.4byte	.LVL0
 3603 0445 0E000000 		.4byte	.LVL2
 3604 0449 0100     		.2byte	0x1
 3605 044b 51       		.byte	0x51
 3606 044c 0E000000 		.4byte	.LVL2
 3607 0450 3A000000 		.4byte	.LVL5
 3608 0454 0100     		.2byte	0x1
 3609 0456 59       		.byte	0x59
 3610 0457 3A000000 		.4byte	.LVL5
 3611 045b 56000000 		.4byte	.LVL7
 3612 045f 0200     		.2byte	0x2
 3613 0461 76       		.byte	0x76
 3614 0462 00       		.sleb128 0
 3615 0463 56000000 		.4byte	.LVL7
 3616 0467 7C000000 		.4byte	.LFE337
 3617 046b 0400     		.2byte	0x4
 3618 046d F3       		.byte	0xf3
 3619 046e 01       		.uleb128 0x1
 3620 046f 51       		.byte	0x51
 3621 0470 9F       		.byte	0x9f
 3622 0471 00000000 		.4byte	0
 3623 0475 00000000 		.4byte	0
 3624              	.LVUS2:
 3625 0479 00       		.uleb128 0
 3626 047a 00       		.uleb128 .LVU11
 3627 047b 00       		.uleb128 .LVU11
 3628 047c 00       		.uleb128 .LVU38
 3629              	.LLST2:
 3630 047d 00000000 		.4byte	.LVL0
 3631 0481 19000000 		.4byte	.LVL3-1
 3632 0485 0100     		.2byte	0x1
 3633 0487 52       		.byte	0x52
 3634 0488 19000000 		.4byte	.LVL3-1
 3635 048c 56000000 		.4byte	.LVL7
 3636 0490 0100     		.2byte	0x1
 3637 0492 55       		.byte	0x55
 3638 0493 00000000 		.4byte	0
 3639 0497 00000000 		.4byte	0
 3640              	.LVUS3:
 3641 049b 00       		.uleb128 0
 3642 049c 00       		.uleb128 .LVU11
 3643 049d 00       		.uleb128 .LVU11
 3644 049e 00       		.uleb128 .LVU44
 3645 049f 00       		.uleb128 .LVU44
 3646 04a0 01       		.uleb128 .LVU55
 3647              	.LLST3:
 3648 04a1 00000000 		.4byte	.LVL0
ARM GAS  /tmp/ccPjWNNF.s 			page 65


 3649 04a5 19000000 		.4byte	.LVL3-1
 3650 04a9 0100     		.2byte	0x1
 3651 04ab 53       		.byte	0x53
 3652 04ac 19000000 		.4byte	.LVL3-1
 3653 04b0 64000000 		.4byte	.LVL9
 3654 04b4 0100     		.2byte	0x1
 3655 04b6 57       		.byte	0x57
 3656 04b7 64000000 		.4byte	.LVL9
 3657 04bb 76000000 		.4byte	.LVL10
 3658 04bf 0300     		.2byte	0x3
 3659 04c1 77       		.byte	0x77
 3660 04c2 01       		.sleb128 1
 3661 04c3 9F       		.byte	0x9f
 3662 04c4 00000000 		.4byte	0
 3663 04c8 00000000 		.4byte	0
 3664              	.LVUS4:
 3665 04cc 00       		.uleb128 0
 3666 04cd 00       		.uleb128 .LVU38
 3667 04ce 00       		.uleb128 .LVU38
 3668 04cf 00       		.uleb128 0
 3669              	.LLST4:
 3670 04d0 00000000 		.4byte	.LVL0
 3671 04d4 56000000 		.4byte	.LVL7
 3672 04d8 0200     		.2byte	0x2
 3673 04da 91       		.byte	0x91
 3674 04db 04       		.sleb128 4
 3675 04dc 56000000 		.4byte	.LVL7
 3676 04e0 7C000000 		.4byte	.LFE337
 3677 04e4 0100     		.2byte	0x1
 3678 04e6 54       		.byte	0x54
 3679 04e7 00000000 		.4byte	0
 3680 04eb 00000000 		.4byte	0
 3681              	.LVUS5:
 3682 04ef 03       		.uleb128 .LVU41
 3683 04f0 00       		.uleb128 .LVU54
 3684 04f1 00       		.uleb128 .LVU54
 3685 04f2 00       		.uleb128 0
 3686              	.LLST5:
 3687 04f3 56000000 		.4byte	.LVL7
 3688 04f7 76000000 		.4byte	.LVL10
 3689 04fb 0100     		.2byte	0x1
 3690 04fd 54       		.byte	0x54
 3691 04fe 76000000 		.4byte	.LVL10
 3692 0502 7C000000 		.4byte	.LFE337
 3693 0506 0200     		.2byte	0x2
 3694 0508 76       		.byte	0x76
 3695 0509 1C       		.sleb128 28
 3696 050a 00000000 		.4byte	0
 3697 050e 00000000 		.4byte	0
 3698              		.section	.debug_aranges,"",%progbits
 3699 0000 3C000000 		.4byte	0x3c
 3700 0004 0200     		.2byte	0x2
 3701 0006 00000000 		.4byte	.Ldebug_info0
 3702 000a 04       		.byte	0x4
 3703 000b 00       		.byte	0
 3704 000c 0000     		.2byte	0
 3705 000e 0000     		.2byte	0
ARM GAS  /tmp/ccPjWNNF.s 			page 66


 3706 0010 00000000 		.4byte	.LFB337
 3707 0014 7C000000 		.4byte	.LFE337-.LFB337
 3708 0018 00000000 		.4byte	.LFB338
 3709 001c F2000000 		.4byte	.LFE338-.LFB338
 3710 0020 00000000 		.4byte	.LFB339
 3711 0024 7E000000 		.4byte	.LFE339-.LFB339
 3712 0028 00000000 		.4byte	.LFB340
 3713 002c 12000000 		.4byte	.LFE340-.LFB340
 3714 0030 00000000 		.4byte	.LFB341
 3715 0034 12000000 		.4byte	.LFE341-.LFB341
 3716 0038 00000000 		.4byte	0
 3717 003c 00000000 		.4byte	0
 3718              		.section	.debug_ranges,"",%progbits
 3719              	.Ldebug_ranges0:
 3720 0000 50000000 		.4byte	.LBB45
 3721 0004 56000000 		.4byte	.LBE45
 3722 0008 56000000 		.4byte	.LBB46
 3723 000c 62000000 		.4byte	.LBE46
 3724 0010 64000000 		.4byte	.LBB47
 3725 0014 76000000 		.4byte	.LBE47
 3726 0018 00000000 		.4byte	0
 3727 001c 00000000 		.4byte	0
 3728 0020 00000000 		.4byte	.LBB78
 3729 0024 00000000 		.4byte	.LBE78
 3730 0028 00000000 		.4byte	.LBB89
 3731 002c 00000000 		.4byte	.LBE89
 3732 0030 00000000 		.4byte	.LBB90
 3733 0034 00000000 		.4byte	.LBE90
 3734 0038 04000000 		.4byte	.LBB91
 3735 003c 06000000 		.4byte	.LBE91
 3736 0040 0E000000 		.4byte	.LBB92
 3737 0044 12000000 		.4byte	.LBE92
 3738 0048 00000000 		.4byte	0
 3739 004c 00000000 		.4byte	0
 3740 0050 50000000 		.4byte	.LBB97
 3741 0054 52000000 		.4byte	.LBE97
 3742 0058 56000000 		.4byte	.LBB100
 3743 005c 5A000000 		.4byte	.LBE100
 3744 0060 00000000 		.4byte	0
 3745 0064 00000000 		.4byte	0
 3746 0068 5A000000 		.4byte	.LBB101
 3747 006c 5A000000 		.4byte	.LBE101
 3748 0070 5A000000 		.4byte	.LBB108
 3749 0074 60000000 		.4byte	.LBE108
 3750 0078 00000000 		.4byte	0
 3751 007c 00000000 		.4byte	0
 3752 0080 68000000 		.4byte	.LBB109
 3753 0084 86000000 		.4byte	.LBE109
 3754 0088 86000000 		.4byte	.LBB145
 3755 008c 92000000 		.4byte	.LBE145
 3756 0090 92000000 		.4byte	.LBB146
 3757 0094 C0000000 		.4byte	.LBE146
 3758 0098 00000000 		.4byte	0
 3759 009c 00000000 		.4byte	0
 3760 00a0 6C000000 		.4byte	.LBB111
 3761 00a4 70000000 		.4byte	.LBE111
 3762 00a8 76000000 		.4byte	.LBB126
ARM GAS  /tmp/ccPjWNNF.s 			page 67


 3763 00ac 7A000000 		.4byte	.LBE126
 3764 00b0 92000000 		.4byte	.LBB135
 3765 00b4 92000000 		.4byte	.LBE135
 3766 00b8 92000000 		.4byte	.LBB136
 3767 00bc 92000000 		.4byte	.LBE136
 3768 00c0 00000000 		.4byte	0
 3769 00c4 00000000 		.4byte	0
 3770 00c8 6C000000 		.4byte	.LBB114
 3771 00cc 70000000 		.4byte	.LBE114
 3772 00d0 76000000 		.4byte	.LBB118
 3773 00d4 7A000000 		.4byte	.LBE118
 3774 00d8 92000000 		.4byte	.LBB119
 3775 00dc 92000000 		.4byte	.LBE119
 3776 00e0 00000000 		.4byte	0
 3777 00e4 00000000 		.4byte	0
 3778 00e8 86000000 		.4byte	.LBB127
 3779 00ec 86000000 		.4byte	.LBE127
 3780 00f0 86000000 		.4byte	.LBB134
 3781 00f4 8C000000 		.4byte	.LBE134
 3782 00f8 00000000 		.4byte	0
 3783 00fc 00000000 		.4byte	0
 3784 0100 86000000 		.4byte	.LBB129
 3785 0104 86000000 		.4byte	.LBE129
 3786 0108 86000000 		.4byte	.LBB132
 3787 010c 8C000000 		.4byte	.LBE132
 3788 0110 00000000 		.4byte	0
 3789 0114 00000000 		.4byte	0
 3790 0118 94000000 		.4byte	.LBB137
 3791 011c 98000000 		.4byte	.LBE137
 3792 0120 9C000000 		.4byte	.LBB141
 3793 0124 9E000000 		.4byte	.LBE141
 3794 0128 AA000000 		.4byte	.LBB142
 3795 012c AE000000 		.4byte	.LBE142
 3796 0130 00000000 		.4byte	0
 3797 0134 00000000 		.4byte	0
 3798 0138 C0000000 		.4byte	.LBB147
 3799 013c C8000000 		.4byte	.LBE147
 3800 0140 CC000000 		.4byte	.LBB148
 3801 0144 D0000000 		.4byte	.LBE148
 3802 0148 D2000000 		.4byte	.LBB149
 3803 014c DA000000 		.4byte	.LBE149
 3804 0150 DC000000 		.4byte	.LBB150
 3805 0154 E4000000 		.4byte	.LBE150
 3806 0158 00000000 		.4byte	0
 3807 015c 00000000 		.4byte	0
 3808 0160 00000000 		.4byte	.LFB337
 3809 0164 7C000000 		.4byte	.LFE337
 3810 0168 00000000 		.4byte	.LFB338
 3811 016c F2000000 		.4byte	.LFE338
 3812 0170 00000000 		.4byte	.LFB339
 3813 0174 7E000000 		.4byte	.LFE339
 3814 0178 00000000 		.4byte	.LFB340
 3815 017c 12000000 		.4byte	.LFE340
 3816 0180 00000000 		.4byte	.LFB341
 3817 0184 12000000 		.4byte	.LFE341
 3818 0188 00000000 		.4byte	0
 3819 018c 00000000 		.4byte	0
ARM GAS  /tmp/ccPjWNNF.s 			page 68


 3820              		.section	.debug_line,"",%progbits
 3821              	.Ldebug_line0:
 3822 0000 DE070000 		.section	.debug_str,"MS",%progbits,1
 3822      03004C02 
 3822      00000201 
 3822      FB0E0D00 
 3822      01010101 
 3823              	.LASF56:
 3824 0000 6F635F77 		.ascii	"oc_writef_t\000"
 3824      72697465 
 3824      665F7400 
 3825              	.LASF43:
 3826 000c 64707472 		.ascii	"dptr\000"
 3826      00
 3827              	.LASF52:
 3828 0011 6C72755F 		.ascii	"lru_sem\000"
 3828      73656D00 
 3829              	.LASF21:
 3830 0019 6E657874 		.ascii	"next\000"
 3830      00
 3831              	.LASF7:
 3832 001e 73686F72 		.ascii	"short int\000"
 3832      7420696E 
 3832      7400
 3833              	.LASF4:
 3834 0028 73697A65 		.ascii	"size_t\000"
 3834      5F7400
 3835              	.LASF68:
 3836 002f 63685365 		.ascii	"chSemGetCounterI\000"
 3836      6D476574 
 3836      436F756E 
 3836      74657249 
 3836      00
 3837              	.LASF79:
 3838 0040 63685365 		.ascii	"chSemObjectInit\000"
 3838      6D4F626A 
 3838      65637449 
 3838      6E697400 
 3839              	.LASF38:
 3840 0050 63685F6F 		.ascii	"ch_oc_object\000"
 3840      635F6F62 
 3840      6A656374 
 3840      00
 3841              	.LASF42:
 3842 005d 6F626A5F 		.ascii	"obj_flags\000"
 3842      666C6167 
 3842      7300
 3843              	.LASF54:
 3844 0067 77726974 		.ascii	"writef\000"
 3844      656600
 3845              	.LASF39:
 3846 006e 6F626A5F 		.ascii	"obj_group\000"
 3846      67726F75 
 3846      7000
 3847              	.LASF69:
 3848 0078 63685365 		.ascii	"chSemFastSignalI\000"
 3848      6D466173 
ARM GAS  /tmp/ccPjWNNF.s 			page 69


 3848      74536967 
 3848      6E616C49 
 3848      00
 3849              	.LASF74:
 3850 0089 706F7274 		.ascii	"port_lock\000"
 3850      5F6C6F63 
 3850      6B00
 3851              	.LASF72:
 3852 0093 63685379 		.ascii	"chSysLock\000"
 3852      734C6F63 
 3852      6B00
 3853              	.LASF37:
 3854 009d 6F635F6F 		.ascii	"oc_object_t\000"
 3854      626A6563 
 3854      745F7400 
 3855              	.LASF64:
 3856 00a9 63684361 		.ascii	"chCacheReleaseObjectI\000"
 3856      63686552 
 3856      656C6561 
 3856      73654F62 
 3856      6A656374 
 3857              	.LASF50:
 3858 00bf 6F626A76 		.ascii	"objvp\000"
 3858      7000
 3859              	.LASF44:
 3860 00c5 6F626A65 		.ascii	"objects_cache_t\000"
 3860      6374735F 
 3860      63616368 
 3860      655F7400 
 3861              	.LASF45:
 3862 00d5 63685F6F 		.ascii	"ch_objects_cache\000"
 3862      626A6563 
 3862      74735F63 
 3862      61636865 
 3862      00
 3863              	.LASF14:
 3864 00e6 75696E74 		.ascii	"uint8_t\000"
 3864      385F7400 
 3865              	.LASF65:
 3866 00ee 63684361 		.ascii	"chCacheObjectInit\000"
 3866      6368654F 
 3866      626A6563 
 3866      74496E69 
 3866      7400
 3867              	.LASF61:
 3868 0100 63684361 		.ascii	"chCacheGetObject\000"
 3868      63686547 
 3868      65744F62 
 3868      6A656374 
 3868      00
 3869              	.LASF20:
 3870 0111 63685F71 		.ascii	"ch_queue_t\000"
 3870      75657565 
 3870      5F7400
 3871              	.LASF16:
 3872 011c 75696E74 		.ascii	"uint32_t\000"
 3872      33325F74 
ARM GAS  /tmp/ccPjWNNF.s 			page 70


 3872      00
 3873              	.LASF26:
 3874 0125 73656D61 		.ascii	"semaphore_t\000"
 3874      70686F72 
 3874      655F7400 
 3875              	.LASF49:
 3876 0131 6F626A73 		.ascii	"objsz\000"
 3876      7A00
 3877              	.LASF2:
 3878 0137 6C6F6E67 		.ascii	"long double\000"
 3878      20646F75 
 3878      626C6500 
 3879              	.LASF78:
 3880 0143 63685365 		.ascii	"chSemWaitS\000"
 3880      6D576169 
 3880      745300
 3881              	.LASF1:
 3882 014e 6C6F6E67 		.ascii	"long long int\000"
 3882      206C6F6E 
 3882      6720696E 
 3882      7400
 3883              	.LASF13:
 3884 015c 6C6F6E67 		.ascii	"long long unsigned int\000"
 3884      206C6F6E 
 3884      6720756E 
 3884      7369676E 
 3884      65642069 
 3885              	.LASF28:
 3886 0173 6F635F66 		.ascii	"oc_flags_t\000"
 3886      6C616773 
 3886      5F7400
 3887              	.LASF10:
 3888 017e 6C6F6E67 		.ascii	"long int\000"
 3888      20696E74 
 3888      00
 3889              	.LASF5:
 3890 0187 5F5F7569 		.ascii	"__uint8_t\000"
 3890      6E74385F 
 3890      7400
 3891              	.LASF40:
 3892 0191 6F626A5F 		.ascii	"obj_key\000"
 3892      6B657900 
 3893              	.LASF81:
 3894 0199 2E2E2F43 		.ascii	"../ChibiOS/os/oslib/src/chobjcaches.c\000"
 3894      68696269 
 3894      4F532F6F 
 3894      732F6F73 
 3894      6C69622F 
 3895              	.LASF25:
 3896 01bf 71756575 		.ascii	"queue\000"
 3896      6500
 3897              	.LASF41:
 3898 01c5 6F626A5F 		.ascii	"obj_sem\000"
 3898      73656D00 
 3899              	.LASF80:
 3900 01cd 474E5520 		.ascii	"GNU C17 10.3.1 20210621 (release) -mcpu=cortex-m4 -"
 3900      43313720 
ARM GAS  /tmp/ccPjWNNF.s 			page 71


 3900      31302E33 
 3900      2E312032 
 3900      30323130 
 3901 0200 6D746875 		.ascii	"mthumb -mfloat-abi=soft -march=armv7e-m -ggdb -O2 -"
 3901      6D62202D 
 3901      6D666C6F 
 3901      61742D61 
 3901      62693D73 
 3902 0233 666F6D69 		.ascii	"fomit-frame-pointer -falign-functions=16 -ffunction"
 3902      742D6672 
 3902      616D652D 
 3902      706F696E 
 3902      74657220 
 3903 0266 2D736563 		.ascii	"-sections -fdata-sections -fno-common\000"
 3903      74696F6E 
 3903      73202D66 
 3903      64617461 
 3903      2D736563 
 3904              	.LASF6:
 3905 028c 756E7369 		.ascii	"unsigned char\000"
 3905      676E6564 
 3905      20636861 
 3905      7200
 3906              	.LASF66:
 3907 029a 6C72755F 		.ascii	"lru_get_last_s\000"
 3907      6765745F 
 3907      6C617374 
 3907      5F7300
 3908              	.LASF63:
 3909 02a9 5F5F6675 		.ascii	"__func__\000"
 3909      6E635F5F 
 3909      00
 3910              	.LASF70:
 3911 02b2 63685365 		.ascii	"chSemFastWaitI\000"
 3911      6D466173 
 3911      74576169 
 3911      744900
 3912              	.LASF9:
 3913 02c1 5F5F696E 		.ascii	"__int32_t\000"
 3913      7433325F 
 3913      7400
 3914              	.LASF3:
 3915 02cb 7369676E 		.ascii	"signed char\000"
 3915      65642063 
 3915      68617200 
 3916              	.LASF62:
 3917 02d7 67726F75 		.ascii	"group\000"
 3917      7000
 3918              	.LASF46:
 3919 02dd 68617368 		.ascii	"hashn\000"
 3919      6E00
 3920              	.LASF0:
 3921 02e3 756E7369 		.ascii	"unsigned int\000"
 3921      676E6564 
 3921      20696E74 
 3921      00
 3922              	.LASF47:
ARM GAS  /tmp/ccPjWNNF.s 			page 72


 3923 02f0 68617368 		.ascii	"hashp\000"
 3923      7000
 3924              	.LASF53:
 3925 02f6 72656164 		.ascii	"readf\000"
 3925      6600
 3926              	.LASF82:
 3927 02fc 2F686F6D 		.ascii	"/home/bhimebau/forge/analog_in_out/application\000"
 3927      652F6268 
 3927      696D6562 
 3927      61752F66 
 3927      6F726765 
 3928              	.LASF8:
 3929 032b 73686F72 		.ascii	"short unsigned int\000"
 3929      7420756E 
 3929      7369676E 
 3929      65642069 
 3929      6E7400
 3930              	.LASF76:
 3931 033e 62617365 		.ascii	"basePri\000"
 3931      50726900 
 3932              	.LASF58:
 3933 0346 6173796E 		.ascii	"async\000"
 3933      6300
 3934              	.LASF32:
 3935 034c 68617368 		.ascii	"hash_prev\000"
 3935      5F707265 
 3935      7600
 3936              	.LASF55:
 3937 0356 6F635F72 		.ascii	"oc_readf_t\000"
 3937      65616466 
 3937      5F7400
 3938              	.LASF19:
 3939 0361 63686172 		.ascii	"char\000"
 3939      00
 3940              	.LASF51:
 3941 0366 63616368 		.ascii	"cache_sem\000"
 3941      655F7365 
 3941      6D00
 3942              	.LASF18:
 3943 0370 75636E74 		.ascii	"ucnt_t\000"
 3943      5F7400
 3944              	.LASF15:
 3945 0377 696E7433 		.ascii	"int32_t\000"
 3945      325F7400 
 3946              	.LASF17:
 3947 037f 636E745F 		.ascii	"cnt_t\000"
 3947      7400
 3948              	.LASF60:
 3949 0385 63684361 		.ascii	"chCacheReadObject\000"
 3949      63686552 
 3949      6561644F 
 3949      626A6563 
 3949      7400
 3950              	.LASF27:
 3951 0397 5F426F6F 		.ascii	"_Bool\000"
 3951      6C00
 3952              	.LASF73:
ARM GAS  /tmp/ccPjWNNF.s 			page 73


 3953 039d 706F7274 		.ascii	"port_unlock\000"
 3953      5F756E6C 
 3953      6F636B00 
 3954              	.LASF12:
 3955 03a9 6C6F6E67 		.ascii	"long unsigned int\000"
 3955      20756E73 
 3955      69676E65 
 3955      6420696E 
 3955      7400
 3956              	.LASF30:
 3957 03bb 63685F6F 		.ascii	"ch_oc_hash_header\000"
 3957      635F6861 
 3957      73685F68 
 3957      65616465 
 3957      7200
 3958              	.LASF31:
 3959 03cd 68617368 		.ascii	"hash_next\000"
 3959      5F6E6578 
 3959      7400
 3960              	.LASF11:
 3961 03d7 5F5F7569 		.ascii	"__uint32_t\000"
 3961      6E743332 
 3961      5F7400
 3962              	.LASF71:
 3963 03e2 63685379 		.ascii	"chSysUnlock\000"
 3963      73556E6C 
 3963      6F636B00 
 3964              	.LASF24:
 3965 03ee 63685F73 		.ascii	"ch_semaphore\000"
 3965      656D6170 
 3965      686F7265 
 3965      00
 3966              	.LASF48:
 3967 03fb 6F626A6E 		.ascii	"objn\000"
 3967      00
 3968              	.LASF57:
 3969 0400 6F626A70 		.ascii	"objp\000"
 3969      00
 3970              	.LASF33:
 3971 0405 6F635F6C 		.ascii	"oc_lru_header_t\000"
 3971      72755F68 
 3971      65616465 
 3971      725F7400 
 3972              	.LASF23:
 3973 0415 63685F71 		.ascii	"ch_queue\000"
 3973      75657565 
 3973      00
 3974              	.LASF34:
 3975 041e 63685F6F 		.ascii	"ch_oc_lru_header\000"
 3975      635F6C72 
 3975      755F6865 
 3975      61646572 
 3975      00
 3976              	.LASF77:
 3977 042f 63685365 		.ascii	"chSemSignalI\000"
 3977      6D536967 
 3977      6E616C49 
ARM GAS  /tmp/ccPjWNNF.s 			page 74


 3977      00
 3978              	.LASF29:
 3979 043c 6F635F68 		.ascii	"oc_hash_header_t\000"
 3979      6173685F 
 3979      68656164 
 3979      65725F74 
 3979      00
 3980              	.LASF75:
 3981 044d 5F5F7365 		.ascii	"__set_BASEPRI\000"
 3981      745F4241 
 3981      53455052 
 3981      4900
 3982              	.LASF36:
 3983 045b 6C72755F 		.ascii	"lru_prev\000"
 3983      70726576 
 3983      00
 3984              	.LASF59:
 3985 0464 63684361 		.ascii	"chCacheWriteObject\000"
 3985      63686557 
 3985      72697465 
 3985      4F626A65 
 3985      637400
 3986              	.LASF22:
 3987 0477 70726576 		.ascii	"prev\000"
 3987      00
 3988              	.LASF35:
 3989 047c 6C72755F 		.ascii	"lru_next\000"
 3989      6E657874 
 3989      00
 3990              	.LASF67:
 3991 0485 68617368 		.ascii	"hash_get_s\000"
 3991      5F676574 
 3991      5F7300
 3992              		.ident	"GCC: (GNU Arm Embedded Toolchain 10.3-2021.07) 10.3.1 20210621 (release)"
ARM GAS  /tmp/ccPjWNNF.s 			page 75


DEFINED SYMBOLS
                            *ABS*:0000000000000000 chobjcaches.c
     /tmp/ccPjWNNF.s:16     .text.chCacheObjectInit:0000000000000000 $t
     /tmp/ccPjWNNF.s:25     .text.chCacheObjectInit:0000000000000000 chCacheObjectInit
     /tmp/ccPjWNNF.s:167    .text.chCacheGetObject:0000000000000000 $t
     /tmp/ccPjWNNF.s:175    .text.chCacheGetObject:0000000000000000 chCacheGetObject
     /tmp/ccPjWNNF.s:666    .text.chCacheReleaseObjectI:0000000000000000 $t
     /tmp/ccPjWNNF.s:674    .text.chCacheReleaseObjectI:0000000000000000 chCacheReleaseObjectI
     /tmp/ccPjWNNF.s:828    .text.chCacheReadObject:0000000000000000 $t
     /tmp/ccPjWNNF.s:836    .text.chCacheReadObject:0000000000000000 chCacheReadObject
     /tmp/ccPjWNNF.s:873    .text.chCacheWriteObject:0000000000000000 $t
     /tmp/ccPjWNNF.s:881    .text.chCacheWriteObject:0000000000000000 chCacheWriteObject

UNDEFINED SYMBOLS
chSemObjectInit
chSemWaitS
chSemSignalI
