ARM GAS  /tmp/ccIr6MbM.s 			page 1


   1              		.cpu cortex-m4
   2              		.eabi_attribute 20, 1
   3              		.eabi_attribute 21, 1
   4              		.eabi_attribute 23, 3
   5              		.eabi_attribute 24, 1
   6              		.eabi_attribute 25, 1
   7              		.eabi_attribute 26, 1
   8              		.eabi_attribute 30, 2
   9              		.eabi_attribute 34, 1
  10              		.eabi_attribute 18, 4
  11              		.file	"chpipes.c"
  12              		.text
  13              	.Ltext0:
  14              		.cfi_sections	.debug_frame
  15              		.section	.text.chPipeObjectInit,"ax",%progbits
  16              		.align	1
  17              		.p2align 4,,15
  18              		.global	chPipeObjectInit
  19              		.arch armv7e-m
  20              		.syntax unified
  21              		.thumb
  22              		.thumb_func
  23              		.fpu softvfp
  24              		.type	chPipeObjectInit, %function
  25              	chPipeObjectInit:
  26              	.LVL0:
  27              	.LFB337:
  28              		.file 1 "../ChibiOS/os/oslib/src/chpipes.c"
  29              		.loc 1 207 59 view -0
  30              		.cfi_startproc
  31              		@ args = 0, pretend = 0, frame = 0
  32              		@ frame_needed = 0, uses_anonymous_args = 0
  33              		.loc 1 209 3 view .LVU1
  34              		.loc 1 209 3 view .LVU2
  35              		.loc 1 209 3 view .LVU3
  36              		.loc 1 211 3 view .LVU4
  37              		.loc 1 207 59 is_stmt 0 view .LVU5
  38 0000 10B5     		push	{r4, lr}
  39              		.cfi_def_cfa_offset 8
  40              		.cfi_offset 4, -8
  41              		.cfi_offset 14, -4
  42              		.loc 1 207 59 view .LVU6
  43 0002 0446     		mov	r4, r0
  44              		.loc 1 215 14 view .LVU7
  45 0004 0023     		movs	r3, #0
  46              		.loc 1 214 16 view .LVU8
  47 0006 0A44     		add	r2, r2, r1
  48              	.LVL1:
  49              		.loc 1 213 14 view .LVU9
  50 0008 C4E90211 		strd	r1, r1, [r4, #8]
  51              		.loc 1 218 14 view .LVU10
  52 000c C4E90633 		strd	r3, r3, [r4, #24]
  53              		.loc 1 211 14 view .LVU11
  54 0010 2160     		str	r1, [r4]
  55              		.loc 1 212 3 is_stmt 1 view .LVU12
  56              		.loc 1 214 3 view .LVU13
  57              		.loc 1 214 14 is_stmt 0 view .LVU14
ARM GAS  /tmp/ccIr6MbM.s 			page 2


  58 0012 6260     		str	r2, [r4, #4]
  59              		.loc 1 215 3 is_stmt 1 view .LVU15
  60              		.loc 1 215 14 is_stmt 0 view .LVU16
  61 0014 2361     		str	r3, [r4, #16]
  62              		.loc 1 216 3 is_stmt 1 view .LVU17
  63              		.loc 1 216 14 is_stmt 0 view .LVU18
  64 0016 2375     		strb	r3, [r4, #20]
  65              		.loc 1 217 3 is_stmt 1 view .LVU19
  66              		.loc 1 219 3 view .LVU20
  67 0018 2030     		adds	r0, r0, #32
  68              	.LVL2:
  69              		.loc 1 219 3 is_stmt 0 view .LVU21
  70 001a FFF7FEFF 		bl	chMtxObjectInit
  71              	.LVL3:
  72              		.loc 1 220 3 is_stmt 1 view .LVU22
  73 001e 04F13000 		add	r0, r4, #48
  74 0022 FFF7FEFF 		bl	chMtxObjectInit
  75              	.LVL4:
  76              		.loc 1 221 3 view .LVU23
  77 0026 04F14000 		add	r0, r4, #64
  78              		.loc 1 222 1 is_stmt 0 view .LVU24
  79 002a BDE81040 		pop	{r4, lr}
  80              		.cfi_restore 14
  81              		.cfi_restore 4
  82              		.cfi_def_cfa_offset 0
  83              	.LVL5:
  84              		.loc 1 221 3 view .LVU25
  85 002e FFF7FEBF 		b	chMtxObjectInit
  86              	.LVL6:
  87              		.loc 1 221 3 view .LVU26
  88              		.cfi_endproc
  89              	.LFE337:
  90              		.size	chPipeObjectInit, .-chPipeObjectInit
  91 0032 00BF     		.section	.text.chPipeReset,"ax",%progbits
  92              		.align	1
  93              		.p2align 4,,15
  94              		.global	chPipeReset
  95              		.syntax unified
  96              		.thumb
  97              		.thumb_func
  98              		.fpu softvfp
  99              		.type	chPipeReset, %function
 100              	chPipeReset:
 101              	.LVL7:
 102              	.LFB338:
 103              		.loc 1 236 30 is_stmt 1 view -0
 104              		.cfi_startproc
 105              		@ args = 0, pretend = 0, frame = 0
 106              		@ frame_needed = 0, uses_anonymous_args = 0
 107              		.loc 1 238 3 view .LVU28
 108              		.loc 1 238 3 view .LVU29
 109              		.loc 1 238 3 view .LVU30
 110              		.loc 1 240 3 view .LVU31
 111              		.loc 1 236 30 is_stmt 0 view .LVU32
 112 0000 70B5     		push	{r4, r5, r6, lr}
 113              		.cfi_def_cfa_offset 16
 114              		.cfi_offset 4, -16
ARM GAS  /tmp/ccIr6MbM.s 			page 3


 115              		.cfi_offset 5, -12
 116              		.cfi_offset 6, -8
 117              		.cfi_offset 14, -4
 118              		.loc 1 236 30 view .LVU33
 119 0002 0446     		mov	r4, r0
 120              		.loc 1 240 3 view .LVU34
 121 0004 00F12005 		add	r5, r0, #32
 122 0008 2846     		mov	r0, r5
 123              	.LVL8:
 124              		.loc 1 240 3 view .LVU35
 125 000a FFF7FEFF 		bl	chMtxLock
 126              	.LVL9:
 127              		.loc 1 242 3 is_stmt 1 view .LVU36
 128              		.loc 1 242 17 is_stmt 0 view .LVU37
 129 000e 2368     		ldr	r3, [r4]
 130              		.loc 1 244 13 view .LVU38
 131 0010 0026     		movs	r6, #0
 132              		.loc 1 245 13 view .LVU39
 133 0012 0122     		movs	r2, #1
 134              		.loc 1 243 13 view .LVU40
 135 0014 C4E90233 		strd	r3, r3, [r4, #8]
 136              		.loc 1 244 3 is_stmt 1 view .LVU41
 137              		.loc 1 245 13 is_stmt 0 view .LVU42
 138 0018 2275     		strb	r2, [r4, #20]
 139              		.loc 1 244 13 view .LVU43
 140 001a 2661     		str	r6, [r4, #16]
 141              		.loc 1 245 3 is_stmt 1 view .LVU44
 142              		.loc 1 247 3 view .LVU45
 143              	.LBB68:
 144              	.LBI68:
 145              		.file 2 "../ChibiOS/os/rt/include/chsys.h"
 146              		.loc 2 407 20 view .LVU46
 147              	.LBE68:
 148              		.loc 2 409 3 view .LVU47
 149              	.LBB73:
 150              	.LBB69:
 151              	.LBI69:
 152              		.file 3 "../ChibiOS/os/common/ports/ARMv7-M/chcore.h"
 153              		.loc 3 806 27 view .LVU48
 154              	.LBE69:
 155              	.LBE73:
 156              		.loc 3 814 3 view .LVU49
 157              	.LVL10:
 158              	.LBB74:
 159              	.LBB72:
 160              	.LBB70:
 161              	.LBI70:
 162              		.file 4 "../ChibiOS/os/common/ext/ARM/CMSIS/Core/Include/cmsis_gcc.h"
 163              		.loc 4 491 27 view .LVU50
 164              	.LBB71:
 165              		.loc 4 493 3 view .LVU51
 166 001c 3023     		movs	r3, #48
 167              		.syntax unified
 168              	@ 493 "../ChibiOS/os/common/ext/ARM/CMSIS/Core/Include/cmsis_gcc.h" 1
 169 001e 83F31188 		MSR basepri, r3
 170              	@ 0 "" 2
 171              	.LVL11:
ARM GAS  /tmp/ccIr6MbM.s 			page 4


 172              		.loc 4 493 3 is_stmt 0 view .LVU52
 173              		.thumb
 174              		.syntax unified
 175              	.LBE71:
 176              	.LBE70:
 177              	.LBE72:
 178              	.LBE74:
 179              		.loc 2 410 35 is_stmt 1 view .LVU53
 180              		.loc 2 411 21 view .LVU54
 181              		.loc 1 248 3 view .LVU55
 182 0022 6FF00101 		mvn	r1, #1
 183 0026 04F11800 		add	r0, r4, #24
 184 002a FFF7FEFF 		bl	chThdResumeI
 185              	.LVL12:
 186              		.loc 1 249 3 view .LVU56
 187 002e 6FF00101 		mvn	r1, #1
 188 0032 04F11C00 		add	r0, r4, #28
 189 0036 FFF7FEFF 		bl	chThdResumeI
 190              	.LVL13:
 191              		.loc 1 250 3 view .LVU57
 192 003a FFF7FEFF 		bl	chSchRescheduleS
 193              	.LVL14:
 194              		.loc 1 251 3 view .LVU58
 195              	.LBB75:
 196              	.LBI75:
 197              		.loc 2 421 20 view .LVU59
 198              	.LBB76:
 199              		.loc 2 423 23 view .LVU60
 200              		.loc 2 424 34 view .LVU61
 201              		.loc 2 430 3 view .LVU62
 202              		.loc 2 430 3 view .LVU63
 203              		.loc 2 430 3 view .LVU64
 204              		.loc 2 434 3 view .LVU65
 205              	.LBB77:
 206              	.LBI77:
 207              		.loc 3 830 27 view .LVU66
 208              	.LBE77:
 209              	.LBE76:
 210              	.LBE75:
 211              		.loc 3 833 3 view .LVU67
 212              	.LBB82:
 213              	.LBB81:
 214              	.LBB80:
 215              	.LBB78:
 216              	.LBI78:
 217              		.loc 4 491 27 view .LVU68
 218              	.LBB79:
 219              		.loc 4 493 3 view .LVU69
 220              		.syntax unified
 221              	@ 493 "../ChibiOS/os/common/ext/ARM/CMSIS/Core/Include/cmsis_gcc.h" 1
 222 003e 86F31188 		MSR basepri, r6
 223              	@ 0 "" 2
 224              	.LVL15:
 225              		.loc 4 493 3 is_stmt 0 view .LVU70
 226              		.thumb
 227              		.syntax unified
 228              	.LBE79:
ARM GAS  /tmp/ccIr6MbM.s 			page 5


 229              	.LBE78:
 230              	.LBE80:
 231              	.LBE81:
 232              	.LBE82:
 233              		.loc 1 253 3 is_stmt 1 view .LVU71
 234 0042 2846     		mov	r0, r5
 235              		.loc 1 254 1 is_stmt 0 view .LVU72
 236 0044 BDE87040 		pop	{r4, r5, r6, lr}
 237              		.cfi_restore 14
 238              		.cfi_restore 6
 239              		.cfi_restore 5
 240              		.cfi_restore 4
 241              		.cfi_def_cfa_offset 0
 242              	.LVL16:
 243              		.loc 1 253 3 view .LVU73
 244 0048 FFF7FEBF 		b	chMtxUnlock
 245              	.LVL17:
 246              		.loc 1 253 3 view .LVU74
 247              		.cfi_endproc
 248              	.LFE338:
 249              		.size	chPipeReset, .-chPipeReset
 250              		.section	.text.chPipeWriteTimeout,"ax",%progbits
 251              		.align	1
 252              		.p2align 4,,15
 253              		.global	chPipeWriteTimeout
 254              		.syntax unified
 255              		.thumb
 256              		.thumb_func
 257              		.fpu softvfp
 258              		.type	chPipeWriteTimeout, %function
 259              	chPipeWriteTimeout:
 260              	.LVL18:
 261              	.LFB339:
 262              		.loc 1 279 60 is_stmt 1 view -0
 263              		.cfi_startproc
 264              		@ args = 0, pretend = 0, frame = 16
 265              		@ frame_needed = 0, uses_anonymous_args = 0
 266              		.loc 1 280 3 view .LVU76
 267              		.loc 1 279 60 is_stmt 0 view .LVU77
 268 0000 2DE9F04F 		push	{r4, r5, r6, r7, r8, r9, r10, fp, lr}
 269              		.cfi_def_cfa_offset 36
 270              		.cfi_offset 4, -36
 271              		.cfi_offset 5, -32
 272              		.cfi_offset 6, -28
 273              		.cfi_offset 7, -24
 274              		.cfi_offset 8, -20
 275              		.cfi_offset 9, -16
 276              		.cfi_offset 10, -12
 277              		.cfi_offset 11, -8
 278              		.cfi_offset 14, -4
 279 0004 0546     		mov	r5, r0
 280 0006 85B0     		sub	sp, sp, #20
 281              		.cfi_def_cfa_offset 56
 282              		.loc 1 285 6 view .LVU78
 283 0008 007D     		ldrb	r0, [r0, #20]	@ zero_extendqisi2
 284              	.LVL19:
 285              		.loc 1 279 60 view .LVU79
ARM GAS  /tmp/ccIr6MbM.s 			page 6


 286 000a 0292     		str	r2, [sp, #8]
 287              	.LVL20:
 288              		.loc 1 282 3 is_stmt 1 view .LVU80
 289              		.loc 1 282 3 view .LVU81
 290              		.loc 1 282 3 view .LVU82
 291              		.loc 1 285 3 view .LVU83
 292              		.loc 1 285 6 is_stmt 0 view .LVU84
 293 000c 20B1     		cbz	r0, .L25
 294              		.loc 1 286 12 view .LVU85
 295 000e 0027     		movs	r7, #0
 296              		.loc 1 319 1 view .LVU86
 297 0010 3846     		mov	r0, r7
 298 0012 05B0     		add	sp, sp, #20
 299              		.cfi_remember_state
 300              		.cfi_def_cfa_offset 36
 301              		@ sp needed
 302 0014 BDE8F08F 		pop	{r4, r5, r6, r7, r8, r9, r10, fp, pc}
 303              	.LVL21:
 304              	.L25:
 305              		.cfi_restore_state
 306              		.loc 1 289 3 is_stmt 1 view .LVU87
 307 0018 9A46     		mov	r10, r3
 308 001a 05F13003 		add	r3, r5, #48
 309              	.LVL22:
 310              		.loc 1 289 3 is_stmt 0 view .LVU88
 311 001e 1446     		mov	r4, r2
 312 0020 1846     		mov	r0, r3
 313 0022 0E46     		mov	r6, r1
 314 0024 0393     		str	r3, [sp, #12]
 315 0026 FFF7FEFF 		bl	chMtxLock
 316              	.LVL23:
 317              		.loc 1 291 3 is_stmt 1 view .LVU89
 318              		.loc 1 291 9 view .LVU90
 319 002a 002C     		cmp	r4, #0
 320 002c 42D0     		beq	.L15
 321              	.LVL24:
 322              	.LBB102:
 323              	.LBB103:
 324              	.LBB104:
 325              		.loc 1 108 3 is_stmt 0 view .LVU91
 326 002e 029F     		ldr	r7, [sp, #8]
 327 0030 05F12008 		add	r8, r5, #32
 328              	.LBE104:
 329              	.LBE103:
 330              		.loc 1 312 7 view .LVU92
 331 0034 05F11C09 		add	r9, r5, #28
 332              	.LVL25:
 333              	.L16:
 334              		.loc 1 292 5 is_stmt 1 view .LVU93
 335              		.loc 1 294 5 view .LVU94
 336              	.LBB122:
 337              	.LBI103:
 338              		.loc 1 105 15 view .LVU95
 339              	.LBB119:
 340              		.loc 1 106 3 view .LVU96
 341              		.loc 1 108 3 view .LVU97
 342 0038 4046     		mov	r0, r8
ARM GAS  /tmp/ccIr6MbM.s 			page 7


 343 003a FFF7FEFF 		bl	chMtxLock
 344              	.LVL26:
 345              		.loc 1 111 3 view .LVU98
 346              	.LBB105:
 347              	.LBI105:
 348              		.file 5 "../ChibiOS/os/oslib/include/chpipes.h"
 349              		.loc 5 187 22 view .LVU99
 350              	.LBB106:
 351              		.loc 5 189 3 view .LVU100
 352              	.LBB107:
 353              	.LBI107:
 354              		.loc 5 158 22 view .LVU101
 355              	.LBB108:
 356              		.loc 5 162 3 view .LVU102
 357              	.LBE108:
 358              	.LBE107:
 359              	.LBE106:
 360              	.LBE105:
 361              		.loc 1 125 8 view .LVU103
 362              	.LBB117:
 363              	.LBB115:
 364              	.LBB111:
 365              	.LBB109:
 366              		.loc 5 162 27 is_stmt 0 view .LVU104
 367 003e D5E90042 		ldrd	r4, r2, [r5]
 368              	.LBE109:
 369              	.LBE111:
 370              	.LBB112:
 371              	.LBB113:
 372              		.loc 5 176 12 view .LVU105
 373 0042 2B69     		ldr	r3, [r5, #16]
 374              	.LVL27:
 375              		.loc 5 176 12 view .LVU106
 376              	.LBE113:
 377              	.LBE112:
 378              	.LBE115:
 379              	.LBE117:
 380              		.loc 1 118 29 view .LVU107
 381 0044 A868     		ldr	r0, [r5, #8]
 382              	.LBB118:
 383              	.LBB116:
 384              	.LBB114:
 385              	.LBB110:
 386              		.loc 5 162 27 view .LVU108
 387 0046 141B     		subs	r4, r2, r4
 388              	.LBE110:
 389              	.LBE114:
 390              		.loc 5 189 28 view .LVU109
 391 0048 E41A     		subs	r4, r4, r3
 392 004a BC42     		cmp	r4, r7
 393 004c 28BF     		it	cs
 394 004e 3C46     		movcs	r4, r7
 395              	.LVL28:
 396              		.loc 5 189 28 view .LVU110
 397              	.LBE116:
 398              	.LBE118:
 399              		.loc 1 114 3 is_stmt 1 view .LVU111
ARM GAS  /tmp/ccIr6MbM.s 			page 8


 400              		.loc 1 118 25 is_stmt 0 view .LVU112
 401 0050 A2EB000B 		sub	fp, r2, r0
 402              		.loc 1 114 11 view .LVU113
 403 0054 2344     		add	r3, r3, r4
 404              		.loc 1 121 6 view .LVU114
 405 0056 5C45     		cmp	r4, fp
 406              		.loc 1 114 11 view .LVU115
 407 0058 2B61     		str	r3, [r5, #16]
 408              		.loc 1 118 3 is_stmt 1 view .LVU116
 409              	.LVL29:
 410              		.loc 1 121 3 view .LVU117
 411              		.loc 1 121 6 is_stmt 0 view .LVU118
 412 005a 39D3     		bcc	.L26
 413              		.loc 1 126 5 is_stmt 1 view .LVU119
 414              		.loc 1 133 5 view .LVU120
 415              		.loc 1 126 5 is_stmt 0 view .LVU121
 416 005c 5A46     		mov	r2, fp
 417 005e 3146     		mov	r1, r6
 418              		.loc 1 125 11 view .LVU122
 419 0060 30D9     		bls	.L12
 420              		.loc 1 126 5 view .LVU123
 421 0062 FFF7FEFF 		bl	memcpy
 422              	.LVL30:
 423              		.loc 1 127 5 is_stmt 1 view .LVU124
 424              		.loc 1 128 5 view .LVU125
 425              		.loc 1 128 8 is_stmt 0 view .LVU126
 426 0066 A4EB0B02 		sub	r2, r4, fp
 427              	.LVL31:
 428              		.loc 1 129 5 is_stmt 1 view .LVU127
 429 006a 2868     		ldr	r0, [r5]
 430 006c 0192     		str	r2, [sp, #4]
 431 006e 06EB0B01 		add	r1, r6, fp
 432              	.LVL32:
 433              		.loc 1 129 5 is_stmt 0 view .LVU128
 434 0072 FFF7FEFF 		bl	memcpy
 435              	.LVL33:
 436              		.loc 1 130 5 is_stmt 1 view .LVU129
 437              		.loc 1 130 28 is_stmt 0 view .LVU130
 438 0076 2B68     		ldr	r3, [r5]
 439 0078 019A     		ldr	r2, [sp, #4]
 440 007a 1344     		add	r3, r3, r2
 441              		.loc 1 130 15 view .LVU131
 442 007c AB60     		str	r3, [r5, #8]
 443              	.LVL34:
 444              	.L11:
 445              		.loc 1 137 3 is_stmt 1 view .LVU132
 446 007e 4046     		mov	r0, r8
 447 0080 FFF7FEFF 		bl	chMtxUnlock
 448              	.LVL35:
 449              		.loc 1 139 3 view .LVU133
 450              		.loc 1 139 3 is_stmt 0 view .LVU134
 451              	.LBE119:
 452              	.LBE122:
 453              		.loc 1 295 5 is_stmt 1 view .LVU135
 454              	.LBB123:
 455              		.loc 1 296 7 view .LVU136
 456              		.loc 1 298 7 view .LVU137
ARM GAS  /tmp/ccIr6MbM.s 			page 9


 457              	.LBB124:
 458              	.LBI124:
 459              		.loc 2 407 20 view .LVU138
 460              	.LBE124:
 461              	.LBE123:
 462              	.LBE102:
 463              		.loc 2 409 3 view .LVU139
 464              	.LBB150:
 465              	.LBB143:
 466              	.LBB132:
 467              	.LBB125:
 468              	.LBI125:
 469              		.loc 3 806 27 view .LVU140
 470              	.LBE125:
 471              	.LBE132:
 472              	.LBE143:
 473              	.LBE150:
 474              		.loc 3 814 3 view .LVU141
 475              	.LBB151:
 476              	.LBB144:
 477              	.LBB133:
 478              	.LBB130:
 479              	.LBB126:
 480              	.LBI126:
 481              		.loc 4 491 27 view .LVU142
 482              	.LBB127:
 483              		.loc 4 493 3 view .LVU143
 484              	.LBE127:
 485              	.LBE126:
 486              	.LBE130:
 487              	.LBE133:
 488              	.LBE144:
 489              		.loc 1 308 7 view .LVU144
 490              		.loc 1 312 7 is_stmt 0 view .LVU145
 491 0084 0021     		movs	r1, #0
 492 0086 4846     		mov	r0, r9
 493              		.loc 1 295 8 view .LVU146
 494 0088 74B9     		cbnz	r4, .L13
 495              	.LBB145:
 496              	.LBB134:
 497              	.LBB131:
 498              	.LBB129:
 499              	.LBB128:
 500              		.loc 4 493 3 view .LVU147
 501 008a 3023     		movs	r3, #48
 502              		.syntax unified
 503              	@ 493 "../ChibiOS/os/common/ext/ARM/CMSIS/Core/Include/cmsis_gcc.h" 1
 504 008c 83F31188 		MSR basepri, r3
 505              	@ 0 "" 2
 506              	.LVL36:
 507              		.loc 4 493 3 view .LVU148
 508              		.thumb
 509              		.syntax unified
 510              	.LBE128:
 511              	.LBE129:
 512              	.LBE131:
 513              	.LBE134:
ARM GAS  /tmp/ccIr6MbM.s 			page 10


 514              	.LBE145:
 515              	.LBE151:
 516              		.loc 2 410 35 is_stmt 1 view .LVU149
 517              		.loc 2 411 21 view .LVU150
 518              	.LBB152:
 519              	.LBB146:
 520              		.loc 1 299 7 view .LVU151
 521              		.loc 1 299 13 is_stmt 0 view .LVU152
 522 0090 5146     		mov	r1, r10
 523 0092 05F11800 		add	r0, r5, #24
 524 0096 FFF7FEFF 		bl	chThdSuspendTimeoutS
 525              	.LVL37:
 526              		.loc 1 300 7 is_stmt 1 view .LVU153
 527              	.LBB135:
 528              	.LBI135:
 529              		.loc 2 421 20 view .LVU154
 530              	.LBB136:
 531              		.loc 2 423 23 view .LVU155
 532              		.loc 2 424 34 view .LVU156
 533              		.loc 2 430 3 view .LVU157
 534              		.loc 2 430 3 view .LVU158
 535              		.loc 2 430 3 view .LVU159
 536              		.loc 2 434 3 view .LVU160
 537              	.LBB137:
 538              	.LBI137:
 539              		.loc 3 830 27 view .LVU161
 540              	.LBE137:
 541              	.LBE136:
 542              	.LBE135:
 543              	.LBE146:
 544              	.LBE152:
 545              		.loc 3 833 3 view .LVU162
 546              	.LBB153:
 547              	.LBB147:
 548              	.LBB142:
 549              	.LBB141:
 550              	.LBB140:
 551              	.LBB138:
 552              	.LBI138:
 553              		.loc 4 491 27 view .LVU163
 554              	.LBB139:
 555              		.loc 4 493 3 view .LVU164
 556              		.syntax unified
 557              	@ 493 "../ChibiOS/os/common/ext/ARM/CMSIS/Core/Include/cmsis_gcc.h" 1
 558 009a 84F31188 		MSR basepri, r4
 559              	@ 0 "" 2
 560              	.LVL38:
 561              		.loc 4 493 3 is_stmt 0 view .LVU165
 562              		.thumb
 563              		.syntax unified
 564              	.LBE139:
 565              	.LBE138:
 566              	.LBE140:
 567              	.LBE141:
 568              	.LBE142:
 569              		.loc 1 303 7 is_stmt 1 view .LVU166
 570              		.loc 1 303 10 is_stmt 0 view .LVU167
ARM GAS  /tmp/ccIr6MbM.s 			page 11


 571 009e 0028     		cmp	r0, #0
 572 00a0 CAD0     		beq	.L16
 573              	.LBE147:
 574              	.LBE153:
 575              		.loc 1 318 14 view .LVU168
 576 00a2 029B     		ldr	r3, [sp, #8]
 577 00a4 DF1B     		subs	r7, r3, r7
 578              	.LVL39:
 579              		.loc 1 318 14 view .LVU169
 580 00a6 06E0     		b	.L9
 581              	.LVL40:
 582              	.L13:
 583              	.LBB154:
 584              		.loc 1 308 10 view .LVU170
 585 00a8 3F1B     		subs	r7, r7, r4
 586              	.LVL41:
 587              		.loc 1 309 7 is_stmt 1 view .LVU171
 588              		.loc 1 309 10 is_stmt 0 view .LVU172
 589 00aa 2644     		add	r6, r6, r4
 590              	.LVL42:
 591              		.loc 1 312 7 is_stmt 1 view .LVU173
 592 00ac FFF7FEFF 		bl	chThdResume
 593              	.LVL43:
 594              		.loc 1 312 7 is_stmt 0 view .LVU174
 595              	.LBE154:
 596              		.loc 1 291 9 is_stmt 1 view .LVU175
 597 00b0 002F     		cmp	r7, #0
 598 00b2 C1D1     		bne	.L16
 599              	.LVL44:
 600              	.L15:
 601              	.LBB155:
 602              	.LBB148:
 603              	.LBB120:
 604              		.loc 1 108 3 is_stmt 0 view .LVU176
 605 00b4 029F     		ldr	r7, [sp, #8]
 606              	.L9:
 607              		.loc 1 108 3 view .LVU177
 608              	.LBE120:
 609              	.LBE148:
 610              	.LBE155:
 611              		.loc 1 316 3 is_stmt 1 view .LVU178
 612 00b6 0398     		ldr	r0, [sp, #12]
 613 00b8 FFF7FEFF 		bl	chMtxUnlock
 614              	.LVL45:
 615              		.loc 1 318 3 view .LVU179
 616              		.loc 1 319 1 is_stmt 0 view .LVU180
 617 00bc 3846     		mov	r0, r7
 618 00be 05B0     		add	sp, sp, #20
 619              		.cfi_remember_state
 620              		.cfi_def_cfa_offset 36
 621              		@ sp needed
 622 00c0 BDE8F08F 		pop	{r4, r5, r6, r7, r8, r9, r10, fp, pc}
 623              	.LVL46:
 624              	.L12:
 625              		.cfi_restore_state
 626              	.LBB156:
 627              	.LBB149:
ARM GAS  /tmp/ccIr6MbM.s 			page 12


 628              	.LBB121:
 629              		.loc 1 133 5 view .LVU181
 630 00c4 2246     		mov	r2, r4
 631              	.LVL47:
 632              		.loc 1 133 5 view .LVU182
 633 00c6 FFF7FEFF 		bl	memcpy
 634              	.LVL48:
 635              		.loc 1 134 5 is_stmt 1 view .LVU183
 636              		.loc 1 134 15 is_stmt 0 view .LVU184
 637 00ca 2B68     		ldr	r3, [r5]
 638 00cc AB60     		str	r3, [r5, #8]
 639 00ce D6E7     		b	.L11
 640              	.L26:
 641              		.loc 1 122 5 is_stmt 1 view .LVU185
 642 00d0 2246     		mov	r2, r4
 643 00d2 3146     		mov	r1, r6
 644 00d4 FFF7FEFF 		bl	memcpy
 645              	.LVL49:
 646              		.loc 1 123 5 view .LVU186
 647              		.loc 1 123 15 is_stmt 0 view .LVU187
 648 00d8 AB68     		ldr	r3, [r5, #8]
 649 00da 2344     		add	r3, r3, r4
 650 00dc AB60     		str	r3, [r5, #8]
 651 00de CEE7     		b	.L11
 652              	.LBE121:
 653              	.LBE149:
 654              	.LBE156:
 655              		.cfi_endproc
 656              	.LFE339:
 657              		.size	chPipeWriteTimeout, .-chPipeWriteTimeout
 658              		.section	.text.chPipeReadTimeout,"ax",%progbits
 659              		.align	1
 660              		.p2align 4,,15
 661              		.global	chPipeReadTimeout
 662              		.syntax unified
 663              		.thumb
 664              		.thumb_func
 665              		.fpu softvfp
 666              		.type	chPipeReadTimeout, %function
 667              	chPipeReadTimeout:
 668              	.LVL50:
 669              	.LFB340:
 670              		.loc 1 344 59 is_stmt 1 view -0
 671              		.cfi_startproc
 672              		@ args = 0, pretend = 0, frame = 16
 673              		@ frame_needed = 0, uses_anonymous_args = 0
 674              		.loc 1 345 3 view .LVU189
 675              		.loc 1 344 59 is_stmt 0 view .LVU190
 676 0000 2DE9F04F 		push	{r4, r5, r6, r7, r8, r9, r10, fp, lr}
 677              		.cfi_def_cfa_offset 36
 678              		.cfi_offset 4, -36
 679              		.cfi_offset 5, -32
 680              		.cfi_offset 6, -28
 681              		.cfi_offset 7, -24
 682              		.cfi_offset 8, -20
 683              		.cfi_offset 9, -16
 684              		.cfi_offset 10, -12
ARM GAS  /tmp/ccIr6MbM.s 			page 13


 685              		.cfi_offset 11, -8
 686              		.cfi_offset 14, -4
 687 0004 0446     		mov	r4, r0
 688 0006 85B0     		sub	sp, sp, #20
 689              		.cfi_def_cfa_offset 56
 690              		.loc 1 350 6 view .LVU191
 691 0008 007D     		ldrb	r0, [r0, #20]	@ zero_extendqisi2
 692              	.LVL51:
 693              		.loc 1 344 59 view .LVU192
 694 000a 0292     		str	r2, [sp, #8]
 695              	.LVL52:
 696              		.loc 1 347 3 is_stmt 1 view .LVU193
 697              		.loc 1 347 3 view .LVU194
 698              		.loc 1 347 3 view .LVU195
 699              		.loc 1 350 3 view .LVU196
 700              		.loc 1 350 6 is_stmt 0 view .LVU197
 701 000c 20B1     		cbz	r0, .L46
 702              		.loc 1 351 12 view .LVU198
 703 000e 0027     		movs	r7, #0
 704              		.loc 1 384 1 view .LVU199
 705 0010 3846     		mov	r0, r7
 706 0012 05B0     		add	sp, sp, #20
 707              		.cfi_remember_state
 708              		.cfi_def_cfa_offset 36
 709              		@ sp needed
 710 0014 BDE8F08F 		pop	{r4, r5, r6, r7, r8, r9, r10, fp, pc}
 711              	.LVL53:
 712              	.L46:
 713              		.cfi_restore_state
 714              		.loc 1 354 3 is_stmt 1 view .LVU200
 715 0018 9A46     		mov	r10, r3
 716 001a 04F14003 		add	r3, r4, #64
 717              	.LVL54:
 718              		.loc 1 354 3 is_stmt 0 view .LVU201
 719 001e 1546     		mov	r5, r2
 720 0020 1846     		mov	r0, r3
 721 0022 0E46     		mov	r6, r1
 722 0024 0393     		str	r3, [sp, #12]
 723 0026 FFF7FEFF 		bl	chMtxLock
 724              	.LVL55:
 725              		.loc 1 356 3 is_stmt 1 view .LVU202
 726              		.loc 1 356 9 view .LVU203
 727 002a 002D     		cmp	r5, #0
 728 002c 40D0     		beq	.L36
 729              	.LVL56:
 730              	.LBB172:
 731              	.LBB173:
 732              	.LBB174:
 733              		.loc 1 159 3 is_stmt 0 view .LVU204
 734 002e 029F     		ldr	r7, [sp, #8]
 735 0030 04F12008 		add	r8, r4, #32
 736              	.LBE174:
 737              	.LBE173:
 738              		.loc 1 377 7 view .LVU205
 739 0034 04F11809 		add	r9, r4, #24
 740              	.LVL57:
 741              	.L37:
ARM GAS  /tmp/ccIr6MbM.s 			page 14


 742              		.loc 1 357 5 is_stmt 1 view .LVU206
 743              		.loc 1 359 5 view .LVU207
 744              	.LBB180:
 745              	.LBI173:
 746              		.loc 1 156 15 view .LVU208
 747              	.LBB177:
 748              		.loc 1 157 3 view .LVU209
 749              		.loc 1 159 3 view .LVU210
 750 0038 4046     		mov	r0, r8
 751 003a FFF7FEFF 		bl	chMtxLock
 752              	.LVL58:
 753              		.loc 1 162 3 view .LVU211
 754              	.LBB175:
 755              	.LBI175:
 756              		.loc 5 174 22 view .LVU212
 757              	.LBB176:
 758              		.loc 5 176 3 view .LVU213
 759              	.LBE176:
 760              	.LBE175:
 761              		.loc 1 176 8 view .LVU214
 762              		.loc 1 169 29 is_stmt 0 view .LVU215
 763 003e D4E90313 		ldrd	r1, r3, [r4, #12]
 764              		.loc 1 169 25 view .LVU216
 765 0042 6268     		ldr	r2, [r4, #4]
 766 0044 BB42     		cmp	r3, r7
 767 0046 1D46     		mov	r5, r3
 768 0048 A2EB010B 		sub	fp, r2, r1
 769 004c 28BF     		it	cs
 770 004e 3D46     		movcs	r5, r7
 771              	.LVL59:
 772              		.loc 1 165 3 is_stmt 1 view .LVU217
 773              		.loc 1 165 11 is_stmt 0 view .LVU218
 774 0050 5B1B     		subs	r3, r3, r5
 775              		.loc 1 172 6 view .LVU219
 776 0052 5D45     		cmp	r5, fp
 777              		.loc 1 165 11 view .LVU220
 778 0054 2361     		str	r3, [r4, #16]
 779              		.loc 1 169 3 is_stmt 1 view .LVU221
 780              	.LVL60:
 781              		.loc 1 172 3 view .LVU222
 782              		.loc 1 172 6 is_stmt 0 view .LVU223
 783 0056 39D3     		bcc	.L47
 784              		.loc 1 177 5 is_stmt 1 view .LVU224
 785              		.loc 1 184 5 view .LVU225
 786              		.loc 1 177 5 is_stmt 0 view .LVU226
 787 0058 5A46     		mov	r2, fp
 788 005a 3046     		mov	r0, r6
 789              		.loc 1 176 11 view .LVU227
 790 005c 30D9     		bls	.L33
 791              		.loc 1 177 5 view .LVU228
 792 005e FFF7FEFF 		bl	memcpy
 793              	.LVL61:
 794              		.loc 1 178 5 is_stmt 1 view .LVU229
 795              		.loc 1 179 5 view .LVU230
 796              		.loc 1 179 8 is_stmt 0 view .LVU231
 797 0062 A5EB0B02 		sub	r2, r5, fp
 798              	.LVL62:
ARM GAS  /tmp/ccIr6MbM.s 			page 15


 799              		.loc 1 180 5 is_stmt 1 view .LVU232
 800 0066 2168     		ldr	r1, [r4]
 801 0068 0192     		str	r2, [sp, #4]
 802 006a 06EB0B00 		add	r0, r6, fp
 803              	.LVL63:
 804              		.loc 1 180 5 is_stmt 0 view .LVU233
 805 006e FFF7FEFF 		bl	memcpy
 806              	.LVL64:
 807              		.loc 1 181 5 is_stmt 1 view .LVU234
 808              		.loc 1 181 28 is_stmt 0 view .LVU235
 809 0072 2368     		ldr	r3, [r4]
 810 0074 019A     		ldr	r2, [sp, #4]
 811 0076 1344     		add	r3, r3, r2
 812              		.loc 1 181 15 view .LVU236
 813 0078 E360     		str	r3, [r4, #12]
 814              	.LVL65:
 815              	.L32:
 816              		.loc 1 188 3 is_stmt 1 view .LVU237
 817 007a 4046     		mov	r0, r8
 818 007c FFF7FEFF 		bl	chMtxUnlock
 819              	.LVL66:
 820              		.loc 1 190 3 view .LVU238
 821              		.loc 1 190 3 is_stmt 0 view .LVU239
 822              	.LBE177:
 823              	.LBE180:
 824              		.loc 1 360 5 is_stmt 1 view .LVU240
 825              	.LBB181:
 826              		.loc 1 361 7 view .LVU241
 827              		.loc 1 363 7 view .LVU242
 828              	.LBB182:
 829              	.LBI182:
 830              		.loc 2 407 20 view .LVU243
 831              	.LBE182:
 832              	.LBE181:
 833              	.LBE172:
 834              		.loc 2 409 3 view .LVU244
 835              	.LBB208:
 836              	.LBB201:
 837              	.LBB190:
 838              	.LBB183:
 839              	.LBI183:
 840              		.loc 3 806 27 view .LVU245
 841              	.LBE183:
 842              	.LBE190:
 843              	.LBE201:
 844              	.LBE208:
 845              		.loc 3 814 3 view .LVU246
 846              	.LBB209:
 847              	.LBB202:
 848              	.LBB191:
 849              	.LBB188:
 850              	.LBB184:
 851              	.LBI184:
 852              		.loc 4 491 27 view .LVU247
 853              	.LBB185:
 854              		.loc 4 493 3 view .LVU248
 855              	.LBE185:
ARM GAS  /tmp/ccIr6MbM.s 			page 16


 856              	.LBE184:
 857              	.LBE188:
 858              	.LBE191:
 859              	.LBE202:
 860              		.loc 1 373 7 view .LVU249
 861              		.loc 1 377 7 is_stmt 0 view .LVU250
 862 0080 0021     		movs	r1, #0
 863 0082 4846     		mov	r0, r9
 864              		.loc 1 360 8 view .LVU251
 865 0084 75B9     		cbnz	r5, .L34
 866              	.LBB203:
 867              	.LBB192:
 868              	.LBB189:
 869              	.LBB187:
 870              	.LBB186:
 871              		.loc 4 493 3 view .LVU252
 872 0086 3023     		movs	r3, #48
 873              		.syntax unified
 874              	@ 493 "../ChibiOS/os/common/ext/ARM/CMSIS/Core/Include/cmsis_gcc.h" 1
 875 0088 83F31188 		MSR basepri, r3
 876              	@ 0 "" 2
 877              	.LVL67:
 878              		.loc 4 493 3 view .LVU253
 879              		.thumb
 880              		.syntax unified
 881              	.LBE186:
 882              	.LBE187:
 883              	.LBE189:
 884              	.LBE192:
 885              	.LBE203:
 886              	.LBE209:
 887              		.loc 2 410 35 is_stmt 1 view .LVU254
 888              		.loc 2 411 21 view .LVU255
 889              	.LBB210:
 890              	.LBB204:
 891              		.loc 1 364 7 view .LVU256
 892              		.loc 1 364 13 is_stmt 0 view .LVU257
 893 008c 5146     		mov	r1, r10
 894 008e 04F11C00 		add	r0, r4, #28
 895 0092 FFF7FEFF 		bl	chThdSuspendTimeoutS
 896              	.LVL68:
 897              		.loc 1 365 7 is_stmt 1 view .LVU258
 898              	.LBB193:
 899              	.LBI193:
 900              		.loc 2 421 20 view .LVU259
 901              	.LBB194:
 902              		.loc 2 423 23 view .LVU260
 903              		.loc 2 424 34 view .LVU261
 904              		.loc 2 430 3 view .LVU262
 905              		.loc 2 430 3 view .LVU263
 906              		.loc 2 430 3 view .LVU264
 907              		.loc 2 434 3 view .LVU265
 908              	.LBB195:
 909              	.LBI195:
 910              		.loc 3 830 27 view .LVU266
 911              	.LBE195:
 912              	.LBE194:
ARM GAS  /tmp/ccIr6MbM.s 			page 17


 913              	.LBE193:
 914              	.LBE204:
 915              	.LBE210:
 916              		.loc 3 833 3 view .LVU267
 917              	.LBB211:
 918              	.LBB205:
 919              	.LBB200:
 920              	.LBB199:
 921              	.LBB198:
 922              	.LBB196:
 923              	.LBI196:
 924              		.loc 4 491 27 view .LVU268
 925              	.LBB197:
 926              		.loc 4 493 3 view .LVU269
 927              		.syntax unified
 928              	@ 493 "../ChibiOS/os/common/ext/ARM/CMSIS/Core/Include/cmsis_gcc.h" 1
 929 0096 85F31188 		MSR basepri, r5
 930              	@ 0 "" 2
 931              	.LVL69:
 932              		.loc 4 493 3 is_stmt 0 view .LVU270
 933              		.thumb
 934              		.syntax unified
 935              	.LBE197:
 936              	.LBE196:
 937              	.LBE198:
 938              	.LBE199:
 939              	.LBE200:
 940              		.loc 1 368 7 is_stmt 1 view .LVU271
 941              		.loc 1 368 10 is_stmt 0 view .LVU272
 942 009a 0028     		cmp	r0, #0
 943 009c CCD0     		beq	.L37
 944              	.LBE205:
 945              	.LBE211:
 946              		.loc 1 383 14 view .LVU273
 947 009e 029B     		ldr	r3, [sp, #8]
 948 00a0 DF1B     		subs	r7, r3, r7
 949              	.LVL70:
 950              		.loc 1 383 14 view .LVU274
 951 00a2 06E0     		b	.L30
 952              	.LVL71:
 953              	.L34:
 954              	.LBB212:
 955              		.loc 1 373 10 view .LVU275
 956 00a4 7F1B     		subs	r7, r7, r5
 957              	.LVL72:
 958              		.loc 1 374 7 is_stmt 1 view .LVU276
 959              		.loc 1 374 10 is_stmt 0 view .LVU277
 960 00a6 2E44     		add	r6, r6, r5
 961              	.LVL73:
 962              		.loc 1 377 7 is_stmt 1 view .LVU278
 963 00a8 FFF7FEFF 		bl	chThdResume
 964              	.LVL74:
 965              		.loc 1 377 7 is_stmt 0 view .LVU279
 966              	.LBE212:
 967              		.loc 1 356 9 is_stmt 1 view .LVU280
 968 00ac 002F     		cmp	r7, #0
 969 00ae C3D1     		bne	.L37
ARM GAS  /tmp/ccIr6MbM.s 			page 18


 970              	.LVL75:
 971              	.L36:
 972              	.LBB213:
 973              	.LBB206:
 974              	.LBB178:
 975              		.loc 1 159 3 is_stmt 0 view .LVU281
 976 00b0 029F     		ldr	r7, [sp, #8]
 977              	.L30:
 978              		.loc 1 159 3 view .LVU282
 979              	.LBE178:
 980              	.LBE206:
 981              	.LBE213:
 982              		.loc 1 381 3 is_stmt 1 view .LVU283
 983 00b2 0398     		ldr	r0, [sp, #12]
 984 00b4 FFF7FEFF 		bl	chMtxUnlock
 985              	.LVL76:
 986              		.loc 1 383 3 view .LVU284
 987              		.loc 1 384 1 is_stmt 0 view .LVU285
 988 00b8 3846     		mov	r0, r7
 989 00ba 05B0     		add	sp, sp, #20
 990              		.cfi_remember_state
 991              		.cfi_def_cfa_offset 36
 992              		@ sp needed
 993 00bc BDE8F08F 		pop	{r4, r5, r6, r7, r8, r9, r10, fp, pc}
 994              	.LVL77:
 995              	.L33:
 996              		.cfi_restore_state
 997              	.LBB214:
 998              	.LBB207:
 999              	.LBB179:
 1000              		.loc 1 184 5 view .LVU286
 1001 00c0 2A46     		mov	r2, r5
 1002              	.LVL78:
 1003              		.loc 1 184 5 view .LVU287
 1004 00c2 FFF7FEFF 		bl	memcpy
 1005              	.LVL79:
 1006              		.loc 1 185 5 is_stmt 1 view .LVU288
 1007              		.loc 1 185 15 is_stmt 0 view .LVU289
 1008 00c6 2368     		ldr	r3, [r4]
 1009 00c8 E360     		str	r3, [r4, #12]
 1010 00ca D6E7     		b	.L32
 1011              	.L47:
 1012              		.loc 1 173 5 is_stmt 1 view .LVU290
 1013 00cc 2A46     		mov	r2, r5
 1014 00ce 3046     		mov	r0, r6
 1015 00d0 FFF7FEFF 		bl	memcpy
 1016              	.LVL80:
 1017              		.loc 1 174 5 view .LVU291
 1018              		.loc 1 174 15 is_stmt 0 view .LVU292
 1019 00d4 E368     		ldr	r3, [r4, #12]
 1020 00d6 2B44     		add	r3, r3, r5
 1021 00d8 E360     		str	r3, [r4, #12]
 1022 00da CEE7     		b	.L32
 1023              	.LBE179:
 1024              	.LBE207:
 1025              	.LBE214:
 1026              		.cfi_endproc
ARM GAS  /tmp/ccIr6MbM.s 			page 19


 1027              	.LFE340:
 1028              		.size	chPipeReadTimeout, .-chPipeReadTimeout
 1029              		.text
 1030              	.Letext0:
 1031              		.file 6 "/opt/gcc-arm-none-eabi/gcc-arm-none-eabi-10.3-2021.07/lib/gcc/arm-none-eabi/10.3.1/includ
 1032              		.file 7 "/opt/gcc-arm-none-eabi/gcc-arm-none-eabi-10.3-2021.07/arm-none-eabi/include/machine/_defa
 1033              		.file 8 "/opt/gcc-arm-none-eabi/gcc-arm-none-eabi-10.3-2021.07/arm-none-eabi/include/sys/_stdint.h
 1034              		.file 9 "../ChibiOS/os/common/ports/ARM-common/chtypes.h"
 1035              		.file 10 "../ChibiOS/os/rt/include/chearly.h"
 1036              		.file 11 "../ChibiOS/os/rt/include/chobjects.h"
 1037              		.file 12 "../ChibiOS/os/rt/include/chrfcu.h"
 1038              		.file 13 "../ChibiOS/os/rt/include/chdebug.h"
 1039              		.file 14 "../ChibiOS/os/rt/include/chtime.h"
 1040              		.file 15 "../ChibiOS/os/rt/include/chlists.h"
 1041              		.file 16 "../ChibiOS/os/rt/include/chsem.h"
 1042              		.file 17 "../ChibiOS/os/rt/include/chmtx.h"
 1043              		.file 18 "../ChibiOS/os/rt/include/chthreads.h"
 1044              		.file 19 "../ChibiOS/os/rt/include/chschd.h"
 1045              		.file 20 "<built-in>"