ARM GAS  /tmp/ccFeJWvy.s 			page 1


   1              		.cpu cortex-m4
   2              		.eabi_attribute 20, 1
   3              		.eabi_attribute 21, 1
   4              		.eabi_attribute 23, 3
   5              		.eabi_attribute 24, 1
   6              		.eabi_attribute 25, 1
   7              		.eabi_attribute 26, 1
   8              		.eabi_attribute 30, 2
   9              		.eabi_attribute 34, 1
  10              		.eabi_attribute 18, 4
  11              		.file	"chregistry.c"
  12              		.text
  13              	.Ltext0:
  14              		.cfi_sections	.debug_frame
  15              		.section	.text.chRegFirstThread,"ax",%progbits
  16              		.align	1
  17              		.p2align 4,,15
  18              		.global	chRegFirstThread
  19              		.arch armv7e-m
  20              		.syntax unified
  21              		.thumb
  22              		.thumb_func
  23              		.fpu softvfp
  24              		.type	chRegFirstThread, %function
  25              	chRegFirstThread:
  26              	.LFB335:
  27              		.file 1 "../ChibiOS/os/rt/src/chregistry.c"
  28              		.loc 1 159 34 view -0
  29              		.cfi_startproc
  30              		@ args = 0, pretend = 0, frame = 0
  31              		@ frame_needed = 0, uses_anonymous_args = 0
  32              		@ link register save eliminated.
  33              		.loc 1 160 3 view .LVU1
  34              		.loc 1 161 3 view .LVU2
  35              		.loc 1 163 3 view .LVU3
  36              	.LBB72:
  37              	.LBI72:
  38              		.file 2 "../ChibiOS/os/rt/include/chsys.h"
  39              		.loc 2 407 20 view .LVU4
  40              	.LBE72:
  41              		.loc 2 409 3 view .LVU5
  42              	.LBB77:
  43              	.LBB73:
  44              	.LBI73:
  45              		.file 3 "../ChibiOS/os/common/ports/ARMv7-M/chcore.h"
  46              		.loc 3 806 27 view .LVU6
  47              	.LBE73:
  48              	.LBE77:
  49              		.loc 3 814 3 view .LVU7
  50              	.LVL0:
  51              	.LBB78:
  52              	.LBB76:
  53              	.LBB74:
  54              	.LBI74:
  55              		.file 4 "../ChibiOS/os/common/ext/ARM/CMSIS/Core/Include/cmsis_gcc.h"
  56              		.loc 4 491 27 view .LVU8
  57              	.LBB75:
ARM GAS  /tmp/ccFeJWvy.s 			page 2


  58              		.loc 4 493 3 view .LVU9
  59 0000 3023     		movs	r3, #48
  60              		.syntax unified
  61              	@ 493 "../ChibiOS/os/common/ext/ARM/CMSIS/Core/Include/cmsis_gcc.h" 1
  62 0002 83F31188 		MSR basepri, r3
  63              	@ 0 "" 2
  64              	.LVL1:
  65              		.loc 4 493 3 is_stmt 0 view .LVU10
  66              		.thumb
  67              		.syntax unified
  68              	.LBE75:
  69              	.LBE74:
  70              	.LBE76:
  71              	.LBE78:
  72              		.loc 2 410 35 is_stmt 1 view .LVU11
  73              		.loc 2 411 21 view .LVU12
  74              		.loc 1 164 3 view .LVU13
  75              		.loc 1 164 5 is_stmt 0 view .LVU14
  76 0006 054B     		ldr	r3, .L3
  77 0008 986A     		ldr	r0, [r3, #40]
  78              	.LVL2:
  79              		.loc 1 166 3 is_stmt 1 view .LVU15
  80              		.loc 1 169 3 view .LVU16
  81              		.loc 1 169 11 is_stmt 0 view .LVU17
  82 000a 837D     		ldrb	r3, [r0, #22]	@ zero_extendqisi2
  83 000c 0133     		adds	r3, r3, #1
  84              	.LBB79:
  85              	.LBB80:
  86              	.LBB81:
  87              	.LBB82:
  88              	.LBB83:
  89              		.loc 4 493 3 view .LVU18
  90 000e 0022     		movs	r2, #0
  91              	.LBE83:
  92              	.LBE82:
  93              	.LBE81:
  94              	.LBE80:
  95              	.LBE79:
  96              		.loc 1 169 11 view .LVU19
  97 0010 8375     		strb	r3, [r0, #22]
  98              		.loc 1 171 3 is_stmt 1 view .LVU20
  99              	.LBB90:
 100              	.LBI79:
 101              		.loc 2 421 20 view .LVU21
 102              	.LBB88:
 103              		.loc 2 423 23 view .LVU22
 104              		.loc 2 424 34 view .LVU23
 105              		.loc 2 430 3 view .LVU24
 106              		.loc 2 430 3 view .LVU25
 107              		.loc 2 430 3 view .LVU26
 108              		.loc 2 434 3 view .LVU27
 109              	.LBB86:
 110              	.LBI81:
 111              		.loc 3 830 27 view .LVU28
 112              	.LBE86:
 113              	.LBE88:
 114              	.LBE90:
ARM GAS  /tmp/ccFeJWvy.s 			page 3


 115              		.loc 3 833 3 view .LVU29
 116              	.LVL3:
 117              	.LBB91:
 118              	.LBB89:
 119              	.LBB87:
 120              	.LBB85:
 121              	.LBI82:
 122              		.loc 4 491 27 view .LVU30
 123              	.LBB84:
 124              		.loc 4 493 3 view .LVU31
 125              		.syntax unified
 126              	@ 493 "../ChibiOS/os/common/ext/ARM/CMSIS/Core/Include/cmsis_gcc.h" 1
 127 0012 82F31188 		MSR basepri, r2
 128              	@ 0 "" 2
 129              	.LVL4:
 130              		.loc 4 493 3 is_stmt 0 view .LVU32
 131              		.thumb
 132              		.syntax unified
 133              	.LBE84:
 134              	.LBE85:
 135              	.LBE87:
 136              	.LBE89:
 137              	.LBE91:
 138              		.loc 1 173 3 is_stmt 1 view .LVU33
 139              		.loc 1 174 1 is_stmt 0 view .LVU34
 140 0016 1038     		subs	r0, r0, #16
 141              	.LVL5:
 142              		.loc 1 174 1 view .LVU35
 143 0018 7047     		bx	lr
 144              	.L4:
 145 001a 00BF     		.align	2
 146              	.L3:
 147 001c 00000000 		.word	ch0
 148              		.cfi_endproc
 149              	.LFE335:
 150              		.size	chRegFirstThread, .-chRegFirstThread
 151              		.section	.text.chRegNextThread,"ax",%progbits
 152              		.align	1
 153              		.p2align 4,,15
 154              		.global	chRegNextThread
 155              		.syntax unified
 156              		.thumb
 157              		.thumb_func
 158              		.fpu softvfp
 159              		.type	chRegNextThread, %function
 160              	chRegNextThread:
 161              	.LVL6:
 162              	.LFB336:
 163              		.loc 1 187 41 is_stmt 1 view -0
 164              		.cfi_startproc
 165              		@ args = 0, pretend = 0, frame = 0
 166              		@ frame_needed = 0, uses_anonymous_args = 0
 167              		.loc 1 188 3 view .LVU37
 168              		.loc 1 189 3 view .LVU38
 169              		.loc 1 191 3 view .LVU39
 170              	.LBB102:
 171              	.LBI102:
ARM GAS  /tmp/ccFeJWvy.s 			page 4


 172              		.loc 2 407 20 view .LVU40
 173              	.LBE102:
 174              		.loc 2 409 3 view .LVU41
 175              	.LBB110:
 176              	.LBB103:
 177              	.LBI103:
 178              		.loc 3 806 27 view .LVU42
 179              	.LBE103:
 180              	.LBE110:
 181              		.loc 3 814 3 view .LVU43
 182              	.LBB111:
 183              	.LBB108:
 184              	.LBB104:
 185              	.LBI104:
 186              		.loc 4 491 27 view .LVU44
 187              	.LBB105:
 188              		.loc 4 493 3 view .LVU45
 189              	.LBE105:
 190              	.LBE104:
 191              	.LBE108:
 192              	.LBE111:
 193              		.loc 1 187 41 is_stmt 0 view .LVU46
 194 0000 10B5     		push	{r4, lr}
 195              		.cfi_def_cfa_offset 8
 196              		.cfi_offset 4, -8
 197              		.cfi_offset 14, -4
 198              	.LBB112:
 199              	.LBB109:
 200              	.LBB107:
 201              	.LBB106:
 202              		.loc 4 493 3 view .LVU47
 203 0002 3023     		movs	r3, #48
 204              		.syntax unified
 205              	@ 493 "../ChibiOS/os/common/ext/ARM/CMSIS/Core/Include/cmsis_gcc.h" 1
 206 0004 83F31188 		MSR basepri, r3
 207              	@ 0 "" 2
 208              	.LVL7:
 209              		.loc 4 493 3 view .LVU48
 210              		.thumb
 211              		.syntax unified
 212              	.LBE106:
 213              	.LBE107:
 214              	.LBE109:
 215              	.LBE112:
 216              		.loc 2 410 35 is_stmt 1 view .LVU49
 217              		.loc 2 411 21 view .LVU50
 218              		.loc 1 194 3 view .LVU51
 219              		.loc 1 195 6 is_stmt 0 view .LVU52
 220 0008 0B4A     		ldr	r2, .L9
 221              		.loc 1 194 7 view .LVU53
 222 000a 0369     		ldr	r3, [r0, #16]
 223              	.LVL8:
 224              		.loc 1 195 3 is_stmt 1 view .LVU54
 225              		.loc 1 195 6 is_stmt 0 view .LVU55
 226 000c 9342     		cmp	r3, r2
 227 000e 0BD0     		beq	.L7
 228              	.LBB113:
ARM GAS  /tmp/ccFeJWvy.s 			page 5


 229              		.loc 1 199 5 is_stmt 1 view .LVU56
 230              	.LVL9:
 231              		.loc 1 201 5 view .LVU57
 232              		.loc 1 207 14 is_stmt 0 view .LVU58
 233 0010 9A7D     		ldrb	r2, [r3, #22]	@ zero_extendqisi2
 234 0012 0132     		adds	r2, r2, #1
 235              		.loc 1 201 9 view .LVU59
 236 0014 A3F11004 		sub	r4, r3, #16
 237              	.LVL10:
 238              		.loc 1 205 5 is_stmt 1 view .LVU60
 239              		.loc 1 205 5 view .LVU61
 240              		.loc 1 205 5 view .LVU62
 241              		.loc 1 207 5 view .LVU63
 242              		.loc 1 207 14 is_stmt 0 view .LVU64
 243 0018 9A75     		strb	r2, [r3, #22]
 244              		.loc 1 207 14 view .LVU65
 245              	.LBE113:
 246              		.loc 1 210 3 is_stmt 1 view .LVU66
 247              	.LBB114:
 248              	.LBI114:
 249              		.loc 2 421 20 view .LVU67
 250              	.LBB115:
 251              		.loc 2 423 23 view .LVU68
 252              		.loc 2 424 34 view .LVU69
 253              		.loc 2 430 3 view .LVU70
 254              		.loc 2 430 3 view .LVU71
 255              		.loc 2 430 3 view .LVU72
 256              		.loc 2 434 3 view .LVU73
 257              	.LBB116:
 258              	.LBI116:
 259              		.loc 3 830 27 view .LVU74
 260              	.LBE116:
 261              	.LBE115:
 262              	.LBE114:
 263              		.loc 3 833 3 view .LVU75
 264              	.LVL11:
 265              	.LBB127:
 266              	.LBB124:
 267              	.LBB121:
 268              	.LBB117:
 269              	.LBI117:
 270              		.loc 4 491 27 view .LVU76
 271              	.LBB118:
 272              		.loc 4 493 3 view .LVU77
 273 001a 0023     		movs	r3, #0
 274              	.LVL12:
 275              		.loc 4 493 3 is_stmt 0 view .LVU78
 276              		.syntax unified
 277              	@ 493 "../ChibiOS/os/common/ext/ARM/CMSIS/Core/Include/cmsis_gcc.h" 1
 278 001c 83F31188 		MSR basepri, r3
 279              	@ 0 "" 2
 280              	.LVL13:
 281              		.loc 4 493 3 view .LVU79
 282              		.thumb
 283              		.syntax unified
 284              	.LBE118:
 285              	.LBE117:
ARM GAS  /tmp/ccFeJWvy.s 			page 6


 286              	.LBE121:
 287              	.LBE124:
 288              	.LBE127:
 289              		.loc 1 212 3 is_stmt 1 view .LVU80
 290 0020 FFF7FEFF 		bl	chThdRelease
 291              	.LVL14:
 292              		.loc 1 215 3 view .LVU81
 293              		.loc 1 216 1 is_stmt 0 view .LVU82
 294 0024 2046     		mov	r0, r4
 295 0026 10BD     		pop	{r4, pc}
 296              	.LVL15:
 297              	.L7:
 298              		.loc 1 196 9 view .LVU83
 299 0028 0024     		movs	r4, #0
 300              	.LVL16:
 301              		.loc 1 210 3 is_stmt 1 view .LVU84
 302              	.LBB128:
 303              		.loc 2 421 20 view .LVU85
 304              	.LBB125:
 305              		.loc 2 423 23 view .LVU86
 306              		.loc 2 424 34 view .LVU87
 307              		.loc 2 430 3 view .LVU88
 308              		.loc 2 430 3 view .LVU89
 309              		.loc 2 430 3 view .LVU90
 310              		.loc 2 434 3 view .LVU91
 311              	.LBB122:
 312              		.loc 3 830 27 view .LVU92
 313              	.LBE122:
 314              	.LBE125:
 315              	.LBE128:
 316              		.loc 3 833 3 view .LVU93
 317              	.LBB129:
 318              	.LBB126:
 319              	.LBB123:
 320              	.LBB120:
 321              		.loc 4 491 27 view .LVU94
 322              	.LBB119:
 323              		.loc 4 493 3 view .LVU95
 324 002a 0023     		movs	r3, #0
 325              	.LVL17:
 326              		.loc 4 493 3 is_stmt 0 view .LVU96
 327              		.syntax unified
 328              	@ 493 "../ChibiOS/os/common/ext/ARM/CMSIS/Core/Include/cmsis_gcc.h" 1
 329 002c 83F31188 		MSR basepri, r3
 330              	@ 0 "" 2
 331              	.LVL18:
 332              		.loc 4 493 3 view .LVU97
 333              		.thumb
 334              		.syntax unified
 335              	.LBE119:
 336              	.LBE120:
 337              	.LBE123:
 338              	.LBE126:
 339              	.LBE129:
 340              		.loc 1 212 3 is_stmt 1 view .LVU98
 341 0030 FFF7FEFF 		bl	chThdRelease
 342              	.LVL19:
ARM GAS  /tmp/ccFeJWvy.s 			page 7


 343              		.loc 1 215 3 view .LVU99
 344              		.loc 1 216 1 is_stmt 0 view .LVU100
 345 0034 2046     		mov	r0, r4
 346 0036 10BD     		pop	{r4, pc}
 347              	.LVL20:
 348              	.L10:
 349              		.loc 1 216 1 view .LVU101
 350              		.align	2
 351              	.L9:
 352 0038 28000000 		.word	ch0+40
 353              		.cfi_endproc
 354              	.LFE336:
 355              		.size	chRegNextThread, .-chRegNextThread
 356              		.section	.text.chRegFindThreadByName,"ax",%progbits
 357              		.align	1
 358              		.p2align 4,,15
 359              		.global	chRegFindThreadByName
 360              		.syntax unified
 361              		.thumb
 362              		.thumb_func
 363              		.fpu softvfp
 364              		.type	chRegFindThreadByName, %function
 365              	chRegFindThreadByName:
 366              	.LVL21:
 367              	.LFB337:
 368              		.loc 1 230 51 is_stmt 1 view -0
 369              		.cfi_startproc
 370              		@ args = 0, pretend = 0, frame = 0
 371              		@ frame_needed = 0, uses_anonymous_args = 0
 372              		.loc 1 231 3 view .LVU103
 373              		.loc 1 234 3 view .LVU104
 374              	.LBB155:
 375              	.LBI155:
 376              		.loc 1 159 11 view .LVU105
 377              	.LBB156:
 378              		.loc 1 160 3 view .LVU106
 379              		.loc 1 161 3 view .LVU107
 380              		.loc 1 163 3 view .LVU108
 381              	.LBB157:
 382              	.LBI157:
 383              		.loc 2 407 20 view .LVU109
 384              	.LBE157:
 385              	.LBE156:
 386              	.LBE155:
 387              		.loc 2 409 3 view .LVU110
 388              	.LBB181:
 389              	.LBB176:
 390              	.LBB165:
 391              	.LBB158:
 392              	.LBI158:
 393              		.loc 3 806 27 view .LVU111
 394              	.LBE158:
 395              	.LBE165:
 396              	.LBE176:
 397              	.LBE181:
 398              		.loc 3 814 3 view .LVU112
 399              	.LBB182:
ARM GAS  /tmp/ccFeJWvy.s 			page 8


 400              	.LBB177:
 401              	.LBB166:
 402              	.LBB163:
 403              	.LBB159:
 404              	.LBI159:
 405              		.loc 4 491 27 view .LVU113
 406              	.LBB160:
 407              		.loc 4 493 3 view .LVU114
 408              	.LBE160:
 409              	.LBE159:
 410              	.LBE163:
 411              	.LBE166:
 412              	.LBE177:
 413              	.LBE182:
 414              		.loc 1 230 51 is_stmt 0 view .LVU115
 415 0000 2DE9F843 		push	{r3, r4, r5, r6, r7, r8, r9, lr}
 416              		.cfi_def_cfa_offset 32
 417              		.cfi_offset 3, -32
 418              		.cfi_offset 4, -28
 419              		.cfi_offset 5, -24
 420              		.cfi_offset 6, -20
 421              		.cfi_offset 7, -16
 422              		.cfi_offset 8, -12
 423              		.cfi_offset 9, -8
 424              		.cfi_offset 14, -4
 425              		.loc 1 230 51 view .LVU116
 426 0004 0546     		mov	r5, r0
 427              	.LBB183:
 428              	.LBB178:
 429              	.LBB167:
 430              	.LBB164:
 431              	.LBB162:
 432              	.LBB161:
 433              		.loc 4 493 3 view .LVU117
 434 0006 3027     		movs	r7, #48
 435              		.syntax unified
 436              	@ 493 "../ChibiOS/os/common/ext/ARM/CMSIS/Core/Include/cmsis_gcc.h" 1
 437 0008 87F31188 		MSR basepri, r7
 438              	@ 0 "" 2
 439              	.LVL22:
 440              		.loc 4 493 3 view .LVU118
 441              		.thumb
 442              		.syntax unified
 443              	.LBE161:
 444              	.LBE162:
 445              	.LBE164:
 446              	.LBE167:
 447              	.LBE178:
 448              	.LBE183:
 449              		.loc 2 410 35 is_stmt 1 view .LVU119
 450              		.loc 2 411 21 view .LVU120
 451              	.LBB184:
 452              	.LBB179:
 453              		.loc 1 164 3 view .LVU121
 454              		.loc 1 164 5 is_stmt 0 view .LVU122
 455 000c 154E     		ldr	r6, .L19
 456 000e 56F8283F 		ldr	r3, [r6, #40]!
ARM GAS  /tmp/ccFeJWvy.s 			page 9


 457              	.LVL23:
 458              		.loc 1 166 3 is_stmt 1 view .LVU123
 459              		.loc 1 169 11 is_stmt 0 view .LVU124
 460 0012 9A7D     		ldrb	r2, [r3, #22]	@ zero_extendqisi2
 461 0014 0132     		adds	r2, r2, #1
 462              		.loc 1 166 6 view .LVU125
 463 0016 A3F11004 		sub	r4, r3, #16
 464              	.LVL24:
 465              		.loc 1 169 3 is_stmt 1 view .LVU126
 466              		.loc 1 169 11 is_stmt 0 view .LVU127
 467 001a 9A75     		strb	r2, [r3, #22]
 468              		.loc 1 171 3 is_stmt 1 view .LVU128
 469              	.LBB168:
 470              	.LBI168:
 471              		.loc 2 421 20 view .LVU129
 472              	.LBB169:
 473              		.loc 2 423 23 view .LVU130
 474              		.loc 2 424 34 view .LVU131
 475              		.loc 2 430 3 view .LVU132
 476              		.loc 2 430 3 view .LVU133
 477              		.loc 2 430 3 view .LVU134
 478              		.loc 2 434 3 view .LVU135
 479              	.LBB170:
 480              	.LBI170:
 481              		.loc 3 830 27 view .LVU136
 482              	.LBE170:
 483              	.LBE169:
 484              	.LBE168:
 485              	.LBE179:
 486              	.LBE184:
 487              		.loc 3 833 3 view .LVU137
 488              	.LVL25:
 489              	.LBB185:
 490              	.LBB180:
 491              	.LBB175:
 492              	.LBB174:
 493              	.LBB173:
 494              	.LBB171:
 495              	.LBI171:
 496              		.loc 4 491 27 view .LVU138
 497              	.LBB172:
 498              		.loc 4 493 3 view .LVU139
 499 001c 4FF00008 		mov	r8, #0
 500              		.syntax unified
 501              	@ 493 "../ChibiOS/os/common/ext/ARM/CMSIS/Core/Include/cmsis_gcc.h" 1
 502 0020 88F31188 		MSR basepri, r8
 503              	@ 0 "" 2
 504              	.LVL26:
 505              		.loc 4 493 3 is_stmt 0 view .LVU140
 506              		.thumb
 507              		.syntax unified
 508              	.LBE172:
 509              	.LBE171:
 510              	.LBE173:
 511              	.LBE174:
 512              	.LBE175:
 513              		.loc 1 173 3 is_stmt 1 view .LVU141
ARM GAS  /tmp/ccFeJWvy.s 			page 10


 514              		.loc 1 173 3 is_stmt 0 view .LVU142
 515 0024 08E0     		b	.L14
 516              	.LVL27:
 517              	.L13:
 518              		.loc 1 173 3 view .LVU143
 519              	.LBE180:
 520              	.LBE185:
 521              	.LBB186:
 522              	.LBB187:
 523              	.LBB188:
 524              		.loc 1 207 14 view .LVU144
 525 0026 9A7D     		ldrb	r2, [r3, #22]	@ zero_extendqisi2
 526 0028 0132     		adds	r2, r2, #1
 527 002a 9A75     		strb	r2, [r3, #22]
 528              		.loc 1 207 14 view .LVU145
 529              	.LBE188:
 530              		.loc 1 210 3 is_stmt 1 view .LVU146
 531              	.LBB189:
 532              	.LBI189:
 533              		.loc 2 421 20 view .LVU147
 534              	.LBB190:
 535              		.loc 2 423 23 view .LVU148
 536              		.loc 2 424 34 view .LVU149
 537              		.loc 2 430 3 view .LVU150
 538              		.loc 2 430 3 view .LVU151
 539              		.loc 2 430 3 view .LVU152
 540              		.loc 2 434 3 view .LVU153
 541              	.LBB191:
 542              	.LBI191:
 543              		.loc 3 830 27 view .LVU154
 544              	.LBE191:
 545              	.LBE190:
 546              	.LBE189:
 547              	.LBE187:
 548              	.LBE186:
 549              		.loc 3 833 3 view .LVU155
 550              	.LVL28:
 551              	.LBB227:
 552              	.LBB219:
 553              	.LBB202:
 554              	.LBB199:
 555              	.LBB196:
 556              	.LBB192:
 557              	.LBI192:
 558              		.loc 4 491 27 view .LVU156
 559              	.LBB193:
 560              		.loc 4 493 3 view .LVU157
 561              		.syntax unified
 562              	@ 493 "../ChibiOS/os/common/ext/ARM/CMSIS/Core/Include/cmsis_gcc.h" 1
 563 002c 88F31188 		MSR basepri, r8
 564              	@ 0 "" 2
 565              	.LVL29:
 566              		.loc 4 493 3 is_stmt 0 view .LVU158
 567              		.thumb
 568              		.syntax unified
 569              	.LBE193:
 570              	.LBE192:
ARM GAS  /tmp/ccFeJWvy.s 			page 11


 571              	.LBE196:
 572              	.LBE199:
 573              	.LBE202:
 574              		.loc 1 212 3 is_stmt 1 view .LVU159
 575 0030 2046     		mov	r0, r4
 576 0032 FFF7FEFF 		bl	chThdRelease
 577              	.LVL30:
 578              		.loc 1 215 3 view .LVU160
 579              		.loc 1 215 3 is_stmt 0 view .LVU161
 580              	.LBE219:
 581              	.LBE227:
 582              		.loc 1 240 11 is_stmt 1 view .LVU162
 583              	.LBB228:
 584              	.LBB220:
 585              		.loc 1 212 3 is_stmt 0 view .LVU163
 586 0036 4C46     		mov	r4, r9
 587              	.LVL31:
 588              	.L14:
 589              		.loc 1 212 3 view .LVU164
 590              	.LBE220:
 591              	.LBE228:
 592              		.loc 1 235 3 is_stmt 1 view .LVU165
 593              		.loc 1 236 5 view .LVU166
 594              	.LBB229:
 595              	.LBI229:
 596              		.file 5 "../ChibiOS/os/rt/include/chregistry.h"
 597              		.loc 5 185 27 view .LVU167
 598              	.LBB230:
 599              		.loc 5 188 3 view .LVU168
 600              		.loc 5 188 3 is_stmt 0 view .LVU169
 601              	.LBE230:
 602              	.LBE229:
 603              		.loc 1 236 9 view .LVU170
 604 0038 E069     		ldr	r0, [r4, #28]
 605 003a 2946     		mov	r1, r5
 606 003c FFF7FEFF 		bl	strcmp
 607              	.LVL32:
 608              		.loc 1 239 5 is_stmt 1 view .LVU171
 609              	.LBB231:
 610              	.LBI186:
 611              		.loc 1 187 11 view .LVU172
 612              	.LBB221:
 613              		.loc 1 188 3 view .LVU173
 614              		.loc 1 189 3 view .LVU174
 615              		.loc 1 191 3 view .LVU175
 616              	.LBB203:
 617              	.LBI203:
 618              		.loc 2 407 20 view .LVU176
 619              	.LBE203:
 620              	.LBE221:
 621              	.LBE231:
 622              		.loc 2 409 3 view .LVU177
 623              	.LBB232:
 624              	.LBB222:
 625              	.LBB211:
 626              	.LBB204:
 627              	.LBI204:
ARM GAS  /tmp/ccFeJWvy.s 			page 12


 628              		.loc 3 806 27 view .LVU178
 629              	.LBE204:
 630              	.LBE211:
 631              	.LBE222:
 632              	.LBE232:
 633              		.loc 3 814 3 view .LVU179
 634              	.LBB233:
 635              	.LBB223:
 636              	.LBB212:
 637              	.LBB209:
 638              	.LBB205:
 639              	.LBI205:
 640              		.loc 4 491 27 view .LVU180
 641              	.LBB206:
 642              		.loc 4 493 3 view .LVU181
 643              	.LBE206:
 644              	.LBE205:
 645              	.LBE209:
 646              	.LBE212:
 647              	.LBE223:
 648              	.LBE233:
 649              		.loc 1 236 8 is_stmt 0 view .LVU182
 650 0040 68B1     		cbz	r0, .L11
 651              	.LBB234:
 652              	.LBB224:
 653              	.LBB213:
 654              	.LBB210:
 655              	.LBB208:
 656              	.LBB207:
 657              		.loc 4 493 3 view .LVU183
 658              		.syntax unified
 659              	@ 493 "../ChibiOS/os/common/ext/ARM/CMSIS/Core/Include/cmsis_gcc.h" 1
 660 0042 87F31188 		MSR basepri, r7
 661              	@ 0 "" 2
 662              	.LVL33:
 663              		.loc 4 493 3 view .LVU184
 664              		.thumb
 665              		.syntax unified
 666              	.LBE207:
 667              	.LBE208:
 668              	.LBE210:
 669              	.LBE213:
 670              	.LBE224:
 671              	.LBE234:
 672              		.loc 2 410 35 is_stmt 1 view .LVU185
 673              		.loc 2 411 21 view .LVU186
 674              	.LBB235:
 675              	.LBB225:
 676              		.loc 1 194 3 view .LVU187
 677              	.LBB214:
 678              		.loc 1 199 5 view .LVU188
 679              	.LBE214:
 680              		.loc 1 194 7 is_stmt 0 view .LVU189
 681 0046 2369     		ldr	r3, [r4, #16]
 682              	.LVL34:
 683              		.loc 1 195 3 is_stmt 1 view .LVU190
 684              	.LBB215:
ARM GAS  /tmp/ccFeJWvy.s 			page 13


 685              		.loc 1 201 5 view .LVU191
 686              	.LBE215:
 687              		.loc 1 195 6 is_stmt 0 view .LVU192
 688 0048 B342     		cmp	r3, r6
 689              	.LBB216:
 690              		.loc 1 201 9 view .LVU193
 691 004a A3F11009 		sub	r9, r3, #16
 692              	.LVL35:
 693              		.loc 1 205 5 is_stmt 1 view .LVU194
 694              		.loc 1 205 5 view .LVU195
 695              		.loc 1 205 5 view .LVU196
 696              		.loc 1 207 5 view .LVU197
 697              	.LBE216:
 698              		.loc 1 195 6 is_stmt 0 view .LVU198
 699 004e EAD1     		bne	.L13
 700              	.LVL36:
 701              		.loc 1 210 3 is_stmt 1 view .LVU199
 702              	.LBB217:
 703              		.loc 2 421 20 view .LVU200
 704              	.LBB200:
 705              		.loc 2 423 23 view .LVU201
 706              		.loc 2 424 34 view .LVU202
 707              		.loc 2 430 3 view .LVU203
 708              		.loc 2 430 3 view .LVU204
 709              		.loc 2 430 3 view .LVU205
 710              		.loc 2 434 3 view .LVU206
 711              	.LBB197:
 712              		.loc 3 830 27 view .LVU207
 713              	.LBE197:
 714              	.LBE200:
 715              	.LBE217:
 716              	.LBE225:
 717              	.LBE235:
 718              		.loc 3 833 3 view .LVU208
 719              	.LBB236:
 720              	.LBB226:
 721              	.LBB218:
 722              	.LBB201:
 723              	.LBB198:
 724              	.LBB195:
 725              		.loc 4 491 27 view .LVU209
 726              	.LBB194:
 727              		.loc 4 493 3 view .LVU210
 728 0050 0025     		movs	r5, #0
 729              	.LVL37:
 730              		.loc 4 493 3 is_stmt 0 view .LVU211
 731              		.syntax unified
 732              	@ 493 "../ChibiOS/os/common/ext/ARM/CMSIS/Core/Include/cmsis_gcc.h" 1
 733 0052 85F31188 		MSR basepri, r5
 734              	@ 0 "" 2
 735              	.LVL38:
 736              		.loc 4 493 3 view .LVU212
 737              		.thumb
 738              		.syntax unified
 739              	.LBE194:
 740              	.LBE195:
 741              	.LBE198:
ARM GAS  /tmp/ccFeJWvy.s 			page 14


 742              	.LBE201:
 743              	.LBE218:
 744              		.loc 1 212 3 is_stmt 1 view .LVU213
 745 0056 2046     		mov	r0, r4
 746 0058 FFF7FEFF 		bl	chThdRelease
 747              	.LVL39:
 748              		.loc 1 215 3 view .LVU214
 749              		.loc 1 215 3 is_stmt 0 view .LVU215
 750              	.LBE226:
 751              	.LBE236:
 752              		.loc 1 240 11 is_stmt 1 view .LVU216
 753              		.loc 1 242 10 is_stmt 0 view .LVU217
 754 005c 2C46     		mov	r4, r5
 755              	.LVL40:
 756              	.L11:
 757              		.loc 1 243 1 view .LVU218
 758 005e 2046     		mov	r0, r4
 759 0060 BDE8F883 		pop	{r3, r4, r5, r6, r7, r8, r9, pc}
 760              	.L20:
 761              		.align	2
 762              	.L19:
 763 0064 00000000 		.word	ch0
 764              		.cfi_endproc
 765              	.LFE337:
 766              		.size	chRegFindThreadByName, .-chRegFindThreadByName
 767              		.section	.text.chRegFindThreadByPointer,"ax",%progbits
 768              		.align	1
 769              		.p2align 4,,15
 770              		.global	chRegFindThreadByPointer
 771              		.syntax unified
 772              		.thumb
 773              		.thumb_func
 774              		.fpu softvfp
 775              		.type	chRegFindThreadByPointer, %function
 776              	chRegFindThreadByPointer:
 777              	.LVL41:
 778              	.LFB338:
 779              		.loc 1 257 50 is_stmt 1 view -0
 780              		.cfi_startproc
 781              		@ args = 0, pretend = 0, frame = 0
 782              		@ frame_needed = 0, uses_anonymous_args = 0
 783              		.loc 1 258 3 view .LVU220
 784              		.loc 1 261 3 view .LVU221
 785              	.LBB260:
 786              	.LBI260:
 787              		.loc 1 159 11 view .LVU222
 788              	.LBB261:
 789              		.loc 1 160 3 view .LVU223
 790              		.loc 1 161 3 view .LVU224
 791              		.loc 1 163 3 view .LVU225
 792              	.LBB262:
 793              	.LBI262:
 794              		.loc 2 407 20 view .LVU226
 795              	.LBE262:
 796              	.LBE261:
 797              	.LBE260:
 798              		.loc 2 409 3 view .LVU227
ARM GAS  /tmp/ccFeJWvy.s 			page 15


 799              	.LBB286:
 800              	.LBB281:
 801              	.LBB270:
 802              	.LBB263:
 803              	.LBI263:
 804              		.loc 3 806 27 view .LVU228
 805              	.LBE263:
 806              	.LBE270:
 807              	.LBE281:
 808              	.LBE286:
 809              		.loc 3 814 3 view .LVU229
 810              	.LBB287:
 811              	.LBB282:
 812              	.LBB271:
 813              	.LBB268:
 814              	.LBB264:
 815              	.LBI264:
 816              		.loc 4 491 27 view .LVU230
 817              	.LBB265:
 818              		.loc 4 493 3 view .LVU231
 819              	.LBE265:
 820              	.LBE264:
 821              	.LBE268:
 822              	.LBE271:
 823              	.LBE282:
 824              	.LBE287:
 825              		.loc 1 257 50 is_stmt 0 view .LVU232
 826 0000 2DE9F041 		push	{r4, r5, r6, r7, r8, lr}
 827              		.cfi_def_cfa_offset 24
 828              		.cfi_offset 4, -24
 829              		.cfi_offset 5, -20
 830              		.cfi_offset 6, -16
 831              		.cfi_offset 7, -12
 832              		.cfi_offset 8, -8
 833              		.cfi_offset 14, -4
 834              		.loc 1 257 50 view .LVU233
 835 0004 0646     		mov	r6, r0
 836              	.LBB288:
 837              	.LBB283:
 838              	.LBB272:
 839              	.LBB269:
 840              	.LBB267:
 841              	.LBB266:
 842              		.loc 4 493 3 view .LVU234
 843 0006 3027     		movs	r7, #48
 844              		.syntax unified
 845              	@ 493 "../ChibiOS/os/common/ext/ARM/CMSIS/Core/Include/cmsis_gcc.h" 1
 846 0008 87F31188 		MSR basepri, r7
 847              	@ 0 "" 2
 848              	.LVL42:
 849              		.loc 4 493 3 view .LVU235
 850              		.thumb
 851              		.syntax unified
 852              	.LBE266:
 853              	.LBE267:
 854              	.LBE269:
 855              	.LBE272:
ARM GAS  /tmp/ccFeJWvy.s 			page 16


 856              	.LBE283:
 857              	.LBE288:
 858              		.loc 2 410 35 is_stmt 1 view .LVU236
 859              		.loc 2 411 21 view .LVU237
 860              	.LBB289:
 861              	.LBB284:
 862              		.loc 1 164 3 view .LVU238
 863              		.loc 1 164 5 is_stmt 0 view .LVU239
 864 000c 144D     		ldr	r5, .L28
 865 000e AB6A     		ldr	r3, [r5, #40]
 866              	.LVL43:
 867              		.loc 1 166 3 is_stmt 1 view .LVU240
 868              		.loc 1 169 11 is_stmt 0 view .LVU241
 869 0010 9A7D     		ldrb	r2, [r3, #22]	@ zero_extendqisi2
 870 0012 0132     		adds	r2, r2, #1
 871              		.loc 1 166 6 view .LVU242
 872 0014 A3F11000 		sub	r0, r3, #16
 873              	.LVL44:
 874              		.loc 1 169 3 is_stmt 1 view .LVU243
 875              		.loc 1 169 11 is_stmt 0 view .LVU244
 876 0018 9A75     		strb	r2, [r3, #22]
 877              		.loc 1 171 3 is_stmt 1 view .LVU245
 878              	.LBB273:
 879              	.LBI273:
 880              		.loc 2 421 20 view .LVU246
 881              	.LBB274:
 882              		.loc 2 423 23 view .LVU247
 883              		.loc 2 424 34 view .LVU248
 884              		.loc 2 430 3 view .LVU249
 885              		.loc 2 430 3 view .LVU250
 886              		.loc 2 430 3 view .LVU251
 887              		.loc 2 434 3 view .LVU252
 888              	.LBB275:
 889              	.LBI275:
 890              		.loc 3 830 27 view .LVU253
 891              	.LBE275:
 892              	.LBE274:
 893              	.LBE273:
 894              	.LBE284:
 895              	.LBE289:
 896              		.loc 3 833 3 view .LVU254
 897              	.LVL45:
 898              	.LBB290:
 899              	.LBB285:
 900              	.LBB280:
 901              	.LBB279:
 902              	.LBB278:
 903              	.LBB276:
 904              	.LBI276:
 905              		.loc 4 491 27 view .LVU255
 906              	.LBB277:
 907              		.loc 4 493 3 view .LVU256
 908 001a 4FF00008 		mov	r8, #0
 909              		.syntax unified
 910              	@ 493 "../ChibiOS/os/common/ext/ARM/CMSIS/Core/Include/cmsis_gcc.h" 1
 911 001e 88F31188 		MSR basepri, r8
 912              	@ 0 "" 2
ARM GAS  /tmp/ccFeJWvy.s 			page 17


 913              	.LVL46:
 914              		.loc 4 493 3 is_stmt 0 view .LVU257
 915              		.thumb
 916              		.syntax unified
 917              	.LBE277:
 918              	.LBE276:
 919              	.LBE278:
 920              	.LBE279:
 921              	.LBE280:
 922              		.loc 1 173 3 is_stmt 1 view .LVU258
 923              		.loc 1 173 3 is_stmt 0 view .LVU259
 924              	.LBE285:
 925              	.LBE290:
 926              		.loc 1 262 3 is_stmt 1 view .LVU260
 927              		.loc 1 263 5 view .LVU261
 928              		.loc 1 263 8 is_stmt 0 view .LVU262
 929 0022 8642     		cmp	r6, r0
 930 0024 1AD0     		beq	.L25
 931 0026 2835     		adds	r5, r5, #40
 932 0028 09E0     		b	.L24
 933              	.LVL47:
 934              	.L23:
 935              	.LBB291:
 936              	.LBB292:
 937              	.LBB293:
 938              		.loc 1 207 14 view .LVU263
 939 002a 9A7D     		ldrb	r2, [r3, #22]	@ zero_extendqisi2
 940 002c 0132     		adds	r2, r2, #1
 941 002e 9A75     		strb	r2, [r3, #22]
 942              		.loc 1 207 14 view .LVU264
 943              	.LBE293:
 944              		.loc 1 210 3 is_stmt 1 view .LVU265
 945              	.LBB294:
 946              	.LBI294:
 947              		.loc 2 421 20 view .LVU266
 948              	.LBB295:
 949              		.loc 2 423 23 view .LVU267
 950              		.loc 2 424 34 view .LVU268
 951              		.loc 2 430 3 view .LVU269
 952              		.loc 2 430 3 view .LVU270
 953              		.loc 2 430 3 view .LVU271
 954              		.loc 2 434 3 view .LVU272
 955              	.LBB296:
 956              	.LBI296:
 957              		.loc 3 830 27 view .LVU273
 958              	.LBE296:
 959              	.LBE295:
 960              	.LBE294:
 961              	.LBE292:
 962              	.LBE291:
 963              		.loc 3 833 3 view .LVU274
 964              	.LVL48:
 965              	.LBB326:
 966              	.LBB320:
 967              	.LBB307:
 968              	.LBB304:
 969              	.LBB301:
ARM GAS  /tmp/ccFeJWvy.s 			page 18


 970              	.LBB297:
 971              	.LBI297:
 972              		.loc 4 491 27 view .LVU275
 973              	.LBB298:
 974              		.loc 4 493 3 view .LVU276
 975              		.syntax unified
 976              	@ 493 "../ChibiOS/os/common/ext/ARM/CMSIS/Core/Include/cmsis_gcc.h" 1
 977 0030 88F31188 		MSR basepri, r8
 978              	@ 0 "" 2
 979              	.LVL49:
 980              		.loc 4 493 3 is_stmt 0 view .LVU277
 981              		.thumb
 982              		.syntax unified
 983              	.LBE298:
 984              	.LBE297:
 985              	.LBE301:
 986              	.LBE304:
 987              	.LBE307:
 988              		.loc 1 212 3 is_stmt 1 view .LVU278
 989 0034 FFF7FEFF 		bl	chThdRelease
 990              	.LVL50:
 991              		.loc 1 215 3 view .LVU279
 992              		.loc 1 215 3 is_stmt 0 view .LVU280
 993              	.LBE320:
 994              	.LBE326:
 995              		.loc 1 267 11 is_stmt 1 view .LVU281
 996              		.loc 1 262 3 view .LVU282
 997              		.loc 1 263 5 view .LVU283
 998              		.loc 1 263 8 is_stmt 0 view .LVU284
 999 0038 A642     		cmp	r6, r4
 1000 003a 0CD0     		beq	.L21
 1001              		.loc 1 263 8 view .LVU285
 1002 003c 2046     		mov	r0, r4
 1003              	.LVL51:
 1004              	.L24:
 1005              		.loc 1 266 5 is_stmt 1 view .LVU286
 1006              	.LBB327:
 1007              	.LBI291:
 1008              		.loc 1 187 11 view .LVU287
 1009              	.LBB321:
 1010              		.loc 1 188 3 view .LVU288
 1011              		.loc 1 189 3 view .LVU289
 1012              		.loc 1 191 3 view .LVU290
 1013              	.LBB308:
 1014              	.LBI308:
 1015              		.loc 2 407 20 view .LVU291
 1016              	.LBE308:
 1017              	.LBE321:
 1018              	.LBE327:
 1019              		.loc 2 409 3 view .LVU292
 1020              	.LBB328:
 1021              	.LBB322:
 1022              	.LBB313:
 1023              	.LBB309:
 1024              	.LBI309:
 1025              		.loc 3 806 27 view .LVU293
 1026              	.LBE309:
ARM GAS  /tmp/ccFeJWvy.s 			page 19


 1027              	.LBE313:
 1028              	.LBE322:
 1029              	.LBE328:
 1030              		.loc 3 814 3 view .LVU294
 1031              	.LBB329:
 1032              	.LBB323:
 1033              	.LBB314:
 1034              	.LBB312:
 1035              	.LBB310:
 1036              	.LBI310:
 1037              		.loc 4 491 27 view .LVU295
 1038              	.LBB311:
 1039              		.loc 4 493 3 view .LVU296
 1040              		.syntax unified
 1041              	@ 493 "../ChibiOS/os/common/ext/ARM/CMSIS/Core/Include/cmsis_gcc.h" 1
 1042 003e 87F31188 		MSR basepri, r7
 1043              	@ 0 "" 2
 1044              	.LVL52:
 1045              		.loc 4 493 3 is_stmt 0 view .LVU297
 1046              		.thumb
 1047              		.syntax unified
 1048              	.LBE311:
 1049              	.LBE310:
 1050              	.LBE312:
 1051              	.LBE314:
 1052              	.LBE323:
 1053              	.LBE329:
 1054              		.loc 2 410 35 is_stmt 1 view .LVU298
 1055              		.loc 2 411 21 view .LVU299
 1056              	.LBB330:
 1057              	.LBB324:
 1058              		.loc 1 194 3 view .LVU300
 1059              	.LBB315:
 1060              		.loc 1 199 5 view .LVU301
 1061              	.LBE315:
 1062              		.loc 1 194 7 is_stmt 0 view .LVU302
 1063 0042 0369     		ldr	r3, [r0, #16]
 1064              	.LVL53:
 1065              		.loc 1 195 3 is_stmt 1 view .LVU303
 1066              	.LBB316:
 1067              		.loc 1 201 5 view .LVU304
 1068              	.LBE316:
 1069              		.loc 1 195 6 is_stmt 0 view .LVU305
 1070 0044 AB42     		cmp	r3, r5
 1071              	.LBB317:
 1072              		.loc 1 201 9 view .LVU306
 1073 0046 A3F11004 		sub	r4, r3, #16
 1074              	.LVL54:
 1075              		.loc 1 205 5 is_stmt 1 view .LVU307
 1076              		.loc 1 205 5 view .LVU308
 1077              		.loc 1 205 5 view .LVU309
 1078              		.loc 1 207 5 view .LVU310
 1079              	.LBE317:
 1080              		.loc 1 195 6 is_stmt 0 view .LVU311
 1081 004a EED1     		bne	.L23
 1082              	.LVL55:
 1083              		.loc 1 210 3 is_stmt 1 view .LVU312
ARM GAS  /tmp/ccFeJWvy.s 			page 20


 1084              	.LBB318:
 1085              		.loc 2 421 20 view .LVU313
 1086              	.LBB305:
 1087              		.loc 2 423 23 view .LVU314
 1088              		.loc 2 424 34 view .LVU315
 1089              		.loc 2 430 3 view .LVU316
 1090              		.loc 2 430 3 view .LVU317
 1091              		.loc 2 430 3 view .LVU318
 1092              		.loc 2 434 3 view .LVU319
 1093              	.LBB302:
 1094              		.loc 3 830 27 view .LVU320
 1095              	.LBE302:
 1096              	.LBE305:
 1097              	.LBE318:
 1098              	.LBE324:
 1099              	.LBE330:
 1100              		.loc 3 833 3 view .LVU321
 1101              	.LBB331:
 1102              	.LBB325:
 1103              	.LBB319:
 1104              	.LBB306:
 1105              	.LBB303:
 1106              	.LBB300:
 1107              		.loc 4 491 27 view .LVU322
 1108              	.LBB299:
 1109              		.loc 4 493 3 view .LVU323
 1110 004c 0024     		movs	r4, #0
 1111              		.syntax unified
 1112              	@ 493 "../ChibiOS/os/common/ext/ARM/CMSIS/Core/Include/cmsis_gcc.h" 1
 1113 004e 84F31188 		MSR basepri, r4
 1114              	@ 0 "" 2
 1115              	.LVL56:
 1116              		.loc 4 493 3 is_stmt 0 view .LVU324
 1117              		.thumb
 1118              		.syntax unified
 1119              	.LBE299:
 1120              	.LBE300:
 1121              	.LBE303:
 1122              	.LBE306:
 1123              	.LBE319:
 1124              		.loc 1 212 3 is_stmt 1 view .LVU325
 1125 0052 FFF7FEFF 		bl	chThdRelease
 1126              	.LVL57:
 1127              		.loc 1 215 3 view .LVU326
 1128              		.loc 1 215 3 is_stmt 0 view .LVU327
 1129              	.LBE325:
 1130              	.LBE331:
 1131              		.loc 1 267 11 is_stmt 1 view .LVU328
 1132              	.L21:
 1133              		.loc 1 270 1 is_stmt 0 view .LVU329
 1134 0056 2046     		mov	r0, r4
 1135 0058 BDE8F081 		pop	{r4, r5, r6, r7, r8, pc}
 1136              	.LVL58:
 1137              	.L25:
 1138              		.loc 1 263 8 view .LVU330
 1139 005c 3446     		mov	r4, r6
 1140 005e FAE7     		b	.L21
ARM GAS  /tmp/ccFeJWvy.s 			page 21


 1141              	.L29:
 1142              		.align	2
 1143              	.L28:
 1144 0060 00000000 		.word	ch0
 1145              		.cfi_endproc
 1146              	.LFE338:
 1147              		.size	chRegFindThreadByPointer, .-chRegFindThreadByPointer
 1148              		.section	.text.chRegFindThreadByWorkingArea,"ax",%progbits
 1149              		.align	1
 1150              		.p2align 4,,15
 1151              		.global	chRegFindThreadByWorkingArea
 1152              		.syntax unified
 1153              		.thumb
 1154              		.thumb_func
 1155              		.fpu softvfp
 1156              		.type	chRegFindThreadByWorkingArea, %function
 1157              	chRegFindThreadByWorkingArea:
 1158              	.LVL59:
 1159              	.LFB339:
 1160              		.loc 1 286 56 is_stmt 1 view -0
 1161              		.cfi_startproc
 1162              		@ args = 0, pretend = 0, frame = 0
 1163              		@ frame_needed = 0, uses_anonymous_args = 0
 1164              		.loc 1 287 3 view .LVU332
 1165              		.loc 1 290 3 view .LVU333
 1166              	.LBB357:
 1167              	.LBI357:
 1168              		.loc 1 159 11 view .LVU334
 1169              	.LBB358:
 1170              		.loc 1 160 3 view .LVU335
 1171              		.loc 1 161 3 view .LVU336
 1172              		.loc 1 163 3 view .LVU337
 1173              	.LBB359:
 1174              	.LBI359:
 1175              		.loc 2 407 20 view .LVU338
 1176              	.LBE359:
 1177              	.LBE358:
 1178              	.LBE357:
 1179              		.loc 2 409 3 view .LVU339
 1180              	.LBB383:
 1181              	.LBB378:
 1182              	.LBB367:
 1183              	.LBB360:
 1184              	.LBI360:
 1185              		.loc 3 806 27 view .LVU340
 1186              	.LBE360:
 1187              	.LBE367:
 1188              	.LBE378:
 1189              	.LBE383:
 1190              		.loc 3 814 3 view .LVU341
 1191              	.LBB384:
 1192              	.LBB379:
 1193              	.LBB368:
 1194              	.LBB365:
 1195              	.LBB361:
 1196              	.LBI361:
 1197              		.loc 4 491 27 view .LVU342
ARM GAS  /tmp/ccFeJWvy.s 			page 22


 1198              	.LBB362:
 1199              		.loc 4 493 3 view .LVU343
 1200              	.LBE362:
 1201              	.LBE361:
 1202              	.LBE365:
 1203              	.LBE368:
 1204              	.LBE379:
 1205              	.LBE384:
 1206              		.loc 1 286 56 is_stmt 0 view .LVU344
 1207 0000 2DE9F843 		push	{r3, r4, r5, r6, r7, r8, r9, lr}
 1208              		.cfi_def_cfa_offset 32
 1209              		.cfi_offset 3, -32
 1210              		.cfi_offset 4, -28
 1211              		.cfi_offset 5, -24
 1212              		.cfi_offset 6, -20
 1213              		.cfi_offset 7, -16
 1214              		.cfi_offset 8, -12
 1215              		.cfi_offset 9, -8
 1216              		.cfi_offset 14, -4
 1217              		.loc 1 286 56 view .LVU345
 1218 0004 0646     		mov	r6, r0
 1219              	.LBB385:
 1220              	.LBB380:
 1221              	.LBB369:
 1222              	.LBB366:
 1223              	.LBB364:
 1224              	.LBB363:
 1225              		.loc 4 493 3 view .LVU346
 1226 0006 3027     		movs	r7, #48
 1227              		.syntax unified
 1228              	@ 493 "../ChibiOS/os/common/ext/ARM/CMSIS/Core/Include/cmsis_gcc.h" 1
 1229 0008 87F31188 		MSR basepri, r7
 1230              	@ 0 "" 2
 1231              	.LVL60:
 1232              		.loc 4 493 3 view .LVU347
 1233              		.thumb
 1234              		.syntax unified
 1235              	.LBE363:
 1236              	.LBE364:
 1237              	.LBE366:
 1238              	.LBE369:
 1239              	.LBE380:
 1240              	.LBE385:
 1241              		.loc 2 410 35 is_stmt 1 view .LVU348
 1242              		.loc 2 411 21 view .LVU349
 1243              	.LBB386:
 1244              	.LBB381:
 1245              		.loc 1 164 3 view .LVU350
 1246              		.loc 1 164 5 is_stmt 0 view .LVU351
 1247 000c 164D     		ldr	r5, .L37
 1248 000e AB6A     		ldr	r3, [r5, #40]
 1249              	.LVL61:
 1250              		.loc 1 166 3 is_stmt 1 view .LVU352
 1251              		.loc 1 169 11 is_stmt 0 view .LVU353
 1252 0010 9A7D     		ldrb	r2, [r3, #22]	@ zero_extendqisi2
 1253 0012 0132     		adds	r2, r2, #1
 1254              		.loc 1 166 6 view .LVU354
ARM GAS  /tmp/ccFeJWvy.s 			page 23


 1255 0014 A3F11000 		sub	r0, r3, #16
 1256              	.LVL62:
 1257              		.loc 1 169 3 is_stmt 1 view .LVU355
 1258              		.loc 1 169 11 is_stmt 0 view .LVU356
 1259 0018 9A75     		strb	r2, [r3, #22]
 1260              		.loc 1 171 3 is_stmt 1 view .LVU357
 1261              	.LBB370:
 1262              	.LBI370:
 1263              		.loc 2 421 20 view .LVU358
 1264              	.LBB371:
 1265              		.loc 2 423 23 view .LVU359
 1266              		.loc 2 424 34 view .LVU360
 1267              		.loc 2 430 3 view .LVU361
 1268              		.loc 2 430 3 view .LVU362
 1269              		.loc 2 430 3 view .LVU363
 1270              		.loc 2 434 3 view .LVU364
 1271              	.LBB372:
 1272              	.LBI372:
 1273              		.loc 3 830 27 view .LVU365
 1274              	.LBE372:
 1275              	.LBE371:
 1276              	.LBE370:
 1277              	.LBE381:
 1278              	.LBE386:
 1279              		.loc 3 833 3 view .LVU366
 1280              	.LVL63:
 1281              	.LBB387:
 1282              	.LBB382:
 1283              	.LBB377:
 1284              	.LBB376:
 1285              	.LBB375:
 1286              	.LBB373:
 1287              	.LBI373:
 1288              		.loc 4 491 27 view .LVU367
 1289              	.LBB374:
 1290              		.loc 4 493 3 view .LVU368
 1291 001a 4FF00008 		mov	r8, #0
 1292              		.syntax unified
 1293              	@ 493 "../ChibiOS/os/common/ext/ARM/CMSIS/Core/Include/cmsis_gcc.h" 1
 1294 001e 88F31188 		MSR basepri, r8
 1295              	@ 0 "" 2
 1296              	.LVL64:
 1297              		.loc 4 493 3 is_stmt 0 view .LVU369
 1298              		.thumb
 1299              		.syntax unified
 1300              	.LBE374:
 1301              	.LBE373:
 1302              	.LBE375:
 1303              	.LBE376:
 1304              	.LBE377:
 1305              		.loc 1 173 3 is_stmt 1 view .LVU370
 1306              		.loc 1 173 3 is_stmt 0 view .LVU371
 1307              	.LBE382:
 1308              	.LBE387:
 1309              		.loc 1 291 3 is_stmt 1 view .LVU372
 1310              		.loc 1 292 5 view .LVU373
 1311              	.LBB388:
ARM GAS  /tmp/ccFeJWvy.s 			page 24


 1312              	.LBI388:
 1313              		.file 6 "../ChibiOS/os/rt/include/chthreads.h"
 1314              		.loc 6 386 27 view .LVU374
 1315              	.LBB389:
 1316              		.loc 6 388 3 view .LVU375
 1317              		.loc 6 388 3 is_stmt 0 view .LVU376
 1318              	.LBE389:
 1319              	.LBE388:
 1320              		.loc 1 292 8 view .LVU377
 1321 0022 1B69     		ldr	r3, [r3, #16]
 1322 0024 9E42     		cmp	r6, r3
 1323 0026 1CD0     		beq	.L34
 1324 0028 2835     		adds	r5, r5, #40
 1325 002a 0AE0     		b	.L33
 1326              	.LVL65:
 1327              	.L32:
 1328              	.LBB391:
 1329              	.LBB392:
 1330              	.LBB393:
 1331              		.loc 1 207 14 view .LVU378
 1332 002c A37D     		ldrb	r3, [r4, #22]	@ zero_extendqisi2
 1333 002e 0133     		adds	r3, r3, #1
 1334 0030 A375     		strb	r3, [r4, #22]
 1335              		.loc 1 207 14 view .LVU379
 1336              	.LBE393:
 1337              		.loc 1 210 3 is_stmt 1 view .LVU380
 1338              	.LBB394:
 1339              	.LBI394:
 1340              		.loc 2 421 20 view .LVU381
 1341              	.LBB395:
 1342              		.loc 2 423 23 view .LVU382
 1343              		.loc 2 424 34 view .LVU383
 1344              		.loc 2 430 3 view .LVU384
 1345              		.loc 2 430 3 view .LVU385
 1346              		.loc 2 430 3 view .LVU386
 1347              		.loc 2 434 3 view .LVU387
 1348              	.LBB396:
 1349              	.LBI396:
 1350              		.loc 3 830 27 view .LVU388
 1351              	.LBE396:
 1352              	.LBE395:
 1353              	.LBE394:
 1354              	.LBE392:
 1355              	.LBE391:
 1356              		.loc 3 833 3 view .LVU389
 1357              	.LVL66:
 1358              	.LBB428:
 1359              	.LBB421:
 1360              	.LBB407:
 1361              	.LBB404:
 1362              	.LBB401:
 1363              	.LBB397:
 1364              	.LBI397:
 1365              		.loc 4 491 27 view .LVU390
 1366              	.LBB398:
 1367              		.loc 4 493 3 view .LVU391
 1368              		.syntax unified
ARM GAS  /tmp/ccFeJWvy.s 			page 25


 1369              	@ 493 "../ChibiOS/os/common/ext/ARM/CMSIS/Core/Include/cmsis_gcc.h" 1
 1370 0032 88F31188 		MSR basepri, r8
 1371              	@ 0 "" 2
 1372              	.LVL67:
 1373              		.loc 4 493 3 is_stmt 0 view .LVU392
 1374              		.thumb
 1375              		.syntax unified
 1376              	.LBE398:
 1377              	.LBE397:
 1378              	.LBE401:
 1379              	.LBE404:
 1380              	.LBE407:
 1381              		.loc 1 212 3 is_stmt 1 view .LVU393
 1382 0036 FFF7FEFF 		bl	chThdRelease
 1383              	.LVL68:
 1384              		.loc 1 215 3 view .LVU394
 1385              		.loc 1 215 3 is_stmt 0 view .LVU395
 1386              	.LBE421:
 1387              	.LBE428:
 1388              		.loc 1 296 11 is_stmt 1 view .LVU396
 1389              		.loc 1 291 3 view .LVU397
 1390              		.loc 1 292 5 view .LVU398
 1391              	.LBB429:
 1392              		.loc 6 386 27 view .LVU399
 1393              	.LBB390:
 1394              		.loc 6 388 3 view .LVU400
 1395              		.loc 6 388 3 is_stmt 0 view .LVU401
 1396              	.LBE390:
 1397              	.LBE429:
 1398              		.loc 1 292 8 view .LVU402
 1399 003a 2369     		ldr	r3, [r4, #16]
 1400 003c 9E42     		cmp	r6, r3
 1401              	.LBB430:
 1402              	.LBB422:
 1403              	.LBB408:
 1404              		.loc 1 201 9 view .LVU403
 1405 003e 4846     		mov	r0, r9
 1406              	.LBE408:
 1407              	.LBE422:
 1408              	.LBE430:
 1409              		.loc 1 292 8 view .LVU404
 1410 0040 0CD0     		beq	.L30
 1411              	.LVL69:
 1412              	.L33:
 1413              		.loc 1 295 5 is_stmt 1 view .LVU405
 1414              	.LBB431:
 1415              	.LBI391:
 1416              		.loc 1 187 11 view .LVU406
 1417              	.LBB423:
 1418              		.loc 1 188 3 view .LVU407
 1419              		.loc 1 189 3 view .LVU408
 1420              		.loc 1 191 3 view .LVU409
 1421              	.LBB409:
 1422              	.LBI409:
 1423              		.loc 2 407 20 view .LVU410
 1424              	.LBE409:
 1425              	.LBE423:
ARM GAS  /tmp/ccFeJWvy.s 			page 26


 1426              	.LBE431:
 1427              		.loc 2 409 3 view .LVU411
 1428              	.LBB432:
 1429              	.LBB424:
 1430              	.LBB414:
 1431              	.LBB410:
 1432              	.LBI410:
 1433              		.loc 3 806 27 view .LVU412
 1434              	.LBE410:
 1435              	.LBE414:
 1436              	.LBE424:
 1437              	.LBE432:
 1438              		.loc 3 814 3 view .LVU413
 1439              	.LBB433:
 1440              	.LBB425:
 1441              	.LBB415:
 1442              	.LBB413:
 1443              	.LBB411:
 1444              	.LBI411:
 1445              		.loc 4 491 27 view .LVU414
 1446              	.LBB412:
 1447              		.loc 4 493 3 view .LVU415
 1448              		.syntax unified
 1449              	@ 493 "../ChibiOS/os/common/ext/ARM/CMSIS/Core/Include/cmsis_gcc.h" 1
 1450 0042 87F31188 		MSR basepri, r7
 1451              	@ 0 "" 2
 1452              	.LVL70:
 1453              		.loc 4 493 3 is_stmt 0 view .LVU416
 1454              		.thumb
 1455              		.syntax unified
 1456              	.LBE412:
 1457              	.LBE411:
 1458              	.LBE413:
 1459              	.LBE415:
 1460              	.LBE425:
 1461              	.LBE433:
 1462              		.loc 2 410 35 is_stmt 1 view .LVU417
 1463              		.loc 2 411 21 view .LVU418
 1464              	.LBB434:
 1465              	.LBB426:
 1466              		.loc 1 194 3 view .LVU419
 1467              	.LBB416:
 1468              		.loc 1 199 5 view .LVU420
 1469              	.LBE416:
 1470              		.loc 1 194 7 is_stmt 0 view .LVU421
 1471 0046 0469     		ldr	r4, [r0, #16]
 1472              	.LVL71:
 1473              		.loc 1 195 3 is_stmt 1 view .LVU422
 1474              	.LBB417:
 1475              		.loc 1 201 5 view .LVU423
 1476              	.LBE417:
 1477              		.loc 1 195 6 is_stmt 0 view .LVU424
 1478 0048 AC42     		cmp	r4, r5
 1479              	.LBB418:
 1480              		.loc 1 201 9 view .LVU425
 1481 004a A4F11009 		sub	r9, r4, #16
 1482              	.LVL72:
ARM GAS  /tmp/ccFeJWvy.s 			page 27


 1483              		.loc 1 205 5 is_stmt 1 view .LVU426
 1484              		.loc 1 205 5 view .LVU427
 1485              		.loc 1 205 5 view .LVU428
 1486              		.loc 1 207 5 view .LVU429
 1487              	.LBE418:
 1488              		.loc 1 195 6 is_stmt 0 view .LVU430
 1489 004e EDD1     		bne	.L32
 1490              	.LVL73:
 1491              		.loc 1 210 3 is_stmt 1 view .LVU431
 1492              	.LBB419:
 1493              		.loc 2 421 20 view .LVU432
 1494              	.LBB405:
 1495              		.loc 2 423 23 view .LVU433
 1496              		.loc 2 424 34 view .LVU434
 1497              		.loc 2 430 3 view .LVU435
 1498              		.loc 2 430 3 view .LVU436
 1499              		.loc 2 430 3 view .LVU437
 1500              		.loc 2 434 3 view .LVU438
 1501              	.LBB402:
 1502              		.loc 3 830 27 view .LVU439
 1503              	.LBE402:
 1504              	.LBE405:
 1505              	.LBE419:
 1506              	.LBE426:
 1507              	.LBE434:
 1508              		.loc 3 833 3 view .LVU440
 1509              	.LBB435:
 1510              	.LBB427:
 1511              	.LBB420:
 1512              	.LBB406:
 1513              	.LBB403:
 1514              	.LBB400:
 1515              		.loc 4 491 27 view .LVU441
 1516              	.LBB399:
 1517              		.loc 4 493 3 view .LVU442
 1518 0050 4FF00009 		mov	r9, #0
 1519              		.syntax unified
 1520              	@ 493 "../ChibiOS/os/common/ext/ARM/CMSIS/Core/Include/cmsis_gcc.h" 1
 1521 0054 89F31188 		MSR basepri, r9
 1522              	@ 0 "" 2
 1523              	.LVL74:
 1524              		.loc 4 493 3 is_stmt 0 view .LVU443
 1525              		.thumb
 1526              		.syntax unified
 1527              	.LBE399:
 1528              	.LBE400:
 1529              	.LBE403:
 1530              	.LBE406:
 1531              	.LBE420:
 1532              		.loc 1 212 3 is_stmt 1 view .LVU444
 1533 0058 FFF7FEFF 		bl	chThdRelease
 1534              	.LVL75:
 1535              		.loc 1 215 3 view .LVU445
 1536              		.loc 1 215 3 is_stmt 0 view .LVU446
 1537              	.LBE427:
 1538              	.LBE435:
 1539              		.loc 1 296 11 is_stmt 1 view .LVU447
ARM GAS  /tmp/ccFeJWvy.s 			page 28


 1540              	.L30:
 1541              		.loc 1 299 1 is_stmt 0 view .LVU448
 1542 005c 4846     		mov	r0, r9
 1543 005e BDE8F883 		pop	{r3, r4, r5, r6, r7, r8, r9, pc}
 1544              	.LVL76:
 1545              	.L34:
 1546              		.loc 1 290 9 view .LVU449
 1547 0062 8146     		mov	r9, r0
 1548 0064 FAE7     		b	.L30
 1549              	.L38:
 1550 0066 00BF     		.align	2
 1551              	.L37:
 1552 0068 00000000 		.word	ch0
 1553              		.cfi_endproc
 1554              	.LFE339:
 1555              		.size	chRegFindThreadByWorkingArea, .-chRegFindThreadByWorkingArea
 1556              		.global	ch_debug
 1557              		.section	.rodata.ch_debug,"a"
 1558              		.align	2
 1559              		.type	ch_debug, %object
 1560              		.size	ch_debug, 44
 1561              	ch_debug:
 1562 0000 6D61696E 		.ascii	"main"
 1563 0004 00       		.byte	0
 1564 0005 2C       		.byte	44
 1565 0006 0138     		.short	14337
 1566 0008 04       		.byte	4
 1567 0009 04       		.byte	4
 1568 000a 48       		.byte	72
 1569 000b 08       		.byte	8
 1570 000c 0C       		.byte	12
 1571 000d 10       		.byte	16
 1572 000e 14       		.byte	20
 1573 000f 1C       		.byte	28
 1574 0010 20       		.byte	32
 1575 0011 24       		.byte	36
 1576 0012 25       		.byte	37
 1577 0013 26       		.byte	38
 1578 0014 00       		.byte	0
 1579 0015 00       		.byte	0
 1580 0016 00000000 		.ascii	"\000\000\000\000"
 1581 001a 24       		.byte	36
 1582 001b 04       		.byte	4
 1583 001c 01       		.byte	1
 1584 001d 00       		.byte	0
 1585 001e 04       		.byte	4
 1586 001f 00       		.byte	0
 1587 0020 00       		.byte	0
 1588 0021 00000000 		.ascii	"\000\000\000\000"
 1589 0025 0C       		.byte	12
 1590 0026 00       		.byte	0
 1591 0027 10       		.byte	16
 1592 0028 28       		.byte	40
 1593 0029 30       		.byte	48
 1594 002a 34       		.byte	52
 1595 002b 00       		.space	1
 1596              		.text
ARM GAS  /tmp/ccFeJWvy.s 			page 29


 1597              	.Letext0:
 1598              		.file 7 "/opt/gcc-arm-none-eabi/gcc-arm-none-eabi-10.3-2021.07/lib/gcc/arm-none-eabi/10.3.1/includ
 1599              		.file 8 "/opt/gcc-arm-none-eabi/gcc-arm-none-eabi-10.3-2021.07/arm-none-eabi/include/machine/_defa
 1600              		.file 9 "/opt/gcc-arm-none-eabi/gcc-arm-none-eabi-10.3-2021.07/arm-none-eabi/include/sys/_stdint.h
 1601              		.file 10 "../ChibiOS/os/common/ports/ARM-common/chtypes.h"
 1602              		.file 11 "../ChibiOS/os/rt/include/chearly.h"
 1603              		.file 12 "../ChibiOS/os/rt/include/chobjects.h"
 1604              		.file 13 "../ChibiOS/os/rt/include/chrfcu.h"
 1605              		.file 14 "../ChibiOS/os/rt/include/chdebug.h"
 1606              		.file 15 "../ChibiOS/os/rt/include/chtime.h"
 1607              		.file 16 "../ChibiOS/os/rt/include/chlists.h"
 1608              		.file 17 "../ChibiOS/os/rt/include/chtm.h"
 1609              		.file 18 "../ChibiOS/os/rt/include/chsem.h"
 1610              		.file 19 "../ChibiOS/os/rt/include/chmtx.h"
 1611              		.file 20 "/opt/gcc-arm-none-eabi/gcc-arm-none-eabi-10.3-2021.07/arm-none-eabi/include/string.h"