ARM GAS  /tmp/ccp15kkq.s 			page 1


   1              		.cpu cortex-m4
   2              		.eabi_attribute 20, 1
   3              		.eabi_attribute 21, 1
   4              		.eabi_attribute 23, 3
   5              		.eabi_attribute 24, 1
   6              		.eabi_attribute 25, 1
   7              		.eabi_attribute 26, 1
   8              		.eabi_attribute 30, 2
   9              		.eabi_attribute 34, 1
  10              		.eabi_attribute 18, 4
  11              		.file	"chrfcu.c"
  12              		.text
  13              	.Ltext0:
  14              		.cfi_sections	.debug_frame
  15              		.section	.text.chRFCUCollectFaultsI,"ax",%progbits
  16              		.align	1
  17              		.p2align 4,,15
  18              		.global	chRFCUCollectFaultsI
  19              		.arch armv7e-m
  20              		.syntax unified
  21              		.thumb
  22              		.thumb_func
  23              		.fpu softvfp
  24              		.type	chRFCUCollectFaultsI, %function
  25              	chRFCUCollectFaultsI:
  26              	.LVL0:
  27              	.LFB335:
  28              		.file 1 "../ChibiOS/os/rt/src/chrfcu.c"
  29              		.loc 1 60 45 view -0
  30              		.cfi_startproc
  31              		@ args = 0, pretend = 0, frame = 0
  32              		@ frame_needed = 0, uses_anonymous_args = 0
  33              		@ link register save eliminated.
  34              		.loc 1 63 3 view .LVU1
  35              		.loc 1 63 23 is_stmt 0 view .LVU2
  36 0000 024A     		ldr	r2, .L3
  37 0002 536B     		ldr	r3, [r2, #52]
  38 0004 0343     		orrs	r3, r3, r0
  39 0006 5363     		str	r3, [r2, #52]
  40              		.loc 1 68 3 is_stmt 1 view .LVU3
  41              		.loc 1 68 35 view .LVU4
  42              		.loc 1 69 1 is_stmt 0 view .LVU5
  43 0008 7047     		bx	lr
  44              	.L4:
  45 000a 00BF     		.align	2
  46              	.L3:
  47 000c 00000000 		.word	ch0
  48              		.cfi_endproc
  49              	.LFE335:
  50              		.size	chRFCUCollectFaultsI, .-chRFCUCollectFaultsI
  51              		.section	.text.chRFCUGetAndClearFaultsI,"ax",%progbits
  52              		.align	1
  53              		.p2align 4,,15
  54              		.global	chRFCUGetAndClearFaultsI
  55              		.syntax unified
  56              		.thumb
  57              		.thumb_func
ARM GAS  /tmp/ccp15kkq.s 			page 2


  58              		.fpu softvfp
  59              		.type	chRFCUGetAndClearFaultsI, %function
  60              	chRFCUGetAndClearFaultsI:
  61              	.LVL1:
  62              	.LFB336:
  63              		.loc 1 79 56 is_stmt 1 view -0
  64              		.cfi_startproc
  65              		@ args = 0, pretend = 0, frame = 0
  66              		@ frame_needed = 0, uses_anonymous_args = 0
  67              		@ link register save eliminated.
  68              		.loc 1 80 3 view .LVU7
  69              		.loc 1 83 3 view .LVU8
  70              		.loc 1 85 3 view .LVU9
  71              		.loc 1 85 16 is_stmt 0 view .LVU10
  72 0000 034A     		ldr	r2, .L6
  73 0002 536B     		ldr	r3, [r2, #52]
  74              	.LVL2:
  75              		.loc 1 86 3 is_stmt 1 view .LVU11
  76              		.loc 1 86 18 is_stmt 0 view .LVU12
  77 0004 23EA0001 		bic	r1, r3, r0
  78 0008 5163     		str	r1, [r2, #52]
  79              		.loc 1 93 3 is_stmt 1 view .LVU13
  80              		.loc 1 94 1 is_stmt 0 view .LVU14
  81 000a 1840     		ands	r0, r0, r3
  82              	.LVL3:
  83              		.loc 1 94 1 view .LVU15
  84 000c 7047     		bx	lr
  85              	.L7:
  86 000e 00BF     		.align	2
  87              	.L6:
  88 0010 00000000 		.word	ch0
  89              		.cfi_endproc
  90              	.LFE336:
  91              		.size	chRFCUGetAndClearFaultsI, .-chRFCUGetAndClearFaultsI
  92              		.text
  93              	.Letext0:
  94              		.file 2 "/opt/gcc-arm-none-eabi/gcc-arm-none-eabi-10.3-2021.07/arm-none-eabi/include/machine/_defa
  95              		.file 3 "/opt/gcc-arm-none-eabi/gcc-arm-none-eabi-10.3-2021.07/arm-none-eabi/include/sys/_stdint.h
  96              		.file 4 "../ChibiOS/os/common/ports/ARM-common/chtypes.h"
  97              		.file 5 "../ChibiOS/os/rt/include/chearly.h"
  98              		.file 6 "../ChibiOS/os/rt/include/chobjects.h"
  99              		.file 7 "../ChibiOS/os/rt/include/chrfcu.h"
 100              		.file 8 "../ChibiOS/os/rt/include/chdebug.h"
 101              		.file 9 "../ChibiOS/os/rt/include/chtime.h"
 102              		.file 10 "../ChibiOS/os/rt/include/chlists.h"
 103              		.file 11 "../ChibiOS/os/common/ports/ARMv7-M/chcore.h"
 104              		.file 12 "../ChibiOS/os/rt/include/chsem.h"
 105              		.file 13 "../ChibiOS/os/rt/include/chmtx.h"
 106              		.file 14 "../ChibiOS/os/rt/include/chsys.h"
 107              		.section	.debug_info,"",%progbits
 108              	.Ldebug_info0:
 109 0000 BA070000 		.4byte	0x7ba
 110 0004 0400     		.2byte	0x4
 111 0006 00000000 		.4byte	.Ldebug_abbrev0
 112 000a 04       		.byte	0x4
 113 000b 01       		.uleb128 0x1
 114 000c 8B040000 		.4byte	.LASF108
ARM GAS  /tmp/ccp15kkq.s 			page 3


 115 0010 0C       		.byte	0xc
 116 0011 4A050000 		.4byte	.LASF109
 117 0015 14040000 		.4byte	.LASF110
 118 0019 00000000 		.4byte	.Ldebug_ranges0+0
 119 001d 00000000 		.4byte	0
 120 0021 00000000 		.4byte	.Ldebug_line0
 121 0025 02       		.uleb128 0x2
 122 0026 04       		.byte	0x4
 123 0027 05       		.byte	0x5
 124 0028 696E7400 		.ascii	"int\000"
 125 002c 03       		.uleb128 0x3
 126 002d 04       		.byte	0x4
 127 002e 07       		.byte	0x7
 128 002f 8E010000 		.4byte	.LASF0
 129 0033 03       		.uleb128 0x3
 130 0034 08       		.byte	0x8
 131 0035 05       		.byte	0x5
 132 0036 C7000000 		.4byte	.LASF1
 133 003a 03       		.uleb128 0x3
 134 003b 08       		.byte	0x8
 135 003c 04       		.byte	0x4
 136 003d 8A030000 		.4byte	.LASF2
 137 0041 03       		.uleb128 0x3
 138 0042 01       		.byte	0x1
 139 0043 06       		.byte	0x6
 140 0044 D5000000 		.4byte	.LASF3
 141 0048 04       		.uleb128 0x4
 142 0049 2E000000 		.4byte	.LASF7
 143 004d 02       		.byte	0x2
 144 004e 2B       		.byte	0x2b
 145 004f 18       		.byte	0x18
 146 0050 54000000 		.4byte	0x54
 147 0054 03       		.uleb128 0x3
 148 0055 01       		.byte	0x1
 149 0056 08       		.byte	0x8
 150 0057 1D030000 		.4byte	.LASF4
 151 005b 03       		.uleb128 0x3
 152 005c 02       		.byte	0x2
 153 005d 05       		.byte	0x5
 154 005e 32030000 		.4byte	.LASF5
 155 0062 03       		.uleb128 0x3
 156 0063 02       		.byte	0x2
 157 0064 07       		.byte	0x7
 158 0065 D1010000 		.4byte	.LASF6
 159 0069 04       		.uleb128 0x4
 160 006a C2030000 		.4byte	.LASF8
 161 006e 02       		.byte	0x2
 162 006f 4D       		.byte	0x4d
 163 0070 18       		.byte	0x18
 164 0071 75000000 		.4byte	0x75
 165 0075 03       		.uleb128 0x3
 166 0076 04       		.byte	0x4
 167 0077 05       		.byte	0x5
 168 0078 05010000 		.4byte	.LASF9
 169 007c 04       		.uleb128 0x4
 170 007d 4A010000 		.4byte	.LASF10
 171 0081 02       		.byte	0x2
ARM GAS  /tmp/ccp15kkq.s 			page 4


 172 0082 4F       		.byte	0x4f
 173 0083 19       		.byte	0x19
 174 0084 88000000 		.4byte	0x88
 175 0088 03       		.uleb128 0x3
 176 0089 04       		.byte	0x4
 177 008a 07       		.byte	0x7
 178 008b A2010000 		.4byte	.LASF11
 179 008f 04       		.uleb128 0x4
 180 0090 DA020000 		.4byte	.LASF12
 181 0094 02       		.byte	0x2
 182 0095 69       		.byte	0x69
 183 0096 19       		.byte	0x19
 184 0097 9B000000 		.4byte	0x9b
 185 009b 03       		.uleb128 0x3
 186 009c 08       		.byte	0x8
 187 009d 07       		.byte	0x7
 188 009e 74000000 		.4byte	.LASF13
 189 00a2 04       		.uleb128 0x4
 190 00a3 76040000 		.4byte	.LASF14
 191 00a7 03       		.byte	0x3
 192 00a8 18       		.byte	0x18
 193 00a9 13       		.byte	0x13
 194 00aa 48000000 		.4byte	0x48
 195 00ae 04       		.uleb128 0x4
 196 00af 15030000 		.4byte	.LASF15
 197 00b3 03       		.byte	0x3
 198 00b4 2C       		.byte	0x2c
 199 00b5 13       		.byte	0x13
 200 00b6 69000000 		.4byte	0x69
 201 00ba 04       		.uleb128 0x4
 202 00bb 64030000 		.4byte	.LASF16
 203 00bf 03       		.byte	0x3
 204 00c0 30       		.byte	0x30
 205 00c1 14       		.byte	0x14
 206 00c2 7C000000 		.4byte	0x7c
 207 00c6 04       		.uleb128 0x4
 208 00c7 25000000 		.4byte	.LASF17
 209 00cb 03       		.byte	0x3
 210 00cc 3C       		.byte	0x3c
 211 00cd 14       		.byte	0x14
 212 00ce 8F000000 		.4byte	0x8f
 213 00d2 05       		.uleb128 0x5
 214 00d3 C6000000 		.4byte	0xc6
 215 00d7 04       		.uleb128 0x4
 216 00d8 74030000 		.4byte	.LASF18
 217 00dc 04       		.byte	0x4
 218 00dd 48       		.byte	0x48
 219 00de 1D       		.byte	0x1d
 220 00df C6000000 		.4byte	0xc6
 221 00e3 04       		.uleb128 0x4
 222 00e4 46020000 		.4byte	.LASF19
 223 00e8 05       		.byte	0x5
 224 00e9 50       		.byte	0x50
 225 00ea 19       		.byte	0x19
 226 00eb D7000000 		.4byte	0xd7
 227 00ef 04       		.uleb128 0x4
 228 00f0 07020000 		.4byte	.LASF20
ARM GAS  /tmp/ccp15kkq.s 			page 5


 229 00f4 05       		.byte	0x5
 230 00f5 53       		.byte	0x53
 231 00f6 19       		.byte	0x19
 232 00f7 A2000000 		.4byte	0xa2
 233 00fb 04       		.uleb128 0x4
 234 00fc 0E010000 		.4byte	.LASF21
 235 0100 05       		.byte	0x5
 236 0101 54       		.byte	0x54
 237 0102 19       		.byte	0x19
 238 0103 A2000000 		.4byte	0xa2
 239 0107 04       		.uleb128 0x4
 240 0108 EF020000 		.4byte	.LASF22
 241 010c 05       		.byte	0x5
 242 010d 55       		.byte	0x55
 243 010e 19       		.byte	0x19
 244 010f A2000000 		.4byte	0xa2
 245 0113 04       		.uleb128 0x4
 246 0114 F7020000 		.4byte	.LASF23
 247 0118 05       		.byte	0x5
 248 0119 57       		.byte	0x57
 249 011a 19       		.byte	0x19
 250 011b BA000000 		.4byte	0xba
 251 011f 04       		.uleb128 0x4
 252 0120 F8010000 		.4byte	.LASF24
 253 0124 05       		.byte	0x5
 254 0125 58       		.byte	0x58
 255 0126 19       		.byte	0x19
 256 0127 AE000000 		.4byte	0xae
 257 012b 04       		.uleb128 0x4
 258 012c 25020000 		.4byte	.LASF25
 259 0130 05       		.byte	0x5
 260 0131 5A       		.byte	0x5a
 261 0132 19       		.byte	0x19
 262 0133 BA000000 		.4byte	0xba
 263 0137 04       		.uleb128 0x4
 264 0138 88010000 		.4byte	.LASF26
 265 013c 05       		.byte	0x5
 266 013d 5C       		.byte	0x5c
 267 013e 19       		.byte	0x19
 268 013f AE000000 		.4byte	0xae
 269 0143 04       		.uleb128 0x4
 270 0144 E5020000 		.4byte	.LASF27
 271 0148 05       		.byte	0x5
 272 0149 80       		.byte	0x80
 273 014a 12       		.byte	0x12
 274 014b 2C000000 		.4byte	0x2c
 275 014f 04       		.uleb128 0x4
 276 0150 A9030000 		.4byte	.LASF28
 277 0154 05       		.byte	0x5
 278 0155 85       		.byte	0x85
 279 0156 1A       		.byte	0x1a
 280 0157 5B010000 		.4byte	0x15b
 281 015b 06       		.uleb128 0x6
 282 015c EE010000 		.4byte	.LASF43
 283 0160 48       		.byte	0x48
 284 0161 06       		.byte	0x6
 285 0162 9C       		.byte	0x9c
ARM GAS  /tmp/ccp15kkq.s 			page 6


 286 0163 08       		.byte	0x8
 287 0164 3E020000 		.4byte	0x23e
 288 0168 07       		.uleb128 0x7
 289 0169 68647200 		.ascii	"hdr\000"
 290 016d 06       		.byte	0x6
 291 016e AD       		.byte	0xad
 292 016f 05       		.byte	0x5
 293 0170 6B050000 		.4byte	0x56b
 294 0174 00       		.byte	0
 295 0175 07       		.uleb128 0x7
 296 0176 63747800 		.ascii	"ctx\000"
 297 017a 06       		.byte	0x6
 298 017b B1       		.byte	0xb1
 299 017c 21       		.byte	0x21
 300 017d CD040000 		.4byte	0x4cd
 301 0181 0C       		.byte	0xc
 302 0182 08       		.uleb128 0x8
 303 0183 B4010000 		.4byte	.LASF29
 304 0187 06       		.byte	0x6
 305 0188 B6       		.byte	0xb6
 306 0189 21       		.byte	0x21
 307 018a 7F030000 		.4byte	0x37f
 308 018e 10       		.byte	0x10
 309 018f 08       		.uleb128 0x8
 310 0190 84030000 		.4byte	.LASF30
 311 0194 06       		.byte	0x6
 312 0195 BB       		.byte	0xbb
 313 0196 22       		.byte	0x22
 314 0197 78060000 		.4byte	0x678
 315 019b 18       		.byte	0x18
 316 019c 08       		.uleb128 0x8
 317 019d C6010000 		.4byte	.LASF31
 318 01a1 06       		.byte	0x6
 319 01a2 C0       		.byte	0xc0
 320 01a3 22       		.byte	0x22
 321 01a4 17030000 		.4byte	0x317
 322 01a8 1C       		.byte	0x1c
 323 01a9 08       		.uleb128 0x8
 324 01aa 96030000 		.4byte	.LASF32
 325 01ae 06       		.byte	0x6
 326 01af C9       		.byte	0xc9
 327 01b0 22       		.byte	0x22
 328 01b1 7E060000 		.4byte	0x67e
 329 01b5 20       		.byte	0x20
 330 01b6 08       		.uleb128 0x8
 331 01b7 FF000000 		.4byte	.LASF33
 332 01bb 06       		.byte	0x6
 333 01bc CE       		.byte	0xce
 334 01bd 21       		.byte	0x21
 335 01be FB000000 		.4byte	0xfb
 336 01c2 24       		.byte	0x24
 337 01c3 08       		.uleb128 0x8
 338 01c4 7E040000 		.4byte	.LASF34
 339 01c8 06       		.byte	0x6
 340 01c9 D2       		.byte	0xd2
 341 01ca 21       		.byte	0x21
 342 01cb EF000000 		.4byte	0xef
ARM GAS  /tmp/ccp15kkq.s 			page 7


 343 01cf 25       		.byte	0x25
 344 01d0 08       		.uleb128 0x8
 345 01d1 C2000000 		.4byte	.LASF35
 346 01d5 06       		.byte	0x6
 347 01d6 D7       		.byte	0xd7
 348 01d7 21       		.byte	0x21
 349 01d8 07010000 		.4byte	0x107
 350 01dc 26       		.byte	0x26
 351 01dd 09       		.uleb128 0x9
 352 01de 7500     		.ascii	"u\000"
 353 01e0 06       		.byte	0x6
 354 01e1 2801     		.2byte	0x128
 355 01e3 21       		.byte	0x21
 356 01e4 99050000 		.4byte	0x599
 357 01e8 28       		.byte	0x28
 358 01e9 0A       		.uleb128 0xa
 359 01ea 5A010000 		.4byte	.LASF36
 360 01ee 06       		.byte	0x6
 361 01ef 2D01     		.2byte	0x12d
 362 01f1 21       		.byte	0x21
 363 01f2 52030000 		.4byte	0x352
 364 01f6 2C       		.byte	0x2c
 365 01f7 0A       		.uleb128 0xa
 366 01f8 F6000000 		.4byte	.LASF37
 367 01fc 06       		.byte	0x6
 368 01fd 3301     		.2byte	0x133
 369 01ff 21       		.byte	0x21
 370 0200 7F030000 		.4byte	0x37f
 371 0204 30       		.byte	0x30
 372 0205 0A       		.uleb128 0xa
 373 0206 FE010000 		.4byte	.LASF38
 374 020a 06       		.byte	0x6
 375 020b 3901     		.2byte	0x139
 376 020d 21       		.byte	0x21
 377 020e 2B010000 		.4byte	0x12b
 378 0212 38       		.byte	0x38
 379 0213 0A       		.uleb128 0xa
 380 0214 7C050000 		.4byte	.LASF39
 381 0218 06       		.byte	0x6
 382 0219 4001     		.2byte	0x140
 383 021b 22       		.byte	0x22
 384 021c 72060000 		.4byte	0x672
 385 0220 3C       		.byte	0x3c
 386 0221 0A       		.uleb128 0xa
 387 0222 6B020000 		.4byte	.LASF40
 388 0226 06       		.byte	0x6
 389 0227 4401     		.2byte	0x144
 390 0229 21       		.byte	0x21
 391 022a 13010000 		.4byte	0x113
 392 022e 40       		.byte	0x40
 393 022f 0A       		.uleb128 0xa
 394 0230 CB010000 		.4byte	.LASF41
 395 0234 06       		.byte	0x6
 396 0235 4B01     		.2byte	0x14b
 397 0237 22       		.byte	0x22
 398 0238 EF040000 		.4byte	0x4ef
 399 023c 44       		.byte	0x44
ARM GAS  /tmp/ccp15kkq.s 			page 8


 400 023d 00       		.byte	0
 401 023e 04       		.uleb128 0x4
 402 023f EC030000 		.4byte	.LASF42
 403 0243 05       		.byte	0x5
 404 0244 8A       		.byte	0x8a
 405 0245 1F       		.byte	0x1f
 406 0246 4A020000 		.4byte	0x24a
 407 024a 0B       		.uleb128 0xb
 408 024b DD030000 		.4byte	.LASF44
 409 024f 88       		.byte	0x88
 410 0250 06       		.byte	0x6
 411 0251 8A01     		.2byte	0x18a
 412 0253 08       		.byte	0x8
 413 0254 C9020000 		.4byte	0x2c9
 414 0258 0A       		.uleb128 0xa
 415 0259 70040000 		.4byte	.LASF45
 416 025d 06       		.byte	0x6
 417 025e 8E01     		.2byte	0x18e
 418 0260 21       		.byte	0x21
 419 0261 AF060000 		.4byte	0x6af
 420 0265 00       		.byte	0
 421 0266 0A       		.uleb128 0xa
 422 0267 EF000000 		.4byte	.LASF46
 423 026b 06       		.byte	0x6
 424 026c 9201     		.2byte	0x192
 425 026e 21       		.byte	0x21
 426 026f 26050000 		.4byte	0x526
 427 0273 10       		.byte	0x10
 428 0274 0A       		.uleb128 0xa
 429 0275 FA030000 		.4byte	.LASF47
 430 0279 06       		.byte	0x6
 431 027a 9901     		.2byte	0x199
 432 027c 21       		.byte	0x21
 433 027d 4D050000 		.4byte	0x54d
 434 0281 28       		.byte	0x28
 435 0282 0A       		.uleb128 0xa
 436 0283 58000000 		.4byte	.LASF48
 437 0287 06       		.byte	0x6
 438 0288 9E01     		.2byte	0x19e
 439 028a 21       		.byte	0x21
 440 028b 43010000 		.4byte	0x143
 441 028f 30       		.byte	0x30
 442 0290 0A       		.uleb128 0xa
 443 0291 0D000000 		.4byte	.LASF49
 444 0295 06       		.byte	0x6
 445 0296 A401     		.2byte	0x1a4
 446 0298 21       		.byte	0x21
 447 0299 F0020000 		.4byte	0x2f0
 448 029d 34       		.byte	0x34
 449 029e 0A       		.uleb128 0xa
 450 029f A2030000 		.4byte	.LASF50
 451 02a3 06       		.byte	0x6
 452 02a4 A901     		.2byte	0x1a9
 453 02a6 22       		.byte	0x22
 454 02a7 23070000 		.4byte	0x723
 455 02ab 38       		.byte	0x38
 456 02ac 0A       		.uleb128 0xa
ARM GAS  /tmp/ccp15kkq.s 			page 9


 457 02ad 94000000 		.4byte	.LASF51
 458 02b1 06       		.byte	0x6
 459 02b2 AD01     		.2byte	0x1ad
 460 02b4 21       		.byte	0x21
 461 02b5 4F010000 		.4byte	0x14f
 462 02b9 3C       		.byte	0x3c
 463 02ba 09       		.uleb128 0x9
 464 02bb 64626700 		.ascii	"dbg\000"
 465 02bf 06       		.byte	0x6
 466 02c0 B101     		.2byte	0x1b1
 467 02c2 21       		.byte	0x21
 468 02c3 2E030000 		.4byte	0x32e
 469 02c7 84       		.byte	0x84
 470 02c8 00       		.byte	0
 471 02c9 04       		.uleb128 0x4
 472 02ca 74020000 		.4byte	.LASF52
 473 02ce 07       		.byte	0x7
 474 02cf 3F       		.byte	0x3f
 475 02d0 12       		.byte	0x12
 476 02d1 BA000000 		.4byte	0xba
 477 02d5 06       		.uleb128 0x6
 478 02d6 17010000 		.4byte	.LASF53
 479 02da 04       		.byte	0x4
 480 02db 07       		.byte	0x7
 481 02dc 44       		.byte	0x44
 482 02dd 10       		.byte	0x10
 483 02de F0020000 		.4byte	0x2f0
 484 02e2 08       		.uleb128 0x8
 485 02e3 55010000 		.4byte	.LASF54
 486 02e7 07       		.byte	0x7
 487 02e8 48       		.byte	0x48
 488 02e9 21       		.byte	0x21
 489 02ea C9020000 		.4byte	0x2c9
 490 02ee 00       		.byte	0
 491 02ef 00       		.byte	0
 492 02f0 04       		.uleb128 0x4
 493 02f1 2B030000 		.4byte	.LASF55
 494 02f5 07       		.byte	0x7
 495 02f6 49       		.byte	0x49
 496 02f7 03       		.byte	0x3
 497 02f8 D5020000 		.4byte	0x2d5
 498 02fc 06       		.uleb128 0x6
 499 02fd FF020000 		.4byte	.LASF56
 500 0301 04       		.byte	0x4
 501 0302 08       		.byte	0x8
 502 0303 3E       		.byte	0x3e
 503 0304 10       		.byte	0x10
 504 0305 17030000 		.4byte	0x317
 505 0309 08       		.uleb128 0x8
 506 030a CC030000 		.4byte	.LASF57
 507 030e 08       		.byte	0x8
 508 030f 46       		.byte	0x46
 509 0310 24       		.byte	0x24
 510 0311 1D030000 		.4byte	0x31d
 511 0315 00       		.byte	0
 512 0316 00       		.byte	0
 513 0317 0C       		.uleb128 0xc
ARM GAS  /tmp/ccp15kkq.s 			page 10


 514 0318 04       		.byte	0x4
 515 0319 29030000 		.4byte	0x329
 516 031d 05       		.uleb128 0x5
 517 031e 17030000 		.4byte	0x317
 518 0322 03       		.uleb128 0x3
 519 0323 01       		.byte	0x1
 520 0324 08       		.byte	0x8
 521 0325 9D030000 		.4byte	.LASF58
 522 0329 0D       		.uleb128 0xd
 523 032a 22030000 		.4byte	0x322
 524 032e 04       		.uleb128 0x4
 525 032f 49000000 		.4byte	.LASF59
 526 0333 08       		.byte	0x8
 527 0334 51       		.byte	0x51
 528 0335 03       		.byte	0x3
 529 0336 FC020000 		.4byte	0x2fc
 530 033a 04       		.uleb128 0x4
 531 033b B8030000 		.4byte	.LASF60
 532 033f 09       		.byte	0x9
 533 0340 6D       		.byte	0x6d
 534 0341 12       		.byte	0x12
 535 0342 BA000000 		.4byte	0xba
 536 0346 04       		.uleb128 0x4
 537 0347 7A010000 		.4byte	.LASF61
 538 034b 09       		.byte	0x9
 539 034c 79       		.byte	0x79
 540 034d 12       		.byte	0x12
 541 034e BA000000 		.4byte	0xba
 542 0352 04       		.uleb128 0x4
 543 0353 E4010000 		.4byte	.LASF62
 544 0357 0A       		.byte	0xa
 545 0358 32       		.byte	0x32
 546 0359 18       		.byte	0x18
 547 035a 5E030000 		.4byte	0x35e
 548 035e 06       		.uleb128 0x6
 549 035f 0F020000 		.4byte	.LASF63
 550 0363 04       		.byte	0x4
 551 0364 0A       		.byte	0xa
 552 0365 38       		.byte	0x38
 553 0366 08       		.byte	0x8
 554 0367 79030000 		.4byte	0x379
 555 036b 08       		.uleb128 0x8
 556 036c BD000000 		.4byte	.LASF64
 557 0370 0A       		.byte	0xa
 558 0371 39       		.byte	0x39
 559 0372 1A       		.byte	0x1a
 560 0373 79030000 		.4byte	0x379
 561 0377 00       		.byte	0
 562 0378 00       		.byte	0
 563 0379 0C       		.uleb128 0xc
 564 037a 04       		.byte	0x4
 565 037b 52030000 		.4byte	0x352
 566 037f 04       		.uleb128 0x4
 567 0380 BB010000 		.4byte	.LASF65
 568 0384 0A       		.byte	0xa
 569 0385 3F       		.byte	0x3f
 570 0386 19       		.byte	0x19
ARM GAS  /tmp/ccp15kkq.s 			page 11


 571 0387 8B030000 		.4byte	0x38b
 572 038b 06       		.uleb128 0x6
 573 038c 1F010000 		.4byte	.LASF66
 574 0390 08       		.byte	0x8
 575 0391 0A       		.byte	0xa
 576 0392 45       		.byte	0x45
 577 0393 08       		.byte	0x8
 578 0394 B3030000 		.4byte	0x3b3
 579 0398 08       		.uleb128 0x8
 580 0399 BD000000 		.4byte	.LASF64
 581 039d 0A       		.byte	0xa
 582 039e 46       		.byte	0x46
 583 039f 1A       		.byte	0x1a
 584 03a0 B3030000 		.4byte	0x3b3
 585 03a4 00       		.byte	0
 586 03a5 08       		.uleb128 0x8
 587 03a6 38000000 		.4byte	.LASF67
 588 03aa 0A       		.byte	0xa
 589 03ab 47       		.byte	0x47
 590 03ac 1A       		.byte	0x1a
 591 03ad B3030000 		.4byte	0x3b3
 592 03b1 04       		.byte	0x4
 593 03b2 00       		.byte	0
 594 03b3 0C       		.uleb128 0xc
 595 03b4 04       		.byte	0x4
 596 03b5 7F030000 		.4byte	0x37f
 597 03b9 04       		.uleb128 0x4
 598 03ba 60000000 		.4byte	.LASF68
 599 03be 0A       		.byte	0xa
 600 03bf 4E       		.byte	0x4e
 601 03c0 22       		.byte	0x22
 602 03c1 C5030000 		.4byte	0x3c5
 603 03c5 06       		.uleb128 0x6
 604 03c6 02040000 		.4byte	.LASF69
 605 03ca 0C       		.byte	0xc
 606 03cb 0A       		.byte	0xa
 607 03cc 55       		.byte	0x55
 608 03cd 08       		.byte	0x8
 609 03ce FA030000 		.4byte	0x3fa
 610 03d2 08       		.uleb128 0x8
 611 03d3 BD000000 		.4byte	.LASF64
 612 03d7 0A       		.byte	0xa
 613 03d8 56       		.byte	0x56
 614 03d9 1A       		.byte	0x1a
 615 03da FA030000 		.4byte	0x3fa
 616 03de 00       		.byte	0
 617 03df 08       		.uleb128 0x8
 618 03e0 38000000 		.4byte	.LASF67
 619 03e4 0A       		.byte	0xa
 620 03e5 57       		.byte	0x57
 621 03e6 1A       		.byte	0x1a
 622 03e7 FA030000 		.4byte	0x3fa
 623 03eb 04       		.byte	0x4
 624 03ec 08       		.uleb128 0x8
 625 03ed CD020000 		.4byte	.LASF70
 626 03f1 0A       		.byte	0xa
 627 03f2 58       		.byte	0x58
ARM GAS  /tmp/ccp15kkq.s 			page 12


 628 03f3 19       		.byte	0x19
 629 03f4 13010000 		.4byte	0x113
 630 03f8 08       		.byte	0x8
 631 03f9 00       		.byte	0
 632 03fa 0C       		.uleb128 0xc
 633 03fb 04       		.byte	0x4
 634 03fc B9030000 		.4byte	0x3b9
 635 0400 04       		.uleb128 0x4
 636 0401 2E010000 		.4byte	.LASF71
 637 0405 0A       		.byte	0xa
 638 0406 5F       		.byte	0x5f
 639 0407 1E       		.byte	0x1e
 640 0408 0C040000 		.4byte	0x40c
 641 040c 06       		.uleb128 0x6
 642 040d E1000000 		.4byte	.LASF72
 643 0411 0C       		.byte	0xc
 644 0412 0A       		.byte	0xa
 645 0413 64       		.byte	0x64
 646 0414 08       		.byte	0x8
 647 0415 41040000 		.4byte	0x441
 648 0419 08       		.uleb128 0x8
 649 041a BD000000 		.4byte	.LASF64
 650 041e 0A       		.byte	0xa
 651 041f 65       		.byte	0x65
 652 0420 1A       		.byte	0x1a
 653 0421 41040000 		.4byte	0x441
 654 0425 00       		.byte	0
 655 0426 08       		.uleb128 0x8
 656 0427 38000000 		.4byte	.LASF67
 657 042b 0A       		.byte	0xa
 658 042c 66       		.byte	0x66
 659 042d 1A       		.byte	0x1a
 660 042e 41040000 		.4byte	0x441
 661 0432 04       		.byte	0x4
 662 0433 08       		.uleb128 0x8
 663 0434 18000000 		.4byte	.LASF73
 664 0438 0A       		.byte	0xa
 665 0439 67       		.byte	0x67
 666 043a 19       		.byte	0x19
 667 043b 46030000 		.4byte	0x346
 668 043f 08       		.byte	0x8
 669 0440 00       		.byte	0
 670 0441 0C       		.uleb128 0xc
 671 0442 04       		.byte	0x4
 672 0443 00040000 		.4byte	0x400
 673 0447 0B       		.uleb128 0xb
 674 0448 3D000000 		.4byte	.LASF74
 675 044c 24       		.byte	0x24
 676 044d 0B       		.byte	0xb
 677 044e E001     		.2byte	0x1e0
 678 0450 08       		.byte	0x8
 679 0451 CD040000 		.4byte	0x4cd
 680 0455 09       		.uleb128 0x9
 681 0456 723400   		.ascii	"r4\000"
 682 0459 0B       		.byte	0xb
 683 045a F901     		.2byte	0x1f9
 684 045c 11       		.byte	0x11
ARM GAS  /tmp/ccp15kkq.s 			page 13


 685 045d BA000000 		.4byte	0xba
 686 0461 00       		.byte	0
 687 0462 09       		.uleb128 0x9
 688 0463 723500   		.ascii	"r5\000"
 689 0466 0B       		.byte	0xb
 690 0467 FA01     		.2byte	0x1fa
 691 0469 11       		.byte	0x11
 692 046a BA000000 		.4byte	0xba
 693 046e 04       		.byte	0x4
 694 046f 09       		.uleb128 0x9
 695 0470 723600   		.ascii	"r6\000"
 696 0473 0B       		.byte	0xb
 697 0474 FB01     		.2byte	0x1fb
 698 0476 11       		.byte	0x11
 699 0477 BA000000 		.4byte	0xba
 700 047b 08       		.byte	0x8
 701 047c 09       		.uleb128 0x9
 702 047d 723700   		.ascii	"r7\000"
 703 0480 0B       		.byte	0xb
 704 0481 FC01     		.2byte	0x1fc
 705 0483 11       		.byte	0x11
 706 0484 BA000000 		.4byte	0xba
 707 0488 0C       		.byte	0xc
 708 0489 09       		.uleb128 0x9
 709 048a 723800   		.ascii	"r8\000"
 710 048d 0B       		.byte	0xb
 711 048e FD01     		.2byte	0x1fd
 712 0490 11       		.byte	0x11
 713 0491 BA000000 		.4byte	0xba
 714 0495 10       		.byte	0x10
 715 0496 09       		.uleb128 0x9
 716 0497 723900   		.ascii	"r9\000"
 717 049a 0B       		.byte	0xb
 718 049b FE01     		.2byte	0x1fe
 719 049d 11       		.byte	0x11
 720 049e BA000000 		.4byte	0xba
 721 04a2 14       		.byte	0x14
 722 04a3 09       		.uleb128 0x9
 723 04a4 72313000 		.ascii	"r10\000"
 724 04a8 0B       		.byte	0xb
 725 04a9 FF01     		.2byte	0x1ff
 726 04ab 11       		.byte	0x11
 727 04ac BA000000 		.4byte	0xba
 728 04b0 18       		.byte	0x18
 729 04b1 09       		.uleb128 0x9
 730 04b2 72313100 		.ascii	"r11\000"
 731 04b6 0B       		.byte	0xb
 732 04b7 0002     		.2byte	0x200
 733 04b9 11       		.byte	0x11
 734 04ba BA000000 		.4byte	0xba
 735 04be 1C       		.byte	0x1c
 736 04bf 09       		.uleb128 0x9
 737 04c0 6C7200   		.ascii	"lr\000"
 738 04c3 0B       		.byte	0xb
 739 04c4 0102     		.2byte	0x201
 740 04c6 11       		.byte	0x11
 741 04c7 BA000000 		.4byte	0xba
ARM GAS  /tmp/ccp15kkq.s 			page 14


 742 04cb 20       		.byte	0x20
 743 04cc 00       		.byte	0
 744 04cd 0B       		.uleb128 0xb
 745 04ce C0020000 		.4byte	.LASF75
 746 04d2 04       		.byte	0x4
 747 04d3 0B       		.byte	0xb
 748 04d4 0A02     		.2byte	0x20a
 749 04d6 08       		.byte	0x8
 750 04d7 E9040000 		.4byte	0x4e9
 751 04db 09       		.uleb128 0x9
 752 04dc 737000   		.ascii	"sp\000"
 753 04df 0B       		.byte	0xb
 754 04e0 0B02     		.2byte	0x20b
 755 04e2 1A       		.byte	0x1a
 756 04e3 E9040000 		.4byte	0x4e9
 757 04e7 00       		.byte	0
 758 04e8 00       		.byte	0
 759 04e9 0C       		.uleb128 0xc
 760 04ea 04       		.byte	0x4
 761 04eb 47040000 		.4byte	0x447
 762 04ef 0E       		.uleb128 0xe
 763 04f0 04       		.byte	0x4
 764 04f1 06       		.uleb128 0x6
 765 04f2 93020000 		.4byte	.LASF76
 766 04f6 18       		.byte	0x18
 767 04f7 06       		.byte	0x6
 768 04f8 64       		.byte	0x64
 769 04f9 10       		.byte	0x10
 770 04fa 26050000 		.4byte	0x526
 771 04fe 08       		.uleb128 0x8
 772 04ff B2030000 		.4byte	.LASF77
 773 0503 06       		.byte	0x6
 774 0504 68       		.byte	0x68
 775 0505 21       		.byte	0x21
 776 0506 00040000 		.4byte	0x400
 777 050a 00       		.byte	0
 778 050b 08       		.uleb128 0x8
 779 050c 3C030000 		.4byte	.LASF78
 780 0510 06       		.byte	0x6
 781 0511 73       		.byte	0x73
 782 0512 21       		.byte	0x21
 783 0513 3A030000 		.4byte	0x33a
 784 0517 0C       		.byte	0xc
 785 0518 08       		.uleb128 0x8
 786 0519 61020000 		.4byte	.LASF79
 787 051d 06       		.byte	0x6
 788 051e 79       		.byte	0x79
 789 051f 21       		.byte	0x21
 790 0520 D2000000 		.4byte	0xd2
 791 0524 10       		.byte	0x10
 792 0525 00       		.byte	0
 793 0526 04       		.uleb128 0x4
 794 0527 A7000000 		.4byte	.LASF80
 795 052b 06       		.byte	0x6
 796 052c 7B       		.byte	0x7b
 797 052d 03       		.byte	0x3
 798 052e F1040000 		.4byte	0x4f1
ARM GAS  /tmp/ccp15kkq.s 			page 15


 799 0532 06       		.uleb128 0x6
 800 0533 3E010000 		.4byte	.LASF81
 801 0537 08       		.byte	0x8
 802 0538 06       		.byte	0x6
 803 0539 80       		.byte	0x80
 804 053a 10       		.byte	0x10
 805 053b 4D050000 		.4byte	0x54d
 806 053f 08       		.uleb128 0x8
 807 0540 28010000 		.4byte	.LASF82
 808 0544 06       		.byte	0x6
 809 0545 84       		.byte	0x84
 810 0546 21       		.byte	0x21
 811 0547 7F030000 		.4byte	0x37f
 812 054b 00       		.byte	0
 813 054c 00       		.byte	0
 814 054d 04       		.uleb128 0x4
 815 054e 59030000 		.4byte	.LASF83
 816 0552 06       		.byte	0x6
 817 0553 85       		.byte	0x85
 818 0554 03       		.byte	0x3
 819 0555 32050000 		.4byte	0x532
 820 0559 04       		.uleb128 0x4
 821 055a 80020000 		.4byte	.LASF84
 822 055e 06       		.byte	0x6
 823 055f 8A       		.byte	0x8a
 824 0560 14       		.byte	0x14
 825 0561 65050000 		.4byte	0x565
 826 0565 0C       		.uleb128 0xc
 827 0566 04       		.byte	0x4
 828 0567 4F010000 		.4byte	0x14f
 829 056b 0F       		.uleb128 0xf
 830 056c 0C       		.byte	0xc
 831 056d 06       		.byte	0x6
 832 056e A0       		.byte	0xa0
 833 056f 03       		.byte	0x3
 834 0570 99050000 		.4byte	0x599
 835 0574 10       		.uleb128 0x10
 836 0575 68050000 		.4byte	.LASF85
 837 0579 06       		.byte	0x6
 838 057a A4       		.byte	0xa4
 839 057b 21       		.byte	0x21
 840 057c 52030000 		.4byte	0x352
 841 0580 10       		.uleb128 0x10
 842 0581 28010000 		.4byte	.LASF82
 843 0585 06       		.byte	0x6
 844 0586 A8       		.byte	0xa8
 845 0587 21       		.byte	0x21
 846 0588 7F030000 		.4byte	0x37f
 847 058c 10       		.uleb128 0x10
 848 058d D6030000 		.4byte	.LASF86
 849 0591 06       		.byte	0x6
 850 0592 AC       		.byte	0xac
 851 0593 21       		.byte	0x21
 852 0594 B9030000 		.4byte	0x3b9
 853 0598 00       		.byte	0
 854 0599 0F       		.uleb128 0xf
 855 059a 04       		.byte	0x4
ARM GAS  /tmp/ccp15kkq.s 			page 16


 856 059b 06       		.byte	0x6
 857 059c EB       		.byte	0xeb
 858 059d 03       		.byte	0x3
 859 059e 09060000 		.4byte	0x609
 860 05a2 10       		.uleb128 0x10
 861 05a3 1E000000 		.4byte	.LASF87
 862 05a7 06       		.byte	0x6
 863 05a8 F2       		.byte	0xf2
 864 05a9 21       		.byte	0x21
 865 05aa 1F010000 		.4byte	0x11f
 866 05ae 10       		.uleb128 0x10
 867 05af 8B000000 		.4byte	.LASF88
 868 05b3 06       		.byte	0x6
 869 05b4 F9       		.byte	0xf9
 870 05b5 21       		.byte	0x21
 871 05b6 1F010000 		.4byte	0x11f
 872 05ba 11       		.uleb128 0x11
 873 05bb 84040000 		.4byte	.LASF89
 874 05bf 06       		.byte	0x6
 875 05c0 0001     		.2byte	0x100
 876 05c2 22       		.byte	0x22
 877 05c3 EF040000 		.4byte	0x4ef
 878 05c7 11       		.uleb128 0x11
 879 05c8 12000000 		.4byte	.LASF90
 880 05cc 06       		.byte	0x6
 881 05cd 0701     		.2byte	0x107
 882 05cf 22       		.byte	0x22
 883 05d0 09060000 		.4byte	0x609
 884 05d4 11       		.uleb128 0x11
 885 05d5 9F000000 		.4byte	.LASF91
 886 05d9 06       		.byte	0x6
 887 05da 0C01     		.2byte	0x10c
 888 05dc 21       		.byte	0x21
 889 05dd 1F010000 		.4byte	0x11f
 890 05e1 11       		.uleb128 0x11
 891 05e2 9B010000 		.4byte	.LASF92
 892 05e6 06       		.byte	0x6
 893 05e7 1501     		.2byte	0x115
 894 05e9 22       		.byte	0x22
 895 05ea 37060000 		.4byte	0x637
 896 05ee 11       		.uleb128 0x11
 897 05ef 6D030000 		.4byte	.LASF93
 898 05f3 06       		.byte	0x6
 899 05f4 1E01     		.2byte	0x11e
 900 05f6 22       		.byte	0x22
 901 05f7 72060000 		.4byte	0x672
 902 05fb 11       		.uleb128 0x11
 903 05fc 45030000 		.4byte	.LASF94
 904 0600 06       		.byte	0x6
 905 0601 2601     		.2byte	0x126
 906 0603 21       		.byte	0x21
 907 0604 2B010000 		.4byte	0x12b
 908 0608 00       		.byte	0
 909 0609 0C       		.uleb128 0xc
 910 060a 04       		.byte	0x4
 911 060b 59050000 		.4byte	0x559
 912 060f 06       		.uleb128 0x6
ARM GAS  /tmp/ccp15kkq.s 			page 17


 913 0610 4C030000 		.4byte	.LASF95
 914 0614 0C       		.byte	0xc
 915 0615 0C       		.byte	0xc
 916 0616 34       		.byte	0x34
 917 0617 10       		.byte	0x10
 918 0618 37060000 		.4byte	0x637
 919 061c 08       		.uleb128 0x8
 920 061d 28010000 		.4byte	.LASF82
 921 0621 0C       		.byte	0xc
 922 0622 35       		.byte	0x35
 923 0623 19       		.byte	0x19
 924 0624 7F030000 		.4byte	0x37f
 925 0628 00       		.byte	0
 926 0629 07       		.uleb128 0x7
 927 062a 636E7400 		.ascii	"cnt\000"
 928 062e 0C       		.byte	0xc
 929 062f 37       		.byte	0x37
 930 0630 19       		.byte	0x19
 931 0631 37010000 		.4byte	0x137
 932 0635 08       		.byte	0x8
 933 0636 00       		.byte	0
 934 0637 0C       		.uleb128 0xc
 935 0638 04       		.byte	0x4
 936 0639 0F060000 		.4byte	0x60f
 937 063d 06       		.uleb128 0x6
 938 063e 67040000 		.4byte	.LASF96
 939 0642 10       		.byte	0x10
 940 0643 0D       		.byte	0xd
 941 0644 39       		.byte	0x39
 942 0645 08       		.byte	0x8
 943 0646 72060000 		.4byte	0x672
 944 064a 08       		.uleb128 0x8
 945 064b 28010000 		.4byte	.LASF82
 946 064f 0D       		.byte	0xd
 947 0650 3A       		.byte	0x3a
 948 0651 19       		.byte	0x19
 949 0652 7F030000 		.4byte	0x37f
 950 0656 00       		.byte	0
 951 0657 08       		.uleb128 0x8
 952 0658 84030000 		.4byte	.LASF30
 953 065c 0D       		.byte	0xd
 954 065d 3C       		.byte	0x3c
 955 065e 1A       		.byte	0x1a
 956 065f 65050000 		.4byte	0x565
 957 0663 08       		.byte	0x8
 958 0664 08       		.uleb128 0x8
 959 0665 BD000000 		.4byte	.LASF64
 960 0669 0D       		.byte	0xd
 961 066a 3E       		.byte	0x3e
 962 066b 1A       		.byte	0x1a
 963 066c 42070000 		.4byte	0x742
 964 0670 0C       		.byte	0xc
 965 0671 00       		.byte	0
 966 0672 0C       		.uleb128 0xc
 967 0673 04       		.byte	0x4
 968 0674 3D060000 		.4byte	0x63d
 969 0678 0C       		.uleb128 0xc
ARM GAS  /tmp/ccp15kkq.s 			page 18


 970 0679 04       		.byte	0x4
 971 067a 3E020000 		.4byte	0x23e
 972 067e 0C       		.uleb128 0xc
 973 067f 04       		.byte	0x4
 974 0680 E3000000 		.4byte	0xe3
 975 0684 0B       		.uleb128 0xb
 976 0685 17020000 		.4byte	.LASF97
 977 0689 10       		.byte	0x10
 978 068a 06       		.byte	0x6
 979 068b 5C01     		.2byte	0x15c
 980 068d 10       		.byte	0x10
 981 068e AF060000 		.4byte	0x6af
 982 0692 0A       		.uleb128 0xa
 983 0693 D6030000 		.4byte	.LASF86
 984 0697 06       		.byte	0x6
 985 0698 6101     		.2byte	0x161
 986 069a 21       		.byte	0x21
 987 069b B9030000 		.4byte	0x3b9
 988 069f 00       		.byte	0
 989 06a0 0A       		.uleb128 0xa
 990 06a1 D2020000 		.4byte	.LASF98
 991 06a5 06       		.byte	0x6
 992 06a6 6501     		.2byte	0x165
 993 06a8 22       		.byte	0x22
 994 06a9 65050000 		.4byte	0x565
 995 06ad 0C       		.byte	0xc
 996 06ae 00       		.byte	0
 997 06af 12       		.uleb128 0x12
 998 06b0 00000000 		.4byte	.LASF99
 999 06b4 06       		.byte	0x6
 1000 06b5 6601     		.2byte	0x166
 1001 06b7 03       		.byte	0x3
 1002 06b8 84060000 		.4byte	0x684
 1003 06bc 0B       		.uleb128 0xb
 1004 06bd AA020000 		.4byte	.LASF100
 1005 06c1 14       		.byte	0x14
 1006 06c2 06       		.byte	0x6
 1007 06c3 6B01     		.2byte	0x16b
 1008 06c5 10       		.byte	0x10
 1009 06c6 11070000 		.4byte	0x711
 1010 06ca 0A       		.uleb128 0xa
 1011 06cb C6010000 		.4byte	.LASF31
 1012 06cf 06       		.byte	0x6
 1013 06d0 6F01     		.2byte	0x16f
 1014 06d2 22       		.byte	0x22
 1015 06d3 17030000 		.4byte	0x317
 1016 06d7 00       		.byte	0
 1017 06d8 0A       		.uleb128 0xa
 1018 06d9 62010000 		.4byte	.LASF101
 1019 06dd 06       		.byte	0x6
 1020 06de 7501     		.2byte	0x175
 1021 06e0 22       		.byte	0x22
 1022 06e1 7E060000 		.4byte	0x67e
 1023 06e5 04       		.byte	0x4
 1024 06e6 0A       		.uleb128 0xa
 1025 06e7 43040000 		.4byte	.LASF102
 1026 06eb 06       		.byte	0x6
ARM GAS  /tmp/ccp15kkq.s 			page 19


 1027 06ec 7901     		.2byte	0x179
 1028 06ee 22       		.byte	0x22
 1029 06ef 7E060000 		.4byte	0x67e
 1030 06f3 08       		.byte	0x8
 1031 06f4 0A       		.uleb128 0xa
 1032 06f5 51020000 		.4byte	.LASF103
 1033 06f9 06       		.byte	0x6
 1034 06fa 7F01     		.2byte	0x17f
 1035 06fc 22       		.byte	0x22
 1036 06fd 7E060000 		.4byte	0x67e
 1037 0701 0C       		.byte	0xc
 1038 0702 0A       		.uleb128 0xa
 1039 0703 6D050000 		.4byte	.LASF104
 1040 0707 06       		.byte	0x6
 1041 0708 8301     		.2byte	0x183
 1042 070a 22       		.byte	0x22
 1043 070b 7E060000 		.4byte	0x67e
 1044 070f 10       		.byte	0x10
 1045 0710 00       		.byte	0
 1046 0711 12       		.uleb128 0x12
 1047 0712 52040000 		.4byte	.LASF105
 1048 0716 06       		.byte	0x6
 1049 0717 8501     		.2byte	0x185
 1050 0719 03       		.byte	0x3
 1051 071a BC060000 		.4byte	0x6bc
 1052 071e 0D       		.uleb128 0xd
 1053 071f 11070000 		.4byte	0x711
 1054 0723 0C       		.uleb128 0xc
 1055 0724 04       		.byte	0x4
 1056 0725 1E070000 		.4byte	0x71e
 1057 0729 13       		.uleb128 0x13
 1058 072a 63683000 		.ascii	"ch0\000"
 1059 072e 0E       		.byte	0xe
 1060 072f 4101     		.2byte	0x141
 1061 0731 16       		.byte	0x16
 1062 0732 3E020000 		.4byte	0x23e
 1063 0736 04       		.uleb128 0x4
 1064 0737 72010000 		.4byte	.LASF106
 1065 073b 0D       		.byte	0xd
 1066 073c 34       		.byte	0x34
 1067 073d 19       		.byte	0x19
 1068 073e 3D060000 		.4byte	0x63d
 1069 0742 0C       		.uleb128 0xc
 1070 0743 04       		.byte	0x4
 1071 0744 36070000 		.4byte	0x736
 1072 0748 03       		.uleb128 0x3
 1073 0749 01       		.byte	0x1
 1074 074a 02       		.byte	0x2
 1075 074b 0F030000 		.4byte	.LASF107
 1076 074f 14       		.uleb128 0x14
 1077 0750 84050000 		.4byte	.LASF111
 1078 0754 01       		.byte	0x1
 1079 0755 4F       		.byte	0x4f
 1080 0756 0D       		.byte	0xd
 1081 0757 C9020000 		.4byte	0x2c9
 1082 075b 00000000 		.4byte	.LFB336
 1083 075f 14000000 		.4byte	.LFE336-.LFB336
ARM GAS  /tmp/ccp15kkq.s 			page 20


 1084 0763 01       		.uleb128 0x1
 1085 0764 9C       		.byte	0x9c
 1086 0765 9C070000 		.4byte	0x79c
 1087 0769 15       		.uleb128 0x15
 1088 076a 55010000 		.4byte	.LASF54
 1089 076e 01       		.byte	0x1
 1090 076f 4F       		.byte	0x4f
 1091 0770 32       		.byte	0x32
 1092 0771 C9020000 		.4byte	0x2c9
 1093 0775 04000000 		.4byte	.LLST0
 1094 0779 00000000 		.4byte	.LVUS0
 1095 077d 16       		.uleb128 0x16
 1096 077e 6D00     		.ascii	"m\000"
 1097 0780 01       		.byte	0x1
 1098 0781 50       		.byte	0x50
 1099 0782 0F       		.byte	0xf
 1100 0783 C9020000 		.4byte	0x2c9
 1101 0787 29000000 		.4byte	.LLST1
 1102 078b 25000000 		.4byte	.LVUS1
 1103 078f 17       		.uleb128 0x17
 1104 0790 6F697000 		.ascii	"oip\000"
 1105 0794 01       		.byte	0x1
 1106 0795 53       		.byte	0x53
 1107 0796 12       		.byte	0x12
 1108 0797 78060000 		.4byte	0x678
 1109 079b 00       		.byte	0
 1110 079c 18       		.uleb128 0x18
 1111 079d 31020000 		.4byte	.LASF112
 1112 07a1 01       		.byte	0x1
 1113 07a2 3C       		.byte	0x3c
 1114 07a3 06       		.byte	0x6
 1115 07a4 00000000 		.4byte	.LFB335
 1116 07a8 10000000 		.4byte	.LFE335-.LFB335
 1117 07ac 01       		.uleb128 0x1
 1118 07ad 9C       		.byte	0x9c
 1119 07ae 19       		.uleb128 0x19
 1120 07af 55010000 		.4byte	.LASF54
 1121 07b3 01       		.byte	0x1
 1122 07b4 3C       		.byte	0x3c
 1123 07b5 27       		.byte	0x27
 1124 07b6 C9020000 		.4byte	0x2c9
 1125 07ba 01       		.uleb128 0x1
 1126 07bb 50       		.byte	0x50
 1127 07bc 00       		.byte	0
 1128 07bd 00       		.byte	0
 1129              		.section	.debug_abbrev,"",%progbits
 1130              	.Ldebug_abbrev0:
 1131 0000 01       		.uleb128 0x1
 1132 0001 11       		.uleb128 0x11
 1133 0002 01       		.byte	0x1
 1134 0003 25       		.uleb128 0x25
 1135 0004 0E       		.uleb128 0xe
 1136 0005 13       		.uleb128 0x13
 1137 0006 0B       		.uleb128 0xb
 1138 0007 03       		.uleb128 0x3
 1139 0008 0E       		.uleb128 0xe
 1140 0009 1B       		.uleb128 0x1b
ARM GAS  /tmp/ccp15kkq.s 			page 21


 1141 000a 0E       		.uleb128 0xe
 1142 000b 55       		.uleb128 0x55
 1143 000c 17       		.uleb128 0x17
 1144 000d 11       		.uleb128 0x11
 1145 000e 01       		.uleb128 0x1
 1146 000f 10       		.uleb128 0x10
 1147 0010 17       		.uleb128 0x17
 1148 0011 00       		.byte	0
 1149 0012 00       		.byte	0
 1150 0013 02       		.uleb128 0x2
 1151 0014 24       		.uleb128 0x24
 1152 0015 00       		.byte	0
 1153 0016 0B       		.uleb128 0xb
 1154 0017 0B       		.uleb128 0xb
 1155 0018 3E       		.uleb128 0x3e
 1156 0019 0B       		.uleb128 0xb
 1157 001a 03       		.uleb128 0x3
 1158 001b 08       		.uleb128 0x8
 1159 001c 00       		.byte	0
 1160 001d 00       		.byte	0
 1161 001e 03       		.uleb128 0x3
 1162 001f 24       		.uleb128 0x24
 1163 0020 00       		.byte	0
 1164 0021 0B       		.uleb128 0xb
 1165 0022 0B       		.uleb128 0xb
 1166 0023 3E       		.uleb128 0x3e
 1167 0024 0B       		.uleb128 0xb
 1168 0025 03       		.uleb128 0x3
 1169 0026 0E       		.uleb128 0xe
 1170 0027 00       		.byte	0
 1171 0028 00       		.byte	0
 1172 0029 04       		.uleb128 0x4
 1173 002a 16       		.uleb128 0x16
 1174 002b 00       		.byte	0
 1175 002c 03       		.uleb128 0x3
 1176 002d 0E       		.uleb128 0xe
 1177 002e 3A       		.uleb128 0x3a
 1178 002f 0B       		.uleb128 0xb
 1179 0030 3B       		.uleb128 0x3b
 1180 0031 0B       		.uleb128 0xb
 1181 0032 39       		.uleb128 0x39
 1182 0033 0B       		.uleb128 0xb
 1183 0034 49       		.uleb128 0x49
 1184 0035 13       		.uleb128 0x13
 1185 0036 00       		.byte	0
 1186 0037 00       		.byte	0
 1187 0038 05       		.uleb128 0x5
 1188 0039 35       		.uleb128 0x35
 1189 003a 00       		.byte	0
 1190 003b 49       		.uleb128 0x49
 1191 003c 13       		.uleb128 0x13
 1192 003d 00       		.byte	0
 1193 003e 00       		.byte	0
 1194 003f 06       		.uleb128 0x6
 1195 0040 13       		.uleb128 0x13
 1196 0041 01       		.byte	0x1
 1197 0042 03       		.uleb128 0x3
ARM GAS  /tmp/ccp15kkq.s 			page 22


 1198 0043 0E       		.uleb128 0xe
 1199 0044 0B       		.uleb128 0xb
 1200 0045 0B       		.uleb128 0xb
 1201 0046 3A       		.uleb128 0x3a
 1202 0047 0B       		.uleb128 0xb
 1203 0048 3B       		.uleb128 0x3b
 1204 0049 0B       		.uleb128 0xb
 1205 004a 39       		.uleb128 0x39
 1206 004b 0B       		.uleb128 0xb
 1207 004c 01       		.uleb128 0x1
 1208 004d 13       		.uleb128 0x13
 1209 004e 00       		.byte	0
 1210 004f 00       		.byte	0
 1211 0050 07       		.uleb128 0x7
 1212 0051 0D       		.uleb128 0xd
 1213 0052 00       		.byte	0
 1214 0053 03       		.uleb128 0x3
 1215 0054 08       		.uleb128 0x8
 1216 0055 3A       		.uleb128 0x3a
 1217 0056 0B       		.uleb128 0xb
 1218 0057 3B       		.uleb128 0x3b
 1219 0058 0B       		.uleb128 0xb
 1220 0059 39       		.uleb128 0x39
 1221 005a 0B       		.uleb128 0xb
 1222 005b 49       		.uleb128 0x49
 1223 005c 13       		.uleb128 0x13
 1224 005d 38       		.uleb128 0x38
 1225 005e 0B       		.uleb128 0xb
 1226 005f 00       		.byte	0
 1227 0060 00       		.byte	0
 1228 0061 08       		.uleb128 0x8
 1229 0062 0D       		.uleb128 0xd
 1230 0063 00       		.byte	0
 1231 0064 03       		.uleb128 0x3
 1232 0065 0E       		.uleb128 0xe
 1233 0066 3A       		.uleb128 0x3a
 1234 0067 0B       		.uleb128 0xb
 1235 0068 3B       		.uleb128 0x3b
 1236 0069 0B       		.uleb128 0xb
 1237 006a 39       		.uleb128 0x39
 1238 006b 0B       		.uleb128 0xb
 1239 006c 49       		.uleb128 0x49
 1240 006d 13       		.uleb128 0x13
 1241 006e 38       		.uleb128 0x38
 1242 006f 0B       		.uleb128 0xb
 1243 0070 00       		.byte	0
 1244 0071 00       		.byte	0
 1245 0072 09       		.uleb128 0x9
 1246 0073 0D       		.uleb128 0xd
 1247 0074 00       		.byte	0
 1248 0075 03       		.uleb128 0x3
 1249 0076 08       		.uleb128 0x8
 1250 0077 3A       		.uleb128 0x3a
 1251 0078 0B       		.uleb128 0xb
 1252 0079 3B       		.uleb128 0x3b
 1253 007a 05       		.uleb128 0x5
 1254 007b 39       		.uleb128 0x39
ARM GAS  /tmp/ccp15kkq.s 			page 23


 1255 007c 0B       		.uleb128 0xb
 1256 007d 49       		.uleb128 0x49
 1257 007e 13       		.uleb128 0x13
 1258 007f 38       		.uleb128 0x38
 1259 0080 0B       		.uleb128 0xb
 1260 0081 00       		.byte	0
 1261 0082 00       		.byte	0
 1262 0083 0A       		.uleb128 0xa
 1263 0084 0D       		.uleb128 0xd
 1264 0085 00       		.byte	0
 1265 0086 03       		.uleb128 0x3
 1266 0087 0E       		.uleb128 0xe
 1267 0088 3A       		.uleb128 0x3a
 1268 0089 0B       		.uleb128 0xb
 1269 008a 3B       		.uleb128 0x3b
 1270 008b 05       		.uleb128 0x5
 1271 008c 39       		.uleb128 0x39
 1272 008d 0B       		.uleb128 0xb
 1273 008e 49       		.uleb128 0x49
 1274 008f 13       		.uleb128 0x13
 1275 0090 38       		.uleb128 0x38
 1276 0091 0B       		.uleb128 0xb
 1277 0092 00       		.byte	0
 1278 0093 00       		.byte	0
 1279 0094 0B       		.uleb128 0xb
 1280 0095 13       		.uleb128 0x13
 1281 0096 01       		.byte	0x1
 1282 0097 03       		.uleb128 0x3
 1283 0098 0E       		.uleb128 0xe
 1284 0099 0B       		.uleb128 0xb
 1285 009a 0B       		.uleb128 0xb
 1286 009b 3A       		.uleb128 0x3a
 1287 009c 0B       		.uleb128 0xb
 1288 009d 3B       		.uleb128 0x3b
 1289 009e 05       		.uleb128 0x5
 1290 009f 39       		.uleb128 0x39
 1291 00a0 0B       		.uleb128 0xb
 1292 00a1 01       		.uleb128 0x1
 1293 00a2 13       		.uleb128 0x13
 1294 00a3 00       		.byte	0
 1295 00a4 00       		.byte	0
 1296 00a5 0C       		.uleb128 0xc
 1297 00a6 0F       		.uleb128 0xf
 1298 00a7 00       		.byte	0
 1299 00a8 0B       		.uleb128 0xb
 1300 00a9 0B       		.uleb128 0xb
 1301 00aa 49       		.uleb128 0x49
 1302 00ab 13       		.uleb128 0x13
 1303 00ac 00       		.byte	0
 1304 00ad 00       		.byte	0
 1305 00ae 0D       		.uleb128 0xd
 1306 00af 26       		.uleb128 0x26
 1307 00b0 00       		.byte	0
 1308 00b1 49       		.uleb128 0x49
 1309 00b2 13       		.uleb128 0x13
 1310 00b3 00       		.byte	0
 1311 00b4 00       		.byte	0
ARM GAS  /tmp/ccp15kkq.s 			page 24


 1312 00b5 0E       		.uleb128 0xe
 1313 00b6 0F       		.uleb128 0xf
 1314 00b7 00       		.byte	0
 1315 00b8 0B       		.uleb128 0xb
 1316 00b9 0B       		.uleb128 0xb
 1317 00ba 00       		.byte	0
 1318 00bb 00       		.byte	0
 1319 00bc 0F       		.uleb128 0xf
 1320 00bd 17       		.uleb128 0x17
 1321 00be 01       		.byte	0x1
 1322 00bf 0B       		.uleb128 0xb
 1323 00c0 0B       		.uleb128 0xb
 1324 00c1 3A       		.uleb128 0x3a
 1325 00c2 0B       		.uleb128 0xb
 1326 00c3 3B       		.uleb128 0x3b
 1327 00c4 0B       		.uleb128 0xb
 1328 00c5 39       		.uleb128 0x39
 1329 00c6 0B       		.uleb128 0xb
 1330 00c7 01       		.uleb128 0x1
 1331 00c8 13       		.uleb128 0x13
 1332 00c9 00       		.byte	0
 1333 00ca 00       		.byte	0
 1334 00cb 10       		.uleb128 0x10
 1335 00cc 0D       		.uleb128 0xd
 1336 00cd 00       		.byte	0
 1337 00ce 03       		.uleb128 0x3
 1338 00cf 0E       		.uleb128 0xe
 1339 00d0 3A       		.uleb128 0x3a
 1340 00d1 0B       		.uleb128 0xb
 1341 00d2 3B       		.uleb128 0x3b
 1342 00d3 0B       		.uleb128 0xb
 1343 00d4 39       		.uleb128 0x39
 1344 00d5 0B       		.uleb128 0xb
 1345 00d6 49       		.uleb128 0x49
 1346 00d7 13       		.uleb128 0x13
 1347 00d8 00       		.byte	0
 1348 00d9 00       		.byte	0
 1349 00da 11       		.uleb128 0x11
 1350 00db 0D       		.uleb128 0xd
 1351 00dc 00       		.byte	0
 1352 00dd 03       		.uleb128 0x3
 1353 00de 0E       		.uleb128 0xe
 1354 00df 3A       		.uleb128 0x3a
 1355 00e0 0B       		.uleb128 0xb
 1356 00e1 3B       		.uleb128 0x3b
 1357 00e2 05       		.uleb128 0x5
 1358 00e3 39       		.uleb128 0x39
 1359 00e4 0B       		.uleb128 0xb
 1360 00e5 49       		.uleb128 0x49
 1361 00e6 13       		.uleb128 0x13
 1362 00e7 00       		.byte	0
 1363 00e8 00       		.byte	0
 1364 00e9 12       		.uleb128 0x12
 1365 00ea 16       		.uleb128 0x16
 1366 00eb 00       		.byte	0
 1367 00ec 03       		.uleb128 0x3
 1368 00ed 0E       		.uleb128 0xe
ARM GAS  /tmp/ccp15kkq.s 			page 25


 1369 00ee 3A       		.uleb128 0x3a
 1370 00ef 0B       		.uleb128 0xb
 1371 00f0 3B       		.uleb128 0x3b
 1372 00f1 05       		.uleb128 0x5
 1373 00f2 39       		.uleb128 0x39
 1374 00f3 0B       		.uleb128 0xb
 1375 00f4 49       		.uleb128 0x49
 1376 00f5 13       		.uleb128 0x13
 1377 00f6 00       		.byte	0
 1378 00f7 00       		.byte	0
 1379 00f8 13       		.uleb128 0x13
 1380 00f9 34       		.uleb128 0x34
 1381 00fa 00       		.byte	0
 1382 00fb 03       		.uleb128 0x3
 1383 00fc 08       		.uleb128 0x8
 1384 00fd 3A       		.uleb128 0x3a
 1385 00fe 0B       		.uleb128 0xb
 1386 00ff 3B       		.uleb128 0x3b
 1387 0100 05       		.uleb128 0x5
 1388 0101 39       		.uleb128 0x39
 1389 0102 0B       		.uleb128 0xb
 1390 0103 49       		.uleb128 0x49
 1391 0104 13       		.uleb128 0x13
 1392 0105 3F       		.uleb128 0x3f
 1393 0106 19       		.uleb128 0x19
 1394 0107 3C       		.uleb128 0x3c
 1395 0108 19       		.uleb128 0x19
 1396 0109 00       		.byte	0
 1397 010a 00       		.byte	0
 1398 010b 14       		.uleb128 0x14
 1399 010c 2E       		.uleb128 0x2e
 1400 010d 01       		.byte	0x1
 1401 010e 3F       		.uleb128 0x3f
 1402 010f 19       		.uleb128 0x19
 1403 0110 03       		.uleb128 0x3
 1404 0111 0E       		.uleb128 0xe
 1405 0112 3A       		.uleb128 0x3a
 1406 0113 0B       		.uleb128 0xb
 1407 0114 3B       		.uleb128 0x3b
 1408 0115 0B       		.uleb128 0xb
 1409 0116 39       		.uleb128 0x39
 1410 0117 0B       		.uleb128 0xb
 1411 0118 27       		.uleb128 0x27
 1412 0119 19       		.uleb128 0x19
 1413 011a 49       		.uleb128 0x49
 1414 011b 13       		.uleb128 0x13
 1415 011c 11       		.uleb128 0x11
 1416 011d 01       		.uleb128 0x1
 1417 011e 12       		.uleb128 0x12
 1418 011f 06       		.uleb128 0x6
 1419 0120 40       		.uleb128 0x40
 1420 0121 18       		.uleb128 0x18
 1421 0122 9742     		.uleb128 0x2117
 1422 0124 19       		.uleb128 0x19
 1423 0125 01       		.uleb128 0x1
 1424 0126 13       		.uleb128 0x13
 1425 0127 00       		.byte	0
ARM GAS  /tmp/ccp15kkq.s 			page 26


 1426 0128 00       		.byte	0
 1427 0129 15       		.uleb128 0x15
 1428 012a 05       		.uleb128 0x5
 1429 012b 00       		.byte	0
 1430 012c 03       		.uleb128 0x3
 1431 012d 0E       		.uleb128 0xe
 1432 012e 3A       		.uleb128 0x3a
 1433 012f 0B       		.uleb128 0xb
 1434 0130 3B       		.uleb128 0x3b
 1435 0131 0B       		.uleb128 0xb
 1436 0132 39       		.uleb128 0x39
 1437 0133 0B       		.uleb128 0xb
 1438 0134 49       		.uleb128 0x49
 1439 0135 13       		.uleb128 0x13
 1440 0136 02       		.uleb128 0x2
 1441 0137 17       		.uleb128 0x17
 1442 0138 B742     		.uleb128 0x2137
 1443 013a 17       		.uleb128 0x17
 1444 013b 00       		.byte	0
 1445 013c 00       		.byte	0
 1446 013d 16       		.uleb128 0x16
 1447 013e 34       		.uleb128 0x34
 1448 013f 00       		.byte	0
 1449 0140 03       		.uleb128 0x3
 1450 0141 08       		.uleb128 0x8
 1451 0142 3A       		.uleb128 0x3a
 1452 0143 0B       		.uleb128 0xb
 1453 0144 3B       		.uleb128 0x3b
 1454 0145 0B       		.uleb128 0xb
 1455 0146 39       		.uleb128 0x39
 1456 0147 0B       		.uleb128 0xb
 1457 0148 49       		.uleb128 0x49
 1458 0149 13       		.uleb128 0x13
 1459 014a 02       		.uleb128 0x2
 1460 014b 17       		.uleb128 0x17
 1461 014c B742     		.uleb128 0x2137
 1462 014e 17       		.uleb128 0x17
 1463 014f 00       		.byte	0
 1464 0150 00       		.byte	0
 1465 0151 17       		.uleb128 0x17
 1466 0152 34       		.uleb128 0x34
 1467 0153 00       		.byte	0
 1468 0154 03       		.uleb128 0x3
 1469 0155 08       		.uleb128 0x8
 1470 0156 3A       		.uleb128 0x3a
 1471 0157 0B       		.uleb128 0xb
 1472 0158 3B       		.uleb128 0x3b
 1473 0159 0B       		.uleb128 0xb
 1474 015a 39       		.uleb128 0x39
 1475 015b 0B       		.uleb128 0xb
 1476 015c 49       		.uleb128 0x49
 1477 015d 13       		.uleb128 0x13
 1478 015e 00       		.byte	0
 1479 015f 00       		.byte	0
 1480 0160 18       		.uleb128 0x18
 1481 0161 2E       		.uleb128 0x2e
 1482 0162 01       		.byte	0x1
ARM GAS  /tmp/ccp15kkq.s 			page 27


 1483 0163 3F       		.uleb128 0x3f
 1484 0164 19       		.uleb128 0x19
 1485 0165 03       		.uleb128 0x3
 1486 0166 0E       		.uleb128 0xe
 1487 0167 3A       		.uleb128 0x3a
 1488 0168 0B       		.uleb128 0xb
 1489 0169 3B       		.uleb128 0x3b
 1490 016a 0B       		.uleb128 0xb
 1491 016b 39       		.uleb128 0x39
 1492 016c 0B       		.uleb128 0xb
 1493 016d 27       		.uleb128 0x27
 1494 016e 19       		.uleb128 0x19
 1495 016f 11       		.uleb128 0x11
 1496 0170 01       		.uleb128 0x1
 1497 0171 12       		.uleb128 0x12
 1498 0172 06       		.uleb128 0x6
 1499 0173 40       		.uleb128 0x40
 1500 0174 18       		.uleb128 0x18
 1501 0175 9742     		.uleb128 0x2117
 1502 0177 19       		.uleb128 0x19
 1503 0178 00       		.byte	0
 1504 0179 00       		.byte	0
 1505 017a 19       		.uleb128 0x19
 1506 017b 05       		.uleb128 0x5
 1507 017c 00       		.byte	0
 1508 017d 03       		.uleb128 0x3
 1509 017e 0E       		.uleb128 0xe
 1510 017f 3A       		.uleb128 0x3a
 1511 0180 0B       		.uleb128 0xb
 1512 0181 3B       		.uleb128 0x3b
 1513 0182 0B       		.uleb128 0xb
 1514 0183 39       		.uleb128 0x39
 1515 0184 0B       		.uleb128 0xb
 1516 0185 49       		.uleb128 0x49
 1517 0186 13       		.uleb128 0x13
 1518 0187 02       		.uleb128 0x2
 1519 0188 18       		.uleb128 0x18
 1520 0189 00       		.byte	0
 1521 018a 00       		.byte	0
 1522 018b 00       		.byte	0
 1523              		.section	.debug_loc,"",%progbits
 1524              	.Ldebug_loc0:
 1525              	.LVUS0:
 1526 0000 00       		.uleb128 0
 1527 0001 00       		.uleb128 .LVU15
 1528 0002 00       		.uleb128 .LVU15
 1529 0003 00       		.uleb128 0
 1530              	.LLST0:
 1531 0004 00000000 		.4byte	.LVL1
 1532 0008 0C000000 		.4byte	.LVL3
 1533 000c 0100     		.2byte	0x1
 1534 000e 50       		.byte	0x50
 1535 000f 0C000000 		.4byte	.LVL3
 1536 0013 14000000 		.4byte	.LFE336
 1537 0017 0400     		.2byte	0x4
 1538 0019 F3       		.byte	0xf3
 1539 001a 01       		.uleb128 0x1
ARM GAS  /tmp/ccp15kkq.s 			page 28


 1540 001b 50       		.byte	0x50
 1541 001c 9F       		.byte	0x9f
 1542 001d 00000000 		.4byte	0
 1543 0021 00000000 		.4byte	0
 1544              	.LVUS1:
 1545 0025 00       		.uleb128 .LVU11
 1546 0026 00       		.uleb128 .LVU15
 1547 0027 00       		.uleb128 .LVU15
 1548 0028 00       		.uleb128 0
 1549              	.LLST1:
 1550 0029 04000000 		.4byte	.LVL2
 1551 002d 0C000000 		.4byte	.LVL3
 1552 0031 0600     		.2byte	0x6
 1553 0033 73       		.byte	0x73
 1554 0034 00       		.sleb128 0
 1555 0035 70       		.byte	0x70
 1556 0036 00       		.sleb128 0
 1557 0037 1A       		.byte	0x1a
 1558 0038 9F       		.byte	0x9f
 1559 0039 0C000000 		.4byte	.LVL3
 1560 003d 14000000 		.4byte	.LFE336
 1561 0041 0100     		.2byte	0x1
 1562 0043 50       		.byte	0x50
 1563 0044 00000000 		.4byte	0
 1564 0048 00000000 		.4byte	0
 1565              		.section	.debug_aranges,"",%progbits
 1566 0000 24000000 		.4byte	0x24
 1567 0004 0200     		.2byte	0x2
 1568 0006 00000000 		.4byte	.Ldebug_info0
 1569 000a 04       		.byte	0x4
 1570 000b 00       		.byte	0
 1571 000c 0000     		.2byte	0
 1572 000e 0000     		.2byte	0
 1573 0010 00000000 		.4byte	.LFB335
 1574 0014 10000000 		.4byte	.LFE335-.LFB335
 1575 0018 00000000 		.4byte	.LFB336
 1576 001c 14000000 		.4byte	.LFE336-.LFB336
 1577 0020 00000000 		.4byte	0
 1578 0024 00000000 		.4byte	0
 1579              		.section	.debug_ranges,"",%progbits
 1580              	.Ldebug_ranges0:
 1581 0000 00000000 		.4byte	.LFB335
 1582 0004 10000000 		.4byte	.LFE335
 1583 0008 00000000 		.4byte	.LFB336
 1584 000c 14000000 		.4byte	.LFE336
 1585 0010 00000000 		.4byte	0
 1586 0014 00000000 		.4byte	0
 1587              		.section	.debug_line,"",%progbits
 1588              	.Ldebug_line0:
 1589 0000 38020000 		.section	.debug_str,"MS",%progbits,1
 1589      0300E301 
 1589      00000201 
 1589      FB0E0D00 
 1589      01010101 
 1590              	.LASF99:
 1591 0000 72656164 		.ascii	"ready_list_t\000"
 1591      795F6C69 
ARM GAS  /tmp/ccp15kkq.s 			page 29


 1591      73745F74 
 1591      00
 1592              	.LASF49:
 1593 000d 72666375 		.ascii	"rfcu\000"
 1593      00
 1594              	.LASF90:
 1595 0012 77747472 		.ascii	"wttrp\000"
 1595      7000
 1596              	.LASF73:
 1597 0018 64656C74 		.ascii	"delta\000"
 1597      6100
 1598              	.LASF87:
 1599 001e 7264796D 		.ascii	"rdymsg\000"
 1599      736700
 1600              	.LASF17:
 1601 0025 75696E74 		.ascii	"uint64_t\000"
 1601      36345F74 
 1601      00
 1602              	.LASF7:
 1603 002e 5F5F7569 		.ascii	"__uint8_t\000"
 1603      6E74385F 
 1603      7400
 1604              	.LASF67:
 1605 0038 70726576 		.ascii	"prev\000"
 1605      00
 1606              	.LASF74:
 1607 003d 706F7274 		.ascii	"port_intctx\000"
 1607      5F696E74 
 1607      63747800 
 1608              	.LASF59:
 1609 0049 73797374 		.ascii	"system_debug_t\000"
 1609      656D5F64 
 1609      65627567 
 1609      5F7400
 1610              	.LASF48:
 1611 0058 636F7265 		.ascii	"core_id\000"
 1611      5F696400 
 1612              	.LASF68:
 1613 0060 63685F70 		.ascii	"ch_priority_queue_t\000"
 1613      72696F72 
 1613      6974795F 
 1613      71756575 
 1613      655F7400 
 1614              	.LASF13:
 1615 0074 6C6F6E67 		.ascii	"long long unsigned int\000"
 1615      206C6F6E 
 1615      6720756E 
 1615      7369676E 
 1615      65642069 
 1616              	.LASF88:
 1617 008b 65786974 		.ascii	"exitcode\000"
 1617      636F6465 
 1617      00
 1618              	.LASF51:
 1619 0094 6D61696E 		.ascii	"mainthread\000"
 1619      74687265 
 1619      616400
ARM GAS  /tmp/ccp15kkq.s 			page 30


 1620              	.LASF91:
 1621 009f 73656E74 		.ascii	"sentmsg\000"
 1621      6D736700 
 1622              	.LASF80:
 1623 00a7 76697274 		.ascii	"virtual_timers_list_t\000"
 1623      75616C5F 
 1623      74696D65 
 1623      72735F6C 
 1623      6973745F 
 1624              	.LASF64:
 1625 00bd 6E657874 		.ascii	"next\000"
 1625      00
 1626              	.LASF35:
 1627 00c2 72656673 		.ascii	"refs\000"
 1627      00
 1628              	.LASF1:
 1629 00c7 6C6F6E67 		.ascii	"long long int\000"
 1629      206C6F6E 
 1629      6720696E 
 1629      7400
 1630              	.LASF3:
 1631 00d5 7369676E 		.ascii	"signed char\000"
 1631      65642063 
 1631      68617200 
 1632              	.LASF72:
 1633 00e1 63685F64 		.ascii	"ch_delta_list\000"
 1633      656C7461 
 1633      5F6C6973 
 1633      7400
 1634              	.LASF46:
 1635 00ef 76746C69 		.ascii	"vtlist\000"
 1635      737400
 1636              	.LASF37:
 1637 00f6 6D736771 		.ascii	"msgqueue\000"
 1637      75657565 
 1637      00
 1638              	.LASF33:
 1639 00ff 73746174 		.ascii	"state\000"
 1639      6500
 1640              	.LASF9:
 1641 0105 6C6F6E67 		.ascii	"long int\000"
 1641      20696E74 
 1641      00
 1642              	.LASF21:
 1643 010e 74737461 		.ascii	"tstate_t\000"
 1643      74655F74 
 1643      00
 1644              	.LASF53:
 1645 0117 63685F72 		.ascii	"ch_rfcu\000"
 1645      66637500 
 1646              	.LASF66:
 1647 011f 63685F71 		.ascii	"ch_queue\000"
 1647      75657565 
 1647      00
 1648              	.LASF82:
 1649 0128 71756575 		.ascii	"queue\000"
 1649      6500
ARM GAS  /tmp/ccp15kkq.s 			page 31


 1650              	.LASF71:
 1651 012e 63685F64 		.ascii	"ch_delta_list_t\000"
 1651      656C7461 
 1651      5F6C6973 
 1651      745F7400 
 1652              	.LASF81:
 1653 013e 63685F72 		.ascii	"ch_registry\000"
 1653      65676973 
 1653      74727900 
 1654              	.LASF10:
 1655 014a 5F5F7569 		.ascii	"__uint32_t\000"
 1655      6E743332 
 1655      5F7400
 1656              	.LASF54:
 1657 0155 6D61736B 		.ascii	"mask\000"
 1657      00
 1658              	.LASF36:
 1659 015a 77616974 		.ascii	"waiting\000"
 1659      696E6700 
 1660              	.LASF101:
 1661 0162 6D61696E 		.ascii	"mainthread_base\000"
 1661      74687265 
 1661      61645F62 
 1661      61736500 
 1662              	.LASF106:
 1663 0172 6D757465 		.ascii	"mutex_t\000"
 1663      785F7400 
 1664              	.LASF61:
 1665 017a 73797369 		.ascii	"sysinterval_t\000"
 1665      6E746572 
 1665      76616C5F 
 1665      7400
 1666              	.LASF26:
 1667 0188 636E745F 		.ascii	"cnt_t\000"
 1667      7400
 1668              	.LASF0:
 1669 018e 756E7369 		.ascii	"unsigned int\000"
 1669      676E6564 
 1669      20696E74 
 1669      00
 1670              	.LASF92:
 1671 019b 77747365 		.ascii	"wtsemp\000"
 1671      6D7000
 1672              	.LASF11:
 1673 01a2 6C6F6E67 		.ascii	"long unsigned int\000"
 1673      20756E73 
 1673      69676E65 
 1673      6420696E 
 1673      7400
 1674              	.LASF29:
 1675 01b4 72717565 		.ascii	"rqueue\000"
 1675      756500
 1676              	.LASF65:
 1677 01bb 63685F71 		.ascii	"ch_queue_t\000"
 1677      75657565 
 1677      5F7400
 1678              	.LASF31:
ARM GAS  /tmp/ccp15kkq.s 			page 32


 1679 01c6 6E616D65 		.ascii	"name\000"
 1679      00
 1680              	.LASF41:
 1681 01cb 6D706F6F 		.ascii	"mpool\000"
 1681      6C00
 1682              	.LASF6:
 1683 01d1 73686F72 		.ascii	"short unsigned int\000"
 1683      7420756E 
 1683      7369676E 
 1683      65642069 
 1683      6E7400
 1684              	.LASF62:
 1685 01e4 63685F6C 		.ascii	"ch_list_t\000"
 1685      6973745F 
 1685      7400
 1686              	.LASF43:
 1687 01ee 63685F74 		.ascii	"ch_thread\000"
 1687      68726561 
 1687      6400
 1688              	.LASF24:
 1689 01f8 6D73675F 		.ascii	"msg_t\000"
 1689      7400
 1690              	.LASF38:
 1691 01fe 6570656E 		.ascii	"epending\000"
 1691      64696E67 
 1691      00
 1692              	.LASF20:
 1693 0207 746D6F64 		.ascii	"tmode_t\000"
 1693      655F7400 
 1694              	.LASF63:
 1695 020f 63685F6C 		.ascii	"ch_list\000"
 1695      69737400 
 1696              	.LASF97:
 1697 0217 63685F72 		.ascii	"ch_ready_list\000"
 1697      65616479 
 1697      5F6C6973 
 1697      7400
 1698              	.LASF25:
 1699 0225 6576656E 		.ascii	"eventmask_t\000"
 1699      746D6173 
 1699      6B5F7400 
 1700              	.LASF112:
 1701 0231 63685246 		.ascii	"chRFCUCollectFaultsI\000"
 1701      4355436F 
 1701      6C6C6563 
 1701      74466175 
 1701      6C747349 
 1702              	.LASF19:
 1703 0246 73746B61 		.ascii	"stkalign_t\000"
 1703      6C69676E 
 1703      5F7400
 1704              	.LASF103:
 1705 0251 69646C65 		.ascii	"idlethread_base\000"
 1705      74687265 
 1705      61645F62 
 1705      61736500 
 1706              	.LASF79:
ARM GAS  /tmp/ccp15kkq.s 			page 33


 1707 0261 6C617374 		.ascii	"laststamp\000"
 1707      7374616D 
 1707      7000
 1708              	.LASF40:
 1709 026b 7265616C 		.ascii	"realprio\000"
 1709      7072696F 
 1709      00
 1710              	.LASF52:
 1711 0274 72666375 		.ascii	"rfcu_mask_t\000"
 1711      5F6D6173 
 1711      6B5F7400 
 1712              	.LASF84:
 1713 0280 74687265 		.ascii	"thread_reference_t\000"
 1713      61645F72 
 1713      65666572 
 1713      656E6365 
 1713      5F7400
 1714              	.LASF76:
 1715 0293 63685F76 		.ascii	"ch_virtual_timers_list\000"
 1715      69727475 
 1715      616C5F74 
 1715      696D6572 
 1715      735F6C69 
 1716              	.LASF100:
 1717 02aa 63685F6F 		.ascii	"ch_os_instance_config\000"
 1717      735F696E 
 1717      7374616E 
 1717      63655F63 
 1717      6F6E6669 
 1718              	.LASF75:
 1719 02c0 706F7274 		.ascii	"port_context\000"
 1719      5F636F6E 
 1719      74657874 
 1719      00
 1720              	.LASF70:
 1721 02cd 7072696F 		.ascii	"prio\000"
 1721      00
 1722              	.LASF98:
 1723 02d2 63757272 		.ascii	"current\000"
 1723      656E7400 
 1724              	.LASF12:
 1725 02da 5F5F7569 		.ascii	"__uint64_t\000"
 1725      6E743634 
 1725      5F7400
 1726              	.LASF27:
 1727 02e5 636F7265 		.ascii	"core_id_t\000"
 1727      5F69645F 
 1727      7400
 1728              	.LASF22:
 1729 02ef 74726566 		.ascii	"trefs_t\000"
 1729      735F7400 
 1730              	.LASF23:
 1731 02f7 74707269 		.ascii	"tprio_t\000"
 1731      6F5F7400 
 1732              	.LASF56:
 1733 02ff 63685F73 		.ascii	"ch_system_debug\000"
 1733      79737465 
ARM GAS  /tmp/ccp15kkq.s 			page 34


 1733      6D5F6465 
 1733      62756700 
 1734              	.LASF107:
 1735 030f 5F426F6F 		.ascii	"_Bool\000"
 1735      6C00
 1736              	.LASF15:
 1737 0315 696E7433 		.ascii	"int32_t\000"
 1737      325F7400 
 1738              	.LASF4:
 1739 031d 756E7369 		.ascii	"unsigned char\000"
 1739      676E6564 
 1739      20636861 
 1739      7200
 1740              	.LASF55:
 1741 032b 72666375 		.ascii	"rfcu_t\000"
 1741      5F7400
 1742              	.LASF5:
 1743 0332 73686F72 		.ascii	"short int\000"
 1743      7420696E 
 1743      7400
 1744              	.LASF78:
 1745 033c 6C617374 		.ascii	"lasttime\000"
 1745      74696D65 
 1745      00
 1746              	.LASF94:
 1747 0345 65776D61 		.ascii	"ewmask\000"
 1747      736B00
 1748              	.LASF95:
 1749 034c 63685F73 		.ascii	"ch_semaphore\000"
 1749      656D6170 
 1749      686F7265 
 1749      00
 1750              	.LASF83:
 1751 0359 72656769 		.ascii	"registry_t\000"
 1751      73747279 
 1751      5F7400
 1752              	.LASF16:
 1753 0364 75696E74 		.ascii	"uint32_t\000"
 1753      33325F74 
 1753      00
 1754              	.LASF93:
 1755 036d 77746D74 		.ascii	"wtmtxp\000"
 1755      787000
 1756              	.LASF18:
 1757 0374 706F7274 		.ascii	"port_stkalign_t\000"
 1757      5F73746B 
 1757      616C6967 
 1757      6E5F7400 
 1758              	.LASF30:
 1759 0384 6F776E65 		.ascii	"owner\000"
 1759      7200
 1760              	.LASF2:
 1761 038a 6C6F6E67 		.ascii	"long double\000"
 1761      20646F75 
 1761      626C6500 
 1762              	.LASF32:
 1763 0396 77616261 		.ascii	"wabase\000"
ARM GAS  /tmp/ccp15kkq.s 			page 35


 1763      736500
 1764              	.LASF58:
 1765 039d 63686172 		.ascii	"char\000"
 1765      00
 1766              	.LASF50:
 1767 03a2 636F6E66 		.ascii	"config\000"
 1767      696700
 1768              	.LASF28:
 1769 03a9 74687265 		.ascii	"thread_t\000"
 1769      61645F74 
 1769      00
 1770              	.LASF77:
 1771 03b2 646C6973 		.ascii	"dlist\000"
 1771      7400
 1772              	.LASF60:
 1773 03b8 73797374 		.ascii	"systime_t\000"
 1773      696D655F 
 1773      7400
 1774              	.LASF8:
 1775 03c2 5F5F696E 		.ascii	"__int32_t\000"
 1775      7433325F 
 1775      7400
 1776              	.LASF57:
 1777 03cc 70616E69 		.ascii	"panic_msg\000"
 1777      635F6D73 
 1777      6700
 1778              	.LASF86:
 1779 03d6 70717565 		.ascii	"pqueue\000"
 1779      756500
 1780              	.LASF44:
 1781 03dd 63685F6F 		.ascii	"ch_os_instance\000"
 1781      735F696E 
 1781      7374616E 
 1781      636500
 1782              	.LASF42:
 1783 03ec 6F735F69 		.ascii	"os_instance_t\000"
 1783      6E737461 
 1783      6E63655F 
 1783      7400
 1784              	.LASF47:
 1785 03fa 7265676C 		.ascii	"reglist\000"
 1785      69737400 
 1786              	.LASF69:
 1787 0402 63685F70 		.ascii	"ch_priority_queue\000"
 1787      72696F72 
 1787      6974795F 
 1787      71756575 
 1787      6500
 1788              	.LASF110:
 1789 0414 2F686F6D 		.ascii	"/home/bhimebau/forge/analog_in_out/application\000"
 1789      652F6268 
 1789      696D6562 
 1789      61752F66 
 1789      6F726765 
 1790              	.LASF102:
 1791 0443 6D61696E 		.ascii	"mainthread_end\000"
 1791      74687265 
ARM GAS  /tmp/ccp15kkq.s 			page 36


 1791      61645F65 
 1791      6E6400
 1792              	.LASF105:
 1793 0452 6F735F69 		.ascii	"os_instance_config_t\000"
 1793      6E737461 
 1793      6E63655F 
 1793      636F6E66 
 1793      69675F74 
 1794              	.LASF96:
 1795 0467 63685F6D 		.ascii	"ch_mutex\000"
 1795      75746578 
 1795      00
 1796              	.LASF45:
 1797 0470 726C6973 		.ascii	"rlist\000"
 1797      7400
 1798              	.LASF14:
 1799 0476 75696E74 		.ascii	"uint8_t\000"
 1799      385F7400 
 1800              	.LASF34:
 1801 047e 666C6167 		.ascii	"flags\000"
 1801      7300
 1802              	.LASF89:
 1803 0484 77746F62 		.ascii	"wtobjp\000"
 1803      6A7000
 1804              	.LASF108:
 1805 048b 474E5520 		.ascii	"GNU C17 10.3.1 20210621 (release) -mcpu=cortex-m4 -"
 1805      43313720 
 1805      31302E33 
 1805      2E312032 
 1805      30323130 
 1806 04be 6D746875 		.ascii	"mthumb -mfloat-abi=soft -march=armv7e-m -ggdb -O2 -"
 1806      6D62202D 
 1806      6D666C6F 
 1806      61742D61 
 1806      62693D73 
 1807 04f1 666F6D69 		.ascii	"fomit-frame-pointer -falign-functions=16 -ffunction"
 1807      742D6672 
 1807      616D652D 
 1807      706F696E 
 1807      74657220 
 1808 0524 2D736563 		.ascii	"-sections -fdata-sections -fno-common\000"
 1808      74696F6E 
 1808      73202D66 
 1808      64617461 
 1808      2D736563 
 1809              	.LASF109:
 1810 054a 2E2E2F43 		.ascii	"../ChibiOS/os/rt/src/chrfcu.c\000"
 1810      68696269 
 1810      4F532F6F 
 1810      732F7274 
 1810      2F737263 
 1811              	.LASF85:
 1812 0568 6C697374 		.ascii	"list\000"
 1812      00
 1813              	.LASF104:
 1814 056d 69646C65 		.ascii	"idlethread_end\000"
 1814      74687265 
ARM GAS  /tmp/ccp15kkq.s 			page 37


 1814      61645F65 
 1814      6E6400
 1815              	.LASF39:
 1816 057c 6D74786C 		.ascii	"mtxlist\000"
 1816      69737400 
 1817              	.LASF111:
 1818 0584 63685246 		.ascii	"chRFCUGetAndClearFaultsI\000"
 1818      43554765 
 1818      74416E64 
 1818      436C6561 
 1818      72466175 
 1819              		.ident	"GCC: (GNU Arm Embedded Toolchain 10.3-2021.07) 10.3.1 20210621 (release)"
ARM GAS  /tmp/ccp15kkq.s 			page 38


DEFINED SYMBOLS
                            *ABS*:0000000000000000 chrfcu.c
     /tmp/ccp15kkq.s:16     .text.chRFCUCollectFaultsI:0000000000000000 $t
     /tmp/ccp15kkq.s:25     .text.chRFCUCollectFaultsI:0000000000000000 chRFCUCollectFaultsI
     /tmp/ccp15kkq.s:47     .text.chRFCUCollectFaultsI:000000000000000c $d
     /tmp/ccp15kkq.s:52     .text.chRFCUGetAndClearFaultsI:0000000000000000 $t
     /tmp/ccp15kkq.s:60     .text.chRFCUGetAndClearFaultsI:0000000000000000 chRFCUGetAndClearFaultsI
     /tmp/ccp15kkq.s:88     .text.chRFCUGetAndClearFaultsI:0000000000000010 $d

UNDEFINED SYMBOLS
ch0
