ARM GAS  /tmp/ccULKtfx.s 			page 1


   1              		.cpu cortex-m4
   2              		.eabi_attribute 20, 1
   3              		.eabi_attribute 21, 1
   4              		.eabi_attribute 23, 3
   5              		.eabi_attribute 24, 1
   6              		.eabi_attribute 25, 1
   7              		.eabi_attribute 26, 1
   8              		.eabi_attribute 30, 2
   9              		.eabi_attribute 34, 1
  10              		.eabi_attribute 18, 4
  11              		.file	"chtm.c"
  12              		.text
  13              	.Ltext0:
  14              		.cfi_sections	.debug_frame
  15              		.section	.text.chTMObjectInit,"ax",%progbits
  16              		.align	1
  17              		.p2align 4,,15
  18              		.global	chTMObjectInit
  19              		.arch armv7e-m
  20              		.syntax unified
  21              		.thumb
  22              		.thumb_func
  23              		.fpu softvfp
  24              		.type	chTMObjectInit, %function
  25              	chTMObjectInit:
  26              	.LVL0:
  27              	.LFB336:
  28              		.file 1 "../ChibiOS/os/rt/src/chtm.c"
  29              		.loc 1 79 46 view -0
  30              		.cfi_startproc
  31              		@ args = 0, pretend = 0, frame = 0
  32              		@ frame_needed = 0, uses_anonymous_args = 0
  33              		@ link register save eliminated.
  34              		.loc 1 81 3 view .LVU1
  35              		.loc 1 85 19 is_stmt 0 view .LVU2
  36 0000 0022     		movs	r2, #0
  37 0002 0023     		movs	r3, #0
  38 0004 C0E90423 		strd	r2, [r0, #16]
  39              		.loc 1 82 19 view .LVU3
  40 0008 0023     		movs	r3, #0
  41              		.loc 1 81 19 view .LVU4
  42 000a 4FF0FF32 		mov	r2, #-1
  43              		.loc 1 82 19 view .LVU5
  44 000e C0E90023 		strd	r2, r3, [r0]
  45              		.loc 1 83 3 is_stmt 1 view .LVU6
  46              		.loc 1 84 19 is_stmt 0 view .LVU7
  47 0012 C0E90233 		strd	r3, r3, [r0, #8]
  48              		.loc 1 85 3 is_stmt 1 view .LVU8
  49              		.loc 1 86 1 is_stmt 0 view .LVU9
  50 0016 7047     		bx	lr
  51              		.cfi_endproc
  52              	.LFE336:
  53              		.size	chTMObjectInit, .-chTMObjectInit
  54              		.section	.text.chTMStartMeasurementX,"ax",%progbits
  55              		.align	1
  56              		.p2align 4,,15
  57              		.global	chTMStartMeasurementX
ARM GAS  /tmp/ccULKtfx.s 			page 2


  58              		.syntax unified
  59              		.thumb
  60              		.thumb_func
  61              		.fpu softvfp
  62              		.type	chTMStartMeasurementX, %function
  63              	chTMStartMeasurementX:
  64              	.LVL1:
  65              	.LFB337:
  66              		.loc 1 96 62 is_stmt 1 view -0
  67              		.cfi_startproc
  68              		@ args = 0, pretend = 0, frame = 0
  69              		@ frame_needed = 0, uses_anonymous_args = 0
  70              		@ link register save eliminated.
  71              		.loc 1 98 3 view .LVU11
  72              	.LBB8:
  73              	.LBI8:
  74              		.file 2 "../ChibiOS/os/common/ports/ARMv7-M/chcore.h"
  75              		.loc 2 918 30 view .LVU12
  76              	.LBB9:
  77              		.loc 2 920 3 view .LVU13
  78              		.loc 2 920 13 is_stmt 0 view .LVU14
  79 0000 014B     		ldr	r3, .L4
  80 0002 5B68     		ldr	r3, [r3, #4]
  81              	.LBE9:
  82              	.LBE8:
  83              		.loc 1 98 13 view .LVU15
  84 0004 8360     		str	r3, [r0, #8]
  85              		.loc 1 99 1 view .LVU16
  86 0006 7047     		bx	lr
  87              	.L5:
  88              		.align	2
  89              	.L4:
  90 0008 001000E0 		.word	-536866816
  91              		.cfi_endproc
  92              	.LFE337:
  93              		.size	chTMStartMeasurementX, .-chTMStartMeasurementX
  94              		.section	.text.chTMStopMeasurementX,"ax",%progbits
  95              		.align	1
  96              		.p2align 4,,15
  97              		.global	chTMStopMeasurementX
  98              		.syntax unified
  99              		.thumb
 100              		.thumb_func
 101              		.fpu softvfp
 102              		.type	chTMStopMeasurementX, %function
 103              	chTMStopMeasurementX:
 104              	.LVL2:
 105              	.LFB338:
 106              		.loc 1 109 61 is_stmt 1 view -0
 107              		.cfi_startproc
 108              		@ args = 0, pretend = 0, frame = 0
 109              		@ frame_needed = 0, uses_anonymous_args = 0
 110              		@ link register save eliminated.
 111              		.loc 1 111 3 view .LVU18
 112              	.LBB14:
 113              	.LBI14:
 114              		.loc 2 918 30 view .LVU19
ARM GAS  /tmp/ccULKtfx.s 			page 3


 115              	.LBB15:
 116              		.loc 2 920 3 view .LVU20
 117              	.LBE15:
 118              	.LBE14:
 119              		.loc 1 111 3 is_stmt 0 view .LVU21
 120 0000 0E4A     		ldr	r2, .L10
 121              	.LBB18:
 122              	.LBB16:
 123              		.loc 2 920 13 view .LVU22
 124 0002 0F4B     		ldr	r3, .L10+4
 125              	.LBE16:
 126              	.LBE18:
 127              	.LBB19:
 128              	.LBB20:
 129              		.loc 1 58 33 view .LVU23
 130 0004 8168     		ldr	r1, [r0, #8]
 131              	.LBE20:
 132              	.LBE19:
 133              	.LBB23:
 134              	.LBB17:
 135              		.loc 2 920 13 view .LVU24
 136 0006 5B68     		ldr	r3, [r3, #4]
 137              	.LBE17:
 138              	.LBE23:
 139              		.loc 1 109 61 view .LVU25
 140 0008 10B4     		push	{r4}
 141              		.cfi_def_cfa_offset 4
 142              		.cfi_offset 4, -4
 143              		.loc 1 111 3 view .LVU26
 144 000a 9468     		ldr	r4, [r2, #8]
 145              	.LVL3:
 146              	.LBB24:
 147              	.LBI19:
 148              		.loc 1 53 20 is_stmt 1 view .LVU27
 149              	.LBB21:
 150              		.loc 1 57 3 view .LVU28
 151              		.loc 1 59 19 is_stmt 0 view .LVU29
 152 000c 0269     		ldr	r2, [r0, #16]
 153              		.loc 1 58 33 view .LVU30
 154 000e 1B1B     		subs	r3, r3, r4
 155              	.LVL4:
 156              		.loc 1 58 33 view .LVU31
 157 0010 5B1A     		subs	r3, r3, r1
 158              		.loc 1 59 19 view .LVU32
 159 0012 D218     		adds	r2, r2, r3
 160 0014 4169     		ldr	r1, [r0, #20]
 161 0016 0261     		str	r2, [r0, #16]
 162              		.loc 1 60 6 view .LVU33
 163 0018 4268     		ldr	r2, [r0, #4]
 164              		.loc 1 57 9 view .LVU34
 165 001a C468     		ldr	r4, [r0, #12]
 166              	.LVL5:
 167              		.loc 1 59 19 view .LVU35
 168 001c 41F10001 		adc	r1, r1, #0
 169              		.loc 1 60 6 view .LVU36
 170 0020 9342     		cmp	r3, r2
 171              		.loc 1 63 6 view .LVU37
ARM GAS  /tmp/ccULKtfx.s 			page 4


 172 0022 0268     		ldr	r2, [r0]
 173              		.loc 1 61 16 view .LVU38
 174 0024 88BF     		it	hi
 175 0026 4360     		strhi	r3, [r0, #4]
 176              		.loc 1 57 9 view .LVU39
 177 0028 0134     		adds	r4, r4, #1
 178              		.loc 1 63 6 view .LVU40
 179 002a 9342     		cmp	r3, r2
 180              		.loc 1 58 13 view .LVU41
 181 002c C0E90234 		strd	r3, r4, [r0, #8]
 182              		.loc 1 59 3 is_stmt 1 view .LVU42
 183              		.loc 1 59 19 is_stmt 0 view .LVU43
 184 0030 4161     		str	r1, [r0, #20]
 185              		.loc 1 60 3 is_stmt 1 view .LVU44
 186              		.loc 1 61 5 view .LVU45
 187              		.loc 1 63 3 view .LVU46
 188              		.loc 1 64 5 view .LVU47
 189              	.LBE21:
 190              	.LBE24:
 191              		.loc 1 112 1 is_stmt 0 view .LVU48
 192 0032 10BC     		pop	{r4}
 193              		.cfi_restore 4
 194              		.cfi_def_cfa_offset 0
 195              	.LBB25:
 196              	.LBB22:
 197              		.loc 1 64 15 view .LVU49
 198 0034 38BF     		it	cc
 199 0036 0360     		strcc	r3, [r0]
 200              	.LVL6:
 201              		.loc 1 64 15 view .LVU50
 202              	.LBE22:
 203              	.LBE25:
 204              		.loc 1 112 1 view .LVU51
 205 0038 7047     		bx	lr
 206              	.L11:
 207 003a 00BF     		.align	2
 208              	.L10:
 209 003c 00000000 		.word	ch_system
 210 0040 001000E0 		.word	-536866816
 211              		.cfi_endproc
 212              	.LFE338:
 213              		.size	chTMStopMeasurementX, .-chTMStopMeasurementX
 214              		.section	.text.chTMChainMeasurementToX,"ax",%progbits
 215              		.align	1
 216              		.p2align 4,,15
 217              		.global	chTMChainMeasurementToX
 218              		.syntax unified
 219              		.thumb
 220              		.thumb_func
 221              		.fpu softvfp
 222              		.type	chTMChainMeasurementToX, %function
 223              	chTMChainMeasurementToX:
 224              	.LVL7:
 225              	.LFB339:
 226              		.loc 1 127 65 is_stmt 1 view -0
 227              		.cfi_startproc
 228              		@ args = 0, pretend = 0, frame = 0
ARM GAS  /tmp/ccULKtfx.s 			page 5


 229              		@ frame_needed = 0, uses_anonymous_args = 0
 230              		@ link register save eliminated.
 231              		.loc 1 130 3 view .LVU53
 232              	.LBB30:
 233              	.LBI30:
 234              		.loc 2 918 30 view .LVU54
 235              	.LBB31:
 236              		.loc 2 920 3 view .LVU55
 237              		.loc 2 920 13 is_stmt 0 view .LVU56
 238 0000 0D4B     		ldr	r3, .L16
 239 0002 5B68     		ldr	r3, [r3, #4]
 240              	.LBE31:
 241              	.LBE30:
 242              		.loc 1 127 65 view .LVU57
 243 0004 10B4     		push	{r4}
 244              		.cfi_def_cfa_offset 4
 245              		.cfi_offset 4, -4
 246              		.loc 1 130 14 view .LVU58
 247 0006 8B60     		str	r3, [r1, #8]
 248              		.loc 1 133 3 is_stmt 1 view .LVU59
 249              	.LVL8:
 250              	.LBB32:
 251              	.LBI32:
 252              		.loc 1 53 20 view .LVU60
 253              	.LBB33:
 254              		.loc 1 57 3 view .LVU61
 255              		.loc 1 57 9 is_stmt 0 view .LVU62
 256 0008 D0E90342 		ldrd	r4, r2, [r0, #12]
 257              		.loc 1 58 20 view .LVU63
 258 000c 8168     		ldr	r1, [r0, #8]
 259              	.LVL9:
 260              		.loc 1 58 20 view .LVU64
 261 000e 5B1A     		subs	r3, r3, r1
 262              	.LVL10:
 263              		.loc 1 59 19 view .LVU65
 264 0010 D218     		adds	r2, r2, r3
 265 0012 4169     		ldr	r1, [r0, #20]
 266 0014 0261     		str	r2, [r0, #16]
 267              		.loc 1 60 6 view .LVU66
 268 0016 4268     		ldr	r2, [r0, #4]
 269              		.loc 1 59 19 view .LVU67
 270 0018 41F10001 		adc	r1, r1, #0
 271              		.loc 1 60 6 view .LVU68
 272 001c 9342     		cmp	r3, r2
 273              		.loc 1 63 6 view .LVU69
 274 001e 0268     		ldr	r2, [r0]
 275              		.loc 1 61 16 view .LVU70
 276 0020 88BF     		it	hi
 277 0022 4360     		strhi	r3, [r0, #4]
 278              		.loc 1 57 9 view .LVU71
 279 0024 0134     		adds	r4, r4, #1
 280              		.loc 1 63 6 view .LVU72
 281 0026 9342     		cmp	r3, r2
 282              		.loc 1 58 13 view .LVU73
 283 0028 C0E90234 		strd	r3, r4, [r0, #8]
 284              	.LVL11:
 285              		.loc 1 59 3 is_stmt 1 view .LVU74
ARM GAS  /tmp/ccULKtfx.s 			page 6


 286              		.loc 1 59 19 is_stmt 0 view .LVU75
 287 002c 4161     		str	r1, [r0, #20]
 288              		.loc 1 60 3 is_stmt 1 view .LVU76
 289              		.loc 1 61 5 view .LVU77
 290              		.loc 1 63 3 view .LVU78
 291              		.loc 1 64 5 view .LVU79
 292              	.LBE33:
 293              	.LBE32:
 294              		.loc 1 134 1 is_stmt 0 view .LVU80
 295 002e 10BC     		pop	{r4}
 296              		.cfi_restore 4
 297              		.cfi_def_cfa_offset 0
 298              	.LBB35:
 299              	.LBB34:
 300              		.loc 1 64 15 view .LVU81
 301 0030 38BF     		it	cc
 302 0032 0360     		strcc	r3, [r0]
 303              	.LVL12:
 304              		.loc 1 64 15 view .LVU82
 305              	.LBE34:
 306              	.LBE35:
 307              		.loc 1 134 1 view .LVU83
 308 0034 7047     		bx	lr
 309              	.L17:
 310 0036 00BF     		.align	2
 311              	.L16:
 312 0038 001000E0 		.word	-536866816
 313              		.cfi_endproc
 314              	.LFE339:
 315              		.size	chTMChainMeasurementToX, .-chTMChainMeasurementToX
 316              		.text
 317              	.Letext0:
 318              		.file 3 "/opt/gcc-arm-none-eabi/gcc-arm-none-eabi-10.3-2021.07/arm-none-eabi/include/machine/_defa
 319              		.file 4 "/opt/gcc-arm-none-eabi/gcc-arm-none-eabi-10.3-2021.07/arm-none-eabi/include/sys/_stdint.h
 320              		.file 5 "../ChibiOS/os/common/ports/ARM-common/chtypes.h"
 321              		.file 6 "../ChibiOS/os/rt/include/chearly.h"
 322              		.file 7 "../ChibiOS/os/rt/include/chobjects.h"
 323              		.file 8 "../ChibiOS/os/rt/include/chrfcu.h"
 324              		.file 9 "../ChibiOS/os/rt/include/chdebug.h"
 325              		.file 10 "../ChibiOS/os/rt/include/chtime.h"
 326              		.file 11 "../ChibiOS/os/rt/include/chlists.h"
 327              		.file 12 "../ChibiOS/os/common/ext/ARM/CMSIS/Core/Include/core_cm4.h"
 328              		.file 13 "../ChibiOS/os/rt/include/chtm.h"
 329              		.file 14 "../ChibiOS/os/rt/include/chsem.h"
 330              		.file 15 "../ChibiOS/os/rt/include/chmtx.h"
 331              		.file 16 "../ChibiOS/os/rt/include/chsys.h"