ARM GAS  /tmp/ccQvhFd3.s 			page 1


   1              		.cpu cortex-m4
   2              		.eabi_attribute 20, 1
   3              		.eabi_attribute 21, 1
   4              		.eabi_attribute 23, 3
   5              		.eabi_attribute 24, 1
   6              		.eabi_attribute 25, 1
   7              		.eabi_attribute 26, 1
   8              		.eabi_attribute 30, 2
   9              		.eabi_attribute 34, 1
  10              		.eabi_attribute 18, 4
  11              		.file	"hal_st.c"
  12              		.text
  13              	.Ltext0:
  14              		.cfi_sections	.debug_frame
  15              		.section	.text.stInit,"ax",%progbits
  16              		.align	1
  17              		.p2align 4,,15
  18              		.global	stInit
  19              		.arch armv7e-m
  20              		.syntax unified
  21              		.thumb
  22              		.thumb_func
  23              		.fpu softvfp
  24              		.type	stInit, %function
  25              	stInit:
  26              	.LFB400:
  27              		.file 1 "../ChibiOS/os/hal/src/hal_st.c"
  28              		.loc 1 69 19 view -0
  29              		.cfi_startproc
  30              		@ args = 0, pretend = 0, frame = 0
  31              		@ frame_needed = 0, uses_anonymous_args = 0
  32              		@ link register save eliminated.
  33              		.loc 1 77 3 view .LVU1
  34 0000 FFF7FEBF 		b	st_lld_init
  35              	.LVL0:
  36              		.cfi_endproc
  37              	.LFE400:
  38              		.size	stInit, .-stInit
  39              		.section	.text.stGetCounter,"ax",%progbits
  40              		.align	1
  41              		.p2align 4,,15
  42              		.global	stGetCounter
  43              		.syntax unified
  44              		.thumb
  45              		.thumb_func
  46              		.fpu softvfp
  47              		.type	stGetCounter, %function
  48              	stGetCounter:
  49              	.LFB401:
  50              		.loc 1 103 30 view -0
  51              		.cfi_startproc
  52              		@ args = 0, pretend = 0, frame = 0
  53              		@ frame_needed = 0, uses_anonymous_args = 0
  54              		@ link register save eliminated.
  55              		.loc 1 105 3 view .LVU3
  56              	.LBB14:
  57              	.LBI14:
ARM GAS  /tmp/ccQvhFd3.s 			page 2


  58              		.file 2 "../ChibiOS/os/hal/ports/STM32/LLD/SYSTICKv1/hal_st_lld.h"
  59              		.loc 2 697 25 view .LVU4
  60              	.LBB15:
  61              		.loc 2 699 3 view .LVU5
  62              		.loc 2 699 10 is_stmt 0 view .LVU6
  63 0000 4FF08043 		mov	r3, #1073741824
  64 0004 586A     		ldr	r0, [r3, #36]
  65              	.LBE15:
  66              	.LBE14:
  67              		.loc 1 106 1 view .LVU7
  68 0006 7047     		bx	lr
  69              		.cfi_endproc
  70              	.LFE401:
  71              		.size	stGetCounter, .-stGetCounter
  72              		.section	.text.stStartAlarm,"ax",%progbits
  73              		.align	1
  74              		.p2align 4,,15
  75              		.global	stStartAlarm
  76              		.syntax unified
  77              		.thumb
  78              		.thumb_func
  79              		.fpu softvfp
  80              		.type	stStartAlarm, %function
  81              	stStartAlarm:
  82              	.LVL1:
  83              	.LFB402:
  84              		.loc 1 119 38 is_stmt 1 view -0
  85              		.cfi_startproc
  86              		@ args = 0, pretend = 0, frame = 0
  87              		@ frame_needed = 0, uses_anonymous_args = 0
  88              		@ link register save eliminated.
  89              		.loc 1 121 3 view .LVU9
  90              		.loc 1 121 3 view .LVU10
  91              		.loc 1 121 3 view .LVU11
  92              		.loc 1 123 3 view .LVU12
  93              	.LBB16:
  94              	.LBB17:
  95              		.loc 2 713 24 is_stmt 0 view .LVU13
  96 0000 4FF08043 		mov	r3, #1073741824
  97              	.LVL2:
  98              		.loc 2 713 24 view .LVU14
  99              	.LBE17:
 100              	.LBI16:
 101              		.loc 2 711 20 is_stmt 1 view .LVU15
 102              	.LBB18:
 103              		.loc 2 713 3 view .LVU16
 104              		.loc 2 714 24 is_stmt 0 view .LVU17
 105 0004 0021     		movs	r1, #0
 106              		.loc 2 716 24 view .LVU18
 107 0006 0222     		movs	r2, #2
 108              		.loc 2 713 24 view .LVU19
 109 0008 5863     		str	r0, [r3, #52]
 110              		.loc 2 714 3 is_stmt 1 view .LVU20
 111              		.loc 2 714 24 is_stmt 0 view .LVU21
 112 000a 1961     		str	r1, [r3, #16]
 113              		.loc 2 716 3 is_stmt 1 view .LVU22
 114              		.loc 2 716 24 is_stmt 0 view .LVU23
ARM GAS  /tmp/ccQvhFd3.s 			page 3


 115 000c DA60     		str	r2, [r3, #12]
 116              	.LVL3:
 117              		.loc 2 716 24 view .LVU24
 118              	.LBE18:
 119              	.LBE16:
 120              		.loc 1 124 1 view .LVU25
 121 000e 7047     		bx	lr
 122              		.cfi_endproc
 123              	.LFE402:
 124              		.size	stStartAlarm, .-stStartAlarm
 125              		.section	.text.stStopAlarm,"ax",%progbits
 126              		.align	1
 127              		.p2align 4,,15
 128              		.global	stStopAlarm
 129              		.syntax unified
 130              		.thumb
 131              		.thumb_func
 132              		.fpu softvfp
 133              		.type	stStopAlarm, %function
 134              	stStopAlarm:
 135              	.LFB403:
 136              		.loc 1 133 24 is_stmt 1 view -0
 137              		.cfi_startproc
 138              		@ args = 0, pretend = 0, frame = 0
 139              		@ frame_needed = 0, uses_anonymous_args = 0
 140              		@ link register save eliminated.
 141              		.loc 1 135 3 view .LVU27
 142              	.LBB19:
 143              	.LBI19:
 144              		.loc 2 727 20 view .LVU28
 145              	.LBB20:
 146              		.loc 2 730 3 view .LVU29
 147              		.loc 2 730 22 is_stmt 0 view .LVU30
 148 0000 4FF08043 		mov	r3, #1073741824
 149 0004 0022     		movs	r2, #0
 150 0006 DA60     		str	r2, [r3, #12]
 151              	.LBE20:
 152              	.LBE19:
 153              		.loc 1 136 1 view .LVU31
 154 0008 7047     		bx	lr
 155              		.cfi_endproc
 156              	.LFE403:
 157              		.size	stStopAlarm, .-stStopAlarm
 158 000a 00BF     		.section	.text.stSetAlarm,"ax",%progbits
 159              		.align	1
 160              		.p2align 4,,15
 161              		.global	stSetAlarm
 162              		.syntax unified
 163              		.thumb
 164              		.thumb_func
 165              		.fpu softvfp
 166              		.type	stSetAlarm, %function
 167              	stSetAlarm:
 168              	.LVL4:
 169              	.LFB404:
 170              		.loc 1 147 36 is_stmt 1 view -0
 171              		.cfi_startproc
ARM GAS  /tmp/ccQvhFd3.s 			page 4


 172              		@ args = 0, pretend = 0, frame = 0
 173              		@ frame_needed = 0, uses_anonymous_args = 0
 174              		@ link register save eliminated.
 175              		.loc 1 149 3 view .LVU33
 176              		.loc 1 149 3 view .LVU34
 177              		.loc 1 149 3 view .LVU35
 178              		.loc 1 151 3 view .LVU36
 179              	.LBB21:
 180              	.LBB22:
 181              		.loc 2 745 24 is_stmt 0 view .LVU37
 182 0000 4FF08043 		mov	r3, #1073741824
 183              	.LVL5:
 184              		.loc 2 745 24 view .LVU38
 185              	.LBE22:
 186              	.LBI21:
 187              		.loc 2 743 20 is_stmt 1 view .LVU39
 188              	.LBB23:
 189              		.loc 2 745 3 view .LVU40
 190              		.loc 2 745 24 is_stmt 0 view .LVU41
 191 0004 5863     		str	r0, [r3, #52]
 192              	.LVL6:
 193              		.loc 2 745 24 view .LVU42
 194              	.LBE23:
 195              	.LBE21:
 196              		.loc 1 152 1 view .LVU43
 197 0006 7047     		bx	lr
 198              		.cfi_endproc
 199              	.LFE404:
 200              		.size	stSetAlarm, .-stSetAlarm
 201              		.section	.text.stGetAlarm,"ax",%progbits
 202              		.align	1
 203              		.p2align 4,,15
 204              		.global	stGetAlarm
 205              		.syntax unified
 206              		.thumb
 207              		.thumb_func
 208              		.fpu softvfp
 209              		.type	stGetAlarm, %function
 210              	stGetAlarm:
 211              	.LFB405:
 212              		.loc 1 163 28 is_stmt 1 view -0
 213              		.cfi_startproc
 214              		@ args = 0, pretend = 0, frame = 0
 215              		@ frame_needed = 0, uses_anonymous_args = 0
 216              		@ link register save eliminated.
 217              		.loc 1 165 3 view .LVU45
 218              		.loc 1 165 3 view .LVU46
 219              		.loc 1 165 3 view .LVU47
 220              		.loc 1 167 3 view .LVU48
 221              	.LBB24:
 222              	.LBI24:
 223              		.loc 2 755 25 view .LVU49
 224              	.LBB25:
 225              		.loc 2 757 3 view .LVU50
 226              		.loc 2 757 10 is_stmt 0 view .LVU51
 227 0000 4FF08043 		mov	r3, #1073741824
 228 0004 586B     		ldr	r0, [r3, #52]
ARM GAS  /tmp/ccQvhFd3.s 			page 5


 229              	.LBE25:
 230              	.LBE24:
 231              		.loc 1 168 1 view .LVU52
 232 0006 7047     		bx	lr
 233              		.cfi_endproc
 234              	.LFE405:
 235              		.size	stGetAlarm, .-stGetAlarm
 236              		.section	.text.stIsAlarmActive,"ax",%progbits
 237              		.align	1
 238              		.p2align 4,,15
 239              		.global	stIsAlarmActive
 240              		.syntax unified
 241              		.thumb
 242              		.thumb_func
 243              		.fpu softvfp
 244              		.type	stIsAlarmActive, %function
 245              	stIsAlarmActive:
 246              	.LFB406:
 247              		.loc 1 179 28 is_stmt 1 view -0
 248              		.cfi_startproc
 249              		@ args = 0, pretend = 0, frame = 0
 250              		@ frame_needed = 0, uses_anonymous_args = 0
 251              		@ link register save eliminated.
 252              		.loc 1 181 3 view .LVU54
 253              	.LBB26:
 254              	.LBI26:
 255              		.loc 2 769 20 view .LVU55
 256              	.LBB27:
 257              		.loc 2 771 3 view .LVU56
 258              		.loc 2 771 30 is_stmt 0 view .LVU57
 259 0000 4FF08043 		mov	r3, #1073741824
 260 0004 D868     		ldr	r0, [r3, #12]
 261              	.LBE27:
 262              	.LBE26:
 263              		.loc 1 182 1 view .LVU58
 264 0006 C0F34000 		ubfx	r0, r0, #1, #1
 265 000a 7047     		bx	lr
 266              		.cfi_endproc
 267              	.LFE406:
 268              		.size	stIsAlarmActive, .-stIsAlarmActive
 269              		.text
 270              	.Letext0:
 271              		.file 3 "/opt/gcc-arm-none-eabi/gcc-arm-none-eabi-10.3-2021.07/arm-none-eabi/include/machine/_defa
 272              		.file 4 "/opt/gcc-arm-none-eabi/gcc-arm-none-eabi-10.3-2021.07/arm-none-eabi/include/sys/_stdint.h
 273              		.file 5 "../ChibiOS/os/rt/include/chtime.h"
 274              		.file 6 "../ChibiOS/os/hal/ports/STM32/LLD/TIMv1/stm32_tim.h"