ARM GAS  /tmp/cchLSmzv.s 			page 1


   1              		.cpu cortex-m4
   2              		.eabi_attribute 20, 1
   3              		.eabi_attribute 21, 1
   4              		.eabi_attribute 23, 3
   5              		.eabi_attribute 24, 1
   6              		.eabi_attribute 25, 1
   7              		.eabi_attribute 26, 1
   8              		.eabi_attribute 30, 2
   9              		.eabi_attribute 34, 1
  10              		.eabi_attribute 18, 4
  11              		.file	"hal_serial_lld.c"
  12              		.text
  13              	.Ltext0:
  14              		.cfi_sections	.debug_frame
  15              		.section	.text.notify2,"ax",%progbits
  16              		.align	1
  17              		.p2align 4,,15
  18              		.arch armv7e-m
  19              		.syntax unified
  20              		.thumb
  21              		.thumb_func
  22              		.fpu softvfp
  23              		.type	notify2, %function
  24              	notify2:
  25              	.LVL0:
  26              	.LFB403:
  27              		.file 1 "../ChibiOS/os/hal/ports/STM32/LLD/USARTv2/hal_serial_lld.c"
  28              		.loc 1 336 37 view -0
  29              		.cfi_startproc
  30              		@ args = 0, pretend = 0, frame = 0
  31              		@ frame_needed = 0, uses_anonymous_args = 0
  32              		@ link register save eliminated.
  33              		.loc 1 338 3 view .LVU1
  34              		.loc 1 339 3 view .LVU2
  35              		.loc 1 339 15 is_stmt 0 view .LVU3
  36 0000 024A     		ldr	r2, .L3
  37 0002 1368     		ldr	r3, [r2]
  38 0004 43F0C003 		orr	r3, r3, #192
  39 0008 1360     		str	r3, [r2]
  40              		.loc 1 340 1 view .LVU4
  41 000a 7047     		bx	lr
  42              	.L4:
  43              		.align	2
  44              	.L3:
  45 000c 00440040 		.word	1073759232
  46              		.cfi_endproc
  47              	.LFE403:
  48              		.size	notify2, .-notify2
  49              		.section	.text.sd_lld_init,"ax",%progbits
  50              		.align	1
  51              		.p2align 4,,15
  52              		.global	sd_lld_init
  53              		.syntax unified
  54              		.thumb
  55              		.thumb_func
  56              		.fpu softvfp
  57              		.type	sd_lld_init, %function
ARM GAS  /tmp/cchLSmzv.s 			page 2


  58              	sd_lld_init:
  59              	.LFB404:
  60              		.loc 1 601 24 is_stmt 1 view -0
  61              		.cfi_startproc
  62              		@ args = 0, pretend = 0, frame = 0
  63              		@ frame_needed = 0, uses_anonymous_args = 0
  64              		.loc 1 614 3 view .LVU6
  65              		.loc 1 601 24 is_stmt 0 view .LVU7
  66 0000 10B5     		push	{r4, lr}
  67              		.cfi_def_cfa_offset 8
  68              		.cfi_offset 4, -8
  69              		.cfi_offset 14, -4
  70              		.loc 1 614 3 view .LVU8
  71 0002 0C4C     		ldr	r4, .L7
  72              		.loc 1 601 24 view .LVU9
  73 0004 82B0     		sub	sp, sp, #8
  74              		.cfi_def_cfa_offset 16
  75              		.loc 1 614 3 view .LVU10
  76 0006 2046     		mov	r0, r4
  77 0008 FFF7FEFF 		bl	sdObjectInit
  78              	.LVL1:
  79              		.loc 1 615 3 is_stmt 1 view .LVU11
  80 000c 04F10C00 		add	r0, r4, #12
  81 0010 0949     		ldr	r1, .L7+4
  82 0012 0094     		str	r4, [sp]
  83 0014 0023     		movs	r3, #0
  84 0016 1022     		movs	r2, #16
  85 0018 FFF7FEFF 		bl	iqObjectInit
  86              	.LVL2:
  87              		.loc 1 616 3 view .LVU12
  88 001c 074B     		ldr	r3, .L7+8
  89 001e 0849     		ldr	r1, .L7+12
  90 0020 0094     		str	r4, [sp]
  91 0022 1022     		movs	r2, #16
  92 0024 04F13000 		add	r0, r4, #48
  93 0028 FFF7FEFF 		bl	oqObjectInit
  94              	.LVL3:
  95              		.loc 1 617 3 view .LVU13
  96              		.loc 1 617 13 is_stmt 0 view .LVU14
  97 002c 054B     		ldr	r3, .L7+16
  98 002e 6365     		str	r3, [r4, #84]
  99              		.loc 1 692 1 view .LVU15
 100 0030 02B0     		add	sp, sp, #8
 101              		.cfi_def_cfa_offset 8
 102              		@ sp needed
 103 0032 10BD     		pop	{r4, pc}
 104              	.L8:
 105              		.align	2
 106              	.L7:
 107 0034 00000000 		.word	.LANCHOR0
 108 0038 00000000 		.word	.LANCHOR1
 109 003c 00000000 		.word	notify2
 110 0040 00000000 		.word	.LANCHOR2
 111 0044 00440040 		.word	1073759232
 112              		.cfi_endproc
 113              	.LFE404:
 114              		.size	sd_lld_init, .-sd_lld_init
ARM GAS  /tmp/cchLSmzv.s 			page 3


 115              		.section	.text.sd_lld_start,"ax",%progbits
 116              		.align	1
 117              		.p2align 4,,15
 118              		.global	sd_lld_start
 119              		.syntax unified
 120              		.thumb
 121              		.thumb_func
 122              		.fpu softvfp
 123              		.type	sd_lld_start, %function
 124              	sd_lld_start:
 125              	.LVL4:
 126              	.LFB405:
 127              		.loc 1 704 66 is_stmt 1 view -0
 128              		.cfi_startproc
 129              		@ args = 0, pretend = 0, frame = 0
 130              		@ frame_needed = 0, uses_anonymous_args = 0
 131              		.loc 1 705 3 view .LVU17
 132              		.loc 1 707 3 view .LVU18
 133              		.loc 1 704 66 is_stmt 0 view .LVU19
 134 0000 2DE9F041 		push	{r4, r5, r6, r7, r8, lr}
 135              		.cfi_def_cfa_offset 24
 136              		.cfi_offset 4, -24
 137              		.cfi_offset 5, -20
 138              		.cfi_offset 6, -16
 139              		.cfi_offset 7, -12
 140              		.cfi_offset 8, -8
 141              		.cfi_offset 14, -4
 142              		.loc 1 707 6 view .LVU20
 143 0004 91B3     		cbz	r1, .L10
 144              		.loc 1 710 3 is_stmt 1 view .LVU21
 145              	.LBB126:
 146              	.LBB127:
 147              		.loc 1 253 37 is_stmt 0 view .LVU22
 148 0006 D1E90042 		ldrd	r4, r2, [r1]
 149              		.loc 1 267 24 view .LVU23
 150 000a D1E90265 		ldrd	r6, r5, [r1, #8]
 151              	.LBE127:
 152              	.LBE126:
 153              		.loc 1 710 6 view .LVU24
 154 000e 037A     		ldrb	r3, [r0, #8]	@ zero_extendqisi2
 155              	.LBB136:
 156              	.LBB128:
 157              		.loc 1 269 58 view .LVU25
 158 0010 42F49677 		orr	r7, r2, #300
 159              	.LBE128:
 160              	.LBE136:
 161              		.loc 1 710 6 view .LVU26
 162 0014 012B     		cmp	r3, #1
 163              	.LBB137:
 164              	.LBB129:
 165              		.loc 1 266 24 view .LVU27
 166 0016 46F0400C 		orr	ip, r6, #64
 167              		.loc 1 253 44 view .LVU28
 168 001a 4FEA5403 		lsr	r3, r4, #1
 169              		.loc 1 267 24 view .LVU29
 170 001e 45F00105 		orr	r5, r5, #1
 171              		.loc 1 269 58 view .LVU30
ARM GAS  /tmp/cchLSmzv.s 			page 4


 172 0022 47F00107 		orr	r7, r7, #1
 173              		.loc 1 258 21 view .LVU31
 174 0026 02F40046 		and	r6, r2, #32768
 175              		.loc 1 275 20 view .LVU32
 176 002a 02F48061 		and	r1, r2, #1024
 177              	.LVL5:
 178              		.loc 1 275 20 view .LVU33
 179              	.LBE129:
 180              	.LBE137:
 181              		.loc 1 710 6 view .LVU34
 182 002e 3BD0     		beq	.L19
 183              	.LVL6:
 184              	.L12:
 185              		.loc 1 720 28 is_stmt 1 discriminator 5 view .LVU35
 186              		.loc 1 766 3 discriminator 5 view .LVU36
 187              	.LBB138:
 188              	.LBI126:
 189              		.loc 1 233 13 discriminator 5 view .LVU37
 190              	.LBB130:
 191              		.loc 1 236 3 discriminator 5 view .LVU38
 192              		.loc 1 237 3 discriminator 5 view .LVU39
 193              		.loc 1 253 9 is_stmt 0 discriminator 5 view .LVU40
 194 0030 B3FBF4F3 		udiv	r3, r3, r4
 195              		.loc 1 237 18 discriminator 5 view .LVU41
 196 0034 446D     		ldr	r4, [r0, #84]
 197              	.LVL7:
 198              		.loc 1 253 5 is_stmt 1 discriminator 5 view .LVU42
 199              		.loc 1 258 5 discriminator 5 view .LVU43
 200              		.loc 1 258 8 is_stmt 0 discriminator 5 view .LVU44
 201 0036 2EB1     		cbz	r6, .L13
 202              	.L33:
 203              		.loc 1 259 7 is_stmt 1 view .LVU45
 204              		.loc 1 259 19 is_stmt 0 view .LVU46
 205 0038 23F00706 		bic	r6, r3, #7
 206              		.loc 1 259 37 view .LVU47
 207 003c 03F00703 		and	r3, r3, #7
 208              	.LVL8:
 209              		.loc 1 259 11 view .LVU48
 210 0040 43EA4603 		orr	r3, r3, r6, lsl #1
 211              	.LVL9:
 212              	.L13:
 213              		.loc 1 261 5 is_stmt 1 view .LVU49
 214              		.loc 1 261 5 view .LVU50
 215              		.loc 1 261 5 view .LVU51
 216              		.loc 1 263 3 view .LVU52
 217              		.loc 1 263 10 is_stmt 0 view .LVU53
 218 0044 E360     		str	r3, [r4, #12]
 219              		.loc 1 266 3 is_stmt 1 view .LVU54
 220              		.loc 1 271 10 is_stmt 0 view .LVU55
 221 0046 4FF0FF33 		mov	r3, #-1
 222              	.LVL10:
 223              		.loc 1 266 10 view .LVU56
 224 004a C4F804C0 		str	ip, [r4, #4]
 225              	.LVL11:
 226              		.loc 1 267 3 is_stmt 1 view .LVU57
 227              		.loc 1 267 10 is_stmt 0 view .LVU58
 228 004e A560     		str	r5, [r4, #8]
ARM GAS  /tmp/cchLSmzv.s 			page 5


 229              		.loc 1 268 3 is_stmt 1 view .LVU59
 230              		.loc 1 268 10 is_stmt 0 view .LVU60
 231 0050 2760     		str	r7, [r4]
 232              		.loc 1 271 3 is_stmt 1 view .LVU61
 233              		.loc 1 271 10 is_stmt 0 view .LVU62
 234 0052 2362     		str	r3, [r4, #32]
 235              		.loc 1 275 3 is_stmt 1 view .LVU63
 236              		.loc 1 275 6 is_stmt 0 view .LVU64
 237 0054 C9B1     		cbz	r1, .L14
 238              		.loc 1 276 5 is_stmt 1 view .LVU65
 239 0056 12F01022 		ands	r2, r2, #268439552
 240 005a 45D0     		beq	.L15
 241 005c B2F1805F 		cmp	r2, #268435456
 242 0060 14D1     		bne	.L31
 243              		.loc 1 281 7 view .LVU66
 244              		.loc 1 281 19 is_stmt 0 view .LVU67
 245 0062 3F23     		movs	r3, #63
 246 0064 80F85830 		strb	r3, [r0, #88]
 247              		.loc 1 282 7 is_stmt 1 view .LVU68
 248              	.LBE130:
 249              	.LBE138:
 250              		.loc 1 767 1 is_stmt 0 view .LVU69
 251 0068 BDE8F081 		pop	{r4, r5, r6, r7, r8, pc}
 252              	.LVL12:
 253              	.L10:
 254              		.loc 1 708 5 is_stmt 1 view .LVU70
 255              		.loc 1 710 3 view .LVU71
 256              		.loc 1 710 6 is_stmt 0 view .LVU72
 257 006c 057A     		ldrb	r5, [r0, #8]	@ zero_extendqisi2
 258 006e 012D     		cmp	r5, #1
 259 0070 10D0     		beq	.L32
 260              		.loc 1 720 28 is_stmt 1 view .LVU73
 261              		.loc 1 766 3 view .LVU74
 262              	.LVL13:
 263              	.LBB139:
 264              		.loc 1 233 13 view .LVU75
 265              	.LBB131:
 266              		.loc 1 236 3 view .LVU76
 267              		.loc 1 237 3 view .LVU77
 268              		.loc 1 237 18 is_stmt 0 view .LVU78
 269 0072 436D     		ldr	r3, [r0, #84]
 270              	.LVL14:
 271              		.loc 1 253 5 is_stmt 1 view .LVU79
 272              		.loc 1 258 5 view .LVU80
 273              		.loc 1 261 5 view .LVU81
 274              		.loc 1 261 5 view .LVU82
 275              		.loc 1 261 5 view .LVU83
 276              		.loc 1 263 3 view .LVU84
 277              		.loc 1 266 10 is_stmt 0 view .LVU85
 278 0074 4022     		movs	r2, #64
 279              		.loc 1 263 10 view .LVU86
 280 0076 D960     		str	r1, [r3, #12]
 281              		.loc 1 266 3 is_stmt 1 view .LVU87
 282              		.loc 1 267 10 is_stmt 0 view .LVU88
 283 0078 0124     		movs	r4, #1
 284              		.loc 1 266 10 view .LVU89
 285 007a 5A60     		str	r2, [r3, #4]
ARM GAS  /tmp/cchLSmzv.s 			page 6


 286              		.loc 1 267 3 is_stmt 1 view .LVU90
 287              		.loc 1 268 10 is_stmt 0 view .LVU91
 288 007c 40F22D11 		movw	r1, #301
 289              		.loc 1 271 10 view .LVU92
 290 0080 4FF0FF32 		mov	r2, #-1
 291              		.loc 1 267 10 view .LVU93
 292 0084 9C60     		str	r4, [r3, #8]
 293              		.loc 1 268 3 is_stmt 1 view .LVU94
 294              		.loc 1 268 10 is_stmt 0 view .LVU95
 295 0086 1960     		str	r1, [r3]
 296              		.loc 1 271 3 is_stmt 1 view .LVU96
 297              		.loc 1 271 10 is_stmt 0 view .LVU97
 298 0088 1A62     		str	r2, [r3, #32]
 299              		.loc 1 275 3 is_stmt 1 view .LVU98
 300              	.LVL15:
 301              	.L14:
 302              		.loc 1 288 5 view .LVU99
 303              		.loc 1 288 17 is_stmt 0 view .LVU100
 304 008a FF23     		movs	r3, #255
 305              	.L31:
 306 008c 80F85830 		strb	r3, [r0, #88]
 307              	.LBE131:
 308              	.LBE139:
 309              		.loc 1 767 1 view .LVU101
 310 0090 BDE8F081 		pop	{r4, r5, r6, r7, r8, pc}
 311              	.LVL16:
 312              	.L32:
 313              		.loc 1 710 6 view .LVU102
 314 0094 40F22D17 		movw	r7, #301
 315 0098 4FF0400C 		mov	ip, #64
 316 009c 0E46     		mov	r6, r1
 317 009e 0A46     		mov	r2, r1
 318 00a0 4FF49643 		mov	r3, #19200
 319 00a4 4FF41644 		mov	r4, #38400
 320              	.LVL17:
 321              	.L19:
 322              		.loc 1 718 5 is_stmt 1 view .LVU103
 323              		.loc 1 718 8 is_stmt 0 view .LVU104
 324 00a8 DFF848E0 		ldr	lr, .L34
 325 00ac 7045     		cmp	r0, lr
 326 00ae BFD1     		bne	.L12
 327              		.loc 1 719 7 is_stmt 1 view .LVU105
 328              	.LVL18:
 329              		.loc 1 720 7 view .LVU106
 330 00b0 DFF844E0 		ldr	lr, .L34+4
 331 00b4 DEF85880 		ldr	r8, [lr, #88]
 332 00b8 48F40038 		orr	r8, r8, #131072
 333 00bc CEF85880 		str	r8, [lr, #88]
 334              		.loc 1 720 7 view .LVU107
 335              		.loc 1 720 7 view .LVU108
 336 00c0 DEF87880 		ldr	r8, [lr, #120]
 337              	.LBB140:
 338              	.LBB132:
 339              		.loc 1 253 29 is_stmt 0 view .LVU109
 340 00c4 03F19863 		add	r3, r3, #79691776
 341              	.LBE132:
 342              	.LBE140:
ARM GAS  /tmp/cchLSmzv.s 			page 7


 343              		.loc 1 720 7 view .LVU110
 344 00c8 48F40038 		orr	r8, r8, #131072
 345              	.LBB141:
 346              	.LBB133:
 347              		.loc 1 253 29 view .LVU111
 348 00cc 03F59623 		add	r3, r3, #307200
 349              	.LBE133:
 350              	.LBE141:
 351              		.loc 1 720 7 view .LVU112
 352 00d0 CEF87880 		str	r8, [lr, #120]
 353              		.loc 1 720 7 is_stmt 1 view .LVU113
 354              	.LBB142:
 355              	.LBB134:
 356              		.loc 1 253 29 is_stmt 0 view .LVU114
 357 00d4 03F58063 		add	r3, r3, #1024
 358              	.LBE134:
 359              	.LBE142:
 360              		.loc 1 720 7 view .LVU115
 361 00d8 DEF878E0 		ldr	lr, [lr, #120]
 362              	.LVL19:
 363              		.loc 1 720 28 is_stmt 1 view .LVU116
 364              		.loc 1 766 3 view .LVU117
 365              	.LBB143:
 366              		.loc 1 233 13 view .LVU118
 367              	.LBB135:
 368              		.loc 1 236 3 view .LVU119
 369              		.loc 1 237 3 view .LVU120
 370              		.loc 1 253 9 is_stmt 0 view .LVU121
 371 00dc B3FBF4F3 		udiv	r3, r3, r4
 372              		.loc 1 237 18 view .LVU122
 373 00e0 446D     		ldr	r4, [r0, #84]
 374              	.LVL20:
 375              		.loc 1 253 5 is_stmt 1 view .LVU123
 376              		.loc 1 258 5 view .LVU124
 377              		.loc 1 258 8 is_stmt 0 view .LVU125
 378 00e2 002E     		cmp	r6, #0
 379 00e4 A8D1     		bne	.L33
 380 00e6 ADE7     		b	.L13
 381              	.LVL21:
 382              	.L15:
 383              		.loc 1 278 7 is_stmt 1 view .LVU126
 384              		.loc 1 278 19 is_stmt 0 view .LVU127
 385 00e8 7F23     		movs	r3, #127
 386 00ea 80F85830 		strb	r3, [r0, #88]
 387              		.loc 1 279 7 is_stmt 1 view .LVU128
 388              	.LBE135:
 389              	.LBE143:
 390              		.loc 1 767 1 is_stmt 0 view .LVU129
 391 00ee BDE8F081 		pop	{r4, r5, r6, r7, r8, pc}
 392              	.L35:
 393 00f2 00BF     		.align	2
 394              	.L34:
 395 00f4 00000000 		.word	.LANCHOR0
 396 00f8 00100240 		.word	1073876992
 397              		.cfi_endproc
 398              	.LFE405:
 399              		.size	sd_lld_start, .-sd_lld_start
ARM GAS  /tmp/cchLSmzv.s 			page 8


 400              		.section	.text.sd_lld_stop,"ax",%progbits
 401              		.align	1
 402              		.p2align 4,,15
 403              		.global	sd_lld_stop
 404              		.syntax unified
 405              		.thumb
 406              		.thumb_func
 407              		.fpu softvfp
 408              		.type	sd_lld_stop, %function
 409              	sd_lld_stop:
 410              	.LVL22:
 411              	.LFB406:
 412              		.loc 1 778 37 is_stmt 1 view -0
 413              		.cfi_startproc
 414              		@ args = 0, pretend = 0, frame = 0
 415              		@ frame_needed = 0, uses_anonymous_args = 0
 416              		@ link register save eliminated.
 417              		.loc 1 780 3 view .LVU131
 418              		.loc 1 780 6 is_stmt 0 view .LVU132
 419 0000 037A     		ldrb	r3, [r0, #8]	@ zero_extendqisi2
 420 0002 022B     		cmp	r3, #2
 421 0004 00D0     		beq	.L40
 422              	.L36:
 423              		.loc 1 839 1 view .LVU133
 424 0006 7047     		bx	lr
 425              	.L40:
 426              		.loc 1 782 5 is_stmt 1 view .LVU134
 427              		.loc 1 791 8 is_stmt 0 view .LVU135
 428 0008 0949     		ldr	r1, .L41
 429              		.loc 1 782 5 view .LVU136
 430 000a 436D     		ldr	r3, [r0, #84]
 431              	.LVL23:
 432              	.LBB144:
 433              	.LBI144:
 434              		.loc 1 298 13 is_stmt 1 view .LVU137
 435              	.LBB145:
 436              		.loc 1 300 3 view .LVU138
 437              		.loc 1 300 10 is_stmt 0 view .LVU139
 438 000c 0022     		movs	r2, #0
 439              	.LBE145:
 440              	.LBE144:
 441              		.loc 1 791 8 view .LVU140
 442 000e 8842     		cmp	r0, r1
 443              	.LBB147:
 444              	.LBB146:
 445              		.loc 1 300 10 view .LVU141
 446 0010 1A60     		str	r2, [r3]
 447              		.loc 1 301 3 is_stmt 1 view .LVU142
 448              		.loc 1 301 10 is_stmt 0 view .LVU143
 449 0012 5A60     		str	r2, [r3, #4]
 450              		.loc 1 302 3 is_stmt 1 view .LVU144
 451              		.loc 1 302 10 is_stmt 0 view .LVU145
 452 0014 9A60     		str	r2, [r3, #8]
 453              	.LVL24:
 454              		.loc 1 302 10 view .LVU146
 455              	.LBE146:
 456              	.LBE147:
ARM GAS  /tmp/cchLSmzv.s 			page 9


 457              		.loc 1 791 5 is_stmt 1 view .LVU147
 458              		.loc 1 791 8 is_stmt 0 view .LVU148
 459 0016 F6D1     		bne	.L36
 460              		.loc 1 792 7 is_stmt 1 view .LVU149
 461 0018 064B     		ldr	r3, .L41+4
 462 001a 9A6D     		ldr	r2, [r3, #88]
 463 001c 22F40032 		bic	r2, r2, #131072
 464 0020 9A65     		str	r2, [r3, #88]
 465              		.loc 1 792 7 view .LVU150
 466 0022 9A6F     		ldr	r2, [r3, #120]
 467 0024 22F40032 		bic	r2, r2, #131072
 468 0028 9A67     		str	r2, [r3, #120]
 469              		.loc 1 792 7 view .LVU151
 470 002a 9B6F     		ldr	r3, [r3, #120]
 471              		.loc 1 792 25 view .LVU152
 472              		.loc 1 793 7 view .LVU153
 473 002c EBE7     		b	.L36
 474              	.L42:
 475 002e 00BF     		.align	2
 476              	.L41:
 477 0030 00000000 		.word	.LANCHOR0
 478 0034 00100240 		.word	1073876992
 479              		.cfi_endproc
 480              	.LFE406:
 481              		.size	sd_lld_stop, .-sd_lld_stop
 482              		.section	.text.sd_lld_serve_interrupt,"ax",%progbits
 483              		.align	1
 484              		.p2align 4,,15
 485              		.global	sd_lld_serve_interrupt
 486              		.syntax unified
 487              		.thumb
 488              		.thumb_func
 489              		.fpu softvfp
 490              		.type	sd_lld_serve_interrupt, %function
 491              	sd_lld_serve_interrupt:
 492              	.LVL25:
 493              	.LFB407:
 494              		.loc 1 846 48 view -0
 495              		.cfi_startproc
 496              		@ args = 0, pretend = 0, frame = 0
 497              		@ frame_needed = 0, uses_anonymous_args = 0
 498              		.loc 1 847 3 view .LVU155
 499              		.loc 1 846 48 is_stmt 0 view .LVU156
 500 0000 2DE9F047 		push	{r4, r5, r6, r7, r8, r9, r10, lr}
 501              		.cfi_def_cfa_offset 32
 502              		.cfi_offset 4, -32
 503              		.cfi_offset 5, -28
 504              		.cfi_offset 6, -24
 505              		.cfi_offset 7, -20
 506              		.cfi_offset 8, -16
 507              		.cfi_offset 9, -12
 508              		.cfi_offset 10, -8
 509              		.cfi_offset 14, -4
 510              		.loc 1 847 18 view .LVU157
 511 0004 D0F85490 		ldr	r9, [r0, #84]
 512              	.LVL26:
 513              		.loc 1 848 3 is_stmt 1 view .LVU158
ARM GAS  /tmp/cchLSmzv.s 			page 10


 514              		.loc 1 848 12 is_stmt 0 view .LVU159
 515 0008 D9F80080 		ldr	r8, [r9]
 516              	.LVL27:
 517              		.loc 1 849 3 is_stmt 1 view .LVU160
 518              		.loc 1 852 3 view .LVU161
 519              		.loc 1 852 7 is_stmt 0 view .LVU162
 520 000c D9F81C40 		ldr	r4, [r9, #28]
 521              	.LVL28:
 522              		.loc 1 853 3 is_stmt 1 view .LVU163
 523              		.loc 1 853 10 is_stmt 0 view .LVU164
 524 0010 C9F82040 		str	r4, [r9, #32]
 525              		.loc 1 856 3 is_stmt 1 view .LVU165
 526              		.loc 1 856 6 is_stmt 0 view .LVU166
 527 0014 2107     		lsls	r1, r4, #28
 528              		.loc 1 846 48 view .LVU167
 529 0016 8246     		mov	r10, r0
 530              		.loc 1 856 6 view .LVU168
 531 0018 59D1     		bne	.L93
 532              	.LVL29:
 533              	.L44:
 534              		.loc 1 860 3 is_stmt 1 view .LVU169
 535              		.loc 1 860 6 is_stmt 0 view .LVU170
 536 001a E605     		lsls	r6, r4, #23
 537 001c 4AD4     		bmi	.L94
 538              	.L49:
 539              		.loc 1 871 9 is_stmt 1 view .LVU171
 540 001e A506     		lsls	r5, r4, #26
 541 0020 11D5     		bpl	.L50
 542              	.LBB228:
 543              	.LBB229:
 544              	.LBB230:
 545              	.LBB231:
 546              	.LBB232:
 547              	.LBB233:
 548              		.file 2 "../ChibiOS/os/common/ext/ARM/CMSIS/Core/Include/cmsis_gcc.h"
 549              		.loc 2 493 3 is_stmt 0 view .LVU172
 550 0022 3026     		movs	r6, #48
 551              	.LBE233:
 552              	.LBE232:
 553              	.LBE231:
 554              	.LBE230:
 555              	.LBE229:
 556              	.LBE228:
 557              	.LBB245:
 558              	.LBB246:
 559              	.LBB247:
 560              	.LBB248:
 561              	.LBB249:
 562              	.LBB250:
 563 0024 0025     		movs	r5, #0
 564              	.L51:
 565              		.loc 2 493 3 view .LVU173
 566              	.LBE250:
 567              	.LBE249:
 568              	.LBE248:
 569              	.LBE247:
 570              	.LBE246:
ARM GAS  /tmp/cchLSmzv.s 			page 11


 571              	.LBE245:
 572              		.loc 1 872 5 is_stmt 1 view .LVU174
 573              	.LBB262:
 574              	.LBI228:
 575              		.file 3 "../ChibiOS/os/hal/osal/rt-nil/osal.h"
 576              		.loc 3 595 20 view .LVU175
 577              	.LBE262:
 578              		.loc 3 597 3 view .LVU176
 579              	.LBB263:
 580              	.LBB241:
 581              	.LBI229:
 582              		.file 4 "../ChibiOS/os/rt/include/chsys.h"
 583              		.loc 4 451 20 view .LVU177
 584              	.LBE241:
 585              	.LBE263:
 586              		.loc 4 453 3 view .LVU178
 587              	.LBB264:
 588              	.LBB242:
 589              	.LBB238:
 590              	.LBI230:
 591              		.file 5 "../ChibiOS/os/common/ports/ARMv7-M/chcore.h"
 592              		.loc 5 845 27 view .LVU179
 593              	.LBE238:
 594              	.LBE242:
 595              	.LBE264:
 596              		.loc 5 847 3 view .LVU180
 597              	.LBB265:
 598              	.LBB243:
 599              	.LBB239:
 600              	.LBB236:
 601              	.LBI231:
 602              		.loc 5 806 27 view .LVU181
 603              	.LBE236:
 604              	.LBE239:
 605              	.LBE243:
 606              	.LBE265:
 607              		.loc 5 814 3 view .LVU182
 608              	.LVL30:
 609              	.LBB266:
 610              	.LBB244:
 611              	.LBB240:
 612              	.LBB237:
 613              	.LBB235:
 614              	.LBI232:
 615              		.loc 2 491 27 view .LVU183
 616              	.LBB234:
 617              		.loc 2 493 3 view .LVU184
 618              		.syntax unified
 619              	@ 493 "../ChibiOS/os/common/ext/ARM/CMSIS/Core/Include/cmsis_gcc.h" 1
 620 0026 86F31188 		MSR basepri, r6
 621              	@ 0 "" 2
 622              	.LVL31:
 623              		.loc 2 493 3 is_stmt 0 view .LVU185
 624              		.thumb
 625              		.syntax unified
 626              	.LBE234:
 627              	.LBE235:
ARM GAS  /tmp/cchLSmzv.s 			page 12


 628              	.LBE237:
 629              	.LBE240:
 630              	.LBE244:
 631              	.LBE266:
 632              		.loc 4 454 35 is_stmt 1 view .LVU186
 633              		.loc 4 455 30 view .LVU187
 634              		.loc 1 873 5 view .LVU188
 635              		.loc 1 873 36 is_stmt 0 view .LVU189
 636 002a B9F82430 		ldrh	r3, [r9, #36]
 637              		.loc 1 873 5 view .LVU190
 638 002e 9AF85810 		ldrb	r1, [r10, #88]	@ zero_extendqisi2
 639 0032 5046     		mov	r0, r10
 640 0034 1940     		ands	r1, r1, r3
 641 0036 FFF7FEFF 		bl	sdIncomingDataI
 642              	.LVL32:
 643              		.loc 1 874 5 is_stmt 1 view .LVU191
 644              	.LBB267:
 645              	.LBI245:
 646              		.loc 3 606 20 view .LVU192
 647              	.LBE267:
 648              		.loc 3 608 3 view .LVU193
 649              	.LBB268:
 650              	.LBB258:
 651              	.LBI246:
 652              		.loc 4 473 20 view .LVU194
 653              	.LBE258:
 654              	.LBE268:
 655              		.loc 4 475 32 view .LVU195
 656              		.loc 4 476 34 view .LVU196
 657              		.loc 4 477 3 view .LVU197
 658              	.LBB269:
 659              	.LBB259:
 660              	.LBB255:
 661              	.LBI247:
 662              		.loc 5 856 27 view .LVU198
 663              	.LBE255:
 664              	.LBE259:
 665              	.LBE269:
 666              		.loc 5 858 3 view .LVU199
 667              	.LBB270:
 668              	.LBB260:
 669              	.LBB256:
 670              	.LBB253:
 671              	.LBI248:
 672              		.loc 5 830 27 view .LVU200
 673              	.LBE253:
 674              	.LBE256:
 675              	.LBE260:
 676              	.LBE270:
 677              		.loc 5 833 3 view .LVU201
 678              	.LBB271:
 679              	.LBB261:
 680              	.LBB257:
 681              	.LBB254:
 682              	.LBB252:
 683              	.LBI249:
 684              		.loc 2 491 27 view .LVU202
ARM GAS  /tmp/cchLSmzv.s 			page 13


 685              	.LBB251:
 686              		.loc 2 493 3 view .LVU203
 687              		.syntax unified
 688              	@ 493 "../ChibiOS/os/common/ext/ARM/CMSIS/Core/Include/cmsis_gcc.h" 1
 689 003a 85F31188 		MSR basepri, r5
 690              	@ 0 "" 2
 691              	.LVL33:
 692              		.loc 2 493 3 is_stmt 0 view .LVU204
 693              		.thumb
 694              		.syntax unified
 695              	.LBE251:
 696              	.LBE252:
 697              	.LBE254:
 698              	.LBE257:
 699              	.LBE261:
 700              	.LBE271:
 701              		.loc 1 876 5 is_stmt 1 view .LVU205
 702              		.loc 1 876 9 is_stmt 0 view .LVU206
 703 003e D9F81C40 		ldr	r4, [r9, #28]
 704              		.loc 1 871 9 is_stmt 1 view .LVU207
 705 0042 A006     		lsls	r0, r4, #26
 706 0044 EFD4     		bmi	.L51
 707              	.L50:
 708              		.loc 1 885 3 view .LVU208
 709              		.loc 1 885 6 is_stmt 0 view .LVU209
 710 0046 18F0800F 		tst	r8, #128
 711 004a 22D0     		beq	.L52
 712              		.loc 1 886 11 is_stmt 1 view .LVU210
 713 004c 2106     		lsls	r1, r4, #24
 714 004e 20D5     		bpl	.L52
 715              	.LBB272:
 716              		.loc 1 890 11 is_stmt 0 view .LVU211
 717 0050 0AF13006 		add	r6, r10, #48
 718              	.LBB273:
 719              	.LBB274:
 720              	.LBB275:
 721              	.LBB276:
 722              	.LBB277:
 723              	.LBB278:
 724              		.loc 2 493 3 view .LVU212
 725 0054 3025     		movs	r5, #48
 726              	.LBE278:
 727              	.LBE277:
 728              	.LBE276:
 729              	.LBE275:
 730              	.LBE274:
 731              	.LBE273:
 732              	.LBB290:
 733              	.LBB291:
 734              	.LBB292:
 735              	.LBB293:
 736              	.LBB294:
 737              	.LBB295:
 738 0056 0027     		movs	r7, #0
 739 0058 07E0     		b	.L54
 740              	.LVL34:
 741              	.L53:
ARM GAS  /tmp/cchLSmzv.s 			page 14


 742              		.loc 2 493 3 view .LVU213
 743              	.LBE295:
 744              	.LBE294:
 745              	.LBE293:
 746              	.LBE292:
 747              	.LBE291:
 748              	.LBE290:
 749              		.loc 1 897 14 view .LVU214
 750 005a A9F82800 		strh	r0, [r9, #40]	@ movhi
 751              		.loc 1 898 7 is_stmt 1 view .LVU215
 752              	.LBB307:
 753              	.LBI290:
 754              		.loc 3 606 20 view .LVU216
 755              	.LBE307:
 756              	.LBE272:
 757              		.loc 3 608 3 view .LVU217
 758              	.LBB338:
 759              	.LBB308:
 760              	.LBB303:
 761              	.LBI291:
 762              		.loc 4 473 20 view .LVU218
 763              	.LBE303:
 764              	.LBE308:
 765              	.LBE338:
 766              		.loc 4 475 32 view .LVU219
 767              		.loc 4 476 34 view .LVU220
 768              		.loc 4 477 3 view .LVU221
 769              	.LBB339:
 770              	.LBB309:
 771              	.LBB304:
 772              	.LBB300:
 773              	.LBI292:
 774              		.loc 5 856 27 view .LVU222
 775              	.LBE300:
 776              	.LBE304:
 777              	.LBE309:
 778              	.LBE339:
 779              		.loc 5 858 3 view .LVU223
 780              	.LBB340:
 781              	.LBB310:
 782              	.LBB305:
 783              	.LBB301:
 784              	.LBB298:
 785              	.LBI293:
 786              		.loc 5 830 27 view .LVU224
 787              	.LBE298:
 788              	.LBE301:
 789              	.LBE305:
 790              	.LBE310:
 791              	.LBE340:
 792              		.loc 5 833 3 view .LVU225
 793              	.LVL35:
 794              	.LBB341:
 795              	.LBB311:
 796              	.LBB306:
 797              	.LBB302:
 798              	.LBB299:
ARM GAS  /tmp/cchLSmzv.s 			page 15


 799              	.LBB297:
 800              	.LBI294:
 801              		.loc 2 491 27 view .LVU226
 802              	.LBB296:
 803              		.loc 2 493 3 view .LVU227
 804              		.syntax unified
 805              	@ 493 "../ChibiOS/os/common/ext/ARM/CMSIS/Core/Include/cmsis_gcc.h" 1
 806 005e 87F31188 		MSR basepri, r7
 807              	@ 0 "" 2
 808              	.LVL36:
 809              		.loc 2 493 3 is_stmt 0 view .LVU228
 810              		.thumb
 811              		.syntax unified
 812              	.LBE296:
 813              	.LBE297:
 814              	.LBE299:
 815              	.LBE302:
 816              	.LBE306:
 817              	.LBE311:
 818              		.loc 1 900 7 is_stmt 1 view .LVU229
 819              		.loc 1 900 11 is_stmt 0 view .LVU230
 820 0062 D9F81C40 		ldr	r4, [r9, #28]
 821              		.loc 1 900 11 view .LVU231
 822              	.LBE341:
 823              		.loc 1 886 11 is_stmt 1 view .LVU232
 824 0066 2206     		lsls	r2, r4, #24
 825 0068 13D5     		bpl	.L52
 826              	.L54:
 827              	.LBB342:
 828              		.loc 1 887 7 view .LVU233
 829              		.loc 1 889 7 view .LVU234
 830              	.LBB312:
 831              	.LBI273:
 832              		.loc 3 595 20 view .LVU235
 833              	.LBE312:
 834              	.LBE342:
 835              		.loc 3 597 3 view .LVU236
 836              	.LBB343:
 837              	.LBB313:
 838              	.LBB286:
 839              	.LBI274:
 840              		.loc 4 451 20 view .LVU237
 841              	.LBE286:
 842              	.LBE313:
 843              	.LBE343:
 844              		.loc 4 453 3 view .LVU238
 845              	.LBB344:
 846              	.LBB314:
 847              	.LBB287:
 848              	.LBB283:
 849              	.LBI275:
 850              		.loc 5 845 27 view .LVU239
 851              	.LBE283:
 852              	.LBE287:
 853              	.LBE314:
 854              	.LBE344:
 855              		.loc 5 847 3 view .LVU240
ARM GAS  /tmp/cchLSmzv.s 			page 16


 856              	.LBB345:
 857              	.LBB315:
 858              	.LBB288:
 859              	.LBB284:
 860              	.LBB281:
 861              	.LBI276:
 862              		.loc 5 806 27 view .LVU241
 863              	.LBE281:
 864              	.LBE284:
 865              	.LBE288:
 866              	.LBE315:
 867              	.LBE345:
 868              		.loc 5 814 3 view .LVU242
 869              	.LVL37:
 870              	.LBB346:
 871              	.LBB316:
 872              	.LBB289:
 873              	.LBB285:
 874              	.LBB282:
 875              	.LBB280:
 876              	.LBI277:
 877              		.loc 2 491 27 view .LVU243
 878              	.LBB279:
 879              		.loc 2 493 3 view .LVU244
 880              		.syntax unified
 881              	@ 493 "../ChibiOS/os/common/ext/ARM/CMSIS/Core/Include/cmsis_gcc.h" 1
 882 006a 85F31188 		MSR basepri, r5
 883              	@ 0 "" 2
 884              	.LVL38:
 885              		.loc 2 493 3 is_stmt 0 view .LVU245
 886              		.thumb
 887              		.syntax unified
 888              	.LBE279:
 889              	.LBE280:
 890              	.LBE282:
 891              	.LBE285:
 892              	.LBE289:
 893              	.LBE316:
 894              	.LBE346:
 895              		.loc 4 454 35 is_stmt 1 view .LVU246
 896              		.loc 4 455 30 view .LVU247
 897              	.LBB347:
 898              		.loc 1 890 7 view .LVU248
 899              		.loc 1 890 11 is_stmt 0 view .LVU249
 900 006e 3046     		mov	r0, r6
 901 0070 FFF7FEFF 		bl	oqGetI
 902              	.LVL39:
 903              		.loc 1 897 7 is_stmt 1 view .LVU250
 904              		.loc 1 891 7 view .LVU251
 905              		.loc 1 891 10 is_stmt 0 view .LVU252
 906 0074 0028     		cmp	r0, #0
 907              		.loc 1 897 14 view .LVU253
 908 0076 80B2     		uxth	r0, r0
 909              	.LVL40:
 910              		.loc 1 891 10 view .LVU254
 911 0078 EFDA     		bge	.L53
 912              		.loc 1 892 9 is_stmt 1 view .LVU255
ARM GAS  /tmp/cchLSmzv.s 			page 17


 913              	.LVL41:
 914              	.LBB317:
 915              	.LBI317:
 916              		.loc 3 956 20 view .LVU256
 917              	.LBB318:
 918              		.loc 3 959 3 view .LVU257
 919 007a 0821     		movs	r1, #8
 920 007c 0AF10400 		add	r0, r10, #4
 921              	.LVL42:
 922              		.loc 3 959 3 is_stmt 0 view .LVU258
 923 0080 FFF7FEFF 		bl	chEvtBroadcastFlagsI
 924              	.LVL43:
 925              		.loc 3 959 3 view .LVU259
 926              	.LBE318:
 927              	.LBE317:
 928              		.loc 1 892 44 is_stmt 1 view .LVU260
 929              		.loc 1 893 9 view .LVU261
 930              		.loc 1 893 22 is_stmt 0 view .LVU262
 931 0084 28F08003 		bic	r3, r8, #128
 932              		.loc 1 893 16 view .LVU263
 933 0088 C9F80030 		str	r3, [r9]
 934              		.loc 1 894 9 is_stmt 1 view .LVU264
 935              	.LBB319:
 936              	.LBI319:
 937              		.loc 3 606 20 view .LVU265
 938              	.LBB320:
 939              		.loc 3 608 3 view .LVU266
 940              	.LBB321:
 941              	.LBI321:
 942              		.loc 4 473 20 view .LVU267
 943              	.LBE321:
 944              	.LBE320:
 945              	.LBE319:
 946              	.LBE347:
 947              		.loc 4 475 32 view .LVU268
 948              		.loc 4 476 34 view .LVU269
 949              		.loc 4 477 3 view .LVU270
 950              	.LBB348:
 951              	.LBB335:
 952              	.LBB332:
 953              	.LBB329:
 954              	.LBB322:
 955              	.LBI322:
 956              		.loc 5 856 27 view .LVU271
 957              	.LBE322:
 958              	.LBE329:
 959              	.LBE332:
 960              	.LBE335:
 961              	.LBE348:
 962              		.loc 5 858 3 view .LVU272
 963              	.LBB349:
 964              	.LBB336:
 965              	.LBB333:
 966              	.LBB330:
 967              	.LBB327:
 968              	.LBB323:
 969              	.LBI323:
ARM GAS  /tmp/cchLSmzv.s 			page 18


 970              		.loc 5 830 27 view .LVU273
 971              	.LBE323:
 972              	.LBE327:
 973              	.LBE330:
 974              	.LBE333:
 975              	.LBE336:
 976              	.LBE349:
 977              		.loc 5 833 3 view .LVU274
 978              	.LVL44:
 979              	.LBB350:
 980              	.LBB337:
 981              	.LBB334:
 982              	.LBB331:
 983              	.LBB328:
 984              	.LBB326:
 985              	.LBB324:
 986              	.LBI324:
 987              		.loc 2 491 27 view .LVU275
 988              	.LBB325:
 989              		.loc 2 493 3 view .LVU276
 990 008c 0023     		movs	r3, #0
 991              		.syntax unified
 992              	@ 493 "../ChibiOS/os/common/ext/ARM/CMSIS/Core/Include/cmsis_gcc.h" 1
 993 008e 83F31188 		MSR basepri, r3
 994              	@ 0 "" 2
 995              	.LVL45:
 996              		.thumb
 997              		.syntax unified
 998              	.L52:
 999              		.loc 2 493 3 is_stmt 0 view .LVU277
 1000              	.LBE325:
 1001              	.LBE324:
 1002              	.LBE326:
 1003              	.LBE328:
 1004              	.LBE331:
 1005              	.LBE334:
 1006              	.LBE337:
 1007              	.LBE350:
 1008              		.loc 1 905 3 is_stmt 1 view .LVU278
 1009              		.loc 1 905 6 is_stmt 0 view .LVU279
 1010 0092 18F0400F 		tst	r8, #64
 1011 0096 0BD0     		beq	.L43
 1012              		.loc 1 905 30 discriminator 1 view .LVU280
 1013 0098 6306     		lsls	r3, r4, #25
 1014 009a 09D5     		bpl	.L43
 1015              		.loc 1 906 5 is_stmt 1 view .LVU281
 1016              	.LBB351:
 1017              	.LBI351:
 1018              		.loc 3 595 20 view .LVU282
 1019              	.LBE351:
 1020              		.loc 3 597 3 view .LVU283
 1021              	.LBB363:
 1022              	.LBB352:
 1023              	.LBI352:
 1024              		.loc 4 451 20 view .LVU284
 1025              	.LBE352:
 1026              	.LBE363:
ARM GAS  /tmp/cchLSmzv.s 			page 19


 1027              		.loc 4 453 3 view .LVU285
 1028              	.LBB364:
 1029              	.LBB360:
 1030              	.LBB353:
 1031              	.LBI353:
 1032              		.loc 5 845 27 view .LVU286
 1033              	.LBE353:
 1034              	.LBE360:
 1035              	.LBE364:
 1036              		.loc 5 847 3 view .LVU287
 1037              	.LBB365:
 1038              	.LBB361:
 1039              	.LBB358:
 1040              	.LBB354:
 1041              	.LBI354:
 1042              		.loc 5 806 27 view .LVU288
 1043              	.LBE354:
 1044              	.LBE358:
 1045              	.LBE361:
 1046              	.LBE365:
 1047              		.loc 5 814 3 view .LVU289
 1048              	.LVL46:
 1049              	.LBB366:
 1050              	.LBB362:
 1051              	.LBB359:
 1052              	.LBB357:
 1053              	.LBB355:
 1054              	.LBI355:
 1055              		.loc 2 491 27 view .LVU290
 1056              	.LBB356:
 1057              		.loc 2 493 3 view .LVU291
 1058 009c 3023     		movs	r3, #48
 1059              		.syntax unified
 1060              	@ 493 "../ChibiOS/os/common/ext/ARM/CMSIS/Core/Include/cmsis_gcc.h" 1
 1061 009e 83F31188 		MSR basepri, r3
 1062              	@ 0 "" 2
 1063              	.LVL47:
 1064              		.loc 2 493 3 is_stmt 0 view .LVU292
 1065              		.thumb
 1066              		.syntax unified
 1067              	.LBE356:
 1068              	.LBE355:
 1069              	.LBE357:
 1070              	.LBE359:
 1071              	.LBE362:
 1072              	.LBE366:
 1073              		.loc 4 454 35 is_stmt 1 view .LVU293
 1074              		.loc 4 455 30 view .LVU294
 1075              		.loc 1 907 5 view .LVU295
 1076              		.loc 1 907 9 is_stmt 0 view .LVU296
 1077 00a2 DAE91123 		ldrd	r2, r3, [r10, #68]
 1078 00a6 9A42     		cmp	r2, r3
 1079 00a8 2BD0     		beq	.L95
 1080              	.L56:
 1081              		.loc 1 911 5 is_stmt 1 view .LVU297
 1082              	.LBB367:
 1083              	.LBI367:
ARM GAS  /tmp/cchLSmzv.s 			page 20


 1084              		.loc 3 606 20 view .LVU298
 1085              	.LBB368:
 1086              		.loc 3 608 3 view .LVU299
 1087              	.LBB369:
 1088              	.LBI369:
 1089              		.loc 4 473 20 view .LVU300
 1090              	.LBE369:
 1091              	.LBE368:
 1092              	.LBE367:
 1093              		.loc 4 475 32 view .LVU301
 1094              		.loc 4 476 34 view .LVU302
 1095              		.loc 4 477 3 view .LVU303
 1096              	.LBB383:
 1097              	.LBB380:
 1098              	.LBB377:
 1099              	.LBB370:
 1100              	.LBI370:
 1101              		.loc 5 856 27 view .LVU304
 1102              	.LBE370:
 1103              	.LBE377:
 1104              	.LBE380:
 1105              	.LBE383:
 1106              		.loc 5 858 3 view .LVU305
 1107              	.LBB384:
 1108              	.LBB381:
 1109              	.LBB378:
 1110              	.LBB375:
 1111              	.LBB371:
 1112              	.LBI371:
 1113              		.loc 5 830 27 view .LVU306
 1114              	.LBE371:
 1115              	.LBE375:
 1116              	.LBE378:
 1117              	.LBE381:
 1118              	.LBE384:
 1119              		.loc 5 833 3 view .LVU307
 1120              	.LVL48:
 1121              	.LBB385:
 1122              	.LBB382:
 1123              	.LBB379:
 1124              	.LBB376:
 1125              	.LBB374:
 1126              	.LBB372:
 1127              	.LBI372:
 1128              		.loc 2 491 27 view .LVU308
 1129              	.LBB373:
 1130              		.loc 2 493 3 view .LVU309
 1131 00aa 0023     		movs	r3, #0
 1132              		.syntax unified
 1133              	@ 493 "../ChibiOS/os/common/ext/ARM/CMSIS/Core/Include/cmsis_gcc.h" 1
 1134 00ac 83F31188 		MSR basepri, r3
 1135              	@ 0 "" 2
 1136              	.LVL49:
 1137              		.thumb
 1138              		.syntax unified
 1139              	.L43:
 1140              		.loc 2 493 3 is_stmt 0 view .LVU310
ARM GAS  /tmp/cchLSmzv.s 			page 21


 1141              	.LBE373:
 1142              	.LBE372:
 1143              	.LBE374:
 1144              	.LBE376:
 1145              	.LBE379:
 1146              	.LBE382:
 1147              	.LBE385:
 1148              		.loc 1 913 1 view .LVU311
 1149 00b0 BDE8F087 		pop	{r4, r5, r6, r7, r8, r9, r10, pc}
 1150              	.LVL50:
 1151              	.L94:
 1152              		.loc 1 861 5 is_stmt 1 view .LVU312
 1153              	.LBB386:
 1154              	.LBI386:
 1155              		.loc 3 595 20 view .LVU313
 1156              	.LBE386:
 1157              		.loc 3 597 3 view .LVU314
 1158              	.LBB398:
 1159              	.LBB387:
 1160              	.LBI387:
 1161              		.loc 4 451 20 view .LVU315
 1162              	.LBE387:
 1163              	.LBE398:
 1164              		.loc 4 453 3 view .LVU316
 1165              	.LBB399:
 1166              	.LBB395:
 1167              	.LBB388:
 1168              	.LBI388:
 1169              		.loc 5 845 27 view .LVU317
 1170              	.LBE388:
 1171              	.LBE395:
 1172              	.LBE399:
 1173              		.loc 5 847 3 view .LVU318
 1174              	.LBB400:
 1175              	.LBB396:
 1176              	.LBB393:
 1177              	.LBB389:
 1178              	.LBI389:
 1179              		.loc 5 806 27 view .LVU319
 1180              	.LBE389:
 1181              	.LBE393:
 1182              	.LBE396:
 1183              	.LBE400:
 1184              		.loc 5 814 3 view .LVU320
 1185              	.LBB401:
 1186              	.LBB397:
 1187              	.LBB394:
 1188              	.LBB392:
 1189              	.LBB390:
 1190              	.LBI390:
 1191              		.loc 2 491 27 view .LVU321
 1192              	.LBB391:
 1193              		.loc 2 493 3 view .LVU322
 1194 00b4 3023     		movs	r3, #48
 1195              		.syntax unified
 1196              	@ 493 "../ChibiOS/os/common/ext/ARM/CMSIS/Core/Include/cmsis_gcc.h" 1
 1197 00b6 83F31188 		MSR basepri, r3
ARM GAS  /tmp/cchLSmzv.s 			page 22


 1198              	@ 0 "" 2
 1199              	.LVL51:
 1200              		.loc 2 493 3 is_stmt 0 view .LVU323
 1201              		.thumb
 1202              		.syntax unified
 1203              	.LBE391:
 1204              	.LBE390:
 1205              	.LBE392:
 1206              	.LBE394:
 1207              	.LBE397:
 1208              	.LBE401:
 1209              		.loc 4 454 35 is_stmt 1 view .LVU324
 1210              		.loc 4 455 30 view .LVU325
 1211              		.loc 1 862 5 view .LVU326
 1212              	.LBB402:
 1213              	.LBI402:
 1214              		.loc 3 956 20 view .LVU327
 1215              	.LBB403:
 1216              		.loc 3 959 3 view .LVU328
 1217 00ba 4FF40071 		mov	r1, #512
 1218 00be 0AF10400 		add	r0, r10, #4
 1219              	.LVL52:
 1220              		.loc 3 959 3 is_stmt 0 view .LVU329
 1221 00c2 FFF7FEFF 		bl	chEvtBroadcastFlagsI
 1222              	.LVL53:
 1223              		.loc 3 959 3 view .LVU330
 1224              	.LBE403:
 1225              	.LBE402:
 1226              		.loc 1 862 41 is_stmt 1 view .LVU331
 1227              		.loc 1 863 5 view .LVU332
 1228              	.LBB404:
 1229              	.LBI404:
 1230              		.loc 3 606 20 view .LVU333
 1231              	.LBB405:
 1232              		.loc 3 608 3 view .LVU334
 1233              	.LBB406:
 1234              	.LBI406:
 1235              		.loc 4 473 20 view .LVU335
 1236              	.LBE406:
 1237              	.LBE405:
 1238              	.LBE404:
 1239              		.loc 4 475 32 view .LVU336
 1240              		.loc 4 476 34 view .LVU337
 1241              		.loc 4 477 3 view .LVU338
 1242              	.LBB420:
 1243              	.LBB417:
 1244              	.LBB414:
 1245              	.LBB407:
 1246              	.LBI407:
 1247              		.loc 5 856 27 view .LVU339
 1248              	.LBE407:
 1249              	.LBE414:
 1250              	.LBE417:
 1251              	.LBE420:
 1252              		.loc 5 858 3 view .LVU340
 1253              	.LBB421:
 1254              	.LBB418:
ARM GAS  /tmp/cchLSmzv.s 			page 23


 1255              	.LBB415:
 1256              	.LBB412:
 1257              	.LBB408:
 1258              	.LBI408:
 1259              		.loc 5 830 27 view .LVU341
 1260              	.LBE408:
 1261              	.LBE412:
 1262              	.LBE415:
 1263              	.LBE418:
 1264              	.LBE421:
 1265              		.loc 5 833 3 view .LVU342
 1266              	.LBB422:
 1267              	.LBB419:
 1268              	.LBB416:
 1269              	.LBB413:
 1270              	.LBB411:
 1271              	.LBB409:
 1272              	.LBI409:
 1273              		.loc 2 491 27 view .LVU343
 1274              	.LBB410:
 1275              		.loc 2 493 3 view .LVU344
 1276 00c6 0023     		movs	r3, #0
 1277              		.syntax unified
 1278              	@ 493 "../ChibiOS/os/common/ext/ARM/CMSIS/Core/Include/cmsis_gcc.h" 1
 1279 00c8 83F31188 		MSR basepri, r3
 1280              	@ 0 "" 2
 1281              	.LVL54:
 1282              		.loc 2 493 3 is_stmt 0 view .LVU345
 1283              		.thumb
 1284              		.syntax unified
 1285              	.LBE410:
 1286              	.LBE409:
 1287              	.LBE411:
 1288              	.LBE413:
 1289              	.LBE416:
 1290              		.loc 3 609 1 view .LVU346
 1291 00cc A7E7     		b	.L49
 1292              	.LVL55:
 1293              	.L93:
 1294              		.loc 3 609 1 view .LVU347
 1295              	.LBE419:
 1296              	.LBE422:
 1297              		.loc 1 857 5 is_stmt 1 view .LVU348
 1298              	.LBB423:
 1299              	.LBI423:
 1300              		.loc 1 311 13 view .LVU349
 1301              	.LBB424:
 1302              		.loc 1 312 3 view .LVU350
 1303              		.loc 1 314 3 view .LVU351
 1304              		.loc 1 315 9 is_stmt 0 view .LVU352
 1305 00ce 14F00801 		ands	r1, r4, #8
 1306 00d2 18BF     		it	ne
 1307 00d4 8021     		movne	r1, #128
 1308              	.LVL56:
 1309              		.loc 1 316 3 is_stmt 1 view .LVU353
 1310              		.loc 1 316 6 is_stmt 0 view .LVU354
 1311 00d6 E207     		lsls	r2, r4, #31
ARM GAS  /tmp/cchLSmzv.s 			page 24


 1312              		.loc 1 317 5 is_stmt 1 view .LVU355
 1313              		.loc 1 317 9 is_stmt 0 view .LVU356
 1314 00d8 48BF     		it	mi
 1315 00da 41F02001 		orrmi	r1, r1, #32
 1316              	.LVL57:
 1317              		.loc 1 318 3 is_stmt 1 view .LVU357
 1318              		.loc 1 318 6 is_stmt 0 view .LVU358
 1319 00de A307     		lsls	r3, r4, #30
 1320              		.loc 1 319 5 is_stmt 1 view .LVU359
 1321              		.loc 1 319 9 is_stmt 0 view .LVU360
 1322 00e0 48BF     		it	mi
 1323 00e2 41F04001 		orrmi	r1, r1, #64
 1324              	.LVL58:
 1325              		.loc 1 320 3 is_stmt 1 view .LVU361
 1326              		.loc 1 320 6 is_stmt 0 view .LVU362
 1327 00e6 6707     		lsls	r7, r4, #29
 1328              		.loc 1 321 5 is_stmt 1 view .LVU363
 1329              		.loc 1 321 9 is_stmt 0 view .LVU364
 1330 00e8 48BF     		it	mi
 1331 00ea 41F48071 		orrmi	r1, r1, #256
 1332              	.LVL59:
 1333              		.loc 1 322 3 is_stmt 1 view .LVU365
 1334              	.LBB425:
 1335              	.LBI425:
 1336              		.loc 3 595 20 view .LVU366
 1337              	.LBE425:
 1338              	.LBE424:
 1339              	.LBE423:
 1340              		.loc 3 597 3 view .LVU367
 1341              	.LBB468:
 1342              	.LBB459:
 1343              	.LBB437:
 1344              	.LBB426:
 1345              	.LBI426:
 1346              		.loc 4 451 20 view .LVU368
 1347              	.LBE426:
 1348              	.LBE437:
 1349              	.LBE459:
 1350              	.LBE468:
 1351              		.loc 4 453 3 view .LVU369
 1352              	.LBB469:
 1353              	.LBB460:
 1354              	.LBB438:
 1355              	.LBB434:
 1356              	.LBB427:
 1357              	.LBI427:
 1358              		.loc 5 845 27 view .LVU370
 1359              	.LBE427:
 1360              	.LBE434:
 1361              	.LBE438:
 1362              	.LBE460:
 1363              	.LBE469:
 1364              		.loc 5 847 3 view .LVU371
 1365              	.LBB470:
 1366              	.LBB461:
 1367              	.LBB439:
 1368              	.LBB435:
ARM GAS  /tmp/cchLSmzv.s 			page 25


 1369              	.LBB432:
 1370              	.LBB428:
 1371              	.LBI428:
 1372              		.loc 5 806 27 view .LVU372
 1373              	.LBE428:
 1374              	.LBE432:
 1375              	.LBE435:
 1376              	.LBE439:
 1377              	.LBE461:
 1378              	.LBE470:
 1379              		.loc 5 814 3 view .LVU373
 1380              	.LBB471:
 1381              	.LBB462:
 1382              	.LBB440:
 1383              	.LBB436:
 1384              	.LBB433:
 1385              	.LBB431:
 1386              	.LBB429:
 1387              	.LBI429:
 1388              		.loc 2 491 27 view .LVU374
 1389              	.LBB430:
 1390              		.loc 2 493 3 view .LVU375
 1391 00ee 3023     		movs	r3, #48
 1392              		.syntax unified
 1393              	@ 493 "../ChibiOS/os/common/ext/ARM/CMSIS/Core/Include/cmsis_gcc.h" 1
 1394 00f0 83F31188 		MSR basepri, r3
 1395              	@ 0 "" 2
 1396              	.LVL60:
 1397              		.loc 2 493 3 is_stmt 0 view .LVU376
 1398              		.thumb
 1399              		.syntax unified
 1400              	.LBE430:
 1401              	.LBE429:
 1402              	.LBE431:
 1403              	.LBE433:
 1404              	.LBE436:
 1405              	.LBE440:
 1406              	.LBE462:
 1407              	.LBE471:
 1408              		.loc 4 454 35 is_stmt 1 view .LVU377
 1409              		.loc 4 455 30 view .LVU378
 1410              	.LBB472:
 1411              	.LBB463:
 1412              		.loc 1 323 3 view .LVU379
 1413              	.LBB441:
 1414              	.LBI441:
 1415              		.loc 3 956 20 view .LVU380
 1416              	.LBB442:
 1417              		.loc 3 959 3 view .LVU381
 1418 00f4 0430     		adds	r0, r0, #4
 1419              	.LVL61:
 1420              		.loc 3 959 3 is_stmt 0 view .LVU382
 1421 00f6 FFF7FEFF 		bl	chEvtBroadcastFlagsI
 1422              	.LVL62:
 1423              		.loc 3 959 3 view .LVU383
 1424              	.LBE442:
 1425              	.LBE441:
ARM GAS  /tmp/cchLSmzv.s 			page 26


 1426              		.loc 1 323 25 is_stmt 1 view .LVU384
 1427              		.loc 1 324 3 view .LVU385
 1428              	.LBB443:
 1429              	.LBI443:
 1430              		.loc 3 606 20 view .LVU386
 1431              	.LBE443:
 1432              	.LBE463:
 1433              	.LBE472:
 1434              		.loc 3 608 3 view .LVU387
 1435              	.LBB473:
 1436              	.LBB464:
 1437              	.LBB455:
 1438              	.LBB444:
 1439              	.LBI444:
 1440              		.loc 4 473 20 view .LVU388
 1441              	.LBE444:
 1442              	.LBE455:
 1443              	.LBE464:
 1444              	.LBE473:
 1445              		.loc 4 475 32 view .LVU389
 1446              		.loc 4 476 34 view .LVU390
 1447              		.loc 4 477 3 view .LVU391
 1448              	.LBB474:
 1449              	.LBB465:
 1450              	.LBB456:
 1451              	.LBB452:
 1452              	.LBB445:
 1453              	.LBI445:
 1454              		.loc 5 856 27 view .LVU392
 1455              	.LBE445:
 1456              	.LBE452:
 1457              	.LBE456:
 1458              	.LBE465:
 1459              	.LBE474:
 1460              		.loc 5 858 3 view .LVU393
 1461              	.LBB475:
 1462              	.LBB466:
 1463              	.LBB457:
 1464              	.LBB453:
 1465              	.LBB450:
 1466              	.LBB446:
 1467              	.LBI446:
 1468              		.loc 5 830 27 view .LVU394
 1469              	.LBE446:
 1470              	.LBE450:
 1471              	.LBE453:
 1472              	.LBE457:
 1473              	.LBE466:
 1474              	.LBE475:
 1475              		.loc 5 833 3 view .LVU395
 1476              	.LBB476:
 1477              	.LBB467:
 1478              	.LBB458:
 1479              	.LBB454:
 1480              	.LBB451:
 1481              	.LBB449:
 1482              	.LBB447:
ARM GAS  /tmp/cchLSmzv.s 			page 27


 1483              	.LBI447:
 1484              		.loc 2 491 27 view .LVU396
 1485              	.LBB448:
 1486              		.loc 2 493 3 view .LVU397
 1487 00fa 0023     		movs	r3, #0
 1488              		.syntax unified
 1489              	@ 493 "../ChibiOS/os/common/ext/ARM/CMSIS/Core/Include/cmsis_gcc.h" 1
 1490 00fc 83F31188 		MSR basepri, r3
 1491              	@ 0 "" 2
 1492              	.LVL63:
 1493              		.loc 2 493 3 is_stmt 0 view .LVU398
 1494              		.thumb
 1495              		.syntax unified
 1496              	.LBE448:
 1497              	.LBE447:
 1498              	.LBE449:
 1499              	.LBE451:
 1500              	.LBE454:
 1501              	.LBE458:
 1502              		.loc 1 325 1 view .LVU399
 1503 0100 8BE7     		b	.L44
 1504              	.LVL64:
 1505              	.L95:
 1506              		.loc 1 325 1 view .LVU400
 1507              	.LBE467:
 1508              	.LBE476:
 1509              		.loc 1 907 9 discriminator 1 view .LVU401
 1510 0102 DAF83830 		ldr	r3, [r10, #56]
 1511 0106 002B     		cmp	r3, #0
 1512 0108 CFD0     		beq	.L56
 1513              		.loc 1 908 7 is_stmt 1 view .LVU402
 1514              	.LVL65:
 1515              	.LBB477:
 1516              	.LBI477:
 1517              		.loc 3 956 20 view .LVU403
 1518              	.LBB478:
 1519              		.loc 3 959 3 view .LVU404
 1520 010a 1021     		movs	r1, #16
 1521 010c 0AF10400 		add	r0, r10, #4
 1522              	.LVL66:
 1523              		.loc 3 959 3 is_stmt 0 view .LVU405
 1524 0110 FFF7FEFF 		bl	chEvtBroadcastFlagsI
 1525              	.LVL67:
 1526              		.loc 3 959 3 view .LVU406
 1527              	.LBE478:
 1528              	.LBE477:
 1529              		.loc 1 908 46 is_stmt 1 view .LVU407
 1530              		.loc 1 909 7 view .LVU408
 1531              		.loc 1 909 20 is_stmt 0 view .LVU409
 1532 0114 28F04003 		bic	r3, r8, #64
 1533              		.loc 1 909 14 view .LVU410
 1534 0118 C9F80030 		str	r3, [r9]
 1535 011c C5E7     		b	.L56
 1536              		.cfi_endproc
 1537              	.LFE407:
 1538              		.size	sd_lld_serve_interrupt, .-sd_lld_serve_interrupt
 1539              		.global	SD2
ARM GAS  /tmp/cchLSmzv.s 			page 28


 1540 011e 00BF     		.section	.bss.SD2,"aw",%nobits
 1541              		.align	2
 1542              		.set	.LANCHOR0,. + 0
 1543              		.type	SD2, %object
 1544              		.size	SD2, 92
 1545              	SD2:
 1546 0000 00000000 		.space	92
 1546      00000000 
 1546      00000000 
 1546      00000000 
 1546      00000000 
 1547              		.section	.bss.sd_in_buf2,"aw",%nobits
 1548              		.align	2
 1549              		.set	.LANCHOR1,. + 0
 1550              		.type	sd_in_buf2, %object
 1551              		.size	sd_in_buf2, 16
 1552              	sd_in_buf2:
 1553 0000 00000000 		.space	16
 1553      00000000 
 1553      00000000 
 1553      00000000 
 1554              		.section	.bss.sd_out_buf2,"aw",%nobits
 1555              		.align	2
 1556              		.set	.LANCHOR2,. + 0
 1557              		.type	sd_out_buf2, %object
 1558              		.size	sd_out_buf2, 16
 1559              	sd_out_buf2:
 1560 0000 00000000 		.space	16
 1560      00000000 
 1560      00000000 
 1560      00000000 
 1561              		.text
 1562              	.Letext0:
 1563              		.file 6 "/opt/gcc-arm-none-eabi/gcc-arm-none-eabi-10.3-2021.07/lib/gcc/arm-none-eabi/10.3.1/includ
 1564              		.file 7 "/opt/gcc-arm-none-eabi/gcc-arm-none-eabi-10.3-2021.07/arm-none-eabi/include/machine/_defa
 1565              		.file 8 "/opt/gcc-arm-none-eabi/gcc-arm-none-eabi-10.3-2021.07/arm-none-eabi/include/sys/_stdint.h
 1566              		.file 9 "../ChibiOS/os/common/ports/ARM-common/chtypes.h"
 1567              		.file 10 "../ChibiOS/os/rt/include/chearly.h"
 1568              		.file 11 "../ChibiOS/os/rt/include/chobjects.h"
 1569              		.file 12 "../ChibiOS/os/rt/include/chrfcu.h"
 1570              		.file 13 "../ChibiOS/os/rt/include/chdebug.h"
 1571              		.file 14 "../ChibiOS/os/rt/include/chtime.h"
 1572              		.file 15 "../ChibiOS/os/rt/include/chlists.h"
 1573              		.file 16 "../ChibiOS/os/common/ext/ST/STM32L4xx/stm32l432xx.h"
 1574              		.file 17 "../ChibiOS/os/rt/include/chsem.h"
 1575              		.file 18 "../ChibiOS/os/rt/include/chmtx.h"
 1576              		.file 19 "../ChibiOS/os/rt/include/chevents.h"
 1577              		.file 20 "../ChibiOS/os/hal/include/hal_queues.h"
 1578              		.file 21 "../ChibiOS/os/hal/include/hal_serial.h"
 1579              		.file 22 "../ChibiOS/os/hal/ports/STM32/LLD/USARTv2/hal_serial_lld.h"