ARM GAS  /tmp/cc1kdbXD.s 			page 1


   1              		.cpu cortex-m4
   2              		.eabi_attribute 20, 1
   3              		.eabi_attribute 21, 1
   4              		.eabi_attribute 23, 3
   5              		.eabi_attribute 24, 1
   6              		.eabi_attribute 25, 1
   7              		.eabi_attribute 26, 1
   8              		.eabi_attribute 30, 2
   9              		.eabi_attribute 34, 1
  10              		.eabi_attribute 18, 4
  11              		.file	"hal_lld.c"
  12              		.text
  13              	.Ltext0:
  14              		.cfi_sections	.debug_frame
  15              		.section	.text.hal_lld_init,"ax",%progbits
  16              		.align	1
  17              		.p2align 4,,15
  18              		.global	hal_lld_init
  19              		.arch armv7e-m
  20              		.syntax unified
  21              		.thumb
  22              		.thumb_func
  23              		.fpu softvfp
  24              		.type	hal_lld_init, %function
  25              	hal_lld_init:
  26              	.LFB402:
  27              		.file 1 "../ChibiOS/os/hal/ports/STM32/STM32L4xx/hal_lld.c"
  28              		.loc 1 64 25 view -0
  29              		.cfi_startproc
  30              		@ args = 0, pretend = 0, frame = 0
  31              		@ frame_needed = 0, uses_anonymous_args = 0
  32              		.loc 1 68 3 view .LVU1
  33              		.loc 1 64 25 is_stmt 0 view .LVU2
  34 0000 08B5     		push	{r3, lr}
  35              		.cfi_def_cfa_offset 8
  36              		.cfi_offset 3, -8
  37              		.cfi_offset 14, -4
  38              		.loc 1 68 3 view .LVU3
  39 0002 FFF7FEFF 		bl	dmaInit
  40              	.LVL0:
  41              		.loc 1 72 3 is_stmt 1 view .LVU4
  42 0006 FFF7FEFF 		bl	nvicInit
  43              	.LVL1:
  44              		.loc 1 75 3 view .LVU5
  45              		.loc 1 76 1 is_stmt 0 view .LVU6
  46 000a BDE80840 		pop	{r3, lr}
  47              		.cfi_restore 14
  48              		.cfi_restore 3
  49              		.cfi_def_cfa_offset 0
  50              		.loc 1 75 3 view .LVU7
  51 000e FFF7FEBF 		b	irqInit
  52              	.LVL2:
  53              		.cfi_endproc
  54              	.LFE402:
  55              		.size	hal_lld_init, .-hal_lld_init
  56 0012 00BF     		.section	.text.stm32_clock_init,"ax",%progbits
  57              		.align	1
ARM GAS  /tmp/cc1kdbXD.s 			page 2


  58              		.p2align 4,,15
  59              		.global	stm32_clock_init
  60              		.syntax unified
  61              		.thumb
  62              		.thumb_func
  63              		.fpu softvfp
  64              		.type	stm32_clock_init, %function
  65              	stm32_clock_init:
  66              	.LFB403:
  67              		.loc 1 85 29 is_stmt 1 view -0
  68              		.cfi_startproc
  69              		@ args = 0, pretend = 0, frame = 0
  70              		@ frame_needed = 0, uses_anonymous_args = 0
  71              		@ link register save eliminated.
  72              		.loc 1 91 3 view .LVU9
  73 0000 684B     		ldr	r3, .L38
  74 0002 4FF0FF31 		mov	r1, #-1
  75 0006 9A6A     		ldr	r2, [r3, #40]
  76              		.loc 1 85 29 is_stmt 0 view .LVU10
  77 0008 10B4     		push	{r4}
  78              		.cfi_def_cfa_offset 4
  79              		.cfi_offset 4, -4
  80              		.loc 1 91 3 view .LVU11
  81 000a 0022     		movs	r2, #0
  82 000c 9962     		str	r1, [r3, #40]
  83              		.loc 1 91 3 is_stmt 1 view .LVU12
  84 000e 986A     		ldr	r0, [r3, #40]
  85 0010 9A62     		str	r2, [r3, #40]
  86              		.loc 1 91 3 view .LVU13
  87 0012 986A     		ldr	r0, [r3, #40]
  88              		.loc 1 91 19 view .LVU14
  89              		.loc 1 92 3 view .LVU15
  90 0014 D86A     		ldr	r0, [r3, #44]
  91              		.loc 1 99 14 is_stmt 0 view .LVU16
  92 0016 644C     		ldr	r4, .L38+4
  93              		.loc 1 92 3 view .LVU17
  94 0018 60F00700 		orn	r0, r0, #7
  95 001c D862     		str	r0, [r3, #44]
  96              		.loc 1 92 3 is_stmt 1 view .LVU18
  97 001e D86A     		ldr	r0, [r3, #44]
  98 0020 00F00700 		and	r0, r0, #7
  99 0024 D862     		str	r0, [r3, #44]
 100              		.loc 1 92 3 view .LVU19
 101 0026 D86A     		ldr	r0, [r3, #44]
 102              		.loc 1 92 36 view .LVU20
 103              		.loc 1 93 3 view .LVU21
 104 0028 186B     		ldr	r0, [r3, #48]
 105 002a 1963     		str	r1, [r3, #48]
 106              		.loc 1 93 3 view .LVU22
 107 002c 186B     		ldr	r0, [r3, #48]
 108 002e 1A63     		str	r2, [r3, #48]
 109              		.loc 1 93 3 view .LVU23
 110 0030 186B     		ldr	r0, [r3, #48]
 111              		.loc 1 93 19 view .LVU24
 112              		.loc 1 94 3 view .LVU25
 113 0032 986B     		ldr	r0, [r3, #56]
 114 0034 9963     		str	r1, [r3, #56]
ARM GAS  /tmp/cc1kdbXD.s 			page 3


 115              		.loc 1 94 3 view .LVU26
 116 0036 986B     		ldr	r0, [r3, #56]
 117 0038 9A63     		str	r2, [r3, #56]
 118              		.loc 1 94 3 view .LVU27
 119 003a 986B     		ldr	r0, [r3, #56]
 120              		.loc 1 94 21 view .LVU28
 121              		.loc 1 95 3 view .LVU29
 122 003c D86B     		ldr	r0, [r3, #60]
 123 003e D963     		str	r1, [r3, #60]
 124              		.loc 1 95 3 view .LVU30
 125 0040 D86B     		ldr	r0, [r3, #60]
 126 0042 DA63     		str	r2, [r3, #60]
 127              		.loc 1 95 3 view .LVU31
 128 0044 D86B     		ldr	r0, [r3, #60]
 129              		.loc 1 95 21 view .LVU32
 130              		.loc 1 96 3 view .LVU33
 131 0046 186C     		ldr	r0, [r3, #64]
 132 0048 1964     		str	r1, [r3, #64]
 133              		.loc 1 96 3 view .LVU34
 134 004a 196C     		ldr	r1, [r3, #64]
 135 004c 1A64     		str	r2, [r3, #64]
 136              		.loc 1 96 3 view .LVU35
 137              		.loc 1 99 14 is_stmt 0 view .LVU36
 138 004e 4FF4E061 		mov	r1, #1792
 139              		.loc 1 96 3 view .LVU37
 140 0052 1A6C     		ldr	r2, [r3, #64]
 141              		.loc 1 96 19 is_stmt 1 view .LVU38
 142              		.loc 1 99 3 view .LVU39
 143              		.loc 1 99 14 is_stmt 0 view .LVU40
 144 0054 2160     		str	r1, [r4]
 145              		.loc 1 104 3 is_stmt 1 view .LVU41
 146 0056 1A6E     		ldr	r2, [r3, #96]
 147              		.loc 1 115 12 is_stmt 0 view .LVU42
 148 0058 5449     		ldr	r1, .L38+8
 149              		.loc 1 104 3 view .LVU43
 150 005a 42F00102 		orr	r2, r2, #1
 151 005e 1A66     		str	r2, [r3, #96]
 152              		.loc 1 104 3 is_stmt 1 view .LVU44
 153              		.loc 1 104 3 view .LVU45
 154 0060 D3F88020 		ldr	r2, [r3, #128]
 155 0064 22F00102 		bic	r2, r2, #1
 156 0068 C3F88020 		str	r2, [r3, #128]
 157              		.loc 1 104 3 view .LVU46
 158 006c D3F88020 		ldr	r2, [r3, #128]
 159              		.loc 1 104 45 view .LVU47
 160              		.loc 1 107 3 view .LVU48
 161 0070 9A6D     		ldr	r2, [r3, #88]
 162 0072 42F08052 		orr	r2, r2, #268435456
 163 0076 9A65     		str	r2, [r3, #88]
 164              		.loc 1 107 3 view .LVU49
 165              		.loc 1 107 3 view .LVU50
 166 0078 9A6F     		ldr	r2, [r3, #120]
 167 007a 22F08052 		bic	r2, r2, #268435456
 168 007e 9A67     		str	r2, [r3, #120]
 169              		.loc 1 107 3 view .LVU51
 170              		.loc 1 115 12 is_stmt 0 view .LVU52
 171 0080 4FF44070 		mov	r0, #768
ARM GAS  /tmp/cc1kdbXD.s 			page 4


 172              		.loc 1 107 3 view .LVU53
 173 0084 9B6F     		ldr	r3, [r3, #120]
 174              		.loc 1 107 31 is_stmt 1 view .LVU54
 175              		.loc 1 115 3 view .LVU55
 176              		.loc 1 115 12 is_stmt 0 view .LVU56
 177 0086 0860     		str	r0, [r1]
 178              		.loc 1 116 3 is_stmt 1 view .LVU57
 179              	.L5:
 180              		.loc 1 117 5 discriminator 1 view .LVU58
 181              		.loc 1 116 9 discriminator 1 view .LVU59
 182              		.loc 1 116 14 is_stmt 0 discriminator 1 view .LVU60
 183 0088 4B69     		ldr	r3, [r1, #20]
 184              		.loc 1 116 9 discriminator 1 view .LVU61
 185 008a 13F48063 		ands	r3, r3, #1024
 186 008e FBD1     		bne	.L5
 187              		.loc 1 123 3 is_stmt 1 view .LVU62
 188              	.LBB50:
 189              	.LBB51:
 190              		.file 2 "../ChibiOS/os/hal/ports/STM32/LLD/RCCv1/stm32_msi.inc"
 191              		.loc 2 187 17 is_stmt 0 view .LVU63
 192 0090 444A     		ldr	r2, .L38
 193              	.LBE51:
 194              	.LBE50:
 195              		.loc 1 123 12 view .LVU64
 196 0092 4B60     		str	r3, [r1, #4]
 197              		.loc 1 137 3 is_stmt 1 view .LVU65
 198              	.LBB55:
 199              	.LBI50:
 200              		.loc 2 181 22 view .LVU66
 201              	.LBB54:
 202              		.loc 2 187 3 view .LVU67
 203              		.loc 2 187 17 is_stmt 0 view .LVU68
 204 0094 1368     		ldr	r3, [r2]
 205              		.loc 2 187 22 view .LVU69
 206 0096 23F0F003 		bic	r3, r3, #240
 207              		.loc 2 187 46 view .LVU70
 208 009a 43F06003 		orr	r3, r3, #96
 209              		.loc 2 187 11 view .LVU71
 210 009e 1360     		str	r3, [r2]
 211              		.loc 2 190 3 is_stmt 1 view .LVU72
 212              	.LBB52:
 213              	.LBI52:
 214              		.loc 2 168 22 view .LVU73
 215              	.LBB53:
 216              		.loc 2 170 3 view .LVU74
 217              		.loc 2 170 11 is_stmt 0 view .LVU75
 218 00a0 1368     		ldr	r3, [r2]
 219 00a2 43F00103 		orr	r3, r3, #1
 220 00a6 1360     		str	r3, [r2]
 221              		.loc 2 171 3 is_stmt 1 view .LVU76
 222              	.L6:
 223              		.loc 2 173 3 view .LVU77
 224              		.loc 2 171 9 view .LVU78
 225              		.loc 2 171 14 is_stmt 0 view .LVU79
 226 00a8 1368     		ldr	r3, [r2]
 227              		.loc 2 171 9 view .LVU80
 228 00aa 9907     		lsls	r1, r3, #30
ARM GAS  /tmp/cc1kdbXD.s 			page 5


 229 00ac FCD5     		bpl	.L6
 230              	.LBE53:
 231              	.LBE52:
 232              		.loc 2 193 3 is_stmt 1 view .LVU81
 233              		.loc 2 193 13 is_stmt 0 view .LVU82
 234 00ae 0023     		movs	r3, #0
 235              		.loc 2 194 14 view .LVU83
 236 00b0 3C49     		ldr	r1, .L38
 237              		.loc 2 193 13 view .LVU84
 238 00b2 9360     		str	r3, [r2, #8]
 239              		.loc 2 194 3 is_stmt 1 view .LVU85
 240              	.L7:
 241              		.loc 2 196 3 view .LVU86
 242              		.loc 2 194 9 view .LVU87
 243              		.loc 2 194 14 is_stmt 0 view .LVU88
 244 00b4 8B68     		ldr	r3, [r1, #8]
 245              		.loc 2 194 9 view .LVU89
 246 00b6 13F00C03 		ands	r3, r3, #12
 247 00ba FBD1     		bne	.L7
 248              	.LBE54:
 249              	.LBE55:
 250              		.loc 1 140 3 is_stmt 1 view .LVU90
 251              	.LBB56:
 252              	.LBI56:
 253              		.file 3 "../ChibiOS/os/hal/ports/STM32/LLD/RCCv1/stm32_bd.inc"
 254              		.loc 3 74 22 view .LVU91
 255              	.LBB57:
 256              		.loc 3 77 3 view .LVU92
 257              		.loc 3 77 11 is_stmt 0 view .LVU93
 258 00bc D1F89020 		ldr	r2, [r1, #144]
 259              		.loc 3 77 18 view .LVU94
 260 00c0 02F44072 		and	r2, r2, #768
 261              		.loc 3 77 6 view .LVU95
 262 00c4 B2F5007F 		cmp	r2, #512
 263 00c8 05D0     		beq	.L8
 264              		.loc 3 79 5 is_stmt 1 view .LVU96
 265              		.loc 3 79 15 is_stmt 0 view .LVU97
 266 00ca 4FF48032 		mov	r2, #65536
 267 00ce C1F89020 		str	r2, [r1, #144]
 268              		.loc 3 80 5 is_stmt 1 view .LVU98
 269              		.loc 3 80 15 is_stmt 0 view .LVU99
 270 00d2 C1F89030 		str	r3, [r1, #144]
 271              	.L8:
 272              	.LBE57:
 273              	.LBE56:
 274              		.loc 1 143 3 is_stmt 1 view .LVU100
 275              	.LBB58:
 276              	.LBI58:
 277              		.file 4 "../ChibiOS/os/hal/ports/STM32/LLD/RCCv1/stm32_lse.inc"
 278              		.loc 4 90 22 view .LVU101
 279              	.LBB59:
 280              		.loc 4 99 3 view .LVU102
 281              		.loc 4 99 13 is_stmt 0 view .LVU103
 282 00d6 334A     		ldr	r2, .L38
 283 00d8 D2F89030 		ldr	r3, [r2, #144]
 284 00dc 43F01103 		orr	r3, r3, #17
 285 00e0 C2F89030 		str	r3, [r2, #144]
ARM GAS  /tmp/cc1kdbXD.s 			page 6


 286              		.loc 4 101 3 is_stmt 1 view .LVU104
 287              	.L9:
 288              		.loc 4 103 3 view .LVU105
 289              		.loc 4 101 9 view .LVU106
 290              		.loc 4 101 14 is_stmt 0 view .LVU107
 291 00e4 D2F89030 		ldr	r3, [r2, #144]
 292              		.loc 4 101 9 view .LVU108
 293 00e8 9B07     		lsls	r3, r3, #30
 294 00ea FBD5     		bpl	.L9
 295              	.LBE59:
 296              	.LBE58:
 297              		.loc 1 144 3 is_stmt 1 view .LVU109
 298              	.LBB60:
 299              	.LBI60:
 300              		.file 5 "../ChibiOS/os/hal/ports/STM32/LLD/RCCv1/stm32_lsi.inc"
 301              		.loc 5 95 22 view .LVU110
 302              	.LBB61:
 303              		.loc 5 99 3 view .LVU111
 304              		.loc 5 99 12 is_stmt 0 view .LVU112
 305 00ec D2F89430 		ldr	r3, [r2, #148]
 306              		.loc 5 100 14 view .LVU113
 307 00f0 2C48     		ldr	r0, .L38
 308              		.loc 5 99 12 view .LVU114
 309 00f2 43F00103 		orr	r3, r3, #1
 310 00f6 C2F89430 		str	r3, [r2, #148]
 311              		.loc 5 100 3 is_stmt 1 view .LVU115
 312              	.L10:
 313              		.loc 5 101 3 view .LVU116
 314              		.loc 5 100 9 view .LVU117
 315              		.loc 5 100 14 is_stmt 0 view .LVU118
 316 00fa D0F89430 		ldr	r3, [r0, #148]
 317              		.loc 5 100 9 view .LVU119
 318 00fe 9C07     		lsls	r4, r3, #30
 319 0100 FBD5     		bpl	.L10
 320              	.LBE61:
 321              	.LBE60:
 322              		.loc 1 145 3 is_stmt 1 view .LVU120
 323              	.LBB62:
 324              	.LBI62:
 325              		.loc 2 199 22 view .LVU121
 326              	.LBB63:
 327              		.loc 2 200 3 view .LVU122
 328              		.loc 2 209 3 view .LVU123
 329              	.LVL3:
 330              		.loc 2 213 3 view .LVU124
 331              		.loc 2 213 11 is_stmt 0 view .LVU125
 332 0102 6523     		movs	r3, #101
 333              		.loc 2 214 14 view .LVU126
 334 0104 2749     		ldr	r1, .L38
 335              		.loc 2 213 11 view .LVU127
 336 0106 0360     		str	r3, [r0]
 337              		.loc 2 214 3 is_stmt 1 view .LVU128
 338              	.L11:
 339              		.loc 2 216 3 view .LVU129
 340              		.loc 2 214 9 view .LVU130
 341              		.loc 2 214 14 is_stmt 0 view .LVU131
 342 0108 0B68     		ldr	r3, [r1]
ARM GAS  /tmp/cc1kdbXD.s 			page 7


 343              		.loc 2 214 9 view .LVU132
 344 010a 9807     		lsls	r0, r3, #30
 345 010c FCD5     		bpl	.L11
 346              		.loc 2 219 3 is_stmt 1 view .LVU133
 347              		.loc 2 219 13 is_stmt 0 view .LVU134
 348 010e 0023     		movs	r3, #0
 349              		.loc 2 220 14 view .LVU135
 350 0110 244A     		ldr	r2, .L38
 351              		.loc 2 219 13 view .LVU136
 352 0112 8B60     		str	r3, [r1, #8]
 353              		.loc 2 220 3 is_stmt 1 view .LVU137
 354              	.L12:
 355              		.loc 2 221 5 view .LVU138
 356              		.loc 2 220 9 view .LVU139
 357              		.loc 2 220 14 is_stmt 0 view .LVU140
 358 0114 9368     		ldr	r3, [r2, #8]
 359              		.loc 2 220 9 view .LVU141
 360 0116 13F00C0F 		tst	r3, #12
 361 011a FBD1     		bne	.L12
 362              		.loc 2 225 3 is_stmt 1 view .LVU142
 363              	.LVL4:
 364              		.loc 2 226 3 view .LVU143
 365              		.loc 2 226 12 is_stmt 0 view .LVU144
 366 011c 6D23     		movs	r3, #109
 367 011e 1360     		str	r3, [r2]
 368              		.loc 2 228 3 is_stmt 1 view .LVU145
 369              		.loc 2 228 12 is_stmt 0 view .LVU146
 370 0120 D2F89430 		ldr	r3, [r2, #148]
 371              	.LVL5:
 372              		.loc 2 229 3 is_stmt 1 view .LVU147
 373              	.LBE63:
 374              	.LBE62:
 375              	.LBB65:
 376              	.LBB66:
 377              		.file 6 "../ChibiOS/os/hal/ports/STM32/LLD/RCCv1/stm32_pll.inc"
 378              		.loc 6 339 16 is_stmt 0 view .LVU148
 379 0124 2248     		ldr	r0, .L38+12
 380              	.LBB67:
 381              	.LBB68:
 382              	.LBB69:
 383              	.LBB70:
 384              		.loc 6 322 21 view .LVU149
 385 0126 1F49     		ldr	r1, .L38
 386              	.LBE70:
 387              	.LBE69:
 388              	.LBE68:
 389              	.LBE67:
 390              	.LBE66:
 391              	.LBE65:
 392              	.LBB76:
 393              	.LBB64:
 394              		.loc 2 229 11 view .LVU150
 395 0128 23F47063 		bic	r3, r3, #3840
 396              	.LVL6:
 397              		.loc 2 230 3 is_stmt 1 view .LVU151
 398              		.loc 2 230 11 is_stmt 0 view .LVU152
 399 012c 43F4C063 		orr	r3, r3, #1536
ARM GAS  /tmp/cc1kdbXD.s 			page 8


 400              	.LVL7:
 401              		.loc 2 231 3 is_stmt 1 view .LVU153
 402              		.loc 2 231 12 is_stmt 0 view .LVU154
 403 0130 C2F89430 		str	r3, [r2, #148]
 404              	.LVL8:
 405              		.loc 2 231 12 view .LVU155
 406              	.LBE64:
 407              	.LBE76:
 408              		.loc 1 146 3 is_stmt 1 view .LVU156
 409              		.file 7 "../ChibiOS/os/hal/ports/STM32/LLD/RCCv1/stm32_hsi16.inc"
 410              		.loc 7 91 1 view .LVU157
 411              		.loc 1 147 3 view .LVU158
 412              		.file 8 "../ChibiOS/os/hal/ports/STM32/LLD/RCCv1/stm32_hsi48.inc"
 413              		.loc 8 102 1 view .LVU159
 414              		.loc 1 148 3 view .LVU160
 415              		.file 9 "../ChibiOS/os/hal/ports/STM32/LLD/RCCv1/stm32_hse.inc"
 416              		.loc 9 115 1 view .LVU161
 417              		.loc 1 151 3 view .LVU162
 418              	.LBB77:
 419              	.LBI77:
 420              		.loc 3 48 22 view .LVU163
 421              	.LBB78:
 422              		.loc 3 49 3 view .LVU164
 423              		.loc 3 52 3 view .LVU165
 424              		.loc 3 52 8 is_stmt 0 view .LVU166
 425 0134 D2F89030 		ldr	r3, [r2, #144]
 426              	.LVL9:
 427              		.loc 3 62 3 is_stmt 1 view .LVU167
 428              		.loc 3 62 8 is_stmt 0 view .LVU168
 429 0138 23F00323 		bic	r3, r3, #50332416
 430              	.LVL10:
 431              		.loc 3 63 3 is_stmt 1 view .LVU169
 432              		.loc 3 63 8 is_stmt 0 view .LVU170
 433 013c 43F40073 		orr	r3, r3, #512
 434              	.LVL11:
 435              		.loc 3 66 3 is_stmt 1 view .LVU171
 436              		.loc 3 66 13 is_stmt 0 view .LVU172
 437 0140 C2F89030 		str	r3, [r2, #144]
 438              	.LVL12:
 439              		.loc 3 66 13 view .LVU173
 440              	.LBE78:
 441              	.LBE77:
 442              		.loc 1 154 3 is_stmt 1 view .LVU174
 443              	.LBB79:
 444              	.LBI65:
 445              		.loc 6 334 22 view .LVU175
 446              	.LBB75:
 447              		.loc 6 339 3 view .LVU176
 448              		.loc 6 339 16 is_stmt 0 view .LVU177
 449 0144 D060     		str	r0, [r2, #12]
 450              		.loc 6 344 3 is_stmt 1 view .LVU178
 451              		.loc 6 344 11 is_stmt 0 view .LVU179
 452 0146 1368     		ldr	r3, [r2]
 453 0148 43F08073 		orr	r3, r3, #16777216
 454 014c 1360     		str	r3, [r2]
 455              		.loc 6 346 3 is_stmt 1 view .LVU180
 456              	.LBB74:
ARM GAS  /tmp/cc1kdbXD.s 			page 9


 457              	.LBI67:
 458              		.loc 6 325 22 view .LVU181
 459              	.LBB73:
 460              		.loc 6 327 3 view .LVU182
 461              	.L13:
 462              		.loc 6 329 3 view .LVU183
 463              		.loc 6 327 9 view .LVU184
 464              	.LBB72:
 465              	.LBI69:
 466              		.loc 6 320 22 view .LVU185
 467              	.LBB71:
 468              		.loc 6 322 3 view .LVU186
 469              		.loc 6 322 21 is_stmt 0 view .LVU187
 470 014e 0B68     		ldr	r3, [r1]
 471              	.LBE71:
 472              	.LBE72:
 473              		.loc 6 327 9 view .LVU188
 474 0150 9A01     		lsls	r2, r3, #6
 475 0152 FCD5     		bpl	.L13
 476              	.LBE73:
 477              	.LBE74:
 478              	.LBE75:
 479              	.LBE79:
 480              		.loc 1 155 3 is_stmt 1 view .LVU189
 481              	.LBB80:
 482              	.LBI80:
 483              		.file 10 "../ChibiOS/os/hal/ports/STM32/LLD/RCCv1/stm32_pllsai1.inc"
 484              		.loc 10 340 22 view .LVU190
 485              	.LBB81:
 486              		.loc 10 345 3 view .LVU191
 487              		.loc 10 345 20 is_stmt 0 view .LVU192
 488 0154 174B     		ldr	r3, .L38+16
 489 0156 0B61     		str	r3, [r1, #16]
 490              		.loc 10 350 3 is_stmt 1 view .LVU193
 491              		.loc 10 350 11 is_stmt 0 view .LVU194
 492 0158 0B68     		ldr	r3, [r1]
 493              		.loc 10 353 14 view .LVU195
 494 015a 1248     		ldr	r0, .L38
 495              		.loc 10 350 11 view .LVU196
 496 015c 43F08063 		orr	r3, r3, #67108864
 497 0160 0B60     		str	r3, [r1]
 498              		.loc 10 353 3 is_stmt 1 view .LVU197
 499              	.L14:
 500              		.loc 10 354 5 view .LVU198
 501              		.loc 10 353 9 view .LVU199
 502              		.loc 10 353 14 is_stmt 0 view .LVU200
 503 0162 0368     		ldr	r3, [r0]
 504              		.loc 10 353 9 view .LVU201
 505 0164 1B01     		lsls	r3, r3, #4
 506 0166 FCD5     		bpl	.L14
 507              	.LBE81:
 508              	.LBE80:
 509              		.loc 1 156 3 is_stmt 1 view .LVU202
 510              		.file 11 "../ChibiOS/os/hal/ports/STM32/LLD/RCCv1/stm32_pllsai2.inc"
 511              		.loc 11 360 1 view .LVU203
 512              		.loc 1 159 3 view .LVU204
 513              		.loc 1 189 24 is_stmt 0 view .LVU205
ARM GAS  /tmp/cc1kdbXD.s 			page 10


 514 0168 0F4A     		ldr	r2, .L38+4
 515              	.LBB82:
 516              		.loc 1 176 16 view .LVU206
 517 016a 134B     		ldr	r3, .L38+20
 518              	.LBE82:
 519              		.loc 1 159 13 view .LVU207
 520 016c 0021     		movs	r1, #0
 521 016e 8160     		str	r1, [r0, #8]
 522              	.LBB83:
 523              		.loc 1 165 5 is_stmt 1 view .LVU208
 524              	.LVL13:
 525              		.loc 1 176 5 view .LVU209
 526              		.loc 1 176 16 is_stmt 0 view .LVU210
 527 0170 C0F88830 		str	r3, [r0, #136]
 528              	.LBE83:
 529              		.loc 1 188 3 is_stmt 1 view .LVU211
 530              		.loc 1 189 5 view .LVU212
 531              		.loc 1 189 24 is_stmt 0 view .LVU213
 532 0174 1368     		ldr	r3, [r2]
 533              		.loc 1 189 30 view .LVU214
 534 0176 23F00703 		bic	r3, r3, #7
 535              		.loc 1 189 56 view .LVU215
 536 017a 43F00403 		orr	r3, r3, #4
 537              		.loc 1 189 16 view .LVU216
 538 017e 1360     		str	r3, [r2]
 539              		.loc 1 190 5 is_stmt 1 view .LVU217
 540              	.L15:
 541              		.loc 1 192 5 discriminator 1 view .LVU218
 542              		.loc 1 190 11 discriminator 1 view .LVU219
 543              		.loc 1 190 18 is_stmt 0 discriminator 1 view .LVU220
 544 0180 1368     		ldr	r3, [r2]
 545              		.loc 1 190 24 discriminator 1 view .LVU221
 546 0182 03F00703 		and	r3, r3, #7
 547              		.loc 1 190 11 discriminator 1 view .LVU222
 548 0186 042B     		cmp	r3, #4
 549 0188 FAD1     		bne	.L15
 550              		.loc 1 197 3 is_stmt 1 view .LVU223
 551              		.loc 1 197 13 is_stmt 0 view .LVU224
 552 018a 064A     		ldr	r2, .L38
 553 018c 9368     		ldr	r3, [r2, #8]
 554 018e 43F00303 		orr	r3, r3, #3
 555 0192 9360     		str	r3, [r2, #8]
 556              		.loc 1 199 3 is_stmt 1 view .LVU225
 557              	.L16:
 558              		.loc 1 200 5 discriminator 1 view .LVU226
 559              		.loc 1 199 9 discriminator 1 view .LVU227
 560              		.loc 1 199 14 is_stmt 0 discriminator 1 view .LVU228
 561 0194 9368     		ldr	r3, [r2, #8]
 562              		.loc 1 199 21 discriminator 1 view .LVU229
 563 0196 03F00C03 		and	r3, r3, #12
 564              		.loc 1 199 9 discriminator 1 view .LVU230
 565 019a 0C2B     		cmp	r3, #12
 566 019c FAD1     		bne	.L16
 567              		.loc 1 211 1 view .LVU231
 568 019e 10BC     		pop	{r4}
 569              		.cfi_restore 4
 570              		.cfi_def_cfa_offset 0
ARM GAS  /tmp/cc1kdbXD.s 			page 11


 571 01a0 7047     		bx	lr
 572              	.L39:
 573 01a2 00BF     		.align	2
 574              	.L38:
 575 01a4 00100240 		.word	1073876992
 576 01a8 00200240 		.word	1073881088
 577 01ac 00700040 		.word	1073770496
 578 01b0 01504003 		.word	54546433
 579 01b4 00485034 		.word	877676544
 580 01b8 55550134 		.word	872502613
 581              		.cfi_endproc
 582              	.LFE403:
 583              		.size	stm32_clock_init, .-stm32_clock_init
 584              		.global	SystemCoreClock
 585              		.section	.data.SystemCoreClock,"aw"
 586              		.align	2
 587              		.type	SystemCoreClock, %object
 588              		.size	SystemCoreClock, 4
 589              	SystemCoreClock:
 590 0000 00B4C404 		.word	80000000
 591              		.text
 592              	.Letext0:
 593              		.file 12 "/opt/gcc-arm-none-eabi/gcc-arm-none-eabi-10.3-2021.07/arm-none-eabi/include/machine/_def
 594              		.file 13 "/opt/gcc-arm-none-eabi/gcc-arm-none-eabi-10.3-2021.07/arm-none-eabi/include/sys/_stdint.
 595              		.file 14 "../ChibiOS/os/common/ext/ST/STM32L4xx/stm32l432xx.h"
 596              		.file 15 "../ChibiOS/os/hal/ports/STM32/LLD/DMAv1/stm32_dma.h"
 597              		.file 16 "../ChibiOS/os/hal/ports/common/ARMCMx/nvic.h"
 598              		.file 17 "../ChibiOS/os/hal/ports/STM32/STM32L4xx/stm32_isr.h"
 599              		.file 18 "../ChibiOS/os/common/ext/ST/STM32L4xx/system_stm32l4xx.h"