ARM GAS  /tmp/ccc8hyl8.s 			page 1


   1              		.cpu cortex-m4
   2              		.eabi_attribute 20, 1
   3              		.eabi_attribute 21, 1
   4              		.eabi_attribute 23, 3
   5              		.eabi_attribute 24, 1
   6              		.eabi_attribute 25, 1
   7              		.eabi_attribute 26, 1
   8              		.eabi_attribute 30, 2
   9              		.eabi_attribute 34, 1
  10              		.eabi_attribute 18, 4
  11              		.file	"hal_pal_lld.c"
  12              		.text
  13              	.Ltext0:
  14              		.cfi_sections	.debug_frame
  15              		.section	.text._pal_lld_init,"ax",%progbits
  16              		.align	1
  17              		.p2align 4,,15
  18              		.global	_pal_lld_init
  19              		.arch armv7e-m
  20              		.syntax unified
  21              		.thumb
  22              		.thumb_func
  23              		.fpu softvfp
  24              		.type	_pal_lld_init, %function
  25              	_pal_lld_init:
  26              	.LFB400:
  27              		.file 1 "../ChibiOS/os/hal/ports/STM32/LLD/GPIOv3/hal_pal_lld.c"
  28              		.loc 1 65 26 view -0
  29              		.cfi_startproc
  30              		@ args = 0, pretend = 0, frame = 0
  31              		@ frame_needed = 0, uses_anonymous_args = 0
  32              		@ link register save eliminated.
  33              		.loc 1 74 1 view .LVU1
  34 0000 7047     		bx	lr
  35              		.cfi_endproc
  36              	.LFE400:
  37              		.size	_pal_lld_init, .-_pal_lld_init
  38 0002 00BF     		.section	.text._pal_lld_setgroupmode,"ax",%progbits
  39              		.align	1
  40              		.p2align 4,,15
  41              		.global	_pal_lld_setgroupmode
  42              		.syntax unified
  43              		.thumb
  44              		.thumb_func
  45              		.fpu softvfp
  46              		.type	_pal_lld_setgroupmode, %function
  47              	_pal_lld_setgroupmode:
  48              	.LVL0:
  49              	.LFB401:
  50              		.loc 1 91 43 view -0
  51              		.cfi_startproc
  52              		@ args = 0, pretend = 0, frame = 8
  53              		@ frame_needed = 0, uses_anonymous_args = 0
  54              		.loc 1 93 3 view .LVU3
  55              		.loc 1 91 43 is_stmt 0 view .LVU4
  56 0000 2DE9F04F 		push	{r4, r5, r6, r7, r8, r9, r10, fp, lr}
  57              		.cfi_def_cfa_offset 36
ARM GAS  /tmp/ccc8hyl8.s 			page 2


  58              		.cfi_offset 4, -36
  59              		.cfi_offset 5, -32
  60              		.cfi_offset 6, -28
  61              		.cfi_offset 7, -24
  62              		.cfi_offset 8, -20
  63              		.cfi_offset 9, -16
  64              		.cfi_offset 10, -12
  65              		.cfi_offset 11, -8
  66              		.cfi_offset 14, -4
  67 0004 83B0     		sub	sp, sp, #12
  68              		.cfi_def_cfa_offset 48
  69              		.loc 1 97 12 view .LVU5
  70 0006 C2F3C313 		ubfx	r3, r2, #7, #4
  71              		.loc 1 93 12 view .LVU6
  72 000a 02F0030A 		and	r10, r2, #3
  73              	.LVL1:
  74              		.loc 1 94 3 is_stmt 1 view .LVU7
  75              		.loc 1 97 12 is_stmt 0 view .LVU8
  76 000e 0093     		str	r3, [sp]
  77              		.loc 1 99 12 view .LVU9
  78 0010 C2F30033 		ubfx	r3, r2, #12, #1
  79              		.loc 1 94 12 view .LVU10
  80 0014 C2F38008 		ubfx	r8, r2, #2, #1
  81              	.LVL2:
  82              		.loc 1 95 3 is_stmt 1 view .LVU11
  83              		.loc 1 95 12 is_stmt 0 view .LVU12
  84 0018 C2F3C107 		ubfx	r7, r2, #3, #2
  85              	.LVL3:
  86              		.loc 1 96 3 is_stmt 1 view .LVU13
  87              		.loc 1 96 12 is_stmt 0 view .LVU14
  88 001c C2F34116 		ubfx	r6, r2, #5, #2
  89              	.LVL4:
  90              		.loc 1 97 3 is_stmt 1 view .LVU15
  91              		.loc 1 98 3 view .LVU16
  92              		.loc 1 98 12 is_stmt 0 view .LVU17
  93 0020 C2F3C025 		ubfx	r5, r2, #11, #1
  94              	.LVL5:
  95              		.loc 1 99 3 is_stmt 1 view .LVU18
  96              		.loc 1 99 12 is_stmt 0 view .LVU19
  97 0024 0193     		str	r3, [sp, #4]
  98              	.LVL6:
  99              		.loc 1 100 3 is_stmt 1 view .LVU20
 100              		.loc 1 93 12 is_stmt 0 view .LVU21
 101 0026 5446     		mov	r4, r10
 102              		.loc 1 100 12 view .LVU22
 103 0028 4FF0000C 		mov	ip, #0
 104 002c 1DE0     		b	.L11
 105              	.LVL7:
 106              	.L5:
 107              	.LBB2:
 108              		.loc 1 125 9 is_stmt 1 view .LVU23
 109              		.loc 1 125 30 is_stmt 0 view .LVU24
 110 002e D0F800B0 		ldr	fp, [r0]
 111              		.loc 1 125 38 view .LVU25
 112 0032 03EA0B03 		and	r3, r3, fp
 113              	.LVL8:
 114              		.loc 1 125 45 view .LVU26
ARM GAS  /tmp/ccc8hyl8.s 			page 3


 115 0036 2343     		orrs	r3, r3, r4
 116              		.loc 1 126 12 view .LVU27
 117 0038 BCF1070F 		cmp	ip, #7
 118              		.loc 1 125 23 view .LVU28
 119 003c 0360     		str	r3, [r0]
 120              		.loc 1 126 9 is_stmt 1 view .LVU29
 121              		.loc 1 126 12 is_stmt 0 view .LVU30
 122 003e 5FD8     		bhi	.L9
 123              		.loc 1 127 11 is_stmt 1 view .LVU31
 124              		.loc 1 127 29 is_stmt 0 view .LVU32
 125 0040 036A     		ldr	r3, [r0, #32]
 126              		.loc 1 127 36 view .LVU33
 127 0042 23EA0E03 		bic	r3, r3, lr
 128              		.loc 1 127 43 view .LVU34
 129 0046 43EA0903 		orr	r3, r3, r9
 130              		.loc 1 127 22 view .LVU35
 131 004a 0362     		str	r3, [r0, #32]
 132              	.LVL9:
 133              	.L8:
 134              		.loc 1 131 7 is_stmt 1 view .LVU36
 135              		.loc 1 131 28 is_stmt 0 view .LVU37
 136 004c C369     		ldr	r3, [r0, #28]
 137              		.loc 1 131 36 view .LVU38
 138 004e 1A40     		ands	r2, r2, r3
 139              	.LVL10:
 140              		.loc 1 131 43 view .LVU39
 141 0050 019B     		ldr	r3, [sp, #4]
 142 0052 1A43     		orrs	r2, r2, r3
 143              		.loc 1 131 21 view .LVU40
 144 0054 C261     		str	r2, [r0, #28]
 145              	.LVL11:
 146              	.L4:
 147              		.loc 1 131 21 view .LVU41
 148              	.LBE2:
 149              		.loc 1 133 5 is_stmt 1 view .LVU42
 150              		.loc 1 134 5 view .LVU43
 151              		.loc 1 134 8 is_stmt 0 view .LVU44
 152 0056 4908     		lsrs	r1, r1, #1
 153              	.LVL12:
 154              		.loc 1 134 8 view .LVU45
 155 0058 59D0     		beq	.L15
 156              		.loc 1 136 5 is_stmt 1 view .LVU46
 157              		.loc 1 136 12 is_stmt 0 view .LVU47
 158 005a 4FEA4808 		lsl	r8, r8, #1
 159              	.LVL13:
 160              		.loc 1 137 5 is_stmt 1 view .LVU48
 161              		.loc 1 137 10 is_stmt 0 view .LVU49
 162 005e 6D00     		lsls	r5, r5, #1
 163              	.LVL14:
 164              		.loc 1 138 5 is_stmt 1 view .LVU50
 165              		.loc 1 138 13 is_stmt 0 view .LVU51
 166 0060 BF00     		lsls	r7, r7, #2
 167              	.LVL15:
 168              		.loc 1 139 5 is_stmt 1 view .LVU52
 169              		.loc 1 139 11 is_stmt 0 view .LVU53
 170 0062 B600     		lsls	r6, r6, #2
 171              	.LVL16:
ARM GAS  /tmp/ccc8hyl8.s 			page 4


 172              		.loc 1 140 5 is_stmt 1 view .LVU54
 173              		.loc 1 140 11 is_stmt 0 view .LVU55
 174 0064 A400     		lsls	r4, r4, #2
 175              	.LVL17:
 176              		.loc 1 141 5 is_stmt 1 view .LVU56
 177              		.loc 1 141 8 is_stmt 0 view .LVU57
 178 0066 0CF1010C 		add	ip, ip, #1
 179              	.LVL18:
 180              		.loc 1 101 9 is_stmt 1 view .LVU58
 181              	.L11:
 182              		.loc 1 101 3 view .LVU59
 183              		.loc 1 102 5 view .LVU60
 184              		.loc 1 102 8 is_stmt 0 view .LVU61
 185 006a CB07     		lsls	r3, r1, #31
 186 006c F3D5     		bpl	.L4
 187              	.LBB3:
 188              		.loc 1 103 7 is_stmt 1 view .LVU62
 189              		.loc 1 105 7 view .LVU63
 190              		.loc 1 109 28 is_stmt 0 view .LVU64
 191 006e 4368     		ldr	r3, [r0, #4]
 192              		.loc 1 106 14 view .LVU65
 193 0070 0122     		movs	r2, #1
 194 0072 02FA0CF2 		lsl	r2, r2, ip
 195              		.loc 1 109 37 view .LVU66
 196 0076 23EA0203 		bic	r3, r3, r2
 197              		.loc 1 109 44 view .LVU67
 198 007a 43EA0803 		orr	r3, r3, r8
 199              		.loc 1 109 21 view .LVU68
 200 007e 4360     		str	r3, [r0, #4]
 201              		.loc 1 110 28 view .LVU69
 202 0080 C36A     		ldr	r3, [r0, #44]
 203              		.loc 1 110 35 view .LVU70
 204 0082 23EA0203 		bic	r3, r3, r2
 205              		.loc 1 110 42 view .LVU71
 206 0086 2B43     		orrs	r3, r3, r5
 207              		.loc 1 110 21 view .LVU72
 208 0088 C362     		str	r3, [r0, #44]
 209              		.loc 1 111 28 view .LVU73
 210 008a D0F808E0 		ldr	lr, [r0, #8]
 211              		.loc 1 107 14 view .LVU74
 212 008e 4FF00309 		mov	r9, #3
 213 0092 4FEA4C03 		lsl	r3, ip, #1
 214 0096 09FA03F3 		lsl	r3, r9, r3
 215              		.loc 1 111 38 view .LVU75
 216 009a 2EEA030E 		bic	lr, lr, r3
 217              		.loc 1 111 45 view .LVU76
 218 009e 4EEA070E 		orr	lr, lr, r7
 219              		.loc 1 111 21 view .LVU77
 220 00a2 C0F808E0 		str	lr, [r0, #8]
 221              		.loc 1 112 28 view .LVU78
 222 00a6 D0F80CE0 		ldr	lr, [r0, #12]
 223              		.loc 1 105 16 view .LVU79
 224 00aa DDF80090 		ldr	r9, [sp]
 225              		.loc 1 112 36 view .LVU80
 226 00ae 2EEA030E 		bic	lr, lr, r3
 227              		.loc 1 112 43 view .LVU81
 228 00b2 4EEA060E 		orr	lr, lr, r6
ARM GAS  /tmp/ccc8hyl8.s 			page 5


 229              		.loc 1 112 21 view .LVU82
 230 00b6 C0F80CE0 		str	lr, [r0, #12]
 231              		.loc 1 105 32 view .LVU83
 232 00ba 0CF0070E 		and	lr, ip, #7
 233              		.loc 1 105 37 view .LVU84
 234 00be 4FEA8E0E 		lsl	lr, lr, #2
 235              		.loc 1 108 15 view .LVU85
 236 00c2 4FF00F0B 		mov	fp, #15
 237              		.loc 1 113 11 view .LVU86
 238 00c6 BAF1020F 		cmp	r10, #2
 239              		.loc 1 105 16 view .LVU87
 240 00ca 09FA0EF9 		lsl	r9, r9, lr
 241              	.LVL19:
 242              		.loc 1 106 7 is_stmt 1 view .LVU88
 243              		.loc 1 107 7 view .LVU89
 244              		.loc 1 108 7 view .LVU90
 245              		.loc 1 109 39 is_stmt 0 view .LVU91
 246 00ce 6FEA0202 		mvn	r2, r2
 247              	.LVL20:
 248              		.loc 1 111 40 view .LVU92
 249 00d2 6FEA0303 		mvn	r3, r3
 250              	.LVL21:
 251              		.loc 1 108 15 view .LVU93
 252 00d6 0BFA0EFE 		lsl	lr, fp, lr
 253              	.LVL22:
 254              		.loc 1 109 7 is_stmt 1 view .LVU94
 255              		.loc 1 110 7 view .LVU95
 256              		.loc 1 111 7 view .LVU96
 257              		.loc 1 112 7 view .LVU97
 258              		.loc 1 113 8 view .LVU98
 259              		.loc 1 113 11 is_stmt 0 view .LVU99
 260 00da A8D1     		bne	.L5
 261              		.loc 1 116 9 is_stmt 1 view .LVU100
 262              		.loc 1 116 12 is_stmt 0 view .LVU101
 263 00dc BCF1070F 		cmp	ip, #7
 264 00e0 18D8     		bhi	.L6
 265              		.loc 1 117 11 is_stmt 1 view .LVU102
 266              		.loc 1 117 29 is_stmt 0 view .LVU103
 267 00e2 D0F820B0 		ldr	fp, [r0, #32]
 268              		.loc 1 117 36 view .LVU104
 269 00e6 2BEA0E0E 		bic	lr, fp, lr
 270              	.LVL23:
 271              		.loc 1 117 43 view .LVU105
 272 00ea 4EEA090E 		orr	lr, lr, r9
 273              		.loc 1 117 22 view .LVU106
 274 00ee C0F820E0 		str	lr, [r0, #32]
 275              	.L7:
 276              		.loc 1 120 9 is_stmt 1 view .LVU107
 277              		.loc 1 120 30 is_stmt 0 view .LVU108
 278 00f2 D0F800E0 		ldr	lr, [r0]
 279              		.loc 1 120 38 view .LVU109
 280 00f6 03EA0E03 		and	r3, r3, lr
 281              	.LVL24:
 282              		.loc 1 120 45 view .LVU110
 283 00fa 2343     		orrs	r3, r3, r4
 284              		.loc 1 120 23 view .LVU111
 285 00fc 0360     		str	r3, [r0]
ARM GAS  /tmp/ccc8hyl8.s 			page 6


 286 00fe A5E7     		b	.L8
 287              	.LVL25:
 288              	.L9:
 289              		.loc 1 129 11 is_stmt 1 view .LVU112
 290              		.loc 1 129 29 is_stmt 0 view .LVU113
 291 0100 436A     		ldr	r3, [r0, #36]
 292              		.loc 1 129 36 view .LVU114
 293 0102 23EA0E03 		bic	r3, r3, lr
 294              		.loc 1 129 43 view .LVU115
 295 0106 43EA0903 		orr	r3, r3, r9
 296              		.loc 1 129 22 view .LVU116
 297 010a 4362     		str	r3, [r0, #36]
 298 010c 9EE7     		b	.L8
 299              	.LVL26:
 300              	.L15:
 301              		.loc 1 129 22 view .LVU117
 302              	.LBE3:
 303              		.loc 1 143 1 view .LVU118
 304 010e 03B0     		add	sp, sp, #12
 305              		.cfi_remember_state
 306              		.cfi_def_cfa_offset 36
 307              	.LVL27:
 308              		.loc 1 143 1 view .LVU119
 309              		@ sp needed
 310 0110 BDE8F08F 		pop	{r4, r5, r6, r7, r8, r9, r10, fp, pc}
 311              	.LVL28:
 312              	.L6:
 313              		.cfi_restore_state
 314              	.LBB4:
 315              		.loc 1 119 11 is_stmt 1 view .LVU120
 316              		.loc 1 119 29 is_stmt 0 view .LVU121
 317 0114 D0F824B0 		ldr	fp, [r0, #36]
 318              		.loc 1 119 36 view .LVU122
 319 0118 2BEA0E0E 		bic	lr, fp, lr
 320              	.LVL29:
 321              		.loc 1 119 43 view .LVU123
 322 011c 4EEA090E 		orr	lr, lr, r9
 323              		.loc 1 119 22 view .LVU124
 324 0120 C0F824E0 		str	lr, [r0, #36]
 325 0124 E5E7     		b	.L7
 326              	.LBE4:
 327              		.cfi_endproc
 328              	.LFE401:
 329              		.size	_pal_lld_setgroupmode, .-_pal_lld_setgroupmode
 330 0126 00BF     		.text
 331              	.Letext0:
 332              		.file 2 "/opt/gcc-arm-none-eabi/gcc-arm-none-eabi-10.3-2021.07/arm-none-eabi/include/machine/_defa
 333              		.file 3 "/opt/gcc-arm-none-eabi/gcc-arm-none-eabi-10.3-2021.07/arm-none-eabi/include/sys/_stdint.h
 334              		.file 4 "../ChibiOS/os/hal/ports/STM32/LLD/GPIOv3/stm32_gpio.h"
 335              		.file 5 "../ChibiOS/os/hal/ports/STM32/LLD/GPIOv3/hal_pal_lld.h"