ARM GAS  /tmp/ccDN1f1U.s 			page 1


   1              		.cpu cortex-m4
   2              		.eabi_attribute 20, 1
   3              		.eabi_attribute 21, 1
   4              		.eabi_attribute 23, 3
   5              		.eabi_attribute 24, 1
   6              		.eabi_attribute 25, 1
   7              		.eabi_attribute 26, 1
   8              		.eabi_attribute 30, 2
   9              		.eabi_attribute 34, 1
  10              		.eabi_attribute 18, 4
  11              		.file	"hal_queues.c"
  12              		.text
  13              	.Ltext0:
  14              		.cfi_sections	.debug_frame
  15              		.section	.text.iq_read,"ax",%progbits
  16              		.align	1
  17              		.p2align 4,,15
  18              		.arch armv7e-m
  19              		.syntax unified
  20              		.thumb
  21              		.thumb_func
  22              		.fpu softvfp
  23              		.type	iq_read, %function
  24              	iq_read:
  25              	.LVL0:
  26              	.LFB400:
  27              		.file 1 "../ChibiOS/os/hal/src/hal_queues.c"
  28              		.loc 1 60 66 view -0
  29              		.cfi_startproc
  30              		@ args = 0, pretend = 0, frame = 0
  31              		@ frame_needed = 0, uses_anonymous_args = 0
  32              		.loc 1 61 3 view .LVU1
  33              		.loc 1 63 3 view .LVU2
  34              		.loc 1 63 3 view .LVU3
  35              		.loc 1 63 3 view .LVU4
  36              		.loc 1 66 3 view .LVU5
  37              		.loc 1 60 66 is_stmt 0 view .LVU6
  38 0000 F8B5     		push	{r3, r4, r5, r6, r7, lr}
  39              		.cfi_def_cfa_offset 24
  40              		.cfi_offset 3, -24
  41              		.cfi_offset 4, -20
  42              		.cfi_offset 5, -16
  43              		.cfi_offset 6, -12
  44              		.cfi_offset 7, -8
  45              		.cfi_offset 14, -4
  46              		.loc 1 60 66 view .LVU7
  47 0002 0446     		mov	r4, r0
  48              		.loc 1 66 11 view .LVU8
  49 0004 8068     		ldr	r0, [r0, #8]
  50              	.LVL1:
  51              		.loc 1 72 28 view .LVU9
  52 0006 2669     		ldr	r6, [r4, #16]
  53              		.loc 1 66 6 view .LVU10
  54 0008 9042     		cmp	r0, r2
  55              		.loc 1 67 5 is_stmt 1 view .LVU11
  56              		.loc 1 60 66 is_stmt 0 view .LVU12
  57 000a 0B46     		mov	r3, r1
ARM GAS  /tmp/ccDN1f1U.s 			page 2


  58              		.loc 1 72 33 view .LVU13
  59 000c A169     		ldr	r1, [r4, #24]
  60              	.LVL2:
  61              		.loc 1 67 7 view .LVU14
  62 000e 34BF     		ite	cc
  63 0010 A568     		ldrcc	r5, [r4, #8]
  64              	.LVL3:
  65              		.loc 1 67 7 view .LVU15
  66 0012 1546     		movcs	r5, r2
  67              	.LVL4:
  68              		.loc 1 72 3 is_stmt 1 view .LVU16
  69              		.loc 1 72 28 is_stmt 0 view .LVU17
  70 0014 761A     		subs	r6, r6, r1
  71              	.LVL5:
  72              		.loc 1 74 3 is_stmt 1 view .LVU18
  73              		.loc 1 74 6 is_stmt 0 view .LVU19
  74 0016 B542     		cmp	r5, r6
  75 0018 1DD3     		bcc	.L9
  76              		.loc 1 78 8 is_stmt 1 view .LVU20
  77              		.loc 1 78 11 is_stmt 0 view .LVU21
  78 001a 0AD8     		bhi	.L10
  79              		.loc 1 86 5 is_stmt 1 view .LVU22
  80 001c 2A46     		mov	r2, r5
  81 001e 1846     		mov	r0, r3
  82 0020 FFF7FEFF 		bl	memcpy
  83              	.LVL6:
  84              		.loc 1 87 5 view .LVU23
  85              		.loc 1 90 18 is_stmt 0 view .LVU24
  86 0024 A268     		ldr	r2, [r4, #8]
  87              		.loc 1 87 18 view .LVU25
  88 0026 E368     		ldr	r3, [r4, #12]
  89 0028 A361     		str	r3, [r4, #24]
  90              		.loc 1 90 3 is_stmt 1 view .LVU26
  91              		.loc 1 92 1 is_stmt 0 view .LVU27
  92 002a 2846     		mov	r0, r5
  93              		.loc 1 90 18 view .LVU28
  94 002c 551B     		subs	r5, r2, r5
  95              	.LVL7:
  96              		.loc 1 90 18 view .LVU29
  97 002e A560     		str	r5, [r4, #8]
  98              		.loc 1 91 3 is_stmt 1 view .LVU30
  99              		.loc 1 92 1 is_stmt 0 view .LVU31
 100 0030 F8BD     		pop	{r3, r4, r5, r6, r7, pc}
 101              	.LVL8:
 102              	.L10:
 103              		.loc 1 79 5 is_stmt 1 view .LVU32
 104 0032 3246     		mov	r2, r6
 105 0034 1846     		mov	r0, r3
 106 0036 FFF7FEFF 		bl	memcpy
 107              	.LVL9:
 108              		.loc 1 80 5 view .LVU33
 109              		.loc 1 81 5 view .LVU34
 110              		.loc 1 81 8 is_stmt 0 view .LVU35
 111 003a AF1B     		subs	r7, r5, r6
 112              	.LVL10:
 113              		.loc 1 82 5 is_stmt 1 view .LVU36
 114 003c 3A46     		mov	r2, r7
ARM GAS  /tmp/ccDN1f1U.s 			page 3


 115 003e E168     		ldr	r1, [r4, #12]
 116 0040 3044     		add	r0, r0, r6
 117              	.LVL11:
 118              		.loc 1 82 5 is_stmt 0 view .LVU37
 119 0042 FFF7FEFF 		bl	memcpy
 120              	.LVL12:
 121              		.loc 1 83 5 is_stmt 1 view .LVU38
 122              		.loc 1 90 18 is_stmt 0 view .LVU39
 123 0046 A268     		ldr	r2, [r4, #8]
 124              		.loc 1 83 34 view .LVU40
 125 0048 E368     		ldr	r3, [r4, #12]
 126              		.loc 1 92 1 view .LVU41
 127 004a 2846     		mov	r0, r5
 128              		.loc 1 83 34 view .LVU42
 129 004c 3B44     		add	r3, r3, r7
 130              		.loc 1 90 18 view .LVU43
 131 004e 551B     		subs	r5, r2, r5
 132              	.LVL13:
 133              		.loc 1 83 18 view .LVU44
 134 0050 A361     		str	r3, [r4, #24]
 135              		.loc 1 90 3 is_stmt 1 view .LVU45
 136              		.loc 1 90 18 is_stmt 0 view .LVU46
 137 0052 A560     		str	r5, [r4, #8]
 138              		.loc 1 91 3 is_stmt 1 view .LVU47
 139              		.loc 1 92 1 is_stmt 0 view .LVU48
 140 0054 F8BD     		pop	{r3, r4, r5, r6, r7, pc}
 141              	.LVL14:
 142              	.L9:
 143              		.loc 1 75 5 is_stmt 1 view .LVU49
 144 0056 2A46     		mov	r2, r5
 145 0058 1846     		mov	r0, r3
 146 005a FFF7FEFF 		bl	memcpy
 147              	.LVL15:
 148              		.loc 1 76 5 view .LVU50
 149              		.loc 1 76 18 is_stmt 0 view .LVU51
 150 005e A369     		ldr	r3, [r4, #24]
 151              		.loc 1 90 18 view .LVU52
 152 0060 A268     		ldr	r2, [r4, #8]
 153              		.loc 1 76 18 view .LVU53
 154 0062 2B44     		add	r3, r3, r5
 155              		.loc 1 92 1 view .LVU54
 156 0064 2846     		mov	r0, r5
 157              		.loc 1 90 18 view .LVU55
 158 0066 551B     		subs	r5, r2, r5
 159              	.LVL16:
 160              		.loc 1 76 18 view .LVU56
 161 0068 A361     		str	r3, [r4, #24]
 162              		.loc 1 90 3 is_stmt 1 view .LVU57
 163              		.loc 1 90 18 is_stmt 0 view .LVU58
 164 006a A560     		str	r5, [r4, #8]
 165              		.loc 1 91 3 is_stmt 1 view .LVU59
 166              		.loc 1 92 1 is_stmt 0 view .LVU60
 167 006c F8BD     		pop	{r3, r4, r5, r6, r7, pc}
 168              		.loc 1 92 1 view .LVU61
 169              		.cfi_endproc
 170              	.LFE400:
 171              		.size	iq_read, .-iq_read
ARM GAS  /tmp/ccDN1f1U.s 			page 4


 172 006e 00BF     		.section	.text.oq_write,"ax",%progbits
 173              		.align	1
 174              		.p2align 4,,15
 175              		.syntax unified
 176              		.thumb
 177              		.thumb_func
 178              		.fpu softvfp
 179              		.type	oq_write, %function
 180              	oq_write:
 181              	.LVL17:
 182              	.LFB401:
 183              		.loc 1 108 74 is_stmt 1 view -0
 184              		.cfi_startproc
 185              		@ args = 0, pretend = 0, frame = 0
 186              		@ frame_needed = 0, uses_anonymous_args = 0
 187              		.loc 1 109 3 view .LVU63
 188              		.loc 1 111 3 view .LVU64
 189              		.loc 1 111 3 view .LVU65
 190              		.loc 1 111 3 view .LVU66
 191              		.loc 1 114 3 view .LVU67
 192              		.loc 1 114 11 is_stmt 0 view .LVU68
 193 0000 8368     		ldr	r3, [r0, #8]
 194              		.loc 1 114 6 view .LVU69
 195 0002 9342     		cmp	r3, r2
 196              		.loc 1 115 5 is_stmt 1 view .LVU70
 197              		.loc 1 108 74 is_stmt 0 view .LVU71
 198 0004 2DE9F041 		push	{r4, r5, r6, r7, r8, lr}
 199              		.cfi_def_cfa_offset 24
 200              		.cfi_offset 4, -24
 201              		.cfi_offset 5, -20
 202              		.cfi_offset 6, -16
 203              		.cfi_offset 7, -12
 204              		.cfi_offset 8, -8
 205              		.cfi_offset 14, -4
 206              		.loc 1 115 7 view .LVU72
 207 0008 38BF     		it	cc
 208 000a 8568     		ldrcc	r5, [r0, #8]
 209              	.LVL18:
 210              		.loc 1 108 74 view .LVU73
 211 000c 0446     		mov	r4, r0
 212              		.loc 1 120 28 view .LVU74
 213 000e D0E90460 		ldrd	r6, r0, [r0, #16]
 214              	.LVL19:
 215              		.loc 1 120 28 view .LVU75
 216 0012 28BF     		it	cs
 217 0014 1546     		movcs	r5, r2
 218              	.LVL20:
 219              		.loc 1 120 3 is_stmt 1 view .LVU76
 220              		.loc 1 120 28 is_stmt 0 view .LVU77
 221 0016 361A     		subs	r6, r6, r0
 222              	.LVL21:
 223              		.loc 1 122 3 is_stmt 1 view .LVU78
 224              		.loc 1 122 6 is_stmt 0 view .LVU79
 225 0018 B542     		cmp	r5, r6
 226              		.loc 1 108 74 view .LVU80
 227 001a 0F46     		mov	r7, r1
 228              		.loc 1 122 6 view .LVU81
ARM GAS  /tmp/ccDN1f1U.s 			page 5


 229 001c 19D3     		bcc	.L18
 230              		.loc 1 126 8 is_stmt 1 view .LVU82
 231              		.loc 1 126 11 is_stmt 0 view .LVU83
 232 001e 0AD8     		bhi	.L19
 233              		.loc 1 134 5 is_stmt 1 view .LVU84
 234 0020 2A46     		mov	r2, r5
 235 0022 FFF7FEFF 		bl	memcpy
 236              	.LVL22:
 237              		.loc 1 135 5 view .LVU85
 238              		.loc 1 135 18 is_stmt 0 view .LVU86
 239 0026 E368     		ldr	r3, [r4, #12]
 240 0028 6361     		str	r3, [r4, #20]
 241              	.LVL23:
 242              	.L14:
 243              		.loc 1 138 3 is_stmt 1 view .LVU87
 244              		.loc 1 138 18 is_stmt 0 view .LVU88
 245 002a A268     		ldr	r2, [r4, #8]
 246              		.loc 1 140 1 view .LVU89
 247 002c 2846     		mov	r0, r5
 248              		.loc 1 138 18 view .LVU90
 249 002e 551B     		subs	r5, r2, r5
 250              	.LVL24:
 251              		.loc 1 138 18 view .LVU91
 252 0030 A560     		str	r5, [r4, #8]
 253              		.loc 1 139 3 is_stmt 1 view .LVU92
 254              		.loc 1 140 1 is_stmt 0 view .LVU93
 255 0032 BDE8F081 		pop	{r4, r5, r6, r7, r8, pc}
 256              	.LVL25:
 257              	.L19:
 258              		.loc 1 127 5 is_stmt 1 view .LVU94
 259 0036 3246     		mov	r2, r6
 260              		.loc 1 129 8 is_stmt 0 view .LVU95
 261 0038 A5EB0608 		sub	r8, r5, r6
 262              		.loc 1 127 5 view .LVU96
 263 003c FFF7FEFF 		bl	memcpy
 264              	.LVL26:
 265              		.loc 1 128 5 is_stmt 1 view .LVU97
 266              		.loc 1 129 5 view .LVU98
 267              		.loc 1 130 5 view .LVU99
 268 0040 E068     		ldr	r0, [r4, #12]
 269 0042 B919     		adds	r1, r7, r6
 270              	.LVL27:
 271              		.loc 1 130 5 is_stmt 0 view .LVU100
 272 0044 4246     		mov	r2, r8
 273 0046 FFF7FEFF 		bl	memcpy
 274              	.LVL28:
 275              		.loc 1 131 5 is_stmt 1 view .LVU101
 276              		.loc 1 131 34 is_stmt 0 view .LVU102
 277 004a E368     		ldr	r3, [r4, #12]
 278 004c 4344     		add	r3, r3, r8
 279              		.loc 1 131 18 view .LVU103
 280 004e 6361     		str	r3, [r4, #20]
 281 0050 EBE7     		b	.L14
 282              	.LVL29:
 283              	.L18:
 284              		.loc 1 123 5 is_stmt 1 view .LVU104
 285 0052 2A46     		mov	r2, r5
ARM GAS  /tmp/ccDN1f1U.s 			page 6


 286 0054 FFF7FEFF 		bl	memcpy
 287              	.LVL30:
 288              		.loc 1 124 5 view .LVU105
 289              		.loc 1 124 18 is_stmt 0 view .LVU106
 290 0058 6369     		ldr	r3, [r4, #20]
 291 005a 2B44     		add	r3, r3, r5
 292 005c 6361     		str	r3, [r4, #20]
 293 005e E4E7     		b	.L14
 294              		.cfi_endproc
 295              	.LFE401:
 296              		.size	oq_write, .-oq_write
 297              		.section	.text.iqObjectInit,"ax",%progbits
 298              		.align	1
 299              		.p2align 4,,15
 300              		.global	iqObjectInit
 301              		.syntax unified
 302              		.thumb
 303              		.thumb_func
 304              		.fpu softvfp
 305              		.type	iqObjectInit, %function
 306              	iqObjectInit:
 307              	.LVL31:
 308              	.LFB402:
 309              		.loc 1 178 47 is_stmt 1 view -0
 310              		.cfi_startproc
 311              		@ args = 4, pretend = 0, frame = 0
 312              		@ frame_needed = 0, uses_anonymous_args = 0
 313              		@ link register save eliminated.
 314              		.loc 1 180 3 view .LVU108
 315              	.LBB157:
 316              	.LBI157:
 317              		.file 2 "../ChibiOS/os/hal/osal/rt-nil/osal.h"
 318              		.loc 2 864 20 view .LVU109
 319              	.LBE157:
 320              		.loc 2 866 3 view .LVU110
 321              	.LBB166:
 322              	.LBB158:
 323              	.LBI158:
 324              		.file 3 "../ChibiOS/os/rt/include/chthreads.h"
 325              		.loc 3 461 20 view .LVU111
 326              	.LBB159:
 327              		.loc 3 463 3 view .LVU112
 328              	.LBB160:
 329              	.LBI160:
 330              		.file 4 "../ChibiOS/os/rt/include/chlists.h"
 331              		.loc 4 222 20 view .LVU113
 332              	.LBB161:
 333              		.loc 4 224 3 view .LVU114
 334              	.LBE161:
 335              	.LBE160:
 336              	.LBE159:
 337              	.LBE158:
 338              	.LBE166:
 339              		.loc 1 187 18 is_stmt 0 view .LVU115
 340 0000 DDF800C0 		ldr	ip, [sp]
 341              		.loc 1 182 18 view .LVU116
 342 0004 C160     		str	r1, [r0, #12]
ARM GAS  /tmp/ccDN1f1U.s 			page 7


 343              		.loc 1 186 18 view .LVU117
 344 0006 C0E9073C 		strd	r3, ip, [r0, #28]
 345              		.loc 1 185 23 view .LVU118
 346 000a 0A44     		add	r2, r2, r1
 347              	.LVL32:
 348              		.loc 1 181 18 view .LVU119
 349 000c 0023     		movs	r3, #0
 350              	.LVL33:
 351              	.LBB167:
 352              	.LBB165:
 353              	.LBB164:
 354              	.LBB163:
 355              	.LBB162:
 356              		.loc 4 225 12 view .LVU120
 357 000e C0E90000 		strd	r0, r0, [r0]
 358              	.LVL34:
 359              		.loc 4 225 12 view .LVU121
 360              	.LBE162:
 361              	.LBE163:
 362              	.LBE164:
 363              	.LBE165:
 364              	.LBE167:
 365              		.loc 1 181 3 is_stmt 1 view .LVU122
 366              		.loc 1 184 18 is_stmt 0 view .LVU123
 367 0012 C0E90511 		strd	r1, r1, [r0, #20]
 368              		.loc 1 185 18 view .LVU124
 369 0016 0261     		str	r2, [r0, #16]
 370              		.loc 1 181 18 view .LVU125
 371 0018 8360     		str	r3, [r0, #8]
 372              		.loc 1 182 3 is_stmt 1 view .LVU126
 373              		.loc 1 183 3 view .LVU127
 374              		.loc 1 184 3 view .LVU128
 375              		.loc 1 185 3 view .LVU129
 376              		.loc 1 186 3 view .LVU130
 377              		.loc 1 187 3 view .LVU131
 378              		.loc 1 188 1 is_stmt 0 view .LVU132
 379 001a 7047     		bx	lr
 380              		.cfi_endproc
 381              	.LFE402:
 382              		.size	iqObjectInit, .-iqObjectInit
 383              		.section	.text.iqResetI,"ax",%progbits
 384              		.align	1
 385              		.p2align 4,,15
 386              		.global	iqResetI
 387              		.syntax unified
 388              		.thumb
 389              		.thumb_func
 390              		.fpu softvfp
 391              		.type	iqResetI, %function
 392              	iqResetI:
 393              	.LVL35:
 394              	.LFB403:
 395              		.loc 1 201 35 is_stmt 1 view -0
 396              		.cfi_startproc
 397              		@ args = 0, pretend = 0, frame = 0
 398              		@ frame_needed = 0, uses_anonymous_args = 0
 399              		@ link register save eliminated.
ARM GAS  /tmp/ccDN1f1U.s 			page 8


 400              		.loc 1 203 23 view .LVU134
 401              		.loc 1 205 3 view .LVU135
 402              		.loc 1 205 21 is_stmt 0 view .LVU136
 403 0000 C268     		ldr	r2, [r0, #12]
 404              		.loc 1 207 18 view .LVU137
 405 0002 0021     		movs	r1, #0
 406 0004 8160     		str	r1, [r0, #8]
 407              		.loc 1 206 16 view .LVU138
 408 0006 C0E90522 		strd	r2, r2, [r0, #20]
 409              		.loc 1 207 3 is_stmt 1 view .LVU139
 410              		.loc 1 208 3 view .LVU140
 411              	.LVL36:
 412              	.LBB168:
 413              	.LBI168:
 414              		.loc 2 919 20 view .LVU141
 415              	.LBB169:
 416              		.loc 2 921 3 view .LVU142
 417 000a 6FF00101 		mvn	r1, #1
 418 000e FFF7FEBF 		b	chThdDequeueAllI
 419              	.LVL37:
 420              		.loc 2 921 3 is_stmt 0 view .LVU143
 421              	.LBE169:
 422              	.LBE168:
 423              		.cfi_endproc
 424              	.LFE403:
 425              		.size	iqResetI, .-iqResetI
 426 0012 00BF     		.section	.text.iqPutI,"ax",%progbits
 427              		.align	1
 428              		.p2align 4,,15
 429              		.global	iqPutI
 430              		.syntax unified
 431              		.thumb
 432              		.thumb_func
 433              		.fpu softvfp
 434              		.type	iqPutI, %function
 435              	iqPutI:
 436              	.LVL38:
 437              	.LFB404:
 438              		.loc 1 224 45 is_stmt 1 view -0
 439              		.cfi_startproc
 440              		@ args = 0, pretend = 0, frame = 0
 441              		@ frame_needed = 0, uses_anonymous_args = 0
 442              		.loc 1 226 23 view .LVU145
 443              		.loc 1 229 3 view .LVU146
 444              		.loc 1 229 8 is_stmt 0 view .LVU147
 445 0000 D0E90532 		ldrd	r3, r2, [r0, #20]
 446 0004 9342     		cmp	r3, r2
 447 0006 11D0     		beq	.L31
 448              	.L23:
 449              		.loc 1 230 5 is_stmt 1 view .LVU148
 450              		.loc 1 230 8 is_stmt 0 view .LVU149
 451 0008 8268     		ldr	r2, [r0, #8]
 452              		.loc 1 224 45 view .LVU150
 453 000a 10B5     		push	{r4, lr}
 454              		.cfi_def_cfa_offset 8
 455              		.cfi_offset 4, -8
 456              		.cfi_offset 14, -4
ARM GAS  /tmp/ccDN1f1U.s 			page 9


 457              		.loc 1 230 19 view .LVU151
 458 000c 0132     		adds	r2, r2, #1
 459              		.loc 1 231 18 view .LVU152
 460 000e 5C1C     		adds	r4, r3, #1
 461 0010 4461     		str	r4, [r0, #20]
 462              		.loc 1 230 19 view .LVU153
 463 0012 8260     		str	r2, [r0, #8]
 464              		.loc 1 231 5 is_stmt 1 view .LVU154
 465              		.loc 1 231 21 is_stmt 0 view .LVU155
 466 0014 1970     		strb	r1, [r3]
 467              		.loc 1 232 5 is_stmt 1 view .LVU156
 468              		.loc 1 232 8 is_stmt 0 view .LVU157
 469 0016 D0E90432 		ldrd	r3, r2, [r0, #16]
 470 001a 9A42     		cmp	r2, r3
 471 001c 01D3     		bcc	.L26
 472              		.loc 1 233 7 is_stmt 1 view .LVU158
 473              		.loc 1 233 20 is_stmt 0 view .LVU159
 474 001e C368     		ldr	r3, [r0, #12]
 475 0020 4361     		str	r3, [r0, #20]
 476              	.L26:
 477              		.loc 1 236 5 is_stmt 1 view .LVU160
 478              	.LVL39:
 479              	.LBB170:
 480              	.LBI170:
 481              		.loc 2 906 20 view .LVU161
 482              	.LBB171:
 483              		.loc 2 908 3 view .LVU162
 484 0022 0021     		movs	r1, #0
 485              	.LVL40:
 486              		.loc 2 908 3 is_stmt 0 view .LVU163
 487 0024 FFF7FEFF 		bl	chThdDequeueNextI
 488              	.LVL41:
 489              		.loc 2 908 3 view .LVU164
 490              	.LBE171:
 491              	.LBE170:
 492              		.loc 1 238 5 is_stmt 1 view .LVU165
 493              		.loc 1 238 12 is_stmt 0 view .LVU166
 494 0028 0020     		movs	r0, #0
 495              		.loc 1 242 1 view .LVU167
 496 002a 10BD     		pop	{r4, pc}
 497              	.LVL42:
 498              	.L31:
 499              		.cfi_def_cfa_offset 0
 500              		.cfi_restore 4
 501              		.cfi_restore 14
 502              		.loc 1 229 8 discriminator 1 view .LVU168
 503 002c 8268     		ldr	r2, [r0, #8]
 504 002e 002A     		cmp	r2, #0
 505 0030 EAD0     		beq	.L23
 506              		.loc 1 241 10 view .LVU169
 507 0032 4FF0FF30 		mov	r0, #-1
 508              	.LVL43:
 509              		.loc 1 242 1 view .LVU170
 510 0036 7047     		bx	lr
 511              		.cfi_endproc
 512              	.LFE404:
 513              		.size	iqPutI, .-iqPutI
ARM GAS  /tmp/ccDN1f1U.s 			page 10


 514              		.section	.text.iqGetI,"ax",%progbits
 515              		.align	1
 516              		.p2align 4,,15
 517              		.global	iqGetI
 518              		.syntax unified
 519              		.thumb
 520              		.thumb_func
 521              		.fpu softvfp
 522              		.type	iqGetI, %function
 523              	iqGetI:
 524              	.LVL44:
 525              	.LFB405:
 526              		.loc 1 258 34 is_stmt 1 view -0
 527              		.cfi_startproc
 528              		@ args = 0, pretend = 0, frame = 0
 529              		@ frame_needed = 0, uses_anonymous_args = 0
 530              		.loc 1 260 23 view .LVU172
 531              		.loc 1 263 3 view .LVU173
 532              		.loc 1 263 8 is_stmt 0 view .LVU174
 533 0000 8368     		ldr	r3, [r0, #8]
 534              		.loc 1 263 6 view .LVU175
 535 0002 93B1     		cbz	r3, .L36
 536              	.LBB172:
 537              		.loc 1 264 5 is_stmt 1 view .LVU176
 538              		.loc 1 267 5 view .LVU177
 539              		.loc 1 267 8 is_stmt 0 view .LVU178
 540 0004 8368     		ldr	r3, [r0, #8]
 541              		.loc 1 268 13 view .LVU179
 542 0006 8169     		ldr	r1, [r0, #24]
 543              	.LBE172:
 544              		.loc 1 258 34 view .LVU180
 545 0008 10B5     		push	{r4, lr}
 546              		.cfi_def_cfa_offset 8
 547              		.cfi_offset 4, -8
 548              		.cfi_offset 14, -4
 549              	.LBB173:
 550              		.loc 1 267 19 view .LVU181
 551 000a 013B     		subs	r3, r3, #1
 552 000c 8360     		str	r3, [r0, #8]
 553              		.loc 1 268 5 is_stmt 1 view .LVU182
 554              		.loc 1 269 8 is_stmt 0 view .LVU183
 555 000e 0369     		ldr	r3, [r0, #16]
 556              		.loc 1 268 22 view .LVU184
 557 0010 4A1C     		adds	r2, r1, #1
 558              		.loc 1 269 8 view .LVU185
 559 0012 9A42     		cmp	r2, r3
 560              		.loc 1 270 20 view .LVU186
 561 0014 28BF     		it	cs
 562 0016 C368     		ldrcs	r3, [r0, #12]
 563              		.loc 1 268 22 view .LVU187
 564 0018 8261     		str	r2, [r0, #24]
 565              		.loc 1 268 7 view .LVU188
 566 001a 0C78     		ldrb	r4, [r1]	@ zero_extendqisi2
 567              	.LVL45:
 568              		.loc 1 269 5 is_stmt 1 view .LVU189
 569              		.loc 1 270 7 view .LVU190
 570              		.loc 1 274 5 view .LVU191
ARM GAS  /tmp/ccDN1f1U.s 			page 11


 571              		.loc 1 270 20 is_stmt 0 view .LVU192
 572 001c 28BF     		it	cs
 573 001e 8361     		strcs	r3, [r0, #24]
 574              		.loc 1 274 12 view .LVU193
 575 0020 C369     		ldr	r3, [r0, #28]
 576              		.loc 1 274 8 view .LVU194
 577 0022 03B1     		cbz	r3, .L35
 578              		.loc 1 275 7 is_stmt 1 view .LVU195
 579 0024 9847     		blx	r3
 580              	.LVL46:
 581              	.L35:
 582              		.loc 1 278 5 view .LVU196
 583              		.loc 1 278 12 is_stmt 0 view .LVU197
 584 0026 2046     		mov	r0, r4
 585              	.LBE173:
 586              		.loc 1 282 1 view .LVU198
 587 0028 10BD     		pop	{r4, pc}
 588              	.LVL47:
 589              	.L36:
 590              		.cfi_def_cfa_offset 0
 591              		.cfi_restore 4
 592              		.cfi_restore 14
 593              		.loc 1 281 10 view .LVU199
 594 002a 4FF0FF30 		mov	r0, #-1
 595              	.LVL48:
 596              		.loc 1 282 1 view .LVU200
 597 002e 7047     		bx	lr
 598              		.cfi_endproc
 599              	.LFE405:
 600              		.size	iqGetI, .-iqGetI
 601              		.section	.text.iqGetTimeout,"ax",%progbits
 602              		.align	1
 603              		.p2align 4,,15
 604              		.global	iqGetTimeout
 605              		.syntax unified
 606              		.thumb
 607              		.thumb_func
 608              		.fpu softvfp
 609              		.type	iqGetTimeout, %function
 610              	iqGetTimeout:
 611              	.LVL49:
 612              	.LFB406:
 613              		.loc 1 304 63 is_stmt 1 view -0
 614              		.cfi_startproc
 615              		@ args = 0, pretend = 0, frame = 0
 616              		@ frame_needed = 0, uses_anonymous_args = 0
 617              		.loc 1 305 3 view .LVU202
 618              		.loc 1 307 3 view .LVU203
 619              	.LBB174:
 620              	.LBI174:
 621              		.loc 2 573 20 view .LVU204
 622              	.LBB175:
 623              		.loc 2 575 3 view .LVU205
 624              	.LBB176:
 625              	.LBI176:
 626              		.file 5 "../ChibiOS/os/rt/include/chsys.h"
 627              		.loc 5 407 20 view .LVU206
ARM GAS  /tmp/ccDN1f1U.s 			page 12


 628              	.LBE176:
 629              	.LBE175:
 630              	.LBE174:
 631              		.loc 5 409 3 view .LVU207
 632              	.LBB196:
 633              	.LBB191:
 634              	.LBB187:
 635              	.LBB177:
 636              	.LBI177:
 637              		.file 6 "../ChibiOS/os/common/ports/ARMv7-M/chcore.h"
 638              		.loc 6 806 27 view .LVU208
 639              	.LBE177:
 640              	.LBE187:
 641              	.LBE191:
 642              	.LBE196:
 643              		.loc 6 814 3 view .LVU209
 644              	.LBB197:
 645              	.LBB192:
 646              	.LBB188:
 647              	.LBB184:
 648              	.LBB178:
 649              	.LBI178:
 650              		.file 7 "../ChibiOS/os/common/ext/ARM/CMSIS/Core/Include/cmsis_gcc.h"
 651              		.loc 7 491 27 view .LVU210
 652              	.LBB179:
 653              		.loc 7 493 3 view .LVU211
 654              	.LBE179:
 655              	.LBE178:
 656              	.LBE184:
 657              	.LBE188:
 658              	.LBE192:
 659              	.LBE197:
 660              		.loc 1 304 63 is_stmt 0 view .LVU212
 661 0000 70B5     		push	{r4, r5, r6, lr}
 662              		.cfi_def_cfa_offset 16
 663              		.cfi_offset 4, -16
 664              		.cfi_offset 5, -12
 665              		.cfi_offset 6, -8
 666              		.cfi_offset 14, -4
 667              	.LBB198:
 668              	.LBB193:
 669              	.LBB189:
 670              	.LBB185:
 671              	.LBB182:
 672              	.LBB180:
 673              		.loc 7 493 3 view .LVU213
 674 0002 3023     		movs	r3, #48
 675              	.LBE180:
 676              	.LBE182:
 677              	.LBE185:
 678              	.LBE189:
 679              	.LBE193:
 680              	.LBE198:
 681              		.loc 1 304 63 view .LVU214
 682 0004 0546     		mov	r5, r0
 683 0006 0E46     		mov	r6, r1
 684              	.LBB199:
ARM GAS  /tmp/ccDN1f1U.s 			page 13


 685              	.LBB194:
 686              	.LBB190:
 687              	.LBB186:
 688              	.LBB183:
 689              	.LBB181:
 690              		.loc 7 493 3 view .LVU215
 691              		.syntax unified
 692              	@ 493 "../ChibiOS/os/common/ext/ARM/CMSIS/Core/Include/cmsis_gcc.h" 1
 693 0008 83F31188 		MSR basepri, r3
 694              	@ 0 "" 2
 695              	.LVL50:
 696              		.loc 7 493 3 view .LVU216
 697              		.thumb
 698              		.syntax unified
 699              	.LBE181:
 700              	.LBE183:
 701              	.LBE186:
 702              	.LBE190:
 703              	.LBE194:
 704              	.LBE199:
 705              		.loc 5 410 35 is_stmt 1 view .LVU217
 706              		.loc 5 411 21 view .LVU218
 707              	.LBB200:
 708              	.LBB195:
 709              		.loc 2 576 1 is_stmt 0 view .LVU219
 710 000c 03E0     		b	.L45
 711              	.LVL51:
 712              	.L47:
 713              		.loc 2 576 1 view .LVU220
 714              	.LBE195:
 715              	.LBE200:
 716              	.LBB201:
 717              	.LBB202:
 718              	.LBB203:
 719              		.loc 2 895 10 view .LVU221
 720 000e FFF7FEFF 		bl	chThdEnqueueTimeoutS
 721              	.LVL52:
 722              		.loc 2 895 10 view .LVU222
 723              	.LBE203:
 724              	.LBE202:
 725              		.loc 1 312 5 is_stmt 1 view .LVU223
 726              		.loc 1 312 8 is_stmt 0 view .LVU224
 727 0012 0028     		cmp	r0, #0
 728              		.loc 1 312 8 view .LVU225
 729 0014 19DB     		blt	.L55
 730              	.LVL53:
 731              	.L45:
 732              		.loc 1 311 5 is_stmt 1 view .LVU226
 733              	.LBB206:
 734              	.LBI202:
 735              		.loc 2 892 21 view .LVU227
 736              	.LBB204:
 737              		.loc 2 895 3 view .LVU228
 738              	.LBE204:
 739              	.LBE206:
 740              	.LBE201:
 741              		.loc 1 310 9 view .LVU229
ARM GAS  /tmp/ccDN1f1U.s 			page 14


 742              		.loc 1 310 10 is_stmt 0 view .LVU230
 743 0016 AC68     		ldr	r4, [r5, #8]
 744              	.LBB219:
 745              	.LBB207:
 746              	.LBB205:
 747              		.loc 2 895 10 view .LVU231
 748 0018 3146     		mov	r1, r6
 749 001a 2846     		mov	r0, r5
 750              	.LBE205:
 751              	.LBE207:
 752              	.LBE219:
 753              		.loc 1 310 9 view .LVU232
 754 001c 002C     		cmp	r4, #0
 755 001e F6D0     		beq	.L47
 756              	.LVL54:
 757              		.loc 1 319 3 is_stmt 1 view .LVU233
 758              		.loc 1 319 6 is_stmt 0 view .LVU234
 759 0020 AB68     		ldr	r3, [r5, #8]
 760              		.loc 1 320 11 view .LVU235
 761 0022 A969     		ldr	r1, [r5, #24]
 762              	.LVL55:
 763              		.loc 1 319 17 view .LVU236
 764 0024 013B     		subs	r3, r3, #1
 765 0026 AB60     		str	r3, [r5, #8]
 766              		.loc 1 320 3 is_stmt 1 view .LVU237
 767              		.loc 1 321 6 is_stmt 0 view .LVU238
 768 0028 2B69     		ldr	r3, [r5, #16]
 769              		.loc 1 320 20 view .LVU239
 770 002a 4A1C     		adds	r2, r1, #1
 771              		.loc 1 321 6 view .LVU240
 772 002c 9A42     		cmp	r2, r3
 773              		.loc 1 322 18 view .LVU241
 774 002e 28BF     		it	cs
 775 0030 EB68     		ldrcs	r3, [r5, #12]
 776              		.loc 1 320 20 view .LVU242
 777 0032 AA61     		str	r2, [r5, #24]
 778              		.loc 1 320 5 view .LVU243
 779 0034 0C78     		ldrb	r4, [r1]	@ zero_extendqisi2
 780              	.LVL56:
 781              		.loc 1 321 3 is_stmt 1 view .LVU244
 782              		.loc 1 322 5 view .LVU245
 783              		.loc 1 326 3 view .LVU246
 784              		.loc 1 322 18 is_stmt 0 view .LVU247
 785 0036 28BF     		it	cs
 786 0038 AB61     		strcs	r3, [r5, #24]
 787              		.loc 1 326 10 view .LVU248
 788 003a EB69     		ldr	r3, [r5, #28]
 789              		.loc 1 326 6 view .LVU249
 790 003c 03B1     		cbz	r3, .L49
 791              		.loc 1 327 5 is_stmt 1 view .LVU250
 792 003e 9847     		blx	r3
 793              	.LVL57:
 794              	.L49:
 795              		.loc 1 330 3 view .LVU251
 796              	.LBB220:
 797              	.LBI220:
 798              		.loc 2 584 20 view .LVU252
ARM GAS  /tmp/ccDN1f1U.s 			page 15


 799              	.LBE220:
 800              		.loc 2 586 3 view .LVU253
 801              	.LBB229:
 802              	.LBB221:
 803              	.LBI221:
 804              		.loc 5 421 20 view .LVU254
 805              	.LBB222:
 806              		.loc 5 423 23 view .LVU255
 807              		.loc 5 424 34 view .LVU256
 808              		.loc 5 430 3 view .LVU257
 809              		.loc 5 430 3 view .LVU258
 810              		.loc 5 430 3 view .LVU259
 811              		.loc 5 434 3 view .LVU260
 812              	.LBB223:
 813              	.LBI223:
 814              		.loc 6 830 27 view .LVU261
 815              	.LBE223:
 816              	.LBE222:
 817              	.LBE221:
 818              	.LBE229:
 819              		.loc 6 833 3 view .LVU262
 820              	.LBB230:
 821              	.LBB228:
 822              	.LBB227:
 823              	.LBB226:
 824              	.LBB224:
 825              	.LBI224:
 826              		.loc 7 491 27 view .LVU263
 827              	.LBB225:
 828              		.loc 7 493 3 view .LVU264
 829 0040 0023     		movs	r3, #0
 830              		.syntax unified
 831              	@ 493 "../ChibiOS/os/common/ext/ARM/CMSIS/Core/Include/cmsis_gcc.h" 1
 832 0042 83F31188 		MSR basepri, r3
 833              	@ 0 "" 2
 834              	.LVL58:
 835              		.loc 7 493 3 is_stmt 0 view .LVU265
 836              		.thumb
 837              		.syntax unified
 838              	.LBE225:
 839              	.LBE224:
 840              	.LBE226:
 841              	.LBE227:
 842              	.LBE228:
 843              	.LBE230:
 844              		.loc 1 332 3 is_stmt 1 view .LVU266
 845              		.loc 1 332 10 is_stmt 0 view .LVU267
 846 0046 2046     		mov	r0, r4
 847              		.loc 1 333 1 view .LVU268
 848 0048 70BD     		pop	{r4, r5, r6, pc}
 849              	.LVL59:
 850              	.L55:
 851              	.LBB231:
 852              		.loc 1 313 7 is_stmt 1 view .LVU269
 853              	.LBB208:
 854              	.LBI208:
 855              		.loc 2 584 20 view .LVU270
ARM GAS  /tmp/ccDN1f1U.s 			page 16


 856              	.LBE208:
 857              	.LBE231:
 858              		.loc 2 586 3 view .LVU271
 859              	.LBB232:
 860              	.LBB217:
 861              	.LBB209:
 862              	.LBI209:
 863              		.loc 5 421 20 view .LVU272
 864              	.LBB210:
 865              		.loc 5 423 23 view .LVU273
 866              		.loc 5 424 34 view .LVU274
 867              		.loc 5 430 3 view .LVU275
 868              		.loc 5 430 3 view .LVU276
 869              		.loc 5 430 3 view .LVU277
 870              		.loc 5 434 3 view .LVU278
 871              	.LBB211:
 872              	.LBI211:
 873              		.loc 6 830 27 view .LVU279
 874              	.LBE211:
 875              	.LBE210:
 876              	.LBE209:
 877              	.LBE217:
 878              	.LBE232:
 879              		.loc 6 833 3 view .LVU280
 880              	.LBB233:
 881              	.LBB218:
 882              	.LBB216:
 883              	.LBB215:
 884              	.LBB214:
 885              	.LBB212:
 886              	.LBI212:
 887              		.loc 7 491 27 view .LVU281
 888              	.LBB213:
 889              		.loc 7 493 3 view .LVU282
 890              		.syntax unified
 891              	@ 493 "../ChibiOS/os/common/ext/ARM/CMSIS/Core/Include/cmsis_gcc.h" 1
 892 004a 84F31188 		MSR basepri, r4
 893              	@ 0 "" 2
 894              	.LVL60:
 895              		.loc 7 493 3 is_stmt 0 view .LVU283
 896              		.thumb
 897              		.syntax unified
 898              	.LBE213:
 899              	.LBE212:
 900              	.LBE214:
 901              	.LBE215:
 902              	.LBE216:
 903              	.LBE218:
 904              		.loc 1 314 7 is_stmt 1 view .LVU284
 905              	.LBE233:
 906              		.loc 1 333 1 is_stmt 0 view .LVU285
 907 004e 70BD     		pop	{r4, r5, r6, pc}
 908              		.loc 1 333 1 view .LVU286
 909              		.cfi_endproc
 910              	.LFE406:
 911              		.size	iqGetTimeout, .-iqGetTimeout
 912              		.section	.text.iqReadI,"ax",%progbits
ARM GAS  /tmp/ccDN1f1U.s 			page 17


 913              		.align	1
 914              		.p2align 4,,15
 915              		.global	iqReadI
 916              		.syntax unified
 917              		.thumb
 918              		.thumb_func
 919              		.fpu softvfp
 920              		.type	iqReadI, %function
 921              	iqReadI:
 922              	.LVL61:
 923              	.LFB407:
 924              		.loc 1 348 59 is_stmt 1 view -0
 925              		.cfi_startproc
 926              		@ args = 0, pretend = 0, frame = 0
 927              		@ frame_needed = 0, uses_anonymous_args = 0
 928              		.loc 1 349 3 view .LVU288
 929              		.loc 1 348 59 is_stmt 0 view .LVU289
 930 0000 70B5     		push	{r4, r5, r6, lr}
 931              		.cfi_def_cfa_offset 16
 932              		.cfi_offset 4, -16
 933              		.cfi_offset 5, -12
 934              		.cfi_offset 6, -8
 935              		.cfi_offset 14, -4
 936              		.loc 1 349 13 view .LVU290
 937 0002 C669     		ldr	r6, [r0, #28]
 938              	.LVL62:
 939              		.loc 1 350 3 is_stmt 1 view .LVU291
 940              		.loc 1 352 23 view .LVU292
 941              		.loc 1 354 3 view .LVU293
 942              		.loc 1 348 59 is_stmt 0 view .LVU294
 943 0004 0546     		mov	r5, r0
 944              		.loc 1 354 8 view .LVU295
 945 0006 FFF7FEFF 		bl	iq_read
 946              	.LVL63:
 947              		.loc 1 358 3 is_stmt 1 view .LVU296
 948              		.loc 1 358 6 is_stmt 0 view .LVU297
 949 000a 0446     		mov	r4, r0
 950 000c 10B1     		cbz	r0, .L56
 951              		.loc 1 358 24 discriminator 1 view .LVU298
 952 000e 0EB1     		cbz	r6, .L56
 953              		.loc 1 359 5 is_stmt 1 view .LVU299
 954 0010 2846     		mov	r0, r5
 955              	.LVL64:
 956              		.loc 1 359 5 is_stmt 0 view .LVU300
 957 0012 B047     		blx	r6
 958              	.LVL65:
 959              		.loc 1 362 3 is_stmt 1 view .LVU301
 960              	.L56:
 961              		.loc 1 363 1 is_stmt 0 view .LVU302
 962 0014 2046     		mov	r0, r4
 963 0016 70BD     		pop	{r4, r5, r6, pc}
 964              		.loc 1 363 1 view .LVU303
 965              		.cfi_endproc
 966              	.LFE407:
 967              		.size	iqReadI, .-iqReadI
 968              		.section	.text.iqReadTimeout,"ax",%progbits
 969              		.align	1
ARM GAS  /tmp/ccDN1f1U.s 			page 18


 970              		.p2align 4,,15
 971              		.global	iqReadTimeout
 972              		.syntax unified
 973              		.thumb
 974              		.thumb_func
 975              		.fpu softvfp
 976              		.type	iqReadTimeout, %function
 977              	iqReadTimeout:
 978              	.LVL66:
 979              	.LFB408:
 980              		.loc 1 390 55 is_stmt 1 view -0
 981              		.cfi_startproc
 982              		@ args = 0, pretend = 0, frame = 8
 983              		@ frame_needed = 0, uses_anonymous_args = 0
 984              		.loc 1 391 3 view .LVU305
 985              		.loc 1 390 55 is_stmt 0 view .LVU306
 986 0000 2DE9F04F 		push	{r4, r5, r6, r7, r8, r9, r10, fp, lr}
 987              		.cfi_def_cfa_offset 36
 988              		.cfi_offset 4, -36
 989              		.cfi_offset 5, -32
 990              		.cfi_offset 6, -28
 991              		.cfi_offset 7, -24
 992              		.cfi_offset 8, -20
 993              		.cfi_offset 9, -16
 994              		.cfi_offset 10, -12
 995              		.cfi_offset 11, -8
 996              		.cfi_offset 14, -4
 997 0004 83B0     		sub	sp, sp, #12
 998              		.cfi_def_cfa_offset 48
 999              		.loc 1 391 13 view .LVU307
 1000 0006 C769     		ldr	r7, [r0, #28]
 1001              	.LVL67:
 1002              		.loc 1 392 3 is_stmt 1 view .LVU308
 1003              		.loc 1 390 55 is_stmt 0 view .LVU309
 1004 0008 0192     		str	r2, [sp, #4]
 1005              	.LVL68:
 1006              		.loc 1 394 3 is_stmt 1 view .LVU310
 1007              		.loc 1 394 3 view .LVU311
 1008              		.loc 1 394 3 view .LVU312
 1009              		.loc 1 396 3 view .LVU313
 1010              	.LBB234:
 1011              	.LBI234:
 1012              		.loc 2 573 20 view .LVU314
 1013              	.LBE234:
 1014              		.loc 2 575 3 view .LVU315
 1015              	.LBB246:
 1016              	.LBB235:
 1017              	.LBI235:
 1018              		.loc 5 407 20 view .LVU316
 1019              	.LBE235:
 1020              	.LBE246:
 1021              		.loc 5 409 3 view .LVU317
 1022              	.LBB247:
 1023              	.LBB243:
 1024              	.LBB236:
 1025              	.LBI236:
 1026              		.loc 6 806 27 view .LVU318
ARM GAS  /tmp/ccDN1f1U.s 			page 19


 1027              	.LBE236:
 1028              	.LBE243:
 1029              	.LBE247:
 1030              		.loc 6 814 3 view .LVU319
 1031              	.LBB248:
 1032              	.LBB244:
 1033              	.LBB241:
 1034              	.LBB237:
 1035              	.LBI237:
 1036              		.loc 7 491 27 view .LVU320
 1037              	.LBB238:
 1038              		.loc 7 493 3 view .LVU321
 1039              	.LBE238:
 1040              	.LBE237:
 1041              	.LBE241:
 1042              	.LBE244:
 1043              	.LBE248:
 1044              		.loc 1 390 55 is_stmt 0 view .LVU322
 1045 000a 9B46     		mov	fp, r3
 1046              	.LBB249:
 1047              	.LBB245:
 1048              	.LBB242:
 1049              	.LBB240:
 1050              	.LBB239:
 1051              		.loc 7 493 3 view .LVU323
 1052 000c 4FF03008 		mov	r8, #48
 1053              		.syntax unified
 1054              	@ 493 "../ChibiOS/os/common/ext/ARM/CMSIS/Core/Include/cmsis_gcc.h" 1
 1055 0010 88F31188 		MSR basepri, r8
 1056              	@ 0 "" 2
 1057              	.LVL69:
 1058              		.loc 7 493 3 view .LVU324
 1059              		.thumb
 1060              		.syntax unified
 1061              	.LBE239:
 1062              	.LBE240:
 1063              	.LBE242:
 1064              	.LBE245:
 1065              	.LBE249:
 1066              		.loc 5 410 35 is_stmt 1 view .LVU325
 1067              		.loc 5 411 21 view .LVU326
 1068              		.loc 1 398 9 view .LVU327
 1069 0014 CAB1     		cbz	r2, .L71
 1070 0016 DDF804A0 		ldr	r10, [sp, #4]
 1071 001a 0546     		mov	r5, r0
 1072 001c 0E46     		mov	r6, r1
 1073              	.LBB250:
 1074              	.LBB251:
 1075              	.LBB252:
 1076              	.LBB253:
 1077              	.LBB254:
 1078              	.LBB255:
 1079              	.LBB256:
 1080              		.loc 7 493 3 is_stmt 0 view .LVU328
 1081 001e 4FF00009 		mov	r9, #0
 1082              	.LVL70:
 1083              	.L66:
ARM GAS  /tmp/ccDN1f1U.s 			page 20


 1084              		.loc 7 493 3 view .LVU329
 1085              	.LBE256:
 1086              	.LBE255:
 1087              	.LBE254:
 1088              	.LBE253:
 1089              	.LBE252:
 1090              	.LBE251:
 1091              		.loc 1 399 5 is_stmt 1 view .LVU330
 1092              		.loc 1 401 5 view .LVU331
 1093              		.loc 1 401 12 is_stmt 0 view .LVU332
 1094 0022 5246     		mov	r2, r10
 1095 0024 3146     		mov	r1, r6
 1096 0026 2846     		mov	r0, r5
 1097 0028 FFF7FEFF 		bl	iq_read
 1098              	.LVL71:
 1099              		.loc 1 413 7 is_stmt 1 view .LVU333
 1100              		.loc 1 414 9 view .LVU334
 1101              		.loc 1 401 12 is_stmt 0 view .LVU335
 1102 002c 0446     		mov	r4, r0
 1103              	.LVL72:
 1104              		.loc 1 402 5 is_stmt 1 view .LVU336
 1105              		.loc 1 414 9 is_stmt 0 view .LVU337
 1106 002e 2846     		mov	r0, r5
 1107              	.LVL73:
 1108              		.loc 1 402 8 view .LVU338
 1109 0030 94B1     		cbz	r4, .L83
 1110              	.LVL74:
 1111              		.loc 1 413 10 view .LVU339
 1112 0032 07B1     		cbz	r7, .L70
 1113              		.loc 1 414 9 view .LVU340
 1114 0034 B847     		blx	r7
 1115              	.LVL75:
 1116              	.L70:
 1117              		.loc 1 418 7 is_stmt 1 view .LVU341
 1118              	.LBB265:
 1119              	.LBI251:
 1120              		.loc 2 584 20 view .LVU342
 1121              	.LBE265:
 1122              	.LBE250:
 1123              		.loc 2 586 3 view .LVU343
 1124              	.LBB282:
 1125              	.LBB266:
 1126              	.LBB263:
 1127              	.LBI252:
 1128              		.loc 5 421 20 view .LVU344
 1129              	.LBB261:
 1130              		.loc 5 423 23 view .LVU345
 1131              		.loc 5 424 34 view .LVU346
 1132              		.loc 5 430 3 view .LVU347
 1133              		.loc 5 430 3 view .LVU348
 1134              		.loc 5 430 3 view .LVU349
 1135              		.loc 5 434 3 view .LVU350
 1136              	.LBB259:
 1137              	.LBI254:
 1138              		.loc 6 830 27 view .LVU351
 1139              	.LBE259:
 1140              	.LBE261:
ARM GAS  /tmp/ccDN1f1U.s 			page 21


 1141              	.LBE263:
 1142              	.LBE266:
 1143              	.LBE282:
 1144              		.loc 6 833 3 view .LVU352
 1145              	.LBB283:
 1146              	.LBB267:
 1147              	.LBB264:
 1148              	.LBB262:
 1149              	.LBB260:
 1150              	.LBB258:
 1151              	.LBI255:
 1152              		.loc 7 491 27 view .LVU353
 1153              	.LBB257:
 1154              		.loc 7 493 3 view .LVU354
 1155              		.syntax unified
 1156              	@ 493 "../ChibiOS/os/common/ext/ARM/CMSIS/Core/Include/cmsis_gcc.h" 1
 1157 0036 89F31188 		MSR basepri, r9
 1158              	@ 0 "" 2
 1159              	.LVL76:
 1160              		.loc 7 493 3 is_stmt 0 view .LVU355
 1161              		.thumb
 1162              		.syntax unified
 1163              	.LBE257:
 1164              	.LBE258:
 1165              	.LBE260:
 1166              	.LBE262:
 1167              	.LBE264:
 1168              	.LBE267:
 1169              		.loc 1 420 7 is_stmt 1 view .LVU356
 1170              		.loc 1 420 10 is_stmt 0 view .LVU357
 1171 003a AAEB040A 		sub	r10, r10, r4
 1172              	.LVL77:
 1173              		.loc 1 421 7 is_stmt 1 view .LVU358
 1174              		.loc 1 421 10 is_stmt 0 view .LVU359
 1175 003e 2644     		add	r6, r6, r4
 1176              	.LVL78:
 1177              		.loc 1 423 7 is_stmt 1 view .LVU360
 1178              	.LBB268:
 1179              	.LBI268:
 1180              		.loc 2 573 20 view .LVU361
 1181              	.LBE268:
 1182              	.LBE283:
 1183              		.loc 2 575 3 view .LVU362
 1184              	.LBB284:
 1185              	.LBB276:
 1186              	.LBB269:
 1187              	.LBI269:
 1188              		.loc 5 407 20 view .LVU363
 1189              	.LBE269:
 1190              	.LBE276:
 1191              	.LBE284:
 1192              		.loc 5 409 3 view .LVU364
 1193              	.LBB285:
 1194              	.LBB277:
 1195              	.LBB274:
 1196              	.LBB270:
 1197              	.LBI270:
ARM GAS  /tmp/ccDN1f1U.s 			page 22


 1198              		.loc 6 806 27 view .LVU365
 1199              	.LBE270:
 1200              	.LBE274:
 1201              	.LBE277:
 1202              	.LBE285:
 1203              		.loc 6 814 3 view .LVU366
 1204              	.LBB286:
 1205              	.LBB278:
 1206              	.LBB275:
 1207              	.LBB273:
 1208              	.LBB271:
 1209              	.LBI271:
 1210              		.loc 7 491 27 view .LVU367
 1211              	.LBB272:
 1212              		.loc 7 493 3 view .LVU368
 1213              		.syntax unified
 1214              	@ 493 "../ChibiOS/os/common/ext/ARM/CMSIS/Core/Include/cmsis_gcc.h" 1
 1215 0040 88F31188 		MSR basepri, r8
 1216              	@ 0 "" 2
 1217              	.LVL79:
 1218              		.loc 7 493 3 is_stmt 0 view .LVU369
 1219              		.thumb
 1220              		.syntax unified
 1221              	.LBE272:
 1222              	.LBE271:
 1223              	.LBE273:
 1224              	.LBE275:
 1225              	.LBE278:
 1226              	.LBE286:
 1227              		.loc 5 410 35 is_stmt 1 view .LVU370
 1228              		.loc 5 411 21 view .LVU371
 1229              		.loc 1 398 9 view .LVU372
 1230 0044 BAF1000F 		cmp	r10, #0
 1231 0048 EBD1     		bne	.L66
 1232              	.LVL80:
 1233              	.L71:
 1234              		.loc 1 398 9 is_stmt 0 view .LVU373
 1235 004a 0198     		ldr	r0, [sp, #4]
 1236              		.loc 1 427 3 is_stmt 1 view .LVU374
 1237              	.LBB287:
 1238              	.LBI287:
 1239              		.loc 2 584 20 view .LVU375
 1240              	.LBE287:
 1241              		.loc 2 586 3 view .LVU376
 1242              	.LBB304:
 1243              	.LBB288:
 1244              	.LBI288:
 1245              		.loc 5 421 20 view .LVU377
 1246              	.LBB289:
 1247              		.loc 5 423 23 view .LVU378
 1248              		.loc 5 424 34 view .LVU379
 1249              		.loc 5 430 3 view .LVU380
 1250              		.loc 5 430 3 view .LVU381
 1251              		.loc 5 430 3 view .LVU382
 1252              		.loc 5 434 3 view .LVU383
 1253              	.LBB290:
 1254              	.LBI290:
ARM GAS  /tmp/ccDN1f1U.s 			page 23


 1255              		.loc 6 830 27 view .LVU384
 1256              	.LBE290:
 1257              	.LBE289:
 1258              	.LBE288:
 1259              	.LBE304:
 1260              		.loc 6 833 3 view .LVU385
 1261              	.LVL81:
 1262              	.LBB305:
 1263              	.LBB301:
 1264              	.LBB298:
 1265              	.LBB295:
 1266              	.LBB291:
 1267              	.LBI291:
 1268              		.loc 7 491 27 view .LVU386
 1269              	.LBB292:
 1270              		.loc 7 493 3 view .LVU387
 1271 004c 0023     		movs	r3, #0
 1272              		.syntax unified
 1273              	@ 493 "../ChibiOS/os/common/ext/ARM/CMSIS/Core/Include/cmsis_gcc.h" 1
 1274 004e 83F31188 		MSR basepri, r3
 1275              	@ 0 "" 2
 1276              	.LVL82:
 1277              		.loc 7 493 3 is_stmt 0 view .LVU388
 1278              		.thumb
 1279              		.syntax unified
 1280              	.LBE292:
 1281              	.LBE291:
 1282              	.LBE295:
 1283              	.LBE298:
 1284              	.LBE301:
 1285              	.LBE305:
 1286              		.loc 1 428 3 is_stmt 1 view .LVU389
 1287              		.loc 1 429 1 is_stmt 0 view .LVU390
 1288 0052 03B0     		add	sp, sp, #12
 1289              		.cfi_remember_state
 1290              		.cfi_def_cfa_offset 36
 1291              		@ sp needed
 1292 0054 BDE8F08F 		pop	{r4, r5, r6, r7, r8, r9, r10, fp, pc}
 1293              	.LVL83:
 1294              	.L83:
 1295              		.cfi_restore_state
 1296              	.LBB306:
 1297              	.LBB279:
 1298              		.loc 1 403 7 is_stmt 1 view .LVU391
 1299              	.LBB280:
 1300              	.LBI280:
 1301              		.loc 2 892 21 view .LVU392
 1302              	.LBB281:
 1303              		.loc 2 895 3 view .LVU393
 1304              		.loc 2 895 10 is_stmt 0 view .LVU394
 1305 0058 5946     		mov	r1, fp
 1306 005a FFF7FEFF 		bl	chThdEnqueueTimeoutS
 1307              	.LVL84:
 1308              		.loc 2 895 10 view .LVU395
 1309              	.LBE281:
 1310              	.LBE280:
 1311              		.loc 1 406 7 is_stmt 1 view .LVU396
ARM GAS  /tmp/ccDN1f1U.s 			page 24


 1312              		.loc 1 406 10 is_stmt 0 view .LVU397
 1313 005e 0028     		cmp	r0, #0
 1314 0060 DFD0     		beq	.L66
 1315              	.LBE279:
 1316              	.LBE306:
 1317              		.loc 1 428 14 view .LVU398
 1318 0062 019B     		ldr	r3, [sp, #4]
 1319 0064 A3EB0A00 		sub	r0, r3, r10
 1320              	.LVL85:
 1321              		.loc 1 427 3 is_stmt 1 view .LVU399
 1322              	.LBB307:
 1323              		.loc 2 584 20 view .LVU400
 1324              	.LBE307:
 1325              		.loc 2 586 3 view .LVU401
 1326              	.LBB308:
 1327              	.LBB302:
 1328              		.loc 5 421 20 view .LVU402
 1329              	.LBB299:
 1330              		.loc 5 423 23 view .LVU403
 1331              		.loc 5 424 34 view .LVU404
 1332              		.loc 5 430 3 view .LVU405
 1333              		.loc 5 430 3 view .LVU406
 1334              		.loc 5 430 3 view .LVU407
 1335              		.loc 5 434 3 view .LVU408
 1336              	.LBB296:
 1337              		.loc 6 830 27 view .LVU409
 1338              	.LBE296:
 1339              	.LBE299:
 1340              	.LBE302:
 1341              	.LBE308:
 1342              		.loc 6 833 3 view .LVU410
 1343              	.LBB309:
 1344              	.LBB303:
 1345              	.LBB300:
 1346              	.LBB297:
 1347              	.LBB294:
 1348              		.loc 7 491 27 view .LVU411
 1349              	.LBB293:
 1350              		.loc 7 493 3 view .LVU412
 1351 0068 0023     		movs	r3, #0
 1352              		.syntax unified
 1353              	@ 493 "../ChibiOS/os/common/ext/ARM/CMSIS/Core/Include/cmsis_gcc.h" 1
 1354 006a 83F31188 		MSR basepri, r3
 1355              	@ 0 "" 2
 1356              	.LVL86:
 1357              		.loc 7 493 3 is_stmt 0 view .LVU413
 1358              		.thumb
 1359              		.syntax unified
 1360              	.LBE293:
 1361              	.LBE294:
 1362              	.LBE297:
 1363              	.LBE300:
 1364              	.LBE303:
 1365              	.LBE309:
 1366              		.loc 1 428 3 is_stmt 1 view .LVU414
 1367              		.loc 1 429 1 is_stmt 0 view .LVU415
 1368 006e 03B0     		add	sp, sp, #12
ARM GAS  /tmp/ccDN1f1U.s 			page 25


 1369              		.cfi_def_cfa_offset 36
 1370              		@ sp needed
 1371 0070 BDE8F08F 		pop	{r4, r5, r6, r7, r8, r9, r10, fp, pc}
 1372              		.loc 1 429 1 view .LVU416
 1373              		.cfi_endproc
 1374              	.LFE408:
 1375              		.size	iqReadTimeout, .-iqReadTimeout
 1376              		.section	.text.oqObjectInit,"ax",%progbits
 1377              		.align	1
 1378              		.p2align 4,,15
 1379              		.global	oqObjectInit
 1380              		.syntax unified
 1381              		.thumb
 1382              		.thumb_func
 1383              		.fpu softvfp
 1384              		.type	oqObjectInit, %function
 1385              	oqObjectInit:
 1386              	.LVL87:
 1387              	.LFB409:
 1388              		.loc 1 447 47 is_stmt 1 view -0
 1389              		.cfi_startproc
 1390              		@ args = 4, pretend = 0, frame = 0
 1391              		@ frame_needed = 0, uses_anonymous_args = 0
 1392              		@ link register save eliminated.
 1393              		.loc 1 449 3 view .LVU418
 1394              	.LBB310:
 1395              	.LBI310:
 1396              		.loc 2 864 20 view .LVU419
 1397              	.LBE310:
 1398              		.loc 2 866 3 view .LVU420
 1399              	.LBB319:
 1400              	.LBB311:
 1401              	.LBI311:
 1402              		.loc 3 461 20 view .LVU421
 1403              	.LBB312:
 1404              		.loc 3 463 3 view .LVU422
 1405              	.LBB313:
 1406              	.LBI313:
 1407              		.loc 4 222 20 view .LVU423
 1408              	.LBB314:
 1409              		.loc 4 224 3 view .LVU424
 1410              	.LBE314:
 1411              	.LBE313:
 1412              	.LBE312:
 1413              	.LBE311:
 1414              	.LBE319:
 1415              		.loc 1 456 18 is_stmt 0 view .LVU425
 1416 0000 DDF800C0 		ldr	ip, [sp]
 1417              		.loc 1 450 18 view .LVU426
 1418 0004 8260     		str	r2, [r0, #8]
 1419              		.loc 1 454 23 view .LVU427
 1420 0006 0A44     		add	r2, r2, r1
 1421              	.LVL88:
 1422              		.loc 1 455 18 view .LVU428
 1423 0008 C0E9073C 		strd	r3, ip, [r0, #28]
 1424              	.LBB320:
 1425              	.LBB318:
ARM GAS  /tmp/ccDN1f1U.s 			page 26


 1426              	.LBB317:
 1427              	.LBB316:
 1428              	.LBB315:
 1429              		.loc 4 225 12 view .LVU429
 1430 000c C0E90000 		strd	r0, r0, [r0]
 1431              	.LVL89:
 1432              		.loc 4 225 12 view .LVU430
 1433              	.LBE315:
 1434              	.LBE316:
 1435              	.LBE317:
 1436              	.LBE318:
 1437              	.LBE320:
 1438              		.loc 1 450 3 is_stmt 1 view .LVU431
 1439              		.loc 1 451 3 view .LVU432
 1440              		.loc 1 451 18 is_stmt 0 view .LVU433
 1441 0010 C0E90312 		strd	r1, r2, [r0, #12]
 1442              		.loc 1 452 3 is_stmt 1 view .LVU434
 1443              		.loc 1 453 18 is_stmt 0 view .LVU435
 1444 0014 C0E90511 		strd	r1, r1, [r0, #20]
 1445              		.loc 1 454 3 is_stmt 1 view .LVU436
 1446              		.loc 1 455 3 view .LVU437
 1447              		.loc 1 456 3 view .LVU438
 1448              		.loc 1 457 1 is_stmt 0 view .LVU439
 1449 0018 7047     		bx	lr
 1450              		.cfi_endproc
 1451              	.LFE409:
 1452              		.size	oqObjectInit, .-oqObjectInit
 1453 001a 00BF     		.section	.text.oqResetI,"ax",%progbits
 1454              		.align	1
 1455              		.p2align 4,,15
 1456              		.global	oqResetI
 1457              		.syntax unified
 1458              		.thumb
 1459              		.thumb_func
 1460              		.fpu softvfp
 1461              		.type	oqResetI, %function
 1462              	oqResetI:
 1463              	.LVL90:
 1464              	.LFB410:
 1465              		.loc 1 470 36 is_stmt 1 view -0
 1466              		.cfi_startproc
 1467              		@ args = 0, pretend = 0, frame = 0
 1468              		@ frame_needed = 0, uses_anonymous_args = 0
 1469              		@ link register save eliminated.
 1470              		.loc 1 472 23 view .LVU441
 1471              		.loc 1 474 3 view .LVU442
 1472              		.loc 1 470 36 is_stmt 0 view .LVU443
 1473 0000 10B4     		push	{r4}
 1474              		.cfi_def_cfa_offset 4
 1475              		.cfi_offset 4, -4
 1476              		.loc 1 476 20 view .LVU444
 1477 0002 D0E90342 		ldrd	r4, r2, [r0, #12]
 1478 0006 121B     		subs	r2, r2, r4
 1479              		.loc 1 474 16 view .LVU445
 1480 0008 8461     		str	r4, [r0, #24]
 1481              		.loc 1 475 3 is_stmt 1 view .LVU446
 1482              		.loc 1 475 16 is_stmt 0 view .LVU447
ARM GAS  /tmp/ccDN1f1U.s 			page 27


 1483 000a 4461     		str	r4, [r0, #20]
 1484              		.loc 1 476 3 is_stmt 1 view .LVU448
 1485              	.LBB321:
 1486              	.LBB322:
 1487              		.loc 2 921 3 is_stmt 0 view .LVU449
 1488 000c 6FF00101 		mvn	r1, #1
 1489              	.LBE322:
 1490              	.LBE321:
 1491              		.loc 1 478 1 view .LVU450
 1492 0010 10BC     		pop	{r4}
 1493              		.cfi_restore 4
 1494              		.cfi_def_cfa_offset 0
 1495              		.loc 1 476 18 view .LVU451
 1496 0012 8260     		str	r2, [r0, #8]
 1497              		.loc 1 477 3 is_stmt 1 view .LVU452
 1498              	.LVL91:
 1499              	.LBB324:
 1500              	.LBI321:
 1501              		.loc 2 919 20 view .LVU453
 1502              	.LBB323:
 1503              		.loc 2 921 3 view .LVU454
 1504 0014 FFF7FEBF 		b	chThdDequeueAllI
 1505              	.LVL92:
 1506              		.loc 2 921 3 is_stmt 0 view .LVU455
 1507              	.LBE323:
 1508              	.LBE324:
 1509              		.cfi_endproc
 1510              	.LFE410:
 1511              		.size	oqResetI, .-oqResetI
 1512              		.section	.text.oqPutI,"ax",%progbits
 1513              		.align	1
 1514              		.p2align 4,,15
 1515              		.global	oqPutI
 1516              		.syntax unified
 1517              		.thumb
 1518              		.thumb_func
 1519              		.fpu softvfp
 1520              		.type	oqPutI, %function
 1521              	oqPutI:
 1522              	.LVL93:
 1523              	.LFB411:
 1524              		.loc 1 494 46 is_stmt 1 view -0
 1525              		.cfi_startproc
 1526              		@ args = 0, pretend = 0, frame = 0
 1527              		@ frame_needed = 0, uses_anonymous_args = 0
 1528              		.loc 1 496 23 view .LVU457
 1529              		.loc 1 499 3 view .LVU458
 1530              		.loc 1 499 9 view .LVU459
 1531              		.loc 1 499 11 is_stmt 0 view .LVU460
 1532 0000 8368     		ldr	r3, [r0, #8]
 1533              		.loc 1 499 9 view .LVU461
 1534 0002 A3B1     		cbz	r3, .L90
 1535              		.loc 1 501 5 is_stmt 1 view .LVU462
 1536              		.loc 1 502 9 is_stmt 0 view .LVU463
 1537 0004 4269     		ldr	r2, [r0, #20]
 1538              		.loc 1 501 8 view .LVU464
 1539 0006 8368     		ldr	r3, [r0, #8]
ARM GAS  /tmp/ccDN1f1U.s 			page 28


 1540              		.loc 1 494 46 view .LVU465
 1541 0008 10B5     		push	{r4, lr}
 1542              		.cfi_def_cfa_offset 8
 1543              		.cfi_offset 4, -8
 1544              		.cfi_offset 14, -4
 1545              		.loc 1 501 19 view .LVU466
 1546 000a 013B     		subs	r3, r3, #1
 1547              		.loc 1 502 18 view .LVU467
 1548 000c 541C     		adds	r4, r2, #1
 1549 000e 4461     		str	r4, [r0, #20]
 1550              		.loc 1 501 19 view .LVU468
 1551 0010 8360     		str	r3, [r0, #8]
 1552              		.loc 1 502 5 is_stmt 1 view .LVU469
 1553              		.loc 1 502 21 is_stmt 0 view .LVU470
 1554 0012 1170     		strb	r1, [r2]
 1555              		.loc 1 503 5 is_stmt 1 view .LVU471
 1556              		.loc 1 503 8 is_stmt 0 view .LVU472
 1557 0014 D0E90432 		ldrd	r3, r2, [r0, #16]
 1558 0018 9A42     		cmp	r2, r3
 1559              		.loc 1 504 7 is_stmt 1 view .LVU473
 1560              		.loc 1 508 5 view .LVU474
 1561              		.loc 1 504 20 is_stmt 0 view .LVU475
 1562 001a 24BF     		itt	cs
 1563 001c C368     		ldrcs	r3, [r0, #12]
 1564 001e 4361     		strcs	r3, [r0, #20]
 1565              		.loc 1 508 12 view .LVU476
 1566 0020 C369     		ldr	r3, [r0, #28]
 1567              		.loc 1 508 8 view .LVU477
 1568 0022 13B1     		cbz	r3, .L91
 1569              		.loc 1 509 7 is_stmt 1 view .LVU478
 1570 0024 9847     		blx	r3
 1571              	.LVL94:
 1572              		.loc 1 512 12 is_stmt 0 view .LVU479
 1573 0026 0020     		movs	r0, #0
 1574              		.loc 1 516 1 view .LVU480
 1575 0028 10BD     		pop	{r4, pc}
 1576              	.LVL95:
 1577              	.L91:
 1578              		.loc 1 512 12 view .LVU481
 1579 002a 1846     		mov	r0, r3
 1580              	.LVL96:
 1581              		.loc 1 516 1 view .LVU482
 1582 002c 10BD     		pop	{r4, pc}
 1583              	.LVL97:
 1584              	.L90:
 1585              		.cfi_def_cfa_offset 0
 1586              		.cfi_restore 4
 1587              		.cfi_restore 14
 1588              		.loc 1 515 10 view .LVU483
 1589 002e 4FF0FF30 		mov	r0, #-1
 1590              	.LVL98:
 1591              		.loc 1 516 1 view .LVU484
 1592 0032 7047     		bx	lr
 1593              		.cfi_endproc
 1594              	.LFE411:
 1595              		.size	oqPutI, .-oqPutI
 1596              		.section	.text.oqPutTimeout,"ax",%progbits
ARM GAS  /tmp/ccDN1f1U.s 			page 29


 1597              		.align	1
 1598              		.p2align 4,,15
 1599              		.global	oqPutTimeout
 1600              		.syntax unified
 1601              		.thumb
 1602              		.thumb_func
 1603              		.fpu softvfp
 1604              		.type	oqPutTimeout, %function
 1605              	oqPutTimeout:
 1606              	.LVL99:
 1607              	.LFB412:
 1608              		.loc 1 540 75 is_stmt 1 view -0
 1609              		.cfi_startproc
 1610              		@ args = 0, pretend = 0, frame = 0
 1611              		@ frame_needed = 0, uses_anonymous_args = 0
 1612              		.loc 1 542 3 view .LVU486
 1613              	.LBB325:
 1614              	.LBI325:
 1615              		.loc 2 573 20 view .LVU487
 1616              	.LBB326:
 1617              		.loc 2 575 3 view .LVU488
 1618              	.LBB327:
 1619              	.LBI327:
 1620              		.loc 5 407 20 view .LVU489
 1621              	.LBE327:
 1622              	.LBE326:
 1623              	.LBE325:
 1624              		.loc 5 409 3 view .LVU490
 1625              	.LBB342:
 1626              	.LBB338:
 1627              	.LBB335:
 1628              	.LBB328:
 1629              	.LBI328:
 1630              		.loc 6 806 27 view .LVU491
 1631              	.LBE328:
 1632              	.LBE335:
 1633              	.LBE338:
 1634              	.LBE342:
 1635              		.loc 6 814 3 view .LVU492
 1636              	.LBB343:
 1637              	.LBB339:
 1638              	.LBB336:
 1639              	.LBB333:
 1640              	.LBB329:
 1641              	.LBI329:
 1642              		.loc 7 491 27 view .LVU493
 1643              	.LBB330:
 1644              		.loc 7 493 3 view .LVU494
 1645              	.LBE330:
 1646              	.LBE329:
 1647              	.LBE333:
 1648              	.LBE336:
 1649              	.LBE339:
 1650              	.LBE343:
 1651              		.loc 1 540 75 is_stmt 0 view .LVU495
 1652 0000 F8B5     		push	{r3, r4, r5, r6, r7, lr}
 1653              		.cfi_def_cfa_offset 24
ARM GAS  /tmp/ccDN1f1U.s 			page 30


 1654              		.cfi_offset 3, -24
 1655              		.cfi_offset 4, -20
 1656              		.cfi_offset 5, -16
 1657              		.cfi_offset 6, -12
 1658              		.cfi_offset 7, -8
 1659              		.cfi_offset 14, -4
 1660              		.loc 1 540 75 view .LVU496
 1661 0002 0446     		mov	r4, r0
 1662 0004 0F46     		mov	r7, r1
 1663 0006 1646     		mov	r6, r2
 1664              	.LBB344:
 1665              	.LBB340:
 1666              	.LBB337:
 1667              	.LBB334:
 1668              	.LBB332:
 1669              	.LBB331:
 1670              		.loc 7 493 3 view .LVU497
 1671 0008 3023     		movs	r3, #48
 1672              		.syntax unified
 1673              	@ 493 "../ChibiOS/os/common/ext/ARM/CMSIS/Core/Include/cmsis_gcc.h" 1
 1674 000a 83F31188 		MSR basepri, r3
 1675              	@ 0 "" 2
 1676              	.LVL100:
 1677              		.loc 7 493 3 view .LVU498
 1678              		.thumb
 1679              		.syntax unified
 1680              	.LBE331:
 1681              	.LBE332:
 1682              	.LBE334:
 1683              	.LBE337:
 1684              	.LBE340:
 1685              	.LBE344:
 1686              		.loc 5 410 35 is_stmt 1 view .LVU499
 1687              		.loc 5 411 21 view .LVU500
 1688              	.LBB345:
 1689              	.LBB341:
 1690              		.loc 2 576 1 is_stmt 0 view .LVU501
 1691 000e 03E0     		b	.L97
 1692              	.LVL101:
 1693              	.L99:
 1694              		.loc 2 576 1 view .LVU502
 1695              	.LBE341:
 1696              	.LBE345:
 1697              	.LBB346:
 1698              	.LBB347:
 1699              	.LBB348:
 1700              		.loc 2 895 10 view .LVU503
 1701 0010 FFF7FEFF 		bl	chThdEnqueueTimeoutS
 1702              	.LVL102:
 1703              		.loc 2 895 10 view .LVU504
 1704              	.LBE348:
 1705              	.LBE347:
 1706              		.loc 1 547 5 is_stmt 1 view .LVU505
 1707              		.loc 1 547 8 is_stmt 0 view .LVU506
 1708 0014 0028     		cmp	r0, #0
 1709              		.loc 1 547 8 view .LVU507
 1710 0016 18DB     		blt	.L107
ARM GAS  /tmp/ccDN1f1U.s 			page 31


 1711              	.LVL103:
 1712              	.L97:
 1713              		.loc 1 546 5 is_stmt 1 view .LVU508
 1714              	.LBB351:
 1715              	.LBI347:
 1716              		.loc 2 892 21 view .LVU509
 1717              	.LBB349:
 1718              		.loc 2 895 3 view .LVU510
 1719              	.LBE349:
 1720              	.LBE351:
 1721              	.LBE346:
 1722              		.loc 1 545 9 view .LVU511
 1723              		.loc 1 545 10 is_stmt 0 view .LVU512
 1724 0018 A568     		ldr	r5, [r4, #8]
 1725              	.LBB364:
 1726              	.LBB352:
 1727              	.LBB350:
 1728              		.loc 2 895 10 view .LVU513
 1729 001a 3146     		mov	r1, r6
 1730 001c 2046     		mov	r0, r4
 1731              	.LBE350:
 1732              	.LBE352:
 1733              	.LBE364:
 1734              		.loc 1 545 9 view .LVU514
 1735 001e 002D     		cmp	r5, #0
 1736 0020 F6D0     		beq	.L99
 1737              	.LVL104:
 1738              		.loc 1 554 3 is_stmt 1 view .LVU515
 1739              		.loc 1 555 7 is_stmt 0 view .LVU516
 1740 0022 6269     		ldr	r2, [r4, #20]
 1741              		.loc 1 554 6 view .LVU517
 1742 0024 A368     		ldr	r3, [r4, #8]
 1743              		.loc 1 555 16 view .LVU518
 1744 0026 511C     		adds	r1, r2, #1
 1745              	.LVL105:
 1746              		.loc 1 554 17 view .LVU519
 1747 0028 013B     		subs	r3, r3, #1
 1748              		.loc 1 555 16 view .LVU520
 1749 002a 6161     		str	r1, [r4, #20]
 1750              		.loc 1 554 17 view .LVU521
 1751 002c A360     		str	r3, [r4, #8]
 1752              		.loc 1 555 3 is_stmt 1 view .LVU522
 1753              		.loc 1 555 19 is_stmt 0 view .LVU523
 1754 002e 1770     		strb	r7, [r2]
 1755              		.loc 1 556 3 is_stmt 1 view .LVU524
 1756              		.loc 1 556 6 is_stmt 0 view .LVU525
 1757 0030 D4E90432 		ldrd	r3, r2, [r4, #16]
 1758 0034 9A42     		cmp	r2, r3
 1759              		.loc 1 557 5 is_stmt 1 view .LVU526
 1760              		.loc 1 561 3 view .LVU527
 1761              		.loc 1 557 18 is_stmt 0 view .LVU528
 1762 0036 24BF     		itt	cs
 1763 0038 E368     		ldrcs	r3, [r4, #12]
 1764 003a 6361     		strcs	r3, [r4, #20]
 1765              		.loc 1 561 10 view .LVU529
 1766 003c E369     		ldr	r3, [r4, #28]
 1767              		.loc 1 561 6 view .LVU530
ARM GAS  /tmp/ccDN1f1U.s 			page 32


 1768 003e 03B1     		cbz	r3, .L101
 1769              		.loc 1 562 5 is_stmt 1 view .LVU531
 1770 0040 9847     		blx	r3
 1771              	.LVL106:
 1772              	.L101:
 1773              		.loc 1 565 3 view .LVU532
 1774              	.LBB365:
 1775              	.LBI365:
 1776              		.loc 2 584 20 view .LVU533
 1777              	.LBE365:
 1778              		.loc 2 586 3 view .LVU534
 1779              	.LBB374:
 1780              	.LBB366:
 1781              	.LBI366:
 1782              		.loc 5 421 20 view .LVU535
 1783              	.LBB367:
 1784              		.loc 5 423 23 view .LVU536
 1785              		.loc 5 424 34 view .LVU537
 1786              		.loc 5 430 3 view .LVU538
 1787              		.loc 5 430 3 view .LVU539
 1788              		.loc 5 430 3 view .LVU540
 1789              		.loc 5 434 3 view .LVU541
 1790              	.LBB368:
 1791              	.LBI368:
 1792              		.loc 6 830 27 view .LVU542
 1793              	.LBE368:
 1794              	.LBE367:
 1795              	.LBE366:
 1796              	.LBE374:
 1797              		.loc 6 833 3 view .LVU543
 1798              	.LBB375:
 1799              	.LBB373:
 1800              	.LBB372:
 1801              	.LBB371:
 1802              	.LBB369:
 1803              	.LBI369:
 1804              		.loc 7 491 27 view .LVU544
 1805              	.LBB370:
 1806              		.loc 7 493 3 view .LVU545
 1807 0042 0020     		movs	r0, #0
 1808              		.syntax unified
 1809              	@ 493 "../ChibiOS/os/common/ext/ARM/CMSIS/Core/Include/cmsis_gcc.h" 1
 1810 0044 80F31188 		MSR basepri, r0
 1811              	@ 0 "" 2
 1812              	.LVL107:
 1813              		.loc 7 493 3 is_stmt 0 view .LVU546
 1814              		.thumb
 1815              		.syntax unified
 1816              	.LBE370:
 1817              	.LBE369:
 1818              	.LBE371:
 1819              	.LBE372:
 1820              	.LBE373:
 1821              	.LBE375:
 1822              		.loc 1 567 3 is_stmt 1 view .LVU547
 1823              		.loc 1 568 1 is_stmt 0 view .LVU548
 1824 0048 F8BD     		pop	{r3, r4, r5, r6, r7, pc}
ARM GAS  /tmp/ccDN1f1U.s 			page 33


 1825              	.LVL108:
 1826              	.L107:
 1827              	.LBB376:
 1828              		.loc 1 548 7 is_stmt 1 view .LVU549
 1829              	.LBB353:
 1830              	.LBI353:
 1831              		.loc 2 584 20 view .LVU550
 1832              	.LBE353:
 1833              	.LBE376:
 1834              		.loc 2 586 3 view .LVU551
 1835              	.LBB377:
 1836              	.LBB362:
 1837              	.LBB354:
 1838              	.LBI354:
 1839              		.loc 5 421 20 view .LVU552
 1840              	.LBB355:
 1841              		.loc 5 423 23 view .LVU553
 1842              		.loc 5 424 34 view .LVU554
 1843              		.loc 5 430 3 view .LVU555
 1844              		.loc 5 430 3 view .LVU556
 1845              		.loc 5 430 3 view .LVU557
 1846              		.loc 5 434 3 view .LVU558
 1847              	.LBB356:
 1848              	.LBI356:
 1849              		.loc 6 830 27 view .LVU559
 1850              	.LBE356:
 1851              	.LBE355:
 1852              	.LBE354:
 1853              	.LBE362:
 1854              	.LBE377:
 1855              		.loc 6 833 3 view .LVU560
 1856              	.LBB378:
 1857              	.LBB363:
 1858              	.LBB361:
 1859              	.LBB360:
 1860              	.LBB359:
 1861              	.LBB357:
 1862              	.LBI357:
 1863              		.loc 7 491 27 view .LVU561
 1864              	.LBB358:
 1865              		.loc 7 493 3 view .LVU562
 1866              		.syntax unified
 1867              	@ 493 "../ChibiOS/os/common/ext/ARM/CMSIS/Core/Include/cmsis_gcc.h" 1
 1868 004a 85F31188 		MSR basepri, r5
 1869              	@ 0 "" 2
 1870              	.LVL109:
 1871              		.loc 7 493 3 is_stmt 0 view .LVU563
 1872              		.thumb
 1873              		.syntax unified
 1874              	.LBE358:
 1875              	.LBE357:
 1876              	.LBE359:
 1877              	.LBE360:
 1878              	.LBE361:
 1879              	.LBE363:
 1880              		.loc 1 549 7 is_stmt 1 view .LVU564
 1881              	.LBE378:
ARM GAS  /tmp/ccDN1f1U.s 			page 34


 1882              		.loc 1 568 1 is_stmt 0 view .LVU565
 1883 004e F8BD     		pop	{r3, r4, r5, r6, r7, pc}
 1884              		.loc 1 568 1 view .LVU566
 1885              		.cfi_endproc
 1886              	.LFE412:
 1887              		.size	oqPutTimeout, .-oqPutTimeout
 1888              		.section	.text.oqGetI,"ax",%progbits
 1889              		.align	1
 1890              		.p2align 4,,15
 1891              		.global	oqGetI
 1892              		.syntax unified
 1893              		.thumb
 1894              		.thumb_func
 1895              		.fpu softvfp
 1896              		.type	oqGetI, %function
 1897              	oqGetI:
 1898              	.LVL110:
 1899              	.LFB413:
 1900              		.loc 1 581 35 is_stmt 1 view -0
 1901              		.cfi_startproc
 1902              		@ args = 0, pretend = 0, frame = 0
 1903              		@ frame_needed = 0, uses_anonymous_args = 0
 1904              		.loc 1 583 23 view .LVU568
 1905              		.loc 1 586 3 view .LVU569
 1906              		.loc 1 586 8 is_stmt 0 view .LVU570
 1907 0000 D0E90523 		ldrd	r2, r3, [r0, #20]
 1908 0004 9A42     		cmp	r2, r3
 1909 0006 10D0     		beq	.L117
 1910              	.L109:
 1911              	.LBB379:
 1912              		.loc 1 587 5 is_stmt 1 view .LVU571
 1913              		.loc 1 589 5 view .LVU572
 1914              	.LBE379:
 1915              		.loc 1 581 35 is_stmt 0 view .LVU573
 1916 0008 10B5     		push	{r4, lr}
 1917              		.cfi_def_cfa_offset 8
 1918              		.cfi_offset 4, -8
 1919              		.cfi_offset 14, -4
 1920              	.LBB382:
 1921              		.loc 1 589 8 view .LVU574
 1922 000a 8268     		ldr	r2, [r0, #8]
 1923              		.loc 1 590 22 view .LVU575
 1924 000c 591C     		adds	r1, r3, #1
 1925              		.loc 1 589 19 view .LVU576
 1926 000e 0132     		adds	r2, r2, #1
 1927 0010 8260     		str	r2, [r0, #8]
 1928              		.loc 1 590 5 is_stmt 1 view .LVU577
 1929              		.loc 1 590 22 is_stmt 0 view .LVU578
 1930 0012 8161     		str	r1, [r0, #24]
 1931              		.loc 1 590 7 view .LVU579
 1932 0014 1C78     		ldrb	r4, [r3]	@ zero_extendqisi2
 1933              	.LVL111:
 1934              		.loc 1 591 5 is_stmt 1 view .LVU580
 1935              		.loc 1 591 8 is_stmt 0 view .LVU581
 1936 0016 0369     		ldr	r3, [r0, #16]
 1937 0018 9942     		cmp	r1, r3
 1938 001a 01D3     		bcc	.L112
ARM GAS  /tmp/ccDN1f1U.s 			page 35


 1939              		.loc 1 592 7 is_stmt 1 view .LVU582
 1940              		.loc 1 592 20 is_stmt 0 view .LVU583
 1941 001c C368     		ldr	r3, [r0, #12]
 1942 001e 8361     		str	r3, [r0, #24]
 1943              	.L112:
 1944              		.loc 1 595 5 is_stmt 1 view .LVU584
 1945              	.LVL112:
 1946              	.LBB380:
 1947              	.LBI380:
 1948              		.loc 2 906 20 view .LVU585
 1949              	.LBB381:
 1950              		.loc 2 908 3 view .LVU586
 1951 0020 0021     		movs	r1, #0
 1952 0022 FFF7FEFF 		bl	chThdDequeueNextI
 1953              	.LVL113:
 1954              		.loc 2 908 3 is_stmt 0 view .LVU587
 1955              	.LBE381:
 1956              	.LBE380:
 1957              		.loc 1 597 5 is_stmt 1 view .LVU588
 1958              		.loc 1 597 12 is_stmt 0 view .LVU589
 1959 0026 2046     		mov	r0, r4
 1960              	.LBE382:
 1961              		.loc 1 601 1 view .LVU590
 1962 0028 10BD     		pop	{r4, pc}
 1963              	.LVL114:
 1964              	.L117:
 1965              		.cfi_def_cfa_offset 0
 1966              		.cfi_restore 4
 1967              		.cfi_restore 14
 1968              		.loc 1 586 8 discriminator 1 view .LVU591
 1969 002a 8268     		ldr	r2, [r0, #8]
 1970 002c 002A     		cmp	r2, #0
 1971 002e EBD0     		beq	.L109
 1972              		.loc 1 600 10 view .LVU592
 1973 0030 4FF0FF30 		mov	r0, #-1
 1974              	.LVL115:
 1975              		.loc 1 601 1 view .LVU593
 1976 0034 7047     		bx	lr
 1977              		.cfi_endproc
 1978              	.LFE413:
 1979              		.size	oqGetI, .-oqGetI
 1980 0036 00BF     		.section	.text.oqWriteI,"ax",%progbits
 1981              		.align	1
 1982              		.p2align 4,,15
 1983              		.global	oqWriteI
 1984              		.syntax unified
 1985              		.thumb
 1986              		.thumb_func
 1987              		.fpu softvfp
 1988              		.type	oqWriteI, %function
 1989              	oqWriteI:
 1990              	.LVL116:
 1991              	.LFB414:
 1992              		.loc 1 616 67 is_stmt 1 view -0
 1993              		.cfi_startproc
 1994              		@ args = 0, pretend = 0, frame = 0
 1995              		@ frame_needed = 0, uses_anonymous_args = 0
ARM GAS  /tmp/ccDN1f1U.s 			page 36


 1996              		.loc 1 617 3 view .LVU595
 1997              		.loc 1 616 67 is_stmt 0 view .LVU596
 1998 0000 70B5     		push	{r4, r5, r6, lr}
 1999              		.cfi_def_cfa_offset 16
 2000              		.cfi_offset 4, -16
 2001              		.cfi_offset 5, -12
 2002              		.cfi_offset 6, -8
 2003              		.cfi_offset 14, -4
 2004              		.loc 1 617 13 view .LVU597
 2005 0002 C669     		ldr	r6, [r0, #28]
 2006              	.LVL117:
 2007              		.loc 1 618 3 is_stmt 1 view .LVU598
 2008              		.loc 1 620 23 view .LVU599
 2009              		.loc 1 622 3 view .LVU600
 2010              		.loc 1 616 67 is_stmt 0 view .LVU601
 2011 0004 0546     		mov	r5, r0
 2012              		.loc 1 622 8 view .LVU602
 2013 0006 FFF7FEFF 		bl	oq_write
 2014              	.LVL118:
 2015              		.loc 1 626 3 is_stmt 1 view .LVU603
 2016              		.loc 1 626 6 is_stmt 0 view .LVU604
 2017 000a 0446     		mov	r4, r0
 2018 000c 10B1     		cbz	r0, .L118
 2019              		.loc 1 626 24 discriminator 1 view .LVU605
 2020 000e 0EB1     		cbz	r6, .L118
 2021              		.loc 1 627 5 is_stmt 1 view .LVU606
 2022 0010 2846     		mov	r0, r5
 2023              	.LVL119:
 2024              		.loc 1 627 5 is_stmt 0 view .LVU607
 2025 0012 B047     		blx	r6
 2026              	.LVL120:
 2027              		.loc 1 630 3 is_stmt 1 view .LVU608
 2028              	.L118:
 2029              		.loc 1 631 1 is_stmt 0 view .LVU609
 2030 0014 2046     		mov	r0, r4
 2031 0016 70BD     		pop	{r4, r5, r6, pc}
 2032              		.loc 1 631 1 view .LVU610
 2033              		.cfi_endproc
 2034              	.LFE414:
 2035              		.size	oqWriteI, .-oqWriteI
 2036              		.section	.text.oqWriteTimeout,"ax",%progbits
 2037              		.align	1
 2038              		.p2align 4,,15
 2039              		.global	oqWriteTimeout
 2040              		.syntax unified
 2041              		.thumb
 2042              		.thumb_func
 2043              		.fpu softvfp
 2044              		.type	oqWriteTimeout, %function
 2045              	oqWriteTimeout:
 2046              	.LVL121:
 2047              	.LFB415:
 2048              		.loc 1 658 56 is_stmt 1 view -0
 2049              		.cfi_startproc
 2050              		@ args = 0, pretend = 0, frame = 8
 2051              		@ frame_needed = 0, uses_anonymous_args = 0
 2052              		.loc 1 659 3 view .LVU612
ARM GAS  /tmp/ccDN1f1U.s 			page 37


 2053              		.loc 1 658 56 is_stmt 0 view .LVU613
 2054 0000 2DE9F04F 		push	{r4, r5, r6, r7, r8, r9, r10, fp, lr}
 2055              		.cfi_def_cfa_offset 36
 2056              		.cfi_offset 4, -36
 2057              		.cfi_offset 5, -32
 2058              		.cfi_offset 6, -28
 2059              		.cfi_offset 7, -24
 2060              		.cfi_offset 8, -20
 2061              		.cfi_offset 9, -16
 2062              		.cfi_offset 10, -12
 2063              		.cfi_offset 11, -8
 2064              		.cfi_offset 14, -4
 2065 0004 83B0     		sub	sp, sp, #12
 2066              		.cfi_def_cfa_offset 48
 2067              		.loc 1 659 13 view .LVU614
 2068 0006 C769     		ldr	r7, [r0, #28]
 2069              	.LVL122:
 2070              		.loc 1 660 3 is_stmt 1 view .LVU615
 2071              		.loc 1 658 56 is_stmt 0 view .LVU616
 2072 0008 0192     		str	r2, [sp, #4]
 2073              	.LVL123:
 2074              		.loc 1 662 3 is_stmt 1 view .LVU617
 2075              		.loc 1 662 3 view .LVU618
 2076              		.loc 1 662 3 view .LVU619
 2077              		.loc 1 664 3 view .LVU620
 2078              	.LBB383:
 2079              	.LBI383:
 2080              		.loc 2 573 20 view .LVU621
 2081              	.LBE383:
 2082              		.loc 2 575 3 view .LVU622
 2083              	.LBB395:
 2084              	.LBB384:
 2085              	.LBI384:
 2086              		.loc 5 407 20 view .LVU623
 2087              	.LBE384:
 2088              	.LBE395:
 2089              		.loc 5 409 3 view .LVU624
 2090              	.LBB396:
 2091              	.LBB392:
 2092              	.LBB385:
 2093              	.LBI385:
 2094              		.loc 6 806 27 view .LVU625
 2095              	.LBE385:
 2096              	.LBE392:
 2097              	.LBE396:
 2098              		.loc 6 814 3 view .LVU626
 2099              	.LBB397:
 2100              	.LBB393:
 2101              	.LBB390:
 2102              	.LBB386:
 2103              	.LBI386:
 2104              		.loc 7 491 27 view .LVU627
 2105              	.LBB387:
 2106              		.loc 7 493 3 view .LVU628
 2107              	.LBE387:
 2108              	.LBE386:
 2109              	.LBE390:
ARM GAS  /tmp/ccDN1f1U.s 			page 38


 2110              	.LBE393:
 2111              	.LBE397:
 2112              		.loc 1 658 56 is_stmt 0 view .LVU629
 2113 000a 9B46     		mov	fp, r3
 2114              	.LBB398:
 2115              	.LBB394:
 2116              	.LBB391:
 2117              	.LBB389:
 2118              	.LBB388:
 2119              		.loc 7 493 3 view .LVU630
 2120 000c 4FF03008 		mov	r8, #48
 2121              		.syntax unified
 2122              	@ 493 "../ChibiOS/os/common/ext/ARM/CMSIS/Core/Include/cmsis_gcc.h" 1
 2123 0010 88F31188 		MSR basepri, r8
 2124              	@ 0 "" 2
 2125              	.LVL124:
 2126              		.loc 7 493 3 view .LVU631
 2127              		.thumb
 2128              		.syntax unified
 2129              	.LBE388:
 2130              	.LBE389:
 2131              	.LBE391:
 2132              	.LBE394:
 2133              	.LBE398:
 2134              		.loc 5 410 35 is_stmt 1 view .LVU632
 2135              		.loc 5 411 21 view .LVU633
 2136              		.loc 1 666 9 view .LVU634
 2137 0014 CAB1     		cbz	r2, .L133
 2138 0016 DDF804A0 		ldr	r10, [sp, #4]
 2139 001a 0546     		mov	r5, r0
 2140 001c 0E46     		mov	r6, r1
 2141              	.LBB399:
 2142              	.LBB400:
 2143              	.LBB401:
 2144              	.LBB402:
 2145              	.LBB403:
 2146              	.LBB404:
 2147              	.LBB405:
 2148              		.loc 7 493 3 is_stmt 0 view .LVU635
 2149 001e 4FF00009 		mov	r9, #0
 2150              	.LVL125:
 2151              	.L128:
 2152              		.loc 7 493 3 view .LVU636
 2153              	.LBE405:
 2154              	.LBE404:
 2155              	.LBE403:
 2156              	.LBE402:
 2157              	.LBE401:
 2158              	.LBE400:
 2159              		.loc 1 667 5 is_stmt 1 view .LVU637
 2160              		.loc 1 669 5 view .LVU638
 2161              		.loc 1 669 12 is_stmt 0 view .LVU639
 2162 0022 5246     		mov	r2, r10
 2163 0024 3146     		mov	r1, r6
 2164 0026 2846     		mov	r0, r5
 2165 0028 FFF7FEFF 		bl	oq_write
 2166              	.LVL126:
ARM GAS  /tmp/ccDN1f1U.s 			page 39


 2167              		.loc 1 681 7 is_stmt 1 view .LVU640
 2168              		.loc 1 682 9 view .LVU641
 2169              		.loc 1 669 12 is_stmt 0 view .LVU642
 2170 002c 0446     		mov	r4, r0
 2171              	.LVL127:
 2172              		.loc 1 670 5 is_stmt 1 view .LVU643
 2173              		.loc 1 682 9 is_stmt 0 view .LVU644
 2174 002e 2846     		mov	r0, r5
 2175              	.LVL128:
 2176              		.loc 1 670 8 view .LVU645
 2177 0030 94B1     		cbz	r4, .L145
 2178              	.LVL129:
 2179              		.loc 1 681 10 view .LVU646
 2180 0032 07B1     		cbz	r7, .L132
 2181              		.loc 1 682 9 view .LVU647
 2182 0034 B847     		blx	r7
 2183              	.LVL130:
 2184              	.L132:
 2185              		.loc 1 686 7 is_stmt 1 view .LVU648
 2186              	.LBB414:
 2187              	.LBI400:
 2188              		.loc 2 584 20 view .LVU649
 2189              	.LBE414:
 2190              	.LBE399:
 2191              		.loc 2 586 3 view .LVU650
 2192              	.LBB431:
 2193              	.LBB415:
 2194              	.LBB412:
 2195              	.LBI401:
 2196              		.loc 5 421 20 view .LVU651
 2197              	.LBB410:
 2198              		.loc 5 423 23 view .LVU652
 2199              		.loc 5 424 34 view .LVU653
 2200              		.loc 5 430 3 view .LVU654
 2201              		.loc 5 430 3 view .LVU655
 2202              		.loc 5 430 3 view .LVU656
 2203              		.loc 5 434 3 view .LVU657
 2204              	.LBB408:
 2205              	.LBI403:
 2206              		.loc 6 830 27 view .LVU658
 2207              	.LBE408:
 2208              	.LBE410:
 2209              	.LBE412:
 2210              	.LBE415:
 2211              	.LBE431:
 2212              		.loc 6 833 3 view .LVU659
 2213              	.LBB432:
 2214              	.LBB416:
 2215              	.LBB413:
 2216              	.LBB411:
 2217              	.LBB409:
 2218              	.LBB407:
 2219              	.LBI404:
 2220              		.loc 7 491 27 view .LVU660
 2221              	.LBB406:
 2222              		.loc 7 493 3 view .LVU661
 2223              		.syntax unified
ARM GAS  /tmp/ccDN1f1U.s 			page 40


 2224              	@ 493 "../ChibiOS/os/common/ext/ARM/CMSIS/Core/Include/cmsis_gcc.h" 1
 2225 0036 89F31188 		MSR basepri, r9
 2226              	@ 0 "" 2
 2227              	.LVL131:
 2228              		.loc 7 493 3 is_stmt 0 view .LVU662
 2229              		.thumb
 2230              		.syntax unified
 2231              	.LBE406:
 2232              	.LBE407:
 2233              	.LBE409:
 2234              	.LBE411:
 2235              	.LBE413:
 2236              	.LBE416:
 2237              		.loc 1 688 7 is_stmt 1 view .LVU663
 2238              		.loc 1 688 10 is_stmt 0 view .LVU664
 2239 003a AAEB040A 		sub	r10, r10, r4
 2240              	.LVL132:
 2241              		.loc 1 689 7 is_stmt 1 view .LVU665
 2242              		.loc 1 689 10 is_stmt 0 view .LVU666
 2243 003e 2644     		add	r6, r6, r4
 2244              	.LVL133:
 2245              		.loc 1 691 7 is_stmt 1 view .LVU667
 2246              	.LBB417:
 2247              	.LBI417:
 2248              		.loc 2 573 20 view .LVU668
 2249              	.LBE417:
 2250              	.LBE432:
 2251              		.loc 2 575 3 view .LVU669
 2252              	.LBB433:
 2253              	.LBB425:
 2254              	.LBB418:
 2255              	.LBI418:
 2256              		.loc 5 407 20 view .LVU670
 2257              	.LBE418:
 2258              	.LBE425:
 2259              	.LBE433:
 2260              		.loc 5 409 3 view .LVU671
 2261              	.LBB434:
 2262              	.LBB426:
 2263              	.LBB423:
 2264              	.LBB419:
 2265              	.LBI419:
 2266              		.loc 6 806 27 view .LVU672
 2267              	.LBE419:
 2268              	.LBE423:
 2269              	.LBE426:
 2270              	.LBE434:
 2271              		.loc 6 814 3 view .LVU673
 2272              	.LBB435:
 2273              	.LBB427:
 2274              	.LBB424:
 2275              	.LBB422:
 2276              	.LBB420:
 2277              	.LBI420:
 2278              		.loc 7 491 27 view .LVU674
 2279              	.LBB421:
 2280              		.loc 7 493 3 view .LVU675
ARM GAS  /tmp/ccDN1f1U.s 			page 41


 2281              		.syntax unified
 2282              	@ 493 "../ChibiOS/os/common/ext/ARM/CMSIS/Core/Include/cmsis_gcc.h" 1
 2283 0040 88F31188 		MSR basepri, r8
 2284              	@ 0 "" 2
 2285              	.LVL134:
 2286              		.loc 7 493 3 is_stmt 0 view .LVU676
 2287              		.thumb
 2288              		.syntax unified
 2289              	.LBE421:
 2290              	.LBE420:
 2291              	.LBE422:
 2292              	.LBE424:
 2293              	.LBE427:
 2294              	.LBE435:
 2295              		.loc 5 410 35 is_stmt 1 view .LVU677
 2296              		.loc 5 411 21 view .LVU678
 2297              		.loc 1 666 9 view .LVU679
 2298 0044 BAF1000F 		cmp	r10, #0
 2299 0048 EBD1     		bne	.L128
 2300              	.LVL135:
 2301              	.L133:
 2302              		.loc 1 666 9 is_stmt 0 view .LVU680
 2303 004a 0198     		ldr	r0, [sp, #4]
 2304              		.loc 1 695 3 is_stmt 1 view .LVU681
 2305              	.LBB436:
 2306              	.LBI436:
 2307              		.loc 2 584 20 view .LVU682
 2308              	.LBE436:
 2309              		.loc 2 586 3 view .LVU683
 2310              	.LBB453:
 2311              	.LBB437:
 2312              	.LBI437:
 2313              		.loc 5 421 20 view .LVU684
 2314              	.LBB438:
 2315              		.loc 5 423 23 view .LVU685
 2316              		.loc 5 424 34 view .LVU686
 2317              		.loc 5 430 3 view .LVU687
 2318              		.loc 5 430 3 view .LVU688
 2319              		.loc 5 430 3 view .LVU689
 2320              		.loc 5 434 3 view .LVU690
 2321              	.LBB439:
 2322              	.LBI439:
 2323              		.loc 6 830 27 view .LVU691
 2324              	.LBE439:
 2325              	.LBE438:
 2326              	.LBE437:
 2327              	.LBE453:
 2328              		.loc 6 833 3 view .LVU692
 2329              	.LVL136:
 2330              	.LBB454:
 2331              	.LBB450:
 2332              	.LBB447:
 2333              	.LBB444:
 2334              	.LBB440:
 2335              	.LBI440:
 2336              		.loc 7 491 27 view .LVU693
 2337              	.LBB441:
ARM GAS  /tmp/ccDN1f1U.s 			page 42


 2338              		.loc 7 493 3 view .LVU694
 2339 004c 0023     		movs	r3, #0
 2340              		.syntax unified
 2341              	@ 493 "../ChibiOS/os/common/ext/ARM/CMSIS/Core/Include/cmsis_gcc.h" 1
 2342 004e 83F31188 		MSR basepri, r3
 2343              	@ 0 "" 2
 2344              	.LVL137:
 2345              		.loc 7 493 3 is_stmt 0 view .LVU695
 2346              		.thumb
 2347              		.syntax unified
 2348              	.LBE441:
 2349              	.LBE440:
 2350              	.LBE444:
 2351              	.LBE447:
 2352              	.LBE450:
 2353              	.LBE454:
 2354              		.loc 1 696 3 is_stmt 1 view .LVU696
 2355              		.loc 1 697 1 is_stmt 0 view .LVU697
 2356 0052 03B0     		add	sp, sp, #12
 2357              		.cfi_remember_state
 2358              		.cfi_def_cfa_offset 36
 2359              		@ sp needed
 2360 0054 BDE8F08F 		pop	{r4, r5, r6, r7, r8, r9, r10, fp, pc}
 2361              	.LVL138:
 2362              	.L145:
 2363              		.cfi_restore_state
 2364              	.LBB455:
 2365              	.LBB428:
 2366              		.loc 1 671 7 is_stmt 1 view .LVU698
 2367              	.LBB429:
 2368              	.LBI429:
 2369              		.loc 2 892 21 view .LVU699
 2370              	.LBB430:
 2371              		.loc 2 895 3 view .LVU700
 2372              		.loc 2 895 10 is_stmt 0 view .LVU701
 2373 0058 5946     		mov	r1, fp
 2374 005a FFF7FEFF 		bl	chThdEnqueueTimeoutS
 2375              	.LVL139:
 2376              		.loc 2 895 10 view .LVU702
 2377              	.LBE430:
 2378              	.LBE429:
 2379              		.loc 1 674 7 is_stmt 1 view .LVU703
 2380              		.loc 1 674 10 is_stmt 0 view .LVU704
 2381 005e 0028     		cmp	r0, #0
 2382 0060 DFD0     		beq	.L128
 2383              	.LBE428:
 2384              	.LBE455:
 2385              		.loc 1 696 14 view .LVU705
 2386 0062 019B     		ldr	r3, [sp, #4]
 2387 0064 A3EB0A00 		sub	r0, r3, r10
 2388              	.LVL140:
 2389              		.loc 1 695 3 is_stmt 1 view .LVU706
 2390              	.LBB456:
 2391              		.loc 2 584 20 view .LVU707
 2392              	.LBE456:
 2393              		.loc 2 586 3 view .LVU708
 2394              	.LBB457:
ARM GAS  /tmp/ccDN1f1U.s 			page 43


 2395              	.LBB451:
 2396              		.loc 5 421 20 view .LVU709
 2397              	.LBB448:
 2398              		.loc 5 423 23 view .LVU710
 2399              		.loc 5 424 34 view .LVU711
 2400              		.loc 5 430 3 view .LVU712
 2401              		.loc 5 430 3 view .LVU713
 2402              		.loc 5 430 3 view .LVU714
 2403              		.loc 5 434 3 view .LVU715
 2404              	.LBB445:
 2405              		.loc 6 830 27 view .LVU716
 2406              	.LBE445:
 2407              	.LBE448:
 2408              	.LBE451:
 2409              	.LBE457:
 2410              		.loc 6 833 3 view .LVU717
 2411              	.LBB458:
 2412              	.LBB452:
 2413              	.LBB449:
 2414              	.LBB446:
 2415              	.LBB443:
 2416              		.loc 7 491 27 view .LVU718
 2417              	.LBB442:
 2418              		.loc 7 493 3 view .LVU719
 2419 0068 0023     		movs	r3, #0
 2420              		.syntax unified
 2421              	@ 493 "../ChibiOS/os/common/ext/ARM/CMSIS/Core/Include/cmsis_gcc.h" 1
 2422 006a 83F31188 		MSR basepri, r3
 2423              	@ 0 "" 2
 2424              	.LVL141:
 2425              		.loc 7 493 3 is_stmt 0 view .LVU720
 2426              		.thumb
 2427              		.syntax unified
 2428              	.LBE442:
 2429              	.LBE443:
 2430              	.LBE446:
 2431              	.LBE449:
 2432              	.LBE452:
 2433              	.LBE458:
 2434              		.loc 1 696 3 is_stmt 1 view .LVU721
 2435              		.loc 1 697 1 is_stmt 0 view .LVU722
 2436 006e 03B0     		add	sp, sp, #12
 2437              		.cfi_def_cfa_offset 36
 2438              		@ sp needed
 2439 0070 BDE8F08F 		pop	{r4, r5, r6, r7, r8, r9, r10, fp, pc}
 2440              		.loc 1 697 1 view .LVU723
 2441              		.cfi_endproc
 2442              	.LFE415:
 2443              		.size	oqWriteTimeout, .-oqWriteTimeout
 2444              		.text
 2445              	.Letext0:
 2446              		.file 8 "/opt/gcc-arm-none-eabi/gcc-arm-none-eabi-10.3-2021.07/lib/gcc/arm-none-eabi/10.3.1/includ
 2447              		.file 9 "/opt/gcc-arm-none-eabi/gcc-arm-none-eabi-10.3-2021.07/arm-none-eabi/include/machine/_defa
 2448              		.file 10 "/opt/gcc-arm-none-eabi/gcc-arm-none-eabi-10.3-2021.07/arm-none-eabi/include/sys/_stdint.
 2449              		.file 11 "../ChibiOS/os/rt/include/chearly.h"
 2450              		.file 12 "../ChibiOS/os/rt/include/chtime.h"
 2451              		.file 13 "../ChibiOS/os/rt/include/chobjects.h"
ARM GAS  /tmp/ccDN1f1U.s 			page 44


 2452              		.file 14 "../ChibiOS/os/hal/include/hal_queues.h"
 2453              		.file 15 "<built-in>"