ARM GAS  /tmp/cctASbqX.s 			page 1


   1              		.cpu cortex-m4
   2              		.eabi_attribute 20, 1
   3              		.eabi_attribute 21, 1
   4              		.eabi_attribute 23, 3
   5              		.eabi_attribute 24, 1
   6              		.eabi_attribute 25, 1
   7              		.eabi_attribute 26, 1
   8              		.eabi_attribute 30, 2
   9              		.eabi_attribute 34, 1
  10              		.eabi_attribute 18, 4
  11              		.file	"hal_adc.c"
  12              		.text
  13              	.Ltext0:
  14              		.cfi_sections	.debug_frame
  15              		.section	.text.adcInit,"ax",%progbits
  16              		.align	1
  17              		.p2align 4,,15
  18              		.global	adcInit
  19              		.arch armv7e-m
  20              		.syntax unified
  21              		.thumb
  22              		.thumb_func
  23              		.fpu softvfp
  24              		.type	adcInit, %function
  25              	adcInit:
  26              	.LFB400:
  27              		.file 1 "../ChibiOS/os/hal/src/hal_adc.c"
  28              		.loc 1 56 20 view -0
  29              		.cfi_startproc
  30              		@ args = 0, pretend = 0, frame = 0
  31              		@ frame_needed = 0, uses_anonymous_args = 0
  32              		@ link register save eliminated.
  33              		.loc 1 58 3 view .LVU1
  34 0000 FFF7FEBF 		b	adc_lld_init
  35              	.LVL0:
  36              		.cfi_endproc
  37              	.LFE400:
  38              		.size	adcInit, .-adcInit
  39              		.section	.text.adcObjectInit,"ax",%progbits
  40              		.align	1
  41              		.p2align 4,,15
  42              		.global	adcObjectInit
  43              		.syntax unified
  44              		.thumb
  45              		.thumb_func
  46              		.fpu softvfp
  47              		.type	adcObjectInit, %function
  48              	adcObjectInit:
  49              	.LVL1:
  50              	.LFB401:
  51              		.loc 1 68 37 view -0
  52              		.cfi_startproc
  53              		@ args = 0, pretend = 0, frame = 0
  54              		@ frame_needed = 0, uses_anonymous_args = 0
  55              		@ link register save eliminated.
  56              		.loc 1 70 3 view .LVU3
  57              		.loc 1 71 18 is_stmt 0 view .LVU4
ARM GAS  /tmp/cctASbqX.s 			page 2


  58 0000 0023     		movs	r3, #0
  59              		.loc 1 70 18 view .LVU5
  60 0002 0122     		movs	r2, #1
  61              		.loc 1 72 18 view .LVU6
  62 0004 C0E90133 		strd	r3, r3, [r0, #4]
  63              		.loc 1 74 18 view .LVU7
  64 0008 C0E90333 		strd	r3, r3, [r0, #12]
  65              		.loc 1 70 18 view .LVU8
  66 000c 0270     		strb	r2, [r0]
  67              		.loc 1 71 3 is_stmt 1 view .LVU9
  68              		.loc 1 73 3 view .LVU10
  69              		.loc 1 76 3 view .LVU11
  70              		.loc 1 76 18 is_stmt 0 view .LVU12
  71 000e 4361     		str	r3, [r0, #20]
  72              		.loc 1 79 3 is_stmt 1 view .LVU13
  73              	.LVL2:
  74              	.LBB105:
  75              	.LBI105:
  76              		.file 2 "../ChibiOS/os/hal/osal/rt-nil/osal.h"
  77              		.loc 2 1035 20 view .LVU14
  78              	.LBB106:
  79              		.loc 2 1038 3 view .LVU15
  80 0010 1830     		adds	r0, r0, #24
  81              	.LVL3:
  82              		.loc 2 1038 3 is_stmt 0 view .LVU16
  83 0012 FFF7FEBF 		b	chMtxObjectInit
  84              	.LVL4:
  85              		.loc 2 1038 3 view .LVU17
  86              	.LBE106:
  87              	.LBE105:
  88              		.cfi_endproc
  89              	.LFE401:
  90              		.size	adcObjectInit, .-adcObjectInit
  91 0016 00BF     		.section	.text.adcStart,"ax",%progbits
  92              		.align	1
  93              		.p2align 4,,15
  94              		.global	adcStart
  95              		.syntax unified
  96              		.thumb
  97              		.thumb_func
  98              		.fpu softvfp
  99              		.type	adcStart, %function
 100              	adcStart:
 101              	.LVL5:
 102              	.LFB402:
 103              		.loc 1 96 58 is_stmt 1 view -0
 104              		.cfi_startproc
 105              		@ args = 0, pretend = 0, frame = 0
 106              		@ frame_needed = 0, uses_anonymous_args = 0
 107              		.loc 1 97 3 view .LVU19
 108              		.loc 1 99 3 view .LVU20
 109              		.loc 1 99 3 view .LVU21
 110              		.loc 1 99 3 view .LVU22
 111              		.loc 1 101 3 view .LVU23
 112              	.LBB107:
 113              	.LBI107:
 114              		.loc 2 573 20 view .LVU24
ARM GAS  /tmp/cctASbqX.s 			page 3


 115              	.LBE107:
 116              		.loc 2 575 3 view .LVU25
 117              	.LBB123:
 118              	.LBB108:
 119              	.LBI108:
 120              		.file 3 "../ChibiOS/os/rt/include/chsys.h"
 121              		.loc 3 407 20 view .LVU26
 122              	.LBE108:
 123              	.LBE123:
 124              		.loc 3 409 3 view .LVU27
 125              	.LBB124:
 126              	.LBB119:
 127              	.LBB109:
 128              	.LBI109:
 129              		.file 4 "../ChibiOS/os/common/ports/ARMv7-M/chcore.h"
 130              		.loc 4 806 27 view .LVU28
 131              	.LBE109:
 132              	.LBE119:
 133              	.LBE124:
 134              		.loc 4 814 3 view .LVU29
 135              	.LBB125:
 136              	.LBB120:
 137              	.LBB116:
 138              	.LBB110:
 139              	.LBI110:
 140              		.file 5 "../ChibiOS/os/common/ext/ARM/CMSIS/Core/Include/cmsis_gcc.h"
 141              		.loc 5 491 27 view .LVU30
 142              	.LBB111:
 143              		.loc 5 493 3 view .LVU31
 144              	.LBE111:
 145              	.LBE110:
 146              	.LBE116:
 147              	.LBE120:
 148              	.LBE125:
 149              		.loc 1 96 58 is_stmt 0 view .LVU32
 150 0000 10B5     		push	{r4, lr}
 151              		.cfi_def_cfa_offset 8
 152              		.cfi_offset 4, -8
 153              		.cfi_offset 14, -4
 154              	.LBB126:
 155              	.LBB121:
 156              	.LBB117:
 157              	.LBB114:
 158              	.LBB112:
 159              		.loc 5 493 3 view .LVU33
 160 0002 3023     		movs	r3, #48
 161              	.LBE112:
 162              	.LBE114:
 163              	.LBE117:
 164              	.LBE121:
 165              	.LBE126:
 166              		.loc 1 96 58 view .LVU34
 167 0004 0446     		mov	r4, r0
 168              	.LBB127:
 169              	.LBB122:
 170              	.LBB118:
 171              	.LBB115:
ARM GAS  /tmp/cctASbqX.s 			page 4


 172              	.LBB113:
 173              		.loc 5 493 3 view .LVU35
 174              		.syntax unified
 175              	@ 493 "../ChibiOS/os/common/ext/ARM/CMSIS/Core/Include/cmsis_gcc.h" 1
 176 0006 83F31188 		MSR basepri, r3
 177              	@ 0 "" 2
 178              	.LVL6:
 179              		.loc 5 493 3 view .LVU36
 180              		.thumb
 181              		.syntax unified
 182              	.LBE113:
 183              	.LBE115:
 184              	.LBE118:
 185              	.LBE122:
 186              	.LBE127:
 187              		.loc 3 410 35 is_stmt 1 view .LVU37
 188              		.loc 3 411 21 view .LVU38
 189              		.loc 1 102 3 view .LVU39
 190              		.loc 1 102 3 view .LVU40
 191              		.loc 1 102 3 view .LVU41
 192              		.loc 1 104 3 view .LVU42
 193              		.loc 1 104 16 is_stmt 0 view .LVU43
 194 000a 4160     		str	r1, [r0, #4]
 195              		.loc 1 109 3 is_stmt 1 view .LVU44
 196 000c FFF7FEFF 		bl	adc_lld_start
 197              	.LVL7:
 198              		.loc 1 110 3 view .LVU45
 199              		.loc 1 112 3 view .LVU46
 200              		.loc 1 113 5 view .LVU47
 201              		.loc 1 113 17 is_stmt 0 view .LVU48
 202 0010 0223     		movs	r3, #2
 203 0012 2370     		strb	r3, [r4]
 204              		.loc 1 119 3 is_stmt 1 view .LVU49
 205              	.LBB128:
 206              	.LBI128:
 207              		.loc 2 584 20 view .LVU50
 208              	.LBE128:
 209              		.loc 2 586 3 view .LVU51
 210              	.LBB137:
 211              	.LBB129:
 212              	.LBI129:
 213              		.loc 3 421 20 view .LVU52
 214              	.LBB130:
 215              		.loc 3 423 23 view .LVU53
 216              		.loc 3 424 34 view .LVU54
 217              		.loc 3 430 3 view .LVU55
 218              		.loc 3 430 3 view .LVU56
 219              		.loc 3 430 3 view .LVU57
 220              		.loc 3 434 3 view .LVU58
 221              	.LBB131:
 222              	.LBI131:
 223              		.loc 4 830 27 view .LVU59
 224              	.LBE131:
 225              	.LBE130:
 226              	.LBE129:
 227              	.LBE137:
 228              		.loc 4 833 3 view .LVU60
ARM GAS  /tmp/cctASbqX.s 			page 5


 229              	.LVL8:
 230              	.LBB138:
 231              	.LBB136:
 232              	.LBB135:
 233              	.LBB134:
 234              	.LBB132:
 235              	.LBI132:
 236              		.loc 5 491 27 view .LVU61
 237              	.LBB133:
 238              		.loc 5 493 3 view .LVU62
 239 0014 0020     		movs	r0, #0
 240              		.syntax unified
 241              	@ 493 "../ChibiOS/os/common/ext/ARM/CMSIS/Core/Include/cmsis_gcc.h" 1
 242 0016 80F31188 		MSR basepri, r0
 243              	@ 0 "" 2
 244              	.LVL9:
 245              		.loc 5 493 3 is_stmt 0 view .LVU63
 246              		.thumb
 247              		.syntax unified
 248              	.LBE133:
 249              	.LBE132:
 250              	.LBE134:
 251              	.LBE135:
 252              	.LBE136:
 253              	.LBE138:
 254              		.loc 1 121 3 is_stmt 1 view .LVU64
 255              		.loc 1 122 1 is_stmt 0 view .LVU65
 256 001a 10BD     		pop	{r4, pc}
 257              		.loc 1 122 1 view .LVU66
 258              		.cfi_endproc
 259              	.LFE402:
 260              		.size	adcStart, .-adcStart
 261              		.section	.text.adcStop,"ax",%progbits
 262              		.align	1
 263              		.p2align 4,,15
 264              		.global	adcStop
 265              		.syntax unified
 266              		.thumb
 267              		.thumb_func
 268              		.fpu softvfp
 269              		.type	adcStop, %function
 270              	adcStop:
 271              	.LVL10:
 272              	.LFB403:
 273              		.loc 1 131 31 is_stmt 1 view -0
 274              		.cfi_startproc
 275              		@ args = 0, pretend = 0, frame = 0
 276              		@ frame_needed = 0, uses_anonymous_args = 0
 277              		.loc 1 133 3 view .LVU68
 278              		.loc 1 133 3 view .LVU69
 279              		.loc 1 133 3 view .LVU70
 280              		.loc 1 135 3 view .LVU71
 281              	.LBB139:
 282              	.LBI139:
 283              		.loc 2 573 20 view .LVU72
 284              	.LBE139:
 285              		.loc 2 575 3 view .LVU73
ARM GAS  /tmp/cctASbqX.s 			page 6


 286              	.LBB155:
 287              	.LBB140:
 288              	.LBI140:
 289              		.loc 3 407 20 view .LVU74
 290              	.LBE140:
 291              	.LBE155:
 292              		.loc 3 409 3 view .LVU75
 293              	.LBB156:
 294              	.LBB151:
 295              	.LBB141:
 296              	.LBI141:
 297              		.loc 4 806 27 view .LVU76
 298              	.LBE141:
 299              	.LBE151:
 300              	.LBE156:
 301              		.loc 4 814 3 view .LVU77
 302              	.LBB157:
 303              	.LBB152:
 304              	.LBB148:
 305              	.LBB142:
 306              	.LBI142:
 307              		.loc 5 491 27 view .LVU78
 308              	.LBB143:
 309              		.loc 5 493 3 view .LVU79
 310              	.LBE143:
 311              	.LBE142:
 312              	.LBE148:
 313              	.LBE152:
 314              	.LBE157:
 315              		.loc 1 131 31 is_stmt 0 view .LVU80
 316 0000 10B5     		push	{r4, lr}
 317              		.cfi_def_cfa_offset 8
 318              		.cfi_offset 4, -8
 319              		.cfi_offset 14, -4
 320              	.LBB158:
 321              	.LBB153:
 322              	.LBB149:
 323              	.LBB146:
 324              	.LBB144:
 325              		.loc 5 493 3 view .LVU81
 326 0002 3023     		movs	r3, #48
 327              	.LBE144:
 328              	.LBE146:
 329              	.LBE149:
 330              	.LBE153:
 331              	.LBE158:
 332              		.loc 1 131 31 view .LVU82
 333 0004 0446     		mov	r4, r0
 334              	.LBB159:
 335              	.LBB154:
 336              	.LBB150:
 337              	.LBB147:
 338              	.LBB145:
 339              		.loc 5 493 3 view .LVU83
 340              		.syntax unified
 341              	@ 493 "../ChibiOS/os/common/ext/ARM/CMSIS/Core/Include/cmsis_gcc.h" 1
 342 0006 83F31188 		MSR basepri, r3
ARM GAS  /tmp/cctASbqX.s 			page 7


 343              	@ 0 "" 2
 344              	.LVL11:
 345              		.loc 5 493 3 view .LVU84
 346              		.thumb
 347              		.syntax unified
 348              	.LBE145:
 349              	.LBE147:
 350              	.LBE150:
 351              	.LBE154:
 352              	.LBE159:
 353              		.loc 3 410 35 is_stmt 1 view .LVU85
 354              		.loc 3 411 21 view .LVU86
 355              		.loc 1 137 3 view .LVU87
 356              		.loc 1 137 3 view .LVU88
 357              		.loc 1 137 3 view .LVU89
 358              		.loc 1 140 3 view .LVU90
 359 000a FFF7FEFF 		bl	adc_lld_stop
 360              	.LVL12:
 361              		.loc 1 141 3 view .LVU91
 362              		.loc 1 141 16 is_stmt 0 view .LVU92
 363 000e 0023     		movs	r3, #0
 364              		.loc 1 142 16 view .LVU93
 365 0010 0122     		movs	r2, #1
 366              		.loc 1 141 16 view .LVU94
 367 0012 6360     		str	r3, [r4, #4]
 368              		.loc 1 142 3 is_stmt 1 view .LVU95
 369              		.loc 1 142 16 is_stmt 0 view .LVU96
 370 0014 2270     		strb	r2, [r4]
 371              		.loc 1 144 3 is_stmt 1 view .LVU97
 372              	.LBB160:
 373              	.LBI160:
 374              		.loc 2 584 20 view .LVU98
 375              	.LBE160:
 376              		.loc 2 586 3 view .LVU99
 377              	.LBB169:
 378              	.LBB161:
 379              	.LBI161:
 380              		.loc 3 421 20 view .LVU100
 381              	.LBB162:
 382              		.loc 3 423 23 view .LVU101
 383              		.loc 3 424 34 view .LVU102
 384              		.loc 3 430 3 view .LVU103
 385              		.loc 3 430 3 view .LVU104
 386              		.loc 3 430 3 view .LVU105
 387              		.loc 3 434 3 view .LVU106
 388              	.LBB163:
 389              	.LBI163:
 390              		.loc 4 830 27 view .LVU107
 391              	.LBE163:
 392              	.LBE162:
 393              	.LBE161:
 394              	.LBE169:
 395              		.loc 4 833 3 view .LVU108
 396              	.LVL13:
 397              	.LBB170:
 398              	.LBB168:
 399              	.LBB167:
ARM GAS  /tmp/cctASbqX.s 			page 8


 400              	.LBB166:
 401              	.LBB164:
 402              	.LBI164:
 403              		.loc 5 491 27 view .LVU109
 404              	.LBB165:
 405              		.loc 5 493 3 view .LVU110
 406              		.syntax unified
 407              	@ 493 "../ChibiOS/os/common/ext/ARM/CMSIS/Core/Include/cmsis_gcc.h" 1
 408 0016 83F31188 		MSR basepri, r3
 409              	@ 0 "" 2
 410              	.LVL14:
 411              		.loc 5 493 3 is_stmt 0 view .LVU111
 412              		.thumb
 413              		.syntax unified
 414              	.LBE165:
 415              	.LBE164:
 416              	.LBE166:
 417              	.LBE167:
 418              	.LBE168:
 419              	.LBE170:
 420              		.loc 1 145 1 view .LVU112
 421 001a 10BD     		pop	{r4, pc}
 422              		.loc 1 145 1 view .LVU113
 423              		.cfi_endproc
 424              	.LFE403:
 425              		.size	adcStop, .-adcStop
 426              		.section	.text.adcStartConversion,"ax",%progbits
 427              		.align	1
 428              		.p2align 4,,15
 429              		.global	adcStartConversion
 430              		.syntax unified
 431              		.thumb
 432              		.thumb_func
 433              		.fpu softvfp
 434              		.type	adcStartConversion, %function
 435              	adcStartConversion:
 436              	.LVL15:
 437              	.LFB404:
 438              		.loc 1 166 39 is_stmt 1 view -0
 439              		.cfi_startproc
 440              		@ args = 0, pretend = 0, frame = 0
 441              		@ frame_needed = 0, uses_anonymous_args = 0
 442              		.loc 1 168 3 view .LVU115
 443              	.LBB171:
 444              	.LBI171:
 445              		.loc 2 573 20 view .LVU116
 446              	.LBE171:
 447              		.loc 2 575 3 view .LVU117
 448              	.LBB183:
 449              	.LBB172:
 450              	.LBI172:
 451              		.loc 3 407 20 view .LVU118
 452              	.LBE172:
 453              	.LBE183:
 454              		.loc 3 409 3 view .LVU119
 455              	.LBB184:
 456              	.LBB180:
ARM GAS  /tmp/cctASbqX.s 			page 9


 457              	.LBB173:
 458              	.LBI173:
 459              		.loc 4 806 27 view .LVU120
 460              	.LBE173:
 461              	.LBE180:
 462              	.LBE184:
 463              		.loc 4 814 3 view .LVU121
 464              	.LBB185:
 465              	.LBB181:
 466              	.LBB178:
 467              	.LBB174:
 468              	.LBI174:
 469              		.loc 5 491 27 view .LVU122
 470              	.LBB175:
 471              		.loc 5 493 3 view .LVU123
 472              	.LBE175:
 473              	.LBE174:
 474              	.LBE178:
 475              	.LBE181:
 476              	.LBE185:
 477              		.loc 1 166 39 is_stmt 0 view .LVU124
 478 0000 08B5     		push	{r3, lr}
 479              		.cfi_def_cfa_offset 8
 480              		.cfi_offset 3, -8
 481              		.cfi_offset 14, -4
 482              	.LBB186:
 483              	.LBB182:
 484              	.LBB179:
 485              	.LBB177:
 486              	.LBB176:
 487              		.loc 5 493 3 view .LVU125
 488 0002 4FF0300E 		mov	lr, #48
 489              		.syntax unified
 490              	@ 493 "../ChibiOS/os/common/ext/ARM/CMSIS/Core/Include/cmsis_gcc.h" 1
 491 0006 8EF31188 		MSR basepri, lr
 492              	@ 0 "" 2
 493              	.LVL16:
 494              		.loc 5 493 3 view .LVU126
 495              		.thumb
 496              		.syntax unified
 497              	.LBE176:
 498              	.LBE177:
 499              	.LBE179:
 500              	.LBE182:
 501              	.LBE186:
 502              		.loc 3 410 35 is_stmt 1 view .LVU127
 503              		.loc 3 411 21 view .LVU128
 504              		.loc 1 169 3 view .LVU129
 505              	.LBB187:
 506              	.LBI187:
 507              		.loc 1 191 6 view .LVU130
 508              	.LBB188:
 509              		.loc 1 196 23 view .LVU131
 510              		.loc 1 197 3 view .LVU132
 511              		.loc 1 197 3 view .LVU133
 512              		.loc 1 197 3 view .LVU134
 513              		.loc 1 199 3 view .LVU135
ARM GAS  /tmp/cctASbqX.s 			page 10


 514              		.loc 1 199 3 view .LVU136
 515              		.loc 1 199 3 view .LVU137
 516              		.loc 1 203 3 view .LVU138
 517              		.loc 1 203 18 is_stmt 0 view .LVU139
 518 000a 8260     		str	r2, [r0, #8]
 519              		.loc 1 204 3 is_stmt 1 view .LVU140
 520              		.loc 1 206 18 is_stmt 0 view .LVU141
 521 000c 0322     		movs	r2, #3
 522              	.LVL17:
 523              		.loc 1 205 18 view .LVU142
 524 000e C0E90331 		strd	r3, r1, [r0, #12]
 525              		.loc 1 206 3 is_stmt 1 view .LVU143
 526              		.loc 1 206 18 is_stmt 0 view .LVU144
 527 0012 0270     		strb	r2, [r0]
 528              		.loc 1 207 3 is_stmt 1 view .LVU145
 529 0014 FFF7FEFF 		bl	adc_lld_start_conversion
 530              	.LVL18:
 531              		.loc 1 207 3 is_stmt 0 view .LVU146
 532              	.LBE188:
 533              	.LBE187:
 534              		.loc 1 170 3 is_stmt 1 view .LVU147
 535              	.LBB189:
 536              	.LBI189:
 537              		.loc 2 584 20 view .LVU148
 538              	.LBE189:
 539              		.loc 2 586 3 view .LVU149
 540              	.LBB198:
 541              	.LBB190:
 542              	.LBI190:
 543              		.loc 3 421 20 view .LVU150
 544              	.LBB191:
 545              		.loc 3 423 23 view .LVU151
 546              		.loc 3 424 34 view .LVU152
 547              		.loc 3 430 3 view .LVU153
 548              		.loc 3 430 3 view .LVU154
 549              		.loc 3 430 3 view .LVU155
 550              		.loc 3 434 3 view .LVU156
 551              	.LBB192:
 552              	.LBI192:
 553              		.loc 4 830 27 view .LVU157
 554              	.LBE192:
 555              	.LBE191:
 556              	.LBE190:
 557              	.LBE198:
 558              		.loc 4 833 3 view .LVU158
 559              	.LBB199:
 560              	.LBB197:
 561              	.LBB196:
 562              	.LBB195:
 563              	.LBB193:
 564              	.LBI193:
 565              		.loc 5 491 27 view .LVU159
 566              	.LBB194:
 567              		.loc 5 493 3 view .LVU160
 568 0018 0023     		movs	r3, #0
 569              		.syntax unified
 570              	@ 493 "../ChibiOS/os/common/ext/ARM/CMSIS/Core/Include/cmsis_gcc.h" 1
ARM GAS  /tmp/cctASbqX.s 			page 11


 571 001a 83F31188 		MSR basepri, r3
 572              	@ 0 "" 2
 573              	.LVL19:
 574              		.loc 5 493 3 is_stmt 0 view .LVU161
 575              		.thumb
 576              		.syntax unified
 577              	.LBE194:
 578              	.LBE193:
 579              	.LBE195:
 580              	.LBE196:
 581              	.LBE197:
 582              	.LBE199:
 583              		.loc 1 171 1 view .LVU162
 584 001e 08BD     		pop	{r3, pc}
 585              		.cfi_endproc
 586              	.LFE404:
 587              		.size	adcStartConversion, .-adcStartConversion
 588              		.section	.text.adcStartConversionI,"ax",%progbits
 589              		.align	1
 590              		.p2align 4,,15
 591              		.global	adcStartConversionI
 592              		.syntax unified
 593              		.thumb
 594              		.thumb_func
 595              		.fpu softvfp
 596              		.type	adcStartConversionI, %function
 597              	adcStartConversionI:
 598              	.LVL20:
 599              	.LFB405:
 600              		.loc 1 194 40 is_stmt 1 view -0
 601              		.cfi_startproc
 602              		@ args = 0, pretend = 0, frame = 0
 603              		@ frame_needed = 0, uses_anonymous_args = 0
 604              		@ link register save eliminated.
 605              		.loc 1 196 23 view .LVU164
 606              		.loc 1 197 3 view .LVU165
 607              		.loc 1 197 3 view .LVU166
 608              		.loc 1 197 3 view .LVU167
 609              		.loc 1 199 3 view .LVU168
 610              		.loc 1 199 3 view .LVU169
 611              		.loc 1 199 3 view .LVU170
 612              		.loc 1 203 3 view .LVU171
 613              		.loc 1 203 18 is_stmt 0 view .LVU172
 614 0000 8260     		str	r2, [r0, #8]
 615              		.loc 1 204 3 is_stmt 1 view .LVU173
 616              		.loc 1 206 18 is_stmt 0 view .LVU174
 617 0002 0322     		movs	r2, #3
 618              	.LVL21:
 619              		.loc 1 205 18 view .LVU175
 620 0004 C0E90331 		strd	r3, r1, [r0, #12]
 621              		.loc 1 206 3 is_stmt 1 view .LVU176
 622              		.loc 1 206 18 is_stmt 0 view .LVU177
 623 0008 0270     		strb	r2, [r0]
 624              		.loc 1 207 3 is_stmt 1 view .LVU178
 625 000a FFF7FEBF 		b	adc_lld_start_conversion
 626              	.LVL22:
 627              		.loc 1 207 3 is_stmt 0 view .LVU179
ARM GAS  /tmp/cctASbqX.s 			page 12


 628              		.cfi_endproc
 629              	.LFE405:
 630              		.size	adcStartConversionI, .-adcStartConversionI
 631 000e 00BF     		.section	.text.adcStopConversion,"ax",%progbits
 632              		.align	1
 633              		.p2align 4,,15
 634              		.global	adcStopConversion
 635              		.syntax unified
 636              		.thumb
 637              		.thumb_func
 638              		.fpu softvfp
 639              		.type	adcStopConversion, %function
 640              	adcStopConversion:
 641              	.LVL23:
 642              	.LFB406:
 643              		.loc 1 220 41 is_stmt 1 view -0
 644              		.cfi_startproc
 645              		@ args = 0, pretend = 0, frame = 0
 646              		@ frame_needed = 0, uses_anonymous_args = 0
 647              		.loc 1 222 3 view .LVU181
 648              		.loc 1 222 3 view .LVU182
 649              		.loc 1 222 3 view .LVU183
 650              		.loc 1 224 3 view .LVU184
 651              	.LBB200:
 652              	.LBI200:
 653              		.loc 2 573 20 view .LVU185
 654              	.LBE200:
 655              		.loc 2 575 3 view .LVU186
 656              	.LBB208:
 657              	.LBB201:
 658              	.LBI201:
 659              		.loc 3 407 20 view .LVU187
 660              	.LBE201:
 661              	.LBE208:
 662              		.loc 3 409 3 view .LVU188
 663              	.LBB209:
 664              	.LBB206:
 665              	.LBB202:
 666              	.LBI202:
 667              		.loc 4 806 27 view .LVU189
 668              	.LBE202:
 669              	.LBE206:
 670              	.LBE209:
 671              		.loc 4 814 3 view .LVU190
 672              	.LBB210:
 673              	.LBB207:
 674              	.LBB205:
 675              	.LBB203:
 676              	.LBI203:
 677              		.loc 5 491 27 view .LVU191
 678              	.LBB204:
 679              		.loc 5 493 3 view .LVU192
 680 0000 3023     		movs	r3, #48
 681              		.syntax unified
 682              	@ 493 "../ChibiOS/os/common/ext/ARM/CMSIS/Core/Include/cmsis_gcc.h" 1
 683 0002 83F31188 		MSR basepri, r3
 684              	@ 0 "" 2
ARM GAS  /tmp/cctASbqX.s 			page 13


 685              	.LVL24:
 686              		.loc 5 493 3 is_stmt 0 view .LVU193
 687              		.thumb
 688              		.syntax unified
 689              	.LBE204:
 690              	.LBE203:
 691              	.LBE205:
 692              	.LBE207:
 693              	.LBE210:
 694              		.loc 3 410 35 is_stmt 1 view .LVU194
 695              		.loc 3 411 21 view .LVU195
 696              		.loc 1 225 3 view .LVU196
 697              		.loc 1 225 3 view .LVU197
 698              		.loc 1 225 3 view .LVU198
 699              		.loc 1 227 3 view .LVU199
 700              		.loc 1 227 6 is_stmt 0 view .LVU200
 701 0006 0378     		ldrb	r3, [r0]	@ zero_extendqisi2
 702 0008 022B     		cmp	r3, #2
 703 000a 03D1     		bne	.L20
 704              		.loc 1 233 3 is_stmt 1 view .LVU201
 705              	.LBB211:
 706              	.LBI211:
 707              		.loc 2 584 20 view .LVU202
 708              	.LBE211:
 709              		.loc 2 586 3 view .LVU203
 710              	.LBB228:
 711              	.LBB212:
 712              	.LBI212:
 713              		.loc 3 421 20 view .LVU204
 714              	.LBB213:
 715              		.loc 3 423 23 view .LVU205
 716              		.loc 3 424 34 view .LVU206
 717              		.loc 3 430 3 view .LVU207
 718              		.loc 3 430 3 view .LVU208
 719              		.loc 3 430 3 view .LVU209
 720              		.loc 3 434 3 view .LVU210
 721              	.LBB214:
 722              	.LBI214:
 723              		.loc 4 830 27 view .LVU211
 724              	.LBE214:
 725              	.LBE213:
 726              	.LBE212:
 727              	.LBE228:
 728              		.loc 4 833 3 view .LVU212
 729              	.LVL25:
 730              	.LBB229:
 731              	.LBB225:
 732              	.LBB222:
 733              	.LBB219:
 734              	.LBB215:
 735              	.LBI215:
 736              		.loc 5 491 27 view .LVU213
 737              	.LBB216:
 738              		.loc 5 493 3 view .LVU214
 739 000c 0023     		movs	r3, #0
 740              		.syntax unified
 741              	@ 493 "../ChibiOS/os/common/ext/ARM/CMSIS/Core/Include/cmsis_gcc.h" 1
ARM GAS  /tmp/cctASbqX.s 			page 14


 742 000e 83F31188 		MSR basepri, r3
 743              	@ 0 "" 2
 744              	.LVL26:
 745              		.loc 5 493 3 is_stmt 0 view .LVU215
 746              		.thumb
 747              		.syntax unified
 748 0012 7047     		bx	lr
 749              	.L20:
 750              	.LBE216:
 751              	.LBE215:
 752              	.LBE219:
 753              	.LBE222:
 754              	.LBE225:
 755              	.LBE229:
 756              		.loc 1 220 41 view .LVU216
 757 0014 10B5     		push	{r4, lr}
 758              		.cfi_def_cfa_offset 8
 759              		.cfi_offset 4, -8
 760              		.cfi_offset 14, -4
 761 0016 0446     		mov	r4, r0
 762              		.loc 1 228 5 is_stmt 1 view .LVU217
 763 0018 FFF7FEFF 		bl	adc_lld_stop_conversion
 764              	.LVL27:
 765              		.loc 1 229 5 view .LVU218
 766              		.loc 1 230 17 is_stmt 0 view .LVU219
 767 001c 2046     		mov	r0, r4
 768              		.loc 1 229 17 view .LVU220
 769 001e 0022     		movs	r2, #0
 770              		.loc 1 230 17 view .LVU221
 771 0020 0223     		movs	r3, #2
 772              		.loc 1 229 17 view .LVU222
 773 0022 2261     		str	r2, [r4, #16]
 774              		.loc 1 230 5 is_stmt 1 view .LVU223
 775              	.LBB230:
 776              	.LBB231:
 777              		.loc 2 854 3 is_stmt 0 view .LVU224
 778 0024 6FF00101 		mvn	r1, #1
 779              	.LBE231:
 780              	.LBE230:
 781              		.loc 1 230 17 view .LVU225
 782 0028 00F8143B 		strb	r3, [r0], #20
 783              		.loc 1 231 5 is_stmt 1 view .LVU226
 784              	.LVL28:
 785              	.LBB233:
 786              	.LBI230:
 787              		.loc 2 852 20 view .LVU227
 788              	.LBB232:
 789              		.loc 2 854 3 view .LVU228
 790 002c FFF7FEFF 		bl	chThdResumeS
 791              	.LVL29:
 792              		.loc 2 854 3 is_stmt 0 view .LVU229
 793              	.LBE232:
 794              	.LBE233:
 795              		.loc 1 233 3 is_stmt 1 view .LVU230
 796              	.LBB234:
 797              		.loc 2 584 20 view .LVU231
 798              	.LBE234:
ARM GAS  /tmp/cctASbqX.s 			page 15


 799              		.loc 2 586 3 view .LVU232
 800              	.LBB235:
 801              	.LBB226:
 802              		.loc 3 421 20 view .LVU233
 803              	.LBB223:
 804              		.loc 3 423 23 view .LVU234
 805              		.loc 3 424 34 view .LVU235
 806              		.loc 3 430 3 view .LVU236
 807              		.loc 3 430 3 view .LVU237
 808              		.loc 3 430 3 view .LVU238
 809              		.loc 3 434 3 view .LVU239
 810              	.LBB220:
 811              		.loc 4 830 27 view .LVU240
 812              	.LBE220:
 813              	.LBE223:
 814              	.LBE226:
 815              	.LBE235:
 816              		.loc 4 833 3 view .LVU241
 817              	.LBB236:
 818              	.LBB227:
 819              	.LBB224:
 820              	.LBB221:
 821              	.LBB218:
 822              		.loc 5 491 27 view .LVU242
 823              	.LBB217:
 824              		.loc 5 493 3 view .LVU243
 825 0030 0023     		movs	r3, #0
 826              		.syntax unified
 827              	@ 493 "../ChibiOS/os/common/ext/ARM/CMSIS/Core/Include/cmsis_gcc.h" 1
 828 0032 83F31188 		MSR basepri, r3
 829              	@ 0 "" 2
 830              	.LVL30:
 831              		.loc 5 493 3 is_stmt 0 view .LVU244
 832              		.thumb
 833              		.syntax unified
 834              	.LBE217:
 835              	.LBE218:
 836              	.LBE221:
 837              	.LBE224:
 838              	.LBE227:
 839              	.LBE236:
 840              		.loc 1 234 1 view .LVU245
 841 0036 10BD     		pop	{r4, pc}
 842              		.loc 1 234 1 view .LVU246
 843              		.cfi_endproc
 844              	.LFE406:
 845              		.size	adcStopConversion, .-adcStopConversion
 846              		.section	.text.adcStopConversionI,"ax",%progbits
 847              		.align	1
 848              		.p2align 4,,15
 849              		.global	adcStopConversionI
 850              		.syntax unified
 851              		.thumb
 852              		.thumb_func
 853              		.fpu softvfp
 854              		.type	adcStopConversionI, %function
 855              	adcStopConversionI:
ARM GAS  /tmp/cctASbqX.s 			page 16


 856              	.LVL31:
 857              	.LFB407:
 858              		.loc 1 246 42 is_stmt 1 view -0
 859              		.cfi_startproc
 860              		@ args = 0, pretend = 0, frame = 0
 861              		@ frame_needed = 0, uses_anonymous_args = 0
 862              		.loc 1 248 23 view .LVU248
 863              		.loc 1 249 3 view .LVU249
 864              		.loc 1 249 3 view .LVU250
 865              		.loc 1 249 3 view .LVU251
 866              		.loc 1 250 3 view .LVU252
 867              		.loc 1 250 3 view .LVU253
 868              		.loc 1 250 3 view .LVU254
 869              		.loc 1 255 3 view .LVU255
 870              		.loc 1 255 6 is_stmt 0 view .LVU256
 871 0000 0378     		ldrb	r3, [r0]	@ zero_extendqisi2
 872 0002 022B     		cmp	r3, #2
 873 0004 00D1     		bne	.L26
 874 0006 7047     		bx	lr
 875              	.L26:
 876              		.loc 1 246 42 view .LVU257
 877 0008 10B5     		push	{r4, lr}
 878              		.cfi_def_cfa_offset 8
 879              		.cfi_offset 4, -8
 880              		.cfi_offset 14, -4
 881 000a 0446     		mov	r4, r0
 882              		.loc 1 256 5 is_stmt 1 view .LVU258
 883 000c FFF7FEFF 		bl	adc_lld_stop_conversion
 884              	.LVL32:
 885              		.loc 1 257 5 view .LVU259
 886              		.loc 1 258 17 is_stmt 0 view .LVU260
 887 0010 2046     		mov	r0, r4
 888              		.loc 1 257 17 view .LVU261
 889 0012 0022     		movs	r2, #0
 890              		.loc 1 258 17 view .LVU262
 891 0014 0223     		movs	r3, #2
 892              		.loc 1 257 17 view .LVU263
 893 0016 2261     		str	r2, [r4, #16]
 894              		.loc 1 258 5 is_stmt 1 view .LVU264
 895              		.loc 1 258 17 is_stmt 0 view .LVU265
 896 0018 00F8143B 		strb	r3, [r0], #20
 897              		.loc 1 259 5 is_stmt 1 view .LVU266
 898              	.LVL33:
 899              	.LBB237:
 900              	.LBI237:
 901              		.loc 2 837 20 view .LVU267
 902              	.LBB238:
 903              		.loc 2 839 3 view .LVU268
 904 001c 6FF00101 		mvn	r1, #1
 905              	.LBE238:
 906              	.LBE237:
 907              		.loc 1 261 1 is_stmt 0 view .LVU269
 908 0020 BDE81040 		pop	{r4, lr}
 909              		.cfi_restore 14
 910              		.cfi_restore 4
 911              		.cfi_def_cfa_offset 0
 912              	.LVL34:
ARM GAS  /tmp/cctASbqX.s 			page 17


 913              	.LBB240:
 914              	.LBB239:
 915              		.loc 2 839 3 view .LVU270
 916 0024 FFF7FEBF 		b	chThdResumeI
 917              	.LVL35:
 918              		.loc 2 839 3 view .LVU271
 919              	.LBE239:
 920              	.LBE240:
 921              		.cfi_endproc
 922              	.LFE407:
 923              		.size	adcStopConversionI, .-adcStopConversionI
 924              		.section	.text.adcConvert,"ax",%progbits
 925              		.align	1
 926              		.p2align 4,,15
 927              		.global	adcConvert
 928              		.syntax unified
 929              		.thumb
 930              		.thumb_func
 931              		.fpu softvfp
 932              		.type	adcConvert, %function
 933              	adcConvert:
 934              	.LVL36:
 935              	.LFB408:
 936              		.loc 1 290 32 is_stmt 1 view -0
 937              		.cfi_startproc
 938              		@ args = 0, pretend = 0, frame = 0
 939              		@ frame_needed = 0, uses_anonymous_args = 0
 940              		.loc 1 291 3 view .LVU273
 941              		.loc 1 293 3 view .LVU274
 942              	.LBB241:
 943              	.LBI241:
 944              		.loc 2 573 20 view .LVU275
 945              	.LBE241:
 946              		.loc 2 575 3 view .LVU276
 947              	.LBB253:
 948              	.LBB242:
 949              	.LBI242:
 950              		.loc 3 407 20 view .LVU277
 951              	.LBE242:
 952              	.LBE253:
 953              		.loc 3 409 3 view .LVU278
 954              	.LBB254:
 955              	.LBB250:
 956              	.LBB243:
 957              	.LBI243:
 958              		.loc 4 806 27 view .LVU279
 959              	.LBE243:
 960              	.LBE250:
 961              	.LBE254:
 962              		.loc 4 814 3 view .LVU280
 963              	.LBB255:
 964              	.LBB251:
 965              	.LBB248:
 966              	.LBB244:
 967              	.LBI244:
 968              		.loc 5 491 27 view .LVU281
 969              	.LBB245:
ARM GAS  /tmp/cctASbqX.s 			page 18


 970              		.loc 5 493 3 view .LVU282
 971              	.LBE245:
 972              	.LBE244:
 973              	.LBE248:
 974              	.LBE251:
 975              	.LBE255:
 976              		.loc 1 290 32 is_stmt 0 view .LVU283
 977 0000 10B5     		push	{r4, lr}
 978              		.cfi_def_cfa_offset 8
 979              		.cfi_offset 4, -8
 980              		.cfi_offset 14, -4
 981              	.LBB256:
 982              	.LBB252:
 983              	.LBB249:
 984              	.LBB247:
 985              	.LBB246:
 986              		.loc 5 493 3 view .LVU284
 987 0002 3024     		movs	r4, #48
 988              		.syntax unified
 989              	@ 493 "../ChibiOS/os/common/ext/ARM/CMSIS/Core/Include/cmsis_gcc.h" 1
 990 0004 84F31188 		MSR basepri, r4
 991              	@ 0 "" 2
 992              	.LVL37:
 993              		.loc 5 493 3 view .LVU285
 994              		.thumb
 995              		.syntax unified
 996              	.LBE246:
 997              	.LBE247:
 998              	.LBE249:
 999              	.LBE252:
 1000              	.LBE256:
 1001              		.loc 3 410 35 is_stmt 1 view .LVU286
 1002              		.loc 3 411 21 view .LVU287
 1003              		.loc 1 294 3 view .LVU288
 1004              		.loc 1 294 3 view .LVU289
 1005              		.loc 1 294 3 view .LVU290
 1006              		.loc 1 295 3 view .LVU291
 1007              	.LBB257:
 1008              	.LBI257:
 1009              		.loc 1 191 6 view .LVU292
 1010              	.LBB258:
 1011              		.loc 1 196 23 view .LVU293
 1012              		.loc 1 197 3 view .LVU294
 1013              		.loc 1 197 3 view .LVU295
 1014              		.loc 1 197 3 view .LVU296
 1015              		.loc 1 199 3 view .LVU297
 1016              		.loc 1 199 3 view .LVU298
 1017              		.loc 1 199 3 view .LVU299
 1018              		.loc 1 203 3 view .LVU300
 1019              		.loc 1 206 18 is_stmt 0 view .LVU301
 1020 0008 0446     		mov	r4, r0
 1021              		.loc 1 203 18 view .LVU302
 1022 000a 8260     		str	r2, [r0, #8]
 1023              		.loc 1 204 3 is_stmt 1 view .LVU303
 1024              		.loc 1 206 18 is_stmt 0 view .LVU304
 1025 000c 0322     		movs	r2, #3
 1026              	.LVL38:
ARM GAS  /tmp/cctASbqX.s 			page 19


 1027              		.loc 1 205 18 view .LVU305
 1028 000e C0E90331 		strd	r3, r1, [r0, #12]
 1029              		.loc 1 206 3 is_stmt 1 view .LVU306
 1030              		.loc 1 206 18 is_stmt 0 view .LVU307
 1031 0012 04F8142B 		strb	r2, [r4], #20
 1032              		.loc 1 207 3 is_stmt 1 view .LVU308
 1033 0016 FFF7FEFF 		bl	adc_lld_start_conversion
 1034              	.LVL39:
 1035              		.loc 1 207 3 is_stmt 0 view .LVU309
 1036              	.LBE258:
 1037              	.LBE257:
 1038              		.loc 1 296 3 is_stmt 1 view .LVU310
 1039              	.LBB259:
 1040              	.LBI259:
 1041              		.loc 2 797 21 view .LVU311
 1042              	.LBB260:
 1043              		.loc 2 799 3 view .LVU312
 1044              		.loc 2 799 10 is_stmt 0 view .LVU313
 1045 001a 4FF0FF31 		mov	r1, #-1
 1046 001e 2046     		mov	r0, r4
 1047 0020 FFF7FEFF 		bl	chThdSuspendTimeoutS
 1048              	.LVL40:
 1049              		.loc 2 799 10 view .LVU314
 1050              	.LBE260:
 1051              	.LBE259:
 1052              		.loc 1 297 3 is_stmt 1 view .LVU315
 1053              	.LBB261:
 1054              	.LBI261:
 1055              		.loc 2 584 20 view .LVU316
 1056              	.LBE261:
 1057              		.loc 2 586 3 view .LVU317
 1058              	.LBB270:
 1059              	.LBB262:
 1060              	.LBI262:
 1061              		.loc 3 421 20 view .LVU318
 1062              	.LBB263:
 1063              		.loc 3 423 23 view .LVU319
 1064              		.loc 3 424 34 view .LVU320
 1065              		.loc 3 430 3 view .LVU321
 1066              		.loc 3 430 3 view .LVU322
 1067              		.loc 3 430 3 view .LVU323
 1068              		.loc 3 434 3 view .LVU324
 1069              	.LBB264:
 1070              	.LBI264:
 1071              		.loc 4 830 27 view .LVU325
 1072              	.LBE264:
 1073              	.LBE263:
 1074              	.LBE262:
 1075              	.LBE270:
 1076              		.loc 4 833 3 view .LVU326
 1077              	.LBB271:
 1078              	.LBB269:
 1079              	.LBB268:
 1080              	.LBB267:
 1081              	.LBB265:
 1082              	.LBI265:
 1083              		.loc 5 491 27 view .LVU327
ARM GAS  /tmp/cctASbqX.s 			page 20


 1084              	.LBB266:
 1085              		.loc 5 493 3 view .LVU328
 1086 0024 0023     		movs	r3, #0
 1087              		.syntax unified
 1088              	@ 493 "../ChibiOS/os/common/ext/ARM/CMSIS/Core/Include/cmsis_gcc.h" 1
 1089 0026 83F31188 		MSR basepri, r3
 1090              	@ 0 "" 2
 1091              	.LVL41:
 1092              		.loc 5 493 3 is_stmt 0 view .LVU329
 1093              		.thumb
 1094              		.syntax unified
 1095              	.LBE266:
 1096              	.LBE265:
 1097              	.LBE267:
 1098              	.LBE268:
 1099              	.LBE269:
 1100              	.LBE271:
 1101              		.loc 1 298 3 is_stmt 1 view .LVU330
 1102              		.loc 1 299 1 is_stmt 0 view .LVU331
 1103 002a 10BD     		pop	{r4, pc}
 1104              		.loc 1 299 1 view .LVU332
 1105              		.cfi_endproc
 1106              	.LFE408:
 1107              		.size	adcConvert, .-adcConvert
 1108              		.section	.text.adcAcquireBus,"ax",%progbits
 1109              		.align	1
 1110              		.p2align 4,,15
 1111              		.global	adcAcquireBus
 1112              		.syntax unified
 1113              		.thumb
 1114              		.thumb_func
 1115              		.fpu softvfp
 1116              		.type	adcAcquireBus, %function
 1117              	adcAcquireBus:
 1118              	.LVL42:
 1119              	.LFB409:
 1120              		.loc 1 314 37 is_stmt 1 view -0
 1121              		.cfi_startproc
 1122              		@ args = 0, pretend = 0, frame = 0
 1123              		@ frame_needed = 0, uses_anonymous_args = 0
 1124              		@ link register save eliminated.
 1125              		.loc 1 316 3 view .LVU334
 1126              		.loc 1 316 3 view .LVU335
 1127              		.loc 1 316 3 view .LVU336
 1128              		.loc 1 318 3 view .LVU337
 1129              	.LBB272:
 1130              	.LBI272:
 1131              		.loc 2 1055 20 view .LVU338
 1132              	.LBB273:
 1133              		.loc 2 1058 3 view .LVU339
 1134 0000 1830     		adds	r0, r0, #24
 1135              	.LVL43:
 1136              		.loc 2 1058 3 is_stmt 0 view .LVU340
 1137 0002 FFF7FEBF 		b	chMtxLock
 1138              	.LVL44:
 1139              		.loc 2 1058 3 view .LVU341
 1140              	.LBE273:
ARM GAS  /tmp/cctASbqX.s 			page 21


 1141              	.LBE272:
 1142              		.cfi_endproc
 1143              	.LFE409:
 1144              		.size	adcAcquireBus, .-adcAcquireBus
 1145 0006 00BF     		.section	.text.adcReleaseBus,"ax",%progbits
 1146              		.align	1
 1147              		.p2align 4,,15
 1148              		.global	adcReleaseBus
 1149              		.syntax unified
 1150              		.thumb
 1151              		.thumb_func
 1152              		.fpu softvfp
 1153              		.type	adcReleaseBus, %function
 1154              	adcReleaseBus:
 1155              	.LVL45:
 1156              	.LFB410:
 1157              		.loc 1 330 37 is_stmt 1 view -0
 1158              		.cfi_startproc
 1159              		@ args = 0, pretend = 0, frame = 0
 1160              		@ frame_needed = 0, uses_anonymous_args = 0
 1161              		@ link register save eliminated.
 1162              		.loc 1 332 3 view .LVU343
 1163              		.loc 1 332 3 view .LVU344
 1164              		.loc 1 332 3 view .LVU345
 1165              		.loc 1 334 3 view .LVU346
 1166              	.LBB274:
 1167              	.LBI274:
 1168              		.loc 2 1079 20 view .LVU347
 1169              	.LBB275:
 1170              		.loc 2 1082 3 view .LVU348
 1171 0000 1830     		adds	r0, r0, #24
 1172              	.LVL46:
 1173              		.loc 2 1082 3 is_stmt 0 view .LVU349
 1174 0002 FFF7FEBF 		b	chMtxUnlock
 1175              	.LVL47:
 1176              		.loc 2 1082 3 view .LVU350
 1177              	.LBE275:
 1178              	.LBE274:
 1179              		.cfi_endproc
 1180              	.LFE410:
 1181              		.size	adcReleaseBus, .-adcReleaseBus
 1182 0006 00BF     		.text
 1183              	.Letext0:
 1184              		.file 6 "/opt/gcc-arm-none-eabi/gcc-arm-none-eabi-10.3-2021.07/lib/gcc/arm-none-eabi/10.3.1/includ
 1185              		.file 7 "/opt/gcc-arm-none-eabi/gcc-arm-none-eabi-10.3-2021.07/arm-none-eabi/include/machine/_defa
 1186              		.file 8 "/opt/gcc-arm-none-eabi/gcc-arm-none-eabi-10.3-2021.07/arm-none-eabi/include/sys/_stdint.h
 1187              		.file 9 "../ChibiOS/os/common/ports/ARM-common/chtypes.h"
 1188              		.file 10 "../ChibiOS/os/rt/include/chearly.h"
 1189              		.file 11 "../ChibiOS/os/rt/include/chobjects.h"
 1190              		.file 12 "../ChibiOS/os/rt/include/chrfcu.h"
 1191              		.file 13 "../ChibiOS/os/rt/include/chdebug.h"
 1192              		.file 14 "../ChibiOS/os/rt/include/chtime.h"
 1193              		.file 15 "../ChibiOS/os/rt/include/chlists.h"
 1194              		.file 16 "../ChibiOS/os/common/ext/ST/STM32L4xx/stm32l432xx.h"
 1195              		.file 17 "../ChibiOS/os/rt/include/chsem.h"
 1196              		.file 18 "../ChibiOS/os/rt/include/chmtx.h"
 1197              		.file 19 "../ChibiOS/os/hal/ports/STM32/LLD/DMAv1/stm32_dma.h"
ARM GAS  /tmp/cctASbqX.s 			page 22


 1198              		.file 20 "../ChibiOS/os/hal/include/hal_adc.h"
 1199              		.file 21 "../ChibiOS/os/hal/ports/STM32/LLD/ADCv3/hal_adc_lld.h"
 1200              		.file 22 "../ChibiOS/os/rt/include/chthreads.h"