ARM GAS  /tmp/cc9meDp5.s 			page 1


   1              		.cpu cortex-m4
   2              		.eabi_attribute 20, 1
   3              		.eabi_attribute 21, 1
   4              		.eabi_attribute 23, 3
   5              		.eabi_attribute 24, 1
   6              		.eabi_attribute 25, 1
   7              		.eabi_attribute 26, 1
   8              		.eabi_attribute 30, 2
   9              		.eabi_attribute 34, 1
  10              		.eabi_attribute 18, 4
  11              		.file	"hal_buffers.c"
  12              		.text
  13              	.Ltext0:
  14              		.cfi_sections	.debug_frame
  15              		.section	.text.ibqObjectInit,"ax",%progbits
  16              		.align	1
  17              		.p2align 4,,15
  18              		.global	ibqObjectInit
  19              		.arch armv7e-m
  20              		.syntax unified
  21              		.thumb
  22              		.thumb_func
  23              		.fpu softvfp
  24              		.type	ibqObjectInit, %function
  25              	ibqObjectInit:
  26              	.LVL0:
  27              	.LFB400:
  28              		.file 1 "../ChibiOS/os/hal/src/hal_buffers.c"
  29              		.loc 1 77 72 view -0
  30              		.cfi_startproc
  31              		@ args = 12, pretend = 0, frame = 0
  32              		@ frame_needed = 0, uses_anonymous_args = 0
  33              		@ link register save eliminated.
  34              		.loc 1 79 3 view .LVU1
  35              		.loc 1 79 3 view .LVU2
  36              		.loc 1 79 3 view .LVU3
  37              		.loc 1 81 3 view .LVU4
  38              		.loc 1 77 72 is_stmt 0 view .LVU5
  39 0000 10B4     		push	{r4}
  40              		.cfi_def_cfa_offset 4
  41              		.cfi_offset 4, -4
  42              		.loc 1 77 72 view .LVU6
  43 0002 019C     		ldr	r4, [sp, #4]
  44              	.LVL1:
  45              	.LBB224:
  46              	.LBI224:
  47              		.file 2 "../ChibiOS/os/hal/osal/rt-nil/osal.h"
  48              		.loc 2 864 20 is_stmt 1 view .LVU7
  49              	.LBE224:
  50              		.loc 2 866 3 view .LVU8
  51              	.LBB233:
  52              	.LBB225:
  53              	.LBI225:
  54              		.file 3 "../ChibiOS/os/rt/include/chthreads.h"
  55              		.loc 3 461 20 view .LVU9
  56              	.LBB226:
  57              		.loc 3 463 3 view .LVU10
ARM GAS  /tmp/cc9meDp5.s 			page 2


  58              	.LBB227:
  59              	.LBI227:
  60              		.file 4 "../ChibiOS/os/rt/include/chlists.h"
  61              		.loc 4 222 20 view .LVU11
  62              	.LBB228:
  63              		.loc 4 224 3 view .LVU12
  64              	.LBE228:
  65              	.LBE227:
  66              	.LBE226:
  67              	.LBE225:
  68              	.LBE233:
  69              		.loc 1 82 19 is_stmt 0 view .LVU13
  70 0004 0172     		strb	r1, [r0, #8]
  71              		.loc 1 86 33 view .LVU14
  72 0006 0433     		adds	r3, r3, #4
  73              	.LVL2:
  74              		.loc 1 87 19 view .LVU15
  75 0008 C361     		str	r3, [r0, #28]
  76              		.loc 1 86 24 view .LVU16
  77 000a 04FB0323 		mla	r3, r4, r3, r2
  78              	.LVL3:
  79              		.loc 1 89 19 view .LVU17
  80 000e C0E90842 		strd	r4, r2, [r0, #32]
  81              		.loc 1 85 19 view .LVU18
  82 0012 C0E90422 		strd	r2, r2, [r0, #16]
  83              		.loc 1 86 19 view .LVU19
  84 0016 8361     		str	r3, [r0, #24]
  85              		.loc 1 77 72 view .LVU20
  86 0018 DDE90223 		ldrd	r2, r3, [sp, #8]
  87              	.LVL4:
  88              		.loc 1 83 19 view .LVU21
  89 001c 0021     		movs	r1, #0
  90              	.LVL5:
  91              	.LBB234:
  92              	.LBB232:
  93              	.LBB231:
  94              	.LBB230:
  95              	.LBB229:
  96              		.loc 4 225 12 view .LVU22
  97 001e C0E90000 		strd	r0, r0, [r0]
  98              	.LVL6:
  99              		.loc 4 225 12 view .LVU23
 100              	.LBE229:
 101              	.LBE230:
 102              	.LBE231:
 103              	.LBE232:
 104              	.LBE234:
 105              		.loc 1 82 3 is_stmt 1 view .LVU24
 106              		.loc 1 83 3 view .LVU25
 107              		.loc 1 91 19 is_stmt 0 view .LVU26
 108 0022 C0E90A11 		strd	r1, r1, [r0, #40]
 109              		.loc 1 93 19 view .LVU27
 110 0026 C0E90C23 		strd	r2, r3, [r0, #48]
 111              		.loc 1 94 1 view .LVU28
 112 002a 10BC     		pop	{r4}
 113              		.cfi_restore 4
 114              		.cfi_def_cfa_offset 0
ARM GAS  /tmp/cc9meDp5.s 			page 3


 115              	.LVL7:
 116              		.loc 1 83 19 view .LVU29
 117 002c C160     		str	r1, [r0, #12]
 118              		.loc 1 84 3 is_stmt 1 view .LVU30
 119              		.loc 1 86 3 view .LVU31
 120              		.loc 1 87 3 view .LVU32
 121              		.loc 1 88 3 view .LVU33
 122              		.loc 1 90 3 view .LVU34
 123              		.loc 1 92 3 view .LVU35
 124              		.loc 1 94 1 is_stmt 0 view .LVU36
 125 002e 7047     		bx	lr
 126              		.cfi_endproc
 127              	.LFE400:
 128              		.size	ibqObjectInit, .-ibqObjectInit
 129              		.section	.text.ibqResetI,"ax",%progbits
 130              		.align	1
 131              		.p2align 4,,15
 132              		.global	ibqResetI
 133              		.syntax unified
 134              		.thumb
 135              		.thumb_func
 136              		.fpu softvfp
 137              		.type	ibqResetI, %function
 138              	ibqResetI:
 139              	.LVL8:
 140              	.LFB401:
 141              		.loc 1 107 45 is_stmt 1 view -0
 142              		.cfi_startproc
 143              		@ args = 0, pretend = 0, frame = 0
 144              		@ frame_needed = 0, uses_anonymous_args = 0
 145              		@ link register save eliminated.
 146              		.loc 1 109 23 view .LVU38
 147              		.loc 1 111 3 view .LVU39
 148              		.loc 1 112 25 is_stmt 0 view .LVU40
 149 0000 416A     		ldr	r1, [r0, #36]
 150              		.loc 1 111 19 view .LVU41
 151 0002 0022     		movs	r2, #0
 152              		.loc 1 113 19 view .LVU42
 153 0004 C0E90411 		strd	r1, r1, [r0, #16]
 154              		.loc 1 115 19 view .LVU43
 155 0008 C0E90A22 		strd	r2, r2, [r0, #40]
 156              		.loc 1 111 19 view .LVU44
 157 000c C260     		str	r2, [r0, #12]
 158              		.loc 1 112 3 is_stmt 1 view .LVU45
 159              		.loc 1 114 3 view .LVU46
 160              		.loc 1 116 3 view .LVU47
 161              	.LVL9:
 162              	.LBB235:
 163              	.LBI235:
 164              		.loc 2 919 20 view .LVU48
 165              	.LBB236:
 166              		.loc 2 921 3 view .LVU49
 167 000e 6FF00101 		mvn	r1, #1
 168 0012 FFF7FEBF 		b	chThdDequeueAllI
 169              	.LVL10:
 170              		.loc 2 921 3 is_stmt 0 view .LVU50
 171              	.LBE236:
ARM GAS  /tmp/cc9meDp5.s 			page 4


 172              	.LBE235:
 173              		.cfi_endproc
 174              	.LFE401:
 175              		.size	ibqResetI, .-ibqResetI
 176 0016 00BF     		.section	.text.ibqGetEmptyBufferI,"ax",%progbits
 177              		.align	1
 178              		.p2align 4,,15
 179              		.global	ibqGetEmptyBufferI
 180              		.syntax unified
 181              		.thumb
 182              		.thumb_func
 183              		.fpu softvfp
 184              		.type	ibqGetEmptyBufferI, %function
 185              	ibqGetEmptyBufferI:
 186              	.LVL11:
 187              	.LFB402:
 188              		.loc 1 129 58 is_stmt 1 view -0
 189              		.cfi_startproc
 190              		@ args = 0, pretend = 0, frame = 0
 191              		@ frame_needed = 0, uses_anonymous_args = 0
 192              		@ link register save eliminated.
 193              		.loc 1 131 23 view .LVU52
 194              		.loc 1 133 3 view .LVU53
 195              		.loc 1 133 7 is_stmt 0 view .LVU54
 196 0000 D0E90432 		ldrd	r3, r2, [r0, #16]
 197 0004 9342     		cmp	r3, r2
 198 0006 01D0     		beq	.L11
 199              	.L6:
 200              		.loc 1 137 3 is_stmt 1 view .LVU55
 201              		.loc 1 137 23 is_stmt 0 view .LVU56
 202 0008 181D     		adds	r0, r3, #4
 203              	.LVL12:
 204              		.loc 1 138 1 view .LVU57
 205 000a 7047     		bx	lr
 206              	.LVL13:
 207              	.L11:
 208              		.loc 1 133 7 discriminator 1 view .LVU58
 209 000c C268     		ldr	r2, [r0, #12]
 210 000e 002A     		cmp	r2, #0
 211 0010 FAD0     		beq	.L6
 212              		.loc 1 134 12 view .LVU59
 213 0012 0020     		movs	r0, #0
 214              	.LVL14:
 215              		.loc 1 134 12 view .LVU60
 216 0014 7047     		bx	lr
 217              		.cfi_endproc
 218              	.LFE402:
 219              		.size	ibqGetEmptyBufferI, .-ibqGetEmptyBufferI
 220 0016 00BF     		.section	.text.ibqPostFullBufferI,"ax",%progbits
 221              		.align	1
 222              		.p2align 4,,15
 223              		.global	ibqPostFullBufferI
 224              		.syntax unified
 225              		.thumb
 226              		.thumb_func
 227              		.fpu softvfp
 228              		.type	ibqPostFullBufferI, %function
ARM GAS  /tmp/cc9meDp5.s 			page 5


 229              	ibqPostFullBufferI:
 230              	.LVL15:
 231              	.LFB403:
 232              		.loc 1 148 67 is_stmt 1 view -0
 233              		.cfi_startproc
 234              		@ args = 0, pretend = 0, frame = 0
 235              		@ frame_needed = 0, uses_anonymous_args = 0
 236              		@ link register save eliminated.
 237              		.loc 1 150 23 view .LVU62
 238              		.loc 1 152 3 view .LVU63
 239              		.loc 1 152 3 view .LVU64
 240              		.loc 1 152 3 view .LVU65
 241              		.loc 1 153 3 view .LVU66
 242              		.loc 1 153 3 view .LVU67
 243              		.loc 1 153 3 view .LVU68
 244              		.loc 1 156 3 view .LVU69
 245              		.loc 1 156 27 is_stmt 0 view .LVU70
 246 0000 0369     		ldr	r3, [r0, #16]
 247              		.loc 1 148 67 view .LVU71
 248 0002 10B4     		push	{r4}
 249              		.cfi_def_cfa_offset 4
 250              		.cfi_offset 4, -4
 251              		.loc 1 161 6 view .LVU72
 252 0004 8469     		ldr	r4, [r0, #24]
 253              		.loc 1 156 37 view .LVU73
 254 0006 1960     		str	r1, [r3]
 255              		.loc 1 159 3 is_stmt 1 view .LVU74
 256              		.loc 1 160 16 is_stmt 0 view .LVU75
 257 0008 C169     		ldr	r1, [r0, #28]
 258              	.LVL16:
 259              		.loc 1 159 7 view .LVU76
 260 000a C268     		ldr	r2, [r0, #12]
 261              		.loc 1 160 16 view .LVU77
 262 000c 0B44     		add	r3, r3, r1
 263              	.LVL17:
 264              		.loc 1 161 6 view .LVU78
 265 000e A342     		cmp	r3, r4
 266              		.loc 1 160 16 view .LVU79
 267 0010 0361     		str	r3, [r0, #16]
 268              	.LVL18:
 269              		.loc 1 159 17 view .LVU80
 270 0012 02F10102 		add	r2, r2, #1
 271              		.loc 1 162 18 view .LVU81
 272 0016 28BF     		it	cs
 273 0018 436A     		ldrcs	r3, [r0, #36]
 274              		.loc 1 167 1 view .LVU82
 275 001a 10BC     		pop	{r4}
 276              		.cfi_restore 4
 277              		.cfi_def_cfa_offset 0
 278              		.loc 1 159 17 view .LVU83
 279 001c C260     		str	r2, [r0, #12]
 280              		.loc 1 160 3 is_stmt 1 view .LVU84
 281              		.loc 1 161 3 view .LVU85
 282              		.loc 1 162 5 view .LVU86
 283              		.loc 1 162 18 is_stmt 0 view .LVU87
 284 001e 28BF     		it	cs
 285 0020 0361     		strcs	r3, [r0, #16]
ARM GAS  /tmp/cc9meDp5.s 			page 6


 286              		.loc 1 166 3 is_stmt 1 view .LVU88
 287              	.LVL19:
 288              	.LBB237:
 289              	.LBI237:
 290              		.loc 2 906 20 view .LVU89
 291              	.LBB238:
 292              		.loc 2 908 3 view .LVU90
 293 0022 0021     		movs	r1, #0
 294 0024 FFF7FEBF 		b	chThdDequeueNextI
 295              	.LVL20:
 296              		.loc 2 908 3 is_stmt 0 view .LVU91
 297              	.LBE238:
 298              	.LBE237:
 299              		.cfi_endproc
 300              	.LFE403:
 301              		.size	ibqPostFullBufferI, .-ibqPostFullBufferI
 302              		.section	.text.ibqGetFullBufferTimeout,"ax",%progbits
 303              		.align	1
 304              		.p2align 4,,15
 305              		.global	ibqGetFullBufferTimeout
 306              		.syntax unified
 307              		.thumb
 308              		.thumb_func
 309              		.fpu softvfp
 310              		.type	ibqGetFullBufferTimeout, %function
 311              	ibqGetFullBufferTimeout:
 312              	.LVL21:
 313              	.LFB404:
 314              		.loc 1 191 54 is_stmt 1 view -0
 315              		.cfi_startproc
 316              		@ args = 0, pretend = 0, frame = 0
 317              		@ frame_needed = 0, uses_anonymous_args = 0
 318              		.loc 1 191 54 is_stmt 0 view .LVU93
 319 0000 38B5     		push	{r3, r4, r5, lr}
 320              		.cfi_def_cfa_offset 16
 321              		.cfi_offset 3, -16
 322              		.cfi_offset 4, -12
 323              		.cfi_offset 5, -8
 324              		.cfi_offset 14, -4
 325              		.loc 1 191 54 view .LVU94
 326 0002 0446     		mov	r4, r0
 327              		.loc 1 192 3 is_stmt 1 view .LVU95
 328              		.loc 1 194 3 view .LVU96
 329              	.LBB260:
 330              	.LBI260:
 331              		.loc 2 573 20 view .LVU97
 332              	.LBE260:
 333              		.loc 2 575 3 view .LVU98
 334              	.LBB272:
 335              	.LBB261:
 336              	.LBI261:
 337              		.file 5 "../ChibiOS/os/rt/include/chsys.h"
 338              		.loc 5 407 20 view .LVU99
 339              	.LBE261:
 340              	.LBE272:
 341              		.loc 5 409 3 view .LVU100
 342              	.LBB273:
ARM GAS  /tmp/cc9meDp5.s 			page 7


 343              	.LBB269:
 344              	.LBB262:
 345              	.LBI262:
 346              		.file 6 "../ChibiOS/os/common/ports/ARMv7-M/chcore.h"
 347              		.loc 6 806 27 view .LVU101
 348              	.LBE262:
 349              	.LBE269:
 350              	.LBE273:
 351              		.loc 6 814 3 view .LVU102
 352              	.LVL22:
 353              	.LBB274:
 354              	.LBB270:
 355              	.LBB267:
 356              	.LBB263:
 357              	.LBI263:
 358              		.file 7 "../ChibiOS/os/common/ext/ARM/CMSIS/Core/Include/cmsis_gcc.h"
 359              		.loc 7 491 27 view .LVU103
 360              	.LBB264:
 361              		.loc 7 493 3 view .LVU104
 362              	.LBE264:
 363              	.LBE263:
 364              	.LBE267:
 365              	.LBE270:
 366              	.LBE274:
 367              		.loc 1 191 54 is_stmt 0 view .LVU105
 368 0004 0D46     		mov	r5, r1
 369              	.LBB275:
 370              	.LBB271:
 371              	.LBB268:
 372              	.LBB266:
 373              	.LBB265:
 374              		.loc 7 493 3 view .LVU106
 375 0006 3023     		movs	r3, #48
 376              		.syntax unified
 377              	@ 493 "../ChibiOS/os/common/ext/ARM/CMSIS/Core/Include/cmsis_gcc.h" 1
 378 0008 83F31188 		MSR basepri, r3
 379              	@ 0 "" 2
 380              	.LVL23:
 381              		.loc 7 493 3 view .LVU107
 382              		.thumb
 383              		.syntax unified
 384              	.LBE265:
 385              	.LBE266:
 386              	.LBE268:
 387              	.LBE271:
 388              	.LBE275:
 389              		.loc 5 410 35 is_stmt 1 view .LVU108
 390              		.loc 5 411 21 view .LVU109
 391              		.loc 1 195 3 view .LVU110
 392              	.LBB276:
 393              	.LBI276:
 394              		.loc 1 222 9 view .LVU111
 395              	.LBB277:
 396              		.loc 1 225 23 view .LVU112
 397              		.loc 1 227 3 view .LVU113
 398              		.loc 1 227 9 is_stmt 0 view .LVU114
 399 000c 05E0     		b	.L16
ARM GAS  /tmp/cc9meDp5.s 			page 8


 400              	.LVL24:
 401              	.L18:
 402              	.LBB278:
 403              		.loc 1 228 8 view .LVU115
 404 000e 237A     		ldrb	r3, [r4, #8]	@ zero_extendqisi2
 405 0010 9BB9     		cbnz	r3, .L19
 406              	.LBB279:
 407              	.LBB280:
 408              		.loc 2 895 10 view .LVU116
 409 0012 FFF7FEFF 		bl	chThdEnqueueTimeoutS
 410              	.LVL25:
 411              		.loc 2 895 10 view .LVU117
 412              	.LBE280:
 413              	.LBE279:
 414              		.loc 1 232 5 is_stmt 1 view .LVU118
 415              		.loc 1 232 8 is_stmt 0 view .LVU119
 416 0016 0028     		cmp	r0, #0
 417              		.loc 1 232 8 view .LVU120
 418 0018 0BDB     		blt	.L17
 419              	.LVL26:
 420              	.L16:
 421              		.loc 1 228 5 is_stmt 1 view .LVU121
 422              		.loc 1 231 5 view .LVU122
 423              	.LBB283:
 424              	.LBI279:
 425              		.loc 2 892 21 view .LVU123
 426              	.LBB281:
 427              		.loc 2 895 3 view .LVU124
 428              	.LBE281:
 429              	.LBE283:
 430              	.LBE278:
 431              		.loc 1 227 9 view .LVU125
 432              		.loc 1 227 10 is_stmt 0 view .LVU126
 433 001a E368     		ldr	r3, [r4, #12]
 434              	.LBB285:
 435              	.LBB284:
 436              	.LBB282:
 437              		.loc 2 895 10 view .LVU127
 438 001c 2946     		mov	r1, r5
 439 001e 2046     		mov	r0, r4
 440              	.LBE282:
 441              	.LBE284:
 442              	.LBE285:
 443              		.loc 1 227 9 view .LVU128
 444 0020 002B     		cmp	r3, #0
 445 0022 F4D0     		beq	.L18
 446              	.LVL27:
 447              	.LBB286:
 448              	.LBI286:
 449              		.loc 1 222 9 is_stmt 1 view .LVU129
 450              	.LBB287:
 451              		.loc 1 237 3 view .LVU130
 452              		.loc 1 237 3 view .LVU131
 453              		.loc 1 237 3 view .LVU132
 454              		.loc 1 240 3 view .LVU133
 455              		.loc 1 240 19 is_stmt 0 view .LVU134
 456 0024 6369     		ldr	r3, [r4, #20]
ARM GAS  /tmp/cc9meDp5.s 			page 9


 457              		.loc 1 241 25 view .LVU135
 458 0026 1A68     		ldr	r2, [r3]
 459              		.loc 1 240 28 view .LVU136
 460 0028 0433     		adds	r3, r3, #4
 461              		.loc 1 241 25 view .LVU137
 462 002a 1A44     		add	r2, r2, r3
 463              		.loc 1 241 13 view .LVU138
 464 002c C4E90A32 		strd	r3, r2, [r4, #40]
 465              		.loc 1 243 3 is_stmt 1 view .LVU139
 466              	.LVL28:
 467              		.loc 1 241 13 is_stmt 0 view .LVU140
 468 0030 0020     		movs	r0, #0
 469              	.LVL29:
 470              	.L17:
 471              		.loc 1 241 13 view .LVU141
 472              	.LBE287:
 473              	.LBE286:
 474              	.LBE277:
 475              	.LBE276:
 476              		.loc 1 196 3 is_stmt 1 view .LVU142
 477              	.LBB290:
 478              	.LBI290:
 479              		.loc 2 584 20 view .LVU143
 480              	.LBE290:
 481              		.loc 2 586 3 view .LVU144
 482              	.LBB307:
 483              	.LBB291:
 484              	.LBI291:
 485              		.loc 5 421 20 view .LVU145
 486              	.LBB292:
 487              		.loc 5 423 23 view .LVU146
 488              		.loc 5 424 34 view .LVU147
 489              		.loc 5 430 3 view .LVU148
 490              		.loc 5 430 3 view .LVU149
 491              		.loc 5 430 3 view .LVU150
 492              		.loc 5 434 3 view .LVU151
 493              	.LBB293:
 494              	.LBI293:
 495              		.loc 6 830 27 view .LVU152
 496              	.LBE293:
 497              	.LBE292:
 498              	.LBE291:
 499              	.LBE307:
 500              		.loc 6 833 3 view .LVU153
 501              	.LBB308:
 502              	.LBB304:
 503              	.LBB301:
 504              	.LBB298:
 505              	.LBB294:
 506              	.LBI294:
 507              		.loc 7 491 27 view .LVU154
 508              	.LBB295:
 509              		.loc 7 493 3 view .LVU155
 510 0032 0023     		movs	r3, #0
 511              		.syntax unified
 512              	@ 493 "../ChibiOS/os/common/ext/ARM/CMSIS/Core/Include/cmsis_gcc.h" 1
 513 0034 83F31188 		MSR basepri, r3
ARM GAS  /tmp/cc9meDp5.s 			page 10


 514              	@ 0 "" 2
 515              	.LVL30:
 516              		.loc 7 493 3 is_stmt 0 view .LVU156
 517              		.thumb
 518              		.syntax unified
 519              	.LBE295:
 520              	.LBE294:
 521              	.LBE298:
 522              	.LBE301:
 523              	.LBE304:
 524              	.LBE308:
 525              		.loc 1 198 3 is_stmt 1 view .LVU157
 526              		.loc 1 199 1 is_stmt 0 view .LVU158
 527 0038 38BD     		pop	{r3, r4, r5, pc}
 528              	.LVL31:
 529              	.L19:
 530              	.LBB309:
 531              	.LBB289:
 532              	.LBB288:
 533              		.loc 1 229 14 view .LVU159
 534 003a 6FF00100 		mvn	r0, #1
 535              	.LVL32:
 536              		.loc 1 229 14 view .LVU160
 537              	.LBE288:
 538              	.LBE289:
 539              	.LBE309:
 540              		.loc 1 196 3 is_stmt 1 view .LVU161
 541              	.LBB310:
 542              		.loc 2 584 20 view .LVU162
 543              	.LBE310:
 544              		.loc 2 586 3 view .LVU163
 545              	.LBB311:
 546              	.LBB305:
 547              		.loc 5 421 20 view .LVU164
 548              	.LBB302:
 549              		.loc 5 423 23 view .LVU165
 550              		.loc 5 424 34 view .LVU166
 551              		.loc 5 430 3 view .LVU167
 552              		.loc 5 430 3 view .LVU168
 553              		.loc 5 430 3 view .LVU169
 554              		.loc 5 434 3 view .LVU170
 555              	.LBB299:
 556              		.loc 6 830 27 view .LVU171
 557              	.LBE299:
 558              	.LBE302:
 559              	.LBE305:
 560              	.LBE311:
 561              		.loc 6 833 3 view .LVU172
 562              	.LBB312:
 563              	.LBB306:
 564              	.LBB303:
 565              	.LBB300:
 566              	.LBB297:
 567              		.loc 7 491 27 view .LVU173
 568              	.LBB296:
 569              		.loc 7 493 3 view .LVU174
 570 003e 0023     		movs	r3, #0
ARM GAS  /tmp/cc9meDp5.s 			page 11


 571              		.syntax unified
 572              	@ 493 "../ChibiOS/os/common/ext/ARM/CMSIS/Core/Include/cmsis_gcc.h" 1
 573 0040 83F31188 		MSR basepri, r3
 574              	@ 0 "" 2
 575              	.LVL33:
 576              		.loc 7 493 3 is_stmt 0 view .LVU175
 577              		.thumb
 578              		.syntax unified
 579              	.LBE296:
 580              	.LBE297:
 581              	.LBE300:
 582              	.LBE303:
 583              	.LBE306:
 584              	.LBE312:
 585              		.loc 1 198 3 is_stmt 1 view .LVU176
 586              		.loc 1 199 1 is_stmt 0 view .LVU177
 587 0044 38BD     		pop	{r3, r4, r5, pc}
 588              		.loc 1 199 1 view .LVU178
 589              		.cfi_endproc
 590              	.LFE404:
 591              		.size	ibqGetFullBufferTimeout, .-ibqGetFullBufferTimeout
 592 0046 00BF     		.section	.text.ibqGetFullBufferTimeoutS,"ax",%progbits
 593              		.align	1
 594              		.p2align 4,,15
 595              		.global	ibqGetFullBufferTimeoutS
 596              		.syntax unified
 597              		.thumb
 598              		.thumb_func
 599              		.fpu softvfp
 600              		.type	ibqGetFullBufferTimeoutS, %function
 601              	ibqGetFullBufferTimeoutS:
 602              	.LVL34:
 603              	.LFB405:
 604              		.loc 1 223 57 is_stmt 1 view -0
 605              		.cfi_startproc
 606              		@ args = 0, pretend = 0, frame = 0
 607              		@ frame_needed = 0, uses_anonymous_args = 0
 608              		.loc 1 223 57 is_stmt 0 view .LVU180
 609 0000 38B5     		push	{r3, r4, r5, lr}
 610              		.cfi_def_cfa_offset 16
 611              		.cfi_offset 3, -16
 612              		.cfi_offset 4, -12
 613              		.cfi_offset 5, -8
 614              		.cfi_offset 14, -4
 615              		.loc 1 223 57 view .LVU181
 616 0002 0446     		mov	r4, r0
 617              		.loc 1 225 23 is_stmt 1 view .LVU182
 618              		.loc 1 227 3 view .LVU183
 619              		.loc 1 223 57 is_stmt 0 view .LVU184
 620 0004 0D46     		mov	r5, r1
 621              		.loc 1 227 9 view .LVU185
 622 0006 05E0     		b	.L22
 623              	.LVL35:
 624              	.L24:
 625              	.LBB324:
 626              		.loc 1 228 8 view .LVU186
 627 0008 237A     		ldrb	r3, [r4, #8]	@ zero_extendqisi2
ARM GAS  /tmp/cc9meDp5.s 			page 12


 628 000a 83B9     		cbnz	r3, .L25
 629              	.LBB325:
 630              	.LBB326:
 631              		.loc 2 895 10 view .LVU187
 632 000c FFF7FEFF 		bl	chThdEnqueueTimeoutS
 633              	.LVL36:
 634              		.loc 2 895 10 view .LVU188
 635              	.LBE326:
 636              	.LBE325:
 637              		.loc 1 232 5 is_stmt 1 view .LVU189
 638              		.loc 1 232 8 is_stmt 0 view .LVU190
 639 0010 0028     		cmp	r0, #0
 640              		.loc 1 232 8 view .LVU191
 641 0012 0BDB     		blt	.L21
 642              	.LVL37:
 643              	.L22:
 644              		.loc 1 228 5 is_stmt 1 view .LVU192
 645              		.loc 1 231 5 view .LVU193
 646              	.LBB329:
 647              	.LBI325:
 648              		.loc 2 892 21 view .LVU194
 649              	.LBB327:
 650              		.loc 2 895 3 view .LVU195
 651              	.LBE327:
 652              	.LBE329:
 653              	.LBE324:
 654              		.loc 1 227 9 view .LVU196
 655              		.loc 1 227 10 is_stmt 0 view .LVU197
 656 0014 E368     		ldr	r3, [r4, #12]
 657              	.LBB331:
 658              	.LBB330:
 659              	.LBB328:
 660              		.loc 2 895 10 view .LVU198
 661 0016 2946     		mov	r1, r5
 662 0018 2046     		mov	r0, r4
 663              	.LBE328:
 664              	.LBE330:
 665              	.LBE331:
 666              		.loc 1 227 9 view .LVU199
 667 001a 002B     		cmp	r3, #0
 668 001c F4D0     		beq	.L24
 669              	.LVL38:
 670              	.LBB332:
 671              	.LBI332:
 672              		.loc 1 222 9 is_stmt 1 view .LVU200
 673              	.LBB333:
 674              		.loc 1 237 3 view .LVU201
 675              		.loc 1 237 3 view .LVU202
 676              		.loc 1 237 3 view .LVU203
 677              		.loc 1 240 3 view .LVU204
 678              		.loc 1 240 19 is_stmt 0 view .LVU205
 679 001e 6369     		ldr	r3, [r4, #20]
 680              		.loc 1 241 25 view .LVU206
 681 0020 1A68     		ldr	r2, [r3]
 682              		.loc 1 240 28 view .LVU207
 683 0022 0433     		adds	r3, r3, #4
 684              		.loc 1 241 25 view .LVU208
ARM GAS  /tmp/cc9meDp5.s 			page 13


 685 0024 1A44     		add	r2, r2, r3
 686              		.loc 1 241 13 view .LVU209
 687 0026 C4E90A32 		strd	r3, r2, [r4, #40]
 688              		.loc 1 243 3 is_stmt 1 view .LVU210
 689              	.LVL39:
 690              		.loc 1 241 13 is_stmt 0 view .LVU211
 691 002a 0020     		movs	r0, #0
 692              	.LVL40:
 693              	.L21:
 694              		.loc 1 241 13 view .LVU212
 695              	.LBE333:
 696              	.LBE332:
 697              		.loc 1 244 1 view .LVU213
 698 002c 38BD     		pop	{r3, r4, r5, pc}
 699              	.LVL41:
 700              	.L25:
 701              	.LBB334:
 702              		.loc 1 229 14 view .LVU214
 703 002e 6FF00100 		mvn	r0, #1
 704              	.LVL42:
 705              		.loc 1 229 14 view .LVU215
 706              	.LBE334:
 707              		.loc 1 244 1 view .LVU216
 708 0032 38BD     		pop	{r3, r4, r5, pc}
 709              		.loc 1 244 1 view .LVU217
 710              		.cfi_endproc
 711              	.LFE405:
 712              		.size	ibqGetFullBufferTimeoutS, .-ibqGetFullBufferTimeoutS
 713              		.section	.text.ibqReleaseEmptyBuffer,"ax",%progbits
 714              		.align	1
 715              		.p2align 4,,15
 716              		.global	ibqReleaseEmptyBuffer
 717              		.syntax unified
 718              		.thumb
 719              		.thumb_func
 720              		.fpu softvfp
 721              		.type	ibqReleaseEmptyBuffer, %function
 722              	ibqReleaseEmptyBuffer:
 723              	.LVL43:
 724              	.LFB406:
 725              		.loc 1 254 57 is_stmt 1 view -0
 726              		.cfi_startproc
 727              		@ args = 0, pretend = 0, frame = 0
 728              		@ frame_needed = 0, uses_anonymous_args = 0
 729              		.loc 1 256 3 view .LVU219
 730              	.LBB348:
 731              	.LBI348:
 732              		.loc 2 573 20 view .LVU220
 733              	.LBE348:
 734              		.loc 2 575 3 view .LVU221
 735              	.LBB360:
 736              	.LBB349:
 737              	.LBI349:
 738              		.loc 5 407 20 view .LVU222
 739              	.LBE349:
 740              	.LBE360:
 741              		.loc 5 409 3 view .LVU223
ARM GAS  /tmp/cc9meDp5.s 			page 14


 742              	.LBB361:
 743              	.LBB357:
 744              	.LBB350:
 745              	.LBI350:
 746              		.loc 6 806 27 view .LVU224
 747              	.LBE350:
 748              	.LBE357:
 749              	.LBE361:
 750              		.loc 6 814 3 view .LVU225
 751              	.LBB362:
 752              	.LBB358:
 753              	.LBB355:
 754              	.LBB351:
 755              	.LBI351:
 756              		.loc 7 491 27 view .LVU226
 757              	.LBB352:
 758              		.loc 7 493 3 view .LVU227
 759              	.LBE352:
 760              	.LBE351:
 761              	.LBE355:
 762              	.LBE358:
 763              	.LBE362:
 764              		.loc 1 254 57 is_stmt 0 view .LVU228
 765 0000 08B5     		push	{r3, lr}
 766              		.cfi_def_cfa_offset 8
 767              		.cfi_offset 3, -8
 768              		.cfi_offset 14, -4
 769              	.LBB363:
 770              	.LBB359:
 771              	.LBB356:
 772              	.LBB354:
 773              	.LBB353:
 774              		.loc 7 493 3 view .LVU229
 775 0002 3023     		movs	r3, #48
 776              		.syntax unified
 777              	@ 493 "../ChibiOS/os/common/ext/ARM/CMSIS/Core/Include/cmsis_gcc.h" 1
 778 0004 83F31188 		MSR basepri, r3
 779              	@ 0 "" 2
 780              	.LVL44:
 781              		.loc 7 493 3 view .LVU230
 782              		.thumb
 783              		.syntax unified
 784              	.LBE353:
 785              	.LBE354:
 786              	.LBE356:
 787              	.LBE359:
 788              	.LBE363:
 789              		.loc 5 410 35 is_stmt 1 view .LVU231
 790              		.loc 5 411 21 view .LVU232
 791              		.loc 1 257 3 view .LVU233
 792              	.LBB364:
 793              	.LBI364:
 794              		.loc 1 269 8 view .LVU234
 795              	.LBB365:
 796              		.loc 1 271 23 view .LVU235
 797              		.loc 1 272 3 view .LVU236
 798              		.loc 1 272 3 view .LVU237
ARM GAS  /tmp/cc9meDp5.s 			page 15


 799              		.loc 1 272 3 view .LVU238
 800              		.loc 1 275 3 view .LVU239
 801              		.loc 1 277 6 is_stmt 0 view .LVU240
 802 0008 D0E90531 		ldrd	r3, r1, [r0, #20]
 803              		.loc 1 276 16 view .LVU241
 804 000c D0F81CC0 		ldr	ip, [r0, #28]
 805              		.loc 1 275 7 view .LVU242
 806 0010 C268     		ldr	r2, [r0, #12]
 807              		.loc 1 276 16 view .LVU243
 808 0012 6344     		add	r3, r3, ip
 809              		.loc 1 277 6 view .LVU244
 810 0014 8B42     		cmp	r3, r1
 811              		.loc 1 276 16 view .LVU245
 812 0016 4361     		str	r3, [r0, #20]
 813              		.loc 1 278 18 view .LVU246
 814 0018 24BF     		itt	cs
 815 001a 436A     		ldrcs	r3, [r0, #36]
 816 001c 4361     		strcs	r3, [r0, #20]
 817              		.loc 1 275 17 view .LVU247
 818 001e 013A     		subs	r2, r2, #1
 819              		.loc 1 285 11 view .LVU248
 820 0020 036B     		ldr	r3, [r0, #48]
 821              		.loc 1 275 17 view .LVU249
 822 0022 C260     		str	r2, [r0, #12]
 823              		.loc 1 276 3 is_stmt 1 view .LVU250
 824              		.loc 1 277 3 view .LVU251
 825              		.loc 1 278 5 view .LVU252
 826              		.loc 1 282 3 view .LVU253
 827              		.loc 1 282 13 is_stmt 0 view .LVU254
 828 0024 0022     		movs	r2, #0
 829 0026 8262     		str	r2, [r0, #40]
 830              		.loc 1 285 3 is_stmt 1 view .LVU255
 831              		.loc 1 285 6 is_stmt 0 view .LVU256
 832 0028 03B1     		cbz	r3, .L29
 833              		.loc 1 286 5 is_stmt 1 view .LVU257
 834 002a 9847     		blx	r3
 835              	.LVL45:
 836              	.L29:
 837              		.loc 1 286 5 is_stmt 0 view .LVU258
 838              	.LBE365:
 839              	.LBE364:
 840              		.loc 1 258 3 is_stmt 1 view .LVU259
 841              	.LBB366:
 842              	.LBI366:
 843              		.loc 2 584 20 view .LVU260
 844              	.LBE366:
 845              		.loc 2 586 3 view .LVU261
 846              	.LBB375:
 847              	.LBB367:
 848              	.LBI367:
 849              		.loc 5 421 20 view .LVU262
 850              	.LBB368:
 851              		.loc 5 423 23 view .LVU263
 852              		.loc 5 424 34 view .LVU264
 853              		.loc 5 430 3 view .LVU265
 854              		.loc 5 430 3 view .LVU266
 855              		.loc 5 430 3 view .LVU267
ARM GAS  /tmp/cc9meDp5.s 			page 16


 856              		.loc 5 434 3 view .LVU268
 857              	.LBB369:
 858              	.LBI369:
 859              		.loc 6 830 27 view .LVU269
 860              	.LBE369:
 861              	.LBE368:
 862              	.LBE367:
 863              	.LBE375:
 864              		.loc 6 833 3 view .LVU270
 865              	.LBB376:
 866              	.LBB374:
 867              	.LBB373:
 868              	.LBB372:
 869              	.LBB370:
 870              	.LBI370:
 871              		.loc 7 491 27 view .LVU271
 872              	.LBB371:
 873              		.loc 7 493 3 view .LVU272
 874 002c 0023     		movs	r3, #0
 875              		.syntax unified
 876              	@ 493 "../ChibiOS/os/common/ext/ARM/CMSIS/Core/Include/cmsis_gcc.h" 1
 877 002e 83F31188 		MSR basepri, r3
 878              	@ 0 "" 2
 879              	.LVL46:
 880              		.loc 7 493 3 is_stmt 0 view .LVU273
 881              		.thumb
 882              		.syntax unified
 883              	.LBE371:
 884              	.LBE370:
 885              	.LBE372:
 886              	.LBE373:
 887              	.LBE374:
 888              	.LBE376:
 889              		.loc 1 259 1 view .LVU274
 890 0032 08BD     		pop	{r3, pc}
 891              		.cfi_endproc
 892              	.LFE406:
 893              		.size	ibqReleaseEmptyBuffer, .-ibqReleaseEmptyBuffer
 894              		.section	.text.ibqReleaseEmptyBufferS,"ax",%progbits
 895              		.align	1
 896              		.p2align 4,,15
 897              		.global	ibqReleaseEmptyBufferS
 898              		.syntax unified
 899              		.thumb
 900              		.thumb_func
 901              		.fpu softvfp
 902              		.type	ibqReleaseEmptyBufferS, %function
 903              	ibqReleaseEmptyBufferS:
 904              	.LVL47:
 905              	.LFB407:
 906              		.loc 1 269 60 is_stmt 1 view -0
 907              		.cfi_startproc
 908              		@ args = 0, pretend = 0, frame = 0
 909              		@ frame_needed = 0, uses_anonymous_args = 0
 910              		@ link register save eliminated.
 911              		.loc 1 271 23 view .LVU276
 912              		.loc 1 272 3 view .LVU277
ARM GAS  /tmp/cc9meDp5.s 			page 17


 913              		.loc 1 272 3 view .LVU278
 914              		.loc 1 272 3 view .LVU279
 915              		.loc 1 275 3 view .LVU280
 916              		.loc 1 277 6 is_stmt 0 view .LVU281
 917 0000 D0E90531 		ldrd	r3, r1, [r0, #20]
 918              		.loc 1 276 16 view .LVU282
 919 0004 D0F81CC0 		ldr	ip, [r0, #28]
 920              		.loc 1 275 7 view .LVU283
 921 0008 C268     		ldr	r2, [r0, #12]
 922              		.loc 1 276 16 view .LVU284
 923 000a 6344     		add	r3, r3, ip
 924              		.loc 1 277 6 view .LVU285
 925 000c 8B42     		cmp	r3, r1
 926              		.loc 1 276 16 view .LVU286
 927 000e 4361     		str	r3, [r0, #20]
 928              		.loc 1 278 18 view .LVU287
 929 0010 24BF     		itt	cs
 930 0012 436A     		ldrcs	r3, [r0, #36]
 931 0014 4361     		strcs	r3, [r0, #20]
 932              		.loc 1 275 17 view .LVU288
 933 0016 013A     		subs	r2, r2, #1
 934              		.loc 1 285 11 view .LVU289
 935 0018 036B     		ldr	r3, [r0, #48]
 936              		.loc 1 275 17 view .LVU290
 937 001a C260     		str	r2, [r0, #12]
 938              		.loc 1 276 3 is_stmt 1 view .LVU291
 939              		.loc 1 277 3 view .LVU292
 940              		.loc 1 278 5 view .LVU293
 941              		.loc 1 282 3 view .LVU294
 942              		.loc 1 282 13 is_stmt 0 view .LVU295
 943 001c 0022     		movs	r2, #0
 944 001e 8262     		str	r2, [r0, #40]
 945              		.loc 1 285 3 is_stmt 1 view .LVU296
 946              		.loc 1 285 6 is_stmt 0 view .LVU297
 947 0020 03B1     		cbz	r3, .L34
 948              		.loc 1 286 5 is_stmt 1 view .LVU298
 949 0022 1847     		bx	r3	@ indirect register sibling call
 950              	.LVL48:
 951              	.L34:
 952              		.loc 1 288 1 is_stmt 0 view .LVU299
 953 0024 7047     		bx	lr
 954              		.cfi_endproc
 955              	.LFE407:
 956              		.size	ibqReleaseEmptyBufferS, .-ibqReleaseEmptyBufferS
 957 0026 00BF     		.section	.text.ibqGetTimeout,"ax",%progbits
 958              		.align	1
 959              		.p2align 4,,15
 960              		.global	ibqGetTimeout
 961              		.syntax unified
 962              		.thumb
 963              		.thumb_func
 964              		.fpu softvfp
 965              		.type	ibqGetTimeout, %function
 966              	ibqGetTimeout:
 967              	.LVL49:
 968              	.LFB408:
 969              		.loc 1 309 73 is_stmt 1 view -0
ARM GAS  /tmp/cc9meDp5.s 			page 18


 970              		.cfi_startproc
 971              		@ args = 0, pretend = 0, frame = 0
 972              		@ frame_needed = 0, uses_anonymous_args = 0
 973              		.loc 1 309 73 is_stmt 0 view .LVU301
 974 0000 70B5     		push	{r4, r5, r6, lr}
 975              		.cfi_def_cfa_offset 16
 976              		.cfi_offset 4, -16
 977              		.cfi_offset 5, -12
 978              		.cfi_offset 6, -8
 979              		.cfi_offset 14, -4
 980              	.LBB406:
 981              	.LBB407:
 982              	.LBB408:
 983              	.LBB409:
 984              	.LBB410:
 985              		.loc 7 493 3 view .LVU302
 986 0002 3023     		movs	r3, #48
 987              	.LBE410:
 988              	.LBE409:
 989              	.LBE408:
 990              	.LBE407:
 991              	.LBE406:
 992              		.loc 1 309 73 view .LVU303
 993 0004 0446     		mov	r4, r0
 994              		.loc 1 310 3 is_stmt 1 view .LVU304
 995              		.loc 1 312 3 view .LVU305
 996              	.LBB418:
 997              	.LBI406:
 998              		.loc 2 573 20 view .LVU306
 999              	.LBE418:
 1000              		.loc 2 575 3 view .LVU307
 1001              	.LBB419:
 1002              	.LBB415:
 1003              	.LBI407:
 1004              		.loc 5 407 20 view .LVU308
 1005              	.LBE415:
 1006              	.LBE419:
 1007              		.loc 5 409 3 view .LVU309
 1008              	.LBB420:
 1009              	.LBB416:
 1010              	.LBB413:
 1011              	.LBI408:
 1012              		.loc 6 806 27 view .LVU310
 1013              	.LBE413:
 1014              	.LBE416:
 1015              	.LBE420:
 1016              		.loc 6 814 3 view .LVU311
 1017              	.LVL50:
 1018              	.LBB421:
 1019              	.LBB417:
 1020              	.LBB414:
 1021              	.LBB412:
 1022              	.LBI409:
 1023              		.loc 7 491 27 view .LVU312
 1024              	.LBB411:
 1025              		.loc 7 493 3 view .LVU313
 1026              		.syntax unified
ARM GAS  /tmp/cc9meDp5.s 			page 19


 1027              	@ 493 "../ChibiOS/os/common/ext/ARM/CMSIS/Core/Include/cmsis_gcc.h" 1
 1028 0006 83F31188 		MSR basepri, r3
 1029              	@ 0 "" 2
 1030              	.LVL51:
 1031              		.loc 7 493 3 is_stmt 0 view .LVU314
 1032              		.thumb
 1033              		.syntax unified
 1034              	.LBE411:
 1035              	.LBE412:
 1036              	.LBE414:
 1037              	.LBE417:
 1038              	.LBE421:
 1039              		.loc 5 410 35 is_stmt 1 view .LVU315
 1040              		.loc 5 411 21 view .LVU316
 1041              		.loc 1 315 3 view .LVU317
 1042              		.loc 1 315 11 is_stmt 0 view .LVU318
 1043 000a 836A     		ldr	r3, [r0, #40]
 1044              		.loc 1 315 6 view .LVU319
 1045 000c 13B3     		cbz	r3, .L53
 1046              		.loc 1 329 24 view .LVU320
 1047 000e C26A     		ldr	r2, [r0, #44]
 1048              	.L39:
 1049              		.loc 1 324 3 is_stmt 1 view .LVU321
 1050              		.loc 1 324 7 is_stmt 0 view .LVU322
 1051 0010 13F8016B 		ldrb	r6, [r3], #1	@ zero_extendqisi2
 1052              	.LVL52:
 1053              		.loc 1 325 3 is_stmt 1 view .LVU323
 1054              		.loc 1 325 12 is_stmt 0 view .LVU324
 1055 0014 A362     		str	r3, [r4, #40]
 1056              		.loc 1 329 3 is_stmt 1 view .LVU325
 1057              		.loc 1 329 6 is_stmt 0 view .LVU326
 1058 0016 9342     		cmp	r3, r2
 1059 0018 04D2     		bcs	.L55
 1060              	.LVL53:
 1061              	.L40:
 1062              		.loc 1 317 5 is_stmt 1 view .LVU327
 1063              		.loc 1 318 7 view .LVU328
 1064              	.LBB422:
 1065              	.LBI422:
 1066              		.loc 2 584 20 view .LVU329
 1067              	.LBE422:
 1068              		.loc 2 586 3 view .LVU330
 1069              	.LBB439:
 1070              	.LBB423:
 1071              	.LBI423:
 1072              		.loc 5 421 20 view .LVU331
 1073              	.LBB424:
 1074              		.loc 5 423 23 view .LVU332
 1075              		.loc 5 424 34 view .LVU333
 1076              		.loc 5 430 3 view .LVU334
 1077              		.loc 5 430 3 view .LVU335
 1078              		.loc 5 430 3 view .LVU336
 1079              		.loc 5 434 3 view .LVU337
 1080              	.LBB425:
 1081              	.LBI425:
 1082              		.loc 6 830 27 view .LVU338
 1083              	.LBE425:
ARM GAS  /tmp/cc9meDp5.s 			page 20


 1084              	.LBE424:
 1085              	.LBE423:
 1086              	.LBE439:
 1087              		.loc 6 833 3 view .LVU339
 1088              	.LBB440:
 1089              	.LBB436:
 1090              	.LBB433:
 1091              	.LBB430:
 1092              	.LBB426:
 1093              	.LBI426:
 1094              		.loc 7 491 27 view .LVU340
 1095              	.LBB427:
 1096              		.loc 7 493 3 view .LVU341
 1097 001a 0023     		movs	r3, #0
 1098              		.syntax unified
 1099              	@ 493 "../ChibiOS/os/common/ext/ARM/CMSIS/Core/Include/cmsis_gcc.h" 1
 1100 001c 83F31188 		MSR basepri, r3
 1101              	@ 0 "" 2
 1102              	.LVL54:
 1103              		.loc 7 493 3 is_stmt 0 view .LVU342
 1104              		.thumb
 1105              		.syntax unified
 1106              	.LBE427:
 1107              	.LBE426:
 1108              	.LBE430:
 1109              	.LBE433:
 1110              	.LBE436:
 1111              	.LBE440:
 1112              		.loc 1 319 7 is_stmt 1 view .LVU343
 1113              		.loc 1 335 1 is_stmt 0 view .LVU344
 1114 0020 3046     		mov	r0, r6
 1115 0022 70BD     		pop	{r4, r5, r6, pc}
 1116              	.LVL55:
 1117              	.L55:
 1118              		.loc 1 330 5 is_stmt 1 view .LVU345
 1119              	.LBB441:
 1120              	.LBI441:
 1121              		.loc 1 269 8 view .LVU346
 1122              	.LBB442:
 1123              		.loc 1 271 23 view .LVU347
 1124              		.loc 1 272 3 view .LVU348
 1125              		.loc 1 272 3 view .LVU349
 1126              		.loc 1 272 3 view .LVU350
 1127              		.loc 1 275 3 view .LVU351
 1128              		.loc 1 276 16 is_stmt 0 view .LVU352
 1129 0024 6369     		ldr	r3, [r4, #20]
 1130 0026 E169     		ldr	r1, [r4, #28]
 1131              	.LVL56:
 1132              		.loc 1 275 7 view .LVU353
 1133 0028 E268     		ldr	r2, [r4, #12]
 1134              		.loc 1 276 16 view .LVU354
 1135 002a 0B44     		add	r3, r3, r1
 1136              		.loc 1 277 6 view .LVU355
 1137 002c A169     		ldr	r1, [r4, #24]
 1138              		.loc 1 276 16 view .LVU356
 1139 002e 6361     		str	r3, [r4, #20]
 1140              		.loc 1 277 6 view .LVU357
ARM GAS  /tmp/cc9meDp5.s 			page 21


 1141 0030 8B42     		cmp	r3, r1
 1142              		.loc 1 278 18 view .LVU358
 1143 0032 24BF     		itt	cs
 1144 0034 636A     		ldrcs	r3, [r4, #36]
 1145 0036 6361     		strcs	r3, [r4, #20]
 1146              		.loc 1 275 17 view .LVU359
 1147 0038 013A     		subs	r2, r2, #1
 1148              		.loc 1 285 11 view .LVU360
 1149 003a 236B     		ldr	r3, [r4, #48]
 1150              		.loc 1 275 17 view .LVU361
 1151 003c E260     		str	r2, [r4, #12]
 1152              		.loc 1 276 3 is_stmt 1 view .LVU362
 1153              		.loc 1 277 3 view .LVU363
 1154              		.loc 1 278 5 view .LVU364
 1155              		.loc 1 282 3 view .LVU365
 1156              		.loc 1 282 13 is_stmt 0 view .LVU366
 1157 003e 0022     		movs	r2, #0
 1158 0040 A262     		str	r2, [r4, #40]
 1159              		.loc 1 285 3 is_stmt 1 view .LVU367
 1160              		.loc 1 285 6 is_stmt 0 view .LVU368
 1161 0042 002B     		cmp	r3, #0
 1162 0044 E9D0     		beq	.L40
 1163              		.loc 1 286 5 is_stmt 1 view .LVU369
 1164 0046 2046     		mov	r0, r4
 1165              	.LVL57:
 1166              		.loc 1 286 5 is_stmt 0 view .LVU370
 1167 0048 9847     		blx	r3
 1168              	.LVL58:
 1169              		.loc 1 286 5 view .LVU371
 1170              	.LBE442:
 1171              	.LBE441:
 1172              		.loc 1 333 3 is_stmt 1 view .LVU372
 1173              	.LBB443:
 1174              	.LBI443:
 1175              		.loc 2 584 20 view .LVU373
 1176              	.LBE443:
 1177              		.loc 2 586 3 view .LVU374
 1178              	.LBB452:
 1179              	.LBB444:
 1180              	.LBI444:
 1181              		.loc 5 421 20 view .LVU375
 1182              	.LBB445:
 1183              		.loc 5 423 23 view .LVU376
 1184              		.loc 5 424 34 view .LVU377
 1185              		.loc 5 430 3 view .LVU378
 1186              		.loc 5 430 3 view .LVU379
 1187              		.loc 5 430 3 view .LVU380
 1188              		.loc 5 434 3 view .LVU381
 1189              	.LBB446:
 1190              	.LBI446:
 1191              		.loc 6 830 27 view .LVU382
 1192              	.LBE446:
 1193              	.LBE445:
 1194              	.LBE444:
 1195              	.LBE452:
 1196              		.loc 6 833 3 view .LVU383
 1197              	.LBB453:
ARM GAS  /tmp/cc9meDp5.s 			page 22


 1198              	.LBB451:
 1199              	.LBB450:
 1200              	.LBB449:
 1201              	.LBB447:
 1202              	.LBI447:
 1203              		.loc 7 491 27 view .LVU384
 1204              	.LBB448:
 1205              		.loc 7 493 3 view .LVU385
 1206              		.loc 7 493 3 is_stmt 0 view .LVU386
 1207              	.LBE448:
 1208              	.LBE447:
 1209              	.LBE449:
 1210              	.LBE450:
 1211              	.LBE451:
 1212              	.LBE453:
 1213              		.loc 1 317 5 is_stmt 1 view .LVU387
 1214              		.loc 1 318 7 view .LVU388
 1215              	.LBB454:
 1216              		.loc 2 584 20 view .LVU389
 1217              	.LBE454:
 1218              		.loc 2 586 3 view .LVU390
 1219              	.LBB455:
 1220              	.LBB437:
 1221              		.loc 5 421 20 view .LVU391
 1222              	.LBB434:
 1223              		.loc 5 423 23 view .LVU392
 1224              		.loc 5 424 34 view .LVU393
 1225              		.loc 5 430 3 view .LVU394
 1226              		.loc 5 430 3 view .LVU395
 1227              		.loc 5 430 3 view .LVU396
 1228              		.loc 5 434 3 view .LVU397
 1229              	.LBB431:
 1230              		.loc 6 830 27 view .LVU398
 1231              	.LBE431:
 1232              	.LBE434:
 1233              	.LBE437:
 1234              	.LBE455:
 1235              		.loc 6 833 3 view .LVU399
 1236              	.LBB456:
 1237              	.LBB438:
 1238              	.LBB435:
 1239              	.LBB432:
 1240              	.LBB429:
 1241              		.loc 7 491 27 view .LVU400
 1242              	.LBB428:
 1243              		.loc 7 493 3 view .LVU401
 1244 004a 0023     		movs	r3, #0
 1245              		.syntax unified
 1246              	@ 493 "../ChibiOS/os/common/ext/ARM/CMSIS/Core/Include/cmsis_gcc.h" 1
 1247 004c 83F31188 		MSR basepri, r3
 1248              	@ 0 "" 2
 1249              	.LVL59:
 1250              		.loc 7 493 3 is_stmt 0 view .LVU402
 1251              		.thumb
 1252              		.syntax unified
 1253              	.LBE428:
 1254              	.LBE429:
ARM GAS  /tmp/cc9meDp5.s 			page 23


 1255              	.LBE432:
 1256              	.LBE435:
 1257              	.LBE438:
 1258              	.LBE456:
 1259              		.loc 1 319 7 is_stmt 1 view .LVU403
 1260              		.loc 1 335 1 is_stmt 0 view .LVU404
 1261 0050 3046     		mov	r0, r6
 1262 0052 70BD     		pop	{r4, r5, r6, pc}
 1263              	.LVL60:
 1264              	.L53:
 1265              		.loc 1 335 1 view .LVU405
 1266 0054 0D46     		mov	r5, r1
 1267 0056 05E0     		b	.L38
 1268              	.LVL61:
 1269              	.L41:
 1270              	.LBB457:
 1271              	.LBB458:
 1272              	.LBB459:
 1273              		.loc 1 228 8 view .LVU406
 1274 0058 237A     		ldrb	r3, [r4, #8]	@ zero_extendqisi2
 1275 005a 7BB9     		cbnz	r3, .L47
 1276              	.LBB460:
 1277              	.LBB461:
 1278              		.loc 2 895 10 view .LVU407
 1279 005c FFF7FEFF 		bl	chThdEnqueueTimeoutS
 1280              	.LVL62:
 1281              		.loc 2 895 10 view .LVU408
 1282              	.LBE461:
 1283              	.LBE460:
 1284              		.loc 1 232 5 is_stmt 1 view .LVU409
 1285              		.loc 1 232 8 is_stmt 0 view .LVU410
 1286 0060 061E     		subs	r6, r0, #0
 1287 0062 DADB     		blt	.L40
 1288              	.LVL63:
 1289              	.L38:
 1290              		.loc 1 228 5 is_stmt 1 view .LVU411
 1291              		.loc 1 231 5 view .LVU412
 1292              	.LBB464:
 1293              	.LBI460:
 1294              		.loc 2 892 21 view .LVU413
 1295              	.LBB462:
 1296              		.loc 2 895 3 view .LVU414
 1297              	.LBE462:
 1298              	.LBE464:
 1299              	.LBE459:
 1300              		.loc 1 227 9 view .LVU415
 1301              		.loc 1 227 10 is_stmt 0 view .LVU416
 1302 0064 E368     		ldr	r3, [r4, #12]
 1303              	.LBB466:
 1304              	.LBB465:
 1305              	.LBB463:
 1306              		.loc 2 895 10 view .LVU417
 1307 0066 2946     		mov	r1, r5
 1308 0068 2046     		mov	r0, r4
 1309              	.LBE463:
 1310              	.LBE465:
 1311              	.LBE466:
ARM GAS  /tmp/cc9meDp5.s 			page 24


 1312              		.loc 1 227 9 view .LVU418
 1313 006a 002B     		cmp	r3, #0
 1314 006c F4D0     		beq	.L41
 1315              	.LVL64:
 1316              	.LBB467:
 1317              	.LBI467:
 1318              		.loc 1 222 9 is_stmt 1 view .LVU419
 1319              	.LBB468:
 1320              		.loc 1 237 3 view .LVU420
 1321              		.loc 1 237 3 view .LVU421
 1322              		.loc 1 237 3 view .LVU422
 1323              		.loc 1 240 3 view .LVU423
 1324              		.loc 1 240 19 is_stmt 0 view .LVU424
 1325 006e 6369     		ldr	r3, [r4, #20]
 1326              		.loc 1 241 25 view .LVU425
 1327 0070 1A68     		ldr	r2, [r3]
 1328              		.loc 1 240 28 view .LVU426
 1329 0072 0433     		adds	r3, r3, #4
 1330              		.loc 1 241 25 view .LVU427
 1331 0074 1A44     		add	r2, r2, r3
 1332              		.loc 1 241 13 view .LVU428
 1333 0076 C4E90A32 		strd	r3, r2, [r4, #40]
 1334              		.loc 1 243 3 is_stmt 1 view .LVU429
 1335              	.LVL65:
 1336              		.loc 1 243 3 is_stmt 0 view .LVU430
 1337              	.LBE468:
 1338              	.LBE467:
 1339              	.LBE458:
 1340              	.LBE457:
 1341              		.loc 1 317 5 is_stmt 1 view .LVU431
 1342 007a C9E7     		b	.L39
 1343              	.LVL66:
 1344              	.L47:
 1345              	.LBB471:
 1346              	.LBB470:
 1347              	.LBB469:
 1348              		.loc 1 229 14 is_stmt 0 view .LVU432
 1349 007c 6FF00106 		mvn	r6, #1
 1350 0080 CBE7     		b	.L40
 1351              	.LBE469:
 1352              	.LBE470:
 1353              	.LBE471:
 1354              		.cfi_endproc
 1355              	.LFE408:
 1356              		.size	ibqGetTimeout, .-ibqGetTimeout
 1357 0082 00BF     		.section	.text.ibqReadTimeout,"ax",%progbits
 1358              		.align	1
 1359              		.p2align 4,,15
 1360              		.global	ibqReadTimeout
 1361              		.syntax unified
 1362              		.thumb
 1363              		.thumb_func
 1364              		.fpu softvfp
 1365              		.type	ibqReadTimeout, %function
 1366              	ibqReadTimeout:
 1367              	.LVL67:
 1368              	.LFB409:
ARM GAS  /tmp/cc9meDp5.s 			page 25


 1369              		.loc 1 359 56 is_stmt 1 view -0
 1370              		.cfi_startproc
 1371              		@ args = 0, pretend = 0, frame = 0
 1372              		@ frame_needed = 0, uses_anonymous_args = 0
 1373              		.loc 1 360 3 view .LVU434
 1374              		.loc 1 362 3 view .LVU435
 1375              		.loc 1 362 3 view .LVU436
 1376              		.loc 1 362 3 view .LVU437
 1377              		.loc 1 364 3 view .LVU438
 1378              	.LBB510:
 1379              	.LBI510:
 1380              		.loc 2 573 20 view .LVU439
 1381              	.LBB511:
 1382              		.loc 2 575 3 view .LVU440
 1383              	.LBB512:
 1384              	.LBI512:
 1385              		.loc 5 407 20 view .LVU441
 1386              	.LBE512:
 1387              	.LBE511:
 1388              	.LBE510:
 1389              		.loc 5 409 3 view .LVU442
 1390              	.LBB526:
 1391              	.LBB523:
 1392              	.LBB520:
 1393              	.LBB513:
 1394              	.LBI513:
 1395              		.loc 6 806 27 view .LVU443
 1396              	.LBE513:
 1397              	.LBE520:
 1398              	.LBE523:
 1399              	.LBE526:
 1400              		.loc 6 814 3 view .LVU444
 1401              	.LBB527:
 1402              	.LBB524:
 1403              	.LBB521:
 1404              	.LBB518:
 1405              	.LBB514:
 1406              	.LBI514:
 1407              		.loc 7 491 27 view .LVU445
 1408              	.LBB515:
 1409              		.loc 7 493 3 view .LVU446
 1410              	.LBE515:
 1411              	.LBE514:
 1412              	.LBE518:
 1413              	.LBE521:
 1414              	.LBE524:
 1415              	.LBE527:
 1416              		.loc 1 359 56 is_stmt 0 view .LVU447
 1417 0000 2DE9F84F 		push	{r3, r4, r5, r6, r7, r8, r9, r10, fp, lr}
 1418              		.cfi_def_cfa_offset 40
 1419              		.cfi_offset 3, -40
 1420              		.cfi_offset 4, -36
 1421              		.cfi_offset 5, -32
 1422              		.cfi_offset 6, -28
 1423              		.cfi_offset 7, -24
 1424              		.cfi_offset 8, -20
 1425              		.cfi_offset 9, -16
ARM GAS  /tmp/cc9meDp5.s 			page 26


 1426              		.cfi_offset 10, -12
 1427              		.cfi_offset 11, -8
 1428              		.cfi_offset 14, -4
 1429              		.loc 1 359 56 view .LVU448
 1430 0004 8246     		mov	r10, r0
 1431 0006 0D46     		mov	r5, r1
 1432 0008 1646     		mov	r6, r2
 1433 000a 1F46     		mov	r7, r3
 1434              	.LBB528:
 1435              	.LBB525:
 1436              	.LBB522:
 1437              	.LBB519:
 1438              	.LBB517:
 1439              	.LBB516:
 1440              		.loc 7 493 3 view .LVU449
 1441 000c 4FF03009 		mov	r9, #48
 1442              		.syntax unified
 1443              	@ 493 "../ChibiOS/os/common/ext/ARM/CMSIS/Core/Include/cmsis_gcc.h" 1
 1444 0010 89F31188 		MSR basepri, r9
 1445              	@ 0 "" 2
 1446              	.LVL68:
 1447              		.loc 7 493 3 view .LVU450
 1448              		.thumb
 1449              		.syntax unified
 1450              	.LBE516:
 1451              	.LBE517:
 1452              	.LBE519:
 1453              	.LBE522:
 1454              	.LBE525:
 1455              	.LBE528:
 1456              		.loc 5 410 35 is_stmt 1 view .LVU451
 1457              		.loc 5 411 21 view .LVU452
 1458              		.loc 1 360 10 is_stmt 0 view .LVU453
 1459 0014 0024     		movs	r4, #0
 1460              	.LBB529:
 1461              	.LBB530:
 1462              	.LBB531:
 1463              		.loc 1 282 13 view .LVU454
 1464 0016 A046     		mov	r8, r4
 1465              	.LVL69:
 1466              	.L69:
 1467              		.loc 1 282 13 view .LVU455
 1468              	.LBE531:
 1469              	.LBE530:
 1470              	.LBE529:
 1471              		.loc 1 366 3 is_stmt 1 view .LVU456
 1472              	.LBB587:
 1473              		.loc 1 367 5 view .LVU457
 1474              		.loc 1 370 5 view .LVU458
 1475              		.loc 1 370 13 is_stmt 0 view .LVU459
 1476 0018 DAF82810 		ldr	r1, [r10, #40]
 1477              		.loc 1 370 8 view .LVU460
 1478 001c D1B3     		cbz	r1, .L57
 1479              		.loc 1 384 24 view .LVU461
 1480 001e DAF82C20 		ldr	r2, [r10, #44]
 1481              	.L58:
 1482              		.loc 1 384 5 is_stmt 1 view .LVU462
ARM GAS  /tmp/cc9meDp5.s 			page 27


 1483              		.loc 1 385 19 is_stmt 0 view .LVU463
 1484 0022 A6EB040B 		sub	fp, r6, r4
 1485              		.loc 1 384 10 view .LVU464
 1486 0026 521A     		subs	r2, r2, r1
 1487              	.LVL70:
 1488              		.loc 1 385 5 is_stmt 1 view .LVU465
 1489 0028 9345     		cmp	fp, r2
 1490 002a 28BF     		it	cs
 1491 002c 9346     		movcs	fp, r2
 1492              	.LVL71:
 1493              		.loc 1 391 5 view .LVU466
 1494              		.loc 1 391 8 is_stmt 0 view .LVU467
 1495 002e BBF1400F 		cmp	fp, #64
 1496 0032 3DD9     		bls	.L61
 1497              		.loc 1 393 7 is_stmt 1 view .LVU468
 1498 0034 2B46     		mov	r3, r5
 1499 0036 01F1400B 		add	fp, r1, #64
 1500              	.LVL72:
 1501              	.L62:
 1502              		.loc 1 393 7 is_stmt 0 view .LVU469
 1503 003a D1F800C0 		ldr	ip, [r1]	@ unaligned
 1504 003e 4868     		ldr	r0, [r1, #4]	@ unaligned
 1505 0040 8A68     		ldr	r2, [r1, #8]	@ unaligned
 1506 0042 D1F80CE0 		ldr	lr, [r1, #12]	@ unaligned
 1507 0046 C3F80CE0 		str	lr, [r3, #12]	@ unaligned
 1508 004a 1031     		adds	r1, r1, #16
 1509 004c 5945     		cmp	r1, fp
 1510 004e C3F800C0 		str	ip, [r3]	@ unaligned
 1511 0052 5860     		str	r0, [r3, #4]	@ unaligned
 1512 0054 9A60     		str	r2, [r3, #8]	@ unaligned
 1513 0056 03F11003 		add	r3, r3, #16
 1514 005a EED1     		bne	.L62
 1515              		.loc 1 394 7 is_stmt 1 view .LVU470
 1516              		.loc 1 395 17 is_stmt 0 view .LVU471
 1517 005c DAF82830 		ldr	r3, [r10, #40]
 1518              		.loc 1 406 8 view .LVU472
 1519 0060 DAF82C20 		ldr	r2, [r10, #44]
 1520              		.loc 1 395 17 view .LVU473
 1521 0064 4033     		adds	r3, r3, #64
 1522              		.loc 1 406 8 view .LVU474
 1523 0066 9A42     		cmp	r2, r3
 1524              		.loc 1 394 17 view .LVU475
 1525 0068 05F14005 		add	r5, r5, #64
 1526              	.LVL73:
 1527              		.loc 1 395 7 is_stmt 1 view .LVU476
 1528              		.loc 1 395 17 is_stmt 0 view .LVU477
 1529 006c CAF82830 		str	r3, [r10, #40]
 1530              		.loc 1 396 7 is_stmt 1 view .LVU478
 1531              		.loc 1 396 17 is_stmt 0 view .LVU479
 1532 0070 04F14004 		add	r4, r4, #64
 1533              	.LVL74:
 1534              		.loc 1 406 5 is_stmt 1 view .LVU480
 1535              		.loc 1 406 8 is_stmt 0 view .LVU481
 1536 0074 2BD9     		bls	.L77
 1537              	.L65:
 1538              		.loc 1 411 5 is_stmt 1 view .LVU482
 1539              	.LBB533:
ARM GAS  /tmp/cc9meDp5.s 			page 28


 1540              	.LBI533:
 1541              		.loc 2 584 20 view .LVU483
 1542              	.LBE533:
 1543              	.LBE587:
 1544              		.loc 2 586 3 view .LVU484
 1545              	.LBB588:
 1546              	.LBB542:
 1547              	.LBB534:
 1548              	.LBI534:
 1549              		.loc 5 421 20 view .LVU485
 1550              	.LBB535:
 1551              		.loc 5 423 23 view .LVU486
 1552              		.loc 5 424 34 view .LVU487
 1553              		.loc 5 430 3 view .LVU488
 1554              		.loc 5 430 3 view .LVU489
 1555              		.loc 5 430 3 view .LVU490
 1556              		.loc 5 434 3 view .LVU491
 1557              	.LBB536:
 1558              	.LBI536:
 1559              		.loc 6 830 27 view .LVU492
 1560              	.LBE536:
 1561              	.LBE535:
 1562              	.LBE534:
 1563              	.LBE542:
 1564              	.LBE588:
 1565              		.loc 6 833 3 view .LVU493
 1566              	.LVL75:
 1567              	.LBB589:
 1568              	.LBB543:
 1569              	.LBB541:
 1570              	.LBB540:
 1571              	.LBB539:
 1572              	.LBB537:
 1573              	.LBI537:
 1574              		.loc 7 491 27 view .LVU494
 1575              	.LBB538:
 1576              		.loc 7 493 3 view .LVU495
 1577              		.syntax unified
 1578              	@ 493 "../ChibiOS/os/common/ext/ARM/CMSIS/Core/Include/cmsis_gcc.h" 1
 1579 0076 88F31188 		MSR basepri, r8
 1580              	@ 0 "" 2
 1581              	.LVL76:
 1582              		.loc 7 493 3 is_stmt 0 view .LVU496
 1583              		.thumb
 1584              		.syntax unified
 1585              	.LBE538:
 1586              	.LBE537:
 1587              	.LBE539:
 1588              	.LBE540:
 1589              	.LBE541:
 1590              	.LBE543:
 1591              		.loc 1 412 5 is_stmt 1 view .LVU497
 1592              		.loc 1 412 8 is_stmt 0 view .LVU498
 1593 007a B442     		cmp	r4, r6
 1594 007c 45D2     		bcs	.L56
 1595              		.loc 1 415 5 is_stmt 1 view .LVU499
 1596              	.LBB544:
ARM GAS  /tmp/cc9meDp5.s 			page 29


 1597              	.LBI544:
 1598              		.loc 2 573 20 view .LVU500
 1599              	.LBB545:
 1600              		.loc 2 575 3 view .LVU501
 1601              	.LBB546:
 1602              	.LBI546:
 1603              		.loc 5 407 20 view .LVU502
 1604              	.LBE546:
 1605              	.LBE545:
 1606              	.LBE544:
 1607              	.LBE589:
 1608              		.loc 5 409 3 view .LVU503
 1609              	.LBB590:
 1610              	.LBB556:
 1611              	.LBB553:
 1612              	.LBB551:
 1613              	.LBB547:
 1614              	.LBI547:
 1615              		.loc 6 806 27 view .LVU504
 1616              	.LBE547:
 1617              	.LBE551:
 1618              	.LBE553:
 1619              	.LBE556:
 1620              	.LBE590:
 1621              		.loc 6 814 3 view .LVU505
 1622              	.LVL77:
 1623              	.LBB591:
 1624              	.LBB557:
 1625              	.LBB554:
 1626              	.LBB552:
 1627              	.LBB550:
 1628              	.LBB548:
 1629              	.LBI548:
 1630              		.loc 7 491 27 view .LVU506
 1631              	.LBB549:
 1632              		.loc 7 493 3 view .LVU507
 1633              		.syntax unified
 1634              	@ 493 "../ChibiOS/os/common/ext/ARM/CMSIS/Core/Include/cmsis_gcc.h" 1
 1635 007e 89F31188 		MSR basepri, r9
 1636              	@ 0 "" 2
 1637              	.LVL78:
 1638              		.loc 7 493 3 is_stmt 0 view .LVU508
 1639              		.thumb
 1640              		.syntax unified
 1641              	.LBE549:
 1642              	.LBE548:
 1643              	.LBE550:
 1644              	.LBE552:
 1645              	.LBE554:
 1646              	.LBE557:
 1647              	.LBE591:
 1648              		.loc 5 410 35 is_stmt 1 view .LVU509
 1649              		.loc 5 411 21 view .LVU510
 1650              	.LBB592:
 1651              	.LBB558:
 1652              	.LBB555:
 1653              		.loc 2 576 1 is_stmt 0 view .LVU511
ARM GAS  /tmp/cc9meDp5.s 			page 30


 1654 0082 C9E7     		b	.L69
 1655              	.LVL79:
 1656              	.L60:
 1657              		.loc 2 576 1 view .LVU512
 1658              	.LBE555:
 1659              	.LBE558:
 1660              	.LBB559:
 1661              	.LBB560:
 1662              	.LBB561:
 1663              	.LBB562:
 1664              		.loc 1 228 8 view .LVU513
 1665 0084 9AF80830 		ldrb	r3, [r10, #8]	@ zero_extendqisi2
 1666 0088 002B     		cmp	r3, #0
 1667 008a 3BD1     		bne	.L59
 1668              	.LBB563:
 1669              	.LBB564:
 1670              		.loc 2 895 10 view .LVU514
 1671 008c FFF7FEFF 		bl	chThdEnqueueTimeoutS
 1672              	.LVL80:
 1673              		.loc 2 895 10 view .LVU515
 1674              	.LBE564:
 1675              	.LBE563:
 1676              		.loc 1 232 5 is_stmt 1 view .LVU516
 1677              		.loc 1 232 8 is_stmt 0 view .LVU517
 1678 0090 0028     		cmp	r0, #0
 1679 0092 37DB     		blt	.L59
 1680              	.LVL81:
 1681              	.L57:
 1682              		.loc 1 228 5 is_stmt 1 view .LVU518
 1683              		.loc 1 231 5 view .LVU519
 1684              	.LBB567:
 1685              	.LBI563:
 1686              		.loc 2 892 21 view .LVU520
 1687              	.LBB565:
 1688              		.loc 2 895 3 view .LVU521
 1689              	.LBE565:
 1690              	.LBE567:
 1691              	.LBE562:
 1692              		.loc 1 227 9 view .LVU522
 1693              		.loc 1 227 10 is_stmt 0 view .LVU523
 1694 0094 DAF80C30 		ldr	r3, [r10, #12]
 1695              	.LBB569:
 1696              	.LBB568:
 1697              	.LBB566:
 1698              		.loc 2 895 10 view .LVU524
 1699 0098 3946     		mov	r1, r7
 1700 009a 5046     		mov	r0, r10
 1701              	.LBE566:
 1702              	.LBE568:
 1703              	.LBE569:
 1704              		.loc 1 227 9 view .LVU525
 1705 009c 002B     		cmp	r3, #0
 1706 009e F1D0     		beq	.L60
 1707              	.LVL82:
 1708              	.LBB570:
 1709              	.LBI570:
 1710              		.loc 1 222 9 is_stmt 1 view .LVU526
ARM GAS  /tmp/cc9meDp5.s 			page 31


 1711              	.LBB571:
 1712              		.loc 1 237 3 view .LVU527
 1713              		.loc 1 237 3 view .LVU528
 1714              		.loc 1 237 3 view .LVU529
 1715              		.loc 1 240 3 view .LVU530
 1716              		.loc 1 240 19 is_stmt 0 view .LVU531
 1717 00a0 DAF81410 		ldr	r1, [r10, #20]
 1718              	.LVL83:
 1719              		.loc 1 241 25 view .LVU532
 1720 00a4 0A68     		ldr	r2, [r1]
 1721              		.loc 1 240 28 view .LVU533
 1722 00a6 0431     		adds	r1, r1, #4
 1723              		.loc 1 241 25 view .LVU534
 1724 00a8 0A44     		add	r2, r2, r1
 1725              		.loc 1 241 13 view .LVU535
 1726 00aa CAE90A12 		strd	r1, r2, [r10, #40]
 1727              		.loc 1 243 3 is_stmt 1 view .LVU536
 1728              	.LVL84:
 1729              		.loc 1 243 3 is_stmt 0 view .LVU537
 1730              	.LBE571:
 1731              	.LBE570:
 1732              	.LBE561:
 1733              	.LBE560:
 1734              		.loc 1 377 7 is_stmt 1 view .LVU538
 1735 00ae B8E7     		b	.L58
 1736              	.LVL85:
 1737              	.L61:
 1738              		.loc 1 377 7 is_stmt 0 view .LVU539
 1739              	.LBE559:
 1740              		.loc 1 399 7 is_stmt 1 view .LVU540
 1741 00b0 2846     		mov	r0, r5
 1742 00b2 5A46     		mov	r2, fp
 1743 00b4 FFF7FEFF 		bl	memcpy
 1744              	.LVL86:
 1745              		.loc 1 400 7 view .LVU541
 1746              		.loc 1 401 17 is_stmt 0 view .LVU542
 1747 00b8 DAF82830 		ldr	r3, [r10, #40]
 1748              		.loc 1 406 8 view .LVU543
 1749 00bc DAF82C20 		ldr	r2, [r10, #44]
 1750              		.loc 1 401 17 view .LVU544
 1751 00c0 5B44     		add	r3, r3, fp
 1752              		.loc 1 406 8 view .LVU545
 1753 00c2 9A42     		cmp	r2, r3
 1754              		.loc 1 400 17 view .LVU546
 1755 00c4 5D44     		add	r5, r5, fp
 1756              	.LVL87:
 1757              		.loc 1 401 7 is_stmt 1 view .LVU547
 1758              		.loc 1 401 17 is_stmt 0 view .LVU548
 1759 00c6 CAF82830 		str	r3, [r10, #40]
 1760              		.loc 1 402 7 is_stmt 1 view .LVU549
 1761              		.loc 1 402 17 is_stmt 0 view .LVU550
 1762 00ca 5C44     		add	r4, r4, fp
 1763              	.LVL88:
 1764              		.loc 1 406 5 is_stmt 1 view .LVU551
 1765              		.loc 1 406 8 is_stmt 0 view .LVU552
 1766 00cc D3D8     		bhi	.L65
 1767              	.LVL89:
ARM GAS  /tmp/cc9meDp5.s 			page 32


 1768              	.L77:
 1769              		.loc 1 407 7 is_stmt 1 view .LVU553
 1770              	.LBB583:
 1771              	.LBI530:
 1772              		.loc 1 269 8 view .LVU554
 1773              	.LBB532:
 1774              		.loc 1 271 23 view .LVU555
 1775              		.loc 1 272 3 view .LVU556
 1776              		.loc 1 272 3 view .LVU557
 1777              		.loc 1 272 3 view .LVU558
 1778              		.loc 1 275 3 view .LVU559
 1779              		.loc 1 277 6 is_stmt 0 view .LVU560
 1780 00ce DAE90621 		ldrd	r2, r1, [r10, #24]
 1781              		.loc 1 276 16 view .LVU561
 1782 00d2 DAF81430 		ldr	r3, [r10, #20]
 1783              		.loc 1 275 7 view .LVU562
 1784 00d6 DAF80C00 		ldr	r0, [r10, #12]
 1785              		.loc 1 282 13 view .LVU563
 1786 00da CAF82880 		str	r8, [r10, #40]
 1787              		.loc 1 276 16 view .LVU564
 1788 00de 0B44     		add	r3, r3, r1
 1789              		.loc 1 277 6 view .LVU565
 1790 00e0 9342     		cmp	r3, r2
 1791              		.loc 1 276 16 view .LVU566
 1792 00e2 CAF81430 		str	r3, [r10, #20]
 1793              		.loc 1 278 18 view .LVU567
 1794 00e6 24BF     		itt	cs
 1795 00e8 DAF82430 		ldrcs	r3, [r10, #36]
 1796 00ec CAF81430 		strcs	r3, [r10, #20]
 1797              		.loc 1 285 11 view .LVU568
 1798 00f0 DAF83030 		ldr	r3, [r10, #48]
 1799              		.loc 1 275 17 view .LVU569
 1800 00f4 0138     		subs	r0, r0, #1
 1801 00f6 CAF80C00 		str	r0, [r10, #12]
 1802              		.loc 1 276 3 is_stmt 1 view .LVU570
 1803              		.loc 1 277 3 view .LVU571
 1804              		.loc 1 278 5 view .LVU572
 1805              		.loc 1 282 3 view .LVU573
 1806              		.loc 1 285 3 view .LVU574
 1807              		.loc 1 285 6 is_stmt 0 view .LVU575
 1808 00fa 002B     		cmp	r3, #0
 1809 00fc BBD0     		beq	.L65
 1810              		.loc 1 286 5 is_stmt 1 view .LVU576
 1811 00fe 5046     		mov	r0, r10
 1812 0100 9847     		blx	r3
 1813              	.LVL90:
 1814 0102 B8E7     		b	.L65
 1815              	.LVL91:
 1816              	.L59:
 1817              		.loc 1 286 5 is_stmt 0 view .LVU577
 1818              	.LBE532:
 1819              	.LBE583:
 1820              	.LBB584:
 1821              		.loc 1 377 7 is_stmt 1 view .LVU578
 1822              		.loc 1 378 9 view .LVU579
 1823              	.LBB572:
 1824              	.LBI572:
ARM GAS  /tmp/cc9meDp5.s 			page 33


 1825              		.loc 2 584 20 view .LVU580
 1826              	.LBE572:
 1827              	.LBE584:
 1828              	.LBE592:
 1829              		.loc 2 586 3 view .LVU581
 1830              	.LBB593:
 1831              	.LBB585:
 1832              	.LBB581:
 1833              	.LBB573:
 1834              	.LBI573:
 1835              		.loc 5 421 20 view .LVU582
 1836              	.LBB574:
 1837              		.loc 5 423 23 view .LVU583
 1838              		.loc 5 424 34 view .LVU584
 1839              		.loc 5 430 3 view .LVU585
 1840              		.loc 5 430 3 view .LVU586
 1841              		.loc 5 430 3 view .LVU587
 1842              		.loc 5 434 3 view .LVU588
 1843              	.LBB575:
 1844              	.LBI575:
 1845              		.loc 6 830 27 view .LVU589
 1846              	.LBE575:
 1847              	.LBE574:
 1848              	.LBE573:
 1849              	.LBE581:
 1850              	.LBE585:
 1851              	.LBE593:
 1852              		.loc 6 833 3 view .LVU590
 1853              	.LBB594:
 1854              	.LBB586:
 1855              	.LBB582:
 1856              	.LBB580:
 1857              	.LBB579:
 1858              	.LBB578:
 1859              	.LBB576:
 1860              	.LBI576:
 1861              		.loc 7 491 27 view .LVU591
 1862              	.LBB577:
 1863              		.loc 7 493 3 view .LVU592
 1864 0104 0023     		movs	r3, #0
 1865              		.syntax unified
 1866              	@ 493 "../ChibiOS/os/common/ext/ARM/CMSIS/Core/Include/cmsis_gcc.h" 1
 1867 0106 83F31188 		MSR basepri, r3
 1868              	@ 0 "" 2
 1869              	.LVL92:
 1870              		.loc 7 493 3 is_stmt 0 view .LVU593
 1871              		.thumb
 1872              		.syntax unified
 1873              	.LBE577:
 1874              	.LBE576:
 1875              	.LBE578:
 1876              	.LBE579:
 1877              	.LBE580:
 1878              	.LBE582:
 1879              		.loc 1 379 9 is_stmt 1 view .LVU594
 1880              	.L56:
 1881              		.loc 1 379 9 is_stmt 0 view .LVU595
ARM GAS  /tmp/cc9meDp5.s 			page 34


 1882              	.LBE586:
 1883              	.LBE594:
 1884              		.loc 1 417 1 view .LVU596
 1885 010a 2046     		mov	r0, r4
 1886 010c BDE8F88F 		pop	{r3, r4, r5, r6, r7, r8, r9, r10, fp, pc}
 1887              		.loc 1 417 1 view .LVU597
 1888              		.cfi_endproc
 1889              	.LFE409:
 1890              		.size	ibqReadTimeout, .-ibqReadTimeout
 1891              		.section	.text.obqObjectInit,"ax",%progbits
 1892              		.align	1
 1893              		.p2align 4,,15
 1894              		.global	obqObjectInit
 1895              		.syntax unified
 1896              		.thumb
 1897              		.thumb_func
 1898              		.fpu softvfp
 1899              		.type	obqObjectInit, %function
 1900              	obqObjectInit:
 1901              	.LVL93:
 1902              	.LFB410:
 1903              		.loc 1 433 72 is_stmt 1 view -0
 1904              		.cfi_startproc
 1905              		@ args = 12, pretend = 0, frame = 0
 1906              		@ frame_needed = 0, uses_anonymous_args = 0
 1907              		@ link register save eliminated.
 1908              		.loc 1 435 3 view .LVU599
 1909              		.loc 1 435 3 view .LVU600
 1910              		.loc 1 435 3 view .LVU601
 1911              		.loc 1 437 3 view .LVU602
 1912              		.loc 1 433 72 is_stmt 0 view .LVU603
 1913 0000 10B4     		push	{r4}
 1914              		.cfi_def_cfa_offset 4
 1915              		.cfi_offset 4, -4
 1916              		.loc 1 433 72 view .LVU604
 1917 0002 019C     		ldr	r4, [sp, #4]
 1918              	.LVL94:
 1919              	.LBB595:
 1920              	.LBI595:
 1921              		.loc 2 864 20 is_stmt 1 view .LVU605
 1922              	.LBE595:
 1923              		.loc 2 866 3 view .LVU606
 1924              	.LBB604:
 1925              	.LBB596:
 1926              	.LBI596:
 1927              		.loc 3 461 20 view .LVU607
 1928              	.LBB597:
 1929              		.loc 3 463 3 view .LVU608
 1930              	.LBB598:
 1931              	.LBI598:
 1932              		.loc 4 222 20 view .LVU609
 1933              	.LBB599:
 1934              		.loc 4 224 3 view .LVU610
 1935              	.LBE599:
 1936              	.LBE598:
 1937              	.LBE597:
 1938              	.LBE596:
ARM GAS  /tmp/cc9meDp5.s 			page 35


 1939              	.LBE604:
 1940              		.loc 1 438 19 is_stmt 0 view .LVU611
 1941 0004 0172     		strb	r1, [r0, #8]
 1942              		.loc 1 442 33 view .LVU612
 1943 0006 0433     		adds	r3, r3, #4
 1944              	.LVL95:
 1945              		.loc 1 442 24 view .LVU613
 1946 0008 03FB0421 		mla	r1, r3, r4, r2
 1947              	.LVL96:
 1948              		.loc 1 442 19 view .LVU614
 1949 000c 8161     		str	r1, [r0, #24]
 1950              		.loc 1 446 19 view .LVU615
 1951 000e 0021     		movs	r1, #0
 1952              		.loc 1 444 19 view .LVU616
 1953 0010 C0E90734 		strd	r3, r4, [r0, #28]
 1954              		.loc 1 441 19 view .LVU617
 1955 0014 C0E90422 		strd	r2, r2, [r0, #16]
 1956              		.loc 1 446 19 view .LVU618
 1957 0018 C0E90921 		strd	r2, r1, [r0, #36]
 1958              		.loc 1 433 72 view .LVU619
 1959 001c DDE90223 		ldrd	r2, r3, [sp, #8]
 1960              	.LVL97:
 1961              		.loc 1 439 19 view .LVU620
 1962 0020 C460     		str	r4, [r0, #12]
 1963              	.LBB605:
 1964              	.LBB603:
 1965              	.LBB602:
 1966              	.LBB601:
 1967              	.LBB600:
 1968              		.loc 4 225 12 view .LVU621
 1969 0022 C0E90000 		strd	r0, r0, [r0]
 1970              	.LVL98:
 1971              		.loc 4 225 12 view .LVU622
 1972              	.LBE600:
 1973              	.LBE601:
 1974              	.LBE602:
 1975              	.LBE603:
 1976              	.LBE605:
 1977              		.loc 1 438 3 is_stmt 1 view .LVU623
 1978              		.loc 1 439 3 view .LVU624
 1979              		.loc 1 440 3 view .LVU625
 1980              		.loc 1 442 3 view .LVU626
 1981              		.loc 1 443 3 view .LVU627
 1982              		.loc 1 445 3 view .LVU628
 1983              		.loc 1 447 3 view .LVU629
 1984              		.loc 1 449 19 is_stmt 0 view .LVU630
 1985 0026 C0E90C23 		strd	r2, r3, [r0, #48]
 1986              		.loc 1 450 1 view .LVU631
 1987 002a 10BC     		pop	{r4}
 1988              		.cfi_restore 4
 1989              		.cfi_def_cfa_offset 0
 1990              	.LVL99:
 1991              		.loc 1 447 19 view .LVU632
 1992 002c C162     		str	r1, [r0, #44]
 1993              		.loc 1 448 3 is_stmt 1 view .LVU633
 1994              		.loc 1 450 1 is_stmt 0 view .LVU634
 1995 002e 7047     		bx	lr
ARM GAS  /tmp/cc9meDp5.s 			page 36


 1996              		.cfi_endproc
 1997              	.LFE410:
 1998              		.size	obqObjectInit, .-obqObjectInit
 1999              		.section	.text.obqResetI,"ax",%progbits
 2000              		.align	1
 2001              		.p2align 4,,15
 2002              		.global	obqResetI
 2003              		.syntax unified
 2004              		.thumb
 2005              		.thumb_func
 2006              		.fpu softvfp
 2007              		.type	obqResetI, %function
 2008              	obqResetI:
 2009              	.LVL100:
 2010              	.LFB411:
 2011              		.loc 1 463 46 is_stmt 1 view -0
 2012              		.cfi_startproc
 2013              		@ args = 0, pretend = 0, frame = 0
 2014              		@ frame_needed = 0, uses_anonymous_args = 0
 2015              		@ link register save eliminated.
 2016              		.loc 1 465 23 view .LVU636
 2017              		.loc 1 467 3 view .LVU637
 2018              		.loc 1 467 19 is_stmt 0 view .LVU638
 2019 0000 D0E908C1 		ldrd	ip, r1, [r0, #32]
 2020              		.loc 1 470 19 view .LVU639
 2021 0004 0022     		movs	r2, #0
 2022              		.loc 1 469 19 view .LVU640
 2023 0006 C0E90411 		strd	r1, r1, [r0, #16]
 2024              		.loc 1 471 19 view .LVU641
 2025 000a C0E90A22 		strd	r2, r2, [r0, #40]
 2026              		.loc 1 467 19 view .LVU642
 2027 000e C0F80CC0 		str	ip, [r0, #12]
 2028              		.loc 1 468 3 is_stmt 1 view .LVU643
 2029              		.loc 1 470 3 view .LVU644
 2030              		.loc 1 472 3 view .LVU645
 2031              	.LVL101:
 2032              	.LBB606:
 2033              	.LBI606:
 2034              		.loc 2 919 20 view .LVU646
 2035              	.LBB607:
 2036              		.loc 2 921 3 view .LVU647
 2037 0012 6FF00101 		mvn	r1, #1
 2038 0016 FFF7FEBF 		b	chThdDequeueAllI
 2039              	.LVL102:
 2040              		.loc 2 921 3 is_stmt 0 view .LVU648
 2041              	.LBE607:
 2042              	.LBE606:
 2043              		.cfi_endproc
 2044              	.LFE411:
 2045              		.size	obqResetI, .-obqResetI
 2046 001a 00BF     		.section	.text.obqGetFullBufferI,"ax",%progbits
 2047              		.align	1
 2048              		.p2align 4,,15
 2049              		.global	obqGetFullBufferI
 2050              		.syntax unified
 2051              		.thumb
 2052              		.thumb_func
ARM GAS  /tmp/cc9meDp5.s 			page 37


 2053              		.fpu softvfp
 2054              		.type	obqGetFullBufferI, %function
 2055              	obqGetFullBufferI:
 2056              	.LVL103:
 2057              	.LFB412:
 2058              		.loc 1 487 43 is_stmt 1 view -0
 2059              		.cfi_startproc
 2060              		@ args = 0, pretend = 0, frame = 0
 2061              		@ frame_needed = 0, uses_anonymous_args = 0
 2062              		@ link register save eliminated.
 2063              		.loc 1 489 23 view .LVU650
 2064              		.loc 1 491 3 view .LVU651
 2065              		.loc 1 487 43 is_stmt 0 view .LVU652
 2066 0000 0346     		mov	r3, r0
 2067              		.loc 1 491 7 view .LVU653
 2068 0002 D0E90420 		ldrd	r2, r0, [r0, #16]
 2069              	.LVL104:
 2070              		.loc 1 491 7 view .LVU654
 2071 0006 8242     		cmp	r2, r0
 2072 0008 03D0     		beq	.L87
 2073              	.LVL105:
 2074              	.L82:
 2075              		.loc 1 496 3 is_stmt 1 view .LVU655
 2076              		.loc 1 496 12 is_stmt 0 view .LVU656
 2077 000a 50F8043B 		ldr	r3, [r0], #4
 2078              		.loc 1 496 10 view .LVU657
 2079 000e 0B60     		str	r3, [r1]
 2080              		.loc 1 498 3 is_stmt 1 view .LVU658
 2081              		.loc 1 499 1 is_stmt 0 view .LVU659
 2082 0010 7047     		bx	lr
 2083              	.LVL106:
 2084              	.L87:
 2085              		.loc 1 491 7 discriminator 1 view .LVU660
 2086 0012 DB68     		ldr	r3, [r3, #12]
 2087              	.LVL107:
 2088              		.loc 1 491 7 discriminator 1 view .LVU661
 2089 0014 002B     		cmp	r3, #0
 2090 0016 F8D0     		beq	.L82
 2091              		.loc 1 492 12 view .LVU662
 2092 0018 0020     		movs	r0, #0
 2093 001a 7047     		bx	lr
 2094              		.cfi_endproc
 2095              	.LFE412:
 2096              		.size	obqGetFullBufferI, .-obqGetFullBufferI
 2097              		.section	.text.obqReleaseEmptyBufferI,"ax",%progbits
 2098              		.align	1
 2099              		.p2align 4,,15
 2100              		.global	obqReleaseEmptyBufferI
 2101              		.syntax unified
 2102              		.thumb
 2103              		.thumb_func
 2104              		.fpu softvfp
 2105              		.type	obqReleaseEmptyBufferI, %function
 2106              	obqReleaseEmptyBufferI:
 2107              	.LVL108:
 2108              	.LFB413:
 2109              		.loc 1 508 59 is_stmt 1 view -0
ARM GAS  /tmp/cc9meDp5.s 			page 38


 2110              		.cfi_startproc
 2111              		@ args = 0, pretend = 0, frame = 0
 2112              		@ frame_needed = 0, uses_anonymous_args = 0
 2113              		@ link register save eliminated.
 2114              		.loc 1 510 23 view .LVU664
 2115              		.loc 1 511 3 view .LVU665
 2116              		.loc 1 511 3 view .LVU666
 2117              		.loc 1 511 3 view .LVU667
 2118              		.loc 1 514 3 view .LVU668
 2119              		.loc 1 516 6 is_stmt 0 view .LVU669
 2120 0000 D0E90531 		ldrd	r3, r1, [r0, #20]
 2121              		.loc 1 515 16 view .LVU670
 2122 0004 D0F81CC0 		ldr	ip, [r0, #28]
 2123              		.loc 1 514 7 view .LVU671
 2124 0008 C268     		ldr	r2, [r0, #12]
 2125              		.loc 1 515 16 view .LVU672
 2126 000a 6344     		add	r3, r3, ip
 2127              		.loc 1 516 6 view .LVU673
 2128 000c 8B42     		cmp	r3, r1
 2129              		.loc 1 515 16 view .LVU674
 2130 000e 4361     		str	r3, [r0, #20]
 2131              		.loc 1 514 17 view .LVU675
 2132 0010 02F10102 		add	r2, r2, #1
 2133              		.loc 1 517 18 view .LVU676
 2134 0014 28BF     		it	cs
 2135 0016 436A     		ldrcs	r3, [r0, #36]
 2136              		.loc 1 514 17 view .LVU677
 2137 0018 C260     		str	r2, [r0, #12]
 2138              		.loc 1 515 3 is_stmt 1 view .LVU678
 2139              		.loc 1 516 3 view .LVU679
 2140              		.loc 1 517 5 view .LVU680
 2141              		.loc 1 517 18 is_stmt 0 view .LVU681
 2142 001a 28BF     		it	cs
 2143 001c 4361     		strcs	r3, [r0, #20]
 2144              		.loc 1 521 3 is_stmt 1 view .LVU682
 2145              	.LVL109:
 2146              	.LBB608:
 2147              	.LBI608:
 2148              		.loc 2 906 20 view .LVU683
 2149              	.LBB609:
 2150              		.loc 2 908 3 view .LVU684
 2151 001e 0021     		movs	r1, #0
 2152 0020 FFF7FEBF 		b	chThdDequeueNextI
 2153              	.LVL110:
 2154              		.loc 2 908 3 is_stmt 0 view .LVU685
 2155              	.LBE609:
 2156              	.LBE608:
 2157              		.cfi_endproc
 2158              	.LFE413:
 2159              		.size	obqReleaseEmptyBufferI, .-obqReleaseEmptyBufferI
 2160              		.section	.text.obqGetEmptyBufferTimeout,"ax",%progbits
 2161              		.align	1
 2162              		.p2align 4,,15
 2163              		.global	obqGetEmptyBufferTimeout
 2164              		.syntax unified
 2165              		.thumb
 2166              		.thumb_func
ARM GAS  /tmp/cc9meDp5.s 			page 39


 2167              		.fpu softvfp
 2168              		.type	obqGetEmptyBufferTimeout, %function
 2169              	obqGetEmptyBufferTimeout:
 2170              	.LVL111:
 2171              	.LFB414:
 2172              		.loc 1 546 55 is_stmt 1 view -0
 2173              		.cfi_startproc
 2174              		@ args = 0, pretend = 0, frame = 0
 2175              		@ frame_needed = 0, uses_anonymous_args = 0
 2176              		.loc 1 546 55 is_stmt 0 view .LVU687
 2177 0000 38B5     		push	{r3, r4, r5, lr}
 2178              		.cfi_def_cfa_offset 16
 2179              		.cfi_offset 3, -16
 2180              		.cfi_offset 4, -12
 2181              		.cfi_offset 5, -8
 2182              		.cfi_offset 14, -4
 2183              		.loc 1 546 55 view .LVU688
 2184 0002 0446     		mov	r4, r0
 2185              		.loc 1 547 3 is_stmt 1 view .LVU689
 2186              		.loc 1 549 3 view .LVU690
 2187              	.LBB631:
 2188              	.LBI631:
 2189              		.loc 2 573 20 view .LVU691
 2190              	.LBE631:
 2191              		.loc 2 575 3 view .LVU692
 2192              	.LBB643:
 2193              	.LBB632:
 2194              	.LBI632:
 2195              		.loc 5 407 20 view .LVU693
 2196              	.LBE632:
 2197              	.LBE643:
 2198              		.loc 5 409 3 view .LVU694
 2199              	.LBB644:
 2200              	.LBB640:
 2201              	.LBB633:
 2202              	.LBI633:
 2203              		.loc 6 806 27 view .LVU695
 2204              	.LBE633:
 2205              	.LBE640:
 2206              	.LBE644:
 2207              		.loc 6 814 3 view .LVU696
 2208              	.LVL112:
 2209              	.LBB645:
 2210              	.LBB641:
 2211              	.LBB638:
 2212              	.LBB634:
 2213              	.LBI634:
 2214              		.loc 7 491 27 view .LVU697
 2215              	.LBB635:
 2216              		.loc 7 493 3 view .LVU698
 2217              	.LBE635:
 2218              	.LBE634:
 2219              	.LBE638:
 2220              	.LBE641:
 2221              	.LBE645:
 2222              		.loc 1 546 55 is_stmt 0 view .LVU699
 2223 0004 0D46     		mov	r5, r1
ARM GAS  /tmp/cc9meDp5.s 			page 40


 2224              	.LBB646:
 2225              	.LBB642:
 2226              	.LBB639:
 2227              	.LBB637:
 2228              	.LBB636:
 2229              		.loc 7 493 3 view .LVU700
 2230 0006 3023     		movs	r3, #48
 2231              		.syntax unified
 2232              	@ 493 "../ChibiOS/os/common/ext/ARM/CMSIS/Core/Include/cmsis_gcc.h" 1
 2233 0008 83F31188 		MSR basepri, r3
 2234              	@ 0 "" 2
 2235              	.LVL113:
 2236              		.loc 7 493 3 view .LVU701
 2237              		.thumb
 2238              		.syntax unified
 2239              	.LBE636:
 2240              	.LBE637:
 2241              	.LBE639:
 2242              	.LBE642:
 2243              	.LBE646:
 2244              		.loc 5 410 35 is_stmt 1 view .LVU702
 2245              		.loc 5 411 21 view .LVU703
 2246              		.loc 1 550 3 view .LVU704
 2247              	.LBB647:
 2248              	.LBI647:
 2249              		.loc 1 577 7 view .LVU705
 2250              	.LBB648:
 2251              		.loc 1 580 23 view .LVU706
 2252              		.loc 1 582 3 view .LVU707
 2253              		.loc 1 582 9 is_stmt 0 view .LVU708
 2254 000c 05E0     		b	.L91
 2255              	.LVL114:
 2256              	.L93:
 2257              	.LBB649:
 2258              		.loc 1 583 8 view .LVU709
 2259 000e 237A     		ldrb	r3, [r4, #8]	@ zero_extendqisi2
 2260 0010 9BB9     		cbnz	r3, .L94
 2261              	.LBB650:
 2262              	.LBB651:
 2263              		.loc 2 895 10 view .LVU710
 2264 0012 FFF7FEFF 		bl	chThdEnqueueTimeoutS
 2265              	.LVL115:
 2266              		.loc 2 895 10 view .LVU711
 2267              	.LBE651:
 2268              	.LBE650:
 2269              		.loc 1 587 5 is_stmt 1 view .LVU712
 2270              		.loc 1 587 8 is_stmt 0 view .LVU713
 2271 0016 0028     		cmp	r0, #0
 2272              		.loc 1 587 8 view .LVU714
 2273 0018 0BDB     		blt	.L92
 2274              	.LVL116:
 2275              	.L91:
 2276              		.loc 1 583 5 is_stmt 1 view .LVU715
 2277              		.loc 1 586 5 view .LVU716
 2278              	.LBB654:
 2279              	.LBI650:
 2280              		.loc 2 892 21 view .LVU717
ARM GAS  /tmp/cc9meDp5.s 			page 41


 2281              	.LBB652:
 2282              		.loc 2 895 3 view .LVU718
 2283              	.LBE652:
 2284              	.LBE654:
 2285              	.LBE649:
 2286              		.loc 1 582 9 view .LVU719
 2287              		.loc 1 582 10 is_stmt 0 view .LVU720
 2288 001a E368     		ldr	r3, [r4, #12]
 2289              	.LBB656:
 2290              	.LBB655:
 2291              	.LBB653:
 2292              		.loc 2 895 10 view .LVU721
 2293 001c 2946     		mov	r1, r5
 2294 001e 2046     		mov	r0, r4
 2295              	.LBE653:
 2296              	.LBE655:
 2297              	.LBE656:
 2298              		.loc 1 582 9 view .LVU722
 2299 0020 002B     		cmp	r3, #0
 2300 0022 F4D0     		beq	.L93
 2301              	.LVL117:
 2302              	.LBB657:
 2303              	.LBI657:
 2304              		.loc 1 577 7 is_stmt 1 view .LVU723
 2305              	.LBB658:
 2306              		.loc 1 592 3 view .LVU724
 2307              		.loc 1 592 3 view .LVU725
 2308              		.loc 1 592 3 view .LVU726
 2309              		.loc 1 595 3 view .LVU727
 2310              		.loc 1 595 19 is_stmt 0 view .LVU728
 2311 0024 2369     		ldr	r3, [r4, #16]
 2312              		.loc 1 596 28 view .LVU729
 2313 0026 E169     		ldr	r1, [r4, #28]
 2314              	.LVL118:
 2315              		.loc 1 595 28 view .LVU730
 2316 0028 1A1D     		adds	r2, r3, #4
 2317              		.loc 1 596 28 view .LVU731
 2318 002a 0B44     		add	r3, r3, r1
 2319              		.loc 1 596 13 view .LVU732
 2320 002c C4E90A23 		strd	r2, r3, [r4, #40]
 2321              		.loc 1 598 3 is_stmt 1 view .LVU733
 2322              	.LVL119:
 2323              		.loc 1 596 13 is_stmt 0 view .LVU734
 2324 0030 0020     		movs	r0, #0
 2325              	.LVL120:
 2326              	.L92:
 2327              		.loc 1 596 13 view .LVU735
 2328              	.LBE658:
 2329              	.LBE657:
 2330              	.LBE648:
 2331              	.LBE647:
 2332              		.loc 1 551 3 is_stmt 1 view .LVU736
 2333              	.LBB661:
 2334              	.LBI661:
 2335              		.loc 2 584 20 view .LVU737
 2336              	.LBE661:
 2337              		.loc 2 586 3 view .LVU738
ARM GAS  /tmp/cc9meDp5.s 			page 42


 2338              	.LBB678:
 2339              	.LBB662:
 2340              	.LBI662:
 2341              		.loc 5 421 20 view .LVU739
 2342              	.LBB663:
 2343              		.loc 5 423 23 view .LVU740
 2344              		.loc 5 424 34 view .LVU741
 2345              		.loc 5 430 3 view .LVU742
 2346              		.loc 5 430 3 view .LVU743
 2347              		.loc 5 430 3 view .LVU744
 2348              		.loc 5 434 3 view .LVU745
 2349              	.LBB664:
 2350              	.LBI664:
 2351              		.loc 6 830 27 view .LVU746
 2352              	.LBE664:
 2353              	.LBE663:
 2354              	.LBE662:
 2355              	.LBE678:
 2356              		.loc 6 833 3 view .LVU747
 2357              	.LBB679:
 2358              	.LBB675:
 2359              	.LBB672:
 2360              	.LBB669:
 2361              	.LBB665:
 2362              	.LBI665:
 2363              		.loc 7 491 27 view .LVU748
 2364              	.LBB666:
 2365              		.loc 7 493 3 view .LVU749
 2366 0032 0023     		movs	r3, #0
 2367              		.syntax unified
 2368              	@ 493 "../ChibiOS/os/common/ext/ARM/CMSIS/Core/Include/cmsis_gcc.h" 1
 2369 0034 83F31188 		MSR basepri, r3
 2370              	@ 0 "" 2
 2371              	.LVL121:
 2372              		.loc 7 493 3 is_stmt 0 view .LVU750
 2373              		.thumb
 2374              		.syntax unified
 2375              	.LBE666:
 2376              	.LBE665:
 2377              	.LBE669:
 2378              	.LBE672:
 2379              	.LBE675:
 2380              	.LBE679:
 2381              		.loc 1 553 3 is_stmt 1 view .LVU751
 2382              		.loc 1 554 1 is_stmt 0 view .LVU752
 2383 0038 38BD     		pop	{r3, r4, r5, pc}
 2384              	.LVL122:
 2385              	.L94:
 2386              	.LBB680:
 2387              	.LBB660:
 2388              	.LBB659:
 2389              		.loc 1 584 14 view .LVU753
 2390 003a 6FF00100 		mvn	r0, #1
 2391              	.LVL123:
 2392              		.loc 1 584 14 view .LVU754
 2393              	.LBE659:
 2394              	.LBE660:
ARM GAS  /tmp/cc9meDp5.s 			page 43


 2395              	.LBE680:
 2396              		.loc 1 551 3 is_stmt 1 view .LVU755
 2397              	.LBB681:
 2398              		.loc 2 584 20 view .LVU756
 2399              	.LBE681:
 2400              		.loc 2 586 3 view .LVU757
 2401              	.LBB682:
 2402              	.LBB676:
 2403              		.loc 5 421 20 view .LVU758
 2404              	.LBB673:
 2405              		.loc 5 423 23 view .LVU759
 2406              		.loc 5 424 34 view .LVU760
 2407              		.loc 5 430 3 view .LVU761
 2408              		.loc 5 430 3 view .LVU762
 2409              		.loc 5 430 3 view .LVU763
 2410              		.loc 5 434 3 view .LVU764
 2411              	.LBB670:
 2412              		.loc 6 830 27 view .LVU765
 2413              	.LBE670:
 2414              	.LBE673:
 2415              	.LBE676:
 2416              	.LBE682:
 2417              		.loc 6 833 3 view .LVU766
 2418              	.LBB683:
 2419              	.LBB677:
 2420              	.LBB674:
 2421              	.LBB671:
 2422              	.LBB668:
 2423              		.loc 7 491 27 view .LVU767
 2424              	.LBB667:
 2425              		.loc 7 493 3 view .LVU768
 2426 003e 0023     		movs	r3, #0
 2427              		.syntax unified
 2428              	@ 493 "../ChibiOS/os/common/ext/ARM/CMSIS/Core/Include/cmsis_gcc.h" 1
 2429 0040 83F31188 		MSR basepri, r3
 2430              	@ 0 "" 2
 2431              	.LVL124:
 2432              		.loc 7 493 3 is_stmt 0 view .LVU769
 2433              		.thumb
 2434              		.syntax unified
 2435              	.LBE667:
 2436              	.LBE668:
 2437              	.LBE671:
 2438              	.LBE674:
 2439              	.LBE677:
 2440              	.LBE683:
 2441              		.loc 1 553 3 is_stmt 1 view .LVU770
 2442              		.loc 1 554 1 is_stmt 0 view .LVU771
 2443 0044 38BD     		pop	{r3, r4, r5, pc}
 2444              		.loc 1 554 1 view .LVU772
 2445              		.cfi_endproc
 2446              	.LFE414:
 2447              		.size	obqGetEmptyBufferTimeout, .-obqGetEmptyBufferTimeout
 2448 0046 00BF     		.section	.text.obqGetEmptyBufferTimeoutS,"ax",%progbits
 2449              		.align	1
 2450              		.p2align 4,,15
 2451              		.global	obqGetEmptyBufferTimeoutS
ARM GAS  /tmp/cc9meDp5.s 			page 44


 2452              		.syntax unified
 2453              		.thumb
 2454              		.thumb_func
 2455              		.fpu softvfp
 2456              		.type	obqGetEmptyBufferTimeoutS, %function
 2457              	obqGetEmptyBufferTimeoutS:
 2458              	.LVL125:
 2459              	.LFB415:
 2460              		.loc 1 578 56 is_stmt 1 view -0
 2461              		.cfi_startproc
 2462              		@ args = 0, pretend = 0, frame = 0
 2463              		@ frame_needed = 0, uses_anonymous_args = 0
 2464              		.loc 1 578 56 is_stmt 0 view .LVU774
 2465 0000 38B5     		push	{r3, r4, r5, lr}
 2466              		.cfi_def_cfa_offset 16
 2467              		.cfi_offset 3, -16
 2468              		.cfi_offset 4, -12
 2469              		.cfi_offset 5, -8
 2470              		.cfi_offset 14, -4
 2471              		.loc 1 578 56 view .LVU775
 2472 0002 0446     		mov	r4, r0
 2473              		.loc 1 580 23 is_stmt 1 view .LVU776
 2474              		.loc 1 582 3 view .LVU777
 2475              		.loc 1 578 56 is_stmt 0 view .LVU778
 2476 0004 0D46     		mov	r5, r1
 2477              		.loc 1 582 9 view .LVU779
 2478 0006 05E0     		b	.L97
 2479              	.LVL126:
 2480              	.L99:
 2481              	.LBB695:
 2482              		.loc 1 583 8 view .LVU780
 2483 0008 237A     		ldrb	r3, [r4, #8]	@ zero_extendqisi2
 2484 000a 83B9     		cbnz	r3, .L100
 2485              	.LBB696:
 2486              	.LBB697:
 2487              		.loc 2 895 10 view .LVU781
 2488 000c FFF7FEFF 		bl	chThdEnqueueTimeoutS
 2489              	.LVL127:
 2490              		.loc 2 895 10 view .LVU782
 2491              	.LBE697:
 2492              	.LBE696:
 2493              		.loc 1 587 5 is_stmt 1 view .LVU783
 2494              		.loc 1 587 8 is_stmt 0 view .LVU784
 2495 0010 0028     		cmp	r0, #0
 2496              		.loc 1 587 8 view .LVU785
 2497 0012 0BDB     		blt	.L96
 2498              	.LVL128:
 2499              	.L97:
 2500              		.loc 1 583 5 is_stmt 1 view .LVU786
 2501              		.loc 1 586 5 view .LVU787
 2502              	.LBB700:
 2503              	.LBI696:
 2504              		.loc 2 892 21 view .LVU788
 2505              	.LBB698:
 2506              		.loc 2 895 3 view .LVU789
 2507              	.LBE698:
 2508              	.LBE700:
ARM GAS  /tmp/cc9meDp5.s 			page 45


 2509              	.LBE695:
 2510              		.loc 1 582 9 view .LVU790
 2511              		.loc 1 582 10 is_stmt 0 view .LVU791
 2512 0014 E368     		ldr	r3, [r4, #12]
 2513              	.LBB702:
 2514              	.LBB701:
 2515              	.LBB699:
 2516              		.loc 2 895 10 view .LVU792
 2517 0016 2946     		mov	r1, r5
 2518 0018 2046     		mov	r0, r4
 2519              	.LBE699:
 2520              	.LBE701:
 2521              	.LBE702:
 2522              		.loc 1 582 9 view .LVU793
 2523 001a 002B     		cmp	r3, #0
 2524 001c F4D0     		beq	.L99
 2525              	.LVL129:
 2526              	.LBB703:
 2527              	.LBI703:
 2528              		.loc 1 577 7 is_stmt 1 view .LVU794
 2529              	.LBB704:
 2530              		.loc 1 592 3 view .LVU795
 2531              		.loc 1 592 3 view .LVU796
 2532              		.loc 1 592 3 view .LVU797
 2533              		.loc 1 595 3 view .LVU798
 2534              		.loc 1 595 19 is_stmt 0 view .LVU799
 2535 001e 2369     		ldr	r3, [r4, #16]
 2536              		.loc 1 596 28 view .LVU800
 2537 0020 E169     		ldr	r1, [r4, #28]
 2538              	.LVL130:
 2539              		.loc 1 595 28 view .LVU801
 2540 0022 1A1D     		adds	r2, r3, #4
 2541              		.loc 1 596 28 view .LVU802
 2542 0024 0B44     		add	r3, r3, r1
 2543              		.loc 1 596 13 view .LVU803
 2544 0026 C4E90A23 		strd	r2, r3, [r4, #40]
 2545              		.loc 1 598 3 is_stmt 1 view .LVU804
 2546              	.LVL131:
 2547              		.loc 1 596 13 is_stmt 0 view .LVU805
 2548 002a 0020     		movs	r0, #0
 2549              	.LVL132:
 2550              	.L96:
 2551              		.loc 1 596 13 view .LVU806
 2552              	.LBE704:
 2553              	.LBE703:
 2554              		.loc 1 599 1 view .LVU807
 2555 002c 38BD     		pop	{r3, r4, r5, pc}
 2556              	.LVL133:
 2557              	.L100:
 2558              	.LBB705:
 2559              		.loc 1 584 14 view .LVU808
 2560 002e 6FF00100 		mvn	r0, #1
 2561              	.LVL134:
 2562              		.loc 1 584 14 view .LVU809
 2563              	.LBE705:
 2564              		.loc 1 599 1 view .LVU810
 2565 0032 38BD     		pop	{r3, r4, r5, pc}
ARM GAS  /tmp/cc9meDp5.s 			page 46


 2566              		.loc 1 599 1 view .LVU811
 2567              		.cfi_endproc
 2568              	.LFE415:
 2569              		.size	obqGetEmptyBufferTimeoutS, .-obqGetEmptyBufferTimeoutS
 2570              		.section	.text.obqPostFullBuffer,"ax",%progbits
 2571              		.align	1
 2572              		.p2align 4,,15
 2573              		.global	obqPostFullBuffer
 2574              		.syntax unified
 2575              		.thumb
 2576              		.thumb_func
 2577              		.fpu softvfp
 2578              		.type	obqPostFullBuffer, %function
 2579              	obqPostFullBuffer:
 2580              	.LVL135:
 2581              	.LFB416:
 2582              		.loc 1 610 67 is_stmt 1 view -0
 2583              		.cfi_startproc
 2584              		@ args = 0, pretend = 0, frame = 0
 2585              		@ frame_needed = 0, uses_anonymous_args = 0
 2586              		.loc 1 612 3 view .LVU813
 2587              	.LBB719:
 2588              	.LBI719:
 2589              		.loc 2 573 20 view .LVU814
 2590              	.LBE719:
 2591              		.loc 2 575 3 view .LVU815
 2592              	.LBB731:
 2593              	.LBB720:
 2594              	.LBI720:
 2595              		.loc 5 407 20 view .LVU816
 2596              	.LBE720:
 2597              	.LBE731:
 2598              		.loc 5 409 3 view .LVU817
 2599              	.LBB732:
 2600              	.LBB728:
 2601              	.LBB721:
 2602              	.LBI721:
 2603              		.loc 6 806 27 view .LVU818
 2604              	.LBE721:
 2605              	.LBE728:
 2606              	.LBE732:
 2607              		.loc 6 814 3 view .LVU819
 2608              	.LBB733:
 2609              	.LBB729:
 2610              	.LBB726:
 2611              	.LBB722:
 2612              	.LBI722:
 2613              		.loc 7 491 27 view .LVU820
 2614              	.LBB723:
 2615              		.loc 7 493 3 view .LVU821
 2616              	.LBE723:
 2617              	.LBE722:
 2618              	.LBE726:
 2619              	.LBE729:
 2620              	.LBE733:
 2621              		.loc 1 610 67 is_stmt 0 view .LVU822
 2622 0000 10B5     		push	{r4, lr}
ARM GAS  /tmp/cc9meDp5.s 			page 47


 2623              		.cfi_def_cfa_offset 8
 2624              		.cfi_offset 4, -8
 2625              		.cfi_offset 14, -4
 2626              	.LBB734:
 2627              	.LBB730:
 2628              	.LBB727:
 2629              	.LBB725:
 2630              	.LBB724:
 2631              		.loc 7 493 3 view .LVU823
 2632 0002 3023     		movs	r3, #48
 2633              		.syntax unified
 2634              	@ 493 "../ChibiOS/os/common/ext/ARM/CMSIS/Core/Include/cmsis_gcc.h" 1
 2635 0004 83F31188 		MSR basepri, r3
 2636              	@ 0 "" 2
 2637              	.LVL136:
 2638              		.loc 7 493 3 view .LVU824
 2639              		.thumb
 2640              		.syntax unified
 2641              	.LBE724:
 2642              	.LBE725:
 2643              	.LBE727:
 2644              	.LBE730:
 2645              	.LBE734:
 2646              		.loc 5 410 35 is_stmt 1 view .LVU825
 2647              		.loc 5 411 21 view .LVU826
 2648              		.loc 1 613 3 view .LVU827
 2649              	.LBB735:
 2650              	.LBI735:
 2651              		.loc 1 626 6 view .LVU828
 2652              	.LBB736:
 2653              		.loc 1 628 23 view .LVU829
 2654              		.loc 1 629 3 view .LVU830
 2655              		.loc 1 629 3 view .LVU831
 2656              		.loc 1 629 3 view .LVU832
 2657              		.loc 1 630 3 view .LVU833
 2658              		.loc 1 630 3 view .LVU834
 2659              		.loc 1 630 3 view .LVU835
 2660              		.loc 1 633 3 view .LVU836
 2661              		.loc 1 633 27 is_stmt 0 view .LVU837
 2662 0008 0369     		ldr	r3, [r0, #16]
 2663              		.loc 1 638 6 view .LVU838
 2664 000a 8469     		ldr	r4, [r0, #24]
 2665              		.loc 1 633 37 view .LVU839
 2666 000c 1960     		str	r1, [r3]
 2667              		.loc 1 636 3 is_stmt 1 view .LVU840
 2668              		.loc 1 637 16 is_stmt 0 view .LVU841
 2669 000e C169     		ldr	r1, [r0, #28]
 2670              	.LVL137:
 2671              		.loc 1 636 7 view .LVU842
 2672 0010 C268     		ldr	r2, [r0, #12]
 2673              		.loc 1 637 16 view .LVU843
 2674 0012 0B44     		add	r3, r3, r1
 2675              	.LVL138:
 2676              		.loc 1 638 6 view .LVU844
 2677 0014 A342     		cmp	r3, r4
 2678              		.loc 1 637 16 view .LVU845
 2679 0016 0361     		str	r3, [r0, #16]
ARM GAS  /tmp/cc9meDp5.s 			page 48


 2680              	.LVL139:
 2681              		.loc 1 639 18 view .LVU846
 2682 0018 24BF     		itt	cs
 2683 001a 436A     		ldrcs	r3, [r0, #36]
 2684 001c 0361     		strcs	r3, [r0, #16]
 2685              		.loc 1 636 17 view .LVU847
 2686 001e 013A     		subs	r2, r2, #1
 2687              		.loc 1 646 11 view .LVU848
 2688 0020 036B     		ldr	r3, [r0, #48]
 2689              		.loc 1 636 17 view .LVU849
 2690 0022 C260     		str	r2, [r0, #12]
 2691              		.loc 1 637 3 is_stmt 1 view .LVU850
 2692              		.loc 1 638 3 view .LVU851
 2693              		.loc 1 639 5 view .LVU852
 2694              		.loc 1 643 3 view .LVU853
 2695              		.loc 1 643 13 is_stmt 0 view .LVU854
 2696 0024 0022     		movs	r2, #0
 2697 0026 8262     		str	r2, [r0, #40]
 2698              		.loc 1 646 3 is_stmt 1 view .LVU855
 2699              		.loc 1 646 6 is_stmt 0 view .LVU856
 2700 0028 03B1     		cbz	r3, .L104
 2701              		.loc 1 647 5 is_stmt 1 view .LVU857
 2702 002a 9847     		blx	r3
 2703              	.LVL140:
 2704              	.L104:
 2705              		.loc 1 647 5 is_stmt 0 view .LVU858
 2706              	.LBE736:
 2707              	.LBE735:
 2708              		.loc 1 614 3 is_stmt 1 view .LVU859
 2709              	.LBB737:
 2710              	.LBI737:
 2711              		.loc 2 584 20 view .LVU860
 2712              	.LBE737:
 2713              		.loc 2 586 3 view .LVU861
 2714              	.LBB746:
 2715              	.LBB738:
 2716              	.LBI738:
 2717              		.loc 5 421 20 view .LVU862
 2718              	.LBB739:
 2719              		.loc 5 423 23 view .LVU863
 2720              		.loc 5 424 34 view .LVU864
 2721              		.loc 5 430 3 view .LVU865
 2722              		.loc 5 430 3 view .LVU866
 2723              		.loc 5 430 3 view .LVU867
 2724              		.loc 5 434 3 view .LVU868
 2725              	.LBB740:
 2726              	.LBI740:
 2727              		.loc 6 830 27 view .LVU869
 2728              	.LBE740:
 2729              	.LBE739:
 2730              	.LBE738:
 2731              	.LBE746:
 2732              		.loc 6 833 3 view .LVU870
 2733              	.LBB747:
 2734              	.LBB745:
 2735              	.LBB744:
 2736              	.LBB743:
ARM GAS  /tmp/cc9meDp5.s 			page 49


 2737              	.LBB741:
 2738              	.LBI741:
 2739              		.loc 7 491 27 view .LVU871
 2740              	.LBB742:
 2741              		.loc 7 493 3 view .LVU872
 2742 002c 0023     		movs	r3, #0
 2743              		.syntax unified
 2744              	@ 493 "../ChibiOS/os/common/ext/ARM/CMSIS/Core/Include/cmsis_gcc.h" 1
 2745 002e 83F31188 		MSR basepri, r3
 2746              	@ 0 "" 2
 2747              	.LVL141:
 2748              		.loc 7 493 3 is_stmt 0 view .LVU873
 2749              		.thumb
 2750              		.syntax unified
 2751              	.LBE742:
 2752              	.LBE741:
 2753              	.LBE743:
 2754              	.LBE744:
 2755              	.LBE745:
 2756              	.LBE747:
 2757              		.loc 1 615 1 view .LVU874
 2758 0032 10BD     		pop	{r4, pc}
 2759              		.cfi_endproc
 2760              	.LFE416:
 2761              		.size	obqPostFullBuffer, .-obqPostFullBuffer
 2762              		.section	.text.obqPostFullBufferS,"ax",%progbits
 2763              		.align	1
 2764              		.p2align 4,,15
 2765              		.global	obqPostFullBufferS
 2766              		.syntax unified
 2767              		.thumb
 2768              		.thumb_func
 2769              		.fpu softvfp
 2770              		.type	obqPostFullBufferS, %function
 2771              	obqPostFullBufferS:
 2772              	.LVL142:
 2773              	.LFB417:
 2774              		.loc 1 626 68 is_stmt 1 view -0
 2775              		.cfi_startproc
 2776              		@ args = 0, pretend = 0, frame = 0
 2777              		@ frame_needed = 0, uses_anonymous_args = 0
 2778              		@ link register save eliminated.
 2779              		.loc 1 628 23 view .LVU876
 2780              		.loc 1 629 3 view .LVU877
 2781              		.loc 1 629 3 view .LVU878
 2782              		.loc 1 629 3 view .LVU879
 2783              		.loc 1 630 3 view .LVU880
 2784              		.loc 1 630 3 view .LVU881
 2785              		.loc 1 630 3 view .LVU882
 2786              		.loc 1 633 3 view .LVU883
 2787              		.loc 1 633 27 is_stmt 0 view .LVU884
 2788 0000 0369     		ldr	r3, [r0, #16]
 2789              		.loc 1 626 68 view .LVU885
 2790 0002 10B4     		push	{r4}
 2791              		.cfi_def_cfa_offset 4
 2792              		.cfi_offset 4, -4
 2793              		.loc 1 638 6 view .LVU886
ARM GAS  /tmp/cc9meDp5.s 			page 50


 2794 0004 8469     		ldr	r4, [r0, #24]
 2795              		.loc 1 633 37 view .LVU887
 2796 0006 1960     		str	r1, [r3]
 2797              		.loc 1 636 3 is_stmt 1 view .LVU888
 2798              		.loc 1 637 16 is_stmt 0 view .LVU889
 2799 0008 C169     		ldr	r1, [r0, #28]
 2800              	.LVL143:
 2801              		.loc 1 636 7 view .LVU890
 2802 000a C268     		ldr	r2, [r0, #12]
 2803              		.loc 1 637 16 view .LVU891
 2804 000c 0B44     		add	r3, r3, r1
 2805              	.LVL144:
 2806              		.loc 1 638 6 view .LVU892
 2807 000e A342     		cmp	r3, r4
 2808              		.loc 1 637 16 view .LVU893
 2809 0010 0361     		str	r3, [r0, #16]
 2810              	.LVL145:
 2811              		.loc 1 639 18 view .LVU894
 2812 0012 24BF     		itt	cs
 2813 0014 436A     		ldrcs	r3, [r0, #36]
 2814 0016 0361     		strcs	r3, [r0, #16]
 2815              		.loc 1 636 17 view .LVU895
 2816 0018 013A     		subs	r2, r2, #1
 2817              		.loc 1 646 11 view .LVU896
 2818 001a 036B     		ldr	r3, [r0, #48]
 2819              		.loc 1 636 17 view .LVU897
 2820 001c C260     		str	r2, [r0, #12]
 2821              		.loc 1 637 3 is_stmt 1 view .LVU898
 2822              		.loc 1 638 3 view .LVU899
 2823              		.loc 1 639 5 view .LVU900
 2824              		.loc 1 643 3 view .LVU901
 2825              		.loc 1 643 13 is_stmt 0 view .LVU902
 2826 001e 0022     		movs	r2, #0
 2827 0020 8262     		str	r2, [r0, #40]
 2828              		.loc 1 646 3 is_stmt 1 view .LVU903
 2829              		.loc 1 646 6 is_stmt 0 view .LVU904
 2830 0022 0BB1     		cbz	r3, .L109
 2831              		.loc 1 647 5 is_stmt 1 view .LVU905
 2832              		.loc 1 649 1 is_stmt 0 view .LVU906
 2833 0024 10BC     		pop	{r4}
 2834              		.cfi_remember_state
 2835              		.cfi_restore 4
 2836              		.cfi_def_cfa_offset 0
 2837              		.loc 1 647 5 view .LVU907
 2838 0026 1847     		bx	r3	@ indirect register sibling call
 2839              	.LVL146:
 2840              	.L109:
 2841              		.cfi_restore_state
 2842              		.loc 1 649 1 view .LVU908
 2843 0028 10BC     		pop	{r4}
 2844              		.cfi_restore 4
 2845              		.cfi_def_cfa_offset 0
 2846 002a 7047     		bx	lr
 2847              		.cfi_endproc
 2848              	.LFE417:
 2849              		.size	obqPostFullBufferS, .-obqPostFullBufferS
 2850              		.section	.text.obqPutTimeout,"ax",%progbits
ARM GAS  /tmp/cc9meDp5.s 			page 51


 2851              		.align	1
 2852              		.p2align 4,,15
 2853              		.global	obqPutTimeout
 2854              		.syntax unified
 2855              		.thumb
 2856              		.thumb_func
 2857              		.fpu softvfp
 2858              		.type	obqPutTimeout, %function
 2859              	obqPutTimeout:
 2860              	.LVL147:
 2861              	.LFB418:
 2862              		.loc 1 672 44 is_stmt 1 view -0
 2863              		.cfi_startproc
 2864              		@ args = 0, pretend = 0, frame = 0
 2865              		@ frame_needed = 0, uses_anonymous_args = 0
 2866              		.loc 1 672 44 is_stmt 0 view .LVU910
 2867 0000 70B5     		push	{r4, r5, r6, lr}
 2868              		.cfi_def_cfa_offset 16
 2869              		.cfi_offset 4, -16
 2870              		.cfi_offset 5, -12
 2871              		.cfi_offset 6, -8
 2872              		.cfi_offset 14, -4
 2873              	.LBB777:
 2874              	.LBB778:
 2875              	.LBB779:
 2876              	.LBB780:
 2877              	.LBB781:
 2878              		.loc 7 493 3 view .LVU911
 2879 0002 3023     		movs	r3, #48
 2880              	.LBE781:
 2881              	.LBE780:
 2882              	.LBE779:
 2883              	.LBE778:
 2884              	.LBE777:
 2885              		.loc 1 672 44 view .LVU912
 2886 0004 0446     		mov	r4, r0
 2887 0006 0E46     		mov	r6, r1
 2888              		.loc 1 673 3 is_stmt 1 view .LVU913
 2889              		.loc 1 675 3 view .LVU914
 2890              	.LBB789:
 2891              	.LBI777:
 2892              		.loc 2 573 20 view .LVU915
 2893              	.LBE789:
 2894              		.loc 2 575 3 view .LVU916
 2895              	.LBB790:
 2896              	.LBB786:
 2897              	.LBI778:
 2898              		.loc 5 407 20 view .LVU917
 2899              	.LBE786:
 2900              	.LBE790:
 2901              		.loc 5 409 3 view .LVU918
 2902              	.LBB791:
 2903              	.LBB787:
 2904              	.LBB784:
 2905              	.LBI779:
 2906              		.loc 6 806 27 view .LVU919
 2907              	.LBE784:
ARM GAS  /tmp/cc9meDp5.s 			page 52


 2908              	.LBE787:
 2909              	.LBE791:
 2910              		.loc 6 814 3 view .LVU920
 2911              	.LVL148:
 2912              	.LBB792:
 2913              	.LBB788:
 2914              	.LBB785:
 2915              	.LBB783:
 2916              	.LBI780:
 2917              		.loc 7 491 27 view .LVU921
 2918              	.LBB782:
 2919              		.loc 7 493 3 view .LVU922
 2920              		.syntax unified
 2921              	@ 493 "../ChibiOS/os/common/ext/ARM/CMSIS/Core/Include/cmsis_gcc.h" 1
 2922 0008 83F31188 		MSR basepri, r3
 2923              	@ 0 "" 2
 2924              	.LVL149:
 2925              		.loc 7 493 3 is_stmt 0 view .LVU923
 2926              		.thumb
 2927              		.syntax unified
 2928              	.LBE782:
 2929              	.LBE783:
 2930              	.LBE785:
 2931              	.LBE788:
 2932              	.LBE792:
 2933              		.loc 5 410 35 is_stmt 1 view .LVU924
 2934              		.loc 5 411 21 view .LVU925
 2935              		.loc 1 678 3 view .LVU926
 2936              		.loc 1 678 11 is_stmt 0 view .LVU927
 2937 000c 836A     		ldr	r3, [r0, #40]
 2938              		.loc 1 678 6 view .LVU928
 2939 000e 0BB3     		cbz	r3, .L130
 2940              	.LVL150:
 2941              	.L115:
 2942              		.loc 1 687 3 is_stmt 1 view .LVU929
 2943              		.loc 1 687 14 is_stmt 0 view .LVU930
 2944 0010 1E70     		strb	r6, [r3]
 2945              		.loc 1 688 3 is_stmt 1 view .LVU931
 2946              		.loc 1 692 6 is_stmt 0 view .LVU932
 2947 0012 D4E90A32 		ldrd	r3, r2, [r4, #40]
 2948              		.loc 1 688 12 view .LVU933
 2949 0016 0133     		adds	r3, r3, #1
 2950              		.loc 1 692 6 view .LVU934
 2951 0018 9342     		cmp	r3, r2
 2952              		.loc 1 688 12 view .LVU935
 2953 001a A362     		str	r3, [r4, #40]
 2954              		.loc 1 692 3 is_stmt 1 view .LVU936
 2955              		.loc 1 692 6 is_stmt 0 view .LVU937
 2956 001c 03D2     		bcs	.L131
 2957              	.LVL151:
 2958              	.L119:
 2959              		.loc 1 696 3 is_stmt 1 view .LVU938
 2960              	.LBB793:
 2961              	.LBI793:
 2962              		.loc 2 584 20 view .LVU939
 2963              	.LBE793:
 2964              		.loc 2 586 3 view .LVU940
ARM GAS  /tmp/cc9meDp5.s 			page 53


 2965              	.LBB802:
 2966              	.LBB794:
 2967              	.LBI794:
 2968              		.loc 5 421 20 view .LVU941
 2969              	.LBB795:
 2970              		.loc 5 423 23 view .LVU942
 2971              		.loc 5 424 34 view .LVU943
 2972              		.loc 5 430 3 view .LVU944
 2973              		.loc 5 430 3 view .LVU945
 2974              		.loc 5 430 3 view .LVU946
 2975              		.loc 5 434 3 view .LVU947
 2976              	.LBB796:
 2977              	.LBI796:
 2978              		.loc 6 830 27 view .LVU948
 2979              	.LBE796:
 2980              	.LBE795:
 2981              	.LBE794:
 2982              	.LBE802:
 2983              		.loc 6 833 3 view .LVU949
 2984              	.LBB803:
 2985              	.LBB801:
 2986              	.LBB800:
 2987              	.LBB799:
 2988              	.LBB797:
 2989              	.LBI797:
 2990              		.loc 7 491 27 view .LVU950
 2991              	.LBB798:
 2992              		.loc 7 493 3 view .LVU951
 2993 001e 0020     		movs	r0, #0
 2994              		.syntax unified
 2995              	@ 493 "../ChibiOS/os/common/ext/ARM/CMSIS/Core/Include/cmsis_gcc.h" 1
 2996 0020 80F31188 		MSR basepri, r0
 2997              	@ 0 "" 2
 2998              	.LVL152:
 2999              		.loc 7 493 3 is_stmt 0 view .LVU952
 3000              		.thumb
 3001              		.syntax unified
 3002              	.LBE798:
 3003              	.LBE797:
 3004              	.LBE799:
 3005              	.LBE800:
 3006              	.LBE801:
 3007              	.LBE803:
 3008              		.loc 1 697 3 is_stmt 1 view .LVU953
 3009              		.loc 1 698 1 is_stmt 0 view .LVU954
 3010 0024 70BD     		pop	{r4, r5, r6, pc}
 3011              	.LVL153:
 3012              	.L131:
 3013              		.loc 1 693 5 is_stmt 1 view .LVU955
 3014              	.LBB804:
 3015              	.LBI804:
 3016              		.loc 1 626 6 view .LVU956
 3017              	.LBB805:
 3018              		.loc 1 628 23 view .LVU957
 3019              		.loc 1 629 3 view .LVU958
 3020              		.loc 1 629 3 view .LVU959
 3021              		.loc 1 629 3 view .LVU960
ARM GAS  /tmp/cc9meDp5.s 			page 54


 3022              		.loc 1 630 3 view .LVU961
 3023              		.loc 1 630 3 view .LVU962
 3024              		.loc 1 630 3 view .LVU963
 3025              		.loc 1 633 3 view .LVU964
 3026              	.LBE805:
 3027              	.LBE804:
 3028              		.loc 1 693 5 is_stmt 0 view .LVU965
 3029 0026 E269     		ldr	r2, [r4, #28]
 3030              	.LBB808:
 3031              	.LBB806:
 3032              		.loc 1 633 27 view .LVU966
 3033 0028 2369     		ldr	r3, [r4, #16]
 3034              	.LBE806:
 3035              	.LBE808:
 3036              		.loc 1 693 5 view .LVU967
 3037 002a 043A     		subs	r2, r2, #4
 3038              	.LVL154:
 3039              	.LBB809:
 3040              	.LBB807:
 3041              		.loc 1 633 37 view .LVU968
 3042 002c 1A60     		str	r2, [r3]
 3043              		.loc 1 636 3 is_stmt 1 view .LVU969
 3044              		.loc 1 638 6 is_stmt 0 view .LVU970
 3045 002e D4E90610 		ldrd	r1, r0, [r4, #24]
 3046              	.LVL155:
 3047              		.loc 1 637 16 view .LVU971
 3048 0032 0344     		add	r3, r3, r0
 3049              		.loc 1 638 6 view .LVU972
 3050 0034 8B42     		cmp	r3, r1
 3051              		.loc 1 636 7 view .LVU973
 3052 0036 E268     		ldr	r2, [r4, #12]
 3053              	.LVL156:
 3054              		.loc 1 637 16 view .LVU974
 3055 0038 2361     		str	r3, [r4, #16]
 3056              	.LVL157:
 3057              		.loc 1 639 18 view .LVU975
 3058 003a 24BF     		itt	cs
 3059 003c 636A     		ldrcs	r3, [r4, #36]
 3060 003e 2361     		strcs	r3, [r4, #16]
 3061              		.loc 1 636 17 view .LVU976
 3062 0040 013A     		subs	r2, r2, #1
 3063              		.loc 1 646 11 view .LVU977
 3064 0042 236B     		ldr	r3, [r4, #48]
 3065              		.loc 1 636 17 view .LVU978
 3066 0044 E260     		str	r2, [r4, #12]
 3067              		.loc 1 637 3 is_stmt 1 view .LVU979
 3068              		.loc 1 638 3 view .LVU980
 3069              		.loc 1 639 5 view .LVU981
 3070              		.loc 1 643 3 view .LVU982
 3071              		.loc 1 643 13 is_stmt 0 view .LVU983
 3072 0046 0022     		movs	r2, #0
 3073 0048 A262     		str	r2, [r4, #40]
 3074              		.loc 1 646 3 is_stmt 1 view .LVU984
 3075              		.loc 1 646 6 is_stmt 0 view .LVU985
 3076 004a 002B     		cmp	r3, #0
 3077 004c E7D0     		beq	.L119
 3078              		.loc 1 647 5 is_stmt 1 view .LVU986
ARM GAS  /tmp/cc9meDp5.s 			page 55


 3079 004e 2046     		mov	r0, r4
 3080 0050 9847     		blx	r3
 3081              	.LVL158:
 3082 0052 E4E7     		b	.L119
 3083              	.LVL159:
 3084              	.L130:
 3085              		.loc 1 647 5 is_stmt 0 view .LVU987
 3086 0054 1546     		mov	r5, r2
 3087              	.LBE807:
 3088              	.LBE809:
 3089 0056 05E0     		b	.L114
 3090              	.LVL160:
 3091              	.L117:
 3092              	.LBB810:
 3093              	.LBB811:
 3094              	.LBB812:
 3095              		.loc 1 583 8 view .LVU988
 3096 0058 237A     		ldrb	r3, [r4, #8]	@ zero_extendqisi2
 3097 005a 7BB9     		cbnz	r3, .L123
 3098              	.LBB813:
 3099              	.LBB814:
 3100              		.loc 2 895 10 view .LVU989
 3101 005c FFF7FEFF 		bl	chThdEnqueueTimeoutS
 3102              	.LVL161:
 3103              		.loc 2 895 10 view .LVU990
 3104              	.LBE814:
 3105              	.LBE813:
 3106              		.loc 1 587 5 is_stmt 1 view .LVU991
 3107              		.loc 1 587 8 is_stmt 0 view .LVU992
 3108 0060 0028     		cmp	r0, #0
 3109              		.loc 1 587 8 view .LVU993
 3110 0062 0DDB     		blt	.L116
 3111              	.LVL162:
 3112              	.L114:
 3113              		.loc 1 583 5 is_stmt 1 view .LVU994
 3114              		.loc 1 586 5 view .LVU995
 3115              	.LBB817:
 3116              	.LBI813:
 3117              		.loc 2 892 21 view .LVU996
 3118              	.LBB815:
 3119              		.loc 2 895 3 view .LVU997
 3120              	.LBE815:
 3121              	.LBE817:
 3122              	.LBE812:
 3123              		.loc 1 582 9 view .LVU998
 3124              		.loc 1 582 10 is_stmt 0 view .LVU999
 3125 0064 E368     		ldr	r3, [r4, #12]
 3126              	.LBB819:
 3127              	.LBB818:
 3128              	.LBB816:
 3129              		.loc 2 895 10 view .LVU1000
 3130 0066 2946     		mov	r1, r5
 3131 0068 2046     		mov	r0, r4
 3132              	.LBE816:
 3133              	.LBE818:
 3134              	.LBE819:
 3135              		.loc 1 582 9 view .LVU1001
ARM GAS  /tmp/cc9meDp5.s 			page 56


 3136 006a 002B     		cmp	r3, #0
 3137 006c F4D0     		beq	.L117
 3138              	.LVL163:
 3139              	.LBB820:
 3140              	.LBI820:
 3141              		.loc 1 577 7 is_stmt 1 view .LVU1002
 3142              	.LBB821:
 3143              		.loc 1 592 3 view .LVU1003
 3144              		.loc 1 592 3 view .LVU1004
 3145              		.loc 1 592 3 view .LVU1005
 3146              		.loc 1 595 3 view .LVU1006
 3147              		.loc 1 595 19 is_stmt 0 view .LVU1007
 3148 006e 2269     		ldr	r2, [r4, #16]
 3149              		.loc 1 596 28 view .LVU1008
 3150 0070 E169     		ldr	r1, [r4, #28]
 3151              	.LVL164:
 3152              		.loc 1 595 28 view .LVU1009
 3153 0072 131D     		adds	r3, r2, #4
 3154              		.loc 1 596 28 view .LVU1010
 3155 0074 0A44     		add	r2, r2, r1
 3156              		.loc 1 596 13 view .LVU1011
 3157 0076 C4E90A32 		strd	r3, r2, [r4, #40]
 3158              		.loc 1 598 3 is_stmt 1 view .LVU1012
 3159              	.LVL165:
 3160              		.loc 1 598 3 is_stmt 0 view .LVU1013
 3161              	.LBE821:
 3162              	.LBE820:
 3163              	.LBE811:
 3164              	.LBE810:
 3165              		.loc 1 680 5 is_stmt 1 view .LVU1014
 3166 007a C9E7     		b	.L115
 3167              	.LVL166:
 3168              	.L123:
 3169              	.LBB824:
 3170              	.LBB823:
 3171              	.LBB822:
 3172              		.loc 1 584 14 is_stmt 0 view .LVU1015
 3173 007c 6FF00100 		mvn	r0, #1
 3174              	.LVL167:
 3175              	.L116:
 3176              		.loc 1 584 14 view .LVU1016
 3177              	.LBE822:
 3178              	.LBE823:
 3179              	.LBE824:
 3180              		.loc 1 680 5 is_stmt 1 view .LVU1017
 3181              		.loc 1 681 7 view .LVU1018
 3182              	.LBB825:
 3183              	.LBI825:
 3184              		.loc 2 584 20 view .LVU1019
 3185              	.LBE825:
 3186              		.loc 2 586 3 view .LVU1020
 3187              	.LBB834:
 3188              	.LBB826:
 3189              	.LBI826:
 3190              		.loc 5 421 20 view .LVU1021
 3191              	.LBB827:
 3192              		.loc 5 423 23 view .LVU1022
ARM GAS  /tmp/cc9meDp5.s 			page 57


 3193              		.loc 5 424 34 view .LVU1023
 3194              		.loc 5 430 3 view .LVU1024
 3195              		.loc 5 430 3 view .LVU1025
 3196              		.loc 5 430 3 view .LVU1026
 3197              		.loc 5 434 3 view .LVU1027
 3198              	.LBB828:
 3199              	.LBI828:
 3200              		.loc 6 830 27 view .LVU1028
 3201              	.LBE828:
 3202              	.LBE827:
 3203              	.LBE826:
 3204              	.LBE834:
 3205              		.loc 6 833 3 view .LVU1029
 3206              	.LBB835:
 3207              	.LBB833:
 3208              	.LBB832:
 3209              	.LBB831:
 3210              	.LBB829:
 3211              	.LBI829:
 3212              		.loc 7 491 27 view .LVU1030
 3213              	.LBB830:
 3214              		.loc 7 493 3 view .LVU1031
 3215 0080 0023     		movs	r3, #0
 3216              		.syntax unified
 3217              	@ 493 "../ChibiOS/os/common/ext/ARM/CMSIS/Core/Include/cmsis_gcc.h" 1
 3218 0082 83F31188 		MSR basepri, r3
 3219              	@ 0 "" 2
 3220              	.LVL168:
 3221              		.loc 7 493 3 is_stmt 0 view .LVU1032
 3222              		.thumb
 3223              		.syntax unified
 3224              	.LBE830:
 3225              	.LBE829:
 3226              	.LBE831:
 3227              	.LBE832:
 3228              	.LBE833:
 3229              	.LBE835:
 3230              		.loc 1 682 7 is_stmt 1 view .LVU1033
 3231              		.loc 1 698 1 is_stmt 0 view .LVU1034
 3232 0086 70BD     		pop	{r4, r5, r6, pc}
 3233              		.loc 1 698 1 view .LVU1035
 3234              		.cfi_endproc
 3235              	.LFE418:
 3236              		.size	obqPutTimeout, .-obqPutTimeout
 3237              		.section	.text.obqWriteTimeout,"ax",%progbits
 3238              		.align	1
 3239              		.p2align 4,,15
 3240              		.global	obqWriteTimeout
 3241              		.syntax unified
 3242              		.thumb
 3243              		.thumb_func
 3244              		.fpu softvfp
 3245              		.type	obqWriteTimeout, %function
 3246              	obqWriteTimeout:
 3247              	.LVL169:
 3248              	.LFB419:
 3249              		.loc 1 722 57 is_stmt 1 view -0
ARM GAS  /tmp/cc9meDp5.s 			page 58


 3250              		.cfi_startproc
 3251              		@ args = 0, pretend = 0, frame = 0
 3252              		@ frame_needed = 0, uses_anonymous_args = 0
 3253              		.loc 1 723 3 view .LVU1037
 3254              		.loc 1 725 3 view .LVU1038
 3255              		.loc 1 725 3 view .LVU1039
 3256              		.loc 1 725 3 view .LVU1040
 3257              		.loc 1 727 3 view .LVU1041
 3258              	.LBB874:
 3259              	.LBI874:
 3260              		.loc 2 573 20 view .LVU1042
 3261              	.LBB875:
 3262              		.loc 2 575 3 view .LVU1043
 3263              	.LBB876:
 3264              	.LBI876:
 3265              		.loc 5 407 20 view .LVU1044
 3266              	.LBE876:
 3267              	.LBE875:
 3268              	.LBE874:
 3269              		.loc 5 409 3 view .LVU1045
 3270              	.LBB890:
 3271              	.LBB887:
 3272              	.LBB884:
 3273              	.LBB877:
 3274              	.LBI877:
 3275              		.loc 6 806 27 view .LVU1046
 3276              	.LBE877:
 3277              	.LBE884:
 3278              	.LBE887:
 3279              	.LBE890:
 3280              		.loc 6 814 3 view .LVU1047
 3281              	.LBB891:
 3282              	.LBB888:
 3283              	.LBB885:
 3284              	.LBB882:
 3285              	.LBB878:
 3286              	.LBI878:
 3287              		.loc 7 491 27 view .LVU1048
 3288              	.LBB879:
 3289              		.loc 7 493 3 view .LVU1049
 3290              	.LBE879:
 3291              	.LBE878:
 3292              	.LBE882:
 3293              	.LBE885:
 3294              	.LBE888:
 3295              	.LBE891:
 3296              		.loc 1 722 57 is_stmt 0 view .LVU1050
 3297 0000 2DE9F84F 		push	{r3, r4, r5, r6, r7, r8, r9, r10, fp, lr}
 3298              		.cfi_def_cfa_offset 40
 3299              		.cfi_offset 3, -40
 3300              		.cfi_offset 4, -36
 3301              		.cfi_offset 5, -32
 3302              		.cfi_offset 6, -28
 3303              		.cfi_offset 7, -24
 3304              		.cfi_offset 8, -20
 3305              		.cfi_offset 9, -16
 3306              		.cfi_offset 10, -12
ARM GAS  /tmp/cc9meDp5.s 			page 59


 3307              		.cfi_offset 11, -8
 3308              		.cfi_offset 14, -4
 3309              		.loc 1 722 57 view .LVU1051
 3310 0004 8146     		mov	r9, r0
 3311 0006 8A46     		mov	r10, r1
 3312 0008 1546     		mov	r5, r2
 3313 000a 1E46     		mov	r6, r3
 3314              	.LBB892:
 3315              	.LBB889:
 3316              	.LBB886:
 3317              	.LBB883:
 3318              	.LBB881:
 3319              	.LBB880:
 3320              		.loc 7 493 3 view .LVU1052
 3321 000c 4FF03008 		mov	r8, #48
 3322              		.syntax unified
 3323              	@ 493 "../ChibiOS/os/common/ext/ARM/CMSIS/Core/Include/cmsis_gcc.h" 1
 3324 0010 88F31188 		MSR basepri, r8
 3325              	@ 0 "" 2
 3326              	.LVL170:
 3327              		.loc 7 493 3 view .LVU1053
 3328              		.thumb
 3329              		.syntax unified
 3330              	.LBE880:
 3331              	.LBE881:
 3332              	.LBE883:
 3333              	.LBE886:
 3334              	.LBE889:
 3335              	.LBE892:
 3336              		.loc 5 410 35 is_stmt 1 view .LVU1054
 3337              		.loc 5 411 21 view .LVU1055
 3338              		.loc 1 723 10 is_stmt 0 view .LVU1056
 3339 0014 0024     		movs	r4, #0
 3340              	.LBB893:
 3341              	.LBB894:
 3342              	.LBB895:
 3343              		.loc 1 643 13 view .LVU1057
 3344 0016 2746     		mov	r7, r4
 3345              	.LVL171:
 3346              	.L145:
 3347              		.loc 1 643 13 view .LVU1058
 3348              	.LBE895:
 3349              	.LBE894:
 3350              	.LBE893:
 3351              		.loc 1 729 3 is_stmt 1 view .LVU1059
 3352              	.LBB955:
 3353              		.loc 1 730 5 view .LVU1060
 3354              		.loc 1 733 5 view .LVU1061
 3355              		.loc 1 733 13 is_stmt 0 view .LVU1062
 3356 0018 D9F82800 		ldr	r0, [r9, #40]
 3357              		.loc 1 733 8 view .LVU1063
 3358 001c C8B3     		cbz	r0, .L133
 3359              		.loc 1 747 24 view .LVU1064
 3360 001e D9F82C20 		ldr	r2, [r9, #44]
 3361              	.L134:
 3362              		.loc 1 747 5 is_stmt 1 view .LVU1065
 3363              		.loc 1 748 19 is_stmt 0 view .LVU1066
ARM GAS  /tmp/cc9meDp5.s 			page 60


 3364 0022 A5EB040B 		sub	fp, r5, r4
 3365              		.loc 1 747 10 view .LVU1067
 3366 0026 121A     		subs	r2, r2, r0
 3367              	.LVL172:
 3368              		.loc 1 748 5 is_stmt 1 view .LVU1068
 3369 0028 9345     		cmp	fp, r2
 3370 002a 28BF     		it	cs
 3371 002c 9346     		movcs	fp, r2
 3372              	.LVL173:
 3373              		.loc 1 754 5 view .LVU1069
 3374              		.loc 1 754 8 is_stmt 0 view .LVU1070
 3375 002e BBF1400F 		cmp	fp, #64
 3376              		.loc 1 756 7 view .LVU1071
 3377 0032 5146     		mov	r1, r10
 3378              		.loc 1 754 8 view .LVU1072
 3379 0034 3CD9     		bls	.L137
 3380              	.LVL174:
 3381              		.loc 1 756 7 is_stmt 1 view .LVU1073
 3382 0036 0AF1400A 		add	r10, r10, #64
 3383              	.LVL175:
 3384              	.L138:
 3385              		.loc 1 756 7 is_stmt 0 view .LVU1074
 3386 003a D1F800E0 		ldr	lr, [r1]	@ unaligned
 3387 003e D1F804C0 		ldr	ip, [r1, #4]	@ unaligned
 3388 0042 8A68     		ldr	r2, [r1, #8]	@ unaligned
 3389 0044 CB68     		ldr	r3, [r1, #12]	@ unaligned
 3390 0046 C360     		str	r3, [r0, #12]	@ unaligned
 3391 0048 1031     		adds	r1, r1, #16
 3392 004a 5145     		cmp	r1, r10
 3393 004c C0F800E0 		str	lr, [r0]	@ unaligned
 3394 0050 C0F804C0 		str	ip, [r0, #4]	@ unaligned
 3395 0054 8260     		str	r2, [r0, #8]	@ unaligned
 3396 0056 00F11000 		add	r0, r0, #16
 3397 005a EED1     		bne	.L138
 3398              		.loc 1 757 7 is_stmt 1 view .LVU1075
 3399              		.loc 1 758 17 is_stmt 0 view .LVU1076
 3400 005c D9F82830 		ldr	r3, [r9, #40]
 3401              		.loc 1 769 8 view .LVU1077
 3402 0060 D9F82C20 		ldr	r2, [r9, #44]
 3403              		.loc 1 758 17 view .LVU1078
 3404 0064 4033     		adds	r3, r3, #64
 3405              		.loc 1 769 8 view .LVU1079
 3406 0066 9A42     		cmp	r2, r3
 3407              		.loc 1 757 17 view .LVU1080
 3408 0068 8A46     		mov	r10, r1
 3409              	.LVL176:
 3410              		.loc 1 758 7 is_stmt 1 view .LVU1081
 3411              		.loc 1 758 17 is_stmt 0 view .LVU1082
 3412 006a C9F82830 		str	r3, [r9, #40]
 3413              		.loc 1 759 7 is_stmt 1 view .LVU1083
 3414              		.loc 1 759 17 is_stmt 0 view .LVU1084
 3415 006e 04F14004 		add	r4, r4, #64
 3416              	.LVL177:
 3417              		.loc 1 769 5 is_stmt 1 view .LVU1085
 3418              		.loc 1 769 8 is_stmt 0 view .LVU1086
 3419 0072 2BD9     		bls	.L153
 3420              	.LVL178:
ARM GAS  /tmp/cc9meDp5.s 			page 61


 3421              	.L141:
 3422              		.loc 1 774 5 is_stmt 1 view .LVU1087
 3423              	.LBB899:
 3424              	.LBI899:
 3425              		.loc 2 584 20 view .LVU1088
 3426              	.LBE899:
 3427              	.LBE955:
 3428              		.loc 2 586 3 view .LVU1089
 3429              	.LBB956:
 3430              	.LBB908:
 3431              	.LBB900:
 3432              	.LBI900:
 3433              		.loc 5 421 20 view .LVU1090
 3434              	.LBB901:
 3435              		.loc 5 423 23 view .LVU1091
 3436              		.loc 5 424 34 view .LVU1092
 3437              		.loc 5 430 3 view .LVU1093
 3438              		.loc 5 430 3 view .LVU1094
 3439              		.loc 5 430 3 view .LVU1095
 3440              		.loc 5 434 3 view .LVU1096
 3441              	.LBB902:
 3442              	.LBI902:
 3443              		.loc 6 830 27 view .LVU1097
 3444              	.LBE902:
 3445              	.LBE901:
 3446              	.LBE900:
 3447              	.LBE908:
 3448              	.LBE956:
 3449              		.loc 6 833 3 view .LVU1098
 3450              	.LBB957:
 3451              	.LBB909:
 3452              	.LBB907:
 3453              	.LBB906:
 3454              	.LBB905:
 3455              	.LBB903:
 3456              	.LBI903:
 3457              		.loc 7 491 27 view .LVU1099
 3458              	.LBB904:
 3459              		.loc 7 493 3 view .LVU1100
 3460              		.syntax unified
 3461              	@ 493 "../ChibiOS/os/common/ext/ARM/CMSIS/Core/Include/cmsis_gcc.h" 1
 3462 0074 87F31188 		MSR basepri, r7
 3463              	@ 0 "" 2
 3464              	.LVL179:
 3465              		.loc 7 493 3 is_stmt 0 view .LVU1101
 3466              		.thumb
 3467              		.syntax unified
 3468              	.LBE904:
 3469              	.LBE903:
 3470              	.LBE905:
 3471              	.LBE906:
 3472              	.LBE907:
 3473              	.LBE909:
 3474              		.loc 1 775 5 is_stmt 1 view .LVU1102
 3475              		.loc 1 775 8 is_stmt 0 view .LVU1103
 3476 0078 AC42     		cmp	r4, r5
 3477 007a 49D2     		bcs	.L132
ARM GAS  /tmp/cc9meDp5.s 			page 62


 3478              		.loc 1 778 5 is_stmt 1 view .LVU1104
 3479              	.LBB910:
 3480              	.LBI910:
 3481              		.loc 2 573 20 view .LVU1105
 3482              	.LBB911:
 3483              		.loc 2 575 3 view .LVU1106
 3484              	.LBB912:
 3485              	.LBI912:
 3486              		.loc 5 407 20 view .LVU1107
 3487              	.LBE912:
 3488              	.LBE911:
 3489              	.LBE910:
 3490              	.LBE957:
 3491              		.loc 5 409 3 view .LVU1108
 3492              	.LBB958:
 3493              	.LBB922:
 3494              	.LBB919:
 3495              	.LBB917:
 3496              	.LBB913:
 3497              	.LBI913:
 3498              		.loc 6 806 27 view .LVU1109
 3499              	.LBE913:
 3500              	.LBE917:
 3501              	.LBE919:
 3502              	.LBE922:
 3503              	.LBE958:
 3504              		.loc 6 814 3 view .LVU1110
 3505              	.LVL180:
 3506              	.LBB959:
 3507              	.LBB923:
 3508              	.LBB920:
 3509              	.LBB918:
 3510              	.LBB916:
 3511              	.LBB914:
 3512              	.LBI914:
 3513              		.loc 7 491 27 view .LVU1111
 3514              	.LBB915:
 3515              		.loc 7 493 3 view .LVU1112
 3516              		.syntax unified
 3517              	@ 493 "../ChibiOS/os/common/ext/ARM/CMSIS/Core/Include/cmsis_gcc.h" 1
 3518 007c 88F31188 		MSR basepri, r8
 3519              	@ 0 "" 2
 3520              	.LVL181:
 3521              		.loc 7 493 3 is_stmt 0 view .LVU1113
 3522              		.thumb
 3523              		.syntax unified
 3524              	.LBE915:
 3525              	.LBE914:
 3526              	.LBE916:
 3527              	.LBE918:
 3528              	.LBE920:
 3529              	.LBE923:
 3530              	.LBE959:
 3531              		.loc 5 410 35 is_stmt 1 view .LVU1114
 3532              		.loc 5 411 21 view .LVU1115
 3533              	.LBB960:
 3534              	.LBB924:
ARM GAS  /tmp/cc9meDp5.s 			page 63


 3535              	.LBB921:
 3536              		.loc 2 576 1 is_stmt 0 view .LVU1116
 3537 0080 CAE7     		b	.L145
 3538              	.LVL182:
 3539              	.L136:
 3540              		.loc 2 576 1 view .LVU1117
 3541              	.LBE921:
 3542              	.LBE924:
 3543              	.LBB925:
 3544              	.LBB926:
 3545              	.LBB927:
 3546              	.LBB928:
 3547              		.loc 1 583 8 view .LVU1118
 3548 0082 99F80830 		ldrb	r3, [r9, #8]	@ zero_extendqisi2
 3549 0086 002B     		cmp	r3, #0
 3550 0088 3FD1     		bne	.L135
 3551              	.LBB929:
 3552              	.LBB930:
 3553              		.loc 2 895 10 view .LVU1119
 3554 008a FFF7FEFF 		bl	chThdEnqueueTimeoutS
 3555              	.LVL183:
 3556              		.loc 2 895 10 view .LVU1120
 3557              	.LBE930:
 3558              	.LBE929:
 3559              		.loc 1 587 5 is_stmt 1 view .LVU1121
 3560              		.loc 1 587 8 is_stmt 0 view .LVU1122
 3561 008e 0028     		cmp	r0, #0
 3562 0090 3BDB     		blt	.L135
 3563              	.LVL184:
 3564              	.L133:
 3565              		.loc 1 583 5 is_stmt 1 view .LVU1123
 3566              		.loc 1 586 5 view .LVU1124
 3567              	.LBB933:
 3568              	.LBI929:
 3569              		.loc 2 892 21 view .LVU1125
 3570              	.LBB931:
 3571              		.loc 2 895 3 view .LVU1126
 3572              	.LBE931:
 3573              	.LBE933:
 3574              	.LBE928:
 3575              		.loc 1 582 9 view .LVU1127
 3576              		.loc 1 582 10 is_stmt 0 view .LVU1128
 3577 0092 D9F80C30 		ldr	r3, [r9, #12]
 3578              	.LBB935:
 3579              	.LBB934:
 3580              	.LBB932:
 3581              		.loc 2 895 10 view .LVU1129
 3582 0096 3146     		mov	r1, r6
 3583 0098 4846     		mov	r0, r9
 3584              	.LBE932:
 3585              	.LBE934:
 3586              	.LBE935:
 3587              		.loc 1 582 9 view .LVU1130
 3588 009a 002B     		cmp	r3, #0
 3589 009c F1D0     		beq	.L136
 3590              	.LVL185:
 3591              	.LBB936:
ARM GAS  /tmp/cc9meDp5.s 			page 64


 3592              	.LBI936:
 3593              		.loc 1 577 7 is_stmt 1 view .LVU1131
 3594              	.LBB937:
 3595              		.loc 1 592 3 view .LVU1132
 3596              		.loc 1 592 3 view .LVU1133
 3597              		.loc 1 592 3 view .LVU1134
 3598              		.loc 1 595 3 view .LVU1135
 3599              		.loc 1 595 19 is_stmt 0 view .LVU1136
 3600 009e D9F81000 		ldr	r0, [r9, #16]
 3601              	.LVL186:
 3602              		.loc 1 596 28 view .LVU1137
 3603 00a2 D9F81C20 		ldr	r2, [r9, #28]
 3604 00a6 0244     		add	r2, r2, r0
 3605              		.loc 1 595 28 view .LVU1138
 3606 00a8 0430     		adds	r0, r0, #4
 3607              		.loc 1 596 13 view .LVU1139
 3608 00aa C9E90A02 		strd	r0, r2, [r9, #40]
 3609              		.loc 1 598 3 is_stmt 1 view .LVU1140
 3610              	.LVL187:
 3611              		.loc 1 598 3 is_stmt 0 view .LVU1141
 3612              	.LBE937:
 3613              	.LBE936:
 3614              	.LBE927:
 3615              	.LBE926:
 3616              		.loc 1 740 7 is_stmt 1 view .LVU1142
 3617 00ae B8E7     		b	.L134
 3618              	.LVL188:
 3619              	.L137:
 3620              		.loc 1 740 7 is_stmt 0 view .LVU1143
 3621              	.LBE925:
 3622              		.loc 1 762 7 is_stmt 1 view .LVU1144
 3623 00b0 5A46     		mov	r2, fp
 3624 00b2 FFF7FEFF 		bl	memcpy
 3625              	.LVL189:
 3626              		.loc 1 763 7 view .LVU1145
 3627              		.loc 1 764 17 is_stmt 0 view .LVU1146
 3628 00b6 D9F82830 		ldr	r3, [r9, #40]
 3629              		.loc 1 769 8 view .LVU1147
 3630 00ba D9F82C20 		ldr	r2, [r9, #44]
 3631              		.loc 1 764 17 view .LVU1148
 3632 00be 5B44     		add	r3, r3, fp
 3633              		.loc 1 769 8 view .LVU1149
 3634 00c0 9A42     		cmp	r2, r3
 3635              		.loc 1 763 17 view .LVU1150
 3636 00c2 DA44     		add	r10, r10, fp
 3637              	.LVL190:
 3638              		.loc 1 764 7 is_stmt 1 view .LVU1151
 3639              		.loc 1 764 17 is_stmt 0 view .LVU1152
 3640 00c4 C9F82830 		str	r3, [r9, #40]
 3641              		.loc 1 765 7 is_stmt 1 view .LVU1153
 3642              		.loc 1 765 17 is_stmt 0 view .LVU1154
 3643 00c8 5C44     		add	r4, r4, fp
 3644              	.LVL191:
 3645              		.loc 1 769 5 is_stmt 1 view .LVU1155
 3646              		.loc 1 769 8 is_stmt 0 view .LVU1156
 3647 00ca D3D8     		bhi	.L141
 3648              	.L153:
ARM GAS  /tmp/cc9meDp5.s 			page 65


 3649              		.loc 1 770 7 is_stmt 1 view .LVU1157
 3650              	.LVL192:
 3651              	.LBB949:
 3652              	.LBI894:
 3653              		.loc 1 626 6 view .LVU1158
 3654              	.LBB896:
 3655              		.loc 1 628 23 view .LVU1159
 3656              		.loc 1 629 3 view .LVU1160
 3657              		.loc 1 629 3 view .LVU1161
 3658              		.loc 1 629 3 view .LVU1162
 3659              		.loc 1 630 3 view .LVU1163
 3660              		.loc 1 630 3 view .LVU1164
 3661              		.loc 1 630 3 view .LVU1165
 3662              		.loc 1 633 3 view .LVU1166
 3663              	.LBE896:
 3664              	.LBE949:
 3665              		.loc 1 770 7 is_stmt 0 view .LVU1167
 3666 00cc D9F81C20 		ldr	r2, [r9, #28]
 3667              	.LBB950:
 3668              	.LBB897:
 3669              		.loc 1 633 27 view .LVU1168
 3670 00d0 D9F81030 		ldr	r3, [r9, #16]
 3671              	.LBE897:
 3672              	.LBE950:
 3673              		.loc 1 770 7 view .LVU1169
 3674 00d4 043A     		subs	r2, r2, #4
 3675              	.LVL193:
 3676              	.LBB951:
 3677              	.LBB898:
 3678              		.loc 1 633 37 view .LVU1170
 3679 00d6 1A60     		str	r2, [r3]
 3680              		.loc 1 636 3 is_stmt 1 view .LVU1171
 3681              		.loc 1 638 6 is_stmt 0 view .LVU1172
 3682 00d8 D9E90621 		ldrd	r2, r1, [r9, #24]
 3683              	.LVL194:
 3684              		.loc 1 637 16 view .LVU1173
 3685 00dc 0B44     		add	r3, r3, r1
 3686              	.LVL195:
 3687              		.loc 1 638 6 view .LVU1174
 3688 00de 9342     		cmp	r3, r2
 3689              		.loc 1 637 16 view .LVU1175
 3690 00e0 C9F81030 		str	r3, [r9, #16]
 3691              	.LVL196:
 3692              		.loc 1 636 7 view .LVU1176
 3693 00e4 D9F80C00 		ldr	r0, [r9, #12]
 3694              		.loc 1 639 18 view .LVU1177
 3695 00e8 24BF     		itt	cs
 3696 00ea D9F82430 		ldrcs	r3, [r9, #36]
 3697 00ee C9F81030 		strcs	r3, [r9, #16]
 3698              		.loc 1 646 11 view .LVU1178
 3699 00f2 D9F83030 		ldr	r3, [r9, #48]
 3700              		.loc 1 643 13 view .LVU1179
 3701 00f6 C9F82870 		str	r7, [r9, #40]
 3702              		.loc 1 636 17 view .LVU1180
 3703 00fa 0138     		subs	r0, r0, #1
 3704 00fc C9F80C00 		str	r0, [r9, #12]
 3705              		.loc 1 637 3 is_stmt 1 view .LVU1181
ARM GAS  /tmp/cc9meDp5.s 			page 66


 3706              		.loc 1 638 3 view .LVU1182
 3707              		.loc 1 639 5 view .LVU1183
 3708              		.loc 1 643 3 view .LVU1184
 3709              		.loc 1 646 3 view .LVU1185
 3710              		.loc 1 646 6 is_stmt 0 view .LVU1186
 3711 0100 002B     		cmp	r3, #0
 3712 0102 B7D0     		beq	.L141
 3713              		.loc 1 647 5 is_stmt 1 view .LVU1187
 3714 0104 4846     		mov	r0, r9
 3715 0106 9847     		blx	r3
 3716              	.LVL197:
 3717 0108 B4E7     		b	.L141
 3718              	.LVL198:
 3719              	.L135:
 3720              		.loc 1 647 5 is_stmt 0 view .LVU1188
 3721              	.LBE898:
 3722              	.LBE951:
 3723              	.LBB952:
 3724              		.loc 1 740 7 is_stmt 1 view .LVU1189
 3725              		.loc 1 741 9 view .LVU1190
 3726              	.LBB938:
 3727              	.LBI938:
 3728              		.loc 2 584 20 view .LVU1191
 3729              	.LBE938:
 3730              	.LBE952:
 3731              	.LBE960:
 3732              		.loc 2 586 3 view .LVU1192
 3733              	.LBB961:
 3734              	.LBB953:
 3735              	.LBB947:
 3736              	.LBB939:
 3737              	.LBI939:
 3738              		.loc 5 421 20 view .LVU1193
 3739              	.LBB940:
 3740              		.loc 5 423 23 view .LVU1194
 3741              		.loc 5 424 34 view .LVU1195
 3742              		.loc 5 430 3 view .LVU1196
 3743              		.loc 5 430 3 view .LVU1197
 3744              		.loc 5 430 3 view .LVU1198
 3745              		.loc 5 434 3 view .LVU1199
 3746              	.LBB941:
 3747              	.LBI941:
 3748              		.loc 6 830 27 view .LVU1200
 3749              	.LBE941:
 3750              	.LBE940:
 3751              	.LBE939:
 3752              	.LBE947:
 3753              	.LBE953:
 3754              	.LBE961:
 3755              		.loc 6 833 3 view .LVU1201
 3756              	.LBB962:
 3757              	.LBB954:
 3758              	.LBB948:
 3759              	.LBB946:
 3760              	.LBB945:
 3761              	.LBB944:
 3762              	.LBB942:
ARM GAS  /tmp/cc9meDp5.s 			page 67


 3763              	.LBI942:
 3764              		.loc 7 491 27 view .LVU1202
 3765              	.LBB943:
 3766              		.loc 7 493 3 view .LVU1203
 3767 010a 0023     		movs	r3, #0
 3768              		.syntax unified
 3769              	@ 493 "../ChibiOS/os/common/ext/ARM/CMSIS/Core/Include/cmsis_gcc.h" 1
 3770 010c 83F31188 		MSR basepri, r3
 3771              	@ 0 "" 2
 3772              	.LVL199:
 3773              		.loc 7 493 3 is_stmt 0 view .LVU1204
 3774              		.thumb
 3775              		.syntax unified
 3776              	.LBE943:
 3777              	.LBE942:
 3778              	.LBE944:
 3779              	.LBE945:
 3780              	.LBE946:
 3781              	.LBE948:
 3782              		.loc 1 742 9 is_stmt 1 view .LVU1205
 3783              	.L132:
 3784              		.loc 1 742 9 is_stmt 0 view .LVU1206
 3785              	.LBE954:
 3786              	.LBE962:
 3787              		.loc 1 780 1 view .LVU1207
 3788 0110 2046     		mov	r0, r4
 3789 0112 BDE8F88F 		pop	{r3, r4, r5, r6, r7, r8, r9, r10, fp, pc}
 3790              		.loc 1 780 1 view .LVU1208
 3791              		.cfi_endproc
 3792              	.LFE419:
 3793              		.size	obqWriteTimeout, .-obqWriteTimeout
 3794 0116 00BF     		.section	.text.obqTryFlushI,"ax",%progbits
 3795              		.align	1
 3796              		.p2align 4,,15
 3797              		.global	obqTryFlushI
 3798              		.syntax unified
 3799              		.thumb
 3800              		.thumb_func
 3801              		.fpu softvfp
 3802              		.type	obqTryFlushI, %function
 3803              	obqTryFlushI:
 3804              	.LVL200:
 3805              	.LFB420:
 3806              		.loc 1 795 49 is_stmt 1 view -0
 3807              		.cfi_startproc
 3808              		@ args = 0, pretend = 0, frame = 0
 3809              		@ frame_needed = 0, uses_anonymous_args = 0
 3810              		@ link register save eliminated.
 3811              		.loc 1 797 23 view .LVU1210
 3812              		.loc 1 801 3 view .LVU1211
 3813              		.loc 1 801 7 is_stmt 0 view .LVU1212
 3814 0000 D0E90423 		ldrd	r2, r3, [r0, #16]
 3815 0004 9A42     		cmp	r2, r3
 3816 0006 01D0     		beq	.L163
 3817              	.L159:
 3818              		.loc 1 822 10 view .LVU1213
 3819 0008 0020     		movs	r0, #0
ARM GAS  /tmp/cc9meDp5.s 			page 68


 3820              	.LVL201:
 3821              		.loc 1 822 10 view .LVU1214
 3822 000a 7047     		bx	lr
 3823              	.LVL202:
 3824              	.L163:
 3825              		.loc 1 801 7 discriminator 1 view .LVU1215
 3826 000c C368     		ldr	r3, [r0, #12]
 3827 000e 002B     		cmp	r3, #0
 3828 0010 FAD0     		beq	.L159
 3829              		.loc 1 801 33 view .LVU1216
 3830 0012 836A     		ldr	r3, [r0, #40]
 3831              		.loc 1 801 25 view .LVU1217
 3832 0014 002B     		cmp	r3, #0
 3833 0016 F7D0     		beq	.L159
 3834              	.LBB963:
 3835              		.loc 1 802 5 is_stmt 1 view .LVU1218
 3836              		.loc 1 802 12 is_stmt 0 view .LVU1219
 3837 0018 043B     		subs	r3, r3, #4
 3838              	.LVL203:
 3839              		.loc 1 804 5 is_stmt 1 view .LVU1220
 3840              		.loc 1 804 8 is_stmt 0 view .LVU1221
 3841 001a 9B1A     		subs	r3, r3, r2
 3842              	.LVL204:
 3843              		.loc 1 804 8 view .LVU1222
 3844 001c F4D0     		beq	.L159
 3845              		.loc 1 807 7 is_stmt 1 view .LVU1223
 3846              		.loc 1 807 41 is_stmt 0 view .LVU1224
 3847 001e 1360     		str	r3, [r2]
 3848              		.loc 1 810 7 is_stmt 1 view .LVU1225
 3849              		.loc 1 811 20 is_stmt 0 view .LVU1226
 3850 0020 D0F81CC0 		ldr	ip, [r0, #28]
 3851              		.loc 1 810 11 view .LVU1227
 3852 0024 C368     		ldr	r3, [r0, #12]
 3853              	.LVL205:
 3854              		.loc 1 812 10 view .LVU1228
 3855 0026 8169     		ldr	r1, [r0, #24]
 3856              		.loc 1 811 20 view .LVU1229
 3857 0028 6244     		add	r2, r2, ip
 3858              	.LVL206:
 3859              		.loc 1 810 21 view .LVU1230
 3860 002a 013B     		subs	r3, r3, #1
 3861              		.loc 1 812 10 view .LVU1231
 3862 002c 8A42     		cmp	r2, r1
 3863              		.loc 1 810 21 view .LVU1232
 3864 002e C360     		str	r3, [r0, #12]
 3865              	.LVL207:
 3866              		.loc 1 811 7 is_stmt 1 view .LVU1233
 3867              		.loc 1 813 22 is_stmt 0 view .LVU1234
 3868 0030 28BF     		it	cs
 3869 0032 436A     		ldrcs	r3, [r0, #36]
 3870              		.loc 1 811 20 view .LVU1235
 3871 0034 0261     		str	r2, [r0, #16]
 3872              	.LVL208:
 3873              		.loc 1 812 7 is_stmt 1 view .LVU1236
 3874              		.loc 1 813 9 view .LVU1237
 3875              		.loc 1 813 22 is_stmt 0 view .LVU1238
 3876 0036 28BF     		it	cs
ARM GAS  /tmp/cc9meDp5.s 			page 69


 3877 0038 0361     		strcs	r3, [r0, #16]
 3878              		.loc 1 817 7 is_stmt 1 view .LVU1239
 3879              		.loc 1 817 17 is_stmt 0 view .LVU1240
 3880 003a 0023     		movs	r3, #0
 3881 003c 8362     		str	r3, [r0, #40]
 3882              		.loc 1 819 7 is_stmt 1 view .LVU1241
 3883              		.loc 1 819 14 is_stmt 0 view .LVU1242
 3884 003e 0120     		movs	r0, #1
 3885              	.LVL209:
 3886              		.loc 1 819 14 view .LVU1243
 3887 0040 7047     		bx	lr
 3888              	.LBE963:
 3889              		.cfi_endproc
 3890              	.LFE420:
 3891              		.size	obqTryFlushI, .-obqTryFlushI
 3892 0042 00BF     		.section	.text.obqFlush,"ax",%progbits
 3893              		.align	1
 3894              		.p2align 4,,15
 3895              		.global	obqFlush
 3896              		.syntax unified
 3897              		.thumb
 3898              		.thumb_func
 3899              		.fpu softvfp
 3900              		.type	obqFlush, %function
 3901              	obqFlush:
 3902              	.LVL210:
 3903              	.LFB421:
 3904              		.loc 1 832 45 is_stmt 1 view -0
 3905              		.cfi_startproc
 3906              		@ args = 0, pretend = 0, frame = 0
 3907              		@ frame_needed = 0, uses_anonymous_args = 0
 3908              		.loc 1 834 3 view .LVU1245
 3909              	.LBB978:
 3910              	.LBI978:
 3911              		.loc 2 573 20 view .LVU1246
 3912              	.LBE978:
 3913              		.loc 2 575 3 view .LVU1247
 3914              	.LBB990:
 3915              	.LBB979:
 3916              	.LBI979:
 3917              		.loc 5 407 20 view .LVU1248
 3918              	.LBE979:
 3919              	.LBE990:
 3920              		.loc 5 409 3 view .LVU1249
 3921              	.LBB991:
 3922              	.LBB987:
 3923              	.LBB980:
 3924              	.LBI980:
 3925              		.loc 6 806 27 view .LVU1250
 3926              	.LBE980:
 3927              	.LBE987:
 3928              	.LBE991:
 3929              		.loc 6 814 3 view .LVU1251
 3930              	.LBB992:
 3931              	.LBB988:
 3932              	.LBB985:
 3933              	.LBB981:
ARM GAS  /tmp/cc9meDp5.s 			page 70


 3934              	.LBI981:
 3935              		.loc 7 491 27 view .LVU1252
 3936              	.LBB982:
 3937              		.loc 7 493 3 view .LVU1253
 3938              	.LBE982:
 3939              	.LBE981:
 3940              	.LBE985:
 3941              	.LBE988:
 3942              	.LBE992:
 3943              		.loc 1 832 45 is_stmt 0 view .LVU1254
 3944 0000 08B5     		push	{r3, lr}
 3945              		.cfi_def_cfa_offset 8
 3946              		.cfi_offset 3, -8
 3947              		.cfi_offset 14, -4
 3948              	.LBB993:
 3949              	.LBB989:
 3950              	.LBB986:
 3951              	.LBB984:
 3952              	.LBB983:
 3953              		.loc 7 493 3 view .LVU1255
 3954 0002 3023     		movs	r3, #48
 3955              		.syntax unified
 3956              	@ 493 "../ChibiOS/os/common/ext/ARM/CMSIS/Core/Include/cmsis_gcc.h" 1
 3957 0004 83F31188 		MSR basepri, r3
 3958              	@ 0 "" 2
 3959              	.LVL211:
 3960              		.loc 7 493 3 view .LVU1256
 3961              		.thumb
 3962              		.syntax unified
 3963              	.LBE983:
 3964              	.LBE984:
 3965              	.LBE986:
 3966              	.LBE989:
 3967              	.LBE993:
 3968              		.loc 5 410 35 is_stmt 1 view .LVU1257
 3969              		.loc 5 411 21 view .LVU1258
 3970              		.loc 1 837 3 view .LVU1259
 3971              		.loc 1 837 11 is_stmt 0 view .LVU1260
 3972 0008 836A     		ldr	r3, [r0, #40]
 3973              		.loc 1 837 6 view .LVU1261
 3974 000a 1BB1     		cbz	r3, .L166
 3975              	.LBB994:
 3976              		.loc 1 838 5 is_stmt 1 view .LVU1262
 3977              		.loc 1 838 52 is_stmt 0 view .LVU1263
 3978 000c 0269     		ldr	r2, [r0, #16]
 3979              		.loc 1 838 12 view .LVU1264
 3980 000e 043B     		subs	r3, r3, #4
 3981              	.LVL212:
 3982              		.loc 1 840 5 is_stmt 1 view .LVU1265
 3983              		.loc 1 840 8 is_stmt 0 view .LVU1266
 3984 0010 9B1A     		subs	r3, r3, r2
 3985              	.LVL213:
 3986              		.loc 1 840 8 view .LVU1267
 3987 0012 03D1     		bne	.L176
 3988              	.LVL214:
 3989              	.L166:
 3990              		.loc 1 840 8 view .LVU1268
ARM GAS  /tmp/cc9meDp5.s 			page 71


 3991              	.LBE994:
 3992              		.loc 1 845 3 is_stmt 1 view .LVU1269
 3993              	.LBB997:
 3994              	.LBI997:
 3995              		.loc 2 584 20 view .LVU1270
 3996              	.LBE997:
 3997              		.loc 2 586 3 view .LVU1271
 3998              	.LBB1014:
 3999              	.LBB998:
 4000              	.LBI998:
 4001              		.loc 5 421 20 view .LVU1272
 4002              	.LBB999:
 4003              		.loc 5 423 23 view .LVU1273
 4004              		.loc 5 424 34 view .LVU1274
 4005              		.loc 5 430 3 view .LVU1275
 4006              		.loc 5 430 3 view .LVU1276
 4007              		.loc 5 430 3 view .LVU1277
 4008              		.loc 5 434 3 view .LVU1278
 4009              	.LBB1000:
 4010              	.LBI1000:
 4011              		.loc 6 830 27 view .LVU1279
 4012              	.LBE1000:
 4013              	.LBE999:
 4014              	.LBE998:
 4015              	.LBE1014:
 4016              		.loc 6 833 3 view .LVU1280
 4017              	.LBB1015:
 4018              	.LBB1011:
 4019              	.LBB1008:
 4020              	.LBB1005:
 4021              	.LBB1001:
 4022              	.LBI1001:
 4023              		.loc 7 491 27 view .LVU1281
 4024              	.LBB1002:
 4025              		.loc 7 493 3 view .LVU1282
 4026 0014 0023     		movs	r3, #0
 4027              		.syntax unified
 4028              	@ 493 "../ChibiOS/os/common/ext/ARM/CMSIS/Core/Include/cmsis_gcc.h" 1
 4029 0016 83F31188 		MSR basepri, r3
 4030              	@ 0 "" 2
 4031              	.LVL215:
 4032              		.loc 7 493 3 is_stmt 0 view .LVU1283
 4033              		.thumb
 4034              		.syntax unified
 4035              	.LBE1002:
 4036              	.LBE1001:
 4037              	.LBE1005:
 4038              	.LBE1008:
 4039              	.LBE1011:
 4040              	.LBE1015:
 4041              		.loc 1 846 1 view .LVU1284
 4042 001a 08BD     		pop	{r3, pc}
 4043              	.LVL216:
 4044              	.L176:
 4045              	.LBB1016:
 4046              		.loc 1 841 7 is_stmt 1 view .LVU1285
 4047              	.LBB995:
ARM GAS  /tmp/cc9meDp5.s 			page 72


 4048              	.LBI995:
 4049              		.loc 1 626 6 view .LVU1286
 4050              	.LBB996:
 4051              		.loc 1 628 23 view .LVU1287
 4052              		.loc 1 629 3 view .LVU1288
 4053              		.loc 1 629 3 view .LVU1289
 4054              		.loc 1 629 3 view .LVU1290
 4055              		.loc 1 630 3 view .LVU1291
 4056              		.loc 1 630 3 view .LVU1292
 4057              		.loc 1 630 3 view .LVU1293
 4058              		.loc 1 633 3 view .LVU1294
 4059              		.loc 1 633 37 is_stmt 0 view .LVU1295
 4060 001c 1360     		str	r3, [r2]
 4061              		.loc 1 636 3 is_stmt 1 view .LVU1296
 4062              		.loc 1 637 16 is_stmt 0 view .LVU1297
 4063 001e D0F81CC0 		ldr	ip, [r0, #28]
 4064              		.loc 1 636 7 view .LVU1298
 4065 0022 C368     		ldr	r3, [r0, #12]
 4066              	.LVL217:
 4067              		.loc 1 638 6 view .LVU1299
 4068 0024 8169     		ldr	r1, [r0, #24]
 4069              		.loc 1 637 16 view .LVU1300
 4070 0026 6244     		add	r2, r2, ip
 4071              	.LVL218:
 4072              		.loc 1 636 17 view .LVU1301
 4073 0028 013B     		subs	r3, r3, #1
 4074              		.loc 1 638 6 view .LVU1302
 4075 002a 8A42     		cmp	r2, r1
 4076              		.loc 1 636 17 view .LVU1303
 4077 002c C360     		str	r3, [r0, #12]
 4078              	.LVL219:
 4079              		.loc 1 637 3 is_stmt 1 view .LVU1304
 4080              		.loc 1 639 18 is_stmt 0 view .LVU1305
 4081 002e 28BF     		it	cs
 4082 0030 436A     		ldrcs	r3, [r0, #36]
 4083              		.loc 1 637 16 view .LVU1306
 4084 0032 0261     		str	r2, [r0, #16]
 4085              	.LVL220:
 4086              		.loc 1 638 3 is_stmt 1 view .LVU1307
 4087              		.loc 1 639 5 view .LVU1308
 4088              		.loc 1 643 3 view .LVU1309
 4089              		.loc 1 639 18 is_stmt 0 view .LVU1310
 4090 0034 28BF     		it	cs
 4091 0036 0361     		strcs	r3, [r0, #16]
 4092              		.loc 1 646 11 view .LVU1311
 4093 0038 036B     		ldr	r3, [r0, #48]
 4094              		.loc 1 643 13 view .LVU1312
 4095 003a 0022     		movs	r2, #0
 4096 003c 8262     		str	r2, [r0, #40]
 4097              		.loc 1 646 3 is_stmt 1 view .LVU1313
 4098              		.loc 1 646 6 is_stmt 0 view .LVU1314
 4099 003e 002B     		cmp	r3, #0
 4100 0040 E8D0     		beq	.L166
 4101              		.loc 1 647 5 is_stmt 1 view .LVU1315
 4102 0042 9847     		blx	r3
 4103              	.LVL221:
 4104              		.loc 1 647 5 is_stmt 0 view .LVU1316
ARM GAS  /tmp/cc9meDp5.s 			page 73


 4105              	.LBE996:
 4106              	.LBE995:
 4107              	.LBE1016:
 4108              		.loc 1 845 3 is_stmt 1 view .LVU1317
 4109              	.LBB1017:
 4110              		.loc 2 584 20 view .LVU1318
 4111              	.LBE1017:
 4112              		.loc 2 586 3 view .LVU1319
 4113              	.LBB1018:
 4114              	.LBB1012:
 4115              		.loc 5 421 20 view .LVU1320
 4116              	.LBB1009:
 4117              		.loc 5 423 23 view .LVU1321
 4118              		.loc 5 424 34 view .LVU1322
 4119              		.loc 5 430 3 view .LVU1323
 4120              		.loc 5 430 3 view .LVU1324
 4121              		.loc 5 430 3 view .LVU1325
 4122              		.loc 5 434 3 view .LVU1326
 4123              	.LBB1006:
 4124              		.loc 6 830 27 view .LVU1327
 4125              	.LBE1006:
 4126              	.LBE1009:
 4127              	.LBE1012:
 4128              	.LBE1018:
 4129              		.loc 6 833 3 view .LVU1328
 4130              	.LBB1019:
 4131              	.LBB1013:
 4132              	.LBB1010:
 4133              	.LBB1007:
 4134              	.LBB1004:
 4135              		.loc 7 491 27 view .LVU1329
 4136              	.LBB1003:
 4137              		.loc 7 493 3 view .LVU1330
 4138 0044 0023     		movs	r3, #0
 4139              		.syntax unified
 4140              	@ 493 "../ChibiOS/os/common/ext/ARM/CMSIS/Core/Include/cmsis_gcc.h" 1
 4141 0046 83F31188 		MSR basepri, r3
 4142              	@ 0 "" 2
 4143              	.LVL222:
 4144              		.loc 7 493 3 is_stmt 0 view .LVU1331
 4145              		.thumb
 4146              		.syntax unified
 4147              	.LBE1003:
 4148              	.LBE1004:
 4149              	.LBE1007:
 4150              	.LBE1010:
 4151              	.LBE1013:
 4152              	.LBE1019:
 4153              		.loc 1 846 1 view .LVU1332
 4154 004a 08BD     		pop	{r3, pc}
 4155              		.cfi_endproc
 4156              	.LFE421:
 4157              		.size	obqFlush, .-obqFlush
 4158              		.text
 4159              	.Letext0:
 4160              		.file 8 "/opt/gcc-arm-none-eabi/gcc-arm-none-eabi-10.3-2021.07/lib/gcc/arm-none-eabi/10.3.1/includ
 4161              		.file 9 "/opt/gcc-arm-none-eabi/gcc-arm-none-eabi-10.3-2021.07/arm-none-eabi/include/machine/_defa
ARM GAS  /tmp/cc9meDp5.s 			page 74


 4162              		.file 10 "/opt/gcc-arm-none-eabi/gcc-arm-none-eabi-10.3-2021.07/arm-none-eabi/include/sys/_stdint.
 4163              		.file 11 "../ChibiOS/os/rt/include/chearly.h"
 4164              		.file 12 "../ChibiOS/os/rt/include/chtime.h"
 4165              		.file 13 "../ChibiOS/os/rt/include/chobjects.h"
 4166              		.file 14 "../ChibiOS/os/hal/include/hal_buffers.h"
 4167              		.file 15 "<built-in>"
 4168              		.section	.debug_info,"",%progbits
 4169              	.Ldebug_info0:
 4170 0000 3A1E0000 		.4byte	0x1e3a
 4171 0004 0400     		.2byte	0x4
 4172 0006 00000000 		.4byte	.Ldebug_abbrev0
 4173 000a 04       		.byte	0x4
 4174 000b 01       		.uleb128 0x1
 4175 000c 3F020000 		.4byte	.LASF89
 4176 0010 0C       		.byte	0xc
 4177 0011 3B030000 		.4byte	.LASF90
 4178 0015 AE030000 		.4byte	.LASF91
 4179 0019 D80A0000 		.4byte	.Ldebug_ranges0+0xad8
 4180 001d 00000000 		.4byte	0
 4181 0021 00000000 		.4byte	.Ldebug_line0
 4182 0025 02       		.uleb128 0x2
 4183 0026 04       		.byte	0x4
 4184 0027 05       		.byte	0x5
 4185 0028 696E7400 		.ascii	"int\000"
 4186 002c 03       		.uleb128 0x3
 4187 002d 51000000 		.4byte	.LASF4
 4188 0031 08       		.byte	0x8
 4189 0032 D1       		.byte	0xd1
 4190 0033 17       		.byte	0x17
 4191 0034 3D000000 		.4byte	0x3d
 4192 0038 04       		.uleb128 0x4
 4193 0039 2C000000 		.4byte	0x2c
 4194 003d 05       		.uleb128 0x5
 4195 003e 04       		.byte	0x4
 4196 003f 07       		.byte	0x7
 4197 0040 7F030000 		.4byte	.LASF0
 4198 0044 05       		.uleb128 0x5
 4199 0045 08       		.byte	0x8
 4200 0046 05       		.byte	0x5
 4201 0047 57010000 		.4byte	.LASF1
 4202 004b 05       		.uleb128 0x5
 4203 004c 08       		.byte	0x8
 4204 004d 04       		.byte	0x4
 4205 004e 4B010000 		.4byte	.LASF2
 4206 0052 05       		.uleb128 0x5
 4207 0053 01       		.byte	0x1
 4208 0054 06       		.byte	0x6
 4209 0055 2F030000 		.4byte	.LASF3
 4210 0059 03       		.uleb128 0x3
 4211 005a E9010000 		.4byte	.LASF5
 4212 005e 09       		.byte	0x9
 4213 005f 2B       		.byte	0x2b
 4214 0060 18       		.byte	0x18
 4215 0061 65000000 		.4byte	0x65
 4216 0065 05       		.uleb128 0x5
 4217 0066 01       		.byte	0x1
 4218 0067 08       		.byte	0x8
ARM GAS  /tmp/cc9meDp5.s 			page 75


 4219 0068 0A030000 		.4byte	.LASF6
 4220 006c 05       		.uleb128 0x5
 4221 006d 02       		.byte	0x2
 4222 006e 05       		.byte	0x5
 4223 006f 47000000 		.4byte	.LASF7
 4224 0073 05       		.uleb128 0x5
 4225 0074 02       		.byte	0x2
 4226 0075 07       		.byte	0x7
 4227 0076 86040000 		.4byte	.LASF8
 4228 007a 03       		.uleb128 0x3
 4229 007b 0D050000 		.4byte	.LASF9
 4230 007f 09       		.byte	0x9
 4231 0080 4D       		.byte	0x4d
 4232 0081 18       		.byte	0x18
 4233 0082 86000000 		.4byte	0x86
 4234 0086 05       		.uleb128 0x5
 4235 0087 04       		.byte	0x4
 4236 0088 05       		.byte	0x5
 4237 0089 AB010000 		.4byte	.LASF10
 4238 008d 03       		.uleb128 0x3
 4239 008e D9040000 		.4byte	.LASF11
 4240 0092 09       		.byte	0x9
 4241 0093 4F       		.byte	0x4f
 4242 0094 19       		.byte	0x19
 4243 0095 99000000 		.4byte	0x99
 4244 0099 05       		.uleb128 0x5
 4245 009a 04       		.byte	0x4
 4246 009b 07       		.byte	0x7
 4247 009c 8C030000 		.4byte	.LASF12
 4248 00a0 05       		.uleb128 0x5
 4249 00a1 08       		.byte	0x8
 4250 00a2 07       		.byte	0x7
 4251 00a3 5F030000 		.4byte	.LASF13
 4252 00a7 06       		.uleb128 0x6
 4253 00a8 04       		.byte	0x4
 4254 00a9 05       		.uleb128 0x5
 4255 00aa 01       		.byte	0x1
 4256 00ab 08       		.byte	0x8
 4257 00ac 0C040000 		.4byte	.LASF14
 4258 00b0 07       		.uleb128 0x7
 4259 00b1 A9000000 		.4byte	0xa9
 4260 00b5 03       		.uleb128 0x3
 4261 00b6 0A010000 		.4byte	.LASF15
 4262 00ba 0A       		.byte	0xa
 4263 00bb 18       		.byte	0x18
 4264 00bc 13       		.byte	0x13
 4265 00bd 59000000 		.4byte	0x59
 4266 00c1 07       		.uleb128 0x7
 4267 00c2 B5000000 		.4byte	0xb5
 4268 00c6 03       		.uleb128 0x3
 4269 00c7 24040000 		.4byte	.LASF16
 4270 00cb 0A       		.byte	0xa
 4271 00cc 2C       		.byte	0x2c
 4272 00cd 13       		.byte	0x13
 4273 00ce 7A000000 		.4byte	0x7a
 4274 00d2 03       		.uleb128 0x3
 4275 00d3 76030000 		.4byte	.LASF17
ARM GAS  /tmp/cc9meDp5.s 			page 76


 4276 00d7 0A       		.byte	0xa
 4277 00d8 30       		.byte	0x30
 4278 00d9 14       		.byte	0x14
 4279 00da 8D000000 		.4byte	0x8d
 4280 00de 03       		.uleb128 0x3
 4281 00df 9C050000 		.4byte	.LASF18
 4282 00e3 0B       		.byte	0xb
 4283 00e4 58       		.byte	0x58
 4284 00e5 19       		.byte	0x19
 4285 00e6 C6000000 		.4byte	0xc6
 4286 00ea 03       		.uleb128 0x3
 4287 00eb 4B040000 		.4byte	.LASF19
 4288 00ef 0C       		.byte	0xc
 4289 00f0 79       		.byte	0x79
 4290 00f1 12       		.byte	0x12
 4291 00f2 D2000000 		.4byte	0xd2
 4292 00f6 03       		.uleb128 0x3
 4293 00f7 23010000 		.4byte	.LASF20
 4294 00fb 04       		.byte	0x4
 4295 00fc 3F       		.byte	0x3f
 4296 00fd 19       		.byte	0x19
 4297 00fe 02010000 		.4byte	0x102
 4298 0102 08       		.uleb128 0x8
 4299 0103 D9000000 		.4byte	.LASF23
 4300 0107 08       		.byte	0x8
 4301 0108 04       		.byte	0x4
 4302 0109 45       		.byte	0x45
 4303 010a 08       		.byte	0x8
 4304 010b 2A010000 		.4byte	0x12a
 4305 010f 09       		.uleb128 0x9
 4306 0110 42000000 		.4byte	.LASF21
 4307 0114 04       		.byte	0x4
 4308 0115 46       		.byte	0x46
 4309 0116 1A       		.byte	0x1a
 4310 0117 2A010000 		.4byte	0x12a
 4311 011b 00       		.byte	0
 4312 011c 09       		.uleb128 0x9
 4313 011d 90050000 		.4byte	.LASF22
 4314 0121 04       		.byte	0x4
 4315 0122 47       		.byte	0x47
 4316 0123 1A       		.byte	0x1a
 4317 0124 2A010000 		.4byte	0x12a
 4318 0128 04       		.byte	0x4
 4319 0129 00       		.byte	0
 4320 012a 0A       		.uleb128 0xa
 4321 012b 04       		.byte	0x4
 4322 012c F6000000 		.4byte	0xf6
 4323 0130 08       		.uleb128 0x8
 4324 0131 12010000 		.4byte	.LASF24
 4325 0135 08       		.byte	0x8
 4326 0136 0D       		.byte	0xd
 4327 0137 8F       		.byte	0x8f
 4328 0138 10       		.byte	0x10
 4329 0139 4B010000 		.4byte	0x14b
 4330 013d 09       		.uleb128 0x9
 4331 013e 2C040000 		.4byte	.LASF25
 4332 0142 0D       		.byte	0xd
ARM GAS  /tmp/cc9meDp5.s 			page 77


 4333 0143 93       		.byte	0x93
 4334 0144 21       		.byte	0x21
 4335 0145 F6000000 		.4byte	0xf6
 4336 0149 00       		.byte	0
 4337 014a 00       		.byte	0
 4338 014b 03       		.uleb128 0x3
 4339 014c 32000000 		.4byte	.LASF26
 4340 0150 0D       		.byte	0xd
 4341 0151 94       		.byte	0x94
 4342 0152 03       		.byte	0x3
 4343 0153 30010000 		.4byte	0x130
 4344 0157 05       		.uleb128 0x5
 4345 0158 01       		.byte	0x1
 4346 0159 02       		.byte	0x2
 4347 015a 39040000 		.4byte	.LASF27
 4348 015e 0A       		.uleb128 0xa
 4349 015f 04       		.byte	0x4
 4350 0160 B5000000 		.4byte	0xb5
 4351 0164 0A       		.uleb128 0xa
 4352 0165 04       		.byte	0x4
 4353 0166 C1000000 		.4byte	0xc1
 4354 016a 03       		.uleb128 0x3
 4355 016b AA050000 		.4byte	.LASF28
 4356 016f 0E       		.byte	0xe
 4357 0170 3F       		.byte	0x3f
 4358 0171 21       		.byte	0x21
 4359 0172 76010000 		.4byte	0x176
 4360 0176 08       		.uleb128 0x8
 4361 0177 F9000000 		.4byte	.LASF29
 4362 017b 38       		.byte	0x38
 4363 017c 0E       		.byte	0xe
 4364 017d 4B       		.byte	0x4b
 4365 017e 08       		.byte	0x8
 4366 017f 2C020000 		.4byte	0x22c
 4367 0183 09       		.uleb128 0x9
 4368 0184 88050000 		.4byte	.LASF30
 4369 0188 0E       		.byte	0xe
 4370 0189 4F       		.byte	0x4f
 4371 018a 19       		.byte	0x19
 4372 018b 4B010000 		.4byte	0x14b
 4373 018f 00       		.byte	0
 4374 0190 09       		.uleb128 0x9
 4375 0191 FA030000 		.4byte	.LASF31
 4376 0195 0E       		.byte	0xe
 4377 0196 53       		.byte	0x53
 4378 0197 19       		.byte	0x19
 4379 0198 57010000 		.4byte	0x157
 4380 019c 08       		.byte	0x8
 4381 019d 09       		.uleb128 0x9
 4382 019e 65010000 		.4byte	.LASF32
 4383 01a2 0E       		.byte	0xe
 4384 01a3 57       		.byte	0x57
 4385 01a4 19       		.byte	0x19
 4386 01a5 38000000 		.4byte	0x38
 4387 01a9 0C       		.byte	0xc
 4388 01aa 09       		.uleb128 0x9
 4389 01ab 32040000 		.4byte	.LASF33
ARM GAS  /tmp/cc9meDp5.s 			page 78


 4390 01af 0E       		.byte	0xe
 4391 01b0 5B       		.byte	0x5b
 4392 01b1 1A       		.byte	0x1a
 4393 01b2 5E010000 		.4byte	0x15e
 4394 01b6 10       		.byte	0x10
 4395 01b7 09       		.uleb128 0x9
 4396 01b8 95050000 		.4byte	.LASF34
 4397 01bc 0E       		.byte	0xe
 4398 01bd 5F       		.byte	0x5f
 4399 01be 1A       		.byte	0x1a
 4400 01bf 5E010000 		.4byte	0x15e
 4401 01c3 14       		.byte	0x14
 4402 01c4 09       		.uleb128 0x9
 4403 01c5 81040000 		.4byte	.LASF35
 4404 01c9 0E       		.byte	0xe
 4405 01ca 63       		.byte	0x63
 4406 01cb 1A       		.byte	0x1a
 4407 01cc 5E010000 		.4byte	0x15e
 4408 01d0 18       		.byte	0x18
 4409 01d1 09       		.uleb128 0x9
 4410 01d2 2C000000 		.4byte	.LASF36
 4411 01d6 0E       		.byte	0xe
 4412 01d7 6A       		.byte	0x6a
 4413 01d8 19       		.byte	0x19
 4414 01d9 2C000000 		.4byte	0x2c
 4415 01dd 1C       		.byte	0x1c
 4416 01de 0B       		.uleb128 0xb
 4417 01df 626E00   		.ascii	"bn\000"
 4418 01e2 0E       		.byte	0xe
 4419 01e3 6E       		.byte	0x6e
 4420 01e4 19       		.byte	0x19
 4421 01e5 2C000000 		.4byte	0x2c
 4422 01e9 20       		.byte	0x20
 4423 01ea 09       		.uleb128 0x9
 4424 01eb D1040000 		.4byte	.LASF37
 4425 01ef 0E       		.byte	0xe
 4426 01f0 72       		.byte	0x72
 4427 01f1 1A       		.byte	0x1a
 4428 01f2 5E010000 		.4byte	0x15e
 4429 01f6 24       		.byte	0x24
 4430 01f7 0B       		.uleb128 0xb
 4431 01f8 70747200 		.ascii	"ptr\000"
 4432 01fc 0E       		.byte	0xe
 4433 01fd 77       		.byte	0x77
 4434 01fe 1A       		.byte	0x1a
 4435 01ff 5E010000 		.4byte	0x15e
 4436 0203 28       		.byte	0x28
 4437 0204 0B       		.uleb128 0xb
 4438 0205 746F7000 		.ascii	"top\000"
 4439 0209 0E       		.byte	0xe
 4440 020a 7B       		.byte	0x7b
 4441 020b 1A       		.byte	0x1a
 4442 020c 5E010000 		.4byte	0x15e
 4443 0210 2C       		.byte	0x2c
 4444 0211 09       		.uleb128 0x9
 4445 0212 64050000 		.4byte	.LASF38
 4446 0216 0E       		.byte	0xe
ARM GAS  /tmp/cc9meDp5.s 			page 79


 4447 0217 7F       		.byte	0x7f
 4448 0218 19       		.byte	0x19
 4449 0219 2C020000 		.4byte	0x22c
 4450 021d 30       		.byte	0x30
 4451 021e 09       		.uleb128 0x9
 4452 021f 2E010000 		.4byte	.LASF39
 4453 0223 0E       		.byte	0xe
 4454 0224 83       		.byte	0x83
 4455 0225 1A       		.byte	0x1a
 4456 0226 A7000000 		.4byte	0xa7
 4457 022a 34       		.byte	0x34
 4458 022b 00       		.byte	0
 4459 022c 03       		.uleb128 0x3
 4460 022d 40010000 		.4byte	.LASF40
 4461 0231 0E       		.byte	0xe
 4462 0232 46       		.byte	0x46
 4463 0233 10       		.byte	0x10
 4464 0234 38020000 		.4byte	0x238
 4465 0238 0A       		.uleb128 0xa
 4466 0239 04       		.byte	0x4
 4467 023a 3E020000 		.4byte	0x23e
 4468 023e 0C       		.uleb128 0xc
 4469 023f 49020000 		.4byte	0x249
 4470 0243 0D       		.uleb128 0xd
 4471 0244 49020000 		.4byte	0x249
 4472 0248 00       		.byte	0
 4473 0249 0A       		.uleb128 0xa
 4474 024a 04       		.byte	0x4
 4475 024b 6A010000 		.4byte	0x16a
 4476 024f 03       		.uleb128 0x3
 4477 0250 4E050000 		.4byte	.LASF41
 4478 0254 0E       		.byte	0xe
 4479 0255 89       		.byte	0x89
 4480 0256 1C       		.byte	0x1c
 4481 0257 6A010000 		.4byte	0x16a
 4482 025b 03       		.uleb128 0x3
 4483 025c E2000000 		.4byte	.LASF42
 4484 0260 0E       		.byte	0xe
 4485 0261 8E       		.byte	0x8e
 4486 0262 1C       		.byte	0x1c
 4487 0263 6A010000 		.4byte	0x16a
 4488 0267 0E       		.uleb128 0xe
 4489 0268 17050000 		.4byte	.LASF50
 4490 026c 01       		.byte	0x1
 4491 026d 4003     		.2byte	0x340
 4492 026f 06       		.byte	0x6
 4493 0270 00000000 		.4byte	.LFB421
 4494 0274 4C000000 		.4byte	.LFE421-.LFB421
 4495 0278 01       		.uleb128 0x1
 4496 0279 9C       		.byte	0x9c
 4497 027a AD030000 		.4byte	0x3ad
 4498 027e 0F       		.uleb128 0xf
 4499 027f 59040000 		.4byte	.LASF43
 4500 0283 01       		.byte	0x1
 4501 0284 4003     		.2byte	0x340
 4502 0286 27       		.byte	0x27
 4503 0287 AD030000 		.4byte	0x3ad
ARM GAS  /tmp/cc9meDp5.s 			page 80


 4504 028b 04000000 		.4byte	.LLST139
 4505 028f 00000000 		.4byte	.LVUS139
 4506 0293 10       		.uleb128 0x10
 4507 0294 480A0000 		.4byte	.Ldebug_ranges0+0xa48
 4508 0298 F0020000 		.4byte	0x2f0
 4509 029c 11       		.uleb128 0x11
 4510 029d E4040000 		.4byte	.LASF44
 4511 02a1 01       		.byte	0x1
 4512 02a2 4603     		.2byte	0x346
 4513 02a4 0C       		.byte	0xc
 4514 02a5 2C000000 		.4byte	0x2c
 4515 02a9 31000000 		.4byte	.LLST141
 4516 02ad 25000000 		.4byte	.LVUS141
 4517 02b1 12       		.uleb128 0x12
 4518 02b2 CC090000 		.4byte	0x9cc
 4519 02b6 1C000000 		.4byte	.LBI995
 4520 02ba 01       		.byte	.LVU1286
 4521 02bb 1C000000 		.4byte	.LBB995
 4522 02bf 28000000 		.4byte	.LBE995-.LBB995
 4523 02c3 01       		.byte	0x1
 4524 02c4 4903     		.2byte	0x349
 4525 02c6 07       		.byte	0x7
 4526 02c7 13       		.uleb128 0x13
 4527 02c8 E7090000 		.4byte	0x9e7
 4528 02cc 94000000 		.4byte	.LLST142
 4529 02d0 8C000000 		.4byte	.LVUS142
 4530 02d4 13       		.uleb128 0x13
 4531 02d5 DA090000 		.4byte	0x9da
 4532 02d9 D8000000 		.4byte	.LLST143
 4533 02dd D4000000 		.4byte	.LVUS143
 4534 02e1 14       		.uleb128 0x14
 4535 02e2 44000000 		.4byte	.LVL221
 4536 02e6 15       		.uleb128 0x15
 4537 02e7 01       		.uleb128 0x1
 4538 02e8 50       		.byte	0x50
 4539 02e9 03       		.uleb128 0x3
 4540 02ea F3       		.byte	0xf3
 4541 02eb 01       		.uleb128 0x1
 4542 02ec 50       		.byte	0x50
 4543 02ed 00       		.byte	0
 4544 02ee 00       		.byte	0
 4545 02ef 00       		.byte	0
 4546 02f0 16       		.uleb128 0x16
 4547 02f1 9E1B0000 		.4byte	0x1b9e
 4548 02f5 00000000 		.4byte	.LBI978
 4549 02f9 02       		.byte	.LVU1246
 4550 02fa 180A0000 		.4byte	.Ldebug_ranges0+0xa18
 4551 02fe 01       		.byte	0x1
 4552 02ff 4203     		.2byte	0x342
 4553 0301 03       		.byte	0x3
 4554 0302 4D030000 		.4byte	0x34d
 4555 0306 17       		.uleb128 0x17
 4556 0307 F11B0000 		.4byte	0x1bf1
 4557 030b 00000000 		.4byte	.LBI979
 4558 030f 04       		.byte	.LVU1248
 4559 0310 200A0000 		.4byte	.Ldebug_ranges0+0xa20
 4560 0314 02       		.byte	0x2
ARM GAS  /tmp/cc9meDp5.s 			page 81


 4561 0315 3F02     		.2byte	0x23f
 4562 0317 03       		.byte	0x3
 4563 0318 17       		.uleb128 0x17
 4564 0319 051C0000 		.4byte	0x1c05
 4565 031d 00000000 		.4byte	.LBI980
 4566 0321 06       		.byte	.LVU1250
 4567 0322 280A0000 		.4byte	.Ldebug_ranges0+0xa28
 4568 0326 05       		.byte	0x5
 4569 0327 9901     		.2byte	0x199
 4570 0329 03       		.byte	0x3
 4571 032a 17       		.uleb128 0x17
 4572 032b 0F1C0000 		.4byte	0x1c0f
 4573 032f 00000000 		.4byte	.LBI981
 4574 0333 08       		.byte	.LVU1252
 4575 0334 300A0000 		.4byte	.Ldebug_ranges0+0xa30
 4576 0338 06       		.byte	0x6
 4577 0339 2E03     		.2byte	0x32e
 4578 033b 03       		.byte	0x3
 4579 033c 13       		.uleb128 0x13
 4580 033d 1D1C0000 		.4byte	0x1c1d
 4581 0341 FB000000 		.4byte	.LLST140
 4582 0345 F9000000 		.4byte	.LVUS140
 4583 0349 00       		.byte	0
 4584 034a 00       		.byte	0
 4585 034b 00       		.byte	0
 4586 034c 00       		.byte	0
 4587 034d 17       		.uleb128 0x17
 4588 034e 941B0000 		.4byte	0x1b94
 4589 0352 14000000 		.4byte	.LBI997
 4590 0356 02       		.byte	.LVU1270
 4591 0357 600A0000 		.4byte	.Ldebug_ranges0+0xa60
 4592 035b 01       		.byte	0x1
 4593 035c 4D03     		.2byte	0x34d
 4594 035e 03       		.byte	0x3
 4595 035f 17       		.uleb128 0x17
 4596 0360 C41B0000 		.4byte	0x1bc4
 4597 0364 14000000 		.4byte	.LBI998
 4598 0368 04       		.byte	.LVU1272
 4599 0369 980A0000 		.4byte	.Ldebug_ranges0+0xa98
 4600 036d 02       		.byte	0x2
 4601 036e 4A02     		.2byte	0x24a
 4602 0370 03       		.byte	0x3
 4603 0371 18       		.uleb128 0x18
 4604 0372 980A0000 		.4byte	.Ldebug_ranges0+0xa98
 4605 0376 17       		.uleb128 0x17
 4606 0377 FB1B0000 		.4byte	0x1bfb
 4607 037b 14000000 		.4byte	.LBI1000
 4608 037f 0B       		.byte	.LVU1279
 4609 0380 980A0000 		.4byte	.Ldebug_ranges0+0xa98
 4610 0384 05       		.byte	0x5
 4611 0385 B201     		.2byte	0x1b2
 4612 0387 03       		.byte	0x3
 4613 0388 17       		.uleb128 0x17
 4614 0389 0F1C0000 		.4byte	0x1c0f
 4615 038d 14000000 		.4byte	.LBI1001
 4616 0391 0D       		.byte	.LVU1281
 4617 0392 C00A0000 		.4byte	.Ldebug_ranges0+0xac0
ARM GAS  /tmp/cc9meDp5.s 			page 82


 4618 0396 06       		.byte	0x6
 4619 0397 4103     		.2byte	0x341
 4620 0399 03       		.byte	0x3
 4621 039a 13       		.uleb128 0x13
 4622 039b 1D1C0000 		.4byte	0x1c1d
 4623 039f 14010000 		.4byte	.LLST144
 4624 03a3 10010000 		.4byte	.LVUS144
 4625 03a7 00       		.byte	0
 4626 03a8 00       		.byte	0
 4627 03a9 00       		.byte	0
 4628 03aa 00       		.byte	0
 4629 03ab 00       		.byte	0
 4630 03ac 00       		.byte	0
 4631 03ad 0A       		.uleb128 0xa
 4632 03ae 04       		.byte	0x4
 4633 03af 5B020000 		.4byte	0x25b
 4634 03b3 19       		.uleb128 0x19
 4635 03b4 33010000 		.4byte	.LASF45
 4636 03b8 01       		.byte	0x1
 4637 03b9 1B03     		.2byte	0x31b
 4638 03bb 06       		.byte	0x6
 4639 03bc 57010000 		.4byte	0x157
 4640 03c0 00000000 		.4byte	.LFB420
 4641 03c4 42000000 		.4byte	.LFE420-.LFB420
 4642 03c8 01       		.uleb128 0x1
 4643 03c9 9C       		.byte	0x9c
 4644 03ca 03040000 		.4byte	0x403
 4645 03ce 0F       		.uleb128 0xf
 4646 03cf 59040000 		.4byte	.LASF43
 4647 03d3 01       		.byte	0x1
 4648 03d4 1B03     		.2byte	0x31b
 4649 03d6 2B       		.byte	0x2b
 4650 03d7 AD030000 		.4byte	0x3ad
 4651 03db 3C010000 		.4byte	.LLST137
 4652 03df 34010000 		.4byte	.LVUS137
 4653 03e3 1A       		.uleb128 0x1a
 4654 03e4 18000000 		.4byte	.LBB963
 4655 03e8 2A000000 		.4byte	.LBE963-.LBB963
 4656 03ec 11       		.uleb128 0x11
 4657 03ed E4040000 		.4byte	.LASF44
 4658 03f1 01       		.byte	0x1
 4659 03f2 2203     		.2byte	0x322
 4660 03f4 0C       		.byte	0xc
 4661 03f5 2C000000 		.4byte	0x2c
 4662 03f9 80010000 		.4byte	.LLST138
 4663 03fd 76010000 		.4byte	.LVUS138
 4664 0401 00       		.byte	0
 4665 0402 00       		.byte	0
 4666 0403 19       		.uleb128 0x19
 4667 0404 9E030000 		.4byte	.LASF46
 4668 0408 01       		.byte	0x1
 4669 0409 D102     		.2byte	0x2d1
 4670 040b 08       		.byte	0x8
 4671 040c 2C000000 		.4byte	0x2c
 4672 0410 00000000 		.4byte	.LFB419
 4673 0414 16010000 		.4byte	.LFE419-.LFB419
 4674 0418 01       		.uleb128 0x1
ARM GAS  /tmp/cc9meDp5.s 			page 83


 4675 0419 9C       		.byte	0x9c
 4676 041a 3B070000 		.4byte	0x73b
 4677 041e 0F       		.uleb128 0xf
 4678 041f 59040000 		.4byte	.LASF43
 4679 0423 01       		.byte	0x1
 4680 0424 D102     		.2byte	0x2d1
 4681 0426 30       		.byte	0x30
 4682 0427 AD030000 		.4byte	0x3ad
 4683 042b DC010000 		.4byte	.LLST120
 4684 042f D0010000 		.4byte	.LVUS120
 4685 0433 1B       		.uleb128 0x1b
 4686 0434 627000   		.ascii	"bp\000"
 4687 0437 01       		.byte	0x1
 4688 0438 D102     		.2byte	0x2d1
 4689 043a 45       		.byte	0x45
 4690 043b 64010000 		.4byte	0x164
 4691 043f 36020000 		.4byte	.LLST121
 4692 0443 26020000 		.4byte	.LVUS121
 4693 0447 1B       		.uleb128 0x1b
 4694 0448 6E00     		.ascii	"n\000"
 4695 044a 01       		.byte	0x1
 4696 044b D202     		.2byte	0x2d2
 4697 044d 1F       		.byte	0x1f
 4698 044e 2C000000 		.4byte	0x2c
 4699 0452 9C020000 		.4byte	.LLST122
 4700 0456 98020000 		.4byte	.LVUS122
 4701 045a 0F       		.uleb128 0xf
 4702 045b A2050000 		.4byte	.LASF47
 4703 045f 01       		.byte	0x1
 4704 0460 D202     		.2byte	0x2d2
 4705 0462 30       		.byte	0x30
 4706 0463 EA000000 		.4byte	0xea
 4707 0467 C6020000 		.4byte	.LLST123
 4708 046b BA020000 		.4byte	.LVUS123
 4709 046f 1C       		.uleb128 0x1c
 4710 0470 7700     		.ascii	"w\000"
 4711 0472 01       		.byte	0x1
 4712 0473 D302     		.2byte	0x2d3
 4713 0475 0A       		.byte	0xa
 4714 0476 2C000000 		.4byte	0x2c
 4715 047a 14030000 		.4byte	.LLST124
 4716 047e 10030000 		.4byte	.LVUS124
 4717 0482 1D       		.uleb128 0x1d
 4718 0483 18030000 		.4byte	.LASF49
 4719 0487 4B070000 		.4byte	0x74b
 4720 048b 10       		.uleb128 0x10
 4721 048c B8080000 		.4byte	.Ldebug_ranges0+0x8b8
 4722 0490 E1060000 		.4byte	0x6e1
 4723 0494 11       		.uleb128 0x11
 4724 0495 E4040000 		.4byte	.LASF44
 4725 0499 01       		.byte	0x1
 4726 049a DA02     		.2byte	0x2da
 4727 049c 0C       		.byte	0xc
 4728 049d 2C000000 		.4byte	0x2c
 4729 04a1 39030000 		.4byte	.LLST126
 4730 04a5 33030000 		.4byte	.LVUS126
 4731 04a9 10       		.uleb128 0x10
ARM GAS  /tmp/cc9meDp5.s 			page 84


 4732 04aa 98090000 		.4byte	.Ldebug_ranges0+0x998
 4733 04ae C5050000 		.4byte	0x5c5
 4734 04b2 1C       		.uleb128 0x1c
 4735 04b3 6D736700 		.ascii	"msg\000"
 4736 04b7 01       		.byte	0x1
 4737 04b8 DE02     		.2byte	0x2de
 4738 04ba 0D       		.byte	0xd
 4739 04bb DE000000 		.4byte	0xde
 4740 04bf 64030000 		.4byte	.LLST131
 4741 04c3 62030000 		.4byte	.LVUS131
 4742 04c7 1E       		.uleb128 0x1e
 4743 04c8 570B0000 		.4byte	0xb57
 4744 04cc 82000000 		.4byte	.LBB926
 4745 04d0 2C000000 		.4byte	.LBE926-.LBB926
 4746 04d4 01       		.byte	0x1
 4747 04d5 E102     		.2byte	0x2e1
 4748 04d7 0D       		.byte	0xd
 4749 04d8 61050000 		.4byte	0x561
 4750 04dc 1F       		.uleb128 0x1f
 4751 04dd 760B0000 		.4byte	0xb76
 4752 04e1 1F       		.uleb128 0x1f
 4753 04e2 690B0000 		.4byte	0xb69
 4754 04e6 20       		.uleb128 0x20
 4755 04e7 8C0B0000 		.4byte	0xb8c
 4756 04eb C0090000 		.4byte	.Ldebug_ranges0+0x9c0
 4757 04ef 37050000 		.4byte	0x537
 4758 04f3 21       		.uleb128 0x21
 4759 04f4 8D0B0000 		.4byte	0xb8d
 4760 04f8 7A030000 		.4byte	.LLST132
 4761 04fc 78030000 		.4byte	.LVUS132
 4762 0500 17       		.uleb128 0x17
 4763 0501 4B1B0000 		.4byte	0x1b4b
 4764 0505 92000000 		.4byte	.LBI929
 4765 0509 02       		.byte	.LVU1125
 4766 050a D8090000 		.4byte	.Ldebug_ranges0+0x9d8
 4767 050e 01       		.byte	0x1
 4768 050f 4A02     		.2byte	0x24a
 4769 0511 11       		.byte	0x11
 4770 0512 13       		.uleb128 0x13
 4771 0513 6A1B0000 		.4byte	0x1b6a
 4772 0517 95030000 		.4byte	.LLST133
 4773 051b 8D030000 		.4byte	.LVUS133
 4774 051f 13       		.uleb128 0x13
 4775 0520 5D1B0000 		.4byte	0x1b5d
 4776 0524 D3030000 		.4byte	.LLST134
 4777 0528 C9030000 		.4byte	.LVUS134
 4778 052c 22       		.uleb128 0x22
 4779 052d 8E000000 		.4byte	.LVL183
 4780 0531 0B1E0000 		.4byte	0x1e0b
 4781 0535 00       		.byte	0
 4782 0536 00       		.byte	0
 4783 0537 12       		.uleb128 0x12
 4784 0538 570B0000 		.4byte	0xb57
 4785 053c 9E000000 		.4byte	.LBI936
 4786 0540 00       		.byte	.LVU1131
 4787 0541 9E000000 		.4byte	.LBB936
 4788 0545 10000000 		.4byte	.LBE936-.LBB936
ARM GAS  /tmp/cc9meDp5.s 			page 85


 4789 0549 01       		.byte	0x1
 4790 054a 4102     		.2byte	0x241
 4791 054c 07       		.byte	0x7
 4792 054d 1F       		.uleb128 0x1f
 4793 054e 760B0000 		.4byte	0xb76
 4794 0552 13       		.uleb128 0x13
 4795 0553 690B0000 		.4byte	0xb69
 4796 0557 16040000 		.4byte	.LLST135
 4797 055b 12040000 		.4byte	.LVUS135
 4798 055f 00       		.byte	0
 4799 0560 00       		.byte	0
 4800 0561 17       		.uleb128 0x17
 4801 0562 941B0000 		.4byte	0x1b94
 4802 0566 0A010000 		.4byte	.LBI938
 4803 056a 03       		.byte	.LVU1191
 4804 056b F8090000 		.4byte	.Ldebug_ranges0+0x9f8
 4805 056f 01       		.byte	0x1
 4806 0570 E502     		.2byte	0x2e5
 4807 0572 09       		.byte	0x9
 4808 0573 17       		.uleb128 0x17
 4809 0574 C41B0000 		.4byte	0x1bc4
 4810 0578 0A010000 		.4byte	.LBI939
 4811 057c 05       		.byte	.LVU1193
 4812 057d 000A0000 		.4byte	.Ldebug_ranges0+0xa00
 4813 0581 02       		.byte	0x2
 4814 0582 4A02     		.2byte	0x24a
 4815 0584 03       		.byte	0x3
 4816 0585 18       		.uleb128 0x18
 4817 0586 000A0000 		.4byte	.Ldebug_ranges0+0xa00
 4818 058a 17       		.uleb128 0x17
 4819 058b FB1B0000 		.4byte	0x1bfb
 4820 058f 0A010000 		.4byte	.LBI941
 4821 0593 0C       		.byte	.LVU1200
 4822 0594 000A0000 		.4byte	.Ldebug_ranges0+0xa00
 4823 0598 05       		.byte	0x5
 4824 0599 B201     		.2byte	0x1b2
 4825 059b 03       		.byte	0x3
 4826 059c 12       		.uleb128 0x12
 4827 059d 0F1C0000 		.4byte	0x1c0f
 4828 05a1 0A010000 		.4byte	.LBI942
 4829 05a5 0E       		.byte	.LVU1202
 4830 05a6 0A010000 		.4byte	.LBB942
 4831 05aa 06000000 		.4byte	.LBE942-.LBB942
 4832 05ae 06       		.byte	0x6
 4833 05af 4103     		.2byte	0x341
 4834 05b1 03       		.byte	0x3
 4835 05b2 13       		.uleb128 0x13
 4836 05b3 1D1C0000 		.4byte	0x1c1d
 4837 05b7 36040000 		.4byte	.LLST136
 4838 05bb 34040000 		.4byte	.LVUS136
 4839 05bf 00       		.byte	0
 4840 05c0 00       		.byte	0
 4841 05c1 00       		.byte	0
 4842 05c2 00       		.byte	0
 4843 05c3 00       		.byte	0
 4844 05c4 00       		.byte	0
 4845 05c5 16       		.uleb128 0x16
ARM GAS  /tmp/cc9meDp5.s 			page 86


 4846 05c6 CC090000 		.4byte	0x9cc
 4847 05ca CC000000 		.4byte	.LBI894
 4848 05ce 01       		.byte	.LVU1158
 4849 05cf 08090000 		.4byte	.Ldebug_ranges0+0x908
 4850 05d3 01       		.byte	0x1
 4851 05d4 0203     		.2byte	0x302
 4852 05d6 07       		.byte	0x7
 4853 05d7 08060000 		.4byte	0x608
 4854 05db 13       		.uleb128 0x13
 4855 05dc E7090000 		.4byte	0x9e7
 4856 05e0 52040000 		.4byte	.LLST127
 4857 05e4 4A040000 		.4byte	.LVUS127
 4858 05e8 13       		.uleb128 0x13
 4859 05e9 DA090000 		.4byte	0x9da
 4860 05ed 90040000 		.4byte	.LLST128
 4861 05f1 8E040000 		.4byte	.LVUS128
 4862 05f5 18       		.uleb128 0x18
 4863 05f6 08090000 		.4byte	.Ldebug_ranges0+0x908
 4864 05fa 14       		.uleb128 0x14
 4865 05fb 08010000 		.4byte	.LVL197
 4866 05ff 15       		.uleb128 0x15
 4867 0600 01       		.uleb128 0x1
 4868 0601 50       		.byte	0x50
 4869 0602 02       		.uleb128 0x2
 4870 0603 79       		.byte	0x79
 4871 0604 00       		.sleb128 0
 4872 0605 00       		.byte	0
 4873 0606 00       		.byte	0
 4874 0607 00       		.byte	0
 4875 0608 16       		.uleb128 0x16
 4876 0609 941B0000 		.4byte	0x1b94
 4877 060d 74000000 		.4byte	.LBI899
 4878 0611 01       		.byte	.LVU1088
 4879 0612 30090000 		.4byte	.Ldebug_ranges0+0x930
 4880 0616 01       		.byte	0x1
 4881 0617 0603     		.2byte	0x306
 4882 0619 05       		.byte	0x5
 4883 061a 6F060000 		.4byte	0x66f
 4884 061e 17       		.uleb128 0x17
 4885 061f C41B0000 		.4byte	0x1bc4
 4886 0623 74000000 		.4byte	.LBI900
 4887 0627 03       		.byte	.LVU1090
 4888 0628 38090000 		.4byte	.Ldebug_ranges0+0x938
 4889 062c 02       		.byte	0x2
 4890 062d 4A02     		.2byte	0x24a
 4891 062f 03       		.byte	0x3
 4892 0630 18       		.uleb128 0x18
 4893 0631 38090000 		.4byte	.Ldebug_ranges0+0x938
 4894 0635 17       		.uleb128 0x17
 4895 0636 FB1B0000 		.4byte	0x1bfb
 4896 063a 74000000 		.4byte	.LBI902
 4897 063e 0A       		.byte	.LVU1097
 4898 063f 38090000 		.4byte	.Ldebug_ranges0+0x938
 4899 0643 05       		.byte	0x5
 4900 0644 B201     		.2byte	0x1b2
 4901 0646 03       		.byte	0x3
 4902 0647 12       		.uleb128 0x12
ARM GAS  /tmp/cc9meDp5.s 			page 87


 4903 0648 0F1C0000 		.4byte	0x1c0f
 4904 064c 74000000 		.4byte	.LBI903
 4905 0650 0C       		.byte	.LVU1099
 4906 0651 74000000 		.4byte	.LBB903
 4907 0655 04000000 		.4byte	.LBE903-.LBB903
 4908 0659 06       		.byte	0x6
 4909 065a 4103     		.2byte	0x341
 4910 065c 03       		.byte	0x3
 4911 065d 13       		.uleb128 0x13
 4912 065e 1D1C0000 		.4byte	0x1c1d
 4913 0662 A5040000 		.4byte	.LLST129
 4914 0666 A3040000 		.4byte	.LVUS129
 4915 066a 00       		.byte	0
 4916 066b 00       		.byte	0
 4917 066c 00       		.byte	0
 4918 066d 00       		.byte	0
 4919 066e 00       		.byte	0
 4920 066f 16       		.uleb128 0x16
 4921 0670 9E1B0000 		.4byte	0x1b9e
 4922 0674 7C000000 		.4byte	.LBI910
 4923 0678 01       		.byte	.LVU1105
 4924 0679 50090000 		.4byte	.Ldebug_ranges0+0x950
 4925 067d 01       		.byte	0x1
 4926 067e 0A03     		.2byte	0x30a
 4927 0680 05       		.byte	0x5
 4928 0681 D0060000 		.4byte	0x6d0
 4929 0685 17       		.uleb128 0x17
 4930 0686 F11B0000 		.4byte	0x1bf1
 4931 068a 7C000000 		.4byte	.LBI912
 4932 068e 03       		.byte	.LVU1107
 4933 068f 78090000 		.4byte	.Ldebug_ranges0+0x978
 4934 0693 02       		.byte	0x2
 4935 0694 3F02     		.2byte	0x23f
 4936 0696 03       		.byte	0x3
 4937 0697 17       		.uleb128 0x17
 4938 0698 051C0000 		.4byte	0x1c05
 4939 069c 7C000000 		.4byte	.LBI913
 4940 06a0 05       		.byte	.LVU1109
 4941 06a1 80090000 		.4byte	.Ldebug_ranges0+0x980
 4942 06a5 05       		.byte	0x5
 4943 06a6 9901     		.2byte	0x199
 4944 06a8 03       		.byte	0x3
 4945 06a9 12       		.uleb128 0x12
 4946 06aa 0F1C0000 		.4byte	0x1c0f
 4947 06ae 7C000000 		.4byte	.LBI914
 4948 06b2 07       		.byte	.LVU1111
 4949 06b3 7C000000 		.4byte	.LBB914
 4950 06b7 04000000 		.4byte	.LBE914-.LBB914
 4951 06bb 06       		.byte	0x6
 4952 06bc 2E03     		.2byte	0x32e
 4953 06be 03       		.byte	0x3
 4954 06bf 13       		.uleb128 0x13
 4955 06c0 1D1C0000 		.4byte	0x1c1d
 4956 06c4 BB040000 		.4byte	.LLST130
 4957 06c8 B9040000 		.4byte	.LVUS130
 4958 06cc 00       		.byte	0
 4959 06cd 00       		.byte	0
ARM GAS  /tmp/cc9meDp5.s 			page 88


 4960 06ce 00       		.byte	0
 4961 06cf 00       		.byte	0
 4962 06d0 23       		.uleb128 0x23
 4963 06d1 B6000000 		.4byte	.LVL189
 4964 06d5 181E0000 		.4byte	0x1e18
 4965 06d9 15       		.uleb128 0x15
 4966 06da 01       		.uleb128 0x1
 4967 06db 52       		.byte	0x52
 4968 06dc 02       		.uleb128 0x2
 4969 06dd 7B       		.byte	0x7b
 4970 06de 00       		.sleb128 0
 4971 06df 00       		.byte	0
 4972 06e0 00       		.byte	0
 4973 06e1 17       		.uleb128 0x17
 4974 06e2 9E1B0000 		.4byte	0x1b9e
 4975 06e6 00000000 		.4byte	.LBI874
 4976 06ea 06       		.byte	.LVU1042
 4977 06eb 30080000 		.4byte	.Ldebug_ranges0+0x830
 4978 06ef 01       		.byte	0x1
 4979 06f0 D702     		.2byte	0x2d7
 4980 06f2 03       		.byte	0x3
 4981 06f3 17       		.uleb128 0x17
 4982 06f4 F11B0000 		.4byte	0x1bf1
 4983 06f8 00000000 		.4byte	.LBI876
 4984 06fc 08       		.byte	.LVU1044
 4985 06fd 58080000 		.4byte	.Ldebug_ranges0+0x858
 4986 0701 02       		.byte	0x2
 4987 0702 3F02     		.2byte	0x23f
 4988 0704 03       		.byte	0x3
 4989 0705 17       		.uleb128 0x17
 4990 0706 051C0000 		.4byte	0x1c05
 4991 070a 00000000 		.4byte	.LBI877
 4992 070e 0A       		.byte	.LVU1046
 4993 070f 80080000 		.4byte	.Ldebug_ranges0+0x880
 4994 0713 05       		.byte	0x5
 4995 0714 9901     		.2byte	0x199
 4996 0716 03       		.byte	0x3
 4997 0717 17       		.uleb128 0x17
 4998 0718 0F1C0000 		.4byte	0x1c0f
 4999 071c 00000000 		.4byte	.LBI878
 5000 0720 0C       		.byte	.LVU1048
 5001 0721 A0080000 		.4byte	.Ldebug_ranges0+0x8a0
 5002 0725 06       		.byte	0x6
 5003 0726 2E03     		.2byte	0x32e
 5004 0728 03       		.byte	0x3
 5005 0729 13       		.uleb128 0x13
 5006 072a 1D1C0000 		.4byte	0x1c1d
 5007 072e D2040000 		.4byte	.LLST125
 5008 0732 D0040000 		.4byte	.LVUS125
 5009 0736 00       		.byte	0
 5010 0737 00       		.byte	0
 5011 0738 00       		.byte	0
 5012 0739 00       		.byte	0
 5013 073a 00       		.byte	0
 5014 073b 24       		.uleb128 0x24
 5015 073c B0000000 		.4byte	0xb0
 5016 0740 4B070000 		.4byte	0x74b
ARM GAS  /tmp/cc9meDp5.s 			page 89


 5017 0744 25       		.uleb128 0x25
 5018 0745 3D000000 		.4byte	0x3d
 5019 0749 0F       		.byte	0xf
 5020 074a 00       		.byte	0
 5021 074b 07       		.uleb128 0x7
 5022 074c 3B070000 		.4byte	0x73b
 5023 0750 19       		.uleb128 0x19
 5024 0751 21030000 		.4byte	.LASF48
 5025 0755 01       		.byte	0x1
 5026 0756 9F02     		.2byte	0x29f
 5027 0758 07       		.byte	0x7
 5028 0759 DE000000 		.4byte	0xde
 5029 075d 00000000 		.4byte	.LFB418
 5030 0761 88000000 		.4byte	.LFE418-.LFB418
 5031 0765 01       		.uleb128 0x1
 5032 0766 9C       		.byte	0x9c
 5033 0767 CC090000 		.4byte	0x9cc
 5034 076b 0F       		.uleb128 0xf
 5035 076c 59040000 		.4byte	.LASF43
 5036 0770 01       		.byte	0x1
 5037 0771 9F02     		.2byte	0x29f
 5038 0773 2D       		.byte	0x2d
 5039 0774 AD030000 		.4byte	0x3ad
 5040 0778 F7040000 		.4byte	.LLST106
 5041 077c E7040000 		.4byte	.LVUS106
 5042 0780 1B       		.uleb128 0x1b
 5043 0781 6200     		.ascii	"b\000"
 5044 0783 01       		.byte	0x1
 5045 0784 9F02     		.2byte	0x29f
 5046 0786 3B       		.byte	0x3b
 5047 0787 B5000000 		.4byte	0xb5
 5048 078b 5F050000 		.4byte	.LLST107
 5049 078f 57050000 		.4byte	.LVUS107
 5050 0793 0F       		.uleb128 0xf
 5051 0794 A2050000 		.4byte	.LASF47
 5052 0798 01       		.byte	0x1
 5053 0799 A002     		.2byte	0x2a0
 5054 079b 23       		.byte	0x23
 5055 079c EA000000 		.4byte	0xea
 5056 07a0 AB050000 		.4byte	.LLST108
 5057 07a4 99050000 		.4byte	.LVUS108
 5058 07a8 1C       		.uleb128 0x1c
 5059 07a9 6D736700 		.ascii	"msg\000"
 5060 07ad 01       		.byte	0x1
 5061 07ae A102     		.2byte	0x2a1
 5062 07b0 09       		.byte	0x9
 5063 07b1 DE000000 		.4byte	0xde
 5064 07b5 1D060000 		.4byte	.LLST109
 5065 07b9 19060000 		.4byte	.LVUS109
 5066 07bd 16       		.uleb128 0x16
 5067 07be 9E1B0000 		.4byte	0x1b9e
 5068 07c2 08000000 		.4byte	.LBI777
 5069 07c6 02       		.byte	.LVU915
 5070 07c7 E8060000 		.4byte	.Ldebug_ranges0+0x6e8
 5071 07cb 01       		.byte	0x1
 5072 07cc A302     		.2byte	0x2a3
 5073 07ce 03       		.byte	0x3
ARM GAS  /tmp/cc9meDp5.s 			page 90


 5074 07cf 1A080000 		.4byte	0x81a
 5075 07d3 17       		.uleb128 0x17
 5076 07d4 F11B0000 		.4byte	0x1bf1
 5077 07d8 08000000 		.4byte	.LBI778
 5078 07dc 04       		.byte	.LVU917
 5079 07dd 18070000 		.4byte	.Ldebug_ranges0+0x718
 5080 07e1 02       		.byte	0x2
 5081 07e2 3F02     		.2byte	0x23f
 5082 07e4 03       		.byte	0x3
 5083 07e5 17       		.uleb128 0x17
 5084 07e6 051C0000 		.4byte	0x1c05
 5085 07ea 08000000 		.4byte	.LBI779
 5086 07ee 06       		.byte	.LVU919
 5087 07ef 40070000 		.4byte	.Ldebug_ranges0+0x740
 5088 07f3 05       		.byte	0x5
 5089 07f4 9901     		.2byte	0x199
 5090 07f6 03       		.byte	0x3
 5091 07f7 17       		.uleb128 0x17
 5092 07f8 0F1C0000 		.4byte	0x1c0f
 5093 07fc 08000000 		.4byte	.LBI780
 5094 0800 08       		.byte	.LVU921
 5095 0801 60070000 		.4byte	.Ldebug_ranges0+0x760
 5096 0805 06       		.byte	0x6
 5097 0806 2E03     		.2byte	0x32e
 5098 0808 03       		.byte	0x3
 5099 0809 13       		.uleb128 0x13
 5100 080a 1D1C0000 		.4byte	0x1c1d
 5101 080e 3E060000 		.4byte	.LLST110
 5102 0812 3C060000 		.4byte	.LVUS110
 5103 0816 00       		.byte	0
 5104 0817 00       		.byte	0
 5105 0818 00       		.byte	0
 5106 0819 00       		.byte	0
 5107 081a 16       		.uleb128 0x16
 5108 081b 941B0000 		.4byte	0x1b94
 5109 081f 1E000000 		.4byte	.LBI793
 5110 0823 01       		.byte	.LVU939
 5111 0824 78070000 		.4byte	.Ldebug_ranges0+0x778
 5112 0828 01       		.byte	0x1
 5113 0829 B802     		.2byte	0x2b8
 5114 082b 03       		.byte	0x3
 5115 082c 81080000 		.4byte	0x881
 5116 0830 17       		.uleb128 0x17
 5117 0831 C41B0000 		.4byte	0x1bc4
 5118 0835 1E000000 		.4byte	.LBI794
 5119 0839 03       		.byte	.LVU941
 5120 083a 80070000 		.4byte	.Ldebug_ranges0+0x780
 5121 083e 02       		.byte	0x2
 5122 083f 4A02     		.2byte	0x24a
 5123 0841 03       		.byte	0x3
 5124 0842 18       		.uleb128 0x18
 5125 0843 80070000 		.4byte	.Ldebug_ranges0+0x780
 5126 0847 17       		.uleb128 0x17
 5127 0848 FB1B0000 		.4byte	0x1bfb
 5128 084c 1E000000 		.4byte	.LBI796
 5129 0850 0A       		.byte	.LVU948
 5130 0851 80070000 		.4byte	.Ldebug_ranges0+0x780
ARM GAS  /tmp/cc9meDp5.s 			page 91


 5131 0855 05       		.byte	0x5
 5132 0856 B201     		.2byte	0x1b2
 5133 0858 03       		.byte	0x3
 5134 0859 12       		.uleb128 0x12
 5135 085a 0F1C0000 		.4byte	0x1c0f
 5136 085e 1E000000 		.4byte	.LBI797
 5137 0862 0C       		.byte	.LVU950
 5138 0863 1E000000 		.4byte	.LBB797
 5139 0867 06000000 		.4byte	.LBE797-.LBB797
 5140 086b 06       		.byte	0x6
 5141 086c 4103     		.2byte	0x341
 5142 086e 03       		.byte	0x3
 5143 086f 13       		.uleb128 0x13
 5144 0870 1D1C0000 		.4byte	0x1c1d
 5145 0874 55060000 		.4byte	.LLST111
 5146 0878 53060000 		.4byte	.LVUS111
 5147 087c 00       		.byte	0
 5148 087d 00       		.byte	0
 5149 087e 00       		.byte	0
 5150 087f 00       		.byte	0
 5151 0880 00       		.byte	0
 5152 0881 16       		.uleb128 0x16
 5153 0882 CC090000 		.4byte	0x9cc
 5154 0886 26000000 		.4byte	.LBI804
 5155 088a 01       		.byte	.LVU956
 5156 088b 98070000 		.4byte	.Ldebug_ranges0+0x798
 5157 088f 01       		.byte	0x1
 5158 0890 B502     		.2byte	0x2b5
 5159 0892 05       		.byte	0x5
 5160 0893 C4080000 		.4byte	0x8c4
 5161 0897 13       		.uleb128 0x13
 5162 0898 E7090000 		.4byte	0x9e7
 5163 089c 6F060000 		.4byte	.LLST112
 5164 08a0 69060000 		.4byte	.LVUS112
 5165 08a4 13       		.uleb128 0x13
 5166 08a5 DA090000 		.4byte	0x9da
 5167 08a9 A3060000 		.4byte	.LLST113
 5168 08ad 9F060000 		.4byte	.LVUS113
 5169 08b1 18       		.uleb128 0x18
 5170 08b2 98070000 		.4byte	.Ldebug_ranges0+0x798
 5171 08b6 14       		.uleb128 0x14
 5172 08b7 52000000 		.4byte	.LVL158
 5173 08bb 15       		.uleb128 0x15
 5174 08bc 01       		.uleb128 0x1
 5175 08bd 50       		.byte	0x50
 5176 08be 02       		.uleb128 0x2
 5177 08bf 74       		.byte	0x74
 5178 08c0 00       		.sleb128 0
 5179 08c1 00       		.byte	0
 5180 08c2 00       		.byte	0
 5181 08c3 00       		.byte	0
 5182 08c4 26       		.uleb128 0x26
 5183 08c5 570B0000 		.4byte	0xb57
 5184 08c9 B8070000 		.4byte	.Ldebug_ranges0+0x7b8
 5185 08cd 01       		.byte	0x1
 5186 08ce A702     		.2byte	0x2a7
 5187 08d0 0B       		.byte	0xb
ARM GAS  /tmp/cc9meDp5.s 			page 92


 5188 08d1 68090000 		.4byte	0x968
 5189 08d5 1F       		.uleb128 0x1f
 5190 08d6 760B0000 		.4byte	0xb76
 5191 08da 1F       		.uleb128 0x1f
 5192 08db 690B0000 		.4byte	0xb69
 5193 08df 18       		.uleb128 0x18
 5194 08e0 B8070000 		.4byte	.Ldebug_ranges0+0x7b8
 5195 08e4 20       		.uleb128 0x20
 5196 08e5 8C0B0000 		.4byte	0xb8c
 5197 08e9 D0070000 		.4byte	.Ldebug_ranges0+0x7d0
 5198 08ed 35090000 		.4byte	0x935
 5199 08f1 21       		.uleb128 0x21
 5200 08f2 8D0B0000 		.4byte	0xb8d
 5201 08f6 C3060000 		.4byte	.LLST114
 5202 08fa C1060000 		.4byte	.LVUS114
 5203 08fe 17       		.uleb128 0x17
 5204 08ff 4B1B0000 		.4byte	0x1b4b
 5205 0903 64000000 		.4byte	.LBI813
 5206 0907 02       		.byte	.LVU996
 5207 0908 F0070000 		.4byte	.Ldebug_ranges0+0x7f0
 5208 090c 01       		.byte	0x1
 5209 090d 4A02     		.2byte	0x24a
 5210 090f 11       		.byte	0x11
 5211 0910 13       		.uleb128 0x13
 5212 0911 6A1B0000 		.4byte	0x1b6a
 5213 0915 E2060000 		.4byte	.LLST115
 5214 0919 D6060000 		.4byte	.LVUS115
 5215 091d 13       		.uleb128 0x13
 5216 091e 5D1B0000 		.4byte	0x1b5d
 5217 0922 34070000 		.4byte	.LLST116
 5218 0926 2C070000 		.4byte	.LVUS116
 5219 092a 22       		.uleb128 0x22
 5220 092b 60000000 		.4byte	.LVL161
 5221 092f 0B1E0000 		.4byte	0x1e0b
 5222 0933 00       		.byte	0
 5223 0934 00       		.byte	0
 5224 0935 12       		.uleb128 0x12
 5225 0936 570B0000 		.4byte	0xb57
 5226 093a 6E000000 		.4byte	.LBI820
 5227 093e 00       		.byte	.LVU1002
 5228 093f 6E000000 		.4byte	.LBB820
 5229 0943 0C000000 		.4byte	.LBE820-.LBB820
 5230 0947 01       		.byte	0x1
 5231 0948 4102     		.2byte	0x241
 5232 094a 07       		.byte	0x7
 5233 094b 13       		.uleb128 0x13
 5234 094c 760B0000 		.4byte	0xb76
 5235 0950 6C070000 		.4byte	.LLST117
 5236 0954 68070000 		.4byte	.LVUS117
 5237 0958 13       		.uleb128 0x13
 5238 0959 690B0000 		.4byte	0xb69
 5239 095d 8C070000 		.4byte	.LLST118
 5240 0961 8A070000 		.4byte	.LVUS118
 5241 0965 00       		.byte	0
 5242 0966 00       		.byte	0
 5243 0967 00       		.byte	0
 5244 0968 17       		.uleb128 0x17
ARM GAS  /tmp/cc9meDp5.s 			page 93


 5245 0969 941B0000 		.4byte	0x1b94
 5246 096d 80000000 		.4byte	.LBI825
 5247 0971 03       		.byte	.LVU1019
 5248 0972 10080000 		.4byte	.Ldebug_ranges0+0x810
 5249 0976 01       		.byte	0x1
 5250 0977 A902     		.2byte	0x2a9
 5251 0979 07       		.byte	0x7
 5252 097a 17       		.uleb128 0x17
 5253 097b C41B0000 		.4byte	0x1bc4
 5254 097f 80000000 		.4byte	.LBI826
 5255 0983 05       		.byte	.LVU1021
 5256 0984 18080000 		.4byte	.Ldebug_ranges0+0x818
 5257 0988 02       		.byte	0x2
 5258 0989 4A02     		.2byte	0x24a
 5259 098b 03       		.byte	0x3
 5260 098c 18       		.uleb128 0x18
 5261 098d 18080000 		.4byte	.Ldebug_ranges0+0x818
 5262 0991 17       		.uleb128 0x17
 5263 0992 FB1B0000 		.4byte	0x1bfb
 5264 0996 80000000 		.4byte	.LBI828
 5265 099a 0C       		.byte	.LVU1028
 5266 099b 18080000 		.4byte	.Ldebug_ranges0+0x818
 5267 099f 05       		.byte	0x5
 5268 09a0 B201     		.2byte	0x1b2
 5269 09a2 03       		.byte	0x3
 5270 09a3 12       		.uleb128 0x12
 5271 09a4 0F1C0000 		.4byte	0x1c0f
 5272 09a8 80000000 		.4byte	.LBI829
 5273 09ac 0E       		.byte	.LVU1030
 5274 09ad 80000000 		.4byte	.LBB829
 5275 09b1 06000000 		.4byte	.LBE829-.LBB829
 5276 09b5 06       		.byte	0x6
 5277 09b6 4103     		.2byte	0x341
 5278 09b8 03       		.byte	0x3
 5279 09b9 13       		.uleb128 0x13
 5280 09ba 1D1C0000 		.4byte	0x1c1d
 5281 09be A1070000 		.4byte	.LLST119
 5282 09c2 9F070000 		.4byte	.LVUS119
 5283 09c6 00       		.byte	0
 5284 09c7 00       		.byte	0
 5285 09c8 00       		.byte	0
 5286 09c9 00       		.byte	0
 5287 09ca 00       		.byte	0
 5288 09cb 00       		.byte	0
 5289 09cc 27       		.uleb128 0x27
 5290 09cd E7030000 		.4byte	.LASF62
 5291 09d1 01       		.byte	0x1
 5292 09d2 7202     		.2byte	0x272
 5293 09d4 06       		.byte	0x6
 5294 09d5 01       		.byte	0x1
 5295 09d6 FE090000 		.4byte	0x9fe
 5296 09da 28       		.uleb128 0x28
 5297 09db 59040000 		.4byte	.LASF43
 5298 09df 01       		.byte	0x1
 5299 09e0 7202     		.2byte	0x272
 5300 09e2 31       		.byte	0x31
 5301 09e3 AD030000 		.4byte	0x3ad
ARM GAS  /tmp/cc9meDp5.s 			page 94


 5302 09e7 28       		.uleb128 0x28
 5303 09e8 E4040000 		.4byte	.LASF44
 5304 09ec 01       		.byte	0x1
 5305 09ed 7202     		.2byte	0x272
 5306 09ef 3E       		.byte	0x3e
 5307 09f0 2C000000 		.4byte	0x2c
 5308 09f4 1D       		.uleb128 0x1d
 5309 09f5 18030000 		.4byte	.LASF49
 5310 09f9 0E0A0000 		.4byte	0xa0e
 5311 09fd 00       		.byte	0
 5312 09fe 24       		.uleb128 0x24
 5313 09ff B0000000 		.4byte	0xb0
 5314 0a03 0E0A0000 		.4byte	0xa0e
 5315 0a07 25       		.uleb128 0x25
 5316 0a08 3D000000 		.4byte	0x3d
 5317 0a0c 12       		.byte	0x12
 5318 0a0d 00       		.byte	0
 5319 0a0e 07       		.uleb128 0x7
 5320 0a0f FE090000 		.4byte	0x9fe
 5321 0a13 0E       		.uleb128 0xe
 5322 0a14 BD050000 		.4byte	.LASF51
 5323 0a18 01       		.byte	0x1
 5324 0a19 6202     		.2byte	0x262
 5325 0a1b 06       		.byte	0x6
 5326 0a1c 00000000 		.4byte	.LFB416
 5327 0a20 34000000 		.4byte	.LFE416-.LFB416
 5328 0a24 01       		.uleb128 0x1
 5329 0a25 9C       		.byte	0x9c
 5330 0a26 570B0000 		.4byte	0xb57
 5331 0a2a 0F       		.uleb128 0xf
 5332 0a2b 59040000 		.4byte	.LASF43
 5333 0a2f 01       		.byte	0x1
 5334 0a30 6202     		.2byte	0x262
 5335 0a32 30       		.byte	0x30
 5336 0a33 AD030000 		.4byte	0x3ad
 5337 0a37 B9070000 		.4byte	.LLST98
 5338 0a3b B5070000 		.4byte	.LVUS98
 5339 0a3f 0F       		.uleb128 0xf
 5340 0a40 E4040000 		.4byte	.LASF44
 5341 0a44 01       		.byte	0x1
 5342 0a45 6202     		.2byte	0x262
 5343 0a47 3D       		.byte	0x3d
 5344 0a48 2C000000 		.4byte	0x2c
 5345 0a4c E2070000 		.4byte	.LLST99
 5346 0a50 DA070000 		.4byte	.LVUS99
 5347 0a54 16       		.uleb128 0x16
 5348 0a55 9E1B0000 		.4byte	0x1b9e
 5349 0a59 00000000 		.4byte	.LBI719
 5350 0a5d 02       		.byte	.LVU814
 5351 0a5e 98060000 		.4byte	.Ldebug_ranges0+0x698
 5352 0a62 01       		.byte	0x1
 5353 0a63 6402     		.2byte	0x264
 5354 0a65 03       		.byte	0x3
 5355 0a66 B10A0000 		.4byte	0xab1
 5356 0a6a 17       		.uleb128 0x17
 5357 0a6b F11B0000 		.4byte	0x1bf1
 5358 0a6f 00000000 		.4byte	.LBI720
ARM GAS  /tmp/cc9meDp5.s 			page 95


 5359 0a73 04       		.byte	.LVU816
 5360 0a74 A0060000 		.4byte	.Ldebug_ranges0+0x6a0
 5361 0a78 02       		.byte	0x2
 5362 0a79 3F02     		.2byte	0x23f
 5363 0a7b 03       		.byte	0x3
 5364 0a7c 17       		.uleb128 0x17
 5365 0a7d 051C0000 		.4byte	0x1c05
 5366 0a81 00000000 		.4byte	.LBI721
 5367 0a85 06       		.byte	.LVU818
 5368 0a86 A8060000 		.4byte	.Ldebug_ranges0+0x6a8
 5369 0a8a 05       		.byte	0x5
 5370 0a8b 9901     		.2byte	0x199
 5371 0a8d 03       		.byte	0x3
 5372 0a8e 17       		.uleb128 0x17
 5373 0a8f 0F1C0000 		.4byte	0x1c0f
 5374 0a93 00000000 		.4byte	.LBI722
 5375 0a97 08       		.byte	.LVU820
 5376 0a98 B0060000 		.4byte	.Ldebug_ranges0+0x6b0
 5377 0a9c 06       		.byte	0x6
 5378 0a9d 2E03     		.2byte	0x32e
 5379 0a9f 03       		.byte	0x3
 5380 0aa0 13       		.uleb128 0x13
 5381 0aa1 1D1C0000 		.4byte	0x1c1d
 5382 0aa5 1E080000 		.4byte	.LLST100
 5383 0aa9 1C080000 		.4byte	.LVUS100
 5384 0aad 00       		.byte	0
 5385 0aae 00       		.byte	0
 5386 0aaf 00       		.byte	0
 5387 0ab0 00       		.byte	0
 5388 0ab1 29       		.uleb128 0x29
 5389 0ab2 CC090000 		.4byte	0x9cc
 5390 0ab6 08000000 		.4byte	.LBI735
 5391 0aba 04       		.byte	.LVU828
 5392 0abb 08000000 		.4byte	.LBB735
 5393 0abf 24000000 		.4byte	.LBE735-.LBB735
 5394 0ac3 01       		.byte	0x1
 5395 0ac4 6502     		.2byte	0x265
 5396 0ac6 03       		.byte	0x3
 5397 0ac7 F30A0000 		.4byte	0xaf3
 5398 0acb 13       		.uleb128 0x13
 5399 0acc E7090000 		.4byte	0x9e7
 5400 0ad0 3B080000 		.4byte	.LLST101
 5401 0ad4 33080000 		.4byte	.LVUS101
 5402 0ad8 13       		.uleb128 0x13
 5403 0ad9 DA090000 		.4byte	0x9da
 5404 0add 79080000 		.4byte	.LLST102
 5405 0ae1 75080000 		.4byte	.LVUS102
 5406 0ae5 14       		.uleb128 0x14
 5407 0ae6 2C000000 		.4byte	.LVL140
 5408 0aea 15       		.uleb128 0x15
 5409 0aeb 01       		.uleb128 0x1
 5410 0aec 50       		.byte	0x50
 5411 0aed 03       		.uleb128 0x3
 5412 0aee F3       		.byte	0xf3
 5413 0aef 01       		.uleb128 0x1
 5414 0af0 50       		.byte	0x50
 5415 0af1 00       		.byte	0
ARM GAS  /tmp/cc9meDp5.s 			page 96


 5416 0af2 00       		.byte	0
 5417 0af3 17       		.uleb128 0x17
 5418 0af4 941B0000 		.4byte	0x1b94
 5419 0af8 2C000000 		.4byte	.LBI737
 5420 0afc 02       		.byte	.LVU860
 5421 0afd C8060000 		.4byte	.Ldebug_ranges0+0x6c8
 5422 0b01 01       		.byte	0x1
 5423 0b02 6602     		.2byte	0x266
 5424 0b04 03       		.byte	0x3
 5425 0b05 17       		.uleb128 0x17
 5426 0b06 C41B0000 		.4byte	0x1bc4
 5427 0b0a 2C000000 		.4byte	.LBI738
 5428 0b0e 04       		.byte	.LVU862
 5429 0b0f D0060000 		.4byte	.Ldebug_ranges0+0x6d0
 5430 0b13 02       		.byte	0x2
 5431 0b14 4A02     		.2byte	0x24a
 5432 0b16 03       		.byte	0x3
 5433 0b17 18       		.uleb128 0x18
 5434 0b18 D0060000 		.4byte	.Ldebug_ranges0+0x6d0
 5435 0b1c 17       		.uleb128 0x17
 5436 0b1d FB1B0000 		.4byte	0x1bfb
 5437 0b21 2C000000 		.4byte	.LBI740
 5438 0b25 0B       		.byte	.LVU869
 5439 0b26 D0060000 		.4byte	.Ldebug_ranges0+0x6d0
 5440 0b2a 05       		.byte	0x5
 5441 0b2b B201     		.2byte	0x1b2
 5442 0b2d 03       		.byte	0x3
 5443 0b2e 12       		.uleb128 0x12
 5444 0b2f 0F1C0000 		.4byte	0x1c0f
 5445 0b33 2C000000 		.4byte	.LBI741
 5446 0b37 0D       		.byte	.LVU871
 5447 0b38 2C000000 		.4byte	.LBB741
 5448 0b3c 06000000 		.4byte	.LBE741-.LBB741
 5449 0b40 06       		.byte	0x6
 5450 0b41 4103     		.2byte	0x341
 5451 0b43 03       		.byte	0x3
 5452 0b44 13       		.uleb128 0x13
 5453 0b45 1D1C0000 		.4byte	0x1c1d
 5454 0b49 9C080000 		.4byte	.LLST103
 5455 0b4d 9A080000 		.4byte	.LVUS103
 5456 0b51 00       		.byte	0
 5457 0b52 00       		.byte	0
 5458 0b53 00       		.byte	0
 5459 0b54 00       		.byte	0
 5460 0b55 00       		.byte	0
 5461 0b56 00       		.byte	0
 5462 0b57 2A       		.uleb128 0x2a
 5463 0b58 83010000 		.4byte	.LASF65
 5464 0b5c 01       		.byte	0x1
 5465 0b5d 4102     		.2byte	0x241
 5466 0b5f 07       		.byte	0x7
 5467 0b60 DE000000 		.4byte	0xde
 5468 0b64 01       		.byte	0x1
 5469 0b65 9C0B0000 		.4byte	0xb9c
 5470 0b69 28       		.uleb128 0x28
 5471 0b6a 59040000 		.4byte	.LASF43
 5472 0b6e 01       		.byte	0x1
ARM GAS  /tmp/cc9meDp5.s 			page 97


 5473 0b6f 4102     		.2byte	0x241
 5474 0b71 39       		.byte	0x39
 5475 0b72 AD030000 		.4byte	0x3ad
 5476 0b76 28       		.uleb128 0x28
 5477 0b77 A2050000 		.4byte	.LASF47
 5478 0b7b 01       		.byte	0x1
 5479 0b7c 4202     		.2byte	0x242
 5480 0b7e 2F       		.byte	0x2f
 5481 0b7f EA000000 		.4byte	0xea
 5482 0b83 1D       		.uleb128 0x1d
 5483 0b84 18030000 		.4byte	.LASF49
 5484 0b88 AC0B0000 		.4byte	0xbac
 5485 0b8c 2B       		.uleb128 0x2b
 5486 0b8d 2C       		.uleb128 0x2c
 5487 0b8e 6D736700 		.ascii	"msg\000"
 5488 0b92 01       		.byte	0x1
 5489 0b93 4A02     		.2byte	0x24a
 5490 0b95 0B       		.byte	0xb
 5491 0b96 DE000000 		.4byte	0xde
 5492 0b9a 00       		.byte	0
 5493 0b9b 00       		.byte	0
 5494 0b9c 24       		.uleb128 0x24
 5495 0b9d B0000000 		.4byte	0xb0
 5496 0ba1 AC0B0000 		.4byte	0xbac
 5497 0ba5 25       		.uleb128 0x25
 5498 0ba6 3D000000 		.4byte	0x3d
 5499 0baa 19       		.byte	0x19
 5500 0bab 00       		.byte	0
 5501 0bac 07       		.uleb128 0x7
 5502 0bad 9C0B0000 		.4byte	0xb9c
 5503 0bb1 19       		.uleb128 0x19
 5504 0bb2 D0010000 		.4byte	.LASF52
 5505 0bb6 01       		.byte	0x1
 5506 0bb7 2102     		.2byte	0x221
 5507 0bb9 07       		.byte	0x7
 5508 0bba DE000000 		.4byte	0xde
 5509 0bbe 00000000 		.4byte	.LFB414
 5510 0bc2 46000000 		.4byte	.LFE414-.LFB414
 5511 0bc6 01       		.uleb128 0x1
 5512 0bc7 9C       		.byte	0x9c
 5513 0bc8 810D0000 		.4byte	0xd81
 5514 0bcc 0F       		.uleb128 0xf
 5515 0bcd 59040000 		.4byte	.LASF43
 5516 0bd1 01       		.byte	0x1
 5517 0bd2 2102     		.2byte	0x221
 5518 0bd4 38       		.byte	0x38
 5519 0bd5 AD030000 		.4byte	0x3ad
 5520 0bd9 BC080000 		.4byte	.LLST79
 5521 0bdd B0080000 		.4byte	.LVUS79
 5522 0be1 0F       		.uleb128 0xf
 5523 0be2 A2050000 		.4byte	.LASF47
 5524 0be6 01       		.byte	0x1
 5525 0be7 2202     		.2byte	0x222
 5526 0be9 2E       		.byte	0x2e
 5527 0bea EA000000 		.4byte	0xea
 5528 0bee 10090000 		.4byte	.LLST80
 5529 0bf2 06090000 		.4byte	.LVUS80
ARM GAS  /tmp/cc9meDp5.s 			page 98


 5530 0bf6 1C       		.uleb128 0x1c
 5531 0bf7 6D736700 		.ascii	"msg\000"
 5532 0bfb 01       		.byte	0x1
 5533 0bfc 2302     		.2byte	0x223
 5534 0bfe 09       		.byte	0x9
 5535 0bff DE000000 		.4byte	0xde
 5536 0c03 53090000 		.4byte	.LLST81
 5537 0c07 4F090000 		.4byte	.LVUS81
 5538 0c0b 16       		.uleb128 0x16
 5539 0c0c 9E1B0000 		.4byte	0x1b9e
 5540 0c10 04000000 		.4byte	.LBI631
 5541 0c14 02       		.byte	.LVU691
 5542 0c15 58050000 		.4byte	.Ldebug_ranges0+0x558
 5543 0c19 01       		.byte	0x1
 5544 0c1a 2502     		.2byte	0x225
 5545 0c1c 03       		.byte	0x3
 5546 0c1d 680C0000 		.4byte	0xc68
 5547 0c21 17       		.uleb128 0x17
 5548 0c22 F11B0000 		.4byte	0x1bf1
 5549 0c26 04000000 		.4byte	.LBI632
 5550 0c2a 04       		.byte	.LVU693
 5551 0c2b 60050000 		.4byte	.Ldebug_ranges0+0x560
 5552 0c2f 02       		.byte	0x2
 5553 0c30 3F02     		.2byte	0x23f
 5554 0c32 03       		.byte	0x3
 5555 0c33 17       		.uleb128 0x17
 5556 0c34 051C0000 		.4byte	0x1c05
 5557 0c38 04000000 		.4byte	.LBI633
 5558 0c3c 06       		.byte	.LVU695
 5559 0c3d 68050000 		.4byte	.Ldebug_ranges0+0x568
 5560 0c41 05       		.byte	0x5
 5561 0c42 9901     		.2byte	0x199
 5562 0c44 03       		.byte	0x3
 5563 0c45 17       		.uleb128 0x17
 5564 0c46 0F1C0000 		.4byte	0x1c0f
 5565 0c4a 04000000 		.4byte	.LBI634
 5566 0c4e 08       		.byte	.LVU697
 5567 0c4f 70050000 		.4byte	.Ldebug_ranges0+0x570
 5568 0c53 06       		.byte	0x6
 5569 0c54 2E03     		.2byte	0x32e
 5570 0c56 03       		.byte	0x3
 5571 0c57 13       		.uleb128 0x13
 5572 0c58 1D1C0000 		.4byte	0x1c1d
 5573 0c5c 73090000 		.4byte	.LLST82
 5574 0c60 71090000 		.4byte	.LVUS82
 5575 0c64 00       		.byte	0
 5576 0c65 00       		.byte	0
 5577 0c66 00       		.byte	0
 5578 0c67 00       		.byte	0
 5579 0c68 16       		.uleb128 0x16
 5580 0c69 570B0000 		.4byte	0xb57
 5581 0c6d 0C000000 		.4byte	.LBI647
 5582 0c71 04       		.byte	.LVU705
 5583 0c72 88050000 		.4byte	.Ldebug_ranges0+0x588
 5584 0c76 01       		.byte	0x1
 5585 0c77 2602     		.2byte	0x226
 5586 0c79 09       		.byte	0x9
ARM GAS  /tmp/cc9meDp5.s 			page 99


 5587 0c7a 210D0000 		.4byte	0xd21
 5588 0c7e 13       		.uleb128 0x13
 5589 0c7f 760B0000 		.4byte	0xb76
 5590 0c83 92090000 		.4byte	.LLST83
 5591 0c87 88090000 		.4byte	.LVUS83
 5592 0c8b 13       		.uleb128 0x13
 5593 0c8c 690B0000 		.4byte	0xb69
 5594 0c90 D9090000 		.4byte	.LLST84
 5595 0c94 D1090000 		.4byte	.LVUS84
 5596 0c98 18       		.uleb128 0x18
 5597 0c99 88050000 		.4byte	.Ldebug_ranges0+0x588
 5598 0c9d 20       		.uleb128 0x20
 5599 0c9e 8C0B0000 		.4byte	0xb8c
 5600 0ca2 A0050000 		.4byte	.Ldebug_ranges0+0x5a0
 5601 0ca6 EE0C0000 		.4byte	0xcee
 5602 0caa 21       		.uleb128 0x21
 5603 0cab 8D0B0000 		.4byte	0xb8d
 5604 0caf 0F0A0000 		.4byte	.LLST85
 5605 0cb3 0D0A0000 		.4byte	.LVUS85
 5606 0cb7 17       		.uleb128 0x17
 5607 0cb8 4B1B0000 		.4byte	0x1b4b
 5608 0cbc 1A000000 		.4byte	.LBI650
 5609 0cc0 02       		.byte	.LVU717
 5610 0cc1 C0050000 		.4byte	.Ldebug_ranges0+0x5c0
 5611 0cc5 01       		.byte	0x1
 5612 0cc6 4A02     		.2byte	0x24a
 5613 0cc8 11       		.byte	0x11
 5614 0cc9 13       		.uleb128 0x13
 5615 0cca 6A1B0000 		.4byte	0x1b6a
 5616 0cce 2E0A0000 		.4byte	.LLST86
 5617 0cd2 220A0000 		.4byte	.LVUS86
 5618 0cd6 13       		.uleb128 0x13
 5619 0cd7 5D1B0000 		.4byte	0x1b5d
 5620 0cdb 840A0000 		.4byte	.LLST87
 5621 0cdf 780A0000 		.4byte	.LVUS87
 5622 0ce3 22       		.uleb128 0x22
 5623 0ce4 16000000 		.4byte	.LVL115
 5624 0ce8 0B1E0000 		.4byte	0x1e0b
 5625 0cec 00       		.byte	0
 5626 0ced 00       		.byte	0
 5627 0cee 12       		.uleb128 0x12
 5628 0cef 570B0000 		.4byte	0xb57
 5629 0cf3 24000000 		.4byte	.LBI657
 5630 0cf7 00       		.byte	.LVU723
 5631 0cf8 24000000 		.4byte	.LBB657
 5632 0cfc 0E000000 		.4byte	.LBE657-.LBB657
 5633 0d00 01       		.byte	0x1
 5634 0d01 4102     		.2byte	0x241
 5635 0d03 07       		.byte	0x7
 5636 0d04 13       		.uleb128 0x13
 5637 0d05 760B0000 		.4byte	0xb76
 5638 0d09 D20A0000 		.4byte	.LLST88
 5639 0d0d CE0A0000 		.4byte	.LVUS88
 5640 0d11 13       		.uleb128 0x13
 5641 0d12 690B0000 		.4byte	0xb69
 5642 0d16 F20A0000 		.4byte	.LLST89
 5643 0d1a F00A0000 		.4byte	.LVUS89
ARM GAS  /tmp/cc9meDp5.s 			page 100


 5644 0d1e 00       		.byte	0
 5645 0d1f 00       		.byte	0
 5646 0d20 00       		.byte	0
 5647 0d21 17       		.uleb128 0x17
 5648 0d22 941B0000 		.4byte	0x1b94
 5649 0d26 32000000 		.4byte	.LBI661
 5650 0d2a 02       		.byte	.LVU737
 5651 0d2b E0050000 		.4byte	.Ldebug_ranges0+0x5e0
 5652 0d2f 01       		.byte	0x1
 5653 0d30 2702     		.2byte	0x227
 5654 0d32 03       		.byte	0x3
 5655 0d33 17       		.uleb128 0x17
 5656 0d34 C41B0000 		.4byte	0x1bc4
 5657 0d38 32000000 		.4byte	.LBI662
 5658 0d3c 04       		.byte	.LVU739
 5659 0d3d 18060000 		.4byte	.Ldebug_ranges0+0x618
 5660 0d41 02       		.byte	0x2
 5661 0d42 4A02     		.2byte	0x24a
 5662 0d44 03       		.byte	0x3
 5663 0d45 18       		.uleb128 0x18
 5664 0d46 18060000 		.4byte	.Ldebug_ranges0+0x618
 5665 0d4a 17       		.uleb128 0x17
 5666 0d4b FB1B0000 		.4byte	0x1bfb
 5667 0d4f 32000000 		.4byte	.LBI664
 5668 0d53 0B       		.byte	.LVU746
 5669 0d54 18060000 		.4byte	.Ldebug_ranges0+0x618
 5670 0d58 05       		.byte	0x5
 5671 0d59 B201     		.2byte	0x1b2
 5672 0d5b 03       		.byte	0x3
 5673 0d5c 17       		.uleb128 0x17
 5674 0d5d 0F1C0000 		.4byte	0x1c0f
 5675 0d61 32000000 		.4byte	.LBI665
 5676 0d65 0D       		.byte	.LVU748
 5677 0d66 40060000 		.4byte	.Ldebug_ranges0+0x640
 5678 0d6a 06       		.byte	0x6
 5679 0d6b 4103     		.2byte	0x341
 5680 0d6d 03       		.byte	0x3
 5681 0d6e 13       		.uleb128 0x13
 5682 0d6f 1D1C0000 		.4byte	0x1c1d
 5683 0d73 090B0000 		.4byte	.LLST90
 5684 0d77 050B0000 		.4byte	.LVUS90
 5685 0d7b 00       		.byte	0
 5686 0d7c 00       		.byte	0
 5687 0d7d 00       		.byte	0
 5688 0d7e 00       		.byte	0
 5689 0d7f 00       		.byte	0
 5690 0d80 00       		.byte	0
 5691 0d81 0E       		.uleb128 0xe
 5692 0d82 20050000 		.4byte	.LASF53
 5693 0d86 01       		.byte	0x1
 5694 0d87 FC01     		.2byte	0x1fc
 5695 0d89 06       		.byte	0x6
 5696 0d8a 00000000 		.4byte	.LFB413
 5697 0d8e 24000000 		.4byte	.LFE413-.LFB413
 5698 0d92 01       		.uleb128 0x1
 5699 0d93 9C       		.byte	0x9c
 5700 0d94 F70D0000 		.4byte	0xdf7
ARM GAS  /tmp/cc9meDp5.s 			page 101


 5701 0d98 0F       		.uleb128 0xf
 5702 0d99 59040000 		.4byte	.LASF43
 5703 0d9d 01       		.byte	0x1
 5704 0d9e FC01     		.2byte	0x1fc
 5705 0da0 35       		.byte	0x35
 5706 0da1 AD030000 		.4byte	0x3ad
 5707 0da5 2D0B0000 		.4byte	.LLST77
 5708 0da9 290B0000 		.4byte	.LVUS77
 5709 0dad 1D       		.uleb128 0x1d
 5710 0dae 18030000 		.4byte	.LASF49
 5711 0db2 070E0000 		.4byte	0xe07
 5712 0db6 12       		.uleb128 0x12
 5713 0db7 221B0000 		.4byte	0x1b22
 5714 0dbb 1E000000 		.4byte	.LBI608
 5715 0dbf 01       		.byte	.LVU683
 5716 0dc0 1E000000 		.4byte	.LBB608
 5717 0dc4 06000000 		.4byte	.LBE608-.LBB608
 5718 0dc8 01       		.byte	0x1
 5719 0dc9 0902     		.2byte	0x209
 5720 0dcb 03       		.byte	0x3
 5721 0dcc 2D       		.uleb128 0x2d
 5722 0dcd 3D1B0000 		.4byte	0x1b3d
 5723 0dd1 00       		.byte	0
 5724 0dd2 13       		.uleb128 0x13
 5725 0dd3 301B0000 		.4byte	0x1b30
 5726 0dd7 520B0000 		.4byte	.LLST78
 5727 0ddb 4E0B0000 		.4byte	.LVUS78
 5728 0ddf 2E       		.uleb128 0x2e
 5729 0de0 24000000 		.4byte	.LVL110
 5730 0de4 231E0000 		.4byte	0x1e23
 5731 0de8 15       		.uleb128 0x15
 5732 0de9 01       		.uleb128 0x1
 5733 0dea 50       		.byte	0x50
 5734 0deb 03       		.uleb128 0x3
 5735 0dec F3       		.byte	0xf3
 5736 0ded 01       		.uleb128 0x1
 5737 0dee 50       		.byte	0x50
 5738 0def 15       		.uleb128 0x15
 5739 0df0 01       		.uleb128 0x1
 5740 0df1 51       		.byte	0x51
 5741 0df2 01       		.uleb128 0x1
 5742 0df3 30       		.byte	0x30
 5743 0df4 00       		.byte	0
 5744 0df5 00       		.byte	0
 5745 0df6 00       		.byte	0
 5746 0df7 24       		.uleb128 0x24
 5747 0df8 B0000000 		.4byte	0xb0
 5748 0dfc 070E0000 		.4byte	0xe07
 5749 0e00 25       		.uleb128 0x25
 5750 0e01 3D000000 		.4byte	0x3d
 5751 0e05 16       		.byte	0x16
 5752 0e06 00       		.byte	0
 5753 0e07 07       		.uleb128 0x7
 5754 0e08 F70D0000 		.4byte	0xdf7
 5755 0e0c 19       		.uleb128 0x19
 5756 0e0d 1A000000 		.4byte	.LASF54
 5757 0e11 01       		.byte	0x1
ARM GAS  /tmp/cc9meDp5.s 			page 102


 5758 0e12 E601     		.2byte	0x1e6
 5759 0e14 0A       		.byte	0xa
 5760 0e15 5E010000 		.4byte	0x15e
 5761 0e19 00000000 		.4byte	.LFB412
 5762 0e1d 1C000000 		.4byte	.LFE412-.LFB412
 5763 0e21 01       		.uleb128 0x1
 5764 0e22 9C       		.byte	0x9c
 5765 0e23 4C0E0000 		.4byte	0xe4c
 5766 0e27 0F       		.uleb128 0xf
 5767 0e28 59040000 		.4byte	.LASF43
 5768 0e2c 01       		.byte	0x1
 5769 0e2d E601     		.2byte	0x1e6
 5770 0e2f 34       		.byte	0x34
 5771 0e30 AD030000 		.4byte	0x3ad
 5772 0e34 7D0B0000 		.4byte	.LLST76
 5773 0e38 730B0000 		.4byte	.LVUS76
 5774 0e3c 2F       		.uleb128 0x2f
 5775 0e3d CA010000 		.4byte	.LASF57
 5776 0e41 01       		.byte	0x1
 5777 0e42 E701     		.2byte	0x1e7
 5778 0e44 24       		.byte	0x24
 5779 0e45 4C0E0000 		.4byte	0xe4c
 5780 0e49 01       		.uleb128 0x1
 5781 0e4a 51       		.byte	0x51
 5782 0e4b 00       		.byte	0
 5783 0e4c 0A       		.uleb128 0xa
 5784 0e4d 04       		.byte	0x4
 5785 0e4e 2C000000 		.4byte	0x2c
 5786 0e52 0E       		.uleb128 0xe
 5787 0e53 03050000 		.4byte	.LASF55
 5788 0e57 01       		.byte	0x1
 5789 0e58 CF01     		.2byte	0x1cf
 5790 0e5a 06       		.byte	0x6
 5791 0e5b 00000000 		.4byte	.LFB411
 5792 0e5f 1A000000 		.4byte	.LFE411-.LFB411
 5793 0e63 01       		.uleb128 0x1
 5794 0e64 9C       		.byte	0x9c
 5795 0e65 B80E0000 		.4byte	0xeb8
 5796 0e69 0F       		.uleb128 0xf
 5797 0e6a 59040000 		.4byte	.LASF43
 5798 0e6e 01       		.byte	0x1
 5799 0e6f CF01     		.2byte	0x1cf
 5800 0e71 28       		.byte	0x28
 5801 0e72 AD030000 		.4byte	0x3ad
 5802 0e76 C60B0000 		.4byte	.LLST75
 5803 0e7a C20B0000 		.4byte	.LVUS75
 5804 0e7e 12       		.uleb128 0x12
 5805 0e7f F31A0000 		.4byte	0x1af3
 5806 0e83 12000000 		.4byte	.LBI606
 5807 0e87 03       		.byte	.LVU646
 5808 0e88 12000000 		.4byte	.LBB606
 5809 0e8c 08000000 		.4byte	.LBE606-.LBB606
 5810 0e90 01       		.byte	0x1
 5811 0e91 D801     		.2byte	0x1d8
 5812 0e93 03       		.byte	0x3
 5813 0e94 30       		.uleb128 0x30
 5814 0e95 0E1B0000 		.4byte	0x1b0e
ARM GAS  /tmp/cc9meDp5.s 			page 103


 5815 0e99 7E       		.sleb128 -2
 5816 0e9a 1F       		.uleb128 0x1f
 5817 0e9b 011B0000 		.4byte	0x1b01
 5818 0e9f 2E       		.uleb128 0x2e
 5819 0ea0 1A000000 		.4byte	.LVL102
 5820 0ea4 301E0000 		.4byte	0x1e30
 5821 0ea8 15       		.uleb128 0x15
 5822 0ea9 01       		.uleb128 0x1
 5823 0eaa 50       		.byte	0x50
 5824 0eab 03       		.uleb128 0x3
 5825 0eac F3       		.byte	0xf3
 5826 0ead 01       		.uleb128 0x1
 5827 0eae 50       		.byte	0x50
 5828 0eaf 15       		.uleb128 0x15
 5829 0eb0 01       		.uleb128 0x1
 5830 0eb1 51       		.byte	0x51
 5831 0eb2 02       		.uleb128 0x2
 5832 0eb3 09       		.byte	0x9
 5833 0eb4 FE       		.byte	0xfe
 5834 0eb5 00       		.byte	0
 5835 0eb6 00       		.byte	0
 5836 0eb7 00       		.byte	0
 5837 0eb8 0E       		.uleb128 0xe
 5838 0eb9 9D010000 		.4byte	.LASF56
 5839 0ebd 01       		.byte	0x1
 5840 0ebe B001     		.2byte	0x1b0
 5841 0ec0 06       		.byte	0x6
 5842 0ec1 00000000 		.4byte	.LFB410
 5843 0ec5 30000000 		.4byte	.LFE410-.LFB410
 5844 0ec9 01       		.uleb128 0x1
 5845 0eca 9C       		.byte	0x9c
 5846 0ecb C30F0000 		.4byte	0xfc3
 5847 0ecf 2F       		.uleb128 0x2f
 5848 0ed0 59040000 		.4byte	.LASF43
 5849 0ed4 01       		.byte	0x1
 5850 0ed5 B001     		.2byte	0x1b0
 5851 0ed7 2C       		.byte	0x2c
 5852 0ed8 AD030000 		.4byte	0x3ad
 5853 0edc 01       		.uleb128 0x1
 5854 0edd 50       		.byte	0x50
 5855 0ede 0F       		.uleb128 0xf
 5856 0edf FA030000 		.4byte	.LASF31
 5857 0ee3 01       		.byte	0x1
 5858 0ee4 B001     		.2byte	0x1b0
 5859 0ee6 37       		.byte	0x37
 5860 0ee7 57010000 		.4byte	0x157
 5861 0eeb EB0B0000 		.4byte	.LLST66
 5862 0eef E70B0000 		.4byte	.LVUS66
 5863 0ef3 1B       		.uleb128 0x1b
 5864 0ef4 627000   		.ascii	"bp\000"
 5865 0ef7 01       		.byte	0x1
 5866 0ef8 B001     		.2byte	0x1b0
 5867 0efa 4B       		.byte	0x4b
 5868 0efb 5E010000 		.4byte	0x15e
 5869 0eff 0E0C0000 		.4byte	.LLST67
 5870 0f03 0A0C0000 		.4byte	.LVUS67
 5871 0f07 0F       		.uleb128 0xf
ARM GAS  /tmp/cc9meDp5.s 			page 104


 5872 0f08 E4040000 		.4byte	.LASF44
 5873 0f0c 01       		.byte	0x1
 5874 0f0d B101     		.2byte	0x1b1
 5875 0f0f 1B       		.byte	0x1b
 5876 0f10 2C000000 		.4byte	0x2c
 5877 0f14 330C0000 		.4byte	.LLST68
 5878 0f18 2D0C0000 		.4byte	.LVUS68
 5879 0f1c 1B       		.uleb128 0x1b
 5880 0f1d 6E00     		.ascii	"n\000"
 5881 0f1f 01       		.byte	0x1
 5882 0f20 B101     		.2byte	0x1b1
 5883 0f22 28       		.byte	0x28
 5884 0f23 2C000000 		.4byte	0x2c
 5885 0f27 670C0000 		.4byte	.LLST69
 5886 0f2b 630C0000 		.4byte	.LVUS69
 5887 0f2f 0F       		.uleb128 0xf
 5888 0f30 F3010000 		.4byte	.LASF58
 5889 0f34 01       		.byte	0x1
 5890 0f35 B101     		.2byte	0x1b1
 5891 0f37 36       		.byte	0x36
 5892 0f38 2C020000 		.4byte	0x22c
 5893 0f3c 8B0C0000 		.4byte	.LLST70
 5894 0f40 870C0000 		.4byte	.LVUS70
 5895 0f44 0F       		.uleb128 0xf
 5896 0f45 2E010000 		.4byte	.LASF39
 5897 0f49 01       		.byte	0x1
 5898 0f4a B101     		.2byte	0x1b1
 5899 0f4c 42       		.byte	0x42
 5900 0f4d A7000000 		.4byte	0xa7
 5901 0f51 AF0C0000 		.4byte	.LLST71
 5902 0f55 AB0C0000 		.4byte	.LVUS71
 5903 0f59 1D       		.uleb128 0x1d
 5904 0f5a 18030000 		.4byte	.LASF49
 5905 0f5e D30F0000 		.4byte	0xfd3
 5906 0f62 17       		.uleb128 0x17
 5907 0f63 781B0000 		.4byte	0x1b78
 5908 0f67 04000000 		.4byte	.LBI595
 5909 0f6b 00       		.byte	.LVU605
 5910 0f6c 20050000 		.4byte	.Ldebug_ranges0+0x520
 5911 0f70 01       		.byte	0x1
 5912 0f71 B501     		.2byte	0x1b5
 5913 0f73 03       		.byte	0x3
 5914 0f74 13       		.uleb128 0x13
 5915 0f75 861B0000 		.4byte	0x1b86
 5916 0f79 D10C0000 		.4byte	.LLST72
 5917 0f7d CF0C0000 		.4byte	.LVUS72
 5918 0f81 17       		.uleb128 0x17
 5919 0f82 A81B0000 		.4byte	0x1ba8
 5920 0f86 04000000 		.4byte	.LBI596
 5921 0f8a 02       		.byte	.LVU607
 5922 0f8b 28050000 		.4byte	.Ldebug_ranges0+0x528
 5923 0f8f 02       		.byte	0x2
 5924 0f90 6203     		.2byte	0x362
 5925 0f92 03       		.byte	0x3
 5926 0f93 13       		.uleb128 0x13
 5927 0f94 B61B0000 		.4byte	0x1bb6
 5928 0f98 E60C0000 		.4byte	.LLST73
ARM GAS  /tmp/cc9meDp5.s 			page 105


 5929 0f9c E40C0000 		.4byte	.LVUS73
 5930 0fa0 17       		.uleb128 0x17
 5931 0fa1 2B1C0000 		.4byte	0x1c2b
 5932 0fa5 04000000 		.4byte	.LBI598
 5933 0fa9 04       		.byte	.LVU609
 5934 0faa 40050000 		.4byte	.Ldebug_ranges0+0x540
 5935 0fae 03       		.byte	0x3
 5936 0faf CF01     		.2byte	0x1cf
 5937 0fb1 03       		.byte	0x3
 5938 0fb2 13       		.uleb128 0x13
 5939 0fb3 381C0000 		.4byte	0x1c38
 5940 0fb7 FB0C0000 		.4byte	.LLST74
 5941 0fbb F90C0000 		.4byte	.LVUS74
 5942 0fbf 00       		.byte	0
 5943 0fc0 00       		.byte	0
 5944 0fc1 00       		.byte	0
 5945 0fc2 00       		.byte	0
 5946 0fc3 24       		.uleb128 0x24
 5947 0fc4 B0000000 		.4byte	0xb0
 5948 0fc8 D30F0000 		.4byte	0xfd3
 5949 0fcc 25       		.uleb128 0x25
 5950 0fcd 3D000000 		.4byte	0x3d
 5951 0fd1 0D       		.byte	0xd
 5952 0fd2 00       		.byte	0
 5953 0fd3 07       		.uleb128 0x7
 5954 0fd4 C30F0000 		.4byte	0xfc3
 5955 0fd8 19       		.uleb128 0x19
 5956 0fd9 79050000 		.4byte	.LASF59
 5957 0fdd 01       		.byte	0x1
 5958 0fde 6601     		.2byte	0x166
 5959 0fe0 08       		.byte	0x8
 5960 0fe1 2C000000 		.4byte	0x2c
 5961 0fe5 00000000 		.4byte	.LFB409
 5962 0fe9 10010000 		.4byte	.LFE409-.LFB409
 5963 0fed 01       		.uleb128 0x1
 5964 0fee 9C       		.byte	0x9c
 5965 0fef 07130000 		.4byte	0x1307
 5966 0ff3 0F       		.uleb128 0xf
 5967 0ff4 88000000 		.4byte	.LASF60
 5968 0ff8 01       		.byte	0x1
 5969 0ff9 6601     		.2byte	0x166
 5970 0ffb 2E       		.byte	0x2e
 5971 0ffc 07130000 		.4byte	0x1307
 5972 1000 1A0D0000 		.4byte	.LLST50
 5973 1004 0E0D0000 		.4byte	.LVUS50
 5974 1008 1B       		.uleb128 0x1b
 5975 1009 627000   		.ascii	"bp\000"
 5976 100c 01       		.byte	0x1
 5977 100d 6601     		.2byte	0x166
 5978 100f 3D       		.byte	0x3d
 5979 1010 5E010000 		.4byte	0x15e
 5980 1014 680D0000 		.4byte	.LLST51
 5981 1018 640D0000 		.4byte	.LVUS51
 5982 101c 1B       		.uleb128 0x1b
 5983 101d 6E00     		.ascii	"n\000"
 5984 101f 01       		.byte	0x1
 5985 1020 6701     		.2byte	0x167
ARM GAS  /tmp/cc9meDp5.s 			page 106


 5986 1022 1E       		.byte	0x1e
 5987 1023 2C000000 		.4byte	0x2c
 5988 1027 8A0D0000 		.4byte	.LLST52
 5989 102b 860D0000 		.4byte	.LVUS52
 5990 102f 0F       		.uleb128 0xf
 5991 1030 A2050000 		.4byte	.LASF47
 5992 1034 01       		.byte	0x1
 5993 1035 6701     		.2byte	0x167
 5994 1037 2F       		.byte	0x2f
 5995 1038 EA000000 		.4byte	0xea
 5996 103c B40D0000 		.4byte	.LLST53
 5997 1040 A80D0000 		.4byte	.LVUS53
 5998 1044 1C       		.uleb128 0x1c
 5999 1045 7200     		.ascii	"r\000"
 6000 1047 01       		.byte	0x1
 6001 1048 6801     		.2byte	0x168
 6002 104a 0A       		.byte	0xa
 6003 104b 2C000000 		.4byte	0x2c
 6004 104f 020E0000 		.4byte	.LLST54
 6005 1053 FE0D0000 		.4byte	.LVUS54
 6006 1057 1D       		.uleb128 0x1d
 6007 1058 18030000 		.4byte	.LASF49
 6008 105c 1D130000 		.4byte	0x131d
 6009 1060 10       		.uleb128 0x10
 6010 1061 D0030000 		.4byte	.Ldebug_ranges0+0x3d0
 6011 1065 AD120000 		.4byte	0x12ad
 6012 1069 11       		.uleb128 0x11
 6013 106a E4040000 		.4byte	.LASF44
 6014 106e 01       		.byte	0x1
 6015 106f 6F01     		.2byte	0x16f
 6016 1071 0C       		.byte	0xc
 6017 1072 2C000000 		.4byte	0x2c
 6018 1076 270E0000 		.4byte	.LLST56
 6019 107a 210E0000 		.4byte	.LVUS56
 6020 107e 10       		.uleb128 0x10
 6021 107f A0040000 		.4byte	.Ldebug_ranges0+0x4a0
 6022 1083 98110000 		.4byte	0x1198
 6023 1087 1C       		.uleb128 0x1c
 6024 1088 6D736700 		.ascii	"msg\000"
 6025 108c 01       		.byte	0x1
 6026 108d 7301     		.2byte	0x173
 6027 108f 0D       		.byte	0xd
 6028 1090 DE000000 		.4byte	0xde
 6029 1094 520E0000 		.4byte	.LLST60
 6030 1098 500E0000 		.4byte	.LVUS60
 6031 109c 1E       		.uleb128 0x1e
 6032 109d BB160000 		.4byte	0x16bb
 6033 10a1 84000000 		.4byte	.LBB560
 6034 10a5 2A000000 		.4byte	.LBE560-.LBB560
 6035 10a9 01       		.byte	0x1
 6036 10aa 7601     		.2byte	0x176
 6037 10ac 0D       		.byte	0xd
 6038 10ad 34110000 		.4byte	0x1134
 6039 10b1 1F       		.uleb128 0x1f
 6040 10b2 D8160000 		.4byte	0x16d8
 6041 10b6 1F       		.uleb128 0x1f
 6042 10b7 CC160000 		.4byte	0x16cc
ARM GAS  /tmp/cc9meDp5.s 			page 107


 6043 10bb 20       		.uleb128 0x20
 6044 10bc ED160000 		.4byte	0x16ed
 6045 10c0 C8040000 		.4byte	.Ldebug_ranges0+0x4c8
 6046 10c4 0B110000 		.4byte	0x110b
 6047 10c8 21       		.uleb128 0x21
 6048 10c9 EE160000 		.4byte	0x16ee
 6049 10cd 680E0000 		.4byte	.LLST61
 6050 10d1 660E0000 		.4byte	.LVUS61
 6051 10d5 31       		.uleb128 0x31
 6052 10d6 4B1B0000 		.4byte	0x1b4b
 6053 10da 94000000 		.4byte	.LBI563
 6054 10de 02       		.byte	.LVU520
 6055 10df E0040000 		.4byte	.Ldebug_ranges0+0x4e0
 6056 10e3 01       		.byte	0x1
 6057 10e4 E7       		.byte	0xe7
 6058 10e5 11       		.byte	0x11
 6059 10e6 13       		.uleb128 0x13
 6060 10e7 6A1B0000 		.4byte	0x1b6a
 6061 10eb 850E0000 		.4byte	.LLST62
 6062 10ef 7B0E0000 		.4byte	.LVUS62
 6063 10f3 13       		.uleb128 0x13
 6064 10f4 5D1B0000 		.4byte	0x1b5d
 6065 10f8 CC0E0000 		.4byte	.LLST63
 6066 10fc C40E0000 		.4byte	.LVUS63
 6067 1100 22       		.uleb128 0x22
 6068 1101 90000000 		.4byte	.LVL80
 6069 1105 0B1E0000 		.4byte	0x1e0b
 6070 1109 00       		.byte	0
 6071 110a 00       		.byte	0
 6072 110b 32       		.uleb128 0x32
 6073 110c BB160000 		.4byte	0x16bb
 6074 1110 A0000000 		.4byte	.LBI570
 6075 1114 00       		.byte	.LVU526
 6076 1115 A0000000 		.4byte	.LBB570
 6077 1119 0E000000 		.4byte	.LBE570-.LBB570
 6078 111d 01       		.byte	0x1
 6079 111e DE       		.byte	0xde
 6080 111f 09       		.byte	0x9
 6081 1120 1F       		.uleb128 0x1f
 6082 1121 D8160000 		.4byte	0x16d8
 6083 1125 13       		.uleb128 0x13
 6084 1126 CC160000 		.4byte	0x16cc
 6085 112a 020F0000 		.4byte	.LLST64
 6086 112e 000F0000 		.4byte	.LVUS64
 6087 1132 00       		.byte	0
 6088 1133 00       		.byte	0
 6089 1134 17       		.uleb128 0x17
 6090 1135 941B0000 		.4byte	0x1b94
 6091 1139 04010000 		.4byte	.LBI572
 6092 113d 03       		.byte	.LVU580
 6093 113e 00050000 		.4byte	.Ldebug_ranges0+0x500
 6094 1142 01       		.byte	0x1
 6095 1143 7A01     		.2byte	0x17a
 6096 1145 09       		.byte	0x9
 6097 1146 17       		.uleb128 0x17
 6098 1147 C41B0000 		.4byte	0x1bc4
 6099 114b 04010000 		.4byte	.LBI573
ARM GAS  /tmp/cc9meDp5.s 			page 108


 6100 114f 05       		.byte	.LVU582
 6101 1150 08050000 		.4byte	.Ldebug_ranges0+0x508
 6102 1154 02       		.byte	0x2
 6103 1155 4A02     		.2byte	0x24a
 6104 1157 03       		.byte	0x3
 6105 1158 18       		.uleb128 0x18
 6106 1159 08050000 		.4byte	.Ldebug_ranges0+0x508
 6107 115d 17       		.uleb128 0x17
 6108 115e FB1B0000 		.4byte	0x1bfb
 6109 1162 04010000 		.4byte	.LBI575
 6110 1166 0C       		.byte	.LVU589
 6111 1167 08050000 		.4byte	.Ldebug_ranges0+0x508
 6112 116b 05       		.byte	0x5
 6113 116c B201     		.2byte	0x1b2
 6114 116e 03       		.byte	0x3
 6115 116f 12       		.uleb128 0x12
 6116 1170 0F1C0000 		.4byte	0x1c0f
 6117 1174 04010000 		.4byte	.LBI576
 6118 1178 0E       		.byte	.LVU591
 6119 1179 04010000 		.4byte	.LBB576
 6120 117d 06000000 		.4byte	.LBE576-.LBB576
 6121 1181 06       		.byte	0x6
 6122 1182 4103     		.2byte	0x341
 6123 1184 03       		.byte	0x3
 6124 1185 13       		.uleb128 0x13
 6125 1186 1D1C0000 		.4byte	0x1c1d
 6126 118a 170F0000 		.4byte	.LLST65
 6127 118e 150F0000 		.4byte	.LVUS65
 6128 1192 00       		.byte	0
 6129 1193 00       		.byte	0
 6130 1194 00       		.byte	0
 6131 1195 00       		.byte	0
 6132 1196 00       		.byte	0
 6133 1197 00       		.byte	0
 6134 1198 16       		.uleb128 0x16
 6135 1199 76150000 		.4byte	0x1576
 6136 119d CE000000 		.4byte	.LBI530
 6137 11a1 01       		.byte	.LVU554
 6138 11a2 20040000 		.4byte	.Ldebug_ranges0+0x420
 6139 11a6 01       		.byte	0x1
 6140 11a7 9701     		.2byte	0x197
 6141 11a9 07       		.byte	0x7
 6142 11aa CE110000 		.4byte	0x11ce
 6143 11ae 13       		.uleb128 0x13
 6144 11af 84150000 		.4byte	0x1584
 6145 11b3 2D0F0000 		.4byte	.LLST57
 6146 11b7 2B0F0000 		.4byte	.LVUS57
 6147 11bb 18       		.uleb128 0x18
 6148 11bc 20040000 		.4byte	.Ldebug_ranges0+0x420
 6149 11c0 14       		.uleb128 0x14
 6150 11c1 02010000 		.4byte	.LVL90
 6151 11c5 15       		.uleb128 0x15
 6152 11c6 01       		.uleb128 0x1
 6153 11c7 50       		.byte	0x50
 6154 11c8 02       		.uleb128 0x2
 6155 11c9 7A       		.byte	0x7a
 6156 11ca 00       		.sleb128 0
ARM GAS  /tmp/cc9meDp5.s 			page 109


 6157 11cb 00       		.byte	0
 6158 11cc 00       		.byte	0
 6159 11cd 00       		.byte	0
 6160 11ce 16       		.uleb128 0x16
 6161 11cf 941B0000 		.4byte	0x1b94
 6162 11d3 76000000 		.4byte	.LBI533
 6163 11d7 01       		.byte	.LVU483
 6164 11d8 38040000 		.4byte	.Ldebug_ranges0+0x438
 6165 11dc 01       		.byte	0x1
 6166 11dd 9B01     		.2byte	0x19b
 6167 11df 05       		.byte	0x5
 6168 11e0 35120000 		.4byte	0x1235
 6169 11e4 17       		.uleb128 0x17
 6170 11e5 C41B0000 		.4byte	0x1bc4
 6171 11e9 76000000 		.4byte	.LBI534
 6172 11ed 03       		.byte	.LVU485
 6173 11ee 40040000 		.4byte	.Ldebug_ranges0+0x440
 6174 11f2 02       		.byte	0x2
 6175 11f3 4A02     		.2byte	0x24a
 6176 11f5 03       		.byte	0x3
 6177 11f6 18       		.uleb128 0x18
 6178 11f7 40040000 		.4byte	.Ldebug_ranges0+0x440
 6179 11fb 17       		.uleb128 0x17
 6180 11fc FB1B0000 		.4byte	0x1bfb
 6181 1200 76000000 		.4byte	.LBI536
 6182 1204 0A       		.byte	.LVU492
 6183 1205 40040000 		.4byte	.Ldebug_ranges0+0x440
 6184 1209 05       		.byte	0x5
 6185 120a B201     		.2byte	0x1b2
 6186 120c 03       		.byte	0x3
 6187 120d 12       		.uleb128 0x12
 6188 120e 0F1C0000 		.4byte	0x1c0f
 6189 1212 76000000 		.4byte	.LBI537
 6190 1216 0C       		.byte	.LVU494
 6191 1217 76000000 		.4byte	.LBB537
 6192 121b 04000000 		.4byte	.LBE537-.LBB537
 6193 121f 06       		.byte	0x6
 6194 1220 4103     		.2byte	0x341
 6195 1222 03       		.byte	0x3
 6196 1223 13       		.uleb128 0x13
 6197 1224 1D1C0000 		.4byte	0x1c1d
 6198 1228 420F0000 		.4byte	.LLST58
 6199 122c 400F0000 		.4byte	.LVUS58
 6200 1230 00       		.byte	0
 6201 1231 00       		.byte	0
 6202 1232 00       		.byte	0
 6203 1233 00       		.byte	0
 6204 1234 00       		.byte	0
 6205 1235 16       		.uleb128 0x16
 6206 1236 9E1B0000 		.4byte	0x1b9e
 6207 123a 7E000000 		.4byte	.LBI544
 6208 123e 01       		.byte	.LVU500
 6209 123f 58040000 		.4byte	.Ldebug_ranges0+0x458
 6210 1243 01       		.byte	0x1
 6211 1244 9F01     		.2byte	0x19f
 6212 1246 05       		.byte	0x5
 6213 1247 96120000 		.4byte	0x1296
ARM GAS  /tmp/cc9meDp5.s 			page 110


 6214 124b 17       		.uleb128 0x17
 6215 124c F11B0000 		.4byte	0x1bf1
 6216 1250 7E000000 		.4byte	.LBI546
 6217 1254 03       		.byte	.LVU502
 6218 1255 80040000 		.4byte	.Ldebug_ranges0+0x480
 6219 1259 02       		.byte	0x2
 6220 125a 3F02     		.2byte	0x23f
 6221 125c 03       		.byte	0x3
 6222 125d 17       		.uleb128 0x17
 6223 125e 051C0000 		.4byte	0x1c05
 6224 1262 7E000000 		.4byte	.LBI547
 6225 1266 05       		.byte	.LVU504
 6226 1267 88040000 		.4byte	.Ldebug_ranges0+0x488
 6227 126b 05       		.byte	0x5
 6228 126c 9901     		.2byte	0x199
 6229 126e 03       		.byte	0x3
 6230 126f 12       		.uleb128 0x12
 6231 1270 0F1C0000 		.4byte	0x1c0f
 6232 1274 7E000000 		.4byte	.LBI548
 6233 1278 07       		.byte	.LVU506
 6234 1279 7E000000 		.4byte	.LBB548
 6235 127d 04000000 		.4byte	.LBE548-.LBB548
 6236 1281 06       		.byte	0x6
 6237 1282 2E03     		.2byte	0x32e
 6238 1284 03       		.byte	0x3
 6239 1285 13       		.uleb128 0x13
 6240 1286 1D1C0000 		.4byte	0x1c1d
 6241 128a 580F0000 		.4byte	.LLST59
 6242 128e 560F0000 		.4byte	.LVUS59
 6243 1292 00       		.byte	0
 6244 1293 00       		.byte	0
 6245 1294 00       		.byte	0
 6246 1295 00       		.byte	0
 6247 1296 23       		.uleb128 0x23
 6248 1297 B8000000 		.4byte	.LVL86
 6249 129b 181E0000 		.4byte	0x1e18
 6250 129f 15       		.uleb128 0x15
 6251 12a0 01       		.uleb128 0x1
 6252 12a1 50       		.byte	0x50
 6253 12a2 02       		.uleb128 0x2
 6254 12a3 75       		.byte	0x75
 6255 12a4 00       		.sleb128 0
 6256 12a5 15       		.uleb128 0x15
 6257 12a6 01       		.uleb128 0x1
 6258 12a7 52       		.byte	0x52
 6259 12a8 02       		.uleb128 0x2
 6260 12a9 7B       		.byte	0x7b
 6261 12aa 00       		.sleb128 0
 6262 12ab 00       		.byte	0
 6263 12ac 00       		.byte	0
 6264 12ad 17       		.uleb128 0x17
 6265 12ae 9E1B0000 		.4byte	0x1b9e
 6266 12b2 00000000 		.4byte	.LBI510
 6267 12b6 06       		.byte	.LVU439
 6268 12b7 48030000 		.4byte	.Ldebug_ranges0+0x348
 6269 12bb 01       		.byte	0x1
 6270 12bc 6C01     		.2byte	0x16c
ARM GAS  /tmp/cc9meDp5.s 			page 111


 6271 12be 03       		.byte	0x3
 6272 12bf 17       		.uleb128 0x17
 6273 12c0 F11B0000 		.4byte	0x1bf1
 6274 12c4 00000000 		.4byte	.LBI512
 6275 12c8 08       		.byte	.LVU441
 6276 12c9 70030000 		.4byte	.Ldebug_ranges0+0x370
 6277 12cd 02       		.byte	0x2
 6278 12ce 3F02     		.2byte	0x23f
 6279 12d0 03       		.byte	0x3
 6280 12d1 17       		.uleb128 0x17
 6281 12d2 051C0000 		.4byte	0x1c05
 6282 12d6 00000000 		.4byte	.LBI513
 6283 12da 0A       		.byte	.LVU443
 6284 12db 98030000 		.4byte	.Ldebug_ranges0+0x398
 6285 12df 05       		.byte	0x5
 6286 12e0 9901     		.2byte	0x199
 6287 12e2 03       		.byte	0x3
 6288 12e3 17       		.uleb128 0x17
 6289 12e4 0F1C0000 		.4byte	0x1c0f
 6290 12e8 00000000 		.4byte	.LBI514
 6291 12ec 0C       		.byte	.LVU445
 6292 12ed B8030000 		.4byte	.Ldebug_ranges0+0x3b8
 6293 12f1 06       		.byte	0x6
 6294 12f2 2E03     		.2byte	0x32e
 6295 12f4 03       		.byte	0x3
 6296 12f5 13       		.uleb128 0x13
 6297 12f6 1D1C0000 		.4byte	0x1c1d
 6298 12fa 6F0F0000 		.4byte	.LLST55
 6299 12fe 6D0F0000 		.4byte	.LVUS55
 6300 1302 00       		.byte	0
 6301 1303 00       		.byte	0
 6302 1304 00       		.byte	0
 6303 1305 00       		.byte	0
 6304 1306 00       		.byte	0
 6305 1307 0A       		.uleb128 0xa
 6306 1308 04       		.byte	0x4
 6307 1309 4F020000 		.4byte	0x24f
 6308 130d 24       		.uleb128 0x24
 6309 130e B0000000 		.4byte	0xb0
 6310 1312 1D130000 		.4byte	0x131d
 6311 1316 25       		.uleb128 0x25
 6312 1317 3D000000 		.4byte	0x3d
 6313 131b 0E       		.byte	0xe
 6314 131c 00       		.byte	0
 6315 131d 07       		.uleb128 0x7
 6316 131e 0D130000 		.4byte	0x130d
 6317 1322 19       		.uleb128 0x19
 6318 1323 73040000 		.4byte	.LASF61
 6319 1327 01       		.byte	0x1
 6320 1328 3501     		.2byte	0x135
 6321 132a 07       		.byte	0x7
 6322 132b DE000000 		.4byte	0xde
 6323 132f 00000000 		.4byte	.LFB408
 6324 1333 82000000 		.4byte	.LFE408-.LFB408
 6325 1337 01       		.uleb128 0x1
 6326 1338 9C       		.byte	0x9c
 6327 1339 76150000 		.4byte	0x1576
ARM GAS  /tmp/cc9meDp5.s 			page 112


 6328 133d 0F       		.uleb128 0xf
 6329 133e 88000000 		.4byte	.LASF60
 6330 1342 01       		.byte	0x1
 6331 1343 3501     		.2byte	0x135
 6332 1345 2C       		.byte	0x2c
 6333 1346 07130000 		.4byte	0x1307
 6334 134a 920F0000 		.4byte	.LLST38
 6335 134e 840F0000 		.4byte	.LVUS38
 6336 1352 0F       		.uleb128 0xf
 6337 1353 A2050000 		.4byte	.LASF47
 6338 1357 01       		.byte	0x1
 6339 1358 3501     		.2byte	0x135
 6340 135a 40       		.byte	0x40
 6341 135b EA000000 		.4byte	0xea
 6342 135f F50F0000 		.4byte	.LLST39
 6343 1363 E70F0000 		.4byte	.LVUS39
 6344 1367 1C       		.uleb128 0x1c
 6345 1368 6D736700 		.ascii	"msg\000"
 6346 136c 01       		.byte	0x1
 6347 136d 3601     		.2byte	0x136
 6348 136f 09       		.byte	0x9
 6349 1370 DE000000 		.4byte	0xde
 6350 1374 54100000 		.4byte	.LLST40
 6351 1378 50100000 		.4byte	.LVUS40
 6352 137c 16       		.uleb128 0x16
 6353 137d 9E1B0000 		.4byte	0x1b9e
 6354 1381 06000000 		.4byte	.LBI406
 6355 1385 02       		.byte	.LVU306
 6356 1386 C8010000 		.4byte	.Ldebug_ranges0+0x1c8
 6357 138a 01       		.byte	0x1
 6358 138b 3801     		.2byte	0x138
 6359 138d 03       		.byte	0x3
 6360 138e D9130000 		.4byte	0x13d9
 6361 1392 17       		.uleb128 0x17
 6362 1393 F11B0000 		.4byte	0x1bf1
 6363 1397 06000000 		.4byte	.LBI407
 6364 139b 04       		.byte	.LVU308
 6365 139c F8010000 		.4byte	.Ldebug_ranges0+0x1f8
 6366 13a0 02       		.byte	0x2
 6367 13a1 3F02     		.2byte	0x23f
 6368 13a3 03       		.byte	0x3
 6369 13a4 17       		.uleb128 0x17
 6370 13a5 051C0000 		.4byte	0x1c05
 6371 13a9 06000000 		.4byte	.LBI408
 6372 13ad 06       		.byte	.LVU310
 6373 13ae 20020000 		.4byte	.Ldebug_ranges0+0x220
 6374 13b2 05       		.byte	0x5
 6375 13b3 9901     		.2byte	0x199
 6376 13b5 03       		.byte	0x3
 6377 13b6 17       		.uleb128 0x17
 6378 13b7 0F1C0000 		.4byte	0x1c0f
 6379 13bb 06000000 		.4byte	.LBI409
 6380 13bf 08       		.byte	.LVU312
 6381 13c0 40020000 		.4byte	.Ldebug_ranges0+0x240
 6382 13c4 06       		.byte	0x6
 6383 13c5 2E03     		.2byte	0x32e
 6384 13c7 03       		.byte	0x3
ARM GAS  /tmp/cc9meDp5.s 			page 113


 6385 13c8 13       		.uleb128 0x13
 6386 13c9 1D1C0000 		.4byte	0x1c1d
 6387 13cd 75100000 		.4byte	.LLST41
 6388 13d1 73100000 		.4byte	.LVUS41
 6389 13d5 00       		.byte	0
 6390 13d6 00       		.byte	0
 6391 13d7 00       		.byte	0
 6392 13d8 00       		.byte	0
 6393 13d9 16       		.uleb128 0x16
 6394 13da 941B0000 		.4byte	0x1b94
 6395 13de 1A000000 		.4byte	.LBI422
 6396 13e2 02       		.byte	.LVU329
 6397 13e3 58020000 		.4byte	.Ldebug_ranges0+0x258
 6398 13e7 01       		.byte	0x1
 6399 13e8 3E01     		.2byte	0x13e
 6400 13ea 07       		.byte	0x7
 6401 13eb 3C140000 		.4byte	0x143c
 6402 13ef 17       		.uleb128 0x17
 6403 13f0 C41B0000 		.4byte	0x1bc4
 6404 13f4 1A000000 		.4byte	.LBI423
 6405 13f8 04       		.byte	.LVU331
 6406 13f9 90020000 		.4byte	.Ldebug_ranges0+0x290
 6407 13fd 02       		.byte	0x2
 6408 13fe 4A02     		.2byte	0x24a
 6409 1400 03       		.byte	0x3
 6410 1401 18       		.uleb128 0x18
 6411 1402 90020000 		.4byte	.Ldebug_ranges0+0x290
 6412 1406 17       		.uleb128 0x17
 6413 1407 FB1B0000 		.4byte	0x1bfb
 6414 140b 1A000000 		.4byte	.LBI425
 6415 140f 0B       		.byte	.LVU338
 6416 1410 90020000 		.4byte	.Ldebug_ranges0+0x290
 6417 1414 05       		.byte	0x5
 6418 1415 B201     		.2byte	0x1b2
 6419 1417 03       		.byte	0x3
 6420 1418 17       		.uleb128 0x17
 6421 1419 0F1C0000 		.4byte	0x1c0f
 6422 141d 1A000000 		.4byte	.LBI426
 6423 1421 0D       		.byte	.LVU340
 6424 1422 B8020000 		.4byte	.Ldebug_ranges0+0x2b8
 6425 1426 06       		.byte	0x6
 6426 1427 4103     		.2byte	0x341
 6427 1429 03       		.byte	0x3
 6428 142a 13       		.uleb128 0x13
 6429 142b 1D1C0000 		.4byte	0x1c1d
 6430 142f 8E100000 		.4byte	.LLST42
 6431 1433 8A100000 		.4byte	.LVUS42
 6432 1437 00       		.byte	0
 6433 1438 00       		.byte	0
 6434 1439 00       		.byte	0
 6435 143a 00       		.byte	0
 6436 143b 00       		.byte	0
 6437 143c 29       		.uleb128 0x29
 6438 143d 76150000 		.4byte	0x1576
 6439 1441 24000000 		.4byte	.LBI441
 6440 1445 01       		.byte	.LVU346
 6441 1446 24000000 		.4byte	.LBB441
ARM GAS  /tmp/cc9meDp5.s 			page 114


 6442 144a 26000000 		.4byte	.LBE441-.LBB441
 6443 144e 01       		.byte	0x1
 6444 144f 4A01     		.2byte	0x14a
 6445 1451 05       		.byte	0x5
 6446 1452 70140000 		.4byte	0x1470
 6447 1456 13       		.uleb128 0x13
 6448 1457 84150000 		.4byte	0x1584
 6449 145b B2100000 		.4byte	.LLST43
 6450 145f AE100000 		.4byte	.LVUS43
 6451 1463 14       		.uleb128 0x14
 6452 1464 4A000000 		.4byte	.LVL58
 6453 1468 15       		.uleb128 0x15
 6454 1469 01       		.uleb128 0x1
 6455 146a 50       		.byte	0x50
 6456 146b 02       		.uleb128 0x2
 6457 146c 74       		.byte	0x74
 6458 146d 00       		.sleb128 0
 6459 146e 00       		.byte	0
 6460 146f 00       		.byte	0
 6461 1470 16       		.uleb128 0x16
 6462 1471 941B0000 		.4byte	0x1b94
 6463 1475 4A000000 		.4byte	.LBI443
 6464 1479 02       		.byte	.LVU373
 6465 147a D0020000 		.4byte	.Ldebug_ranges0+0x2d0
 6466 147e 01       		.byte	0x1
 6467 147f 4D01     		.2byte	0x14d
 6468 1481 03       		.byte	0x3
 6469 1482 D7140000 		.4byte	0x14d7
 6470 1486 17       		.uleb128 0x17
 6471 1487 C41B0000 		.4byte	0x1bc4
 6472 148b 4A000000 		.4byte	.LBI444
 6473 148f 04       		.byte	.LVU375
 6474 1490 D8020000 		.4byte	.Ldebug_ranges0+0x2d8
 6475 1494 02       		.byte	0x2
 6476 1495 4A02     		.2byte	0x24a
 6477 1497 03       		.byte	0x3
 6478 1498 18       		.uleb128 0x18
 6479 1499 D8020000 		.4byte	.Ldebug_ranges0+0x2d8
 6480 149d 17       		.uleb128 0x17
 6481 149e FB1B0000 		.4byte	0x1bfb
 6482 14a2 4A000000 		.4byte	.LBI446
 6483 14a6 0B       		.byte	.LVU382
 6484 14a7 D8020000 		.4byte	.Ldebug_ranges0+0x2d8
 6485 14ab 05       		.byte	0x5
 6486 14ac B201     		.2byte	0x1b2
 6487 14ae 03       		.byte	0x3
 6488 14af 12       		.uleb128 0x12
 6489 14b0 0F1C0000 		.4byte	0x1c0f
 6490 14b4 4A000000 		.4byte	.LBI447
 6491 14b8 0D       		.byte	.LVU384
 6492 14b9 4A000000 		.4byte	.LBB447
 6493 14bd 00000000 		.4byte	.LBE447-.LBB447
 6494 14c1 06       		.byte	0x6
 6495 14c2 4103     		.2byte	0x341
 6496 14c4 03       		.byte	0x3
 6497 14c5 13       		.uleb128 0x13
 6498 14c6 1D1C0000 		.4byte	0x1c1d
ARM GAS  /tmp/cc9meDp5.s 			page 115


 6499 14ca D2100000 		.4byte	.LLST44
 6500 14ce D0100000 		.4byte	.LVUS44
 6501 14d2 00       		.byte	0
 6502 14d3 00       		.byte	0
 6503 14d4 00       		.byte	0
 6504 14d5 00       		.byte	0
 6505 14d6 00       		.byte	0
 6506 14d7 33       		.uleb128 0x33
 6507 14d8 BB160000 		.4byte	0x16bb
 6508 14dc F0020000 		.4byte	.Ldebug_ranges0+0x2f0
 6509 14e0 01       		.byte	0x1
 6510 14e1 3C01     		.2byte	0x13c
 6511 14e3 0B       		.byte	0xb
 6512 14e4 1F       		.uleb128 0x1f
 6513 14e5 D8160000 		.4byte	0x16d8
 6514 14e9 1F       		.uleb128 0x1f
 6515 14ea CC160000 		.4byte	0x16cc
 6516 14ee 18       		.uleb128 0x18
 6517 14ef F0020000 		.4byte	.Ldebug_ranges0+0x2f0
 6518 14f3 20       		.uleb128 0x20
 6519 14f4 ED160000 		.4byte	0x16ed
 6520 14f8 08030000 		.4byte	.Ldebug_ranges0+0x308
 6521 14fc 43150000 		.4byte	0x1543
 6522 1500 21       		.uleb128 0x21
 6523 1501 EE160000 		.4byte	0x16ee
 6524 1505 E8100000 		.4byte	.LLST45
 6525 1509 E6100000 		.4byte	.LVUS45
 6526 150d 31       		.uleb128 0x31
 6527 150e 4B1B0000 		.4byte	0x1b4b
 6528 1512 64000000 		.4byte	.LBI460
 6529 1516 02       		.byte	.LVU413
 6530 1517 28030000 		.4byte	.Ldebug_ranges0+0x328
 6531 151b 01       		.byte	0x1
 6532 151c E7       		.byte	0xe7
 6533 151d 11       		.byte	0x11
 6534 151e 13       		.uleb128 0x13
 6535 151f 6A1B0000 		.4byte	0x1b6a
 6536 1523 03110000 		.4byte	.LLST46
 6537 1527 FB100000 		.4byte	.LVUS46
 6538 152b 13       		.uleb128 0x13
 6539 152c 5D1B0000 		.4byte	0x1b5d
 6540 1530 3F110000 		.4byte	.LLST47
 6541 1534 37110000 		.4byte	.LVUS47
 6542 1538 22       		.uleb128 0x22
 6543 1539 60000000 		.4byte	.LVL62
 6544 153d 0B1E0000 		.4byte	0x1e0b
 6545 1541 00       		.byte	0
 6546 1542 00       		.byte	0
 6547 1543 32       		.uleb128 0x32
 6548 1544 BB160000 		.4byte	0x16bb
 6549 1548 6E000000 		.4byte	.LBI467
 6550 154c 00       		.byte	.LVU419
 6551 154d 6E000000 		.4byte	.LBB467
 6552 1551 0C000000 		.4byte	.LBE467-.LBB467
 6553 1555 01       		.byte	0x1
 6554 1556 DE       		.byte	0xde
 6555 1557 09       		.byte	0x9
ARM GAS  /tmp/cc9meDp5.s 			page 116


 6556 1558 13       		.uleb128 0x13
 6557 1559 D8160000 		.4byte	0x16d8
 6558 155d 75110000 		.4byte	.LLST48
 6559 1561 73110000 		.4byte	.LVUS48
 6560 1565 13       		.uleb128 0x13
 6561 1566 CC160000 		.4byte	0x16cc
 6562 156a 8A110000 		.4byte	.LLST49
 6563 156e 88110000 		.4byte	.LVUS49
 6564 1572 00       		.byte	0
 6565 1573 00       		.byte	0
 6566 1574 00       		.byte	0
 6567 1575 00       		.byte	0
 6568 1576 27       		.uleb128 0x27
 6569 1577 AC040000 		.4byte	.LASF63
 6570 157b 01       		.byte	0x1
 6571 157c 0D01     		.2byte	0x10d
 6572 157e 08       		.byte	0x8
 6573 157f 01       		.byte	0x1
 6574 1580 9B150000 		.4byte	0x159b
 6575 1584 28       		.uleb128 0x28
 6576 1585 88000000 		.4byte	.LASF60
 6577 1589 01       		.byte	0x1
 6578 158a 0D01     		.2byte	0x10d
 6579 158c 36       		.byte	0x36
 6580 158d 07130000 		.4byte	0x1307
 6581 1591 1D       		.uleb128 0x1d
 6582 1592 18030000 		.4byte	.LASF49
 6583 1596 070E0000 		.4byte	0xe07
 6584 159a 00       		.byte	0
 6585 159b 34       		.uleb128 0x34
 6586 159c B4010000 		.4byte	.LASF64
 6587 15a0 01       		.byte	0x1
 6588 15a1 FE       		.byte	0xfe
 6589 15a2 06       		.byte	0x6
 6590 15a3 00000000 		.4byte	.LFB406
 6591 15a7 34000000 		.4byte	.LFE406-.LFB406
 6592 15ab 01       		.uleb128 0x1
 6593 15ac 9C       		.byte	0x9c
 6594 15ad BB160000 		.4byte	0x16bb
 6595 15b1 35       		.uleb128 0x35
 6596 15b2 88000000 		.4byte	.LASF60
 6597 15b6 01       		.byte	0x1
 6598 15b7 FE       		.byte	0xfe
 6599 15b8 33       		.byte	0x33
 6600 15b9 07130000 		.4byte	0x1307
 6601 15bd A1110000 		.4byte	.LLST33
 6602 15c1 9D110000 		.4byte	.LVUS33
 6603 15c5 16       		.uleb128 0x16
 6604 15c6 9E1B0000 		.4byte	0x1b9e
 6605 15ca 00000000 		.4byte	.LBI348
 6606 15ce 02       		.byte	.LVU220
 6607 15cf 78010000 		.4byte	.Ldebug_ranges0+0x178
 6608 15d3 01       		.byte	0x1
 6609 15d4 0001     		.2byte	0x100
 6610 15d6 03       		.byte	0x3
 6611 15d7 22160000 		.4byte	0x1622
 6612 15db 17       		.uleb128 0x17
ARM GAS  /tmp/cc9meDp5.s 			page 117


 6613 15dc F11B0000 		.4byte	0x1bf1
 6614 15e0 00000000 		.4byte	.LBI349
 6615 15e4 04       		.byte	.LVU222
 6616 15e5 80010000 		.4byte	.Ldebug_ranges0+0x180
 6617 15e9 02       		.byte	0x2
 6618 15ea 3F02     		.2byte	0x23f
 6619 15ec 03       		.byte	0x3
 6620 15ed 17       		.uleb128 0x17
 6621 15ee 051C0000 		.4byte	0x1c05
 6622 15f2 00000000 		.4byte	.LBI350
 6623 15f6 06       		.byte	.LVU224
 6624 15f7 88010000 		.4byte	.Ldebug_ranges0+0x188
 6625 15fb 05       		.byte	0x5
 6626 15fc 9901     		.2byte	0x199
 6627 15fe 03       		.byte	0x3
 6628 15ff 17       		.uleb128 0x17
 6629 1600 0F1C0000 		.4byte	0x1c0f
 6630 1604 00000000 		.4byte	.LBI351
 6631 1608 08       		.byte	.LVU226
 6632 1609 90010000 		.4byte	.Ldebug_ranges0+0x190
 6633 160d 06       		.byte	0x6
 6634 160e 2E03     		.2byte	0x32e
 6635 1610 03       		.byte	0x3
 6636 1611 13       		.uleb128 0x13
 6637 1612 1D1C0000 		.4byte	0x1c1d
 6638 1616 C4110000 		.4byte	.LLST34
 6639 161a C2110000 		.4byte	.LVUS34
 6640 161e 00       		.byte	0
 6641 161f 00       		.byte	0
 6642 1620 00       		.byte	0
 6643 1621 00       		.byte	0
 6644 1622 29       		.uleb128 0x29
 6645 1623 76150000 		.4byte	0x1576
 6646 1627 08000000 		.4byte	.LBI364
 6647 162b 04       		.byte	.LVU234
 6648 162c 08000000 		.4byte	.LBB364
 6649 1630 24000000 		.4byte	.LBE364-.LBB364
 6650 1634 01       		.byte	0x1
 6651 1635 0101     		.2byte	0x101
 6652 1637 03       		.byte	0x3
 6653 1638 57160000 		.4byte	0x1657
 6654 163c 13       		.uleb128 0x13
 6655 163d 84150000 		.4byte	0x1584
 6656 1641 DD110000 		.4byte	.LLST35
 6657 1645 D9110000 		.4byte	.LVUS35
 6658 1649 14       		.uleb128 0x14
 6659 164a 2C000000 		.4byte	.LVL45
 6660 164e 15       		.uleb128 0x15
 6661 164f 01       		.uleb128 0x1
 6662 1650 50       		.byte	0x50
 6663 1651 03       		.uleb128 0x3
 6664 1652 F3       		.byte	0xf3
 6665 1653 01       		.uleb128 0x1
 6666 1654 50       		.byte	0x50
 6667 1655 00       		.byte	0
 6668 1656 00       		.byte	0
 6669 1657 17       		.uleb128 0x17
ARM GAS  /tmp/cc9meDp5.s 			page 118


 6670 1658 941B0000 		.4byte	0x1b94
 6671 165c 2C000000 		.4byte	.LBI366
 6672 1660 02       		.byte	.LVU260
 6673 1661 A8010000 		.4byte	.Ldebug_ranges0+0x1a8
 6674 1665 01       		.byte	0x1
 6675 1666 0201     		.2byte	0x102
 6676 1668 03       		.byte	0x3
 6677 1669 17       		.uleb128 0x17
 6678 166a C41B0000 		.4byte	0x1bc4
 6679 166e 2C000000 		.4byte	.LBI367
 6680 1672 04       		.byte	.LVU262
 6681 1673 B0010000 		.4byte	.Ldebug_ranges0+0x1b0
 6682 1677 02       		.byte	0x2
 6683 1678 4A02     		.2byte	0x24a
 6684 167a 03       		.byte	0x3
 6685 167b 18       		.uleb128 0x18
 6686 167c B0010000 		.4byte	.Ldebug_ranges0+0x1b0
 6687 1680 17       		.uleb128 0x17
 6688 1681 FB1B0000 		.4byte	0x1bfb
 6689 1685 2C000000 		.4byte	.LBI369
 6690 1689 0B       		.byte	.LVU269
 6691 168a B0010000 		.4byte	.Ldebug_ranges0+0x1b0
 6692 168e 05       		.byte	0x5
 6693 168f B201     		.2byte	0x1b2
 6694 1691 03       		.byte	0x3
 6695 1692 12       		.uleb128 0x12
 6696 1693 0F1C0000 		.4byte	0x1c0f
 6697 1697 2C000000 		.4byte	.LBI370
 6698 169b 0D       		.byte	.LVU271
 6699 169c 2C000000 		.4byte	.LBB370
 6700 16a0 06000000 		.4byte	.LBE370-.LBB370
 6701 16a4 06       		.byte	0x6
 6702 16a5 4103     		.2byte	0x341
 6703 16a7 03       		.byte	0x3
 6704 16a8 13       		.uleb128 0x13
 6705 16a9 1D1C0000 		.4byte	0x1c1d
 6706 16ad 00120000 		.4byte	.LLST36
 6707 16b1 FE110000 		.4byte	.LVUS36
 6708 16b5 00       		.byte	0
 6709 16b6 00       		.byte	0
 6710 16b7 00       		.byte	0
 6711 16b8 00       		.byte	0
 6712 16b9 00       		.byte	0
 6713 16ba 00       		.byte	0
 6714 16bb 36       		.uleb128 0x36
 6715 16bc 0E020000 		.4byte	.LASF66
 6716 16c0 01       		.byte	0x1
 6717 16c1 DE       		.byte	0xde
 6718 16c2 09       		.byte	0x9
 6719 16c3 DE000000 		.4byte	0xde
 6720 16c7 01       		.byte	0x1
 6721 16c8 FC160000 		.4byte	0x16fc
 6722 16cc 37       		.uleb128 0x37
 6723 16cd 88000000 		.4byte	.LASF60
 6724 16d1 01       		.byte	0x1
 6725 16d2 DE       		.byte	0xde
 6726 16d3 39       		.byte	0x39
ARM GAS  /tmp/cc9meDp5.s 			page 119


 6727 16d4 07130000 		.4byte	0x1307
 6728 16d8 37       		.uleb128 0x37
 6729 16d9 A2050000 		.4byte	.LASF47
 6730 16dd 01       		.byte	0x1
 6731 16de DF       		.byte	0xdf
 6732 16df 30       		.byte	0x30
 6733 16e0 EA000000 		.4byte	0xea
 6734 16e4 1D       		.uleb128 0x1d
 6735 16e5 18030000 		.4byte	.LASF49
 6736 16e9 0C170000 		.4byte	0x170c
 6737 16ed 2B       		.uleb128 0x2b
 6738 16ee 38       		.uleb128 0x38
 6739 16ef 6D736700 		.ascii	"msg\000"
 6740 16f3 01       		.byte	0x1
 6741 16f4 E7       		.byte	0xe7
 6742 16f5 0B       		.byte	0xb
 6743 16f6 DE000000 		.4byte	0xde
 6744 16fa 00       		.byte	0
 6745 16fb 00       		.byte	0
 6746 16fc 24       		.uleb128 0x24
 6747 16fd B0000000 		.4byte	0xb0
 6748 1701 0C170000 		.4byte	0x170c
 6749 1705 25       		.uleb128 0x25
 6750 1706 3D000000 		.4byte	0x3d
 6751 170a 18       		.byte	0x18
 6752 170b 00       		.byte	0
 6753 170c 07       		.uleb128 0x7
 6754 170d FC160000 		.4byte	0x16fc
 6755 1711 39       		.uleb128 0x39
 6756 1712 27020000 		.4byte	.LASF67
 6757 1716 01       		.byte	0x1
 6758 1717 BE       		.byte	0xbe
 6759 1718 07       		.byte	0x7
 6760 1719 DE000000 		.4byte	0xde
 6761 171d 00000000 		.4byte	.LFB404
 6762 1721 46000000 		.4byte	.LFE404-.LFB404
 6763 1725 01       		.uleb128 0x1
 6764 1726 9C       		.byte	0x9c
 6765 1727 D8180000 		.4byte	0x18d8
 6766 172b 35       		.uleb128 0x35
 6767 172c 88000000 		.4byte	.LASF60
 6768 1730 01       		.byte	0x1
 6769 1731 BE       		.byte	0xbe
 6770 1732 36       		.byte	0x36
 6771 1733 07130000 		.4byte	0x1307
 6772 1737 20120000 		.4byte	.LLST14
 6773 173b 14120000 		.4byte	.LVUS14
 6774 173f 35       		.uleb128 0x35
 6775 1740 A2050000 		.4byte	.LASF47
 6776 1744 01       		.byte	0x1
 6777 1745 BF       		.byte	0xbf
 6778 1746 2D       		.byte	0x2d
 6779 1747 EA000000 		.4byte	0xea
 6780 174b 74120000 		.4byte	.LLST15
 6781 174f 6A120000 		.4byte	.LVUS15
 6782 1753 3A       		.uleb128 0x3a
 6783 1754 6D736700 		.ascii	"msg\000"
ARM GAS  /tmp/cc9meDp5.s 			page 120


 6784 1758 01       		.byte	0x1
 6785 1759 C0       		.byte	0xc0
 6786 175a 09       		.byte	0x9
 6787 175b DE000000 		.4byte	0xde
 6788 175f B7120000 		.4byte	.LLST16
 6789 1763 B3120000 		.4byte	.LVUS16
 6790 1767 3B       		.uleb128 0x3b
 6791 1768 9E1B0000 		.4byte	0x1b9e
 6792 176c 04000000 		.4byte	.LBI260
 6793 1770 02       		.byte	.LVU97
 6794 1771 38000000 		.4byte	.Ldebug_ranges0+0x38
 6795 1775 01       		.byte	0x1
 6796 1776 C2       		.byte	0xc2
 6797 1777 03       		.byte	0x3
 6798 1778 C3170000 		.4byte	0x17c3
 6799 177c 17       		.uleb128 0x17
 6800 177d F11B0000 		.4byte	0x1bf1
 6801 1781 04000000 		.4byte	.LBI261
 6802 1785 04       		.byte	.LVU99
 6803 1786 40000000 		.4byte	.Ldebug_ranges0+0x40
 6804 178a 02       		.byte	0x2
 6805 178b 3F02     		.2byte	0x23f
 6806 178d 03       		.byte	0x3
 6807 178e 17       		.uleb128 0x17
 6808 178f 051C0000 		.4byte	0x1c05
 6809 1793 04000000 		.4byte	.LBI262
 6810 1797 06       		.byte	.LVU101
 6811 1798 48000000 		.4byte	.Ldebug_ranges0+0x48
 6812 179c 05       		.byte	0x5
 6813 179d 9901     		.2byte	0x199
 6814 179f 03       		.byte	0x3
 6815 17a0 17       		.uleb128 0x17
 6816 17a1 0F1C0000 		.4byte	0x1c0f
 6817 17a5 04000000 		.4byte	.LBI263
 6818 17a9 08       		.byte	.LVU103
 6819 17aa 50000000 		.4byte	.Ldebug_ranges0+0x50
 6820 17ae 06       		.byte	0x6
 6821 17af 2E03     		.2byte	0x32e
 6822 17b1 03       		.byte	0x3
 6823 17b2 13       		.uleb128 0x13
 6824 17b3 1D1C0000 		.4byte	0x1c1d
 6825 17b7 D7120000 		.4byte	.LLST17
 6826 17bb D5120000 		.4byte	.LVUS17
 6827 17bf 00       		.byte	0
 6828 17c0 00       		.byte	0
 6829 17c1 00       		.byte	0
 6830 17c2 00       		.byte	0
 6831 17c3 3B       		.uleb128 0x3b
 6832 17c4 BB160000 		.4byte	0x16bb
 6833 17c8 0C000000 		.4byte	.LBI276
 6834 17cc 04       		.byte	.LVU111
 6835 17cd 68000000 		.4byte	.Ldebug_ranges0+0x68
 6836 17d1 01       		.byte	0x1
 6837 17d2 C3       		.byte	0xc3
 6838 17d3 09       		.byte	0x9
 6839 17d4 79180000 		.4byte	0x1879
 6840 17d8 13       		.uleb128 0x13
ARM GAS  /tmp/cc9meDp5.s 			page 121


 6841 17d9 D8160000 		.4byte	0x16d8
 6842 17dd F4120000 		.4byte	.LLST18
 6843 17e1 EC120000 		.4byte	.LVUS18
 6844 17e5 13       		.uleb128 0x13
 6845 17e6 CC160000 		.4byte	0x16cc
 6846 17ea 30130000 		.4byte	.LLST19
 6847 17ee 28130000 		.4byte	.LVUS19
 6848 17f2 18       		.uleb128 0x18
 6849 17f3 68000000 		.4byte	.Ldebug_ranges0+0x68
 6850 17f7 20       		.uleb128 0x20
 6851 17f8 ED160000 		.4byte	0x16ed
 6852 17fc 80000000 		.4byte	.Ldebug_ranges0+0x80
 6853 1800 47180000 		.4byte	0x1847
 6854 1804 21       		.uleb128 0x21
 6855 1805 EE160000 		.4byte	0x16ee
 6856 1809 66130000 		.4byte	.LLST20
 6857 180d 64130000 		.4byte	.LVUS20
 6858 1811 31       		.uleb128 0x31
 6859 1812 4B1B0000 		.4byte	0x1b4b
 6860 1816 1A000000 		.4byte	.LBI279
 6861 181a 02       		.byte	.LVU123
 6862 181b A0000000 		.4byte	.Ldebug_ranges0+0xa0
 6863 181f 01       		.byte	0x1
 6864 1820 E7       		.byte	0xe7
 6865 1821 11       		.byte	0x11
 6866 1822 13       		.uleb128 0x13
 6867 1823 6A1B0000 		.4byte	0x1b6a
 6868 1827 83130000 		.4byte	.LLST21
 6869 182b 79130000 		.4byte	.LVUS21
 6870 182f 13       		.uleb128 0x13
 6871 1830 5D1B0000 		.4byte	0x1b5d
 6872 1834 CE130000 		.4byte	.LLST22
 6873 1838 C2130000 		.4byte	.LVUS22
 6874 183c 22       		.uleb128 0x22
 6875 183d 16000000 		.4byte	.LVL25
 6876 1841 0B1E0000 		.4byte	0x1e0b
 6877 1845 00       		.byte	0
 6878 1846 00       		.byte	0
 6879 1847 32       		.uleb128 0x32
 6880 1848 BB160000 		.4byte	0x16bb
 6881 184c 24000000 		.4byte	.LBI286
 6882 1850 00       		.byte	.LVU129
 6883 1851 24000000 		.4byte	.LBB286
 6884 1855 0E000000 		.4byte	.LBE286-.LBB286
 6885 1859 01       		.byte	0x1
 6886 185a DE       		.byte	0xde
 6887 185b 09       		.byte	0x9
 6888 185c 13       		.uleb128 0x13
 6889 185d D8160000 		.4byte	0x16d8
 6890 1861 1A140000 		.4byte	.LLST23
 6891 1865 18140000 		.4byte	.LVUS23
 6892 1869 13       		.uleb128 0x13
 6893 186a CC160000 		.4byte	0x16cc
 6894 186e 2F140000 		.4byte	.LLST24
 6895 1872 2D140000 		.4byte	.LVUS24
 6896 1876 00       		.byte	0
 6897 1877 00       		.byte	0
ARM GAS  /tmp/cc9meDp5.s 			page 122


 6898 1878 00       		.byte	0
 6899 1879 31       		.uleb128 0x31
 6900 187a 941B0000 		.4byte	0x1b94
 6901 187e 32000000 		.4byte	.LBI290
 6902 1882 02       		.byte	.LVU143
 6903 1883 C0000000 		.4byte	.Ldebug_ranges0+0xc0
 6904 1887 01       		.byte	0x1
 6905 1888 C4       		.byte	0xc4
 6906 1889 03       		.byte	0x3
 6907 188a 17       		.uleb128 0x17
 6908 188b C41B0000 		.4byte	0x1bc4
 6909 188f 32000000 		.4byte	.LBI291
 6910 1893 04       		.byte	.LVU145
 6911 1894 F8000000 		.4byte	.Ldebug_ranges0+0xf8
 6912 1898 02       		.byte	0x2
 6913 1899 4A02     		.2byte	0x24a
 6914 189b 03       		.byte	0x3
 6915 189c 18       		.uleb128 0x18
 6916 189d F8000000 		.4byte	.Ldebug_ranges0+0xf8
 6917 18a1 17       		.uleb128 0x17
 6918 18a2 FB1B0000 		.4byte	0x1bfb
 6919 18a6 32000000 		.4byte	.LBI293
 6920 18aa 0B       		.byte	.LVU152
 6921 18ab F8000000 		.4byte	.Ldebug_ranges0+0xf8
 6922 18af 05       		.byte	0x5
 6923 18b0 B201     		.2byte	0x1b2
 6924 18b2 03       		.byte	0x3
 6925 18b3 17       		.uleb128 0x17
 6926 18b4 0F1C0000 		.4byte	0x1c0f
 6927 18b8 32000000 		.4byte	.LBI294
 6928 18bc 0D       		.byte	.LVU154
 6929 18bd 20010000 		.4byte	.Ldebug_ranges0+0x120
 6930 18c1 06       		.byte	0x6
 6931 18c2 4103     		.2byte	0x341
 6932 18c4 03       		.byte	0x3
 6933 18c5 13       		.uleb128 0x13
 6934 18c6 1D1C0000 		.4byte	0x1c1d
 6935 18ca 46140000 		.4byte	.LLST25
 6936 18ce 42140000 		.4byte	.LVUS25
 6937 18d2 00       		.byte	0
 6938 18d3 00       		.byte	0
 6939 18d4 00       		.byte	0
 6940 18d5 00       		.byte	0
 6941 18d6 00       		.byte	0
 6942 18d7 00       		.byte	0
 6943 18d8 34       		.uleb128 0x34
 6944 18d9 11040000 		.4byte	.LASF68
 6945 18dd 01       		.byte	0x1
 6946 18de 94       		.byte	0x94
 6947 18df 06       		.byte	0x6
 6948 18e0 00000000 		.4byte	.LFB403
 6949 18e4 28000000 		.4byte	.LFE403-.LFB403
 6950 18e8 01       		.uleb128 0x1
 6951 18e9 9C       		.byte	0x9c
 6952 18ea 5F190000 		.4byte	0x195f
 6953 18ee 35       		.uleb128 0x35
 6954 18ef 88000000 		.4byte	.LASF60
ARM GAS  /tmp/cc9meDp5.s 			page 123


 6955 18f3 01       		.byte	0x1
 6956 18f4 94       		.byte	0x94
 6957 18f5 30       		.byte	0x30
 6958 18f6 07130000 		.4byte	0x1307
 6959 18fa 6A140000 		.4byte	.LLST11
 6960 18fe 66140000 		.4byte	.LVUS11
 6961 1902 35       		.uleb128 0x35
 6962 1903 E4040000 		.4byte	.LASF44
 6963 1907 01       		.byte	0x1
 6964 1908 94       		.byte	0x94
 6965 1909 3D       		.byte	0x3d
 6966 190a 2C000000 		.4byte	0x2c
 6967 190e 93140000 		.4byte	.LLST12
 6968 1912 8B140000 		.4byte	.LVUS12
 6969 1916 1D       		.uleb128 0x1d
 6970 1917 18030000 		.4byte	.LASF49
 6971 191b 0E0A0000 		.4byte	0xa0e
 6972 191f 32       		.uleb128 0x32
 6973 1920 221B0000 		.4byte	0x1b22
 6974 1924 22000000 		.4byte	.LBI237
 6975 1928 01       		.byte	.LVU89
 6976 1929 22000000 		.4byte	.LBB237
 6977 192d 06000000 		.4byte	.LBE237-.LBB237
 6978 1931 01       		.byte	0x1
 6979 1932 A6       		.byte	0xa6
 6980 1933 03       		.byte	0x3
 6981 1934 2D       		.uleb128 0x2d
 6982 1935 3D1B0000 		.4byte	0x1b3d
 6983 1939 00       		.byte	0
 6984 193a 13       		.uleb128 0x13
 6985 193b 301B0000 		.4byte	0x1b30
 6986 193f D1140000 		.4byte	.LLST13
 6987 1943 CD140000 		.4byte	.LVUS13
 6988 1947 2E       		.uleb128 0x2e
 6989 1948 28000000 		.4byte	.LVL20
 6990 194c 231E0000 		.4byte	0x1e23
 6991 1950 15       		.uleb128 0x15
 6992 1951 01       		.uleb128 0x1
 6993 1952 50       		.byte	0x50
 6994 1953 03       		.uleb128 0x3
 6995 1954 F3       		.byte	0xf3
 6996 1955 01       		.uleb128 0x1
 6997 1956 50       		.byte	0x50
 6998 1957 15       		.uleb128 0x15
 6999 1958 01       		.uleb128 0x1
 7000 1959 51       		.byte	0x51
 7001 195a 01       		.uleb128 0x1
 7002 195b 30       		.byte	0x30
 7003 195c 00       		.byte	0
 7004 195d 00       		.byte	0
 7005 195e 00       		.byte	0
 7006 195f 39       		.uleb128 0x39
 7007 1960 99040000 		.4byte	.LASF69
 7008 1964 01       		.byte	0x1
 7009 1965 81       		.byte	0x81
 7010 1966 0A       		.byte	0xa
 7011 1967 5E010000 		.4byte	0x15e
ARM GAS  /tmp/cc9meDp5.s 			page 124


 7012 196b 00000000 		.4byte	.LFB402
 7013 196f 16000000 		.4byte	.LFE402-.LFB402
 7014 1973 01       		.uleb128 0x1
 7015 1974 9C       		.byte	0x9c
 7016 1975 8E190000 		.4byte	0x198e
 7017 1979 35       		.uleb128 0x35
 7018 197a 88000000 		.4byte	.LASF60
 7019 197e 01       		.byte	0x1
 7020 197f 81       		.byte	0x81
 7021 1980 34       		.byte	0x34
 7022 1981 07130000 		.4byte	0x1307
 7023 1985 FA140000 		.4byte	.LLST10
 7024 1989 F2140000 		.4byte	.LVUS10
 7025 198d 00       		.byte	0
 7026 198e 34       		.uleb128 0x34
 7027 198f DD030000 		.4byte	.LASF70
 7028 1993 01       		.byte	0x1
 7029 1994 6B       		.byte	0x6b
 7030 1995 06       		.byte	0x6
 7031 1996 00000000 		.4byte	.LFB401
 7032 199a 16000000 		.4byte	.LFE401-.LFB401
 7033 199e 01       		.uleb128 0x1
 7034 199f 9C       		.byte	0x9c
 7035 19a0 F1190000 		.4byte	0x19f1
 7036 19a4 35       		.uleb128 0x35
 7037 19a5 88000000 		.4byte	.LASF60
 7038 19a9 01       		.byte	0x1
 7039 19aa 6B       		.byte	0x6b
 7040 19ab 27       		.byte	0x27
 7041 19ac 07130000 		.4byte	0x1307
 7042 19b0 38150000 		.4byte	.LLST9
 7043 19b4 34150000 		.4byte	.LVUS9
 7044 19b8 32       		.uleb128 0x32
 7045 19b9 F31A0000 		.4byte	0x1af3
 7046 19bd 0E000000 		.4byte	.LBI235
 7047 19c1 03       		.byte	.LVU48
 7048 19c2 0E000000 		.4byte	.LBB235
 7049 19c6 08000000 		.4byte	.LBE235-.LBB235
 7050 19ca 01       		.byte	0x1
 7051 19cb 74       		.byte	0x74
 7052 19cc 03       		.byte	0x3
 7053 19cd 30       		.uleb128 0x30
 7054 19ce 0E1B0000 		.4byte	0x1b0e
 7055 19d2 7E       		.sleb128 -2
 7056 19d3 1F       		.uleb128 0x1f
 7057 19d4 011B0000 		.4byte	0x1b01
 7058 19d8 2E       		.uleb128 0x2e
 7059 19d9 16000000 		.4byte	.LVL10
 7060 19dd 301E0000 		.4byte	0x1e30
 7061 19e1 15       		.uleb128 0x15
 7062 19e2 01       		.uleb128 0x1
 7063 19e3 50       		.byte	0x50
 7064 19e4 03       		.uleb128 0x3
 7065 19e5 F3       		.byte	0xf3
 7066 19e6 01       		.uleb128 0x1
 7067 19e7 50       		.byte	0x50
 7068 19e8 15       		.uleb128 0x15
ARM GAS  /tmp/cc9meDp5.s 			page 125


 7069 19e9 01       		.uleb128 0x1
 7070 19ea 51       		.byte	0x51
 7071 19eb 02       		.uleb128 0x2
 7072 19ec 09       		.byte	0x9
 7073 19ed FE       		.byte	0xfe
 7074 19ee 00       		.byte	0
 7075 19ef 00       		.byte	0
 7076 19f0 00       		.byte	0
 7077 19f1 34       		.uleb128 0x34
 7078 19f2 C3040000 		.4byte	.LASF71
 7079 19f6 01       		.byte	0x1
 7080 19f7 4C       		.byte	0x4c
 7081 19f8 06       		.byte	0x6
 7082 19f9 00000000 		.4byte	.LFB400
 7083 19fd 30000000 		.4byte	.LFE400-.LFB400
 7084 1a01 01       		.uleb128 0x1
 7085 1a02 9C       		.byte	0x9c
 7086 1a03 F31A0000 		.4byte	0x1af3
 7087 1a07 3C       		.uleb128 0x3c
 7088 1a08 88000000 		.4byte	.LASF60
 7089 1a0c 01       		.byte	0x1
 7090 1a0d 4C       		.byte	0x4c
 7091 1a0e 2B       		.byte	0x2b
 7092 1a0f 07130000 		.4byte	0x1307
 7093 1a13 01       		.uleb128 0x1
 7094 1a14 50       		.byte	0x50
 7095 1a15 35       		.uleb128 0x35
 7096 1a16 FA030000 		.4byte	.LASF31
 7097 1a1a 01       		.byte	0x1
 7098 1a1b 4C       		.byte	0x4c
 7099 1a1c 36       		.byte	0x36
 7100 1a1d 57010000 		.4byte	0x157
 7101 1a21 5D150000 		.4byte	.LLST0
 7102 1a25 59150000 		.4byte	.LVUS0
 7103 1a29 3D       		.uleb128 0x3d
 7104 1a2a 627000   		.ascii	"bp\000"
 7105 1a2d 01       		.byte	0x1
 7106 1a2e 4C       		.byte	0x4c
 7107 1a2f 4A       		.byte	0x4a
 7108 1a30 5E010000 		.4byte	0x15e
 7109 1a34 80150000 		.4byte	.LLST1
 7110 1a38 7C150000 		.4byte	.LVUS1
 7111 1a3c 35       		.uleb128 0x35
 7112 1a3d E4040000 		.4byte	.LASF44
 7113 1a41 01       		.byte	0x1
 7114 1a42 4D       		.byte	0x4d
 7115 1a43 1B       		.byte	0x1b
 7116 1a44 2C000000 		.4byte	0x2c
 7117 1a48 A5150000 		.4byte	.LLST2
 7118 1a4c 9F150000 		.4byte	.LVUS2
 7119 1a50 3D       		.uleb128 0x3d
 7120 1a51 6E00     		.ascii	"n\000"
 7121 1a53 01       		.byte	0x1
 7122 1a54 4D       		.byte	0x4d
 7123 1a55 28       		.byte	0x28
 7124 1a56 2C000000 		.4byte	0x2c
 7125 1a5a D9150000 		.4byte	.LLST3
ARM GAS  /tmp/cc9meDp5.s 			page 126


 7126 1a5e D5150000 		.4byte	.LVUS3
 7127 1a62 35       		.uleb128 0x35
 7128 1a63 37050000 		.4byte	.LASF72
 7129 1a67 01       		.byte	0x1
 7130 1a68 4D       		.byte	0x4d
 7131 1a69 36       		.byte	0x36
 7132 1a6a 2C020000 		.4byte	0x22c
 7133 1a6e FD150000 		.4byte	.LLST4
 7134 1a72 F9150000 		.4byte	.LVUS4
 7135 1a76 35       		.uleb128 0x35
 7136 1a77 2E010000 		.4byte	.LASF39
 7137 1a7b 01       		.byte	0x1
 7138 1a7c 4D       		.byte	0x4d
 7139 1a7d 42       		.byte	0x42
 7140 1a7e A7000000 		.4byte	0xa7
 7141 1a82 21160000 		.4byte	.LLST5
 7142 1a86 1D160000 		.4byte	.LVUS5
 7143 1a8a 1D       		.uleb128 0x1d
 7144 1a8b 18030000 		.4byte	.LASF49
 7145 1a8f D30F0000 		.4byte	0xfd3
 7146 1a93 31       		.uleb128 0x31
 7147 1a94 781B0000 		.4byte	0x1b78
 7148 1a98 04000000 		.4byte	.LBI224
 7149 1a9c 00       		.byte	.LVU7
 7150 1a9d 00000000 		.4byte	.Ldebug_ranges0+0
 7151 1aa1 01       		.byte	0x1
 7152 1aa2 51       		.byte	0x51
 7153 1aa3 03       		.byte	0x3
 7154 1aa4 13       		.uleb128 0x13
 7155 1aa5 861B0000 		.4byte	0x1b86
 7156 1aa9 43160000 		.4byte	.LLST6
 7157 1aad 41160000 		.4byte	.LVUS6
 7158 1ab1 17       		.uleb128 0x17
 7159 1ab2 A81B0000 		.4byte	0x1ba8
 7160 1ab6 04000000 		.4byte	.LBI225
 7161 1aba 02       		.byte	.LVU9
 7162 1abb 08000000 		.4byte	.Ldebug_ranges0+0x8
 7163 1abf 02       		.byte	0x2
 7164 1ac0 6203     		.2byte	0x362
 7165 1ac2 03       		.byte	0x3
 7166 1ac3 13       		.uleb128 0x13
 7167 1ac4 B61B0000 		.4byte	0x1bb6
 7168 1ac8 58160000 		.4byte	.LLST7
 7169 1acc 56160000 		.4byte	.LVUS7
 7170 1ad0 17       		.uleb128 0x17
 7171 1ad1 2B1C0000 		.4byte	0x1c2b
 7172 1ad5 04000000 		.4byte	.LBI227
 7173 1ad9 04       		.byte	.LVU11
 7174 1ada 20000000 		.4byte	.Ldebug_ranges0+0x20
 7175 1ade 03       		.byte	0x3
 7176 1adf CF01     		.2byte	0x1cf
 7177 1ae1 03       		.byte	0x3
 7178 1ae2 13       		.uleb128 0x13
 7179 1ae3 381C0000 		.4byte	0x1c38
 7180 1ae7 6D160000 		.4byte	.LLST8
 7181 1aeb 6B160000 		.4byte	.LVUS8
 7182 1aef 00       		.byte	0
ARM GAS  /tmp/cc9meDp5.s 			page 127


 7183 1af0 00       		.byte	0
 7184 1af1 00       		.byte	0
 7185 1af2 00       		.byte	0
 7186 1af3 3E       		.uleb128 0x3e
 7187 1af4 F8010000 		.4byte	.LASF73
 7188 1af8 02       		.byte	0x2
 7189 1af9 9703     		.2byte	0x397
 7190 1afb 14       		.byte	0x14
 7191 1afc 03       		.byte	0x3
 7192 1afd 1C1B0000 		.4byte	0x1b1c
 7193 1b01 3F       		.uleb128 0x3f
 7194 1b02 74717000 		.ascii	"tqp\000"
 7195 1b06 02       		.byte	0x2
 7196 1b07 9703     		.2byte	0x397
 7197 1b09 3B       		.byte	0x3b
 7198 1b0a 1C1B0000 		.4byte	0x1b1c
 7199 1b0e 3F       		.uleb128 0x3f
 7200 1b0f 6D736700 		.ascii	"msg\000"
 7201 1b13 02       		.byte	0x2
 7202 1b14 9703     		.2byte	0x397
 7203 1b16 46       		.byte	0x46
 7204 1b17 DE000000 		.4byte	0xde
 7205 1b1b 00       		.byte	0
 7206 1b1c 0A       		.uleb128 0xa
 7207 1b1d 04       		.byte	0x4
 7208 1b1e 4B010000 		.4byte	0x14b
 7209 1b22 3E       		.uleb128 0x3e
 7210 1b23 BB000000 		.4byte	.LASF74
 7211 1b27 02       		.byte	0x2
 7212 1b28 8A03     		.2byte	0x38a
 7213 1b2a 14       		.byte	0x14
 7214 1b2b 03       		.byte	0x3
 7215 1b2c 4B1B0000 		.4byte	0x1b4b
 7216 1b30 3F       		.uleb128 0x3f
 7217 1b31 74717000 		.ascii	"tqp\000"
 7218 1b35 02       		.byte	0x2
 7219 1b36 8A03     		.2byte	0x38a
 7220 1b38 3C       		.byte	0x3c
 7221 1b39 1C1B0000 		.4byte	0x1b1c
 7222 1b3d 3F       		.uleb128 0x3f
 7223 1b3e 6D736700 		.ascii	"msg\000"
 7224 1b42 02       		.byte	0x2
 7225 1b43 8A03     		.2byte	0x38a
 7226 1b45 47       		.byte	0x47
 7227 1b46 DE000000 		.4byte	0xde
 7228 1b4a 00       		.byte	0
 7229 1b4b 40       		.uleb128 0x40
 7230 1b4c 00000000 		.4byte	.LASF92
 7231 1b50 02       		.byte	0x2
 7232 1b51 7C03     		.2byte	0x37c
 7233 1b53 15       		.byte	0x15
 7234 1b54 DE000000 		.4byte	0xde
 7235 1b58 03       		.byte	0x3
 7236 1b59 781B0000 		.4byte	0x1b78
 7237 1b5d 3F       		.uleb128 0x3f
 7238 1b5e 74717000 		.ascii	"tqp\000"
 7239 1b62 02       		.byte	0x2
ARM GAS  /tmp/cc9meDp5.s 			page 128


 7240 1b63 7C03     		.2byte	0x37c
 7241 1b65 40       		.byte	0x40
 7242 1b66 1C1B0000 		.4byte	0x1b1c
 7243 1b6a 28       		.uleb128 0x28
 7244 1b6b A2050000 		.4byte	.LASF47
 7245 1b6f 02       		.byte	0x2
 7246 1b70 7D03     		.2byte	0x37d
 7247 1b72 3D       		.byte	0x3d
 7248 1b73 EA000000 		.4byte	0xea
 7249 1b77 00       		.byte	0
 7250 1b78 3E       		.uleb128 0x3e
 7251 1b79 A1000000 		.4byte	.LASF75
 7252 1b7d 02       		.byte	0x2
 7253 1b7e 6003     		.2byte	0x360
 7254 1b80 14       		.byte	0x14
 7255 1b81 03       		.byte	0x3
 7256 1b82 941B0000 		.4byte	0x1b94
 7257 1b86 3F       		.uleb128 0x3f
 7258 1b87 74717000 		.ascii	"tqp\000"
 7259 1b8b 02       		.byte	0x2
 7260 1b8c 6003     		.2byte	0x360
 7261 1b8e 3F       		.byte	0x3f
 7262 1b8f 1C1B0000 		.4byte	0x1b1c
 7263 1b93 00       		.byte	0
 7264 1b94 41       		.uleb128 0x41
 7265 1b95 7A000000 		.4byte	.LASF76
 7266 1b99 02       		.byte	0x2
 7267 1b9a 4802     		.2byte	0x248
 7268 1b9c 14       		.byte	0x14
 7269 1b9d 03       		.byte	0x3
 7270 1b9e 41       		.uleb128 0x41
 7271 1b9f FE020000 		.4byte	.LASF77
 7272 1ba3 02       		.byte	0x2
 7273 1ba4 3D02     		.2byte	0x23d
 7274 1ba6 14       		.byte	0x14
 7275 1ba7 03       		.byte	0x3
 7276 1ba8 3E       		.uleb128 0x3e
 7277 1ba9 5E040000 		.4byte	.LASF78
 7278 1bad 03       		.byte	0x3
 7279 1bae CD01     		.2byte	0x1cd
 7280 1bb0 14       		.byte	0x14
 7281 1bb1 03       		.byte	0x3
 7282 1bb2 C41B0000 		.4byte	0x1bc4
 7283 1bb6 3F       		.uleb128 0x3f
 7284 1bb7 74717000 		.ascii	"tqp\000"
 7285 1bbb 03       		.byte	0x3
 7286 1bbc CD01     		.2byte	0x1cd
 7287 1bbe 3A       		.byte	0x3a
 7288 1bbf 1C1B0000 		.4byte	0x1b1c
 7289 1bc3 00       		.byte	0
 7290 1bc4 3E       		.uleb128 0x3e
 7291 1bc5 E9040000 		.4byte	.LASF79
 7292 1bc9 05       		.byte	0x5
 7293 1bca A501     		.2byte	0x1a5
 7294 1bcc 14       		.byte	0x14
 7295 1bcd 03       		.byte	0x3
 7296 1bce DC1B0000 		.4byte	0x1bdc
ARM GAS  /tmp/cc9meDp5.s 			page 129


 7297 1bd2 1D       		.uleb128 0x1d
 7298 1bd3 18030000 		.4byte	.LASF49
 7299 1bd7 EC1B0000 		.4byte	0x1bec
 7300 1bdb 00       		.byte	0
 7301 1bdc 24       		.uleb128 0x24
 7302 1bdd B0000000 		.4byte	0xb0
 7303 1be1 EC1B0000 		.4byte	0x1bec
 7304 1be5 25       		.uleb128 0x25
 7305 1be6 3D000000 		.4byte	0x3d
 7306 1bea 0B       		.byte	0xb
 7307 1beb 00       		.byte	0
 7308 1bec 07       		.uleb128 0x7
 7309 1bed DC1B0000 		.4byte	0x1bdc
 7310 1bf1 41       		.uleb128 0x41
 7311 1bf2 97000000 		.4byte	.LASF80
 7312 1bf6 05       		.byte	0x5
 7313 1bf7 9701     		.2byte	0x197
 7314 1bf9 14       		.byte	0x14
 7315 1bfa 03       		.byte	0x3
 7316 1bfb 41       		.uleb128 0x41
 7317 1bfc 3F040000 		.4byte	.LASF81
 7318 1c00 06       		.byte	0x6
 7319 1c01 3E03     		.2byte	0x33e
 7320 1c03 1B       		.byte	0x1b
 7321 1c04 03       		.byte	0x3
 7322 1c05 41       		.uleb128 0x41
 7323 1c06 8D000000 		.4byte	.LASF82
 7324 1c0a 06       		.byte	0x6
 7325 1c0b 2603     		.2byte	0x326
 7326 1c0d 1B       		.byte	0x1b
 7327 1c0e 03       		.byte	0x3
 7328 1c0f 3E       		.uleb128 0x3e
 7329 1c10 6B050000 		.4byte	.LASF83
 7330 1c14 07       		.byte	0x7
 7331 1c15 EB01     		.2byte	0x1eb
 7332 1c17 1B       		.byte	0x1b
 7333 1c18 03       		.byte	0x3
 7334 1c19 2B1C0000 		.4byte	0x1c2b
 7335 1c1d 28       		.uleb128 0x28
 7336 1c1e 04040000 		.4byte	.LASF84
 7337 1c22 07       		.byte	0x7
 7338 1c23 EB01     		.2byte	0x1eb
 7339 1c25 32       		.byte	0x32
 7340 1c26 D2000000 		.4byte	0xd2
 7341 1c2a 00       		.byte	0
 7342 1c2b 42       		.uleb128 0x42
 7343 1c2c F5040000 		.4byte	.LASF85
 7344 1c30 04       		.byte	0x4
 7345 1c31 DE       		.byte	0xde
 7346 1c32 14       		.byte	0x14
 7347 1c33 03       		.byte	0x3
 7348 1c34 441C0000 		.4byte	0x1c44
 7349 1c38 43       		.uleb128 0x43
 7350 1c39 717000   		.ascii	"qp\000"
 7351 1c3c 04       		.byte	0x4
 7352 1c3d DE       		.byte	0xde
 7353 1c3e 2E       		.byte	0x2e
ARM GAS  /tmp/cc9meDp5.s 			page 130


 7354 1c3f 2A010000 		.4byte	0x12a
 7355 1c43 00       		.byte	0
 7356 1c44 44       		.uleb128 0x44
 7357 1c45 BB160000 		.4byte	0x16bb
 7358 1c49 00000000 		.4byte	.LFB405
 7359 1c4d 34000000 		.4byte	.LFE405-.LFB405
 7360 1c51 01       		.uleb128 0x1
 7361 1c52 9C       		.byte	0x9c
 7362 1c53 F21C0000 		.4byte	0x1cf2
 7363 1c57 13       		.uleb128 0x13
 7364 1c58 CC160000 		.4byte	0x16cc
 7365 1c5c 8C160000 		.4byte	.LLST26
 7366 1c60 80160000 		.4byte	.LVUS26
 7367 1c64 13       		.uleb128 0x13
 7368 1c65 D8160000 		.4byte	0x16d8
 7369 1c69 E0160000 		.4byte	.LLST27
 7370 1c6d D6160000 		.4byte	.LVUS27
 7371 1c71 20       		.uleb128 0x20
 7372 1c72 ED160000 		.4byte	0x16ed
 7373 1c76 38010000 		.4byte	.Ldebug_ranges0+0x138
 7374 1c7a C11C0000 		.4byte	0x1cc1
 7375 1c7e 21       		.uleb128 0x21
 7376 1c7f EE160000 		.4byte	0x16ee
 7377 1c83 21170000 		.4byte	.LLST28
 7378 1c87 1F170000 		.4byte	.LVUS28
 7379 1c8b 31       		.uleb128 0x31
 7380 1c8c 4B1B0000 		.4byte	0x1b4b
 7381 1c90 14000000 		.4byte	.LBI325
 7382 1c94 02       		.byte	.LVU194
 7383 1c95 58010000 		.4byte	.Ldebug_ranges0+0x158
 7384 1c99 01       		.byte	0x1
 7385 1c9a E7       		.byte	0xe7
 7386 1c9b 11       		.byte	0x11
 7387 1c9c 13       		.uleb128 0x13
 7388 1c9d 6A1B0000 		.4byte	0x1b6a
 7389 1ca1 3E170000 		.4byte	.LLST29
 7390 1ca5 34170000 		.4byte	.LVUS29
 7391 1ca9 13       		.uleb128 0x13
 7392 1caa 5D1B0000 		.4byte	0x1b5d
 7393 1cae 89170000 		.4byte	.LLST30
 7394 1cb2 7D170000 		.4byte	.LVUS30
 7395 1cb6 22       		.uleb128 0x22
 7396 1cb7 10000000 		.4byte	.LVL36
 7397 1cbb 0B1E0000 		.4byte	0x1e0b
 7398 1cbf 00       		.byte	0
 7399 1cc0 00       		.byte	0
 7400 1cc1 32       		.uleb128 0x32
 7401 1cc2 BB160000 		.4byte	0x16bb
 7402 1cc6 1E000000 		.4byte	.LBI332
 7403 1cca 00       		.byte	.LVU200
 7404 1ccb 1E000000 		.4byte	.LBB332
 7405 1ccf 0E000000 		.4byte	.LBE332-.LBB332
 7406 1cd3 01       		.byte	0x1
 7407 1cd4 DE       		.byte	0xde
 7408 1cd5 09       		.byte	0x9
 7409 1cd6 13       		.uleb128 0x13
 7410 1cd7 D8160000 		.4byte	0x16d8
ARM GAS  /tmp/cc9meDp5.s 			page 131


 7411 1cdb D5170000 		.4byte	.LLST31
 7412 1cdf D3170000 		.4byte	.LVUS31
 7413 1ce3 13       		.uleb128 0x13
 7414 1ce4 CC160000 		.4byte	0x16cc
 7415 1ce8 EA170000 		.4byte	.LLST32
 7416 1cec E8170000 		.4byte	.LVUS32
 7417 1cf0 00       		.byte	0
 7418 1cf1 00       		.byte	0
 7419 1cf2 44       		.uleb128 0x44
 7420 1cf3 76150000 		.4byte	0x1576
 7421 1cf7 00000000 		.4byte	.LFB407
 7422 1cfb 26000000 		.4byte	.LFE407-.LFB407
 7423 1cff 01       		.uleb128 0x1
 7424 1d00 9C       		.byte	0x9c
 7425 1d01 201D0000 		.4byte	0x1d20
 7426 1d05 13       		.uleb128 0x13
 7427 1d06 84150000 		.4byte	0x1584
 7428 1d0a 03180000 		.4byte	.LLST37
 7429 1d0e FD170000 		.4byte	.LVUS37
 7430 1d12 45       		.uleb128 0x45
 7431 1d13 24000000 		.4byte	.LVL48
 7432 1d17 15       		.uleb128 0x15
 7433 1d18 01       		.uleb128 0x1
 7434 1d19 50       		.byte	0x50
 7435 1d1a 03       		.uleb128 0x3
 7436 1d1b F3       		.byte	0xf3
 7437 1d1c 01       		.uleb128 0x1
 7438 1d1d 50       		.byte	0x50
 7439 1d1e 00       		.byte	0
 7440 1d1f 00       		.byte	0
 7441 1d20 44       		.uleb128 0x44
 7442 1d21 570B0000 		.4byte	0xb57
 7443 1d25 00000000 		.4byte	.LFB415
 7444 1d29 34000000 		.4byte	.LFE415-.LFB415
 7445 1d2d 01       		.uleb128 0x1
 7446 1d2e 9C       		.byte	0x9c
 7447 1d2f D01D0000 		.4byte	0x1dd0
 7448 1d33 13       		.uleb128 0x13
 7449 1d34 690B0000 		.4byte	0xb69
 7450 1d38 3B180000 		.4byte	.LLST91
 7451 1d3c 2F180000 		.4byte	.LVUS91
 7452 1d40 13       		.uleb128 0x13
 7453 1d41 760B0000 		.4byte	0xb76
 7454 1d45 8F180000 		.4byte	.LLST92
 7455 1d49 85180000 		.4byte	.LVUS92
 7456 1d4d 20       		.uleb128 0x20
 7457 1d4e 8C0B0000 		.4byte	0xb8c
 7458 1d52 58060000 		.4byte	.Ldebug_ranges0+0x658
 7459 1d56 9E1D0000 		.4byte	0x1d9e
 7460 1d5a 21       		.uleb128 0x21
 7461 1d5b 8D0B0000 		.4byte	0xb8d
 7462 1d5f D0180000 		.4byte	.LLST93
 7463 1d63 CE180000 		.4byte	.LVUS93
 7464 1d67 17       		.uleb128 0x17
 7465 1d68 4B1B0000 		.4byte	0x1b4b
 7466 1d6c 14000000 		.4byte	.LBI696
 7467 1d70 02       		.byte	.LVU788
ARM GAS  /tmp/cc9meDp5.s 			page 132


 7468 1d71 78060000 		.4byte	.Ldebug_ranges0+0x678
 7469 1d75 01       		.byte	0x1
 7470 1d76 4A02     		.2byte	0x24a
 7471 1d78 11       		.byte	0x11
 7472 1d79 13       		.uleb128 0x13
 7473 1d7a 6A1B0000 		.4byte	0x1b6a
 7474 1d7e EF180000 		.4byte	.LLST94
 7475 1d82 E3180000 		.4byte	.LVUS94
 7476 1d86 13       		.uleb128 0x13
 7477 1d87 5D1B0000 		.4byte	0x1b5d
 7478 1d8b 45190000 		.4byte	.LLST95
 7479 1d8f 39190000 		.4byte	.LVUS95
 7480 1d93 22       		.uleb128 0x22
 7481 1d94 10000000 		.4byte	.LVL127
 7482 1d98 0B1E0000 		.4byte	0x1e0b
 7483 1d9c 00       		.byte	0
 7484 1d9d 00       		.byte	0
 7485 1d9e 12       		.uleb128 0x12
 7486 1d9f 570B0000 		.4byte	0xb57
 7487 1da3 1E000000 		.4byte	.LBI703
 7488 1da7 00       		.byte	.LVU794
 7489 1da8 1E000000 		.4byte	.LBB703
 7490 1dac 0E000000 		.4byte	.LBE703-.LBB703
 7491 1db0 01       		.byte	0x1
 7492 1db1 4102     		.2byte	0x241
 7493 1db3 07       		.byte	0x7
 7494 1db4 13       		.uleb128 0x13
 7495 1db5 760B0000 		.4byte	0xb76
 7496 1db9 93190000 		.4byte	.LLST96
 7497 1dbd 8F190000 		.4byte	.LVUS96
 7498 1dc1 13       		.uleb128 0x13
 7499 1dc2 690B0000 		.4byte	0xb69
 7500 1dc6 B3190000 		.4byte	.LLST97
 7501 1dca B1190000 		.4byte	.LVUS97
 7502 1dce 00       		.byte	0
 7503 1dcf 00       		.byte	0
 7504 1dd0 44       		.uleb128 0x44
 7505 1dd1 CC090000 		.4byte	0x9cc
 7506 1dd5 00000000 		.4byte	.LFB417
 7507 1dd9 2C000000 		.4byte	.LFE417-.LFB417
 7508 1ddd 01       		.uleb128 0x1
 7509 1dde 9C       		.byte	0x9c
 7510 1ddf 0B1E0000 		.4byte	0x1e0b
 7511 1de3 13       		.uleb128 0x13
 7512 1de4 DA090000 		.4byte	0x9da
 7513 1de8 CC190000 		.4byte	.LLST104
 7514 1dec C6190000 		.4byte	.LVUS104
 7515 1df0 13       		.uleb128 0x13
 7516 1df1 E7090000 		.4byte	0x9e7
 7517 1df5 001A0000 		.4byte	.LLST105
 7518 1df9 F8190000 		.4byte	.LVUS105
 7519 1dfd 45       		.uleb128 0x45
 7520 1dfe 28000000 		.4byte	.LVL146
 7521 1e02 15       		.uleb128 0x15
 7522 1e03 01       		.uleb128 0x1
 7523 1e04 50       		.byte	0x50
 7524 1e05 03       		.uleb128 0x3
ARM GAS  /tmp/cc9meDp5.s 			page 133


 7525 1e06 F3       		.byte	0xf3
 7526 1e07 01       		.uleb128 0x1
 7527 1e08 50       		.byte	0x50
 7528 1e09 00       		.byte	0
 7529 1e0a 00       		.byte	0
 7530 1e0b 46       		.uleb128 0x46
 7531 1e0c 6E010000 		.4byte	.LASF86
 7532 1e10 6E010000 		.4byte	.LASF86
 7533 1e14 03       		.byte	0x3
 7534 1e15 3F01     		.2byte	0x13f
 7535 1e17 09       		.byte	0x9
 7536 1e18 47       		.uleb128 0x47
 7537 1e19 D2000000 		.4byte	.LASF93
 7538 1e1d 58000000 		.4byte	.LASF94
 7539 1e21 0F       		.byte	0xf
 7540 1e22 00       		.byte	0
 7541 1e23 46       		.uleb128 0x46
 7542 1e24 3C050000 		.4byte	.LASF87
 7543 1e28 3C050000 		.4byte	.LASF87
 7544 1e2c 03       		.byte	0x3
 7545 1e2d 4001     		.2byte	0x140
 7546 1e2f 08       		.byte	0x8
 7547 1e30 46       		.uleb128 0x46
 7548 1e31 69000000 		.4byte	.LASF88
 7549 1e35 69000000 		.4byte	.LASF88
 7550 1e39 03       		.byte	0x3
 7551 1e3a 4101     		.2byte	0x141
 7552 1e3c 08       		.byte	0x8
 7553 1e3d 00       		.byte	0
 7554              		.section	.debug_abbrev,"",%progbits
 7555              	.Ldebug_abbrev0:
 7556 0000 01       		.uleb128 0x1
 7557 0001 11       		.uleb128 0x11
 7558 0002 01       		.byte	0x1
 7559 0003 25       		.uleb128 0x25
 7560 0004 0E       		.uleb128 0xe
 7561 0005 13       		.uleb128 0x13
 7562 0006 0B       		.uleb128 0xb
 7563 0007 03       		.uleb128 0x3
 7564 0008 0E       		.uleb128 0xe
 7565 0009 1B       		.uleb128 0x1b
 7566 000a 0E       		.uleb128 0xe
 7567 000b 55       		.uleb128 0x55
 7568 000c 17       		.uleb128 0x17
 7569 000d 11       		.uleb128 0x11
 7570 000e 01       		.uleb128 0x1
 7571 000f 10       		.uleb128 0x10
 7572 0010 17       		.uleb128 0x17
 7573 0011 00       		.byte	0
 7574 0012 00       		.byte	0
 7575 0013 02       		.uleb128 0x2
 7576 0014 24       		.uleb128 0x24
 7577 0015 00       		.byte	0
 7578 0016 0B       		.uleb128 0xb
 7579 0017 0B       		.uleb128 0xb
 7580 0018 3E       		.uleb128 0x3e
 7581 0019 0B       		.uleb128 0xb
ARM GAS  /tmp/cc9meDp5.s 			page 134


 7582 001a 03       		.uleb128 0x3
 7583 001b 08       		.uleb128 0x8
 7584 001c 00       		.byte	0
 7585 001d 00       		.byte	0
 7586 001e 03       		.uleb128 0x3
 7587 001f 16       		.uleb128 0x16
 7588 0020 00       		.byte	0
 7589 0021 03       		.uleb128 0x3
 7590 0022 0E       		.uleb128 0xe
 7591 0023 3A       		.uleb128 0x3a
 7592 0024 0B       		.uleb128 0xb
 7593 0025 3B       		.uleb128 0x3b
 7594 0026 0B       		.uleb128 0xb
 7595 0027 39       		.uleb128 0x39
 7596 0028 0B       		.uleb128 0xb
 7597 0029 49       		.uleb128 0x49
 7598 002a 13       		.uleb128 0x13
 7599 002b 00       		.byte	0
 7600 002c 00       		.byte	0
 7601 002d 04       		.uleb128 0x4
 7602 002e 35       		.uleb128 0x35
 7603 002f 00       		.byte	0
 7604 0030 49       		.uleb128 0x49
 7605 0031 13       		.uleb128 0x13
 7606 0032 00       		.byte	0
 7607 0033 00       		.byte	0
 7608 0034 05       		.uleb128 0x5
 7609 0035 24       		.uleb128 0x24
 7610 0036 00       		.byte	0
 7611 0037 0B       		.uleb128 0xb
 7612 0038 0B       		.uleb128 0xb
 7613 0039 3E       		.uleb128 0x3e
 7614 003a 0B       		.uleb128 0xb
 7615 003b 03       		.uleb128 0x3
 7616 003c 0E       		.uleb128 0xe
 7617 003d 00       		.byte	0
 7618 003e 00       		.byte	0
 7619 003f 06       		.uleb128 0x6
 7620 0040 0F       		.uleb128 0xf
 7621 0041 00       		.byte	0
 7622 0042 0B       		.uleb128 0xb
 7623 0043 0B       		.uleb128 0xb
 7624 0044 00       		.byte	0
 7625 0045 00       		.byte	0
 7626 0046 07       		.uleb128 0x7
 7627 0047 26       		.uleb128 0x26
 7628 0048 00       		.byte	0
 7629 0049 49       		.uleb128 0x49
 7630 004a 13       		.uleb128 0x13
 7631 004b 00       		.byte	0
 7632 004c 00       		.byte	0
 7633 004d 08       		.uleb128 0x8
 7634 004e 13       		.uleb128 0x13
 7635 004f 01       		.byte	0x1
 7636 0050 03       		.uleb128 0x3
 7637 0051 0E       		.uleb128 0xe
 7638 0052 0B       		.uleb128 0xb
ARM GAS  /tmp/cc9meDp5.s 			page 135


 7639 0053 0B       		.uleb128 0xb
 7640 0054 3A       		.uleb128 0x3a
 7641 0055 0B       		.uleb128 0xb
 7642 0056 3B       		.uleb128 0x3b
 7643 0057 0B       		.uleb128 0xb
 7644 0058 39       		.uleb128 0x39
 7645 0059 0B       		.uleb128 0xb
 7646 005a 01       		.uleb128 0x1
 7647 005b 13       		.uleb128 0x13
 7648 005c 00       		.byte	0
 7649 005d 00       		.byte	0
 7650 005e 09       		.uleb128 0x9
 7651 005f 0D       		.uleb128 0xd
 7652 0060 00       		.byte	0
 7653 0061 03       		.uleb128 0x3
 7654 0062 0E       		.uleb128 0xe
 7655 0063 3A       		.uleb128 0x3a
 7656 0064 0B       		.uleb128 0xb
 7657 0065 3B       		.uleb128 0x3b
 7658 0066 0B       		.uleb128 0xb
 7659 0067 39       		.uleb128 0x39
 7660 0068 0B       		.uleb128 0xb
 7661 0069 49       		.uleb128 0x49
 7662 006a 13       		.uleb128 0x13
 7663 006b 38       		.uleb128 0x38
 7664 006c 0B       		.uleb128 0xb
 7665 006d 00       		.byte	0
 7666 006e 00       		.byte	0
 7667 006f 0A       		.uleb128 0xa
 7668 0070 0F       		.uleb128 0xf
 7669 0071 00       		.byte	0
 7670 0072 0B       		.uleb128 0xb
 7671 0073 0B       		.uleb128 0xb
 7672 0074 49       		.uleb128 0x49
 7673 0075 13       		.uleb128 0x13
 7674 0076 00       		.byte	0
 7675 0077 00       		.byte	0
 7676 0078 0B       		.uleb128 0xb
 7677 0079 0D       		.uleb128 0xd
 7678 007a 00       		.byte	0
 7679 007b 03       		.uleb128 0x3
 7680 007c 08       		.uleb128 0x8
 7681 007d 3A       		.uleb128 0x3a
 7682 007e 0B       		.uleb128 0xb
 7683 007f 3B       		.uleb128 0x3b
 7684 0080 0B       		.uleb128 0xb
 7685 0081 39       		.uleb128 0x39
 7686 0082 0B       		.uleb128 0xb
 7687 0083 49       		.uleb128 0x49
 7688 0084 13       		.uleb128 0x13
 7689 0085 38       		.uleb128 0x38
 7690 0086 0B       		.uleb128 0xb
 7691 0087 00       		.byte	0
 7692 0088 00       		.byte	0
 7693 0089 0C       		.uleb128 0xc
 7694 008a 15       		.uleb128 0x15
 7695 008b 01       		.byte	0x1
ARM GAS  /tmp/cc9meDp5.s 			page 136


 7696 008c 27       		.uleb128 0x27
 7697 008d 19       		.uleb128 0x19
 7698 008e 01       		.uleb128 0x1
 7699 008f 13       		.uleb128 0x13
 7700 0090 00       		.byte	0
 7701 0091 00       		.byte	0
 7702 0092 0D       		.uleb128 0xd
 7703 0093 05       		.uleb128 0x5
 7704 0094 00       		.byte	0
 7705 0095 49       		.uleb128 0x49
 7706 0096 13       		.uleb128 0x13
 7707 0097 00       		.byte	0
 7708 0098 00       		.byte	0
 7709 0099 0E       		.uleb128 0xe
 7710 009a 2E       		.uleb128 0x2e
 7711 009b 01       		.byte	0x1
 7712 009c 3F       		.uleb128 0x3f
 7713 009d 19       		.uleb128 0x19
 7714 009e 03       		.uleb128 0x3
 7715 009f 0E       		.uleb128 0xe
 7716 00a0 3A       		.uleb128 0x3a
 7717 00a1 0B       		.uleb128 0xb
 7718 00a2 3B       		.uleb128 0x3b
 7719 00a3 05       		.uleb128 0x5
 7720 00a4 39       		.uleb128 0x39
 7721 00a5 0B       		.uleb128 0xb
 7722 00a6 27       		.uleb128 0x27
 7723 00a7 19       		.uleb128 0x19
 7724 00a8 11       		.uleb128 0x11
 7725 00a9 01       		.uleb128 0x1
 7726 00aa 12       		.uleb128 0x12
 7727 00ab 06       		.uleb128 0x6
 7728 00ac 40       		.uleb128 0x40
 7729 00ad 18       		.uleb128 0x18
 7730 00ae 9742     		.uleb128 0x2117
 7731 00b0 19       		.uleb128 0x19
 7732 00b1 01       		.uleb128 0x1
 7733 00b2 13       		.uleb128 0x13
 7734 00b3 00       		.byte	0
 7735 00b4 00       		.byte	0
 7736 00b5 0F       		.uleb128 0xf
 7737 00b6 05       		.uleb128 0x5
 7738 00b7 00       		.byte	0
 7739 00b8 03       		.uleb128 0x3
 7740 00b9 0E       		.uleb128 0xe
 7741 00ba 3A       		.uleb128 0x3a
 7742 00bb 0B       		.uleb128 0xb
 7743 00bc 3B       		.uleb128 0x3b
 7744 00bd 05       		.uleb128 0x5
 7745 00be 39       		.uleb128 0x39
 7746 00bf 0B       		.uleb128 0xb
 7747 00c0 49       		.uleb128 0x49
 7748 00c1 13       		.uleb128 0x13
 7749 00c2 02       		.uleb128 0x2
 7750 00c3 17       		.uleb128 0x17
 7751 00c4 B742     		.uleb128 0x2137
 7752 00c6 17       		.uleb128 0x17
ARM GAS  /tmp/cc9meDp5.s 			page 137


 7753 00c7 00       		.byte	0
 7754 00c8 00       		.byte	0
 7755 00c9 10       		.uleb128 0x10
 7756 00ca 0B       		.uleb128 0xb
 7757 00cb 01       		.byte	0x1
 7758 00cc 55       		.uleb128 0x55
 7759 00cd 17       		.uleb128 0x17
 7760 00ce 01       		.uleb128 0x1
 7761 00cf 13       		.uleb128 0x13
 7762 00d0 00       		.byte	0
 7763 00d1 00       		.byte	0
 7764 00d2 11       		.uleb128 0x11
 7765 00d3 34       		.uleb128 0x34
 7766 00d4 00       		.byte	0
 7767 00d5 03       		.uleb128 0x3
 7768 00d6 0E       		.uleb128 0xe
 7769 00d7 3A       		.uleb128 0x3a
 7770 00d8 0B       		.uleb128 0xb
 7771 00d9 3B       		.uleb128 0x3b
 7772 00da 05       		.uleb128 0x5
 7773 00db 39       		.uleb128 0x39
 7774 00dc 0B       		.uleb128 0xb
 7775 00dd 49       		.uleb128 0x49
 7776 00de 13       		.uleb128 0x13
 7777 00df 02       		.uleb128 0x2
 7778 00e0 17       		.uleb128 0x17
 7779 00e1 B742     		.uleb128 0x2137
 7780 00e3 17       		.uleb128 0x17
 7781 00e4 00       		.byte	0
 7782 00e5 00       		.byte	0
 7783 00e6 12       		.uleb128 0x12
 7784 00e7 1D       		.uleb128 0x1d
 7785 00e8 01       		.byte	0x1
 7786 00e9 31       		.uleb128 0x31
 7787 00ea 13       		.uleb128 0x13
 7788 00eb 52       		.uleb128 0x52
 7789 00ec 01       		.uleb128 0x1
 7790 00ed B842     		.uleb128 0x2138
 7791 00ef 0B       		.uleb128 0xb
 7792 00f0 11       		.uleb128 0x11
 7793 00f1 01       		.uleb128 0x1
 7794 00f2 12       		.uleb128 0x12
 7795 00f3 06       		.uleb128 0x6
 7796 00f4 58       		.uleb128 0x58
 7797 00f5 0B       		.uleb128 0xb
 7798 00f6 59       		.uleb128 0x59
 7799 00f7 05       		.uleb128 0x5
 7800 00f8 57       		.uleb128 0x57
 7801 00f9 0B       		.uleb128 0xb
 7802 00fa 00       		.byte	0
 7803 00fb 00       		.byte	0
 7804 00fc 13       		.uleb128 0x13
 7805 00fd 05       		.uleb128 0x5
 7806 00fe 00       		.byte	0
 7807 00ff 31       		.uleb128 0x31
 7808 0100 13       		.uleb128 0x13
 7809 0101 02       		.uleb128 0x2
ARM GAS  /tmp/cc9meDp5.s 			page 138


 7810 0102 17       		.uleb128 0x17
 7811 0103 B742     		.uleb128 0x2137
 7812 0105 17       		.uleb128 0x17
 7813 0106 00       		.byte	0
 7814 0107 00       		.byte	0
 7815 0108 14       		.uleb128 0x14
 7816 0109 898201   		.uleb128 0x4109
 7817 010c 01       		.byte	0x1
 7818 010d 11       		.uleb128 0x11
 7819 010e 01       		.uleb128 0x1
 7820 010f 00       		.byte	0
 7821 0110 00       		.byte	0
 7822 0111 15       		.uleb128 0x15
 7823 0112 8A8201   		.uleb128 0x410a
 7824 0115 00       		.byte	0
 7825 0116 02       		.uleb128 0x2
 7826 0117 18       		.uleb128 0x18
 7827 0118 9142     		.uleb128 0x2111
 7828 011a 18       		.uleb128 0x18
 7829 011b 00       		.byte	0
 7830 011c 00       		.byte	0
 7831 011d 16       		.uleb128 0x16
 7832 011e 1D       		.uleb128 0x1d
 7833 011f 01       		.byte	0x1
 7834 0120 31       		.uleb128 0x31
 7835 0121 13       		.uleb128 0x13
 7836 0122 52       		.uleb128 0x52
 7837 0123 01       		.uleb128 0x1
 7838 0124 B842     		.uleb128 0x2138
 7839 0126 0B       		.uleb128 0xb
 7840 0127 55       		.uleb128 0x55
 7841 0128 17       		.uleb128 0x17
 7842 0129 58       		.uleb128 0x58
 7843 012a 0B       		.uleb128 0xb
 7844 012b 59       		.uleb128 0x59
 7845 012c 05       		.uleb128 0x5
 7846 012d 57       		.uleb128 0x57
 7847 012e 0B       		.uleb128 0xb
 7848 012f 01       		.uleb128 0x1
 7849 0130 13       		.uleb128 0x13
 7850 0131 00       		.byte	0
 7851 0132 00       		.byte	0
 7852 0133 17       		.uleb128 0x17
 7853 0134 1D       		.uleb128 0x1d
 7854 0135 01       		.byte	0x1
 7855 0136 31       		.uleb128 0x31
 7856 0137 13       		.uleb128 0x13
 7857 0138 52       		.uleb128 0x52
 7858 0139 01       		.uleb128 0x1
 7859 013a B842     		.uleb128 0x2138
 7860 013c 0B       		.uleb128 0xb
 7861 013d 55       		.uleb128 0x55
 7862 013e 17       		.uleb128 0x17
 7863 013f 58       		.uleb128 0x58
 7864 0140 0B       		.uleb128 0xb
 7865 0141 59       		.uleb128 0x59
 7866 0142 05       		.uleb128 0x5
ARM GAS  /tmp/cc9meDp5.s 			page 139


 7867 0143 57       		.uleb128 0x57
 7868 0144 0B       		.uleb128 0xb
 7869 0145 00       		.byte	0
 7870 0146 00       		.byte	0
 7871 0147 18       		.uleb128 0x18
 7872 0148 0B       		.uleb128 0xb
 7873 0149 01       		.byte	0x1
 7874 014a 55       		.uleb128 0x55
 7875 014b 17       		.uleb128 0x17
 7876 014c 00       		.byte	0
 7877 014d 00       		.byte	0
 7878 014e 19       		.uleb128 0x19
 7879 014f 2E       		.uleb128 0x2e
 7880 0150 01       		.byte	0x1
 7881 0151 3F       		.uleb128 0x3f
 7882 0152 19       		.uleb128 0x19
 7883 0153 03       		.uleb128 0x3
 7884 0154 0E       		.uleb128 0xe
 7885 0155 3A       		.uleb128 0x3a
 7886 0156 0B       		.uleb128 0xb
 7887 0157 3B       		.uleb128 0x3b
 7888 0158 05       		.uleb128 0x5
 7889 0159 39       		.uleb128 0x39
 7890 015a 0B       		.uleb128 0xb
 7891 015b 27       		.uleb128 0x27
 7892 015c 19       		.uleb128 0x19
 7893 015d 49       		.uleb128 0x49
 7894 015e 13       		.uleb128 0x13
 7895 015f 11       		.uleb128 0x11
 7896 0160 01       		.uleb128 0x1
 7897 0161 12       		.uleb128 0x12
 7898 0162 06       		.uleb128 0x6
 7899 0163 40       		.uleb128 0x40
 7900 0164 18       		.uleb128 0x18
 7901 0165 9742     		.uleb128 0x2117
 7902 0167 19       		.uleb128 0x19
 7903 0168 01       		.uleb128 0x1
 7904 0169 13       		.uleb128 0x13
 7905 016a 00       		.byte	0
 7906 016b 00       		.byte	0
 7907 016c 1A       		.uleb128 0x1a
 7908 016d 0B       		.uleb128 0xb
 7909 016e 01       		.byte	0x1
 7910 016f 11       		.uleb128 0x11
 7911 0170 01       		.uleb128 0x1
 7912 0171 12       		.uleb128 0x12
 7913 0172 06       		.uleb128 0x6
 7914 0173 00       		.byte	0
 7915 0174 00       		.byte	0
 7916 0175 1B       		.uleb128 0x1b
 7917 0176 05       		.uleb128 0x5
 7918 0177 00       		.byte	0
 7919 0178 03       		.uleb128 0x3
 7920 0179 08       		.uleb128 0x8
 7921 017a 3A       		.uleb128 0x3a
 7922 017b 0B       		.uleb128 0xb
 7923 017c 3B       		.uleb128 0x3b
ARM GAS  /tmp/cc9meDp5.s 			page 140


 7924 017d 05       		.uleb128 0x5
 7925 017e 39       		.uleb128 0x39
 7926 017f 0B       		.uleb128 0xb
 7927 0180 49       		.uleb128 0x49
 7928 0181 13       		.uleb128 0x13
 7929 0182 02       		.uleb128 0x2
 7930 0183 17       		.uleb128 0x17
 7931 0184 B742     		.uleb128 0x2137
 7932 0186 17       		.uleb128 0x17
 7933 0187 00       		.byte	0
 7934 0188 00       		.byte	0
 7935 0189 1C       		.uleb128 0x1c
 7936 018a 34       		.uleb128 0x34
 7937 018b 00       		.byte	0
 7938 018c 03       		.uleb128 0x3
 7939 018d 08       		.uleb128 0x8
 7940 018e 3A       		.uleb128 0x3a
 7941 018f 0B       		.uleb128 0xb
 7942 0190 3B       		.uleb128 0x3b
 7943 0191 05       		.uleb128 0x5
 7944 0192 39       		.uleb128 0x39
 7945 0193 0B       		.uleb128 0xb
 7946 0194 49       		.uleb128 0x49
 7947 0195 13       		.uleb128 0x13
 7948 0196 02       		.uleb128 0x2
 7949 0197 17       		.uleb128 0x17
 7950 0198 B742     		.uleb128 0x2137
 7951 019a 17       		.uleb128 0x17
 7952 019b 00       		.byte	0
 7953 019c 00       		.byte	0
 7954 019d 1D       		.uleb128 0x1d
 7955 019e 34       		.uleb128 0x34
 7956 019f 00       		.byte	0
 7957 01a0 03       		.uleb128 0x3
 7958 01a1 0E       		.uleb128 0xe
 7959 01a2 49       		.uleb128 0x49
 7960 01a3 13       		.uleb128 0x13
 7961 01a4 34       		.uleb128 0x34
 7962 01a5 19       		.uleb128 0x19
 7963 01a6 00       		.byte	0
 7964 01a7 00       		.byte	0
 7965 01a8 1E       		.uleb128 0x1e
 7966 01a9 1D       		.uleb128 0x1d
 7967 01aa 01       		.byte	0x1
 7968 01ab 31       		.uleb128 0x31
 7969 01ac 13       		.uleb128 0x13
 7970 01ad 11       		.uleb128 0x11
 7971 01ae 01       		.uleb128 0x1
 7972 01af 12       		.uleb128 0x12
 7973 01b0 06       		.uleb128 0x6
 7974 01b1 58       		.uleb128 0x58
 7975 01b2 0B       		.uleb128 0xb
 7976 01b3 59       		.uleb128 0x59
 7977 01b4 05       		.uleb128 0x5
 7978 01b5 57       		.uleb128 0x57
 7979 01b6 0B       		.uleb128 0xb
 7980 01b7 01       		.uleb128 0x1
ARM GAS  /tmp/cc9meDp5.s 			page 141


 7981 01b8 13       		.uleb128 0x13
 7982 01b9 00       		.byte	0
 7983 01ba 00       		.byte	0
 7984 01bb 1F       		.uleb128 0x1f
 7985 01bc 05       		.uleb128 0x5
 7986 01bd 00       		.byte	0
 7987 01be 31       		.uleb128 0x31
 7988 01bf 13       		.uleb128 0x13
 7989 01c0 00       		.byte	0
 7990 01c1 00       		.byte	0
 7991 01c2 20       		.uleb128 0x20
 7992 01c3 0B       		.uleb128 0xb
 7993 01c4 01       		.byte	0x1
 7994 01c5 31       		.uleb128 0x31
 7995 01c6 13       		.uleb128 0x13
 7996 01c7 55       		.uleb128 0x55
 7997 01c8 17       		.uleb128 0x17
 7998 01c9 01       		.uleb128 0x1
 7999 01ca 13       		.uleb128 0x13
 8000 01cb 00       		.byte	0
 8001 01cc 00       		.byte	0
 8002 01cd 21       		.uleb128 0x21
 8003 01ce 34       		.uleb128 0x34
 8004 01cf 00       		.byte	0
 8005 01d0 31       		.uleb128 0x31
 8006 01d1 13       		.uleb128 0x13
 8007 01d2 02       		.uleb128 0x2
 8008 01d3 17       		.uleb128 0x17
 8009 01d4 B742     		.uleb128 0x2137
 8010 01d6 17       		.uleb128 0x17
 8011 01d7 00       		.byte	0
 8012 01d8 00       		.byte	0
 8013 01d9 22       		.uleb128 0x22
 8014 01da 898201   		.uleb128 0x4109
 8015 01dd 00       		.byte	0
 8016 01de 11       		.uleb128 0x11
 8017 01df 01       		.uleb128 0x1
 8018 01e0 31       		.uleb128 0x31
 8019 01e1 13       		.uleb128 0x13
 8020 01e2 00       		.byte	0
 8021 01e3 00       		.byte	0
 8022 01e4 23       		.uleb128 0x23
 8023 01e5 898201   		.uleb128 0x4109
 8024 01e8 01       		.byte	0x1
 8025 01e9 11       		.uleb128 0x11
 8026 01ea 01       		.uleb128 0x1
 8027 01eb 31       		.uleb128 0x31
 8028 01ec 13       		.uleb128 0x13
 8029 01ed 00       		.byte	0
 8030 01ee 00       		.byte	0
 8031 01ef 24       		.uleb128 0x24
 8032 01f0 01       		.uleb128 0x1
 8033 01f1 01       		.byte	0x1
 8034 01f2 49       		.uleb128 0x49
 8035 01f3 13       		.uleb128 0x13
 8036 01f4 01       		.uleb128 0x1
 8037 01f5 13       		.uleb128 0x13
ARM GAS  /tmp/cc9meDp5.s 			page 142


 8038 01f6 00       		.byte	0
 8039 01f7 00       		.byte	0
 8040 01f8 25       		.uleb128 0x25
 8041 01f9 21       		.uleb128 0x21
 8042 01fa 00       		.byte	0
 8043 01fb 49       		.uleb128 0x49
 8044 01fc 13       		.uleb128 0x13
 8045 01fd 2F       		.uleb128 0x2f
 8046 01fe 0B       		.uleb128 0xb
 8047 01ff 00       		.byte	0
 8048 0200 00       		.byte	0
 8049 0201 26       		.uleb128 0x26
 8050 0202 1D       		.uleb128 0x1d
 8051 0203 01       		.byte	0x1
 8052 0204 31       		.uleb128 0x31
 8053 0205 13       		.uleb128 0x13
 8054 0206 55       		.uleb128 0x55
 8055 0207 17       		.uleb128 0x17
 8056 0208 58       		.uleb128 0x58
 8057 0209 0B       		.uleb128 0xb
 8058 020a 59       		.uleb128 0x59
 8059 020b 05       		.uleb128 0x5
 8060 020c 57       		.uleb128 0x57
 8061 020d 0B       		.uleb128 0xb
 8062 020e 01       		.uleb128 0x1
 8063 020f 13       		.uleb128 0x13
 8064 0210 00       		.byte	0
 8065 0211 00       		.byte	0
 8066 0212 27       		.uleb128 0x27
 8067 0213 2E       		.uleb128 0x2e
 8068 0214 01       		.byte	0x1
 8069 0215 3F       		.uleb128 0x3f
 8070 0216 19       		.uleb128 0x19
 8071 0217 03       		.uleb128 0x3
 8072 0218 0E       		.uleb128 0xe
 8073 0219 3A       		.uleb128 0x3a
 8074 021a 0B       		.uleb128 0xb
 8075 021b 3B       		.uleb128 0x3b
 8076 021c 05       		.uleb128 0x5
 8077 021d 39       		.uleb128 0x39
 8078 021e 0B       		.uleb128 0xb
 8079 021f 27       		.uleb128 0x27
 8080 0220 19       		.uleb128 0x19
 8081 0221 20       		.uleb128 0x20
 8082 0222 0B       		.uleb128 0xb
 8083 0223 01       		.uleb128 0x1
 8084 0224 13       		.uleb128 0x13
 8085 0225 00       		.byte	0
 8086 0226 00       		.byte	0
 8087 0227 28       		.uleb128 0x28
 8088 0228 05       		.uleb128 0x5
 8089 0229 00       		.byte	0
 8090 022a 03       		.uleb128 0x3
 8091 022b 0E       		.uleb128 0xe
 8092 022c 3A       		.uleb128 0x3a
 8093 022d 0B       		.uleb128 0xb
 8094 022e 3B       		.uleb128 0x3b
ARM GAS  /tmp/cc9meDp5.s 			page 143


 8095 022f 05       		.uleb128 0x5
 8096 0230 39       		.uleb128 0x39
 8097 0231 0B       		.uleb128 0xb
 8098 0232 49       		.uleb128 0x49
 8099 0233 13       		.uleb128 0x13
 8100 0234 00       		.byte	0
 8101 0235 00       		.byte	0
 8102 0236 29       		.uleb128 0x29
 8103 0237 1D       		.uleb128 0x1d
 8104 0238 01       		.byte	0x1
 8105 0239 31       		.uleb128 0x31
 8106 023a 13       		.uleb128 0x13
 8107 023b 52       		.uleb128 0x52
 8108 023c 01       		.uleb128 0x1
 8109 023d B842     		.uleb128 0x2138
 8110 023f 0B       		.uleb128 0xb
 8111 0240 11       		.uleb128 0x11
 8112 0241 01       		.uleb128 0x1
 8113 0242 12       		.uleb128 0x12
 8114 0243 06       		.uleb128 0x6
 8115 0244 58       		.uleb128 0x58
 8116 0245 0B       		.uleb128 0xb
 8117 0246 59       		.uleb128 0x59
 8118 0247 05       		.uleb128 0x5
 8119 0248 57       		.uleb128 0x57
 8120 0249 0B       		.uleb128 0xb
 8121 024a 01       		.uleb128 0x1
 8122 024b 13       		.uleb128 0x13
 8123 024c 00       		.byte	0
 8124 024d 00       		.byte	0
 8125 024e 2A       		.uleb128 0x2a
 8126 024f 2E       		.uleb128 0x2e
 8127 0250 01       		.byte	0x1
 8128 0251 3F       		.uleb128 0x3f
 8129 0252 19       		.uleb128 0x19
 8130 0253 03       		.uleb128 0x3
 8131 0254 0E       		.uleb128 0xe
 8132 0255 3A       		.uleb128 0x3a
 8133 0256 0B       		.uleb128 0xb
 8134 0257 3B       		.uleb128 0x3b
 8135 0258 05       		.uleb128 0x5
 8136 0259 39       		.uleb128 0x39
 8137 025a 0B       		.uleb128 0xb
 8138 025b 27       		.uleb128 0x27
 8139 025c 19       		.uleb128 0x19
 8140 025d 49       		.uleb128 0x49
 8141 025e 13       		.uleb128 0x13
 8142 025f 20       		.uleb128 0x20
 8143 0260 0B       		.uleb128 0xb
 8144 0261 01       		.uleb128 0x1
 8145 0262 13       		.uleb128 0x13
 8146 0263 00       		.byte	0
 8147 0264 00       		.byte	0
 8148 0265 2B       		.uleb128 0x2b
 8149 0266 0B       		.uleb128 0xb
 8150 0267 01       		.byte	0x1
 8151 0268 00       		.byte	0
ARM GAS  /tmp/cc9meDp5.s 			page 144


 8152 0269 00       		.byte	0
 8153 026a 2C       		.uleb128 0x2c
 8154 026b 34       		.uleb128 0x34
 8155 026c 00       		.byte	0
 8156 026d 03       		.uleb128 0x3
 8157 026e 08       		.uleb128 0x8
 8158 026f 3A       		.uleb128 0x3a
 8159 0270 0B       		.uleb128 0xb
 8160 0271 3B       		.uleb128 0x3b
 8161 0272 05       		.uleb128 0x5
 8162 0273 39       		.uleb128 0x39
 8163 0274 0B       		.uleb128 0xb
 8164 0275 49       		.uleb128 0x49
 8165 0276 13       		.uleb128 0x13
 8166 0277 00       		.byte	0
 8167 0278 00       		.byte	0
 8168 0279 2D       		.uleb128 0x2d
 8169 027a 05       		.uleb128 0x5
 8170 027b 00       		.byte	0
 8171 027c 31       		.uleb128 0x31
 8172 027d 13       		.uleb128 0x13
 8173 027e 1C       		.uleb128 0x1c
 8174 027f 0B       		.uleb128 0xb
 8175 0280 00       		.byte	0
 8176 0281 00       		.byte	0
 8177 0282 2E       		.uleb128 0x2e
 8178 0283 898201   		.uleb128 0x4109
 8179 0286 01       		.byte	0x1
 8180 0287 11       		.uleb128 0x11
 8181 0288 01       		.uleb128 0x1
 8182 0289 9542     		.uleb128 0x2115
 8183 028b 19       		.uleb128 0x19
 8184 028c 31       		.uleb128 0x31
 8185 028d 13       		.uleb128 0x13
 8186 028e 00       		.byte	0
 8187 028f 00       		.byte	0
 8188 0290 2F       		.uleb128 0x2f
 8189 0291 05       		.uleb128 0x5
 8190 0292 00       		.byte	0
 8191 0293 03       		.uleb128 0x3
 8192 0294 0E       		.uleb128 0xe
 8193 0295 3A       		.uleb128 0x3a
 8194 0296 0B       		.uleb128 0xb
 8195 0297 3B       		.uleb128 0x3b
 8196 0298 05       		.uleb128 0x5
 8197 0299 39       		.uleb128 0x39
 8198 029a 0B       		.uleb128 0xb
 8199 029b 49       		.uleb128 0x49
 8200 029c 13       		.uleb128 0x13
 8201 029d 02       		.uleb128 0x2
 8202 029e 18       		.uleb128 0x18
 8203 029f 00       		.byte	0
 8204 02a0 00       		.byte	0
 8205 02a1 30       		.uleb128 0x30
 8206 02a2 05       		.uleb128 0x5
 8207 02a3 00       		.byte	0
 8208 02a4 31       		.uleb128 0x31
ARM GAS  /tmp/cc9meDp5.s 			page 145


 8209 02a5 13       		.uleb128 0x13
 8210 02a6 1C       		.uleb128 0x1c
 8211 02a7 0D       		.uleb128 0xd
 8212 02a8 00       		.byte	0
 8213 02a9 00       		.byte	0
 8214 02aa 31       		.uleb128 0x31
 8215 02ab 1D       		.uleb128 0x1d
 8216 02ac 01       		.byte	0x1
 8217 02ad 31       		.uleb128 0x31
 8218 02ae 13       		.uleb128 0x13
 8219 02af 52       		.uleb128 0x52
 8220 02b0 01       		.uleb128 0x1
 8221 02b1 B842     		.uleb128 0x2138
 8222 02b3 0B       		.uleb128 0xb
 8223 02b4 55       		.uleb128 0x55
 8224 02b5 17       		.uleb128 0x17
 8225 02b6 58       		.uleb128 0x58
 8226 02b7 0B       		.uleb128 0xb
 8227 02b8 59       		.uleb128 0x59
 8228 02b9 0B       		.uleb128 0xb
 8229 02ba 57       		.uleb128 0x57
 8230 02bb 0B       		.uleb128 0xb
 8231 02bc 00       		.byte	0
 8232 02bd 00       		.byte	0
 8233 02be 32       		.uleb128 0x32
 8234 02bf 1D       		.uleb128 0x1d
 8235 02c0 01       		.byte	0x1
 8236 02c1 31       		.uleb128 0x31
 8237 02c2 13       		.uleb128 0x13
 8238 02c3 52       		.uleb128 0x52
 8239 02c4 01       		.uleb128 0x1
 8240 02c5 B842     		.uleb128 0x2138
 8241 02c7 0B       		.uleb128 0xb
 8242 02c8 11       		.uleb128 0x11
 8243 02c9 01       		.uleb128 0x1
 8244 02ca 12       		.uleb128 0x12
 8245 02cb 06       		.uleb128 0x6
 8246 02cc 58       		.uleb128 0x58
 8247 02cd 0B       		.uleb128 0xb
 8248 02ce 59       		.uleb128 0x59
 8249 02cf 0B       		.uleb128 0xb
 8250 02d0 57       		.uleb128 0x57
 8251 02d1 0B       		.uleb128 0xb
 8252 02d2 00       		.byte	0
 8253 02d3 00       		.byte	0
 8254 02d4 33       		.uleb128 0x33
 8255 02d5 1D       		.uleb128 0x1d
 8256 02d6 01       		.byte	0x1
 8257 02d7 31       		.uleb128 0x31
 8258 02d8 13       		.uleb128 0x13
 8259 02d9 55       		.uleb128 0x55
 8260 02da 17       		.uleb128 0x17
 8261 02db 58       		.uleb128 0x58
 8262 02dc 0B       		.uleb128 0xb
 8263 02dd 59       		.uleb128 0x59
 8264 02de 05       		.uleb128 0x5
 8265 02df 57       		.uleb128 0x57
ARM GAS  /tmp/cc9meDp5.s 			page 146


 8266 02e0 0B       		.uleb128 0xb
 8267 02e1 00       		.byte	0
 8268 02e2 00       		.byte	0
 8269 02e3 34       		.uleb128 0x34
 8270 02e4 2E       		.uleb128 0x2e
 8271 02e5 01       		.byte	0x1
 8272 02e6 3F       		.uleb128 0x3f
 8273 02e7 19       		.uleb128 0x19
 8274 02e8 03       		.uleb128 0x3
 8275 02e9 0E       		.uleb128 0xe
 8276 02ea 3A       		.uleb128 0x3a
 8277 02eb 0B       		.uleb128 0xb
 8278 02ec 3B       		.uleb128 0x3b
 8279 02ed 0B       		.uleb128 0xb
 8280 02ee 39       		.uleb128 0x39
 8281 02ef 0B       		.uleb128 0xb
 8282 02f0 27       		.uleb128 0x27
 8283 02f1 19       		.uleb128 0x19
 8284 02f2 11       		.uleb128 0x11
 8285 02f3 01       		.uleb128 0x1
 8286 02f4 12       		.uleb128 0x12
 8287 02f5 06       		.uleb128 0x6
 8288 02f6 40       		.uleb128 0x40
 8289 02f7 18       		.uleb128 0x18
 8290 02f8 9742     		.uleb128 0x2117
 8291 02fa 19       		.uleb128 0x19
 8292 02fb 01       		.uleb128 0x1
 8293 02fc 13       		.uleb128 0x13
 8294 02fd 00       		.byte	0
 8295 02fe 00       		.byte	0
 8296 02ff 35       		.uleb128 0x35
 8297 0300 05       		.uleb128 0x5
 8298 0301 00       		.byte	0
 8299 0302 03       		.uleb128 0x3
 8300 0303 0E       		.uleb128 0xe
 8301 0304 3A       		.uleb128 0x3a
 8302 0305 0B       		.uleb128 0xb
 8303 0306 3B       		.uleb128 0x3b
 8304 0307 0B       		.uleb128 0xb
 8305 0308 39       		.uleb128 0x39
 8306 0309 0B       		.uleb128 0xb
 8307 030a 49       		.uleb128 0x49
 8308 030b 13       		.uleb128 0x13
 8309 030c 02       		.uleb128 0x2
 8310 030d 17       		.uleb128 0x17
 8311 030e B742     		.uleb128 0x2137
 8312 0310 17       		.uleb128 0x17
 8313 0311 00       		.byte	0
 8314 0312 00       		.byte	0
 8315 0313 36       		.uleb128 0x36
 8316 0314 2E       		.uleb128 0x2e
 8317 0315 01       		.byte	0x1
 8318 0316 3F       		.uleb128 0x3f
 8319 0317 19       		.uleb128 0x19
 8320 0318 03       		.uleb128 0x3
 8321 0319 0E       		.uleb128 0xe
 8322 031a 3A       		.uleb128 0x3a
ARM GAS  /tmp/cc9meDp5.s 			page 147


 8323 031b 0B       		.uleb128 0xb
 8324 031c 3B       		.uleb128 0x3b
 8325 031d 0B       		.uleb128 0xb
 8326 031e 39       		.uleb128 0x39
 8327 031f 0B       		.uleb128 0xb
 8328 0320 27       		.uleb128 0x27
 8329 0321 19       		.uleb128 0x19
 8330 0322 49       		.uleb128 0x49
 8331 0323 13       		.uleb128 0x13
 8332 0324 20       		.uleb128 0x20
 8333 0325 0B       		.uleb128 0xb
 8334 0326 01       		.uleb128 0x1
 8335 0327 13       		.uleb128 0x13
 8336 0328 00       		.byte	0
 8337 0329 00       		.byte	0
 8338 032a 37       		.uleb128 0x37
 8339 032b 05       		.uleb128 0x5
 8340 032c 00       		.byte	0
 8341 032d 03       		.uleb128 0x3
 8342 032e 0E       		.uleb128 0xe
 8343 032f 3A       		.uleb128 0x3a
 8344 0330 0B       		.uleb128 0xb
 8345 0331 3B       		.uleb128 0x3b
 8346 0332 0B       		.uleb128 0xb
 8347 0333 39       		.uleb128 0x39
 8348 0334 0B       		.uleb128 0xb
 8349 0335 49       		.uleb128 0x49
 8350 0336 13       		.uleb128 0x13
 8351 0337 00       		.byte	0
 8352 0338 00       		.byte	0
 8353 0339 38       		.uleb128 0x38
 8354 033a 34       		.uleb128 0x34
 8355 033b 00       		.byte	0
 8356 033c 03       		.uleb128 0x3
 8357 033d 08       		.uleb128 0x8
 8358 033e 3A       		.uleb128 0x3a
 8359 033f 0B       		.uleb128 0xb
 8360 0340 3B       		.uleb128 0x3b
 8361 0341 0B       		.uleb128 0xb
 8362 0342 39       		.uleb128 0x39
 8363 0343 0B       		.uleb128 0xb
 8364 0344 49       		.uleb128 0x49
 8365 0345 13       		.uleb128 0x13
 8366 0346 00       		.byte	0
 8367 0347 00       		.byte	0
 8368 0348 39       		.uleb128 0x39
 8369 0349 2E       		.uleb128 0x2e
 8370 034a 01       		.byte	0x1
 8371 034b 3F       		.uleb128 0x3f
 8372 034c 19       		.uleb128 0x19
 8373 034d 03       		.uleb128 0x3
 8374 034e 0E       		.uleb128 0xe
 8375 034f 3A       		.uleb128 0x3a
 8376 0350 0B       		.uleb128 0xb
 8377 0351 3B       		.uleb128 0x3b
 8378 0352 0B       		.uleb128 0xb
 8379 0353 39       		.uleb128 0x39
ARM GAS  /tmp/cc9meDp5.s 			page 148


 8380 0354 0B       		.uleb128 0xb
 8381 0355 27       		.uleb128 0x27
 8382 0356 19       		.uleb128 0x19
 8383 0357 49       		.uleb128 0x49
 8384 0358 13       		.uleb128 0x13
 8385 0359 11       		.uleb128 0x11
 8386 035a 01       		.uleb128 0x1
 8387 035b 12       		.uleb128 0x12
 8388 035c 06       		.uleb128 0x6
 8389 035d 40       		.uleb128 0x40
 8390 035e 18       		.uleb128 0x18
 8391 035f 9742     		.uleb128 0x2117
 8392 0361 19       		.uleb128 0x19
 8393 0362 01       		.uleb128 0x1
 8394 0363 13       		.uleb128 0x13
 8395 0364 00       		.byte	0
 8396 0365 00       		.byte	0
 8397 0366 3A       		.uleb128 0x3a
 8398 0367 34       		.uleb128 0x34
 8399 0368 00       		.byte	0
 8400 0369 03       		.uleb128 0x3
 8401 036a 08       		.uleb128 0x8
 8402 036b 3A       		.uleb128 0x3a
 8403 036c 0B       		.uleb128 0xb
 8404 036d 3B       		.uleb128 0x3b
 8405 036e 0B       		.uleb128 0xb
 8406 036f 39       		.uleb128 0x39
 8407 0370 0B       		.uleb128 0xb
 8408 0371 49       		.uleb128 0x49
 8409 0372 13       		.uleb128 0x13
 8410 0373 02       		.uleb128 0x2
 8411 0374 17       		.uleb128 0x17
 8412 0375 B742     		.uleb128 0x2137
 8413 0377 17       		.uleb128 0x17
 8414 0378 00       		.byte	0
 8415 0379 00       		.byte	0
 8416 037a 3B       		.uleb128 0x3b
 8417 037b 1D       		.uleb128 0x1d
 8418 037c 01       		.byte	0x1
 8419 037d 31       		.uleb128 0x31
 8420 037e 13       		.uleb128 0x13
 8421 037f 52       		.uleb128 0x52
 8422 0380 01       		.uleb128 0x1
 8423 0381 B842     		.uleb128 0x2138
 8424 0383 0B       		.uleb128 0xb
 8425 0384 55       		.uleb128 0x55
 8426 0385 17       		.uleb128 0x17
 8427 0386 58       		.uleb128 0x58
 8428 0387 0B       		.uleb128 0xb
 8429 0388 59       		.uleb128 0x59
 8430 0389 0B       		.uleb128 0xb
 8431 038a 57       		.uleb128 0x57
 8432 038b 0B       		.uleb128 0xb
 8433 038c 01       		.uleb128 0x1
 8434 038d 13       		.uleb128 0x13
 8435 038e 00       		.byte	0
 8436 038f 00       		.byte	0
ARM GAS  /tmp/cc9meDp5.s 			page 149


 8437 0390 3C       		.uleb128 0x3c
 8438 0391 05       		.uleb128 0x5
 8439 0392 00       		.byte	0
 8440 0393 03       		.uleb128 0x3
 8441 0394 0E       		.uleb128 0xe
 8442 0395 3A       		.uleb128 0x3a
 8443 0396 0B       		.uleb128 0xb
 8444 0397 3B       		.uleb128 0x3b
 8445 0398 0B       		.uleb128 0xb
 8446 0399 39       		.uleb128 0x39
 8447 039a 0B       		.uleb128 0xb
 8448 039b 49       		.uleb128 0x49
 8449 039c 13       		.uleb128 0x13
 8450 039d 02       		.uleb128 0x2
 8451 039e 18       		.uleb128 0x18
 8452 039f 00       		.byte	0
 8453 03a0 00       		.byte	0
 8454 03a1 3D       		.uleb128 0x3d
 8455 03a2 05       		.uleb128 0x5
 8456 03a3 00       		.byte	0
 8457 03a4 03       		.uleb128 0x3
 8458 03a5 08       		.uleb128 0x8
 8459 03a6 3A       		.uleb128 0x3a
 8460 03a7 0B       		.uleb128 0xb
 8461 03a8 3B       		.uleb128 0x3b
 8462 03a9 0B       		.uleb128 0xb
 8463 03aa 39       		.uleb128 0x39
 8464 03ab 0B       		.uleb128 0xb
 8465 03ac 49       		.uleb128 0x49
 8466 03ad 13       		.uleb128 0x13
 8467 03ae 02       		.uleb128 0x2
 8468 03af 17       		.uleb128 0x17
 8469 03b0 B742     		.uleb128 0x2137
 8470 03b2 17       		.uleb128 0x17
 8471 03b3 00       		.byte	0
 8472 03b4 00       		.byte	0
 8473 03b5 3E       		.uleb128 0x3e
 8474 03b6 2E       		.uleb128 0x2e
 8475 03b7 01       		.byte	0x1
 8476 03b8 03       		.uleb128 0x3
 8477 03b9 0E       		.uleb128 0xe
 8478 03ba 3A       		.uleb128 0x3a
 8479 03bb 0B       		.uleb128 0xb
 8480 03bc 3B       		.uleb128 0x3b
 8481 03bd 05       		.uleb128 0x5
 8482 03be 39       		.uleb128 0x39
 8483 03bf 0B       		.uleb128 0xb
 8484 03c0 27       		.uleb128 0x27
 8485 03c1 19       		.uleb128 0x19
 8486 03c2 20       		.uleb128 0x20
 8487 03c3 0B       		.uleb128 0xb
 8488 03c4 01       		.uleb128 0x1
 8489 03c5 13       		.uleb128 0x13
 8490 03c6 00       		.byte	0
 8491 03c7 00       		.byte	0
 8492 03c8 3F       		.uleb128 0x3f
 8493 03c9 05       		.uleb128 0x5
ARM GAS  /tmp/cc9meDp5.s 			page 150


 8494 03ca 00       		.byte	0
 8495 03cb 03       		.uleb128 0x3
 8496 03cc 08       		.uleb128 0x8
 8497 03cd 3A       		.uleb128 0x3a
 8498 03ce 0B       		.uleb128 0xb
 8499 03cf 3B       		.uleb128 0x3b
 8500 03d0 05       		.uleb128 0x5
 8501 03d1 39       		.uleb128 0x39
 8502 03d2 0B       		.uleb128 0xb
 8503 03d3 49       		.uleb128 0x49
 8504 03d4 13       		.uleb128 0x13
 8505 03d5 00       		.byte	0
 8506 03d6 00       		.byte	0
 8507 03d7 40       		.uleb128 0x40
 8508 03d8 2E       		.uleb128 0x2e
 8509 03d9 01       		.byte	0x1
 8510 03da 03       		.uleb128 0x3
 8511 03db 0E       		.uleb128 0xe
 8512 03dc 3A       		.uleb128 0x3a
 8513 03dd 0B       		.uleb128 0xb
 8514 03de 3B       		.uleb128 0x3b
 8515 03df 05       		.uleb128 0x5
 8516 03e0 39       		.uleb128 0x39
 8517 03e1 0B       		.uleb128 0xb
 8518 03e2 27       		.uleb128 0x27
 8519 03e3 19       		.uleb128 0x19
 8520 03e4 49       		.uleb128 0x49
 8521 03e5 13       		.uleb128 0x13
 8522 03e6 20       		.uleb128 0x20
 8523 03e7 0B       		.uleb128 0xb
 8524 03e8 01       		.uleb128 0x1
 8525 03e9 13       		.uleb128 0x13
 8526 03ea 00       		.byte	0
 8527 03eb 00       		.byte	0
 8528 03ec 41       		.uleb128 0x41
 8529 03ed 2E       		.uleb128 0x2e
 8530 03ee 00       		.byte	0
 8531 03ef 03       		.uleb128 0x3
 8532 03f0 0E       		.uleb128 0xe
 8533 03f1 3A       		.uleb128 0x3a
 8534 03f2 0B       		.uleb128 0xb
 8535 03f3 3B       		.uleb128 0x3b
 8536 03f4 05       		.uleb128 0x5
 8537 03f5 39       		.uleb128 0x39
 8538 03f6 0B       		.uleb128 0xb
 8539 03f7 27       		.uleb128 0x27
 8540 03f8 19       		.uleb128 0x19
 8541 03f9 20       		.uleb128 0x20
 8542 03fa 0B       		.uleb128 0xb
 8543 03fb 00       		.byte	0
 8544 03fc 00       		.byte	0
 8545 03fd 42       		.uleb128 0x42
 8546 03fe 2E       		.uleb128 0x2e
 8547 03ff 01       		.byte	0x1
 8548 0400 03       		.uleb128 0x3
 8549 0401 0E       		.uleb128 0xe
 8550 0402 3A       		.uleb128 0x3a
ARM GAS  /tmp/cc9meDp5.s 			page 151


 8551 0403 0B       		.uleb128 0xb
 8552 0404 3B       		.uleb128 0x3b
 8553 0405 0B       		.uleb128 0xb
 8554 0406 39       		.uleb128 0x39
 8555 0407 0B       		.uleb128 0xb
 8556 0408 27       		.uleb128 0x27
 8557 0409 19       		.uleb128 0x19
 8558 040a 20       		.uleb128 0x20
 8559 040b 0B       		.uleb128 0xb
 8560 040c 01       		.uleb128 0x1
 8561 040d 13       		.uleb128 0x13
 8562 040e 00       		.byte	0
 8563 040f 00       		.byte	0
 8564 0410 43       		.uleb128 0x43
 8565 0411 05       		.uleb128 0x5
 8566 0412 00       		.byte	0
 8567 0413 03       		.uleb128 0x3
 8568 0414 08       		.uleb128 0x8
 8569 0415 3A       		.uleb128 0x3a
 8570 0416 0B       		.uleb128 0xb
 8571 0417 3B       		.uleb128 0x3b
 8572 0418 0B       		.uleb128 0xb
 8573 0419 39       		.uleb128 0x39
 8574 041a 0B       		.uleb128 0xb
 8575 041b 49       		.uleb128 0x49
 8576 041c 13       		.uleb128 0x13
 8577 041d 00       		.byte	0
 8578 041e 00       		.byte	0
 8579 041f 44       		.uleb128 0x44
 8580 0420 2E       		.uleb128 0x2e
 8581 0421 01       		.byte	0x1
 8582 0422 31       		.uleb128 0x31
 8583 0423 13       		.uleb128 0x13
 8584 0424 11       		.uleb128 0x11
 8585 0425 01       		.uleb128 0x1
 8586 0426 12       		.uleb128 0x12
 8587 0427 06       		.uleb128 0x6
 8588 0428 40       		.uleb128 0x40
 8589 0429 18       		.uleb128 0x18
 8590 042a 9742     		.uleb128 0x2117
 8591 042c 19       		.uleb128 0x19
 8592 042d 01       		.uleb128 0x1
 8593 042e 13       		.uleb128 0x13
 8594 042f 00       		.byte	0
 8595 0430 00       		.byte	0
 8596 0431 45       		.uleb128 0x45
 8597 0432 898201   		.uleb128 0x4109
 8598 0435 01       		.byte	0x1
 8599 0436 11       		.uleb128 0x11
 8600 0437 01       		.uleb128 0x1
 8601 0438 9542     		.uleb128 0x2115
 8602 043a 19       		.uleb128 0x19
 8603 043b 00       		.byte	0
 8604 043c 00       		.byte	0
 8605 043d 46       		.uleb128 0x46
 8606 043e 2E       		.uleb128 0x2e
 8607 043f 00       		.byte	0
ARM GAS  /tmp/cc9meDp5.s 			page 152


 8608 0440 3F       		.uleb128 0x3f
 8609 0441 19       		.uleb128 0x19
 8610 0442 3C       		.uleb128 0x3c
 8611 0443 19       		.uleb128 0x19
 8612 0444 6E       		.uleb128 0x6e
 8613 0445 0E       		.uleb128 0xe
 8614 0446 03       		.uleb128 0x3
 8615 0447 0E       		.uleb128 0xe
 8616 0448 3A       		.uleb128 0x3a
 8617 0449 0B       		.uleb128 0xb
 8618 044a 3B       		.uleb128 0x3b
 8619 044b 05       		.uleb128 0x5
 8620 044c 39       		.uleb128 0x39
 8621 044d 0B       		.uleb128 0xb
 8622 044e 00       		.byte	0
 8623 044f 00       		.byte	0
 8624 0450 47       		.uleb128 0x47
 8625 0451 2E       		.uleb128 0x2e
 8626 0452 00       		.byte	0
 8627 0453 3F       		.uleb128 0x3f
 8628 0454 19       		.uleb128 0x19
 8629 0455 3C       		.uleb128 0x3c
 8630 0456 19       		.uleb128 0x19
 8631 0457 6E       		.uleb128 0x6e
 8632 0458 0E       		.uleb128 0xe
 8633 0459 03       		.uleb128 0x3
 8634 045a 0E       		.uleb128 0xe
 8635 045b 3A       		.uleb128 0x3a
 8636 045c 0B       		.uleb128 0xb
 8637 045d 3B       		.uleb128 0x3b
 8638 045e 0B       		.uleb128 0xb
 8639 045f 00       		.byte	0
 8640 0460 00       		.byte	0
 8641 0461 00       		.byte	0
 8642              		.section	.debug_loc,"",%progbits
 8643              	.Ldebug_loc0:
 8644              	.LVUS139:
 8645 0000 00       		.uleb128 0
 8646 0001 00       		.uleb128 .LVU1316
 8647 0002 00       		.uleb128 .LVU1316
 8648 0003 00       		.uleb128 0
 8649              	.LLST139:
 8650 0004 00000000 		.4byte	.LVL210
 8651 0008 43000000 		.4byte	.LVL221-1
 8652 000c 0100     		.2byte	0x1
 8653 000e 50       		.byte	0x50
 8654 000f 43000000 		.4byte	.LVL221-1
 8655 0013 4C000000 		.4byte	.LFE421
 8656 0017 0400     		.2byte	0x4
 8657 0019 F3       		.byte	0xf3
 8658 001a 01       		.uleb128 0x1
 8659 001b 50       		.byte	0x50
 8660 001c 9F       		.byte	0x9f
 8661 001d 00000000 		.4byte	0
 8662 0021 00000000 		.4byte	0
 8663              	.LVUS141:
 8664 0025 00       		.uleb128 .LVU1265
ARM GAS  /tmp/cc9meDp5.s 			page 153


 8665 0026 00       		.uleb128 .LVU1267
 8666 0027 00       		.uleb128 .LVU1267
 8667 0028 00       		.uleb128 .LVU1268
 8668 0029 00       		.uleb128 .LVU1285
 8669 002a 00       		.uleb128 .LVU1299
 8670 002b 00       		.uleb128 .LVU1299
 8671 002c 00       		.uleb128 .LVU1301
 8672 002d 00       		.uleb128 .LVU1301
 8673 002e 00       		.uleb128 .LVU1304
 8674 002f 00       		.uleb128 .LVU1304
 8675 0030 00       		.uleb128 .LVU1307
 8676              	.LLST141:
 8677 0031 10000000 		.4byte	.LVL212
 8678 0035 12000000 		.4byte	.LVL213
 8679 0039 0600     		.2byte	0x6
 8680 003b 73       		.byte	0x73
 8681 003c 00       		.sleb128 0
 8682 003d 72       		.byte	0x72
 8683 003e 00       		.sleb128 0
 8684 003f 1C       		.byte	0x1c
 8685 0040 9F       		.byte	0x9f
 8686 0041 12000000 		.4byte	.LVL213
 8687 0045 14000000 		.4byte	.LVL214
 8688 0049 0100     		.2byte	0x1
 8689 004b 53       		.byte	0x53
 8690 004c 1C000000 		.4byte	.LVL216
 8691 0050 24000000 		.4byte	.LVL217
 8692 0054 0100     		.2byte	0x1
 8693 0056 53       		.byte	0x53
 8694 0057 24000000 		.4byte	.LVL217
 8695 005b 28000000 		.4byte	.LVL218
 8696 005f 0200     		.2byte	0x2
 8697 0061 72       		.byte	0x72
 8698 0062 00       		.sleb128 0
 8699 0063 28000000 		.4byte	.LVL218
 8700 0067 2E000000 		.4byte	.LVL219
 8701 006b 0300     		.2byte	0x3
 8702 006d 70       		.byte	0x70
 8703 006e 10       		.sleb128 16
 8704 006f 06       		.byte	0x6
 8705 0070 2E000000 		.4byte	.LVL219
 8706 0074 34000000 		.4byte	.LVL220
 8707 0078 0A00     		.2byte	0xa
 8708 007a 70       		.byte	0x70
 8709 007b 28       		.sleb128 40
 8710 007c 06       		.byte	0x6
 8711 007d 70       		.byte	0x70
 8712 007e 10       		.sleb128 16
 8713 007f 06       		.byte	0x6
 8714 0080 1C       		.byte	0x1c
 8715 0081 34       		.byte	0x34
 8716 0082 1C       		.byte	0x1c
 8717 0083 9F       		.byte	0x9f
 8718 0084 00000000 		.4byte	0
 8719 0088 00000000 		.4byte	0
 8720              	.LVUS142:
 8721 008c 01       		.uleb128 .LVU1286
ARM GAS  /tmp/cc9meDp5.s 			page 154


 8722 008d 00       		.uleb128 .LVU1299
 8723 008e 00       		.uleb128 .LVU1299
 8724 008f 00       		.uleb128 .LVU1301
 8725 0090 00       		.uleb128 .LVU1301
 8726 0091 00       		.uleb128 .LVU1304
 8727 0092 00       		.uleb128 .LVU1304
 8728 0093 00       		.uleb128 .LVU1307
 8729              	.LLST142:
 8730 0094 1C000000 		.4byte	.LVL216
 8731 0098 24000000 		.4byte	.LVL217
 8732 009c 0100     		.2byte	0x1
 8733 009e 53       		.byte	0x53
 8734 009f 24000000 		.4byte	.LVL217
 8735 00a3 28000000 		.4byte	.LVL218
 8736 00a7 0200     		.2byte	0x2
 8737 00a9 72       		.byte	0x72
 8738 00aa 00       		.sleb128 0
 8739 00ab 28000000 		.4byte	.LVL218
 8740 00af 2E000000 		.4byte	.LVL219
 8741 00b3 0300     		.2byte	0x3
 8742 00b5 70       		.byte	0x70
 8743 00b6 10       		.sleb128 16
 8744 00b7 06       		.byte	0x6
 8745 00b8 2E000000 		.4byte	.LVL219
 8746 00bc 34000000 		.4byte	.LVL220
 8747 00c0 0A00     		.2byte	0xa
 8748 00c2 70       		.byte	0x70
 8749 00c3 28       		.sleb128 40
 8750 00c4 06       		.byte	0x6
 8751 00c5 70       		.byte	0x70
 8752 00c6 10       		.sleb128 16
 8753 00c7 06       		.byte	0x6
 8754 00c8 1C       		.byte	0x1c
 8755 00c9 34       		.byte	0x34
 8756 00ca 1C       		.byte	0x1c
 8757 00cb 9F       		.byte	0x9f
 8758 00cc 00000000 		.4byte	0
 8759 00d0 00000000 		.4byte	0
 8760              	.LVUS143:
 8761 00d4 01       		.uleb128 .LVU1286
 8762 00d5 00       		.uleb128 .LVU1316
 8763 00d6 00       		.uleb128 .LVU1316
 8764 00d7 00       		.uleb128 .LVU1316
 8765              	.LLST143:
 8766 00d8 1C000000 		.4byte	.LVL216
 8767 00dc 43000000 		.4byte	.LVL221-1
 8768 00e0 0100     		.2byte	0x1
 8769 00e2 50       		.byte	0x50
 8770 00e3 43000000 		.4byte	.LVL221-1
 8771 00e7 44000000 		.4byte	.LVL221
 8772 00eb 0400     		.2byte	0x4
 8773 00ed F3       		.byte	0xf3
 8774 00ee 01       		.uleb128 0x1
 8775 00ef 50       		.byte	0x50
 8776 00f0 9F       		.byte	0x9f
 8777 00f1 00000000 		.4byte	0
 8778 00f5 00000000 		.4byte	0
ARM GAS  /tmp/cc9meDp5.s 			page 155


 8779              	.LVUS140:
 8780 00f9 08       		.uleb128 .LVU1252
 8781 00fa 00       		.uleb128 .LVU1256
 8782              	.LLST140:
 8783 00fb 00000000 		.4byte	.LVL210
 8784 00ff 08000000 		.4byte	.LVL211
 8785 0103 0300     		.2byte	0x3
 8786 0105 08       		.byte	0x8
 8787 0106 30       		.byte	0x30
 8788 0107 9F       		.byte	0x9f
 8789 0108 00000000 		.4byte	0
 8790 010c 00000000 		.4byte	0
 8791              	.LVUS144:
 8792 0110 0D       		.uleb128 .LVU1281
 8793 0111 00       		.uleb128 .LVU1283
 8794 0112 0D       		.uleb128 .LVU1329
 8795 0113 00       		.uleb128 .LVU1331
 8796              	.LLST144:
 8797 0114 14000000 		.4byte	.LVL214
 8798 0118 1A000000 		.4byte	.LVL215
 8799 011c 0200     		.2byte	0x2
 8800 011e 30       		.byte	0x30
 8801 011f 9F       		.byte	0x9f
 8802 0120 44000000 		.4byte	.LVL221
 8803 0124 4A000000 		.4byte	.LVL222
 8804 0128 0200     		.2byte	0x2
 8805 012a 30       		.byte	0x30
 8806 012b 9F       		.byte	0x9f
 8807 012c 00000000 		.4byte	0
 8808 0130 00000000 		.4byte	0
 8809              	.LVUS137:
 8810 0134 00       		.uleb128 0
 8811 0135 00       		.uleb128 .LVU1214
 8812 0136 00       		.uleb128 .LVU1214
 8813 0137 00       		.uleb128 .LVU1215
 8814 0138 00       		.uleb128 .LVU1215
 8815 0139 00       		.uleb128 .LVU1243
 8816 013a 00       		.uleb128 .LVU1243
 8817 013b 00       		.uleb128 0
 8818              	.LLST137:
 8819 013c 00000000 		.4byte	.LVL200
 8820 0140 0A000000 		.4byte	.LVL201
 8821 0144 0100     		.2byte	0x1
 8822 0146 50       		.byte	0x50
 8823 0147 0A000000 		.4byte	.LVL201
 8824 014b 0C000000 		.4byte	.LVL202
 8825 014f 0400     		.2byte	0x4
 8826 0151 F3       		.byte	0xf3
 8827 0152 01       		.uleb128 0x1
 8828 0153 50       		.byte	0x50
 8829 0154 9F       		.byte	0x9f
 8830 0155 0C000000 		.4byte	.LVL202
 8831 0159 40000000 		.4byte	.LVL209
 8832 015d 0100     		.2byte	0x1
 8833 015f 50       		.byte	0x50
 8834 0160 40000000 		.4byte	.LVL209
 8835 0164 42000000 		.4byte	.LFE420
ARM GAS  /tmp/cc9meDp5.s 			page 156


 8836 0168 0400     		.2byte	0x4
 8837 016a F3       		.byte	0xf3
 8838 016b 01       		.uleb128 0x1
 8839 016c 50       		.byte	0x50
 8840 016d 9F       		.byte	0x9f
 8841 016e 00000000 		.4byte	0
 8842 0172 00000000 		.4byte	0
 8843              	.LVUS138:
 8844 0176 00       		.uleb128 .LVU1220
 8845 0177 00       		.uleb128 .LVU1222
 8846 0178 00       		.uleb128 .LVU1222
 8847 0179 00       		.uleb128 .LVU1228
 8848 017a 00       		.uleb128 .LVU1228
 8849 017b 00       		.uleb128 .LVU1230
 8850 017c 00       		.uleb128 .LVU1230
 8851 017d 00       		.uleb128 .LVU1233
 8852 017e 00       		.uleb128 .LVU1233
 8853 017f 00       		.uleb128 .LVU1236
 8854              	.LLST138:
 8855 0180 1A000000 		.4byte	.LVL203
 8856 0184 1C000000 		.4byte	.LVL204
 8857 0188 0600     		.2byte	0x6
 8858 018a 73       		.byte	0x73
 8859 018b 00       		.sleb128 0
 8860 018c 72       		.byte	0x72
 8861 018d 00       		.sleb128 0
 8862 018e 1C       		.byte	0x1c
 8863 018f 9F       		.byte	0x9f
 8864 0190 1C000000 		.4byte	.LVL204
 8865 0194 26000000 		.4byte	.LVL205
 8866 0198 0100     		.2byte	0x1
 8867 019a 53       		.byte	0x53
 8868 019b 26000000 		.4byte	.LVL205
 8869 019f 2A000000 		.4byte	.LVL206
 8870 01a3 0200     		.2byte	0x2
 8871 01a5 72       		.byte	0x72
 8872 01a6 00       		.sleb128 0
 8873 01a7 2A000000 		.4byte	.LVL206
 8874 01ab 30000000 		.4byte	.LVL207
 8875 01af 0300     		.2byte	0x3
 8876 01b1 70       		.byte	0x70
 8877 01b2 10       		.sleb128 16
 8878 01b3 06       		.byte	0x6
 8879 01b4 30000000 		.4byte	.LVL207
 8880 01b8 36000000 		.4byte	.LVL208
 8881 01bc 0A00     		.2byte	0xa
 8882 01be 70       		.byte	0x70
 8883 01bf 28       		.sleb128 40
 8884 01c0 06       		.byte	0x6
 8885 01c1 70       		.byte	0x70
 8886 01c2 10       		.sleb128 16
 8887 01c3 06       		.byte	0x6
 8888 01c4 1C       		.byte	0x1c
 8889 01c5 34       		.byte	0x34
 8890 01c6 1C       		.byte	0x1c
 8891 01c7 9F       		.byte	0x9f
 8892 01c8 00000000 		.4byte	0
ARM GAS  /tmp/cc9meDp5.s 			page 157


 8893 01cc 00000000 		.4byte	0
 8894              	.LVUS120:
 8895 01d0 00       		.uleb128 0
 8896 01d1 00       		.uleb128 .LVU1058
 8897 01d2 00       		.uleb128 .LVU1058
 8898 01d3 00       		.uleb128 .LVU1117
 8899 01d4 00       		.uleb128 .LVU1117
 8900 01d5 00       		.uleb128 .LVU1120
 8901 01d6 00       		.uleb128 .LVU1120
 8902 01d7 00       		.uleb128 .LVU1131
 8903 01d8 00       		.uleb128 .LVU1131
 8904 01d9 00       		.uleb128 .LVU1137
 8905 01da 00       		.uleb128 .LVU1137
 8906 01db 00       		.uleb128 0
 8907              	.LLST120:
 8908 01dc 00000000 		.4byte	.LVL169
 8909 01e0 18000000 		.4byte	.LVL171
 8910 01e4 0100     		.2byte	0x1
 8911 01e6 50       		.byte	0x50
 8912 01e7 18000000 		.4byte	.LVL171
 8913 01eb 82000000 		.4byte	.LVL182
 8914 01ef 0100     		.2byte	0x1
 8915 01f1 59       		.byte	0x59
 8916 01f2 82000000 		.4byte	.LVL182
 8917 01f6 8D000000 		.4byte	.LVL183-1
 8918 01fa 0100     		.2byte	0x1
 8919 01fc 50       		.byte	0x50
 8920 01fd 8D000000 		.4byte	.LVL183-1
 8921 0201 9E000000 		.4byte	.LVL185
 8922 0205 0100     		.2byte	0x1
 8923 0207 59       		.byte	0x59
 8924 0208 9E000000 		.4byte	.LVL185
 8925 020c A2000000 		.4byte	.LVL186
 8926 0210 0100     		.2byte	0x1
 8927 0212 50       		.byte	0x50
 8928 0213 A2000000 		.4byte	.LVL186
 8929 0217 16010000 		.4byte	.LFE419
 8930 021b 0100     		.2byte	0x1
 8931 021d 59       		.byte	0x59
 8932 021e 00000000 		.4byte	0
 8933 0222 00000000 		.4byte	0
 8934              	.LVUS121:
 8935 0226 00       		.uleb128 0
 8936 0227 00       		.uleb128 .LVU1058
 8937 0228 00       		.uleb128 .LVU1058
 8938 0229 00       		.uleb128 .LVU1073
 8939 022a 00       		.uleb128 .LVU1073
 8940 022b 00       		.uleb128 .LVU1074
 8941 022c 00       		.uleb128 .LVU1074
 8942 022d 00       		.uleb128 .LVU1081
 8943 022e 00       		.uleb128 .LVU1085
 8944 022f 00       		.uleb128 .LVU1087
 8945 0230 00       		.uleb128 .LVU1087
 8946 0231 00       		.uleb128 .LVU1143
 8947 0232 00       		.uleb128 .LVU1143
 8948 0233 00       		.uleb128 .LVU1145
 8949 0234 00       		.uleb128 .LVU1145
ARM GAS  /tmp/cc9meDp5.s 			page 158


 8950 0235 00       		.uleb128 0
 8951              	.LLST121:
 8952 0236 00000000 		.4byte	.LVL169
 8953 023a 18000000 		.4byte	.LVL171
 8954 023e 0100     		.2byte	0x1
 8955 0240 51       		.byte	0x51
 8956 0241 18000000 		.4byte	.LVL171
 8957 0245 36000000 		.4byte	.LVL174
 8958 0249 0100     		.2byte	0x1
 8959 024b 5A       		.byte	0x5a
 8960 024c 36000000 		.4byte	.LVL174
 8961 0250 3A000000 		.4byte	.LVL175
 8962 0254 0100     		.2byte	0x1
 8963 0256 51       		.byte	0x51
 8964 0257 3A000000 		.4byte	.LVL175
 8965 025b 6A000000 		.4byte	.LVL176
 8966 025f 0300     		.2byte	0x3
 8967 0261 7A       		.byte	0x7a
 8968 0262 40       		.sleb128 -64
 8969 0263 9F       		.byte	0x9f
 8970 0264 72000000 		.4byte	.LVL177
 8971 0268 74000000 		.4byte	.LVL178
 8972 026c 0100     		.2byte	0x1
 8973 026e 51       		.byte	0x51
 8974 026f 74000000 		.4byte	.LVL178
 8975 0273 B0000000 		.4byte	.LVL188
 8976 0277 0100     		.2byte	0x1
 8977 0279 5A       		.byte	0x5a
 8978 027a B0000000 		.4byte	.LVL188
 8979 027e B5000000 		.4byte	.LVL189-1
 8980 0282 0100     		.2byte	0x1
 8981 0284 51       		.byte	0x51
 8982 0285 B5000000 		.4byte	.LVL189-1
 8983 0289 16010000 		.4byte	.LFE419
 8984 028d 0100     		.2byte	0x1
 8985 028f 5A       		.byte	0x5a
 8986 0290 00000000 		.4byte	0
 8987 0294 00000000 		.4byte	0
 8988              	.LVUS122:
 8989 0298 00       		.uleb128 0
 8990 0299 00       		.uleb128 .LVU1058
 8991 029a 00       		.uleb128 .LVU1058
 8992 029b 00       		.uleb128 0
 8993              	.LLST122:
 8994 029c 00000000 		.4byte	.LVL169
 8995 02a0 18000000 		.4byte	.LVL171
 8996 02a4 0100     		.2byte	0x1
 8997 02a6 52       		.byte	0x52
 8998 02a7 18000000 		.4byte	.LVL171
 8999 02ab 16010000 		.4byte	.LFE419
 9000 02af 0100     		.2byte	0x1
 9001 02b1 55       		.byte	0x55
 9002 02b2 00000000 		.4byte	0
 9003 02b6 00000000 		.4byte	0
 9004              	.LVUS123:
 9005 02ba 00       		.uleb128 0
 9006 02bb 00       		.uleb128 .LVU1058
ARM GAS  /tmp/cc9meDp5.s 			page 159


 9007 02bc 00       		.uleb128 .LVU1058
 9008 02bd 00       		.uleb128 .LVU1117
 9009 02be 00       		.uleb128 .LVU1117
 9010 02bf 00       		.uleb128 .LVU1120
 9011 02c0 00       		.uleb128 .LVU1120
 9012 02c1 00       		.uleb128 .LVU1131
 9013 02c2 00       		.uleb128 .LVU1131
 9014 02c3 00       		.uleb128 .LVU1143
 9015 02c4 00       		.uleb128 .LVU1143
 9016 02c5 00       		.uleb128 0
 9017              	.LLST123:
 9018 02c6 00000000 		.4byte	.LVL169
 9019 02ca 18000000 		.4byte	.LVL171
 9020 02ce 0100     		.2byte	0x1
 9021 02d0 53       		.byte	0x53
 9022 02d1 18000000 		.4byte	.LVL171
 9023 02d5 82000000 		.4byte	.LVL182
 9024 02d9 0100     		.2byte	0x1
 9025 02db 56       		.byte	0x56
 9026 02dc 82000000 		.4byte	.LVL182
 9027 02e0 8D000000 		.4byte	.LVL183-1
 9028 02e4 0100     		.2byte	0x1
 9029 02e6 51       		.byte	0x51
 9030 02e7 8D000000 		.4byte	.LVL183-1
 9031 02eb 9E000000 		.4byte	.LVL185
 9032 02ef 0100     		.2byte	0x1
 9033 02f1 56       		.byte	0x56
 9034 02f2 9E000000 		.4byte	.LVL185
 9035 02f6 B0000000 		.4byte	.LVL188
 9036 02fa 0100     		.2byte	0x1
 9037 02fc 51       		.byte	0x51
 9038 02fd B0000000 		.4byte	.LVL188
 9039 0301 16010000 		.4byte	.LFE419
 9040 0305 0100     		.2byte	0x1
 9041 0307 56       		.byte	0x56
 9042 0308 00000000 		.4byte	0
 9043 030c 00000000 		.4byte	0
 9044              	.LVUS124:
 9045 0310 02       		.uleb128 .LVU1038
 9046 0311 00       		.uleb128 .LVU1058
 9047 0312 00       		.uleb128 .LVU1058
 9048 0313 00       		.uleb128 0
 9049              	.LLST124:
 9050 0314 00000000 		.4byte	.LVL169
 9051 0318 18000000 		.4byte	.LVL171
 9052 031c 0200     		.2byte	0x2
 9053 031e 30       		.byte	0x30
 9054 031f 9F       		.byte	0x9f
 9055 0320 18000000 		.4byte	.LVL171
 9056 0324 16010000 		.4byte	.LFE419
 9057 0328 0100     		.2byte	0x1
 9058 032a 54       		.byte	0x54
 9059 032b 00000000 		.4byte	0
 9060 032f 00000000 		.4byte	0
 9061              	.LVUS126:
 9062 0333 00       		.uleb128 .LVU1068
 9063 0334 00       		.uleb128 .LVU1069
ARM GAS  /tmp/cc9meDp5.s 			page 160


 9064 0335 00       		.uleb128 .LVU1069
 9065 0336 00       		.uleb128 .LVU1117
 9066 0337 00       		.uleb128 .LVU1143
 9067 0338 00       		.uleb128 .LVU1188
 9068              	.LLST126:
 9069 0339 28000000 		.4byte	.LVL172
 9070 033d 2E000000 		.4byte	.LVL173
 9071 0341 0100     		.2byte	0x1
 9072 0343 52       		.byte	0x52
 9073 0344 2E000000 		.4byte	.LVL173
 9074 0348 82000000 		.4byte	.LVL182
 9075 034c 0100     		.2byte	0x1
 9076 034e 5B       		.byte	0x5b
 9077 034f B0000000 		.4byte	.LVL188
 9078 0353 0A010000 		.4byte	.LVL198
 9079 0357 0100     		.2byte	0x1
 9080 0359 5B       		.byte	0x5b
 9081 035a 00000000 		.4byte	0
 9082 035e 00000000 		.4byte	0
 9083              	.LVUS131:
 9084 0362 01       		.uleb128 .LVU1141
 9085 0363 00       		.uleb128 .LVU1143
 9086              	.LLST131:
 9087 0364 AE000000 		.4byte	.LVL187
 9088 0368 B0000000 		.4byte	.LVL188
 9089 036c 0200     		.2byte	0x2
 9090 036e 30       		.byte	0x30
 9091 036f 9F       		.byte	0x9f
 9092 0370 00000000 		.4byte	0
 9093 0374 00000000 		.4byte	0
 9094              	.LVUS132:
 9095 0378 00       		.uleb128 .LVU1120
 9096 0379 00       		.uleb128 .LVU1123
 9097              	.LLST132:
 9098 037a 8E000000 		.4byte	.LVL183
 9099 037e 92000000 		.4byte	.LVL184
 9100 0382 0100     		.2byte	0x1
 9101 0384 50       		.byte	0x50
 9102 0385 00000000 		.4byte	0
 9103 0389 00000000 		.4byte	0
 9104              	.LVUS133:
 9105 038d 00       		.uleb128 .LVU1117
 9106 038e 00       		.uleb128 .LVU1120
 9107 038f 00       		.uleb128 .LVU1120
 9108 0390 00       		.uleb128 .LVU1120
 9109 0391 02       		.uleb128 .LVU1125
 9110 0392 00       		.uleb128 .LVU1131
 9111 0393 00       		.uleb128 .LVU1131
 9112 0394 00       		.uleb128 .LVU1143
 9113              	.LLST133:
 9114 0395 82000000 		.4byte	.LVL182
 9115 0399 8D000000 		.4byte	.LVL183-1
 9116 039d 0100     		.2byte	0x1
 9117 039f 51       		.byte	0x51
 9118 03a0 8D000000 		.4byte	.LVL183-1
 9119 03a4 8E000000 		.4byte	.LVL183
 9120 03a8 0100     		.2byte	0x1
ARM GAS  /tmp/cc9meDp5.s 			page 161


 9121 03aa 56       		.byte	0x56
 9122 03ab 92000000 		.4byte	.LVL184
 9123 03af 9E000000 		.4byte	.LVL185
 9124 03b3 0100     		.2byte	0x1
 9125 03b5 56       		.byte	0x56
 9126 03b6 9E000000 		.4byte	.LVL185
 9127 03ba B0000000 		.4byte	.LVL188
 9128 03be 0100     		.2byte	0x1
 9129 03c0 51       		.byte	0x51
 9130 03c1 00000000 		.4byte	0
 9131 03c5 00000000 		.4byte	0
 9132              	.LVUS134:
 9133 03c9 00       		.uleb128 .LVU1117
 9134 03ca 00       		.uleb128 .LVU1120
 9135 03cb 00       		.uleb128 .LVU1120
 9136 03cc 00       		.uleb128 .LVU1120
 9137 03cd 02       		.uleb128 .LVU1125
 9138 03ce 00       		.uleb128 .LVU1131
 9139 03cf 00       		.uleb128 .LVU1131
 9140 03d0 00       		.uleb128 .LVU1137
 9141 03d1 00       		.uleb128 .LVU1137
 9142 03d2 00       		.uleb128 .LVU1143
 9143              	.LLST134:
 9144 03d3 82000000 		.4byte	.LVL182
 9145 03d7 8D000000 		.4byte	.LVL183-1
 9146 03db 0100     		.2byte	0x1
 9147 03dd 50       		.byte	0x50
 9148 03de 8D000000 		.4byte	.LVL183-1
 9149 03e2 8E000000 		.4byte	.LVL183
 9150 03e6 0100     		.2byte	0x1
 9151 03e8 59       		.byte	0x59
 9152 03e9 92000000 		.4byte	.LVL184
 9153 03ed 9E000000 		.4byte	.LVL185
 9154 03f1 0100     		.2byte	0x1
 9155 03f3 59       		.byte	0x59
 9156 03f4 9E000000 		.4byte	.LVL185
 9157 03f8 A2000000 		.4byte	.LVL186
 9158 03fc 0100     		.2byte	0x1
 9159 03fe 50       		.byte	0x50
 9160 03ff A2000000 		.4byte	.LVL186
 9161 0403 B0000000 		.4byte	.LVL188
 9162 0407 0100     		.2byte	0x1
 9163 0409 59       		.byte	0x59
 9164 040a 00000000 		.4byte	0
 9165 040e 00000000 		.4byte	0
 9166              	.LVUS135:
 9167 0412 00       		.uleb128 .LVU1131
 9168 0413 00       		.uleb128 .LVU1137
 9169 0414 00       		.uleb128 .LVU1137
 9170 0415 01       		.uleb128 .LVU1141
 9171              	.LLST135:
 9172 0416 9E000000 		.4byte	.LVL185
 9173 041a A2000000 		.4byte	.LVL186
 9174 041e 0100     		.2byte	0x1
 9175 0420 50       		.byte	0x50
 9176 0421 A2000000 		.4byte	.LVL186
 9177 0425 AE000000 		.4byte	.LVL187
ARM GAS  /tmp/cc9meDp5.s 			page 162


 9178 0429 0100     		.2byte	0x1
 9179 042b 59       		.byte	0x59
 9180 042c 00000000 		.4byte	0
 9181 0430 00000000 		.4byte	0
 9182              	.LVUS136:
 9183 0434 0E       		.uleb128 .LVU1202
 9184 0435 00       		.uleb128 .LVU1204
 9185              	.LLST136:
 9186 0436 0A010000 		.4byte	.LVL198
 9187 043a 10010000 		.4byte	.LVL199
 9188 043e 0200     		.2byte	0x2
 9189 0440 30       		.byte	0x30
 9190 0441 9F       		.byte	0x9f
 9191 0442 00000000 		.4byte	0
 9192 0446 00000000 		.4byte	0
 9193              	.LVUS127:
 9194 044a 01       		.uleb128 .LVU1158
 9195 044b 00       		.uleb128 .LVU1170
 9196 044c 00       		.uleb128 .LVU1170
 9197 044d 00       		.uleb128 .LVU1173
 9198 044e 00       		.uleb128 .LVU1173
 9199 044f 00       		.uleb128 .LVU1174
 9200 0450 00       		.uleb128 .LVU1174
 9201 0451 00       		.uleb128 .LVU1176
 9202              	.LLST127:
 9203 0452 CC000000 		.4byte	.LVL192
 9204 0456 D6000000 		.4byte	.LVL193
 9205 045a 0600     		.2byte	0x6
 9206 045c 79       		.byte	0x79
 9207 045d 1C       		.sleb128 28
 9208 045e 06       		.byte	0x6
 9209 045f 34       		.byte	0x34
 9210 0460 1C       		.byte	0x1c
 9211 0461 9F       		.byte	0x9f
 9212 0462 D6000000 		.4byte	.LVL193
 9213 0466 DC000000 		.4byte	.LVL194
 9214 046a 0100     		.2byte	0x1
 9215 046c 52       		.byte	0x52
 9216 046d DC000000 		.4byte	.LVL194
 9217 0471 DE000000 		.4byte	.LVL195
 9218 0475 0200     		.2byte	0x2
 9219 0477 73       		.byte	0x73
 9220 0478 00       		.sleb128 0
 9221 0479 DE000000 		.4byte	.LVL195
 9222 047d E4000000 		.4byte	.LVL196
 9223 0481 0300     		.2byte	0x3
 9224 0483 79       		.byte	0x79
 9225 0484 10       		.sleb128 16
 9226 0485 06       		.byte	0x6
 9227 0486 00000000 		.4byte	0
 9228 048a 00000000 		.4byte	0
 9229              	.LVUS128:
 9230 048e 01       		.uleb128 .LVU1158
 9231 048f 00       		.uleb128 .LVU1188
 9232              	.LLST128:
 9233 0490 CC000000 		.4byte	.LVL192
 9234 0494 0A010000 		.4byte	.LVL198
ARM GAS  /tmp/cc9meDp5.s 			page 163


 9235 0498 0100     		.2byte	0x1
 9236 049a 59       		.byte	0x59
 9237 049b 00000000 		.4byte	0
 9238 049f 00000000 		.4byte	0
 9239              	.LVUS129:
 9240 04a3 0C       		.uleb128 .LVU1099
 9241 04a4 00       		.uleb128 .LVU1101
 9242              	.LLST129:
 9243 04a5 74000000 		.4byte	.LVL178
 9244 04a9 78000000 		.4byte	.LVL179
 9245 04ad 0200     		.2byte	0x2
 9246 04af 30       		.byte	0x30
 9247 04b0 9F       		.byte	0x9f
 9248 04b1 00000000 		.4byte	0
 9249 04b5 00000000 		.4byte	0
 9250              	.LVUS130:
 9251 04b9 07       		.uleb128 .LVU1111
 9252 04ba 00       		.uleb128 .LVU1113
 9253              	.LLST130:
 9254 04bb 7C000000 		.4byte	.LVL180
 9255 04bf 80000000 		.4byte	.LVL181
 9256 04c3 0300     		.2byte	0x3
 9257 04c5 08       		.byte	0x8
 9258 04c6 30       		.byte	0x30
 9259 04c7 9F       		.byte	0x9f
 9260 04c8 00000000 		.4byte	0
 9261 04cc 00000000 		.4byte	0
 9262              	.LVUS125:
 9263 04d0 0C       		.uleb128 .LVU1048
 9264 04d1 00       		.uleb128 .LVU1053
 9265              	.LLST125:
 9266 04d2 00000000 		.4byte	.LVL169
 9267 04d6 14000000 		.4byte	.LVL170
 9268 04da 0300     		.2byte	0x3
 9269 04dc 08       		.byte	0x8
 9270 04dd 30       		.byte	0x30
 9271 04de 9F       		.byte	0x9f
 9272 04df 00000000 		.4byte	0
 9273 04e3 00000000 		.4byte	0
 9274              	.LVUS106:
 9275 04e7 00       		.uleb128 0
 9276 04e8 00       		.uleb128 .LVU938
 9277 04e9 00       		.uleb128 .LVU938
 9278 04ea 00       		.uleb128 .LVU955
 9279 04eb 00       		.uleb128 .LVU955
 9280 04ec 00       		.uleb128 .LVU971
 9281 04ed 00       		.uleb128 .LVU971
 9282 04ee 00       		.uleb128 .LVU987
 9283 04ef 00       		.uleb128 .LVU987
 9284 04f0 00       		.uleb128 .LVU990
 9285 04f1 00       		.uleb128 .LVU990
 9286 04f2 00       		.uleb128 .LVU1002
 9287 04f3 00       		.uleb128 .LVU1002
 9288 04f4 00       		.uleb128 .LVU1016
 9289 04f5 00       		.uleb128 .LVU1016
 9290 04f6 00       		.uleb128 0
 9291              	.LLST106:
ARM GAS  /tmp/cc9meDp5.s 			page 164


 9292 04f7 00000000 		.4byte	.LVL147
 9293 04fb 1E000000 		.4byte	.LVL151
 9294 04ff 0100     		.2byte	0x1
 9295 0501 50       		.byte	0x50
 9296 0502 1E000000 		.4byte	.LVL151
 9297 0506 26000000 		.4byte	.LVL153
 9298 050a 0100     		.2byte	0x1
 9299 050c 54       		.byte	0x54
 9300 050d 26000000 		.4byte	.LVL153
 9301 0511 32000000 		.4byte	.LVL155
 9302 0515 0100     		.2byte	0x1
 9303 0517 50       		.byte	0x50
 9304 0518 32000000 		.4byte	.LVL155
 9305 051c 54000000 		.4byte	.LVL159
 9306 0520 0100     		.2byte	0x1
 9307 0522 54       		.byte	0x54
 9308 0523 54000000 		.4byte	.LVL159
 9309 0527 5F000000 		.4byte	.LVL161-1
 9310 052b 0100     		.2byte	0x1
 9311 052d 50       		.byte	0x50
 9312 052e 5F000000 		.4byte	.LVL161-1
 9313 0532 6E000000 		.4byte	.LVL163
 9314 0536 0100     		.2byte	0x1
 9315 0538 54       		.byte	0x54
 9316 0539 6E000000 		.4byte	.LVL163
 9317 053d 80000000 		.4byte	.LVL167
 9318 0541 0100     		.2byte	0x1
 9319 0543 50       		.byte	0x50
 9320 0544 80000000 		.4byte	.LVL167
 9321 0548 88000000 		.4byte	.LFE418
 9322 054c 0100     		.2byte	0x1
 9323 054e 54       		.byte	0x54
 9324 054f 00000000 		.4byte	0
 9325 0553 00000000 		.4byte	0
 9326              	.LVUS107:
 9327 0557 00       		.uleb128 0
 9328 0558 00       		.uleb128 .LVU929
 9329 0559 00       		.uleb128 .LVU929
 9330 055a 00       		.uleb128 .LVU987
 9331 055b 00       		.uleb128 .LVU987
 9332 055c 00       		.uleb128 .LVU988
 9333 055d 00       		.uleb128 .LVU988
 9334 055e 00       		.uleb128 0
 9335              	.LLST107:
 9336 055f 00000000 		.4byte	.LVL147
 9337 0563 10000000 		.4byte	.LVL150
 9338 0567 0100     		.2byte	0x1
 9339 0569 51       		.byte	0x51
 9340 056a 10000000 		.4byte	.LVL150
 9341 056e 54000000 		.4byte	.LVL159
 9342 0572 0400     		.2byte	0x4
 9343 0574 F3       		.byte	0xf3
 9344 0575 01       		.uleb128 0x1
 9345 0576 51       		.byte	0x51
 9346 0577 9F       		.byte	0x9f
 9347 0578 54000000 		.4byte	.LVL159
 9348 057c 58000000 		.4byte	.LVL160
ARM GAS  /tmp/cc9meDp5.s 			page 165


 9349 0580 0100     		.2byte	0x1
 9350 0582 51       		.byte	0x51
 9351 0583 58000000 		.4byte	.LVL160
 9352 0587 88000000 		.4byte	.LFE418
 9353 058b 0400     		.2byte	0x4
 9354 058d F3       		.byte	0xf3
 9355 058e 01       		.uleb128 0x1
 9356 058f 51       		.byte	0x51
 9357 0590 9F       		.byte	0x9f
 9358 0591 00000000 		.4byte	0
 9359 0595 00000000 		.4byte	0
 9360              	.LVUS108:
 9361 0599 00       		.uleb128 0
 9362 059a 00       		.uleb128 .LVU929
 9363 059b 00       		.uleb128 .LVU929
 9364 059c 00       		.uleb128 .LVU987
 9365 059d 00       		.uleb128 .LVU987
 9366 059e 00       		.uleb128 .LVU988
 9367 059f 00       		.uleb128 .LVU988
 9368 05a0 00       		.uleb128 .LVU990
 9369 05a1 00       		.uleb128 .LVU990
 9370 05a2 00       		.uleb128 .LVU1002
 9371 05a3 00       		.uleb128 .LVU1002
 9372 05a4 00       		.uleb128 .LVU1009
 9373 05a5 00       		.uleb128 .LVU1009
 9374 05a6 00       		.uleb128 .LVU1015
 9375 05a7 00       		.uleb128 .LVU1015
 9376 05a8 00       		.uleb128 .LVU1016
 9377 05a9 00       		.uleb128 .LVU1016
 9378 05aa 00       		.uleb128 0
 9379              	.LLST108:
 9380 05ab 00000000 		.4byte	.LVL147
 9381 05af 10000000 		.4byte	.LVL150
 9382 05b3 0100     		.2byte	0x1
 9383 05b5 52       		.byte	0x52
 9384 05b6 10000000 		.4byte	.LVL150
 9385 05ba 54000000 		.4byte	.LVL159
 9386 05be 0400     		.2byte	0x4
 9387 05c0 F3       		.byte	0xf3
 9388 05c1 01       		.uleb128 0x1
 9389 05c2 52       		.byte	0x52
 9390 05c3 9F       		.byte	0x9f
 9391 05c4 54000000 		.4byte	.LVL159
 9392 05c8 58000000 		.4byte	.LVL160
 9393 05cc 0100     		.2byte	0x1
 9394 05ce 52       		.byte	0x52
 9395 05cf 58000000 		.4byte	.LVL160
 9396 05d3 5F000000 		.4byte	.LVL161-1
 9397 05d7 0100     		.2byte	0x1
 9398 05d9 51       		.byte	0x51
 9399 05da 5F000000 		.4byte	.LVL161-1
 9400 05de 6E000000 		.4byte	.LVL163
 9401 05e2 0100     		.2byte	0x1
 9402 05e4 55       		.byte	0x55
 9403 05e5 6E000000 		.4byte	.LVL163
 9404 05e9 72000000 		.4byte	.LVL164
 9405 05ed 0100     		.2byte	0x1
ARM GAS  /tmp/cc9meDp5.s 			page 166


 9406 05ef 51       		.byte	0x51
 9407 05f0 72000000 		.4byte	.LVL164
 9408 05f4 7C000000 		.4byte	.LVL166
 9409 05f8 0100     		.2byte	0x1
 9410 05fa 55       		.byte	0x55
 9411 05fb 7C000000 		.4byte	.LVL166
 9412 05ff 80000000 		.4byte	.LVL167
 9413 0603 0100     		.2byte	0x1
 9414 0605 51       		.byte	0x51
 9415 0606 80000000 		.4byte	.LVL167
 9416 060a 88000000 		.4byte	.LFE418
 9417 060e 0100     		.2byte	0x1
 9418 0610 55       		.byte	0x55
 9419 0611 00000000 		.4byte	0
 9420 0615 00000000 		.4byte	0
 9421              	.LVUS109:
 9422 0619 01       		.uleb128 .LVU1013
 9423 061a 00       		.uleb128 .LVU1015
 9424 061b 00       		.uleb128 .LVU1016
 9425 061c 00       		.uleb128 0
 9426              	.LLST109:
 9427 061d 7A000000 		.4byte	.LVL165
 9428 0621 7C000000 		.4byte	.LVL166
 9429 0625 0200     		.2byte	0x2
 9430 0627 30       		.byte	0x30
 9431 0628 9F       		.byte	0x9f
 9432 0629 80000000 		.4byte	.LVL167
 9433 062d 88000000 		.4byte	.LFE418
 9434 0631 0100     		.2byte	0x1
 9435 0633 50       		.byte	0x50
 9436 0634 00000000 		.4byte	0
 9437 0638 00000000 		.4byte	0
 9438              	.LVUS110:
 9439 063c 08       		.uleb128 .LVU921
 9440 063d 00       		.uleb128 .LVU923
 9441              	.LLST110:
 9442 063e 08000000 		.4byte	.LVL148
 9443 0642 0C000000 		.4byte	.LVL149
 9444 0646 0300     		.2byte	0x3
 9445 0648 08       		.byte	0x8
 9446 0649 30       		.byte	0x30
 9447 064a 9F       		.byte	0x9f
 9448 064b 00000000 		.4byte	0
 9449 064f 00000000 		.4byte	0
 9450              	.LVUS111:
 9451 0653 0C       		.uleb128 .LVU950
 9452 0654 00       		.uleb128 .LVU952
 9453              	.LLST111:
 9454 0655 1E000000 		.4byte	.LVL151
 9455 0659 24000000 		.4byte	.LVL152
 9456 065d 0200     		.2byte	0x2
 9457 065f 30       		.byte	0x30
 9458 0660 9F       		.byte	0x9f
 9459 0661 00000000 		.4byte	0
 9460 0665 00000000 		.4byte	0
 9461              	.LVUS112:
 9462 0669 01       		.uleb128 .LVU956
ARM GAS  /tmp/cc9meDp5.s 			page 167


 9463 066a 00       		.uleb128 .LVU968
 9464 066b 00       		.uleb128 .LVU968
 9465 066c 00       		.uleb128 .LVU974
 9466 066d 00       		.uleb128 .LVU974
 9467 066e 00       		.uleb128 .LVU975
 9468              	.LLST112:
 9469 066f 26000000 		.4byte	.LVL153
 9470 0673 2C000000 		.4byte	.LVL154
 9471 0677 0600     		.2byte	0x6
 9472 0679 70       		.byte	0x70
 9473 067a 1C       		.sleb128 28
 9474 067b 06       		.byte	0x6
 9475 067c 34       		.byte	0x34
 9476 067d 1C       		.byte	0x1c
 9477 067e 9F       		.byte	0x9f
 9478 067f 2C000000 		.4byte	.LVL154
 9479 0683 38000000 		.4byte	.LVL156
 9480 0687 0100     		.2byte	0x1
 9481 0689 52       		.byte	0x52
 9482 068a 38000000 		.4byte	.LVL156
 9483 068e 3A000000 		.4byte	.LVL157
 9484 0692 0300     		.2byte	0x3
 9485 0694 74       		.byte	0x74
 9486 0695 10       		.sleb128 16
 9487 0696 06       		.byte	0x6
 9488 0697 00000000 		.4byte	0
 9489 069b 00000000 		.4byte	0
 9490              	.LVUS113:
 9491 069f 01       		.uleb128 .LVU956
 9492 06a0 00       		.uleb128 .LVU971
 9493 06a1 00       		.uleb128 .LVU971
 9494 06a2 00       		.uleb128 .LVU987
 9495              	.LLST113:
 9496 06a3 26000000 		.4byte	.LVL153
 9497 06a7 32000000 		.4byte	.LVL155
 9498 06ab 0100     		.2byte	0x1
 9499 06ad 50       		.byte	0x50
 9500 06ae 32000000 		.4byte	.LVL155
 9501 06b2 54000000 		.4byte	.LVL159
 9502 06b6 0100     		.2byte	0x1
 9503 06b8 54       		.byte	0x54
 9504 06b9 00000000 		.4byte	0
 9505 06bd 00000000 		.4byte	0
 9506              	.LVUS114:
 9507 06c1 00       		.uleb128 .LVU990
 9508 06c2 00       		.uleb128 .LVU994
 9509              	.LLST114:
 9510 06c3 60000000 		.4byte	.LVL161
 9511 06c7 64000000 		.4byte	.LVL162
 9512 06cb 0100     		.2byte	0x1
 9513 06cd 50       		.byte	0x50
 9514 06ce 00000000 		.4byte	0
 9515 06d2 00000000 		.4byte	0
 9516              	.LVUS115:
 9517 06d6 00       		.uleb128 .LVU988
 9518 06d7 00       		.uleb128 .LVU990
 9519 06d8 00       		.uleb128 .LVU990
ARM GAS  /tmp/cc9meDp5.s 			page 168


 9520 06d9 00       		.uleb128 .LVU990
 9521 06da 02       		.uleb128 .LVU996
 9522 06db 00       		.uleb128 .LVU1002
 9523 06dc 00       		.uleb128 .LVU1002
 9524 06dd 00       		.uleb128 .LVU1009
 9525 06de 00       		.uleb128 .LVU1009
 9526 06df 00       		.uleb128 .LVU1015
 9527 06e0 00       		.uleb128 .LVU1015
 9528 06e1 00       		.uleb128 .LVU1016
 9529              	.LLST115:
 9530 06e2 58000000 		.4byte	.LVL160
 9531 06e6 5F000000 		.4byte	.LVL161-1
 9532 06ea 0100     		.2byte	0x1
 9533 06ec 51       		.byte	0x51
 9534 06ed 5F000000 		.4byte	.LVL161-1
 9535 06f1 60000000 		.4byte	.LVL161
 9536 06f5 0100     		.2byte	0x1
 9537 06f7 55       		.byte	0x55
 9538 06f8 64000000 		.4byte	.LVL162
 9539 06fc 6E000000 		.4byte	.LVL163
 9540 0700 0100     		.2byte	0x1
 9541 0702 55       		.byte	0x55
 9542 0703 6E000000 		.4byte	.LVL163
 9543 0707 72000000 		.4byte	.LVL164
 9544 070b 0100     		.2byte	0x1
 9545 070d 51       		.byte	0x51
 9546 070e 72000000 		.4byte	.LVL164
 9547 0712 7C000000 		.4byte	.LVL166
 9548 0716 0100     		.2byte	0x1
 9549 0718 55       		.byte	0x55
 9550 0719 7C000000 		.4byte	.LVL166
 9551 071d 80000000 		.4byte	.LVL167
 9552 0721 0100     		.2byte	0x1
 9553 0723 51       		.byte	0x51
 9554 0724 00000000 		.4byte	0
 9555 0728 00000000 		.4byte	0
 9556              	.LVUS116:
 9557 072c 00       		.uleb128 .LVU988
 9558 072d 00       		.uleb128 .LVU990
 9559 072e 00       		.uleb128 .LVU990
 9560 072f 00       		.uleb128 .LVU990
 9561 0730 02       		.uleb128 .LVU996
 9562 0731 00       		.uleb128 .LVU1002
 9563 0732 00       		.uleb128 .LVU1002
 9564 0733 00       		.uleb128 .LVU1016
 9565              	.LLST116:
 9566 0734 58000000 		.4byte	.LVL160
 9567 0738 5F000000 		.4byte	.LVL161-1
 9568 073c 0100     		.2byte	0x1
 9569 073e 50       		.byte	0x50
 9570 073f 5F000000 		.4byte	.LVL161-1
 9571 0743 60000000 		.4byte	.LVL161
 9572 0747 0100     		.2byte	0x1
 9573 0749 54       		.byte	0x54
 9574 074a 64000000 		.4byte	.LVL162
 9575 074e 6E000000 		.4byte	.LVL163
 9576 0752 0100     		.2byte	0x1
ARM GAS  /tmp/cc9meDp5.s 			page 169


 9577 0754 54       		.byte	0x54
 9578 0755 6E000000 		.4byte	.LVL163
 9579 0759 80000000 		.4byte	.LVL167
 9580 075d 0100     		.2byte	0x1
 9581 075f 50       		.byte	0x50
 9582 0760 00000000 		.4byte	0
 9583 0764 00000000 		.4byte	0
 9584              	.LVUS117:
 9585 0768 01       		.uleb128 .LVU1003
 9586 0769 00       		.uleb128 .LVU1009
 9587 076a 00       		.uleb128 .LVU1009
 9588 076b 01       		.uleb128 .LVU1013
 9589              	.LLST117:
 9590 076c 6E000000 		.4byte	.LVL163
 9591 0770 72000000 		.4byte	.LVL164
 9592 0774 0100     		.2byte	0x1
 9593 0776 51       		.byte	0x51
 9594 0777 72000000 		.4byte	.LVL164
 9595 077b 7A000000 		.4byte	.LVL165
 9596 077f 0100     		.2byte	0x1
 9597 0781 55       		.byte	0x55
 9598 0782 00000000 		.4byte	0
 9599 0786 00000000 		.4byte	0
 9600              	.LVUS118:
 9601 078a 00       		.uleb128 .LVU1002
 9602 078b 01       		.uleb128 .LVU1013
 9603              	.LLST118:
 9604 078c 6E000000 		.4byte	.LVL163
 9605 0790 7A000000 		.4byte	.LVL165
 9606 0794 0100     		.2byte	0x1
 9607 0796 50       		.byte	0x50
 9608 0797 00000000 		.4byte	0
 9609 079b 00000000 		.4byte	0
 9610              	.LVUS119:
 9611 079f 0E       		.uleb128 .LVU1030
 9612 07a0 00       		.uleb128 .LVU1032
 9613              	.LLST119:
 9614 07a1 80000000 		.4byte	.LVL167
 9615 07a5 86000000 		.4byte	.LVL168
 9616 07a9 0200     		.2byte	0x2
 9617 07ab 30       		.byte	0x30
 9618 07ac 9F       		.byte	0x9f
 9619 07ad 00000000 		.4byte	0
 9620 07b1 00000000 		.4byte	0
 9621              	.LVUS98:
 9622 07b5 00       		.uleb128 0
 9623 07b6 00       		.uleb128 .LVU858
 9624 07b7 00       		.uleb128 .LVU858
 9625 07b8 00       		.uleb128 0
 9626              	.LLST98:
 9627 07b9 00000000 		.4byte	.LVL135
 9628 07bd 2B000000 		.4byte	.LVL140-1
 9629 07c1 0100     		.2byte	0x1
 9630 07c3 50       		.byte	0x50
 9631 07c4 2B000000 		.4byte	.LVL140-1
 9632 07c8 34000000 		.4byte	.LFE416
 9633 07cc 0400     		.2byte	0x4
ARM GAS  /tmp/cc9meDp5.s 			page 170


 9634 07ce F3       		.byte	0xf3
 9635 07cf 01       		.uleb128 0x1
 9636 07d0 50       		.byte	0x50
 9637 07d1 9F       		.byte	0x9f
 9638 07d2 00000000 		.4byte	0
 9639 07d6 00000000 		.4byte	0
 9640              	.LVUS99:
 9641 07da 00       		.uleb128 0
 9642 07db 00       		.uleb128 .LVU842
 9643 07dc 00       		.uleb128 .LVU842
 9644 07dd 00       		.uleb128 .LVU844
 9645 07de 00       		.uleb128 .LVU844
 9646 07df 00       		.uleb128 .LVU846
 9647 07e0 00       		.uleb128 .LVU846
 9648 07e1 00       		.uleb128 0
 9649              	.LLST99:
 9650 07e2 00000000 		.4byte	.LVL135
 9651 07e6 10000000 		.4byte	.LVL137
 9652 07ea 0100     		.2byte	0x1
 9653 07ec 51       		.byte	0x51
 9654 07ed 10000000 		.4byte	.LVL137
 9655 07f1 14000000 		.4byte	.LVL138
 9656 07f5 0200     		.2byte	0x2
 9657 07f7 73       		.byte	0x73
 9658 07f8 00       		.sleb128 0
 9659 07f9 14000000 		.4byte	.LVL138
 9660 07fd 18000000 		.4byte	.LVL139
 9661 0801 0300     		.2byte	0x3
 9662 0803 70       		.byte	0x70
 9663 0804 10       		.sleb128 16
 9664 0805 06       		.byte	0x6
 9665 0806 18000000 		.4byte	.LVL139
 9666 080a 34000000 		.4byte	.LFE416
 9667 080e 0400     		.2byte	0x4
 9668 0810 F3       		.byte	0xf3
 9669 0811 01       		.uleb128 0x1
 9670 0812 51       		.byte	0x51
 9671 0813 9F       		.byte	0x9f
 9672 0814 00000000 		.4byte	0
 9673 0818 00000000 		.4byte	0
 9674              	.LVUS100:
 9675 081c 08       		.uleb128 .LVU820
 9676 081d 00       		.uleb128 .LVU824
 9677              	.LLST100:
 9678 081e 00000000 		.4byte	.LVL135
 9679 0822 08000000 		.4byte	.LVL136
 9680 0826 0300     		.2byte	0x3
 9681 0828 08       		.byte	0x8
 9682 0829 30       		.byte	0x30
 9683 082a 9F       		.byte	0x9f
 9684 082b 00000000 		.4byte	0
 9685 082f 00000000 		.4byte	0
 9686              	.LVUS101:
 9687 0833 04       		.uleb128 .LVU828
 9688 0834 00       		.uleb128 .LVU842
 9689 0835 00       		.uleb128 .LVU842
 9690 0836 00       		.uleb128 .LVU844
ARM GAS  /tmp/cc9meDp5.s 			page 171


 9691 0837 00       		.uleb128 .LVU844
 9692 0838 00       		.uleb128 .LVU846
 9693 0839 00       		.uleb128 .LVU846
 9694 083a 00       		.uleb128 .LVU858
 9695              	.LLST101:
 9696 083b 08000000 		.4byte	.LVL136
 9697 083f 10000000 		.4byte	.LVL137
 9698 0843 0100     		.2byte	0x1
 9699 0845 51       		.byte	0x51
 9700 0846 10000000 		.4byte	.LVL137
 9701 084a 14000000 		.4byte	.LVL138
 9702 084e 0200     		.2byte	0x2
 9703 0850 73       		.byte	0x73
 9704 0851 00       		.sleb128 0
 9705 0852 14000000 		.4byte	.LVL138
 9706 0856 18000000 		.4byte	.LVL139
 9707 085a 0300     		.2byte	0x3
 9708 085c 70       		.byte	0x70
 9709 085d 10       		.sleb128 16
 9710 085e 06       		.byte	0x6
 9711 085f 18000000 		.4byte	.LVL139
 9712 0863 2C000000 		.4byte	.LVL140
 9713 0867 0400     		.2byte	0x4
 9714 0869 F3       		.byte	0xf3
 9715 086a 01       		.uleb128 0x1
 9716 086b 51       		.byte	0x51
 9717 086c 9F       		.byte	0x9f
 9718 086d 00000000 		.4byte	0
 9719 0871 00000000 		.4byte	0
 9720              	.LVUS102:
 9721 0875 04       		.uleb128 .LVU828
 9722 0876 00       		.uleb128 .LVU858
 9723 0877 00       		.uleb128 .LVU858
 9724 0878 00       		.uleb128 .LVU858
 9725              	.LLST102:
 9726 0879 08000000 		.4byte	.LVL136
 9727 087d 2B000000 		.4byte	.LVL140-1
 9728 0881 0100     		.2byte	0x1
 9729 0883 50       		.byte	0x50
 9730 0884 2B000000 		.4byte	.LVL140-1
 9731 0888 2C000000 		.4byte	.LVL140
 9732 088c 0400     		.2byte	0x4
 9733 088e F3       		.byte	0xf3
 9734 088f 01       		.uleb128 0x1
 9735 0890 50       		.byte	0x50
 9736 0891 9F       		.byte	0x9f
 9737 0892 00000000 		.4byte	0
 9738 0896 00000000 		.4byte	0
 9739              	.LVUS103:
 9740 089a 0D       		.uleb128 .LVU871
 9741 089b 00       		.uleb128 .LVU873
 9742              	.LLST103:
 9743 089c 2C000000 		.4byte	.LVL140
 9744 08a0 32000000 		.4byte	.LVL141
 9745 08a4 0200     		.2byte	0x2
 9746 08a6 30       		.byte	0x30
 9747 08a7 9F       		.byte	0x9f
ARM GAS  /tmp/cc9meDp5.s 			page 172


 9748 08a8 00000000 		.4byte	0
 9749 08ac 00000000 		.4byte	0
 9750              	.LVUS79:
 9751 08b0 00       		.uleb128 0
 9752 08b1 00       		.uleb128 .LVU711
 9753 08b2 00       		.uleb128 .LVU711
 9754 08b3 00       		.uleb128 .LVU723
 9755 08b4 00       		.uleb128 .LVU723
 9756 08b5 00       		.uleb128 .LVU735
 9757 08b6 00       		.uleb128 .LVU735
 9758 08b7 00       		.uleb128 .LVU753
 9759 08b8 00       		.uleb128 .LVU753
 9760 08b9 00       		.uleb128 .LVU754
 9761 08ba 00       		.uleb128 .LVU754
 9762 08bb 00       		.uleb128 0
 9763              	.LLST79:
 9764 08bc 00000000 		.4byte	.LVL111
 9765 08c0 15000000 		.4byte	.LVL115-1
 9766 08c4 0100     		.2byte	0x1
 9767 08c6 50       		.byte	0x50
 9768 08c7 15000000 		.4byte	.LVL115-1
 9769 08cb 24000000 		.4byte	.LVL117
 9770 08cf 0100     		.2byte	0x1
 9771 08d1 54       		.byte	0x54
 9772 08d2 24000000 		.4byte	.LVL117
 9773 08d6 32000000 		.4byte	.LVL120
 9774 08da 0100     		.2byte	0x1
 9775 08dc 50       		.byte	0x50
 9776 08dd 32000000 		.4byte	.LVL120
 9777 08e1 3A000000 		.4byte	.LVL122
 9778 08e5 0100     		.2byte	0x1
 9779 08e7 54       		.byte	0x54
 9780 08e8 3A000000 		.4byte	.LVL122
 9781 08ec 3E000000 		.4byte	.LVL123
 9782 08f0 0100     		.2byte	0x1
 9783 08f2 50       		.byte	0x50
 9784 08f3 3E000000 		.4byte	.LVL123
 9785 08f7 46000000 		.4byte	.LFE414
 9786 08fb 0100     		.2byte	0x1
 9787 08fd 54       		.byte	0x54
 9788 08fe 00000000 		.4byte	0
 9789 0902 00000000 		.4byte	0
 9790              	.LVUS80:
 9791 0906 00       		.uleb128 0
 9792 0907 00       		.uleb128 .LVU711
 9793 0908 00       		.uleb128 .LVU711
 9794 0909 00       		.uleb128 .LVU723
 9795 090a 00       		.uleb128 .LVU723
 9796 090b 00       		.uleb128 .LVU730
 9797 090c 00       		.uleb128 .LVU730
 9798 090d 00       		.uleb128 .LVU753
 9799 090e 00       		.uleb128 .LVU753
 9800 090f 00       		.uleb128 0
 9801              	.LLST80:
 9802 0910 00000000 		.4byte	.LVL111
 9803 0914 15000000 		.4byte	.LVL115-1
 9804 0918 0100     		.2byte	0x1
ARM GAS  /tmp/cc9meDp5.s 			page 173


 9805 091a 51       		.byte	0x51
 9806 091b 15000000 		.4byte	.LVL115-1
 9807 091f 24000000 		.4byte	.LVL117
 9808 0923 0100     		.2byte	0x1
 9809 0925 55       		.byte	0x55
 9810 0926 24000000 		.4byte	.LVL117
 9811 092a 28000000 		.4byte	.LVL118
 9812 092e 0100     		.2byte	0x1
 9813 0930 51       		.byte	0x51
 9814 0931 28000000 		.4byte	.LVL118
 9815 0935 3A000000 		.4byte	.LVL122
 9816 0939 0100     		.2byte	0x1
 9817 093b 55       		.byte	0x55
 9818 093c 3A000000 		.4byte	.LVL122
 9819 0940 46000000 		.4byte	.LFE414
 9820 0944 0100     		.2byte	0x1
 9821 0946 51       		.byte	0x51
 9822 0947 00000000 		.4byte	0
 9823 094b 00000000 		.4byte	0
 9824              	.LVUS81:
 9825 094f 00       		.uleb128 .LVU735
 9826 0950 00       		.uleb128 .LVU753
 9827 0951 00       		.uleb128 .LVU754
 9828 0952 00       		.uleb128 0
 9829              	.LLST81:
 9830 0953 32000000 		.4byte	.LVL120
 9831 0957 3A000000 		.4byte	.LVL122
 9832 095b 0100     		.2byte	0x1
 9833 095d 50       		.byte	0x50
 9834 095e 3E000000 		.4byte	.LVL123
 9835 0962 46000000 		.4byte	.LFE414
 9836 0966 0100     		.2byte	0x1
 9837 0968 50       		.byte	0x50
 9838 0969 00000000 		.4byte	0
 9839 096d 00000000 		.4byte	0
 9840              	.LVUS82:
 9841 0971 08       		.uleb128 .LVU697
 9842 0972 00       		.uleb128 .LVU701
 9843              	.LLST82:
 9844 0973 04000000 		.4byte	.LVL112
 9845 0977 0C000000 		.4byte	.LVL113
 9846 097b 0300     		.2byte	0x3
 9847 097d 08       		.byte	0x8
 9848 097e 30       		.byte	0x30
 9849 097f 9F       		.byte	0x9f
 9850 0980 00000000 		.4byte	0
 9851 0984 00000000 		.4byte	0
 9852              	.LVUS83:
 9853 0988 04       		.uleb128 .LVU705
 9854 0989 00       		.uleb128 .LVU711
 9855 098a 00       		.uleb128 .LVU711
 9856 098b 00       		.uleb128 .LVU723
 9857 098c 00       		.uleb128 .LVU723
 9858 098d 00       		.uleb128 .LVU730
 9859 098e 00       		.uleb128 .LVU730
 9860 098f 00       		.uleb128 .LVU735
 9861 0990 00       		.uleb128 .LVU753
ARM GAS  /tmp/cc9meDp5.s 			page 174


 9862 0991 00       		.uleb128 .LVU754
 9863              	.LLST83:
 9864 0992 0C000000 		.4byte	.LVL113
 9865 0996 15000000 		.4byte	.LVL115-1
 9866 099a 0100     		.2byte	0x1
 9867 099c 51       		.byte	0x51
 9868 099d 15000000 		.4byte	.LVL115-1
 9869 09a1 24000000 		.4byte	.LVL117
 9870 09a5 0100     		.2byte	0x1
 9871 09a7 55       		.byte	0x55
 9872 09a8 24000000 		.4byte	.LVL117
 9873 09ac 28000000 		.4byte	.LVL118
 9874 09b0 0100     		.2byte	0x1
 9875 09b2 51       		.byte	0x51
 9876 09b3 28000000 		.4byte	.LVL118
 9877 09b7 32000000 		.4byte	.LVL120
 9878 09bb 0100     		.2byte	0x1
 9879 09bd 55       		.byte	0x55
 9880 09be 3A000000 		.4byte	.LVL122
 9881 09c2 3E000000 		.4byte	.LVL123
 9882 09c6 0100     		.2byte	0x1
 9883 09c8 51       		.byte	0x51
 9884 09c9 00000000 		.4byte	0
 9885 09cd 00000000 		.4byte	0
 9886              	.LVUS84:
 9887 09d1 04       		.uleb128 .LVU705
 9888 09d2 00       		.uleb128 .LVU711
 9889 09d3 00       		.uleb128 .LVU711
 9890 09d4 00       		.uleb128 .LVU723
 9891 09d5 00       		.uleb128 .LVU723
 9892 09d6 00       		.uleb128 .LVU735
 9893 09d7 00       		.uleb128 .LVU753
 9894 09d8 00       		.uleb128 .LVU754
 9895              	.LLST84:
 9896 09d9 0C000000 		.4byte	.LVL113
 9897 09dd 15000000 		.4byte	.LVL115-1
 9898 09e1 0100     		.2byte	0x1
 9899 09e3 50       		.byte	0x50
 9900 09e4 15000000 		.4byte	.LVL115-1
 9901 09e8 24000000 		.4byte	.LVL117
 9902 09ec 0100     		.2byte	0x1
 9903 09ee 54       		.byte	0x54
 9904 09ef 24000000 		.4byte	.LVL117
 9905 09f3 32000000 		.4byte	.LVL120
 9906 09f7 0100     		.2byte	0x1
 9907 09f9 50       		.byte	0x50
 9908 09fa 3A000000 		.4byte	.LVL122
 9909 09fe 3E000000 		.4byte	.LVL123
 9910 0a02 0100     		.2byte	0x1
 9911 0a04 50       		.byte	0x50
 9912 0a05 00000000 		.4byte	0
 9913 0a09 00000000 		.4byte	0
 9914              	.LVUS85:
 9915 0a0d 00       		.uleb128 .LVU711
 9916 0a0e 00       		.uleb128 .LVU715
 9917              	.LLST85:
 9918 0a0f 16000000 		.4byte	.LVL115
ARM GAS  /tmp/cc9meDp5.s 			page 175


 9919 0a13 1A000000 		.4byte	.LVL116
 9920 0a17 0100     		.2byte	0x1
 9921 0a19 50       		.byte	0x50
 9922 0a1a 00000000 		.4byte	0
 9923 0a1e 00000000 		.4byte	0
 9924              	.LVUS86:
 9925 0a22 00       		.uleb128 .LVU709
 9926 0a23 00       		.uleb128 .LVU711
 9927 0a24 00       		.uleb128 .LVU711
 9928 0a25 00       		.uleb128 .LVU711
 9929 0a26 02       		.uleb128 .LVU717
 9930 0a27 00       		.uleb128 .LVU723
 9931 0a28 00       		.uleb128 .LVU723
 9932 0a29 00       		.uleb128 .LVU730
 9933 0a2a 00       		.uleb128 .LVU730
 9934 0a2b 00       		.uleb128 .LVU735
 9935 0a2c 00       		.uleb128 .LVU753
 9936 0a2d 00       		.uleb128 0
 9937              	.LLST86:
 9938 0a2e 0E000000 		.4byte	.LVL114
 9939 0a32 15000000 		.4byte	.LVL115-1
 9940 0a36 0100     		.2byte	0x1
 9941 0a38 51       		.byte	0x51
 9942 0a39 15000000 		.4byte	.LVL115-1
 9943 0a3d 16000000 		.4byte	.LVL115
 9944 0a41 0100     		.2byte	0x1
 9945 0a43 55       		.byte	0x55
 9946 0a44 1A000000 		.4byte	.LVL116
 9947 0a48 24000000 		.4byte	.LVL117
 9948 0a4c 0100     		.2byte	0x1
 9949 0a4e 55       		.byte	0x55
 9950 0a4f 24000000 		.4byte	.LVL117
 9951 0a53 28000000 		.4byte	.LVL118
 9952 0a57 0100     		.2byte	0x1
 9953 0a59 51       		.byte	0x51
 9954 0a5a 28000000 		.4byte	.LVL118
 9955 0a5e 32000000 		.4byte	.LVL120
 9956 0a62 0100     		.2byte	0x1
 9957 0a64 55       		.byte	0x55
 9958 0a65 3A000000 		.4byte	.LVL122
 9959 0a69 46000000 		.4byte	.LFE414
 9960 0a6d 0100     		.2byte	0x1
 9961 0a6f 51       		.byte	0x51
 9962 0a70 00000000 		.4byte	0
 9963 0a74 00000000 		.4byte	0
 9964              	.LVUS87:
 9965 0a78 00       		.uleb128 .LVU709
 9966 0a79 00       		.uleb128 .LVU711
 9967 0a7a 00       		.uleb128 .LVU711
 9968 0a7b 00       		.uleb128 .LVU711
 9969 0a7c 02       		.uleb128 .LVU717
 9970 0a7d 00       		.uleb128 .LVU723
 9971 0a7e 00       		.uleb128 .LVU723
 9972 0a7f 00       		.uleb128 .LVU735
 9973 0a80 00       		.uleb128 .LVU753
 9974 0a81 00       		.uleb128 .LVU754
 9975 0a82 00       		.uleb128 .LVU754
ARM GAS  /tmp/cc9meDp5.s 			page 176


 9976 0a83 00       		.uleb128 0
 9977              	.LLST87:
 9978 0a84 0E000000 		.4byte	.LVL114
 9979 0a88 15000000 		.4byte	.LVL115-1
 9980 0a8c 0100     		.2byte	0x1
 9981 0a8e 50       		.byte	0x50
 9982 0a8f 15000000 		.4byte	.LVL115-1
 9983 0a93 16000000 		.4byte	.LVL115
 9984 0a97 0100     		.2byte	0x1
 9985 0a99 54       		.byte	0x54
 9986 0a9a 1A000000 		.4byte	.LVL116
 9987 0a9e 24000000 		.4byte	.LVL117
 9988 0aa2 0100     		.2byte	0x1
 9989 0aa4 54       		.byte	0x54
 9990 0aa5 24000000 		.4byte	.LVL117
 9991 0aa9 32000000 		.4byte	.LVL120
 9992 0aad 0100     		.2byte	0x1
 9993 0aaf 50       		.byte	0x50
 9994 0ab0 3A000000 		.4byte	.LVL122
 9995 0ab4 3E000000 		.4byte	.LVL123
 9996 0ab8 0100     		.2byte	0x1
 9997 0aba 50       		.byte	0x50
 9998 0abb 3E000000 		.4byte	.LVL123
 9999 0abf 46000000 		.4byte	.LFE414
 10000 0ac3 0100     		.2byte	0x1
 10001 0ac5 54       		.byte	0x54
 10002 0ac6 00000000 		.4byte	0
 10003 0aca 00000000 		.4byte	0
 10004              	.LVUS88:
 10005 0ace 01       		.uleb128 .LVU724
 10006 0acf 00       		.uleb128 .LVU730
 10007 0ad0 00       		.uleb128 .LVU730
 10008 0ad1 01       		.uleb128 .LVU734
 10009              	.LLST88:
 10010 0ad2 24000000 		.4byte	.LVL117
 10011 0ad6 28000000 		.4byte	.LVL118
 10012 0ada 0100     		.2byte	0x1
 10013 0adc 51       		.byte	0x51
 10014 0add 28000000 		.4byte	.LVL118
 10015 0ae1 30000000 		.4byte	.LVL119
 10016 0ae5 0100     		.2byte	0x1
 10017 0ae7 55       		.byte	0x55
 10018 0ae8 00000000 		.4byte	0
 10019 0aec 00000000 		.4byte	0
 10020              	.LVUS89:
 10021 0af0 00       		.uleb128 .LVU723
 10022 0af1 01       		.uleb128 .LVU734
 10023              	.LLST89:
 10024 0af2 24000000 		.4byte	.LVL117
 10025 0af6 30000000 		.4byte	.LVL119
 10026 0afa 0100     		.2byte	0x1
 10027 0afc 50       		.byte	0x50
 10028 0afd 00000000 		.4byte	0
 10029 0b01 00000000 		.4byte	0
 10030              	.LVUS90:
 10031 0b05 0D       		.uleb128 .LVU748
 10032 0b06 00       		.uleb128 .LVU750
ARM GAS  /tmp/cc9meDp5.s 			page 177


 10033 0b07 0D       		.uleb128 .LVU767
 10034 0b08 00       		.uleb128 .LVU769
 10035              	.LLST90:
 10036 0b09 32000000 		.4byte	.LVL120
 10037 0b0d 38000000 		.4byte	.LVL121
 10038 0b11 0200     		.2byte	0x2
 10039 0b13 30       		.byte	0x30
 10040 0b14 9F       		.byte	0x9f
 10041 0b15 3E000000 		.4byte	.LVL123
 10042 0b19 44000000 		.4byte	.LVL124
 10043 0b1d 0200     		.2byte	0x2
 10044 0b1f 30       		.byte	0x30
 10045 0b20 9F       		.byte	0x9f
 10046 0b21 00000000 		.4byte	0
 10047 0b25 00000000 		.4byte	0
 10048              	.LVUS77:
 10049 0b29 00       		.uleb128 0
 10050 0b2a 00       		.uleb128 .LVU685
 10051 0b2b 00       		.uleb128 .LVU685
 10052 0b2c 00       		.uleb128 0
 10053              	.LLST77:
 10054 0b2d 00000000 		.4byte	.LVL108
 10055 0b31 23000000 		.4byte	.LVL110-1
 10056 0b35 0100     		.2byte	0x1
 10057 0b37 50       		.byte	0x50
 10058 0b38 23000000 		.4byte	.LVL110-1
 10059 0b3c 24000000 		.4byte	.LFE413
 10060 0b40 0400     		.2byte	0x4
 10061 0b42 F3       		.byte	0xf3
 10062 0b43 01       		.uleb128 0x1
 10063 0b44 50       		.byte	0x50
 10064 0b45 9F       		.byte	0x9f
 10065 0b46 00000000 		.4byte	0
 10066 0b4a 00000000 		.4byte	0
 10067              	.LVUS78:
 10068 0b4e 01       		.uleb128 .LVU683
 10069 0b4f 00       		.uleb128 .LVU685
 10070 0b50 00       		.uleb128 .LVU685
 10071 0b51 00       		.uleb128 0
 10072              	.LLST78:
 10073 0b52 1E000000 		.4byte	.LVL109
 10074 0b56 23000000 		.4byte	.LVL110-1
 10075 0b5a 0100     		.2byte	0x1
 10076 0b5c 50       		.byte	0x50
 10077 0b5d 23000000 		.4byte	.LVL110-1
 10078 0b61 24000000 		.4byte	.LFE413
 10079 0b65 0400     		.2byte	0x4
 10080 0b67 F3       		.byte	0xf3
 10081 0b68 01       		.uleb128 0x1
 10082 0b69 50       		.byte	0x50
 10083 0b6a 9F       		.byte	0x9f
 10084 0b6b 00000000 		.4byte	0
 10085 0b6f 00000000 		.4byte	0
 10086              	.LVUS76:
 10087 0b73 00       		.uleb128 0
 10088 0b74 00       		.uleb128 .LVU654
 10089 0b75 00       		.uleb128 .LVU654
ARM GAS  /tmp/cc9meDp5.s 			page 178


 10090 0b76 00       		.uleb128 .LVU655
 10091 0b77 00       		.uleb128 .LVU655
 10092 0b78 00       		.uleb128 .LVU660
 10093 0b79 00       		.uleb128 .LVU660
 10094 0b7a 00       		.uleb128 .LVU661
 10095 0b7b 00       		.uleb128 .LVU661
 10096 0b7c 00       		.uleb128 0
 10097              	.LLST76:
 10098 0b7d 00000000 		.4byte	.LVL103
 10099 0b81 06000000 		.4byte	.LVL104
 10100 0b85 0100     		.2byte	0x1
 10101 0b87 50       		.byte	0x50
 10102 0b88 06000000 		.4byte	.LVL104
 10103 0b8c 0A000000 		.4byte	.LVL105
 10104 0b90 0100     		.2byte	0x1
 10105 0b92 53       		.byte	0x53
 10106 0b93 0A000000 		.4byte	.LVL105
 10107 0b97 12000000 		.4byte	.LVL106
 10108 0b9b 0400     		.2byte	0x4
 10109 0b9d F3       		.byte	0xf3
 10110 0b9e 01       		.uleb128 0x1
 10111 0b9f 50       		.byte	0x50
 10112 0ba0 9F       		.byte	0x9f
 10113 0ba1 12000000 		.4byte	.LVL106
 10114 0ba5 14000000 		.4byte	.LVL107
 10115 0ba9 0100     		.2byte	0x1
 10116 0bab 53       		.byte	0x53
 10117 0bac 14000000 		.4byte	.LVL107
 10118 0bb0 1C000000 		.4byte	.LFE412
 10119 0bb4 0400     		.2byte	0x4
 10120 0bb6 F3       		.byte	0xf3
 10121 0bb7 01       		.uleb128 0x1
 10122 0bb8 50       		.byte	0x50
 10123 0bb9 9F       		.byte	0x9f
 10124 0bba 00000000 		.4byte	0
 10125 0bbe 00000000 		.4byte	0
 10126              	.LVUS75:
 10127 0bc2 00       		.uleb128 0
 10128 0bc3 00       		.uleb128 .LVU648
 10129 0bc4 00       		.uleb128 .LVU648
 10130 0bc5 00       		.uleb128 0
 10131              	.LLST75:
 10132 0bc6 00000000 		.4byte	.LVL100
 10133 0bca 19000000 		.4byte	.LVL102-1
 10134 0bce 0100     		.2byte	0x1
 10135 0bd0 50       		.byte	0x50
 10136 0bd1 19000000 		.4byte	.LVL102-1
 10137 0bd5 1A000000 		.4byte	.LFE411
 10138 0bd9 0400     		.2byte	0x4
 10139 0bdb F3       		.byte	0xf3
 10140 0bdc 01       		.uleb128 0x1
 10141 0bdd 50       		.byte	0x50
 10142 0bde 9F       		.byte	0x9f
 10143 0bdf 00000000 		.4byte	0
 10144 0be3 00000000 		.4byte	0
 10145              	.LVUS66:
 10146 0be7 00       		.uleb128 0
ARM GAS  /tmp/cc9meDp5.s 			page 179


 10147 0be8 00       		.uleb128 .LVU614
 10148 0be9 00       		.uleb128 .LVU614
 10149 0bea 00       		.uleb128 0
 10150              	.LLST66:
 10151 0beb 00000000 		.4byte	.LVL93
 10152 0bef 0C000000 		.4byte	.LVL96
 10153 0bf3 0100     		.2byte	0x1
 10154 0bf5 51       		.byte	0x51
 10155 0bf6 0C000000 		.4byte	.LVL96
 10156 0bfa 30000000 		.4byte	.LFE410
 10157 0bfe 0200     		.2byte	0x2
 10158 0c00 70       		.byte	0x70
 10159 0c01 08       		.sleb128 8
 10160 0c02 00000000 		.4byte	0
 10161 0c06 00000000 		.4byte	0
 10162              	.LVUS67:
 10163 0c0a 00       		.uleb128 0
 10164 0c0b 00       		.uleb128 .LVU620
 10165 0c0c 00       		.uleb128 .LVU620
 10166 0c0d 00       		.uleb128 0
 10167              	.LLST67:
 10168 0c0e 00000000 		.4byte	.LVL93
 10169 0c12 20000000 		.4byte	.LVL97
 10170 0c16 0100     		.2byte	0x1
 10171 0c18 52       		.byte	0x52
 10172 0c19 20000000 		.4byte	.LVL97
 10173 0c1d 30000000 		.4byte	.LFE410
 10174 0c21 0200     		.2byte	0x2
 10175 0c23 70       		.byte	0x70
 10176 0c24 14       		.sleb128 20
 10177 0c25 00000000 		.4byte	0
 10178 0c29 00000000 		.4byte	0
 10179              	.LVUS68:
 10180 0c2d 00       		.uleb128 0
 10181 0c2e 00       		.uleb128 .LVU613
 10182 0c2f 00       		.uleb128 .LVU613
 10183 0c30 00       		.uleb128 .LVU620
 10184 0c31 00       		.uleb128 .LVU620
 10185 0c32 00       		.uleb128 0
 10186              	.LLST68:
 10187 0c33 00000000 		.4byte	.LVL93
 10188 0c37 08000000 		.4byte	.LVL95
 10189 0c3b 0100     		.2byte	0x1
 10190 0c3d 53       		.byte	0x53
 10191 0c3e 08000000 		.4byte	.LVL95
 10192 0c42 20000000 		.4byte	.LVL97
 10193 0c46 0300     		.2byte	0x3
 10194 0c48 73       		.byte	0x73
 10195 0c49 7C       		.sleb128 -4
 10196 0c4a 9F       		.byte	0x9f
 10197 0c4b 20000000 		.4byte	.LVL97
 10198 0c4f 30000000 		.4byte	.LFE410
 10199 0c53 0600     		.2byte	0x6
 10200 0c55 70       		.byte	0x70
 10201 0c56 1C       		.sleb128 28
 10202 0c57 06       		.byte	0x6
 10203 0c58 34       		.byte	0x34
ARM GAS  /tmp/cc9meDp5.s 			page 180


 10204 0c59 1C       		.byte	0x1c
 10205 0c5a 9F       		.byte	0x9f
 10206 0c5b 00000000 		.4byte	0
 10207 0c5f 00000000 		.4byte	0
 10208              	.LVUS69:
 10209 0c63 00       		.uleb128 0
 10210 0c64 00       		.uleb128 .LVU632
 10211 0c65 00       		.uleb128 .LVU632
 10212 0c66 00       		.uleb128 0
 10213              	.LLST69:
 10214 0c67 00000000 		.4byte	.LVL93
 10215 0c6b 2C000000 		.4byte	.LVL99
 10216 0c6f 0200     		.2byte	0x2
 10217 0c71 91       		.byte	0x91
 10218 0c72 00       		.sleb128 0
 10219 0c73 2C000000 		.4byte	.LVL99
 10220 0c77 30000000 		.4byte	.LFE410
 10221 0c7b 0200     		.2byte	0x2
 10222 0c7d 7D       		.byte	0x7d
 10223 0c7e 00       		.sleb128 0
 10224 0c7f 00000000 		.4byte	0
 10225 0c83 00000000 		.4byte	0
 10226              	.LVUS70:
 10227 0c87 00       		.uleb128 0
 10228 0c88 00       		.uleb128 .LVU632
 10229 0c89 00       		.uleb128 .LVU632
 10230 0c8a 00       		.uleb128 0
 10231              	.LLST70:
 10232 0c8b 00000000 		.4byte	.LVL93
 10233 0c8f 2C000000 		.4byte	.LVL99
 10234 0c93 0200     		.2byte	0x2
 10235 0c95 91       		.byte	0x91
 10236 0c96 04       		.sleb128 4
 10237 0c97 2C000000 		.4byte	.LVL99
 10238 0c9b 30000000 		.4byte	.LFE410
 10239 0c9f 0200     		.2byte	0x2
 10240 0ca1 7D       		.byte	0x7d
 10241 0ca2 04       		.sleb128 4
 10242 0ca3 00000000 		.4byte	0
 10243 0ca7 00000000 		.4byte	0
 10244              	.LVUS71:
 10245 0cab 00       		.uleb128 0
 10246 0cac 00       		.uleb128 .LVU632
 10247 0cad 00       		.uleb128 .LVU632
 10248 0cae 00       		.uleb128 0
 10249              	.LLST71:
 10250 0caf 00000000 		.4byte	.LVL93
 10251 0cb3 2C000000 		.4byte	.LVL99
 10252 0cb7 0200     		.2byte	0x2
 10253 0cb9 91       		.byte	0x91
 10254 0cba 08       		.sleb128 8
 10255 0cbb 2C000000 		.4byte	.LVL99
 10256 0cbf 30000000 		.4byte	.LFE410
 10257 0cc3 0200     		.2byte	0x2
 10258 0cc5 7D       		.byte	0x7d
 10259 0cc6 08       		.sleb128 8
 10260 0cc7 00000000 		.4byte	0
ARM GAS  /tmp/cc9meDp5.s 			page 181


 10261 0ccb 00000000 		.4byte	0
 10262              	.LVUS72:
 10263 0ccf 00       		.uleb128 .LVU605
 10264 0cd0 00       		.uleb128 .LVU622
 10265              	.LLST72:
 10266 0cd1 04000000 		.4byte	.LVL94
 10267 0cd5 26000000 		.4byte	.LVL98
 10268 0cd9 0100     		.2byte	0x1
 10269 0cdb 50       		.byte	0x50
 10270 0cdc 00000000 		.4byte	0
 10271 0ce0 00000000 		.4byte	0
 10272              	.LVUS73:
 10273 0ce4 02       		.uleb128 .LVU607
 10274 0ce5 00       		.uleb128 .LVU622
 10275              	.LLST73:
 10276 0ce6 04000000 		.4byte	.LVL94
 10277 0cea 26000000 		.4byte	.LVL98
 10278 0cee 0100     		.2byte	0x1
 10279 0cf0 50       		.byte	0x50
 10280 0cf1 00000000 		.4byte	0
 10281 0cf5 00000000 		.4byte	0
 10282              	.LVUS74:
 10283 0cf9 04       		.uleb128 .LVU609
 10284 0cfa 00       		.uleb128 .LVU622
 10285              	.LLST74:
 10286 0cfb 04000000 		.4byte	.LVL94
 10287 0cff 26000000 		.4byte	.LVL98
 10288 0d03 0100     		.2byte	0x1
 10289 0d05 50       		.byte	0x50
 10290 0d06 00000000 		.4byte	0
 10291 0d0a 00000000 		.4byte	0
 10292              	.LVUS50:
 10293 0d0e 00       		.uleb128 0
 10294 0d0f 00       		.uleb128 .LVU455
 10295 0d10 00       		.uleb128 .LVU455
 10296 0d11 00       		.uleb128 .LVU512
 10297 0d12 00       		.uleb128 .LVU512
 10298 0d13 00       		.uleb128 .LVU515
 10299 0d14 00       		.uleb128 .LVU515
 10300 0d15 00       		.uleb128 .LVU526
 10301 0d16 00       		.uleb128 .LVU526
 10302 0d17 00       		.uleb128 .LVU539
 10303 0d18 00       		.uleb128 .LVU539
 10304 0d19 00       		.uleb128 0
 10305              	.LLST50:
 10306 0d1a 00000000 		.4byte	.LVL67
 10307 0d1e 18000000 		.4byte	.LVL69
 10308 0d22 0100     		.2byte	0x1
 10309 0d24 50       		.byte	0x50
 10310 0d25 18000000 		.4byte	.LVL69
 10311 0d29 84000000 		.4byte	.LVL79
 10312 0d2d 0100     		.2byte	0x1
 10313 0d2f 5A       		.byte	0x5a
 10314 0d30 84000000 		.4byte	.LVL79
 10315 0d34 8F000000 		.4byte	.LVL80-1
 10316 0d38 0100     		.2byte	0x1
 10317 0d3a 50       		.byte	0x50
ARM GAS  /tmp/cc9meDp5.s 			page 182


 10318 0d3b 8F000000 		.4byte	.LVL80-1
 10319 0d3f A0000000 		.4byte	.LVL82
 10320 0d43 0100     		.2byte	0x1
 10321 0d45 5A       		.byte	0x5a
 10322 0d46 A0000000 		.4byte	.LVL82
 10323 0d4a B0000000 		.4byte	.LVL85
 10324 0d4e 0100     		.2byte	0x1
 10325 0d50 50       		.byte	0x50
 10326 0d51 B0000000 		.4byte	.LVL85
 10327 0d55 10010000 		.4byte	.LFE409
 10328 0d59 0100     		.2byte	0x1
 10329 0d5b 5A       		.byte	0x5a
 10330 0d5c 00000000 		.4byte	0
 10331 0d60 00000000 		.4byte	0
 10332              	.LVUS51:
 10333 0d64 00       		.uleb128 0
 10334 0d65 00       		.uleb128 .LVU455
 10335 0d66 00       		.uleb128 .LVU455
 10336 0d67 00       		.uleb128 0
 10337              	.LLST51:
 10338 0d68 00000000 		.4byte	.LVL67
 10339 0d6c 18000000 		.4byte	.LVL69
 10340 0d70 0100     		.2byte	0x1
 10341 0d72 51       		.byte	0x51
 10342 0d73 18000000 		.4byte	.LVL69
 10343 0d77 10010000 		.4byte	.LFE409
 10344 0d7b 0100     		.2byte	0x1
 10345 0d7d 55       		.byte	0x55
 10346 0d7e 00000000 		.4byte	0
 10347 0d82 00000000 		.4byte	0
 10348              	.LVUS52:
 10349 0d86 00       		.uleb128 0
 10350 0d87 00       		.uleb128 .LVU455
 10351 0d88 00       		.uleb128 .LVU455
 10352 0d89 00       		.uleb128 0
 10353              	.LLST52:
 10354 0d8a 00000000 		.4byte	.LVL67
 10355 0d8e 18000000 		.4byte	.LVL69
 10356 0d92 0100     		.2byte	0x1
 10357 0d94 52       		.byte	0x52
 10358 0d95 18000000 		.4byte	.LVL69
 10359 0d99 10010000 		.4byte	.LFE409
 10360 0d9d 0100     		.2byte	0x1
 10361 0d9f 56       		.byte	0x56
 10362 0da0 00000000 		.4byte	0
 10363 0da4 00000000 		.4byte	0
 10364              	.LVUS53:
 10365 0da8 00       		.uleb128 0
 10366 0da9 00       		.uleb128 .LVU455
 10367 0daa 00       		.uleb128 .LVU455
 10368 0dab 00       		.uleb128 .LVU512
 10369 0dac 00       		.uleb128 .LVU512
 10370 0dad 00       		.uleb128 .LVU515
 10371 0dae 00       		.uleb128 .LVU515
 10372 0daf 00       		.uleb128 .LVU526
 10373 0db0 00       		.uleb128 .LVU526
 10374 0db1 00       		.uleb128 .LVU532
ARM GAS  /tmp/cc9meDp5.s 			page 183


 10375 0db2 00       		.uleb128 .LVU532
 10376 0db3 00       		.uleb128 0
 10377              	.LLST53:
 10378 0db4 00000000 		.4byte	.LVL67
 10379 0db8 18000000 		.4byte	.LVL69
 10380 0dbc 0100     		.2byte	0x1
 10381 0dbe 53       		.byte	0x53
 10382 0dbf 18000000 		.4byte	.LVL69
 10383 0dc3 84000000 		.4byte	.LVL79
 10384 0dc7 0100     		.2byte	0x1
 10385 0dc9 57       		.byte	0x57
 10386 0dca 84000000 		.4byte	.LVL79
 10387 0dce 8F000000 		.4byte	.LVL80-1
 10388 0dd2 0100     		.2byte	0x1
 10389 0dd4 51       		.byte	0x51
 10390 0dd5 8F000000 		.4byte	.LVL80-1
 10391 0dd9 A0000000 		.4byte	.LVL82
 10392 0ddd 0100     		.2byte	0x1
 10393 0ddf 57       		.byte	0x57
 10394 0de0 A0000000 		.4byte	.LVL82
 10395 0de4 A4000000 		.4byte	.LVL83
 10396 0de8 0100     		.2byte	0x1
 10397 0dea 51       		.byte	0x51
 10398 0deb A4000000 		.4byte	.LVL83
 10399 0def 10010000 		.4byte	.LFE409
 10400 0df3 0100     		.2byte	0x1
 10401 0df5 57       		.byte	0x57
 10402 0df6 00000000 		.4byte	0
 10403 0dfa 00000000 		.4byte	0
 10404              	.LVUS54:
 10405 0dfe 02       		.uleb128 .LVU435
 10406 0dff 00       		.uleb128 .LVU455
 10407 0e00 00       		.uleb128 .LVU455
 10408 0e01 00       		.uleb128 0
 10409              	.LLST54:
 10410 0e02 00000000 		.4byte	.LVL67
 10411 0e06 18000000 		.4byte	.LVL69
 10412 0e0a 0200     		.2byte	0x2
 10413 0e0c 30       		.byte	0x30
 10414 0e0d 9F       		.byte	0x9f
 10415 0e0e 18000000 		.4byte	.LVL69
 10416 0e12 10010000 		.4byte	.LFE409
 10417 0e16 0100     		.2byte	0x1
 10418 0e18 54       		.byte	0x54
 10419 0e19 00000000 		.4byte	0
 10420 0e1d 00000000 		.4byte	0
 10421              	.LVUS56:
 10422 0e21 00       		.uleb128 .LVU465
 10423 0e22 00       		.uleb128 .LVU466
 10424 0e23 00       		.uleb128 .LVU466
 10425 0e24 00       		.uleb128 .LVU469
 10426 0e25 00       		.uleb128 .LVU539
 10427 0e26 00       		.uleb128 .LVU553
 10428              	.LLST56:
 10429 0e27 28000000 		.4byte	.LVL70
 10430 0e2b 2E000000 		.4byte	.LVL71
 10431 0e2f 0100     		.2byte	0x1
ARM GAS  /tmp/cc9meDp5.s 			page 184


 10432 0e31 52       		.byte	0x52
 10433 0e32 2E000000 		.4byte	.LVL71
 10434 0e36 3A000000 		.4byte	.LVL72
 10435 0e3a 0100     		.2byte	0x1
 10436 0e3c 5B       		.byte	0x5b
 10437 0e3d B0000000 		.4byte	.LVL85
 10438 0e41 CE000000 		.4byte	.LVL89
 10439 0e45 0100     		.2byte	0x1
 10440 0e47 5B       		.byte	0x5b
 10441 0e48 00000000 		.4byte	0
 10442 0e4c 00000000 		.4byte	0
 10443              	.LVUS60:
 10444 0e50 01       		.uleb128 .LVU537
 10445 0e51 00       		.uleb128 .LVU539
 10446              	.LLST60:
 10447 0e52 AE000000 		.4byte	.LVL84
 10448 0e56 B0000000 		.4byte	.LVL85
 10449 0e5a 0200     		.2byte	0x2
 10450 0e5c 30       		.byte	0x30
 10451 0e5d 9F       		.byte	0x9f
 10452 0e5e 00000000 		.4byte	0
 10453 0e62 00000000 		.4byte	0
 10454              	.LVUS61:
 10455 0e66 00       		.uleb128 .LVU515
 10456 0e67 00       		.uleb128 .LVU518
 10457              	.LLST61:
 10458 0e68 90000000 		.4byte	.LVL80
 10459 0e6c 94000000 		.4byte	.LVL81
 10460 0e70 0100     		.2byte	0x1
 10461 0e72 50       		.byte	0x50
 10462 0e73 00000000 		.4byte	0
 10463 0e77 00000000 		.4byte	0
 10464              	.LVUS62:
 10465 0e7b 00       		.uleb128 .LVU512
 10466 0e7c 00       		.uleb128 .LVU515
 10467 0e7d 00       		.uleb128 .LVU515
 10468 0e7e 00       		.uleb128 .LVU515
 10469 0e7f 02       		.uleb128 .LVU520
 10470 0e80 00       		.uleb128 .LVU526
 10471 0e81 00       		.uleb128 .LVU526
 10472 0e82 00       		.uleb128 .LVU532
 10473 0e83 00       		.uleb128 .LVU532
 10474 0e84 00       		.uleb128 .LVU539
 10475              	.LLST62:
 10476 0e85 84000000 		.4byte	.LVL79
 10477 0e89 8F000000 		.4byte	.LVL80-1
 10478 0e8d 0100     		.2byte	0x1
 10479 0e8f 51       		.byte	0x51
 10480 0e90 8F000000 		.4byte	.LVL80-1
 10481 0e94 90000000 		.4byte	.LVL80
 10482 0e98 0100     		.2byte	0x1
 10483 0e9a 57       		.byte	0x57
 10484 0e9b 94000000 		.4byte	.LVL81
 10485 0e9f A0000000 		.4byte	.LVL82
 10486 0ea3 0100     		.2byte	0x1
 10487 0ea5 57       		.byte	0x57
 10488 0ea6 A0000000 		.4byte	.LVL82
ARM GAS  /tmp/cc9meDp5.s 			page 185


 10489 0eaa A4000000 		.4byte	.LVL83
 10490 0eae 0100     		.2byte	0x1
 10491 0eb0 51       		.byte	0x51
 10492 0eb1 A4000000 		.4byte	.LVL83
 10493 0eb5 B0000000 		.4byte	.LVL85
 10494 0eb9 0100     		.2byte	0x1
 10495 0ebb 57       		.byte	0x57
 10496 0ebc 00000000 		.4byte	0
 10497 0ec0 00000000 		.4byte	0
 10498              	.LVUS63:
 10499 0ec4 00       		.uleb128 .LVU512
 10500 0ec5 00       		.uleb128 .LVU515
 10501 0ec6 00       		.uleb128 .LVU515
 10502 0ec7 00       		.uleb128 .LVU515
 10503 0ec8 02       		.uleb128 .LVU520
 10504 0ec9 00       		.uleb128 .LVU526
 10505 0eca 00       		.uleb128 .LVU526
 10506 0ecb 00       		.uleb128 .LVU539
 10507              	.LLST63:
 10508 0ecc 84000000 		.4byte	.LVL79
 10509 0ed0 8F000000 		.4byte	.LVL80-1
 10510 0ed4 0100     		.2byte	0x1
 10511 0ed6 50       		.byte	0x50
 10512 0ed7 8F000000 		.4byte	.LVL80-1
 10513 0edb 90000000 		.4byte	.LVL80
 10514 0edf 0100     		.2byte	0x1
 10515 0ee1 5A       		.byte	0x5a
 10516 0ee2 94000000 		.4byte	.LVL81
 10517 0ee6 A0000000 		.4byte	.LVL82
 10518 0eea 0100     		.2byte	0x1
 10519 0eec 5A       		.byte	0x5a
 10520 0eed A0000000 		.4byte	.LVL82
 10521 0ef1 B0000000 		.4byte	.LVL85
 10522 0ef5 0100     		.2byte	0x1
 10523 0ef7 50       		.byte	0x50
 10524 0ef8 00000000 		.4byte	0
 10525 0efc 00000000 		.4byte	0
 10526              	.LVUS64:
 10527 0f00 00       		.uleb128 .LVU526
 10528 0f01 01       		.uleb128 .LVU537
 10529              	.LLST64:
 10530 0f02 A0000000 		.4byte	.LVL82
 10531 0f06 AE000000 		.4byte	.LVL84
 10532 0f0a 0100     		.2byte	0x1
 10533 0f0c 50       		.byte	0x50
 10534 0f0d 00000000 		.4byte	0
 10535 0f11 00000000 		.4byte	0
 10536              	.LVUS65:
 10537 0f15 0E       		.uleb128 .LVU591
 10538 0f16 00       		.uleb128 .LVU593
 10539              	.LLST65:
 10540 0f17 04010000 		.4byte	.LVL91
 10541 0f1b 0A010000 		.4byte	.LVL92
 10542 0f1f 0200     		.2byte	0x2
 10543 0f21 30       		.byte	0x30
 10544 0f22 9F       		.byte	0x9f
 10545 0f23 00000000 		.4byte	0
ARM GAS  /tmp/cc9meDp5.s 			page 186


 10546 0f27 00000000 		.4byte	0
 10547              	.LVUS57:
 10548 0f2b 01       		.uleb128 .LVU554
 10549 0f2c 00       		.uleb128 .LVU577
 10550              	.LLST57:
 10551 0f2d CE000000 		.4byte	.LVL89
 10552 0f31 04010000 		.4byte	.LVL91
 10553 0f35 0100     		.2byte	0x1
 10554 0f37 5A       		.byte	0x5a
 10555 0f38 00000000 		.4byte	0
 10556 0f3c 00000000 		.4byte	0
 10557              	.LVUS58:
 10558 0f40 0C       		.uleb128 .LVU494
 10559 0f41 00       		.uleb128 .LVU496
 10560              	.LLST58:
 10561 0f42 76000000 		.4byte	.LVL75
 10562 0f46 7A000000 		.4byte	.LVL76
 10563 0f4a 0200     		.2byte	0x2
 10564 0f4c 30       		.byte	0x30
 10565 0f4d 9F       		.byte	0x9f
 10566 0f4e 00000000 		.4byte	0
 10567 0f52 00000000 		.4byte	0
 10568              	.LVUS59:
 10569 0f56 07       		.uleb128 .LVU506
 10570 0f57 00       		.uleb128 .LVU508
 10571              	.LLST59:
 10572 0f58 7E000000 		.4byte	.LVL77
 10573 0f5c 82000000 		.4byte	.LVL78
 10574 0f60 0300     		.2byte	0x3
 10575 0f62 08       		.byte	0x8
 10576 0f63 30       		.byte	0x30
 10577 0f64 9F       		.byte	0x9f
 10578 0f65 00000000 		.4byte	0
 10579 0f69 00000000 		.4byte	0
 10580              	.LVUS55:
 10581 0f6d 0C       		.uleb128 .LVU445
 10582 0f6e 00       		.uleb128 .LVU450
 10583              	.LLST55:
 10584 0f6f 00000000 		.4byte	.LVL67
 10585 0f73 14000000 		.4byte	.LVL68
 10586 0f77 0300     		.2byte	0x3
 10587 0f79 08       		.byte	0x8
 10588 0f7a 30       		.byte	0x30
 10589 0f7b 9F       		.byte	0x9f
 10590 0f7c 00000000 		.4byte	0
 10591 0f80 00000000 		.4byte	0
 10592              	.LVUS38:
 10593 0f84 00       		.uleb128 0
 10594 0f85 00       		.uleb128 .LVU327
 10595 0f86 00       		.uleb128 .LVU327
 10596 0f87 00       		.uleb128 .LVU345
 10597 0f88 00       		.uleb128 .LVU345
 10598 0f89 00       		.uleb128 .LVU370
 10599 0f8a 00       		.uleb128 .LVU370
 10600 0f8b 00       		.uleb128 .LVU405
 10601 0f8c 00       		.uleb128 .LVU405
 10602 0f8d 00       		.uleb128 .LVU408
ARM GAS  /tmp/cc9meDp5.s 			page 187


 10603 0f8e 00       		.uleb128 .LVU408
 10604 0f8f 00       		.uleb128 .LVU419
 10605 0f90 00       		.uleb128 .LVU419
 10606 0f91 00       		.uleb128 0
 10607              	.LLST38:
 10608 0f92 00000000 		.4byte	.LVL49
 10609 0f96 1A000000 		.4byte	.LVL53
 10610 0f9a 0100     		.2byte	0x1
 10611 0f9c 50       		.byte	0x50
 10612 0f9d 1A000000 		.4byte	.LVL53
 10613 0fa1 24000000 		.4byte	.LVL55
 10614 0fa5 0100     		.2byte	0x1
 10615 0fa7 54       		.byte	0x54
 10616 0fa8 24000000 		.4byte	.LVL55
 10617 0fac 48000000 		.4byte	.LVL57
 10618 0fb0 0100     		.2byte	0x1
 10619 0fb2 50       		.byte	0x50
 10620 0fb3 48000000 		.4byte	.LVL57
 10621 0fb7 54000000 		.4byte	.LVL60
 10622 0fbb 0100     		.2byte	0x1
 10623 0fbd 54       		.byte	0x54
 10624 0fbe 54000000 		.4byte	.LVL60
 10625 0fc2 5F000000 		.4byte	.LVL62-1
 10626 0fc6 0100     		.2byte	0x1
 10627 0fc8 50       		.byte	0x50
 10628 0fc9 5F000000 		.4byte	.LVL62-1
 10629 0fcd 6E000000 		.4byte	.LVL64
 10630 0fd1 0100     		.2byte	0x1
 10631 0fd3 54       		.byte	0x54
 10632 0fd4 6E000000 		.4byte	.LVL64
 10633 0fd8 82000000 		.4byte	.LFE408
 10634 0fdc 0100     		.2byte	0x1
 10635 0fde 50       		.byte	0x50
 10636 0fdf 00000000 		.4byte	0
 10637 0fe3 00000000 		.4byte	0
 10638              	.LVUS39:
 10639 0fe7 00       		.uleb128 0
 10640 0fe8 00       		.uleb128 .LVU327
 10641 0fe9 00       		.uleb128 .LVU327
 10642 0fea 00       		.uleb128 .LVU345
 10643 0feb 00       		.uleb128 .LVU345
 10644 0fec 00       		.uleb128 .LVU353
 10645 0fed 00       		.uleb128 .LVU353
 10646 0fee 00       		.uleb128 .LVU405
 10647 0fef 00       		.uleb128 .LVU405
 10648 0ff0 00       		.uleb128 .LVU408
 10649 0ff1 00       		.uleb128 .LVU408
 10650 0ff2 00       		.uleb128 .LVU419
 10651 0ff3 00       		.uleb128 .LVU419
 10652 0ff4 00       		.uleb128 0
 10653              	.LLST39:
 10654 0ff5 00000000 		.4byte	.LVL49
 10655 0ff9 1A000000 		.4byte	.LVL53
 10656 0ffd 0100     		.2byte	0x1
 10657 0fff 51       		.byte	0x51
 10658 1000 1A000000 		.4byte	.LVL53
 10659 1004 24000000 		.4byte	.LVL55
ARM GAS  /tmp/cc9meDp5.s 			page 188


 10660 1008 0400     		.2byte	0x4
 10661 100a F3       		.byte	0xf3
 10662 100b 01       		.uleb128 0x1
 10663 100c 51       		.byte	0x51
 10664 100d 9F       		.byte	0x9f
 10665 100e 24000000 		.4byte	.LVL55
 10666 1012 28000000 		.4byte	.LVL56
 10667 1016 0100     		.2byte	0x1
 10668 1018 51       		.byte	0x51
 10669 1019 28000000 		.4byte	.LVL56
 10670 101d 54000000 		.4byte	.LVL60
 10671 1021 0400     		.2byte	0x4
 10672 1023 F3       		.byte	0xf3
 10673 1024 01       		.uleb128 0x1
 10674 1025 51       		.byte	0x51
 10675 1026 9F       		.byte	0x9f
 10676 1027 54000000 		.4byte	.LVL60
 10677 102b 5F000000 		.4byte	.LVL62-1
 10678 102f 0100     		.2byte	0x1
 10679 1031 51       		.byte	0x51
 10680 1032 5F000000 		.4byte	.LVL62-1
 10681 1036 6E000000 		.4byte	.LVL64
 10682 103a 0100     		.2byte	0x1
 10683 103c 55       		.byte	0x55
 10684 103d 6E000000 		.4byte	.LVL64
 10685 1041 82000000 		.4byte	.LFE408
 10686 1045 0100     		.2byte	0x1
 10687 1047 51       		.byte	0x51
 10688 1048 00000000 		.4byte	0
 10689 104c 00000000 		.4byte	0
 10690              	.LVUS40:
 10691 1050 00       		.uleb128 .LVU323
 10692 1051 00       		.uleb128 .LVU405
 10693 1052 01       		.uleb128 .LVU430
 10694 1053 00       		.uleb128 .LVU432
 10695              	.LLST40:
 10696 1054 14000000 		.4byte	.LVL52
 10697 1058 54000000 		.4byte	.LVL60
 10698 105c 0100     		.2byte	0x1
 10699 105e 56       		.byte	0x56
 10700 105f 7A000000 		.4byte	.LVL65
 10701 1063 7C000000 		.4byte	.LVL66
 10702 1067 0200     		.2byte	0x2
 10703 1069 30       		.byte	0x30
 10704 106a 9F       		.byte	0x9f
 10705 106b 00000000 		.4byte	0
 10706 106f 00000000 		.4byte	0
 10707              	.LVUS41:
 10708 1073 08       		.uleb128 .LVU312
 10709 1074 00       		.uleb128 .LVU314
 10710              	.LLST41:
 10711 1075 06000000 		.4byte	.LVL50
 10712 1079 0A000000 		.4byte	.LVL51
 10713 107d 0300     		.2byte	0x3
 10714 107f 08       		.byte	0x8
 10715 1080 30       		.byte	0x30
 10716 1081 9F       		.byte	0x9f
ARM GAS  /tmp/cc9meDp5.s 			page 189


 10717 1082 00000000 		.4byte	0
 10718 1086 00000000 		.4byte	0
 10719              	.LVUS42:
 10720 108a 0D       		.uleb128 .LVU340
 10721 108b 00       		.uleb128 .LVU342
 10722 108c 1D       		.uleb128 .LVU400
 10723 108d 00       		.uleb128 .LVU402
 10724              	.LLST42:
 10725 108e 1A000000 		.4byte	.LVL53
 10726 1092 20000000 		.4byte	.LVL54
 10727 1096 0200     		.2byte	0x2
 10728 1098 30       		.byte	0x30
 10729 1099 9F       		.byte	0x9f
 10730 109a 4A000000 		.4byte	.LVL58
 10731 109e 50000000 		.4byte	.LVL59
 10732 10a2 0200     		.2byte	0x2
 10733 10a4 30       		.byte	0x30
 10734 10a5 9F       		.byte	0x9f
 10735 10a6 00000000 		.4byte	0
 10736 10aa 00000000 		.4byte	0
 10737              	.LVUS43:
 10738 10ae 01       		.uleb128 .LVU346
 10739 10af 00       		.uleb128 .LVU371
 10740 10b0 00       		.uleb128 .LVU371
 10741 10b1 00       		.uleb128 .LVU371
 10742              	.LLST43:
 10743 10b2 24000000 		.4byte	.LVL55
 10744 10b6 49000000 		.4byte	.LVL58-1
 10745 10ba 0100     		.2byte	0x1
 10746 10bc 50       		.byte	0x50
 10747 10bd 49000000 		.4byte	.LVL58-1
 10748 10c1 4A000000 		.4byte	.LVL58
 10749 10c5 0100     		.2byte	0x1
 10750 10c7 54       		.byte	0x54
 10751 10c8 00000000 		.4byte	0
 10752 10cc 00000000 		.4byte	0
 10753              	.LVUS44:
 10754 10d0 0D       		.uleb128 .LVU384
 10755 10d1 00       		.uleb128 .LVU405
 10756              	.LLST44:
 10757 10d2 4A000000 		.4byte	.LVL58
 10758 10d6 54000000 		.4byte	.LVL60
 10759 10da 0200     		.2byte	0x2
 10760 10dc 30       		.byte	0x30
 10761 10dd 9F       		.byte	0x9f
 10762 10de 00000000 		.4byte	0
 10763 10e2 00000000 		.4byte	0
 10764              	.LVUS45:
 10765 10e6 00       		.uleb128 .LVU408
 10766 10e7 00       		.uleb128 .LVU411
 10767              	.LLST45:
 10768 10e8 60000000 		.4byte	.LVL62
 10769 10ec 64000000 		.4byte	.LVL63
 10770 10f0 0100     		.2byte	0x1
 10771 10f2 50       		.byte	0x50
 10772 10f3 00000000 		.4byte	0
 10773 10f7 00000000 		.4byte	0
ARM GAS  /tmp/cc9meDp5.s 			page 190


 10774              	.LVUS46:
 10775 10fb 00       		.uleb128 .LVU406
 10776 10fc 00       		.uleb128 .LVU408
 10777 10fd 00       		.uleb128 .LVU408
 10778 10fe 00       		.uleb128 .LVU408
 10779 10ff 02       		.uleb128 .LVU413
 10780 1100 00       		.uleb128 .LVU419
 10781 1101 00       		.uleb128 .LVU419
 10782 1102 00       		.uleb128 0
 10783              	.LLST46:
 10784 1103 58000000 		.4byte	.LVL61
 10785 1107 5F000000 		.4byte	.LVL62-1
 10786 110b 0100     		.2byte	0x1
 10787 110d 51       		.byte	0x51
 10788 110e 5F000000 		.4byte	.LVL62-1
 10789 1112 60000000 		.4byte	.LVL62
 10790 1116 0100     		.2byte	0x1
 10791 1118 55       		.byte	0x55
 10792 1119 64000000 		.4byte	.LVL63
 10793 111d 6E000000 		.4byte	.LVL64
 10794 1121 0100     		.2byte	0x1
 10795 1123 55       		.byte	0x55
 10796 1124 6E000000 		.4byte	.LVL64
 10797 1128 82000000 		.4byte	.LFE408
 10798 112c 0100     		.2byte	0x1
 10799 112e 51       		.byte	0x51
 10800 112f 00000000 		.4byte	0
 10801 1133 00000000 		.4byte	0
 10802              	.LVUS47:
 10803 1137 00       		.uleb128 .LVU406
 10804 1138 00       		.uleb128 .LVU408
 10805 1139 00       		.uleb128 .LVU408
 10806 113a 00       		.uleb128 .LVU408
 10807 113b 02       		.uleb128 .LVU413
 10808 113c 00       		.uleb128 .LVU419
 10809 113d 00       		.uleb128 .LVU419
 10810 113e 00       		.uleb128 0
 10811              	.LLST47:
 10812 113f 58000000 		.4byte	.LVL61
 10813 1143 5F000000 		.4byte	.LVL62-1
 10814 1147 0100     		.2byte	0x1
 10815 1149 50       		.byte	0x50
 10816 114a 5F000000 		.4byte	.LVL62-1
 10817 114e 60000000 		.4byte	.LVL62
 10818 1152 0100     		.2byte	0x1
 10819 1154 54       		.byte	0x54
 10820 1155 64000000 		.4byte	.LVL63
 10821 1159 6E000000 		.4byte	.LVL64
 10822 115d 0100     		.2byte	0x1
 10823 115f 54       		.byte	0x54
 10824 1160 6E000000 		.4byte	.LVL64
 10825 1164 82000000 		.4byte	.LFE408
 10826 1168 0100     		.2byte	0x1
 10827 116a 50       		.byte	0x50
 10828 116b 00000000 		.4byte	0
 10829 116f 00000000 		.4byte	0
 10830              	.LVUS48:
ARM GAS  /tmp/cc9meDp5.s 			page 191


 10831 1173 01       		.uleb128 .LVU420
 10832 1174 01       		.uleb128 .LVU430
 10833              	.LLST48:
 10834 1175 6E000000 		.4byte	.LVL64
 10835 1179 7A000000 		.4byte	.LVL65
 10836 117d 0100     		.2byte	0x1
 10837 117f 51       		.byte	0x51
 10838 1180 00000000 		.4byte	0
 10839 1184 00000000 		.4byte	0
 10840              	.LVUS49:
 10841 1188 00       		.uleb128 .LVU419
 10842 1189 01       		.uleb128 .LVU430
 10843              	.LLST49:
 10844 118a 6E000000 		.4byte	.LVL64
 10845 118e 7A000000 		.4byte	.LVL65
 10846 1192 0100     		.2byte	0x1
 10847 1194 50       		.byte	0x50
 10848 1195 00000000 		.4byte	0
 10849 1199 00000000 		.4byte	0
 10850              	.LVUS33:
 10851 119d 00       		.uleb128 0
 10852 119e 00       		.uleb128 .LVU258
 10853 119f 00       		.uleb128 .LVU258
 10854 11a0 00       		.uleb128 0
 10855              	.LLST33:
 10856 11a1 00000000 		.4byte	.LVL43
 10857 11a5 2B000000 		.4byte	.LVL45-1
 10858 11a9 0100     		.2byte	0x1
 10859 11ab 50       		.byte	0x50
 10860 11ac 2B000000 		.4byte	.LVL45-1
 10861 11b0 34000000 		.4byte	.LFE406
 10862 11b4 0400     		.2byte	0x4
 10863 11b6 F3       		.byte	0xf3
 10864 11b7 01       		.uleb128 0x1
 10865 11b8 50       		.byte	0x50
 10866 11b9 9F       		.byte	0x9f
 10867 11ba 00000000 		.4byte	0
 10868 11be 00000000 		.4byte	0
 10869              	.LVUS34:
 10870 11c2 08       		.uleb128 .LVU226
 10871 11c3 00       		.uleb128 .LVU230
 10872              	.LLST34:
 10873 11c4 00000000 		.4byte	.LVL43
 10874 11c8 08000000 		.4byte	.LVL44
 10875 11cc 0300     		.2byte	0x3
 10876 11ce 08       		.byte	0x8
 10877 11cf 30       		.byte	0x30
 10878 11d0 9F       		.byte	0x9f
 10879 11d1 00000000 		.4byte	0
 10880 11d5 00000000 		.4byte	0
 10881              	.LVUS35:
 10882 11d9 04       		.uleb128 .LVU234
 10883 11da 00       		.uleb128 .LVU258
 10884 11db 00       		.uleb128 .LVU258
 10885 11dc 00       		.uleb128 .LVU258
 10886              	.LLST35:
 10887 11dd 08000000 		.4byte	.LVL44
ARM GAS  /tmp/cc9meDp5.s 			page 192


 10888 11e1 2B000000 		.4byte	.LVL45-1
 10889 11e5 0100     		.2byte	0x1
 10890 11e7 50       		.byte	0x50
 10891 11e8 2B000000 		.4byte	.LVL45-1
 10892 11ec 2C000000 		.4byte	.LVL45
 10893 11f0 0400     		.2byte	0x4
 10894 11f2 F3       		.byte	0xf3
 10895 11f3 01       		.uleb128 0x1
 10896 11f4 50       		.byte	0x50
 10897 11f5 9F       		.byte	0x9f
 10898 11f6 00000000 		.4byte	0
 10899 11fa 00000000 		.4byte	0
 10900              	.LVUS36:
 10901 11fe 0D       		.uleb128 .LVU271
 10902 11ff 00       		.uleb128 .LVU273
 10903              	.LLST36:
 10904 1200 2C000000 		.4byte	.LVL45
 10905 1204 32000000 		.4byte	.LVL46
 10906 1208 0200     		.2byte	0x2
 10907 120a 30       		.byte	0x30
 10908 120b 9F       		.byte	0x9f
 10909 120c 00000000 		.4byte	0
 10910 1210 00000000 		.4byte	0
 10911              	.LVUS14:
 10912 1214 00       		.uleb128 0
 10913 1215 00       		.uleb128 .LVU117
 10914 1216 00       		.uleb128 .LVU117
 10915 1217 00       		.uleb128 .LVU129
 10916 1218 00       		.uleb128 .LVU129
 10917 1219 00       		.uleb128 .LVU141
 10918 121a 00       		.uleb128 .LVU141
 10919 121b 00       		.uleb128 .LVU159
 10920 121c 00       		.uleb128 .LVU159
 10921 121d 00       		.uleb128 .LVU160
 10922 121e 00       		.uleb128 .LVU160
 10923 121f 00       		.uleb128 0
 10924              	.LLST14:
 10925 1220 00000000 		.4byte	.LVL21
 10926 1224 15000000 		.4byte	.LVL25-1
 10927 1228 0100     		.2byte	0x1
 10928 122a 50       		.byte	0x50
 10929 122b 15000000 		.4byte	.LVL25-1
 10930 122f 24000000 		.4byte	.LVL27
 10931 1233 0100     		.2byte	0x1
 10932 1235 54       		.byte	0x54
 10933 1236 24000000 		.4byte	.LVL27
 10934 123a 32000000 		.4byte	.LVL29
 10935 123e 0100     		.2byte	0x1
 10936 1240 50       		.byte	0x50
 10937 1241 32000000 		.4byte	.LVL29
 10938 1245 3A000000 		.4byte	.LVL31
 10939 1249 0100     		.2byte	0x1
 10940 124b 54       		.byte	0x54
 10941 124c 3A000000 		.4byte	.LVL31
 10942 1250 3E000000 		.4byte	.LVL32
 10943 1254 0100     		.2byte	0x1
 10944 1256 50       		.byte	0x50
ARM GAS  /tmp/cc9meDp5.s 			page 193


 10945 1257 3E000000 		.4byte	.LVL32
 10946 125b 46000000 		.4byte	.LFE404
 10947 125f 0100     		.2byte	0x1
 10948 1261 54       		.byte	0x54
 10949 1262 00000000 		.4byte	0
 10950 1266 00000000 		.4byte	0
 10951              	.LVUS15:
 10952 126a 00       		.uleb128 0
 10953 126b 00       		.uleb128 .LVU117
 10954 126c 00       		.uleb128 .LVU117
 10955 126d 00       		.uleb128 .LVU129
 10956 126e 00       		.uleb128 .LVU129
 10957 126f 00       		.uleb128 .LVU141
 10958 1270 00       		.uleb128 .LVU141
 10959 1271 00       		.uleb128 .LVU159
 10960 1272 00       		.uleb128 .LVU159
 10961 1273 00       		.uleb128 0
 10962              	.LLST15:
 10963 1274 00000000 		.4byte	.LVL21
 10964 1278 15000000 		.4byte	.LVL25-1
 10965 127c 0100     		.2byte	0x1
 10966 127e 51       		.byte	0x51
 10967 127f 15000000 		.4byte	.LVL25-1
 10968 1283 24000000 		.4byte	.LVL27
 10969 1287 0100     		.2byte	0x1
 10970 1289 55       		.byte	0x55
 10971 128a 24000000 		.4byte	.LVL27
 10972 128e 32000000 		.4byte	.LVL29
 10973 1292 0100     		.2byte	0x1
 10974 1294 51       		.byte	0x51
 10975 1295 32000000 		.4byte	.LVL29
 10976 1299 3A000000 		.4byte	.LVL31
 10977 129d 0100     		.2byte	0x1
 10978 129f 55       		.byte	0x55
 10979 12a0 3A000000 		.4byte	.LVL31
 10980 12a4 46000000 		.4byte	.LFE404
 10981 12a8 0100     		.2byte	0x1
 10982 12aa 51       		.byte	0x51
 10983 12ab 00000000 		.4byte	0
 10984 12af 00000000 		.4byte	0
 10985              	.LVUS16:
 10986 12b3 00       		.uleb128 .LVU141
 10987 12b4 00       		.uleb128 .LVU159
 10988 12b5 00       		.uleb128 .LVU160
 10989 12b6 00       		.uleb128 0
 10990              	.LLST16:
 10991 12b7 32000000 		.4byte	.LVL29
 10992 12bb 3A000000 		.4byte	.LVL31
 10993 12bf 0100     		.2byte	0x1
 10994 12c1 50       		.byte	0x50
 10995 12c2 3E000000 		.4byte	.LVL32
 10996 12c6 46000000 		.4byte	.LFE404
 10997 12ca 0100     		.2byte	0x1
 10998 12cc 50       		.byte	0x50
 10999 12cd 00000000 		.4byte	0
 11000 12d1 00000000 		.4byte	0
 11001              	.LVUS17:
ARM GAS  /tmp/cc9meDp5.s 			page 194


 11002 12d5 08       		.uleb128 .LVU103
 11003 12d6 00       		.uleb128 .LVU107
 11004              	.LLST17:
 11005 12d7 04000000 		.4byte	.LVL22
 11006 12db 0C000000 		.4byte	.LVL23
 11007 12df 0300     		.2byte	0x3
 11008 12e1 08       		.byte	0x8
 11009 12e2 30       		.byte	0x30
 11010 12e3 9F       		.byte	0x9f
 11011 12e4 00000000 		.4byte	0
 11012 12e8 00000000 		.4byte	0
 11013              	.LVUS18:
 11014 12ec 04       		.uleb128 .LVU111
 11015 12ed 00       		.uleb128 .LVU117
 11016 12ee 00       		.uleb128 .LVU117
 11017 12ef 00       		.uleb128 .LVU129
 11018 12f0 00       		.uleb128 .LVU129
 11019 12f1 00       		.uleb128 .LVU141
 11020 12f2 00       		.uleb128 .LVU159
 11021 12f3 00       		.uleb128 .LVU160
 11022              	.LLST18:
 11023 12f4 0C000000 		.4byte	.LVL23
 11024 12f8 15000000 		.4byte	.LVL25-1
 11025 12fc 0100     		.2byte	0x1
 11026 12fe 51       		.byte	0x51
 11027 12ff 15000000 		.4byte	.LVL25-1
 11028 1303 24000000 		.4byte	.LVL27
 11029 1307 0100     		.2byte	0x1
 11030 1309 55       		.byte	0x55
 11031 130a 24000000 		.4byte	.LVL27
 11032 130e 32000000 		.4byte	.LVL29
 11033 1312 0100     		.2byte	0x1
 11034 1314 51       		.byte	0x51
 11035 1315 3A000000 		.4byte	.LVL31
 11036 1319 3E000000 		.4byte	.LVL32
 11037 131d 0100     		.2byte	0x1
 11038 131f 51       		.byte	0x51
 11039 1320 00000000 		.4byte	0
 11040 1324 00000000 		.4byte	0
 11041              	.LVUS19:
 11042 1328 04       		.uleb128 .LVU111
 11043 1329 00       		.uleb128 .LVU117
 11044 132a 00       		.uleb128 .LVU117
 11045 132b 00       		.uleb128 .LVU129
 11046 132c 00       		.uleb128 .LVU129
 11047 132d 00       		.uleb128 .LVU141
 11048 132e 00       		.uleb128 .LVU159
 11049 132f 00       		.uleb128 .LVU160
 11050              	.LLST19:
 11051 1330 0C000000 		.4byte	.LVL23
 11052 1334 15000000 		.4byte	.LVL25-1
 11053 1338 0100     		.2byte	0x1
 11054 133a 50       		.byte	0x50
 11055 133b 15000000 		.4byte	.LVL25-1
 11056 133f 24000000 		.4byte	.LVL27
 11057 1343 0100     		.2byte	0x1
 11058 1345 54       		.byte	0x54
ARM GAS  /tmp/cc9meDp5.s 			page 195


 11059 1346 24000000 		.4byte	.LVL27
 11060 134a 32000000 		.4byte	.LVL29
 11061 134e 0100     		.2byte	0x1
 11062 1350 50       		.byte	0x50
 11063 1351 3A000000 		.4byte	.LVL31
 11064 1355 3E000000 		.4byte	.LVL32
 11065 1359 0100     		.2byte	0x1
 11066 135b 50       		.byte	0x50
 11067 135c 00000000 		.4byte	0
 11068 1360 00000000 		.4byte	0
 11069              	.LVUS20:
 11070 1364 00       		.uleb128 .LVU117
 11071 1365 00       		.uleb128 .LVU121
 11072              	.LLST20:
 11073 1366 16000000 		.4byte	.LVL25
 11074 136a 1A000000 		.4byte	.LVL26
 11075 136e 0100     		.2byte	0x1
 11076 1370 50       		.byte	0x50
 11077 1371 00000000 		.4byte	0
 11078 1375 00000000 		.4byte	0
 11079              	.LVUS21:
 11080 1379 00       		.uleb128 .LVU115
 11081 137a 00       		.uleb128 .LVU117
 11082 137b 00       		.uleb128 .LVU117
 11083 137c 00       		.uleb128 .LVU117
 11084 137d 02       		.uleb128 .LVU123
 11085 137e 00       		.uleb128 .LVU129
 11086 137f 00       		.uleb128 .LVU129
 11087 1380 00       		.uleb128 .LVU141
 11088 1381 00       		.uleb128 .LVU159
 11089 1382 00       		.uleb128 0
 11090              	.LLST21:
 11091 1383 0E000000 		.4byte	.LVL24
 11092 1387 15000000 		.4byte	.LVL25-1
 11093 138b 0100     		.2byte	0x1
 11094 138d 51       		.byte	0x51
 11095 138e 15000000 		.4byte	.LVL25-1
 11096 1392 16000000 		.4byte	.LVL25
 11097 1396 0100     		.2byte	0x1
 11098 1398 55       		.byte	0x55
 11099 1399 1A000000 		.4byte	.LVL26
 11100 139d 24000000 		.4byte	.LVL27
 11101 13a1 0100     		.2byte	0x1
 11102 13a3 55       		.byte	0x55
 11103 13a4 24000000 		.4byte	.LVL27
 11104 13a8 32000000 		.4byte	.LVL29
 11105 13ac 0100     		.2byte	0x1
 11106 13ae 51       		.byte	0x51
 11107 13af 3A000000 		.4byte	.LVL31
 11108 13b3 46000000 		.4byte	.LFE404
 11109 13b7 0100     		.2byte	0x1
 11110 13b9 51       		.byte	0x51
 11111 13ba 00000000 		.4byte	0
 11112 13be 00000000 		.4byte	0
 11113              	.LVUS22:
 11114 13c2 00       		.uleb128 .LVU115
 11115 13c3 00       		.uleb128 .LVU117
ARM GAS  /tmp/cc9meDp5.s 			page 196


 11116 13c4 00       		.uleb128 .LVU117
 11117 13c5 00       		.uleb128 .LVU117
 11118 13c6 02       		.uleb128 .LVU123
 11119 13c7 00       		.uleb128 .LVU129
 11120 13c8 00       		.uleb128 .LVU129
 11121 13c9 00       		.uleb128 .LVU141
 11122 13ca 00       		.uleb128 .LVU159
 11123 13cb 00       		.uleb128 .LVU160
 11124 13cc 00       		.uleb128 .LVU160
 11125 13cd 00       		.uleb128 0
 11126              	.LLST22:
 11127 13ce 0E000000 		.4byte	.LVL24
 11128 13d2 15000000 		.4byte	.LVL25-1
 11129 13d6 0100     		.2byte	0x1
 11130 13d8 50       		.byte	0x50
 11131 13d9 15000000 		.4byte	.LVL25-1
 11132 13dd 16000000 		.4byte	.LVL25
 11133 13e1 0100     		.2byte	0x1
 11134 13e3 54       		.byte	0x54
 11135 13e4 1A000000 		.4byte	.LVL26
 11136 13e8 24000000 		.4byte	.LVL27
 11137 13ec 0100     		.2byte	0x1
 11138 13ee 54       		.byte	0x54
 11139 13ef 24000000 		.4byte	.LVL27
 11140 13f3 32000000 		.4byte	.LVL29
 11141 13f7 0100     		.2byte	0x1
 11142 13f9 50       		.byte	0x50
 11143 13fa 3A000000 		.4byte	.LVL31
 11144 13fe 3E000000 		.4byte	.LVL32
 11145 1402 0100     		.2byte	0x1
 11146 1404 50       		.byte	0x50
 11147 1405 3E000000 		.4byte	.LVL32
 11148 1409 46000000 		.4byte	.LFE404
 11149 140d 0100     		.2byte	0x1
 11150 140f 54       		.byte	0x54
 11151 1410 00000000 		.4byte	0
 11152 1414 00000000 		.4byte	0
 11153              	.LVUS23:
 11154 1418 01       		.uleb128 .LVU130
 11155 1419 01       		.uleb128 .LVU140
 11156              	.LLST23:
 11157 141a 24000000 		.4byte	.LVL27
 11158 141e 30000000 		.4byte	.LVL28
 11159 1422 0100     		.2byte	0x1
 11160 1424 51       		.byte	0x51
 11161 1425 00000000 		.4byte	0
 11162 1429 00000000 		.4byte	0
 11163              	.LVUS24:
 11164 142d 00       		.uleb128 .LVU129
 11165 142e 01       		.uleb128 .LVU140
 11166              	.LLST24:
 11167 142f 24000000 		.4byte	.LVL27
 11168 1433 30000000 		.4byte	.LVL28
 11169 1437 0100     		.2byte	0x1
 11170 1439 50       		.byte	0x50
 11171 143a 00000000 		.4byte	0
 11172 143e 00000000 		.4byte	0
ARM GAS  /tmp/cc9meDp5.s 			page 197


 11173              	.LVUS25:
 11174 1442 0D       		.uleb128 .LVU154
 11175 1443 00       		.uleb128 .LVU156
 11176 1444 0D       		.uleb128 .LVU173
 11177 1445 00       		.uleb128 .LVU175
 11178              	.LLST25:
 11179 1446 32000000 		.4byte	.LVL29
 11180 144a 38000000 		.4byte	.LVL30
 11181 144e 0200     		.2byte	0x2
 11182 1450 30       		.byte	0x30
 11183 1451 9F       		.byte	0x9f
 11184 1452 3E000000 		.4byte	.LVL32
 11185 1456 44000000 		.4byte	.LVL33
 11186 145a 0200     		.2byte	0x2
 11187 145c 30       		.byte	0x30
 11188 145d 9F       		.byte	0x9f
 11189 145e 00000000 		.4byte	0
 11190 1462 00000000 		.4byte	0
 11191              	.LVUS11:
 11192 1466 00       		.uleb128 0
 11193 1467 00       		.uleb128 .LVU91
 11194 1468 00       		.uleb128 .LVU91
 11195 1469 00       		.uleb128 0
 11196              	.LLST11:
 11197 146a 00000000 		.4byte	.LVL15
 11198 146e 27000000 		.4byte	.LVL20-1
 11199 1472 0100     		.2byte	0x1
 11200 1474 50       		.byte	0x50
 11201 1475 27000000 		.4byte	.LVL20-1
 11202 1479 28000000 		.4byte	.LFE403
 11203 147d 0400     		.2byte	0x4
 11204 147f F3       		.byte	0xf3
 11205 1480 01       		.uleb128 0x1
 11206 1481 50       		.byte	0x50
 11207 1482 9F       		.byte	0x9f
 11208 1483 00000000 		.4byte	0
 11209 1487 00000000 		.4byte	0
 11210              	.LVUS12:
 11211 148b 00       		.uleb128 0
 11212 148c 00       		.uleb128 .LVU76
 11213 148d 00       		.uleb128 .LVU76
 11214 148e 00       		.uleb128 .LVU78
 11215 148f 00       		.uleb128 .LVU78
 11216 1490 00       		.uleb128 .LVU80
 11217 1491 00       		.uleb128 .LVU80
 11218 1492 00       		.uleb128 0
 11219              	.LLST12:
 11220 1493 00000000 		.4byte	.LVL15
 11221 1497 0A000000 		.4byte	.LVL16
 11222 149b 0100     		.2byte	0x1
 11223 149d 51       		.byte	0x51
 11224 149e 0A000000 		.4byte	.LVL16
 11225 14a2 0E000000 		.4byte	.LVL17
 11226 14a6 0200     		.2byte	0x2
 11227 14a8 73       		.byte	0x73
 11228 14a9 00       		.sleb128 0
 11229 14aa 0E000000 		.4byte	.LVL17
ARM GAS  /tmp/cc9meDp5.s 			page 198


 11230 14ae 12000000 		.4byte	.LVL18
 11231 14b2 0300     		.2byte	0x3
 11232 14b4 70       		.byte	0x70
 11233 14b5 10       		.sleb128 16
 11234 14b6 06       		.byte	0x6
 11235 14b7 12000000 		.4byte	.LVL18
 11236 14bb 28000000 		.4byte	.LFE403
 11237 14bf 0400     		.2byte	0x4
 11238 14c1 F3       		.byte	0xf3
 11239 14c2 01       		.uleb128 0x1
 11240 14c3 51       		.byte	0x51
 11241 14c4 9F       		.byte	0x9f
 11242 14c5 00000000 		.4byte	0
 11243 14c9 00000000 		.4byte	0
 11244              	.LVUS13:
 11245 14cd 01       		.uleb128 .LVU89
 11246 14ce 00       		.uleb128 .LVU91
 11247 14cf 00       		.uleb128 .LVU91
 11248 14d0 00       		.uleb128 0
 11249              	.LLST13:
 11250 14d1 22000000 		.4byte	.LVL19
 11251 14d5 27000000 		.4byte	.LVL20-1
 11252 14d9 0100     		.2byte	0x1
 11253 14db 50       		.byte	0x50
 11254 14dc 27000000 		.4byte	.LVL20-1
 11255 14e0 28000000 		.4byte	.LFE403
 11256 14e4 0400     		.2byte	0x4
 11257 14e6 F3       		.byte	0xf3
 11258 14e7 01       		.uleb128 0x1
 11259 14e8 50       		.byte	0x50
 11260 14e9 9F       		.byte	0x9f
 11261 14ea 00000000 		.4byte	0
 11262 14ee 00000000 		.4byte	0
 11263              	.LVUS10:
 11264 14f2 00       		.uleb128 0
 11265 14f3 00       		.uleb128 .LVU57
 11266 14f4 00       		.uleb128 .LVU57
 11267 14f5 00       		.uleb128 .LVU58
 11268 14f6 00       		.uleb128 .LVU58
 11269 14f7 00       		.uleb128 .LVU60
 11270 14f8 00       		.uleb128 .LVU60
 11271 14f9 00       		.uleb128 0
 11272              	.LLST10:
 11273 14fa 00000000 		.4byte	.LVL11
 11274 14fe 0A000000 		.4byte	.LVL12
 11275 1502 0100     		.2byte	0x1
 11276 1504 50       		.byte	0x50
 11277 1505 0A000000 		.4byte	.LVL12
 11278 1509 0C000000 		.4byte	.LVL13
 11279 150d 0400     		.2byte	0x4
 11280 150f F3       		.byte	0xf3
 11281 1510 01       		.uleb128 0x1
 11282 1511 50       		.byte	0x50
 11283 1512 9F       		.byte	0x9f
 11284 1513 0C000000 		.4byte	.LVL13
 11285 1517 14000000 		.4byte	.LVL14
 11286 151b 0100     		.2byte	0x1
ARM GAS  /tmp/cc9meDp5.s 			page 199


 11287 151d 50       		.byte	0x50
 11288 151e 14000000 		.4byte	.LVL14
 11289 1522 16000000 		.4byte	.LFE402
 11290 1526 0400     		.2byte	0x4
 11291 1528 F3       		.byte	0xf3
 11292 1529 01       		.uleb128 0x1
 11293 152a 50       		.byte	0x50
 11294 152b 9F       		.byte	0x9f
 11295 152c 00000000 		.4byte	0
 11296 1530 00000000 		.4byte	0
 11297              	.LVUS9:
 11298 1534 00       		.uleb128 0
 11299 1535 00       		.uleb128 .LVU50
 11300 1536 00       		.uleb128 .LVU50
 11301 1537 00       		.uleb128 0
 11302              	.LLST9:
 11303 1538 00000000 		.4byte	.LVL8
 11304 153c 15000000 		.4byte	.LVL10-1
 11305 1540 0100     		.2byte	0x1
 11306 1542 50       		.byte	0x50
 11307 1543 15000000 		.4byte	.LVL10-1
 11308 1547 16000000 		.4byte	.LFE401
 11309 154b 0400     		.2byte	0x4
 11310 154d F3       		.byte	0xf3
 11311 154e 01       		.uleb128 0x1
 11312 154f 50       		.byte	0x50
 11313 1550 9F       		.byte	0x9f
 11314 1551 00000000 		.4byte	0
 11315 1555 00000000 		.4byte	0
 11316              	.LVUS0:
 11317 1559 00       		.uleb128 0
 11318 155a 00       		.uleb128 .LVU22
 11319 155b 00       		.uleb128 .LVU22
 11320 155c 00       		.uleb128 0
 11321              	.LLST0:
 11322 155d 00000000 		.4byte	.LVL0
 11323 1561 1E000000 		.4byte	.LVL5
 11324 1565 0100     		.2byte	0x1
 11325 1567 51       		.byte	0x51
 11326 1568 1E000000 		.4byte	.LVL5
 11327 156c 30000000 		.4byte	.LFE400
 11328 1570 0200     		.2byte	0x2
 11329 1572 70       		.byte	0x70
 11330 1573 08       		.sleb128 8
 11331 1574 00000000 		.4byte	0
 11332 1578 00000000 		.4byte	0
 11333              	.LVUS1:
 11334 157c 00       		.uleb128 0
 11335 157d 00       		.uleb128 .LVU21
 11336 157e 00       		.uleb128 .LVU21
 11337 157f 00       		.uleb128 0
 11338              	.LLST1:
 11339 1580 00000000 		.4byte	.LVL0
 11340 1584 1C000000 		.4byte	.LVL4
 11341 1588 0100     		.2byte	0x1
 11342 158a 52       		.byte	0x52
 11343 158b 1C000000 		.4byte	.LVL4
ARM GAS  /tmp/cc9meDp5.s 			page 200


 11344 158f 30000000 		.4byte	.LFE400
 11345 1593 0200     		.2byte	0x2
 11346 1595 70       		.byte	0x70
 11347 1596 24       		.sleb128 36
 11348 1597 00000000 		.4byte	0
 11349 159b 00000000 		.4byte	0
 11350              	.LVUS2:
 11351 159f 00       		.uleb128 0
 11352 15a0 00       		.uleb128 .LVU15
 11353 15a1 00       		.uleb128 .LVU15
 11354 15a2 00       		.uleb128 .LVU17
 11355 15a3 00       		.uleb128 .LVU17
 11356 15a4 00       		.uleb128 0
 11357              	.LLST2:
 11358 15a5 00000000 		.4byte	.LVL0
 11359 15a9 08000000 		.4byte	.LVL2
 11360 15ad 0100     		.2byte	0x1
 11361 15af 53       		.byte	0x53
 11362 15b0 08000000 		.4byte	.LVL2
 11363 15b4 0E000000 		.4byte	.LVL3
 11364 15b8 0300     		.2byte	0x3
 11365 15ba 73       		.byte	0x73
 11366 15bb 7C       		.sleb128 -4
 11367 15bc 9F       		.byte	0x9f
 11368 15bd 0E000000 		.4byte	.LVL3
 11369 15c1 30000000 		.4byte	.LFE400
 11370 15c5 0600     		.2byte	0x6
 11371 15c7 70       		.byte	0x70
 11372 15c8 1C       		.sleb128 28
 11373 15c9 06       		.byte	0x6
 11374 15ca 34       		.byte	0x34
 11375 15cb 1C       		.byte	0x1c
 11376 15cc 9F       		.byte	0x9f
 11377 15cd 00000000 		.4byte	0
 11378 15d1 00000000 		.4byte	0
 11379              	.LVUS3:
 11380 15d5 00       		.uleb128 0
 11381 15d6 00       		.uleb128 .LVU29
 11382 15d7 00       		.uleb128 .LVU29
 11383 15d8 00       		.uleb128 0
 11384              	.LLST3:
 11385 15d9 00000000 		.4byte	.LVL0
 11386 15dd 2C000000 		.4byte	.LVL7
 11387 15e1 0200     		.2byte	0x2
 11388 15e3 91       		.byte	0x91
 11389 15e4 00       		.sleb128 0
 11390 15e5 2C000000 		.4byte	.LVL7
 11391 15e9 30000000 		.4byte	.LFE400
 11392 15ed 0200     		.2byte	0x2
 11393 15ef 7D       		.byte	0x7d
 11394 15f0 00       		.sleb128 0
 11395 15f1 00000000 		.4byte	0
 11396 15f5 00000000 		.4byte	0
 11397              	.LVUS4:
 11398 15f9 00       		.uleb128 0
 11399 15fa 00       		.uleb128 .LVU29
 11400 15fb 00       		.uleb128 .LVU29
ARM GAS  /tmp/cc9meDp5.s 			page 201


 11401 15fc 00       		.uleb128 0
 11402              	.LLST4:
 11403 15fd 00000000 		.4byte	.LVL0
 11404 1601 2C000000 		.4byte	.LVL7
 11405 1605 0200     		.2byte	0x2
 11406 1607 91       		.byte	0x91
 11407 1608 04       		.sleb128 4
 11408 1609 2C000000 		.4byte	.LVL7
 11409 160d 30000000 		.4byte	.LFE400
 11410 1611 0200     		.2byte	0x2
 11411 1613 7D       		.byte	0x7d
 11412 1614 04       		.sleb128 4
 11413 1615 00000000 		.4byte	0
 11414 1619 00000000 		.4byte	0
 11415              	.LVUS5:
 11416 161d 00       		.uleb128 0
 11417 161e 00       		.uleb128 .LVU29
 11418 161f 00       		.uleb128 .LVU29
 11419 1620 00       		.uleb128 0
 11420              	.LLST5:
 11421 1621 00000000 		.4byte	.LVL0
 11422 1625 2C000000 		.4byte	.LVL7
 11423 1629 0200     		.2byte	0x2
 11424 162b 91       		.byte	0x91
 11425 162c 08       		.sleb128 8
 11426 162d 2C000000 		.4byte	.LVL7
 11427 1631 30000000 		.4byte	.LFE400
 11428 1635 0200     		.2byte	0x2
 11429 1637 7D       		.byte	0x7d
 11430 1638 08       		.sleb128 8
 11431 1639 00000000 		.4byte	0
 11432 163d 00000000 		.4byte	0
 11433              	.LVUS6:
 11434 1641 00       		.uleb128 .LVU7
 11435 1642 00       		.uleb128 .LVU23
 11436              	.LLST6:
 11437 1643 04000000 		.4byte	.LVL1
 11438 1647 22000000 		.4byte	.LVL6
 11439 164b 0100     		.2byte	0x1
 11440 164d 50       		.byte	0x50
 11441 164e 00000000 		.4byte	0
 11442 1652 00000000 		.4byte	0
 11443              	.LVUS7:
 11444 1656 02       		.uleb128 .LVU9
 11445 1657 00       		.uleb128 .LVU23
 11446              	.LLST7:
 11447 1658 04000000 		.4byte	.LVL1
 11448 165c 22000000 		.4byte	.LVL6
 11449 1660 0100     		.2byte	0x1
 11450 1662 50       		.byte	0x50
 11451 1663 00000000 		.4byte	0
 11452 1667 00000000 		.4byte	0
 11453              	.LVUS8:
 11454 166b 04       		.uleb128 .LVU11
 11455 166c 00       		.uleb128 .LVU23
 11456              	.LLST8:
 11457 166d 04000000 		.4byte	.LVL1
ARM GAS  /tmp/cc9meDp5.s 			page 202


 11458 1671 22000000 		.4byte	.LVL6
 11459 1675 0100     		.2byte	0x1
 11460 1677 50       		.byte	0x50
 11461 1678 00000000 		.4byte	0
 11462 167c 00000000 		.4byte	0
 11463              	.LVUS26:
 11464 1680 00       		.uleb128 0
 11465 1681 00       		.uleb128 .LVU188
 11466 1682 00       		.uleb128 .LVU188
 11467 1683 00       		.uleb128 .LVU200
 11468 1684 00       		.uleb128 .LVU200
 11469 1685 00       		.uleb128 .LVU212
 11470 1686 00       		.uleb128 .LVU212
 11471 1687 00       		.uleb128 .LVU214
 11472 1688 00       		.uleb128 .LVU214
 11473 1689 00       		.uleb128 .LVU215
 11474 168a 00       		.uleb128 .LVU215
 11475 168b 00       		.uleb128 0
 11476              	.LLST26:
 11477 168c 00000000 		.4byte	.LVL34
 11478 1690 0F000000 		.4byte	.LVL36-1
 11479 1694 0100     		.2byte	0x1
 11480 1696 50       		.byte	0x50
 11481 1697 0F000000 		.4byte	.LVL36-1
 11482 169b 1E000000 		.4byte	.LVL38
 11483 169f 0100     		.2byte	0x1
 11484 16a1 54       		.byte	0x54
 11485 16a2 1E000000 		.4byte	.LVL38
 11486 16a6 2C000000 		.4byte	.LVL40
 11487 16aa 0100     		.2byte	0x1
 11488 16ac 50       		.byte	0x50
 11489 16ad 2C000000 		.4byte	.LVL40
 11490 16b1 2E000000 		.4byte	.LVL41
 11491 16b5 0100     		.2byte	0x1
 11492 16b7 54       		.byte	0x54
 11493 16b8 2E000000 		.4byte	.LVL41
 11494 16bc 32000000 		.4byte	.LVL42
 11495 16c0 0100     		.2byte	0x1
 11496 16c2 50       		.byte	0x50
 11497 16c3 32000000 		.4byte	.LVL42
 11498 16c7 34000000 		.4byte	.LFE405
 11499 16cb 0100     		.2byte	0x1
 11500 16cd 54       		.byte	0x54
 11501 16ce 00000000 		.4byte	0
 11502 16d2 00000000 		.4byte	0
 11503              	.LVUS27:
 11504 16d6 00       		.uleb128 0
 11505 16d7 00       		.uleb128 .LVU188
 11506 16d8 00       		.uleb128 .LVU188
 11507 16d9 00       		.uleb128 .LVU200
 11508 16da 00       		.uleb128 .LVU200
 11509 16db 00       		.uleb128 .LVU212
 11510 16dc 00       		.uleb128 .LVU212
 11511 16dd 00       		.uleb128 .LVU214
 11512 16de 00       		.uleb128 .LVU214
 11513 16df 00       		.uleb128 0
 11514              	.LLST27:
ARM GAS  /tmp/cc9meDp5.s 			page 203


 11515 16e0 00000000 		.4byte	.LVL34
 11516 16e4 0F000000 		.4byte	.LVL36-1
 11517 16e8 0100     		.2byte	0x1
 11518 16ea 51       		.byte	0x51
 11519 16eb 0F000000 		.4byte	.LVL36-1
 11520 16ef 1E000000 		.4byte	.LVL38
 11521 16f3 0100     		.2byte	0x1
 11522 16f5 55       		.byte	0x55
 11523 16f6 1E000000 		.4byte	.LVL38
 11524 16fa 2C000000 		.4byte	.LVL40
 11525 16fe 0100     		.2byte	0x1
 11526 1700 51       		.byte	0x51
 11527 1701 2C000000 		.4byte	.LVL40
 11528 1705 2E000000 		.4byte	.LVL41
 11529 1709 0100     		.2byte	0x1
 11530 170b 55       		.byte	0x55
 11531 170c 2E000000 		.4byte	.LVL41
 11532 1710 34000000 		.4byte	.LFE405
 11533 1714 0100     		.2byte	0x1
 11534 1716 51       		.byte	0x51
 11535 1717 00000000 		.4byte	0
 11536 171b 00000000 		.4byte	0
 11537              	.LVUS28:
 11538 171f 00       		.uleb128 .LVU188
 11539 1720 00       		.uleb128 .LVU192
 11540              	.LLST28:
 11541 1721 10000000 		.4byte	.LVL36
 11542 1725 14000000 		.4byte	.LVL37
 11543 1729 0100     		.2byte	0x1
 11544 172b 50       		.byte	0x50
 11545 172c 00000000 		.4byte	0
 11546 1730 00000000 		.4byte	0
 11547              	.LVUS29:
 11548 1734 00       		.uleb128 .LVU186
 11549 1735 00       		.uleb128 .LVU188
 11550 1736 00       		.uleb128 .LVU188
 11551 1737 00       		.uleb128 .LVU188
 11552 1738 02       		.uleb128 .LVU194
 11553 1739 00       		.uleb128 .LVU200
 11554 173a 00       		.uleb128 .LVU200
 11555 173b 00       		.uleb128 .LVU212
 11556 173c 00       		.uleb128 .LVU214
 11557 173d 00       		.uleb128 0
 11558              	.LLST29:
 11559 173e 08000000 		.4byte	.LVL35
 11560 1742 0F000000 		.4byte	.LVL36-1
 11561 1746 0100     		.2byte	0x1
 11562 1748 51       		.byte	0x51
 11563 1749 0F000000 		.4byte	.LVL36-1
 11564 174d 10000000 		.4byte	.LVL36
 11565 1751 0100     		.2byte	0x1
 11566 1753 55       		.byte	0x55
 11567 1754 14000000 		.4byte	.LVL37
 11568 1758 1E000000 		.4byte	.LVL38
 11569 175c 0100     		.2byte	0x1
 11570 175e 55       		.byte	0x55
 11571 175f 1E000000 		.4byte	.LVL38
ARM GAS  /tmp/cc9meDp5.s 			page 204


 11572 1763 2C000000 		.4byte	.LVL40
 11573 1767 0100     		.2byte	0x1
 11574 1769 51       		.byte	0x51
 11575 176a 2E000000 		.4byte	.LVL41
 11576 176e 34000000 		.4byte	.LFE405
 11577 1772 0100     		.2byte	0x1
 11578 1774 51       		.byte	0x51
 11579 1775 00000000 		.4byte	0
 11580 1779 00000000 		.4byte	0
 11581              	.LVUS30:
 11582 177d 00       		.uleb128 .LVU186
 11583 177e 00       		.uleb128 .LVU188
 11584 177f 00       		.uleb128 .LVU188
 11585 1780 00       		.uleb128 .LVU188
 11586 1781 02       		.uleb128 .LVU194
 11587 1782 00       		.uleb128 .LVU200
 11588 1783 00       		.uleb128 .LVU200
 11589 1784 00       		.uleb128 .LVU212
 11590 1785 00       		.uleb128 .LVU214
 11591 1786 00       		.uleb128 .LVU215
 11592 1787 00       		.uleb128 .LVU215
 11593 1788 00       		.uleb128 0
 11594              	.LLST30:
 11595 1789 08000000 		.4byte	.LVL35
 11596 178d 0F000000 		.4byte	.LVL36-1
 11597 1791 0100     		.2byte	0x1
 11598 1793 50       		.byte	0x50
 11599 1794 0F000000 		.4byte	.LVL36-1
 11600 1798 10000000 		.4byte	.LVL36
 11601 179c 0100     		.2byte	0x1
 11602 179e 54       		.byte	0x54
 11603 179f 14000000 		.4byte	.LVL37
 11604 17a3 1E000000 		.4byte	.LVL38
 11605 17a7 0100     		.2byte	0x1
 11606 17a9 54       		.byte	0x54
 11607 17aa 1E000000 		.4byte	.LVL38
 11608 17ae 2C000000 		.4byte	.LVL40
 11609 17b2 0100     		.2byte	0x1
 11610 17b4 50       		.byte	0x50
 11611 17b5 2E000000 		.4byte	.LVL41
 11612 17b9 32000000 		.4byte	.LVL42
 11613 17bd 0100     		.2byte	0x1
 11614 17bf 50       		.byte	0x50
 11615 17c0 32000000 		.4byte	.LVL42
 11616 17c4 34000000 		.4byte	.LFE405
 11617 17c8 0100     		.2byte	0x1
 11618 17ca 54       		.byte	0x54
 11619 17cb 00000000 		.4byte	0
 11620 17cf 00000000 		.4byte	0
 11621              	.LVUS31:
 11622 17d3 01       		.uleb128 .LVU201
 11623 17d4 01       		.uleb128 .LVU211
 11624              	.LLST31:
 11625 17d5 1E000000 		.4byte	.LVL38
 11626 17d9 2A000000 		.4byte	.LVL39
 11627 17dd 0100     		.2byte	0x1
 11628 17df 51       		.byte	0x51
ARM GAS  /tmp/cc9meDp5.s 			page 205


 11629 17e0 00000000 		.4byte	0
 11630 17e4 00000000 		.4byte	0
 11631              	.LVUS32:
 11632 17e8 00       		.uleb128 .LVU200
 11633 17e9 01       		.uleb128 .LVU211
 11634              	.LLST32:
 11635 17ea 1E000000 		.4byte	.LVL38
 11636 17ee 2A000000 		.4byte	.LVL39
 11637 17f2 0100     		.2byte	0x1
 11638 17f4 50       		.byte	0x50
 11639 17f5 00000000 		.4byte	0
 11640 17f9 00000000 		.4byte	0
 11641              	.LVUS37:
 11642 17fd 00       		.uleb128 0
 11643 17fe 00       		.uleb128 .LVU299
 11644 17ff 00       		.uleb128 .LVU299
 11645 1800 00       		.uleb128 .LVU299
 11646 1801 00       		.uleb128 .LVU299
 11647 1802 00       		.uleb128 0
 11648              	.LLST37:
 11649 1803 00000000 		.4byte	.LVL47
 11650 1807 23000000 		.4byte	.LVL48-1
 11651 180b 0100     		.2byte	0x1
 11652 180d 50       		.byte	0x50
 11653 180e 23000000 		.4byte	.LVL48-1
 11654 1812 24000000 		.4byte	.LVL48
 11655 1816 0400     		.2byte	0x4
 11656 1818 F3       		.byte	0xf3
 11657 1819 01       		.uleb128 0x1
 11658 181a 50       		.byte	0x50
 11659 181b 9F       		.byte	0x9f
 11660 181c 24000000 		.4byte	.LVL48
 11661 1820 26000000 		.4byte	.LFE407
 11662 1824 0100     		.2byte	0x1
 11663 1826 50       		.byte	0x50
 11664 1827 00000000 		.4byte	0
 11665 182b 00000000 		.4byte	0
 11666              	.LVUS91:
 11667 182f 00       		.uleb128 0
 11668 1830 00       		.uleb128 .LVU782
 11669 1831 00       		.uleb128 .LVU782
 11670 1832 00       		.uleb128 .LVU794
 11671 1833 00       		.uleb128 .LVU794
 11672 1834 00       		.uleb128 .LVU806
 11673 1835 00       		.uleb128 .LVU806
 11674 1836 00       		.uleb128 .LVU808
 11675 1837 00       		.uleb128 .LVU808
 11676 1838 00       		.uleb128 .LVU809
 11677 1839 00       		.uleb128 .LVU809
 11678 183a 00       		.uleb128 0
 11679              	.LLST91:
 11680 183b 00000000 		.4byte	.LVL125
 11681 183f 0F000000 		.4byte	.LVL127-1
 11682 1843 0100     		.2byte	0x1
 11683 1845 50       		.byte	0x50
 11684 1846 0F000000 		.4byte	.LVL127-1
 11685 184a 1E000000 		.4byte	.LVL129
ARM GAS  /tmp/cc9meDp5.s 			page 206


 11686 184e 0100     		.2byte	0x1
 11687 1850 54       		.byte	0x54
 11688 1851 1E000000 		.4byte	.LVL129
 11689 1855 2C000000 		.4byte	.LVL132
 11690 1859 0100     		.2byte	0x1
 11691 185b 50       		.byte	0x50
 11692 185c 2C000000 		.4byte	.LVL132
 11693 1860 2E000000 		.4byte	.LVL133
 11694 1864 0100     		.2byte	0x1
 11695 1866 54       		.byte	0x54
 11696 1867 2E000000 		.4byte	.LVL133
 11697 186b 32000000 		.4byte	.LVL134
 11698 186f 0100     		.2byte	0x1
 11699 1871 50       		.byte	0x50
 11700 1872 32000000 		.4byte	.LVL134
 11701 1876 34000000 		.4byte	.LFE415
 11702 187a 0100     		.2byte	0x1
 11703 187c 54       		.byte	0x54
 11704 187d 00000000 		.4byte	0
 11705 1881 00000000 		.4byte	0
 11706              	.LVUS92:
 11707 1885 00       		.uleb128 0
 11708 1886 00       		.uleb128 .LVU782
 11709 1887 00       		.uleb128 .LVU782
 11710 1888 00       		.uleb128 .LVU794
 11711 1889 00       		.uleb128 .LVU794
 11712 188a 00       		.uleb128 .LVU801
 11713 188b 00       		.uleb128 .LVU801
 11714 188c 00       		.uleb128 .LVU808
 11715 188d 00       		.uleb128 .LVU808
 11716 188e 00       		.uleb128 0
 11717              	.LLST92:
 11718 188f 00000000 		.4byte	.LVL125
 11719 1893 0F000000 		.4byte	.LVL127-1
 11720 1897 0100     		.2byte	0x1
 11721 1899 51       		.byte	0x51
 11722 189a 0F000000 		.4byte	.LVL127-1
 11723 189e 1E000000 		.4byte	.LVL129
 11724 18a2 0100     		.2byte	0x1
 11725 18a4 55       		.byte	0x55
 11726 18a5 1E000000 		.4byte	.LVL129
 11727 18a9 22000000 		.4byte	.LVL130
 11728 18ad 0100     		.2byte	0x1
 11729 18af 51       		.byte	0x51
 11730 18b0 22000000 		.4byte	.LVL130
 11731 18b4 2E000000 		.4byte	.LVL133
 11732 18b8 0100     		.2byte	0x1
 11733 18ba 55       		.byte	0x55
 11734 18bb 2E000000 		.4byte	.LVL133
 11735 18bf 34000000 		.4byte	.LFE415
 11736 18c3 0100     		.2byte	0x1
 11737 18c5 51       		.byte	0x51
 11738 18c6 00000000 		.4byte	0
 11739 18ca 00000000 		.4byte	0
 11740              	.LVUS93:
 11741 18ce 00       		.uleb128 .LVU782
 11742 18cf 00       		.uleb128 .LVU786
ARM GAS  /tmp/cc9meDp5.s 			page 207


 11743              	.LLST93:
 11744 18d0 10000000 		.4byte	.LVL127
 11745 18d4 14000000 		.4byte	.LVL128
 11746 18d8 0100     		.2byte	0x1
 11747 18da 50       		.byte	0x50
 11748 18db 00000000 		.4byte	0
 11749 18df 00000000 		.4byte	0
 11750              	.LVUS94:
 11751 18e3 00       		.uleb128 .LVU780
 11752 18e4 00       		.uleb128 .LVU782
 11753 18e5 00       		.uleb128 .LVU782
 11754 18e6 00       		.uleb128 .LVU782
 11755 18e7 02       		.uleb128 .LVU788
 11756 18e8 00       		.uleb128 .LVU794
 11757 18e9 00       		.uleb128 .LVU794
 11758 18ea 00       		.uleb128 .LVU801
 11759 18eb 00       		.uleb128 .LVU801
 11760 18ec 00       		.uleb128 .LVU806
 11761 18ed 00       		.uleb128 .LVU808
 11762 18ee 00       		.uleb128 0
 11763              	.LLST94:
 11764 18ef 08000000 		.4byte	.LVL126
 11765 18f3 0F000000 		.4byte	.LVL127-1
 11766 18f7 0100     		.2byte	0x1
 11767 18f9 51       		.byte	0x51
 11768 18fa 0F000000 		.4byte	.LVL127-1
 11769 18fe 10000000 		.4byte	.LVL127
 11770 1902 0100     		.2byte	0x1
 11771 1904 55       		.byte	0x55
 11772 1905 14000000 		.4byte	.LVL128
 11773 1909 1E000000 		.4byte	.LVL129
 11774 190d 0100     		.2byte	0x1
 11775 190f 55       		.byte	0x55
 11776 1910 1E000000 		.4byte	.LVL129
 11777 1914 22000000 		.4byte	.LVL130
 11778 1918 0100     		.2byte	0x1
 11779 191a 51       		.byte	0x51
 11780 191b 22000000 		.4byte	.LVL130
 11781 191f 2C000000 		.4byte	.LVL132
 11782 1923 0100     		.2byte	0x1
 11783 1925 55       		.byte	0x55
 11784 1926 2E000000 		.4byte	.LVL133
 11785 192a 34000000 		.4byte	.LFE415
 11786 192e 0100     		.2byte	0x1
 11787 1930 51       		.byte	0x51
 11788 1931 00000000 		.4byte	0
 11789 1935 00000000 		.4byte	0
 11790              	.LVUS95:
 11791 1939 00       		.uleb128 .LVU780
 11792 193a 00       		.uleb128 .LVU782
 11793 193b 00       		.uleb128 .LVU782
 11794 193c 00       		.uleb128 .LVU782
 11795 193d 02       		.uleb128 .LVU788
 11796 193e 00       		.uleb128 .LVU794
 11797 193f 00       		.uleb128 .LVU794
 11798 1940 00       		.uleb128 .LVU806
 11799 1941 00       		.uleb128 .LVU808
ARM GAS  /tmp/cc9meDp5.s 			page 208


 11800 1942 00       		.uleb128 .LVU809
 11801 1943 00       		.uleb128 .LVU809
 11802 1944 00       		.uleb128 0
 11803              	.LLST95:
 11804 1945 08000000 		.4byte	.LVL126
 11805 1949 0F000000 		.4byte	.LVL127-1
 11806 194d 0100     		.2byte	0x1
 11807 194f 50       		.byte	0x50
 11808 1950 0F000000 		.4byte	.LVL127-1
 11809 1954 10000000 		.4byte	.LVL127
 11810 1958 0100     		.2byte	0x1
 11811 195a 54       		.byte	0x54
 11812 195b 14000000 		.4byte	.LVL128
 11813 195f 1E000000 		.4byte	.LVL129
 11814 1963 0100     		.2byte	0x1
 11815 1965 54       		.byte	0x54
 11816 1966 1E000000 		.4byte	.LVL129
 11817 196a 2C000000 		.4byte	.LVL132
 11818 196e 0100     		.2byte	0x1
 11819 1970 50       		.byte	0x50
 11820 1971 2E000000 		.4byte	.LVL133
 11821 1975 32000000 		.4byte	.LVL134
 11822 1979 0100     		.2byte	0x1
 11823 197b 50       		.byte	0x50
 11824 197c 32000000 		.4byte	.LVL134
 11825 1980 34000000 		.4byte	.LFE415
 11826 1984 0100     		.2byte	0x1
 11827 1986 54       		.byte	0x54
 11828 1987 00000000 		.4byte	0
 11829 198b 00000000 		.4byte	0
 11830              	.LVUS96:
 11831 198f 01       		.uleb128 .LVU795
 11832 1990 00       		.uleb128 .LVU801
 11833 1991 00       		.uleb128 .LVU801
 11834 1992 01       		.uleb128 .LVU805
 11835              	.LLST96:
 11836 1993 1E000000 		.4byte	.LVL129
 11837 1997 22000000 		.4byte	.LVL130
 11838 199b 0100     		.2byte	0x1
 11839 199d 51       		.byte	0x51
 11840 199e 22000000 		.4byte	.LVL130
 11841 19a2 2A000000 		.4byte	.LVL131
 11842 19a6 0100     		.2byte	0x1
 11843 19a8 55       		.byte	0x55
 11844 19a9 00000000 		.4byte	0
 11845 19ad 00000000 		.4byte	0
 11846              	.LVUS97:
 11847 19b1 00       		.uleb128 .LVU794
 11848 19b2 01       		.uleb128 .LVU805
 11849              	.LLST97:
 11850 19b3 1E000000 		.4byte	.LVL129
 11851 19b7 2A000000 		.4byte	.LVL131
 11852 19bb 0100     		.2byte	0x1
 11853 19bd 50       		.byte	0x50
 11854 19be 00000000 		.4byte	0
 11855 19c2 00000000 		.4byte	0
 11856              	.LVUS104:
ARM GAS  /tmp/cc9meDp5.s 			page 209


 11857 19c6 00       		.uleb128 0
 11858 19c7 00       		.uleb128 .LVU908
 11859 19c8 00       		.uleb128 .LVU908
 11860 19c9 00       		.uleb128 .LVU908
 11861 19ca 00       		.uleb128 .LVU908
 11862 19cb 00       		.uleb128 0
 11863              	.LLST104:
 11864 19cc 00000000 		.4byte	.LVL142
 11865 19d0 27000000 		.4byte	.LVL146-1
 11866 19d4 0100     		.2byte	0x1
 11867 19d6 50       		.byte	0x50
 11868 19d7 27000000 		.4byte	.LVL146-1
 11869 19db 28000000 		.4byte	.LVL146
 11870 19df 0400     		.2byte	0x4
 11871 19e1 F3       		.byte	0xf3
 11872 19e2 01       		.uleb128 0x1
 11873 19e3 50       		.byte	0x50
 11874 19e4 9F       		.byte	0x9f
 11875 19e5 28000000 		.4byte	.LVL146
 11876 19e9 2C000000 		.4byte	.LFE417
 11877 19ed 0100     		.2byte	0x1
 11878 19ef 50       		.byte	0x50
 11879 19f0 00000000 		.4byte	0
 11880 19f4 00000000 		.4byte	0
 11881              	.LVUS105:
 11882 19f8 00       		.uleb128 0
 11883 19f9 00       		.uleb128 .LVU890
 11884 19fa 00       		.uleb128 .LVU890
 11885 19fb 00       		.uleb128 .LVU892
 11886 19fc 00       		.uleb128 .LVU892
 11887 19fd 00       		.uleb128 .LVU894
 11888 19fe 00       		.uleb128 .LVU894
 11889 19ff 00       		.uleb128 0
 11890              	.LLST105:
 11891 1a00 00000000 		.4byte	.LVL142
 11892 1a04 0A000000 		.4byte	.LVL143
 11893 1a08 0100     		.2byte	0x1
 11894 1a0a 51       		.byte	0x51
 11895 1a0b 0A000000 		.4byte	.LVL143
 11896 1a0f 0E000000 		.4byte	.LVL144
 11897 1a13 0200     		.2byte	0x2
 11898 1a15 73       		.byte	0x73
 11899 1a16 00       		.sleb128 0
 11900 1a17 0E000000 		.4byte	.LVL144
 11901 1a1b 12000000 		.4byte	.LVL145
 11902 1a1f 0300     		.2byte	0x3
 11903 1a21 70       		.byte	0x70
 11904 1a22 10       		.sleb128 16
 11905 1a23 06       		.byte	0x6
 11906 1a24 12000000 		.4byte	.LVL145
 11907 1a28 2C000000 		.4byte	.LFE417
 11908 1a2c 0400     		.2byte	0x4
 11909 1a2e F3       		.byte	0xf3
 11910 1a2f 01       		.uleb128 0x1
 11911 1a30 51       		.byte	0x51
 11912 1a31 9F       		.byte	0x9f
 11913 1a32 00000000 		.4byte	0
ARM GAS  /tmp/cc9meDp5.s 			page 210


 11914 1a36 00000000 		.4byte	0
 11915              		.section	.debug_aranges,"",%progbits
 11916 0000 C4000000 		.4byte	0xc4
 11917 0004 0200     		.2byte	0x2
 11918 0006 00000000 		.4byte	.Ldebug_info0
 11919 000a 04       		.byte	0x4
 11920 000b 00       		.byte	0
 11921 000c 0000     		.2byte	0
 11922 000e 0000     		.2byte	0
 11923 0010 00000000 		.4byte	.LFB400
 11924 0014 30000000 		.4byte	.LFE400-.LFB400
 11925 0018 00000000 		.4byte	.LFB401
 11926 001c 16000000 		.4byte	.LFE401-.LFB401
 11927 0020 00000000 		.4byte	.LFB402
 11928 0024 16000000 		.4byte	.LFE402-.LFB402
 11929 0028 00000000 		.4byte	.LFB403
 11930 002c 28000000 		.4byte	.LFE403-.LFB403
 11931 0030 00000000 		.4byte	.LFB404
 11932 0034 46000000 		.4byte	.LFE404-.LFB404
 11933 0038 00000000 		.4byte	.LFB405
 11934 003c 34000000 		.4byte	.LFE405-.LFB405
 11935 0040 00000000 		.4byte	.LFB406
 11936 0044 34000000 		.4byte	.LFE406-.LFB406
 11937 0048 00000000 		.4byte	.LFB407
 11938 004c 26000000 		.4byte	.LFE407-.LFB407
 11939 0050 00000000 		.4byte	.LFB408
 11940 0054 82000000 		.4byte	.LFE408-.LFB408
 11941 0058 00000000 		.4byte	.LFB409
 11942 005c 10010000 		.4byte	.LFE409-.LFB409
 11943 0060 00000000 		.4byte	.LFB410
 11944 0064 30000000 		.4byte	.LFE410-.LFB410
 11945 0068 00000000 		.4byte	.LFB411
 11946 006c 1A000000 		.4byte	.LFE411-.LFB411
 11947 0070 00000000 		.4byte	.LFB412
 11948 0074 1C000000 		.4byte	.LFE412-.LFB412
 11949 0078 00000000 		.4byte	.LFB413
 11950 007c 24000000 		.4byte	.LFE413-.LFB413
 11951 0080 00000000 		.4byte	.LFB414
 11952 0084 46000000 		.4byte	.LFE414-.LFB414
 11953 0088 00000000 		.4byte	.LFB415
 11954 008c 34000000 		.4byte	.LFE415-.LFB415
 11955 0090 00000000 		.4byte	.LFB416
 11956 0094 34000000 		.4byte	.LFE416-.LFB416
 11957 0098 00000000 		.4byte	.LFB417
 11958 009c 2C000000 		.4byte	.LFE417-.LFB417
 11959 00a0 00000000 		.4byte	.LFB418
 11960 00a4 88000000 		.4byte	.LFE418-.LFB418
 11961 00a8 00000000 		.4byte	.LFB419
 11962 00ac 16010000 		.4byte	.LFE419-.LFB419
 11963 00b0 00000000 		.4byte	.LFB420
 11964 00b4 42000000 		.4byte	.LFE420-.LFB420
 11965 00b8 00000000 		.4byte	.LFB421
 11966 00bc 4C000000 		.4byte	.LFE421-.LFB421
 11967 00c0 00000000 		.4byte	0
 11968 00c4 00000000 		.4byte	0
 11969              		.section	.debug_ranges,"",%progbits
 11970              	.Ldebug_ranges0:
ARM GAS  /tmp/cc9meDp5.s 			page 211


 11971 0000 04000000 		.4byte	.LBB224
 11972 0004 04000000 		.4byte	.LBE224
 11973 0008 04000000 		.4byte	.LBB233
 11974 000c 04000000 		.4byte	.LBE233
 11975 0010 1E000000 		.4byte	.LBB234
 11976 0014 22000000 		.4byte	.LBE234
 11977 0018 00000000 		.4byte	0
 11978 001c 00000000 		.4byte	0
 11979 0020 04000000 		.4byte	.LBB227
 11980 0024 04000000 		.4byte	.LBE227
 11981 0028 1E000000 		.4byte	.LBB230
 11982 002c 22000000 		.4byte	.LBE230
 11983 0030 00000000 		.4byte	0
 11984 0034 00000000 		.4byte	0
 11985 0038 04000000 		.4byte	.LBB260
 11986 003c 04000000 		.4byte	.LBE260
 11987 0040 04000000 		.4byte	.LBB272
 11988 0044 04000000 		.4byte	.LBE272
 11989 0048 04000000 		.4byte	.LBB273
 11990 004c 04000000 		.4byte	.LBE273
 11991 0050 04000000 		.4byte	.LBB274
 11992 0054 04000000 		.4byte	.LBE274
 11993 0058 06000000 		.4byte	.LBB275
 11994 005c 0C000000 		.4byte	.LBE275
 11995 0060 00000000 		.4byte	0
 11996 0064 00000000 		.4byte	0
 11997 0068 0C000000 		.4byte	.LBB276
 11998 006c 32000000 		.4byte	.LBE276
 11999 0070 3A000000 		.4byte	.LBB309
 12000 0074 3E000000 		.4byte	.LBE309
 12001 0078 00000000 		.4byte	0
 12002 007c 00000000 		.4byte	0
 12003 0080 0E000000 		.4byte	.LBB278
 12004 0084 1A000000 		.4byte	.LBE278
 12005 0088 1C000000 		.4byte	.LBB285
 12006 008c 20000000 		.4byte	.LBE285
 12007 0090 3A000000 		.4byte	.LBB288
 12008 0094 3E000000 		.4byte	.LBE288
 12009 0098 00000000 		.4byte	0
 12010 009c 00000000 		.4byte	0
 12011 00a0 12000000 		.4byte	.LBB279
 12012 00a4 16000000 		.4byte	.LBE279
 12013 00a8 1A000000 		.4byte	.LBB283
 12014 00ac 1A000000 		.4byte	.LBE283
 12015 00b0 1C000000 		.4byte	.LBB284
 12016 00b4 20000000 		.4byte	.LBE284
 12017 00b8 00000000 		.4byte	0
 12018 00bc 00000000 		.4byte	0
 12019 00c0 32000000 		.4byte	.LBB290
 12020 00c4 32000000 		.4byte	.LBE290
 12021 00c8 32000000 		.4byte	.LBB307
 12022 00cc 32000000 		.4byte	.LBE307
 12023 00d0 32000000 		.4byte	.LBB308
 12024 00d4 38000000 		.4byte	.LBE308
 12025 00d8 3E000000 		.4byte	.LBB310
 12026 00dc 3E000000 		.4byte	.LBE310
 12027 00e0 3E000000 		.4byte	.LBB311
ARM GAS  /tmp/cc9meDp5.s 			page 212


 12028 00e4 3E000000 		.4byte	.LBE311
 12029 00e8 3E000000 		.4byte	.LBB312
 12030 00ec 44000000 		.4byte	.LBE312
 12031 00f0 00000000 		.4byte	0
 12032 00f4 00000000 		.4byte	0
 12033 00f8 32000000 		.4byte	.LBB291
 12034 00fc 32000000 		.4byte	.LBE291
 12035 0100 32000000 		.4byte	.LBB304
 12036 0104 38000000 		.4byte	.LBE304
 12037 0108 3E000000 		.4byte	.LBB305
 12038 010c 3E000000 		.4byte	.LBE305
 12039 0110 3E000000 		.4byte	.LBB306
 12040 0114 44000000 		.4byte	.LBE306
 12041 0118 00000000 		.4byte	0
 12042 011c 00000000 		.4byte	0
 12043 0120 32000000 		.4byte	.LBB294
 12044 0124 38000000 		.4byte	.LBE294
 12045 0128 3E000000 		.4byte	.LBB297
 12046 012c 44000000 		.4byte	.LBE297
 12047 0130 00000000 		.4byte	0
 12048 0134 00000000 		.4byte	0
 12049 0138 08000000 		.4byte	.LBB324
 12050 013c 14000000 		.4byte	.LBE324
 12051 0140 16000000 		.4byte	.LBB331
 12052 0144 1A000000 		.4byte	.LBE331
 12053 0148 2E000000 		.4byte	.LBB334
 12054 014c 32000000 		.4byte	.LBE334
 12055 0150 00000000 		.4byte	0
 12056 0154 00000000 		.4byte	0
 12057 0158 0C000000 		.4byte	.LBB325
 12058 015c 10000000 		.4byte	.LBE325
 12059 0160 14000000 		.4byte	.LBB329
 12060 0164 14000000 		.4byte	.LBE329
 12061 0168 16000000 		.4byte	.LBB330
 12062 016c 1A000000 		.4byte	.LBE330
 12063 0170 00000000 		.4byte	0
 12064 0174 00000000 		.4byte	0
 12065 0178 00000000 		.4byte	.LBB348
 12066 017c 00000000 		.4byte	.LBE348
 12067 0180 00000000 		.4byte	.LBB360
 12068 0184 00000000 		.4byte	.LBE360
 12069 0188 00000000 		.4byte	.LBB361
 12070 018c 00000000 		.4byte	.LBE361
 12071 0190 00000000 		.4byte	.LBB362
 12072 0194 00000000 		.4byte	.LBE362
 12073 0198 02000000 		.4byte	.LBB363
 12074 019c 08000000 		.4byte	.LBE363
 12075 01a0 00000000 		.4byte	0
 12076 01a4 00000000 		.4byte	0
 12077 01a8 2C000000 		.4byte	.LBB366
 12078 01ac 2C000000 		.4byte	.LBE366
 12079 01b0 2C000000 		.4byte	.LBB375
 12080 01b4 2C000000 		.4byte	.LBE375
 12081 01b8 2C000000 		.4byte	.LBB376
 12082 01bc 32000000 		.4byte	.LBE376
 12083 01c0 00000000 		.4byte	0
 12084 01c4 00000000 		.4byte	0
ARM GAS  /tmp/cc9meDp5.s 			page 213


 12085 01c8 02000000 		.4byte	.LBB406
 12086 01cc 04000000 		.4byte	.LBE406
 12087 01d0 06000000 		.4byte	.LBB418
 12088 01d4 06000000 		.4byte	.LBE418
 12089 01d8 06000000 		.4byte	.LBB419
 12090 01dc 06000000 		.4byte	.LBE419
 12091 01e0 06000000 		.4byte	.LBB420
 12092 01e4 06000000 		.4byte	.LBE420
 12093 01e8 06000000 		.4byte	.LBB421
 12094 01ec 0A000000 		.4byte	.LBE421
 12095 01f0 00000000 		.4byte	0
 12096 01f4 00000000 		.4byte	0
 12097 01f8 02000000 		.4byte	.LBB407
 12098 01fc 04000000 		.4byte	.LBE407
 12099 0200 06000000 		.4byte	.LBB415
 12100 0204 06000000 		.4byte	.LBE415
 12101 0208 06000000 		.4byte	.LBB416
 12102 020c 06000000 		.4byte	.LBE416
 12103 0210 06000000 		.4byte	.LBB417
 12104 0214 0A000000 		.4byte	.LBE417
 12105 0218 00000000 		.4byte	0
 12106 021c 00000000 		.4byte	0
 12107 0220 02000000 		.4byte	.LBB408
 12108 0224 04000000 		.4byte	.LBE408
 12109 0228 06000000 		.4byte	.LBB413
 12110 022c 06000000 		.4byte	.LBE413
 12111 0230 06000000 		.4byte	.LBB414
 12112 0234 0A000000 		.4byte	.LBE414
 12113 0238 00000000 		.4byte	0
 12114 023c 00000000 		.4byte	0
 12115 0240 02000000 		.4byte	.LBB409
 12116 0244 04000000 		.4byte	.LBE409
 12117 0248 06000000 		.4byte	.LBB412
 12118 024c 0A000000 		.4byte	.LBE412
 12119 0250 00000000 		.4byte	0
 12120 0254 00000000 		.4byte	0
 12121 0258 1A000000 		.4byte	.LBB422
 12122 025c 1A000000 		.4byte	.LBE422
 12123 0260 1A000000 		.4byte	.LBB439
 12124 0264 1A000000 		.4byte	.LBE439
 12125 0268 1A000000 		.4byte	.LBB440
 12126 026c 20000000 		.4byte	.LBE440
 12127 0270 4A000000 		.4byte	.LBB454
 12128 0274 4A000000 		.4byte	.LBE454
 12129 0278 4A000000 		.4byte	.LBB455
 12130 027c 4A000000 		.4byte	.LBE455
 12131 0280 4A000000 		.4byte	.LBB456
 12132 0284 50000000 		.4byte	.LBE456
 12133 0288 00000000 		.4byte	0
 12134 028c 00000000 		.4byte	0
 12135 0290 1A000000 		.4byte	.LBB423
 12136 0294 1A000000 		.4byte	.LBE423
 12137 0298 1A000000 		.4byte	.LBB436
 12138 029c 20000000 		.4byte	.LBE436
 12139 02a0 4A000000 		.4byte	.LBB437
 12140 02a4 4A000000 		.4byte	.LBE437
 12141 02a8 4A000000 		.4byte	.LBB438
ARM GAS  /tmp/cc9meDp5.s 			page 214


 12142 02ac 50000000 		.4byte	.LBE438
 12143 02b0 00000000 		.4byte	0
 12144 02b4 00000000 		.4byte	0
 12145 02b8 1A000000 		.4byte	.LBB426
 12146 02bc 20000000 		.4byte	.LBE426
 12147 02c0 4A000000 		.4byte	.LBB429
 12148 02c4 50000000 		.4byte	.LBE429
 12149 02c8 00000000 		.4byte	0
 12150 02cc 00000000 		.4byte	0
 12151 02d0 4A000000 		.4byte	.LBB443
 12152 02d4 4A000000 		.4byte	.LBE443
 12153 02d8 4A000000 		.4byte	.LBB452
 12154 02dc 4A000000 		.4byte	.LBE452
 12155 02e0 4A000000 		.4byte	.LBB453
 12156 02e4 4A000000 		.4byte	.LBE453
 12157 02e8 00000000 		.4byte	0
 12158 02ec 00000000 		.4byte	0
 12159 02f0 58000000 		.4byte	.LBB457
 12160 02f4 7A000000 		.4byte	.LBE457
 12161 02f8 7C000000 		.4byte	.LBB471
 12162 02fc 82000000 		.4byte	.LBE471
 12163 0300 00000000 		.4byte	0
 12164 0304 00000000 		.4byte	0
 12165 0308 58000000 		.4byte	.LBB459
 12166 030c 64000000 		.4byte	.LBE459
 12167 0310 66000000 		.4byte	.LBB466
 12168 0314 6A000000 		.4byte	.LBE466
 12169 0318 7C000000 		.4byte	.LBB469
 12170 031c 82000000 		.4byte	.LBE469
 12171 0320 00000000 		.4byte	0
 12172 0324 00000000 		.4byte	0
 12173 0328 5C000000 		.4byte	.LBB460
 12174 032c 60000000 		.4byte	.LBE460
 12175 0330 64000000 		.4byte	.LBB464
 12176 0334 64000000 		.4byte	.LBE464
 12177 0338 66000000 		.4byte	.LBB465
 12178 033c 6A000000 		.4byte	.LBE465
 12179 0340 00000000 		.4byte	0
 12180 0344 00000000 		.4byte	0
 12181 0348 00000000 		.4byte	.LBB510
 12182 034c 00000000 		.4byte	.LBE510
 12183 0350 00000000 		.4byte	.LBB526
 12184 0354 00000000 		.4byte	.LBE526
 12185 0358 00000000 		.4byte	.LBB527
 12186 035c 00000000 		.4byte	.LBE527
 12187 0360 0C000000 		.4byte	.LBB528
 12188 0364 14000000 		.4byte	.LBE528
 12189 0368 00000000 		.4byte	0
 12190 036c 00000000 		.4byte	0
 12191 0370 00000000 		.4byte	.LBB512
 12192 0374 00000000 		.4byte	.LBE512
 12193 0378 00000000 		.4byte	.LBB520
 12194 037c 00000000 		.4byte	.LBE520
 12195 0380 00000000 		.4byte	.LBB521
 12196 0384 00000000 		.4byte	.LBE521
 12197 0388 0C000000 		.4byte	.LBB522
 12198 038c 14000000 		.4byte	.LBE522
ARM GAS  /tmp/cc9meDp5.s 			page 215


 12199 0390 00000000 		.4byte	0
 12200 0394 00000000 		.4byte	0
 12201 0398 00000000 		.4byte	.LBB513
 12202 039c 00000000 		.4byte	.LBE513
 12203 03a0 00000000 		.4byte	.LBB518
 12204 03a4 00000000 		.4byte	.LBE518
 12205 03a8 0C000000 		.4byte	.LBB519
 12206 03ac 14000000 		.4byte	.LBE519
 12207 03b0 00000000 		.4byte	0
 12208 03b4 00000000 		.4byte	0
 12209 03b8 00000000 		.4byte	.LBB514
 12210 03bc 00000000 		.4byte	.LBE514
 12211 03c0 0C000000 		.4byte	.LBB517
 12212 03c4 14000000 		.4byte	.LBE517
 12213 03c8 00000000 		.4byte	0
 12214 03cc 00000000 		.4byte	0
 12215 03d0 16000000 		.4byte	.LBB529
 12216 03d4 18000000 		.4byte	.LBE529
 12217 03d8 18000000 		.4byte	.LBB587
 12218 03dc 76000000 		.4byte	.LBE587
 12219 03e0 76000000 		.4byte	.LBB588
 12220 03e4 76000000 		.4byte	.LBE588
 12221 03e8 76000000 		.4byte	.LBB589
 12222 03ec 7E000000 		.4byte	.LBE589
 12223 03f0 7E000000 		.4byte	.LBB590
 12224 03f4 7E000000 		.4byte	.LBE590
 12225 03f8 7E000000 		.4byte	.LBB591
 12226 03fc 82000000 		.4byte	.LBE591
 12227 0400 82000000 		.4byte	.LBB592
 12228 0404 04010000 		.4byte	.LBE592
 12229 0408 04010000 		.4byte	.LBB593
 12230 040c 04010000 		.4byte	.LBE593
 12231 0410 04010000 		.4byte	.LBB594
 12232 0414 0A010000 		.4byte	.LBE594
 12233 0418 00000000 		.4byte	0
 12234 041c 00000000 		.4byte	0
 12235 0420 16000000 		.4byte	.LBB530
 12236 0424 18000000 		.4byte	.LBE530
 12237 0428 CE000000 		.4byte	.LBB583
 12238 042c 04010000 		.4byte	.LBE583
 12239 0430 00000000 		.4byte	0
 12240 0434 00000000 		.4byte	0
 12241 0438 76000000 		.4byte	.LBB533
 12242 043c 76000000 		.4byte	.LBE533
 12243 0440 76000000 		.4byte	.LBB542
 12244 0444 76000000 		.4byte	.LBE542
 12245 0448 76000000 		.4byte	.LBB543
 12246 044c 7A000000 		.4byte	.LBE543
 12247 0450 00000000 		.4byte	0
 12248 0454 00000000 		.4byte	0
 12249 0458 7E000000 		.4byte	.LBB544
 12250 045c 7E000000 		.4byte	.LBE544
 12251 0460 7E000000 		.4byte	.LBB556
 12252 0464 7E000000 		.4byte	.LBE556
 12253 0468 7E000000 		.4byte	.LBB557
 12254 046c 82000000 		.4byte	.LBE557
 12255 0470 82000000 		.4byte	.LBB558
ARM GAS  /tmp/cc9meDp5.s 			page 216


 12256 0474 84000000 		.4byte	.LBE558
 12257 0478 00000000 		.4byte	0
 12258 047c 00000000 		.4byte	0
 12259 0480 7E000000 		.4byte	.LBB546
 12260 0484 7E000000 		.4byte	.LBE546
 12261 0488 7E000000 		.4byte	.LBB551
 12262 048c 7E000000 		.4byte	.LBE551
 12263 0490 7E000000 		.4byte	.LBB552
 12264 0494 82000000 		.4byte	.LBE552
 12265 0498 00000000 		.4byte	0
 12266 049c 00000000 		.4byte	0
 12267 04a0 84000000 		.4byte	.LBB559
 12268 04a4 B0000000 		.4byte	.LBE559
 12269 04a8 04010000 		.4byte	.LBB584
 12270 04ac 04010000 		.4byte	.LBE584
 12271 04b0 04010000 		.4byte	.LBB585
 12272 04b4 04010000 		.4byte	.LBE585
 12273 04b8 04010000 		.4byte	.LBB586
 12274 04bc 0A010000 		.4byte	.LBE586
 12275 04c0 00000000 		.4byte	0
 12276 04c4 00000000 		.4byte	0
 12277 04c8 84000000 		.4byte	.LBB562
 12278 04cc 94000000 		.4byte	.LBE562
 12279 04d0 98000000 		.4byte	.LBB569
 12280 04d4 9C000000 		.4byte	.LBE569
 12281 04d8 00000000 		.4byte	0
 12282 04dc 00000000 		.4byte	0
 12283 04e0 8C000000 		.4byte	.LBB563
 12284 04e4 90000000 		.4byte	.LBE563
 12285 04e8 94000000 		.4byte	.LBB567
 12286 04ec 94000000 		.4byte	.LBE567
 12287 04f0 98000000 		.4byte	.LBB568
 12288 04f4 9C000000 		.4byte	.LBE568
 12289 04f8 00000000 		.4byte	0
 12290 04fc 00000000 		.4byte	0
 12291 0500 04010000 		.4byte	.LBB572
 12292 0504 04010000 		.4byte	.LBE572
 12293 0508 04010000 		.4byte	.LBB581
 12294 050c 04010000 		.4byte	.LBE581
 12295 0510 04010000 		.4byte	.LBB582
 12296 0514 0A010000 		.4byte	.LBE582
 12297 0518 00000000 		.4byte	0
 12298 051c 00000000 		.4byte	0
 12299 0520 04000000 		.4byte	.LBB595
 12300 0524 04000000 		.4byte	.LBE595
 12301 0528 04000000 		.4byte	.LBB604
 12302 052c 04000000 		.4byte	.LBE604
 12303 0530 22000000 		.4byte	.LBB605
 12304 0534 26000000 		.4byte	.LBE605
 12305 0538 00000000 		.4byte	0
 12306 053c 00000000 		.4byte	0
 12307 0540 04000000 		.4byte	.LBB598
 12308 0544 04000000 		.4byte	.LBE598
 12309 0548 22000000 		.4byte	.LBB601
 12310 054c 26000000 		.4byte	.LBE601
 12311 0550 00000000 		.4byte	0
 12312 0554 00000000 		.4byte	0
ARM GAS  /tmp/cc9meDp5.s 			page 217


 12313 0558 04000000 		.4byte	.LBB631
 12314 055c 04000000 		.4byte	.LBE631
 12315 0560 04000000 		.4byte	.LBB643
 12316 0564 04000000 		.4byte	.LBE643
 12317 0568 04000000 		.4byte	.LBB644
 12318 056c 04000000 		.4byte	.LBE644
 12319 0570 04000000 		.4byte	.LBB645
 12320 0574 04000000 		.4byte	.LBE645
 12321 0578 06000000 		.4byte	.LBB646
 12322 057c 0C000000 		.4byte	.LBE646
 12323 0580 00000000 		.4byte	0
 12324 0584 00000000 		.4byte	0
 12325 0588 0C000000 		.4byte	.LBB647
 12326 058c 32000000 		.4byte	.LBE647
 12327 0590 3A000000 		.4byte	.LBB680
 12328 0594 3E000000 		.4byte	.LBE680
 12329 0598 00000000 		.4byte	0
 12330 059c 00000000 		.4byte	0
 12331 05a0 0E000000 		.4byte	.LBB649
 12332 05a4 1A000000 		.4byte	.LBE649
 12333 05a8 1C000000 		.4byte	.LBB656
 12334 05ac 20000000 		.4byte	.LBE656
 12335 05b0 3A000000 		.4byte	.LBB659
 12336 05b4 3E000000 		.4byte	.LBE659
 12337 05b8 00000000 		.4byte	0
 12338 05bc 00000000 		.4byte	0
 12339 05c0 12000000 		.4byte	.LBB650
 12340 05c4 16000000 		.4byte	.LBE650
 12341 05c8 1A000000 		.4byte	.LBB654
 12342 05cc 1A000000 		.4byte	.LBE654
 12343 05d0 1C000000 		.4byte	.LBB655
 12344 05d4 20000000 		.4byte	.LBE655
 12345 05d8 00000000 		.4byte	0
 12346 05dc 00000000 		.4byte	0
 12347 05e0 32000000 		.4byte	.LBB661
 12348 05e4 32000000 		.4byte	.LBE661
 12349 05e8 32000000 		.4byte	.LBB678
 12350 05ec 32000000 		.4byte	.LBE678
 12351 05f0 32000000 		.4byte	.LBB679
 12352 05f4 38000000 		.4byte	.LBE679
 12353 05f8 3E000000 		.4byte	.LBB681
 12354 05fc 3E000000 		.4byte	.LBE681
 12355 0600 3E000000 		.4byte	.LBB682
 12356 0604 3E000000 		.4byte	.LBE682
 12357 0608 3E000000 		.4byte	.LBB683
 12358 060c 44000000 		.4byte	.LBE683
 12359 0610 00000000 		.4byte	0
 12360 0614 00000000 		.4byte	0
 12361 0618 32000000 		.4byte	.LBB662
 12362 061c 32000000 		.4byte	.LBE662
 12363 0620 32000000 		.4byte	.LBB675
 12364 0624 38000000 		.4byte	.LBE675
 12365 0628 3E000000 		.4byte	.LBB676
 12366 062c 3E000000 		.4byte	.LBE676
 12367 0630 3E000000 		.4byte	.LBB677
 12368 0634 44000000 		.4byte	.LBE677
 12369 0638 00000000 		.4byte	0
ARM GAS  /tmp/cc9meDp5.s 			page 218


 12370 063c 00000000 		.4byte	0
 12371 0640 32000000 		.4byte	.LBB665
 12372 0644 38000000 		.4byte	.LBE665
 12373 0648 3E000000 		.4byte	.LBB668
 12374 064c 44000000 		.4byte	.LBE668
 12375 0650 00000000 		.4byte	0
 12376 0654 00000000 		.4byte	0
 12377 0658 08000000 		.4byte	.LBB695
 12378 065c 14000000 		.4byte	.LBE695
 12379 0660 16000000 		.4byte	.LBB702
 12380 0664 1A000000 		.4byte	.LBE702
 12381 0668 2E000000 		.4byte	.LBB705
 12382 066c 32000000 		.4byte	.LBE705
 12383 0670 00000000 		.4byte	0
 12384 0674 00000000 		.4byte	0
 12385 0678 0C000000 		.4byte	.LBB696
 12386 067c 10000000 		.4byte	.LBE696
 12387 0680 14000000 		.4byte	.LBB700
 12388 0684 14000000 		.4byte	.LBE700
 12389 0688 16000000 		.4byte	.LBB701
 12390 068c 1A000000 		.4byte	.LBE701
 12391 0690 00000000 		.4byte	0
 12392 0694 00000000 		.4byte	0
 12393 0698 00000000 		.4byte	.LBB719
 12394 069c 00000000 		.4byte	.LBE719
 12395 06a0 00000000 		.4byte	.LBB731
 12396 06a4 00000000 		.4byte	.LBE731
 12397 06a8 00000000 		.4byte	.LBB732
 12398 06ac 00000000 		.4byte	.LBE732
 12399 06b0 00000000 		.4byte	.LBB733
 12400 06b4 00000000 		.4byte	.LBE733
 12401 06b8 02000000 		.4byte	.LBB734
 12402 06bc 08000000 		.4byte	.LBE734
 12403 06c0 00000000 		.4byte	0
 12404 06c4 00000000 		.4byte	0
 12405 06c8 2C000000 		.4byte	.LBB737
 12406 06cc 2C000000 		.4byte	.LBE737
 12407 06d0 2C000000 		.4byte	.LBB746
 12408 06d4 2C000000 		.4byte	.LBE746
 12409 06d8 2C000000 		.4byte	.LBB747
 12410 06dc 32000000 		.4byte	.LBE747
 12411 06e0 00000000 		.4byte	0
 12412 06e4 00000000 		.4byte	0
 12413 06e8 02000000 		.4byte	.LBB777
 12414 06ec 04000000 		.4byte	.LBE777
 12415 06f0 08000000 		.4byte	.LBB789
 12416 06f4 08000000 		.4byte	.LBE789
 12417 06f8 08000000 		.4byte	.LBB790
 12418 06fc 08000000 		.4byte	.LBE790
 12419 0700 08000000 		.4byte	.LBB791
 12420 0704 08000000 		.4byte	.LBE791
 12421 0708 08000000 		.4byte	.LBB792
 12422 070c 0C000000 		.4byte	.LBE792
 12423 0710 00000000 		.4byte	0
 12424 0714 00000000 		.4byte	0
 12425 0718 02000000 		.4byte	.LBB778
 12426 071c 04000000 		.4byte	.LBE778
ARM GAS  /tmp/cc9meDp5.s 			page 219


 12427 0720 08000000 		.4byte	.LBB786
 12428 0724 08000000 		.4byte	.LBE786
 12429 0728 08000000 		.4byte	.LBB787
 12430 072c 08000000 		.4byte	.LBE787
 12431 0730 08000000 		.4byte	.LBB788
 12432 0734 0C000000 		.4byte	.LBE788
 12433 0738 00000000 		.4byte	0
 12434 073c 00000000 		.4byte	0
 12435 0740 02000000 		.4byte	.LBB779
 12436 0744 04000000 		.4byte	.LBE779
 12437 0748 08000000 		.4byte	.LBB784
 12438 074c 08000000 		.4byte	.LBE784
 12439 0750 08000000 		.4byte	.LBB785
 12440 0754 0C000000 		.4byte	.LBE785
 12441 0758 00000000 		.4byte	0
 12442 075c 00000000 		.4byte	0
 12443 0760 02000000 		.4byte	.LBB780
 12444 0764 04000000 		.4byte	.LBE780
 12445 0768 08000000 		.4byte	.LBB783
 12446 076c 0C000000 		.4byte	.LBE783
 12447 0770 00000000 		.4byte	0
 12448 0774 00000000 		.4byte	0
 12449 0778 1E000000 		.4byte	.LBB793
 12450 077c 1E000000 		.4byte	.LBE793
 12451 0780 1E000000 		.4byte	.LBB802
 12452 0784 1E000000 		.4byte	.LBE802
 12453 0788 1E000000 		.4byte	.LBB803
 12454 078c 24000000 		.4byte	.LBE803
 12455 0790 00000000 		.4byte	0
 12456 0794 00000000 		.4byte	0
 12457 0798 26000000 		.4byte	.LBB804
 12458 079c 26000000 		.4byte	.LBE804
 12459 07a0 28000000 		.4byte	.LBB808
 12460 07a4 2A000000 		.4byte	.LBE808
 12461 07a8 2C000000 		.4byte	.LBB809
 12462 07ac 56000000 		.4byte	.LBE809
 12463 07b0 00000000 		.4byte	0
 12464 07b4 00000000 		.4byte	0
 12465 07b8 58000000 		.4byte	.LBB810
 12466 07bc 7A000000 		.4byte	.LBE810
 12467 07c0 7C000000 		.4byte	.LBB824
 12468 07c4 80000000 		.4byte	.LBE824
 12469 07c8 00000000 		.4byte	0
 12470 07cc 00000000 		.4byte	0
 12471 07d0 58000000 		.4byte	.LBB812
 12472 07d4 64000000 		.4byte	.LBE812
 12473 07d8 66000000 		.4byte	.LBB819
 12474 07dc 6A000000 		.4byte	.LBE819
 12475 07e0 7C000000 		.4byte	.LBB822
 12476 07e4 80000000 		.4byte	.LBE822
 12477 07e8 00000000 		.4byte	0
 12478 07ec 00000000 		.4byte	0
 12479 07f0 5C000000 		.4byte	.LBB813
 12480 07f4 60000000 		.4byte	.LBE813
 12481 07f8 64000000 		.4byte	.LBB817
 12482 07fc 64000000 		.4byte	.LBE817
 12483 0800 66000000 		.4byte	.LBB818
ARM GAS  /tmp/cc9meDp5.s 			page 220


 12484 0804 6A000000 		.4byte	.LBE818
 12485 0808 00000000 		.4byte	0
 12486 080c 00000000 		.4byte	0
 12487 0810 80000000 		.4byte	.LBB825
 12488 0814 80000000 		.4byte	.LBE825
 12489 0818 80000000 		.4byte	.LBB834
 12490 081c 80000000 		.4byte	.LBE834
 12491 0820 80000000 		.4byte	.LBB835
 12492 0824 86000000 		.4byte	.LBE835
 12493 0828 00000000 		.4byte	0
 12494 082c 00000000 		.4byte	0
 12495 0830 00000000 		.4byte	.LBB874
 12496 0834 00000000 		.4byte	.LBE874
 12497 0838 00000000 		.4byte	.LBB890
 12498 083c 00000000 		.4byte	.LBE890
 12499 0840 00000000 		.4byte	.LBB891
 12500 0844 00000000 		.4byte	.LBE891
 12501 0848 0C000000 		.4byte	.LBB892
 12502 084c 14000000 		.4byte	.LBE892
 12503 0850 00000000 		.4byte	0
 12504 0854 00000000 		.4byte	0
 12505 0858 00000000 		.4byte	.LBB876
 12506 085c 00000000 		.4byte	.LBE876
 12507 0860 00000000 		.4byte	.LBB884
 12508 0864 00000000 		.4byte	.LBE884
 12509 0868 00000000 		.4byte	.LBB885
 12510 086c 00000000 		.4byte	.LBE885
 12511 0870 0C000000 		.4byte	.LBB886
 12512 0874 14000000 		.4byte	.LBE886
 12513 0878 00000000 		.4byte	0
 12514 087c 00000000 		.4byte	0
 12515 0880 00000000 		.4byte	.LBB877
 12516 0884 00000000 		.4byte	.LBE877
 12517 0888 00000000 		.4byte	.LBB882
 12518 088c 00000000 		.4byte	.LBE882
 12519 0890 0C000000 		.4byte	.LBB883
 12520 0894 14000000 		.4byte	.LBE883
 12521 0898 00000000 		.4byte	0
 12522 089c 00000000 		.4byte	0
 12523 08a0 00000000 		.4byte	.LBB878
 12524 08a4 00000000 		.4byte	.LBE878
 12525 08a8 0C000000 		.4byte	.LBB881
 12526 08ac 14000000 		.4byte	.LBE881
 12527 08b0 00000000 		.4byte	0
 12528 08b4 00000000 		.4byte	0
 12529 08b8 16000000 		.4byte	.LBB893
 12530 08bc 18000000 		.4byte	.LBE893
 12531 08c0 18000000 		.4byte	.LBB955
 12532 08c4 74000000 		.4byte	.LBE955
 12533 08c8 74000000 		.4byte	.LBB956
 12534 08cc 74000000 		.4byte	.LBE956
 12535 08d0 74000000 		.4byte	.LBB957
 12536 08d4 7C000000 		.4byte	.LBE957
 12537 08d8 7C000000 		.4byte	.LBB958
 12538 08dc 7C000000 		.4byte	.LBE958
 12539 08e0 7C000000 		.4byte	.LBB959
 12540 08e4 80000000 		.4byte	.LBE959
ARM GAS  /tmp/cc9meDp5.s 			page 221


 12541 08e8 80000000 		.4byte	.LBB960
 12542 08ec 0A010000 		.4byte	.LBE960
 12543 08f0 0A010000 		.4byte	.LBB961
 12544 08f4 0A010000 		.4byte	.LBE961
 12545 08f8 0A010000 		.4byte	.LBB962
 12546 08fc 10010000 		.4byte	.LBE962
 12547 0900 00000000 		.4byte	0
 12548 0904 00000000 		.4byte	0
 12549 0908 16000000 		.4byte	.LBB894
 12550 090c 18000000 		.4byte	.LBE894
 12551 0910 CC000000 		.4byte	.LBB949
 12552 0914 CC000000 		.4byte	.LBE949
 12553 0918 D0000000 		.4byte	.LBB950
 12554 091c D4000000 		.4byte	.LBE950
 12555 0920 D6000000 		.4byte	.LBB951
 12556 0924 0A010000 		.4byte	.LBE951
 12557 0928 00000000 		.4byte	0
 12558 092c 00000000 		.4byte	0
 12559 0930 74000000 		.4byte	.LBB899
 12560 0934 74000000 		.4byte	.LBE899
 12561 0938 74000000 		.4byte	.LBB908
 12562 093c 74000000 		.4byte	.LBE908
 12563 0940 74000000 		.4byte	.LBB909
 12564 0944 78000000 		.4byte	.LBE909
 12565 0948 00000000 		.4byte	0
 12566 094c 00000000 		.4byte	0
 12567 0950 7C000000 		.4byte	.LBB910
 12568 0954 7C000000 		.4byte	.LBE910
 12569 0958 7C000000 		.4byte	.LBB922
 12570 095c 7C000000 		.4byte	.LBE922
 12571 0960 7C000000 		.4byte	.LBB923
 12572 0964 80000000 		.4byte	.LBE923
 12573 0968 80000000 		.4byte	.LBB924
 12574 096c 82000000 		.4byte	.LBE924
 12575 0970 00000000 		.4byte	0
 12576 0974 00000000 		.4byte	0
 12577 0978 7C000000 		.4byte	.LBB912
 12578 097c 7C000000 		.4byte	.LBE912
 12579 0980 7C000000 		.4byte	.LBB917
 12580 0984 7C000000 		.4byte	.LBE917
 12581 0988 7C000000 		.4byte	.LBB918
 12582 098c 80000000 		.4byte	.LBE918
 12583 0990 00000000 		.4byte	0
 12584 0994 00000000 		.4byte	0
 12585 0998 82000000 		.4byte	.LBB925
 12586 099c B0000000 		.4byte	.LBE925
 12587 09a0 0A010000 		.4byte	.LBB952
 12588 09a4 0A010000 		.4byte	.LBE952
 12589 09a8 0A010000 		.4byte	.LBB953
 12590 09ac 0A010000 		.4byte	.LBE953
 12591 09b0 0A010000 		.4byte	.LBB954
 12592 09b4 10010000 		.4byte	.LBE954
 12593 09b8 00000000 		.4byte	0
 12594 09bc 00000000 		.4byte	0
 12595 09c0 82000000 		.4byte	.LBB928
 12596 09c4 92000000 		.4byte	.LBE928
 12597 09c8 96000000 		.4byte	.LBB935
ARM GAS  /tmp/cc9meDp5.s 			page 222


 12598 09cc 9A000000 		.4byte	.LBE935
 12599 09d0 00000000 		.4byte	0
 12600 09d4 00000000 		.4byte	0
 12601 09d8 8A000000 		.4byte	.LBB929
 12602 09dc 8E000000 		.4byte	.LBE929
 12603 09e0 92000000 		.4byte	.LBB933
 12604 09e4 92000000 		.4byte	.LBE933
 12605 09e8 96000000 		.4byte	.LBB934
 12606 09ec 9A000000 		.4byte	.LBE934
 12607 09f0 00000000 		.4byte	0
 12608 09f4 00000000 		.4byte	0
 12609 09f8 0A010000 		.4byte	.LBB938
 12610 09fc 0A010000 		.4byte	.LBE938
 12611 0a00 0A010000 		.4byte	.LBB947
 12612 0a04 0A010000 		.4byte	.LBE947
 12613 0a08 0A010000 		.4byte	.LBB948
 12614 0a0c 10010000 		.4byte	.LBE948
 12615 0a10 00000000 		.4byte	0
 12616 0a14 00000000 		.4byte	0
 12617 0a18 00000000 		.4byte	.LBB978
 12618 0a1c 00000000 		.4byte	.LBE978
 12619 0a20 00000000 		.4byte	.LBB990
 12620 0a24 00000000 		.4byte	.LBE990
 12621 0a28 00000000 		.4byte	.LBB991
 12622 0a2c 00000000 		.4byte	.LBE991
 12623 0a30 00000000 		.4byte	.LBB992
 12624 0a34 00000000 		.4byte	.LBE992
 12625 0a38 02000000 		.4byte	.LBB993
 12626 0a3c 08000000 		.4byte	.LBE993
 12627 0a40 00000000 		.4byte	0
 12628 0a44 00000000 		.4byte	0
 12629 0a48 0C000000 		.4byte	.LBB994
 12630 0a4c 14000000 		.4byte	.LBE994
 12631 0a50 1C000000 		.4byte	.LBB1016
 12632 0a54 44000000 		.4byte	.LBE1016
 12633 0a58 00000000 		.4byte	0
 12634 0a5c 00000000 		.4byte	0
 12635 0a60 14000000 		.4byte	.LBB997
 12636 0a64 14000000 		.4byte	.LBE997
 12637 0a68 14000000 		.4byte	.LBB1014
 12638 0a6c 14000000 		.4byte	.LBE1014
 12639 0a70 14000000 		.4byte	.LBB1015
 12640 0a74 1A000000 		.4byte	.LBE1015
 12641 0a78 44000000 		.4byte	.LBB1017
 12642 0a7c 44000000 		.4byte	.LBE1017
 12643 0a80 44000000 		.4byte	.LBB1018
 12644 0a84 44000000 		.4byte	.LBE1018
 12645 0a88 44000000 		.4byte	.LBB1019
 12646 0a8c 4A000000 		.4byte	.LBE1019
 12647 0a90 00000000 		.4byte	0
 12648 0a94 00000000 		.4byte	0
 12649 0a98 14000000 		.4byte	.LBB998
 12650 0a9c 14000000 		.4byte	.LBE998
 12651 0aa0 14000000 		.4byte	.LBB1011
 12652 0aa4 1A000000 		.4byte	.LBE1011
 12653 0aa8 44000000 		.4byte	.LBB1012
 12654 0aac 44000000 		.4byte	.LBE1012
ARM GAS  /tmp/cc9meDp5.s 			page 223


 12655 0ab0 44000000 		.4byte	.LBB1013
 12656 0ab4 4A000000 		.4byte	.LBE1013
 12657 0ab8 00000000 		.4byte	0
 12658 0abc 00000000 		.4byte	0
 12659 0ac0 14000000 		.4byte	.LBB1001
 12660 0ac4 1A000000 		.4byte	.LBE1001
 12661 0ac8 44000000 		.4byte	.LBB1004
 12662 0acc 4A000000 		.4byte	.LBE1004
 12663 0ad0 00000000 		.4byte	0
 12664 0ad4 00000000 		.4byte	0
 12665 0ad8 00000000 		.4byte	.LFB400
 12666 0adc 30000000 		.4byte	.LFE400
 12667 0ae0 00000000 		.4byte	.LFB401
 12668 0ae4 16000000 		.4byte	.LFE401
 12669 0ae8 00000000 		.4byte	.LFB402
 12670 0aec 16000000 		.4byte	.LFE402
 12671 0af0 00000000 		.4byte	.LFB403
 12672 0af4 28000000 		.4byte	.LFE403
 12673 0af8 00000000 		.4byte	.LFB404
 12674 0afc 46000000 		.4byte	.LFE404
 12675 0b00 00000000 		.4byte	.LFB405
 12676 0b04 34000000 		.4byte	.LFE405
 12677 0b08 00000000 		.4byte	.LFB406
 12678 0b0c 34000000 		.4byte	.LFE406
 12679 0b10 00000000 		.4byte	.LFB407
 12680 0b14 26000000 		.4byte	.LFE407
 12681 0b18 00000000 		.4byte	.LFB408
 12682 0b1c 82000000 		.4byte	.LFE408
 12683 0b20 00000000 		.4byte	.LFB409
 12684 0b24 10010000 		.4byte	.LFE409
 12685 0b28 00000000 		.4byte	.LFB410
 12686 0b2c 30000000 		.4byte	.LFE410
 12687 0b30 00000000 		.4byte	.LFB411
 12688 0b34 1A000000 		.4byte	.LFE411
 12689 0b38 00000000 		.4byte	.LFB412
 12690 0b3c 1C000000 		.4byte	.LFE412
 12691 0b40 00000000 		.4byte	.LFB413
 12692 0b44 24000000 		.4byte	.LFE413
 12693 0b48 00000000 		.4byte	.LFB414
 12694 0b4c 46000000 		.4byte	.LFE414
 12695 0b50 00000000 		.4byte	.LFB415
 12696 0b54 34000000 		.4byte	.LFE415
 12697 0b58 00000000 		.4byte	.LFB416
 12698 0b5c 34000000 		.4byte	.LFE416
 12699 0b60 00000000 		.4byte	.LFB417
 12700 0b64 2C000000 		.4byte	.LFE417
 12701 0b68 00000000 		.4byte	.LFB418
 12702 0b6c 88000000 		.4byte	.LFE418
 12703 0b70 00000000 		.4byte	.LFB419
 12704 0b74 16010000 		.4byte	.LFE419
 12705 0b78 00000000 		.4byte	.LFB420
 12706 0b7c 42000000 		.4byte	.LFE420
 12707 0b80 00000000 		.4byte	.LFB421
 12708 0b84 4C000000 		.4byte	.LFE421
 12709 0b88 00000000 		.4byte	0
 12710 0b8c 00000000 		.4byte	0
 12711              		.section	.debug_line,"",%progbits
ARM GAS  /tmp/cc9meDp5.s 			page 224


 12712              	.Ldebug_line0:
 12713 0000 CF170000 		.section	.debug_str,"MS",%progbits,1
 12713      03009D02 
 12713      00000201 
 12713      FB0E0D00 
 12713      01010101 
 12714              	.LASF92:
 12715 0000 6F73616C 		.ascii	"osalThreadEnqueueTimeoutS\000"
 12715      54687265 
 12715      6164456E 
 12715      71756575 
 12715      6554696D 
 12716              	.LASF54:
 12717 001a 6F627147 		.ascii	"obqGetFullBufferI\000"
 12717      65744675 
 12717      6C6C4275 
 12717      66666572 
 12717      4900
 12718              	.LASF36:
 12719 002c 6273697A 		.ascii	"bsize\000"
 12719      6500
 12720              	.LASF26:
 12721 0032 74687265 		.ascii	"threads_queue_t\000"
 12721      6164735F 
 12721      71756575 
 12721      655F7400 
 12722              	.LASF21:
 12723 0042 6E657874 		.ascii	"next\000"
 12723      00
 12724              	.LASF7:
 12725 0047 73686F72 		.ascii	"short int\000"
 12725      7420696E 
 12725      7400
 12726              	.LASF4:
 12727 0051 73697A65 		.ascii	"size_t\000"
 12727      5F7400
 12728              	.LASF94:
 12729 0058 5F5F6275 		.ascii	"__builtin_memcpy\000"
 12729      696C7469 
 12729      6E5F6D65 
 12729      6D637079 
 12729      00
 12730              	.LASF88:
 12731 0069 63685468 		.ascii	"chThdDequeueAllI\000"
 12731      64446571 
 12731      75657565 
 12731      416C6C49 
 12731      00
 12732              	.LASF76:
 12733 007a 6F73616C 		.ascii	"osalSysUnlock\000"
 12733      53797355 
 12733      6E6C6F63 
 12733      6B00
 12734              	.LASF60:
 12735 0088 69627170 		.ascii	"ibqp\000"
 12735      00
 12736              	.LASF82:
ARM GAS  /tmp/cc9meDp5.s 			page 225


 12737 008d 706F7274 		.ascii	"port_lock\000"
 12737      5F6C6F63 
 12737      6B00
 12738              	.LASF80:
 12739 0097 63685379 		.ascii	"chSysLock\000"
 12739      734C6F63 
 12739      6B00
 12740              	.LASF75:
 12741 00a1 6F73616C 		.ascii	"osalThreadQueueObjectInit\000"
 12741      54687265 
 12741      61645175 
 12741      6575654F 
 12741      626A6563 
 12742              	.LASF74:
 12743 00bb 6F73616C 		.ascii	"osalThreadDequeueNextI\000"
 12743      54687265 
 12743      61644465 
 12743      71756575 
 12743      654E6578 
 12744              	.LASF93:
 12745 00d2 6D656D63 		.ascii	"memcpy\000"
 12745      707900
 12746              	.LASF23:
 12747 00d9 63685F71 		.ascii	"ch_queue\000"
 12747      75657565 
 12747      00
 12748              	.LASF42:
 12749 00e2 6F757470 		.ascii	"output_buffers_queue_t\000"
 12749      75745F62 
 12749      75666665 
 12749      72735F71 
 12749      75657565 
 12750              	.LASF29:
 12751 00f9 696F5F62 		.ascii	"io_buffers_queue\000"
 12751      75666665 
 12751      72735F71 
 12751      75657565 
 12751      00
 12752              	.LASF15:
 12753 010a 75696E74 		.ascii	"uint8_t\000"
 12753      385F7400 
 12754              	.LASF24:
 12755 0112 63685F74 		.ascii	"ch_threads_queue\000"
 12755      68726561 
 12755      64735F71 
 12755      75657565 
 12755      00
 12756              	.LASF20:
 12757 0123 63685F71 		.ascii	"ch_queue_t\000"
 12757      75657565 
 12757      5F7400
 12758              	.LASF39:
 12759 012e 6C696E6B 		.ascii	"link\000"
 12759      00
 12760              	.LASF45:
 12761 0133 6F627154 		.ascii	"obqTryFlushI\000"
 12761      7279466C 
ARM GAS  /tmp/cc9meDp5.s 			page 226


 12761      75736849 
 12761      00
 12762              	.LASF40:
 12763 0140 62716E6F 		.ascii	"bqnotify_t\000"
 12763      74696679 
 12763      5F7400
 12764              	.LASF2:
 12765 014b 6C6F6E67 		.ascii	"long double\000"
 12765      20646F75 
 12765      626C6500 
 12766              	.LASF1:
 12767 0157 6C6F6E67 		.ascii	"long long int\000"
 12767      206C6F6E 
 12767      6720696E 
 12767      7400
 12768              	.LASF32:
 12769 0165 62636F75 		.ascii	"bcounter\000"
 12769      6E746572 
 12769      00
 12770              	.LASF86:
 12771 016e 63685468 		.ascii	"chThdEnqueueTimeoutS\000"
 12771      64456E71 
 12771      75657565 
 12771      54696D65 
 12771      6F757453 
 12772              	.LASF65:
 12773 0183 6F627147 		.ascii	"obqGetEmptyBufferTimeoutS\000"
 12773      6574456D 
 12773      70747942 
 12773      75666665 
 12773      7254696D 
 12774              	.LASF56:
 12775 019d 6F62714F 		.ascii	"obqObjectInit\000"
 12775      626A6563 
 12775      74496E69 
 12775      7400
 12776              	.LASF10:
 12777 01ab 6C6F6E67 		.ascii	"long int\000"
 12777      20696E74 
 12777      00
 12778              	.LASF64:
 12779 01b4 69627152 		.ascii	"ibqReleaseEmptyBuffer\000"
 12779      656C6561 
 12779      7365456D 
 12779      70747942 
 12779      75666665 
 12780              	.LASF57:
 12781 01ca 73697A65 		.ascii	"sizep\000"
 12781      7000
 12782              	.LASF52:
 12783 01d0 6F627147 		.ascii	"obqGetEmptyBufferTimeout\000"
 12783      6574456D 
 12783      70747942 
 12783      75666665 
 12783      7254696D 
 12784              	.LASF5:
 12785 01e9 5F5F7569 		.ascii	"__uint8_t\000"
ARM GAS  /tmp/cc9meDp5.s 			page 227


 12785      6E74385F 
 12785      7400
 12786              	.LASF58:
 12787 01f3 6F6E6679 		.ascii	"onfy\000"
 12787      00
 12788              	.LASF73:
 12789 01f8 6F73616C 		.ascii	"osalThreadDequeueAllI\000"
 12789      54687265 
 12789      61644465 
 12789      71756575 
 12789      65416C6C 
 12790              	.LASF66:
 12791 020e 69627147 		.ascii	"ibqGetFullBufferTimeoutS\000"
 12791      65744675 
 12791      6C6C4275 
 12791      66666572 
 12791      54696D65 
 12792              	.LASF67:
 12793 0227 69627147 		.ascii	"ibqGetFullBufferTimeout\000"
 12793      65744675 
 12793      6C6C4275 
 12793      66666572 
 12793      54696D65 
 12794              	.LASF89:
 12795 023f 474E5520 		.ascii	"GNU C17 10.3.1 20210621 (release) -mcpu=cortex-m4 -"
 12795      43313720 
 12795      31302E33 
 12795      2E312032 
 12795      30323130 
 12796 0272 6D746875 		.ascii	"mthumb -mfloat-abi=soft -march=armv7e-m -ggdb -O2 -"
 12796      6D62202D 
 12796      6D666C6F 
 12796      61742D61 
 12796      62693D73 
 12797 02a5 666F6D69 		.ascii	"fomit-frame-pointer -falign-functions=16 -ffunction"
 12797      742D6672 
 12797      616D652D 
 12797      706F696E 
 12797      74657220 
 12798 02d8 2D736563 		.ascii	"-sections -fdata-sections -fno-common\000"
 12798      74696F6E 
 12798      73202D66 
 12798      64617461 
 12798      2D736563 
 12799              	.LASF77:
 12800 02fe 6F73616C 		.ascii	"osalSysLock\000"
 12800      5379734C 
 12800      6F636B00 
 12801              	.LASF6:
 12802 030a 756E7369 		.ascii	"unsigned char\000"
 12802      676E6564 
 12802      20636861 
 12802      7200
 12803              	.LASF49:
 12804 0318 5F5F6675 		.ascii	"__func__\000"
 12804      6E635F5F 
 12804      00
ARM GAS  /tmp/cc9meDp5.s 			page 228


 12805              	.LASF48:
 12806 0321 6F627150 		.ascii	"obqPutTimeout\000"
 12806      75745469 
 12806      6D656F75 
 12806      7400
 12807              	.LASF3:
 12808 032f 7369676E 		.ascii	"signed char\000"
 12808      65642063 
 12808      68617200 
 12809              	.LASF90:
 12810 033b 2E2E2F43 		.ascii	"../ChibiOS/os/hal/src/hal_buffers.c\000"
 12810      68696269 
 12810      4F532F6F 
 12810      732F6861 
 12810      6C2F7372 
 12811              	.LASF13:
 12812 035f 6C6F6E67 		.ascii	"long long unsigned int\000"
 12812      206C6F6E 
 12812      6720756E 
 12812      7369676E 
 12812      65642069 
 12813              	.LASF17:
 12814 0376 75696E74 		.ascii	"uint32_t\000"
 12814      33325F74 
 12814      00
 12815              	.LASF0:
 12816 037f 756E7369 		.ascii	"unsigned int\000"
 12816      676E6564 
 12816      20696E74 
 12816      00
 12817              	.LASF12:
 12818 038c 6C6F6E67 		.ascii	"long unsigned int\000"
 12818      20756E73 
 12818      69676E65 
 12818      6420696E 
 12818      7400
 12819              	.LASF46:
 12820 039e 6F627157 		.ascii	"obqWriteTimeout\000"
 12820      72697465 
 12820      54696D65 
 12820      6F757400 
 12821              	.LASF91:
 12822 03ae 2F686F6D 		.ascii	"/home/bhimebau/forge/analog_in_out/application\000"
 12822      652F6268 
 12822      696D6562 
 12822      61752F66 
 12822      6F726765 
 12823              	.LASF70:
 12824 03dd 69627152 		.ascii	"ibqResetI\000"
 12824      65736574 
 12824      4900
 12825              	.LASF62:
 12826 03e7 6F627150 		.ascii	"obqPostFullBufferS\000"
 12826      6F737446 
 12826      756C6C42 
 12826      75666665 
 12826      725300
ARM GAS  /tmp/cc9meDp5.s 			page 229


 12827              	.LASF31:
 12828 03fa 73757370 		.ascii	"suspended\000"
 12828      656E6465 
 12828      6400
 12829              	.LASF84:
 12830 0404 62617365 		.ascii	"basePri\000"
 12830      50726900 
 12831              	.LASF14:
 12832 040c 63686172 		.ascii	"char\000"
 12832      00
 12833              	.LASF68:
 12834 0411 69627150 		.ascii	"ibqPostFullBufferI\000"
 12834      6F737446 
 12834      756C6C42 
 12834      75666665 
 12834      724900
 12835              	.LASF16:
 12836 0424 696E7433 		.ascii	"int32_t\000"
 12836      325F7400 
 12837              	.LASF25:
 12838 042c 71756575 		.ascii	"queue\000"
 12838      6500
 12839              	.LASF33:
 12840 0432 62777270 		.ascii	"bwrptr\000"
 12840      747200
 12841              	.LASF27:
 12842 0439 5F426F6F 		.ascii	"_Bool\000"
 12842      6C00
 12843              	.LASF81:
 12844 043f 706F7274 		.ascii	"port_unlock\000"
 12844      5F756E6C 
 12844      6F636B00 
 12845              	.LASF19:
 12846 044b 73797369 		.ascii	"sysinterval_t\000"
 12846      6E746572 
 12846      76616C5F 
 12846      7400
 12847              	.LASF43:
 12848 0459 6F627170 		.ascii	"obqp\000"
 12848      00
 12849              	.LASF78:
 12850 045e 63685468 		.ascii	"chThdQueueObjectInit\000"
 12850      64517565 
 12850      75654F62 
 12850      6A656374 
 12850      496E6974 
 12851              	.LASF61:
 12852 0473 69627147 		.ascii	"ibqGetTimeout\000"
 12852      65745469 
 12852      6D656F75 
 12852      7400
 12853              	.LASF35:
 12854 0481 62746F70 		.ascii	"btop\000"
 12854      00
 12855              	.LASF8:
 12856 0486 73686F72 		.ascii	"short unsigned int\000"
 12856      7420756E 
ARM GAS  /tmp/cc9meDp5.s 			page 230


 12856      7369676E 
 12856      65642069 
 12856      6E7400
 12857              	.LASF69:
 12858 0499 69627147 		.ascii	"ibqGetEmptyBufferI\000"
 12858      6574456D 
 12858      70747942 
 12858      75666665 
 12858      724900
 12859              	.LASF63:
 12860 04ac 69627152 		.ascii	"ibqReleaseEmptyBufferS\000"
 12860      656C6561 
 12860      7365456D 
 12860      70747942 
 12860      75666665 
 12861              	.LASF71:
 12862 04c3 6962714F 		.ascii	"ibqObjectInit\000"
 12862      626A6563 
 12862      74496E69 
 12862      7400
 12863              	.LASF37:
 12864 04d1 62756666 		.ascii	"buffers\000"
 12864      65727300 
 12865              	.LASF11:
 12866 04d9 5F5F7569 		.ascii	"__uint32_t\000"
 12866      6E743332 
 12866      5F7400
 12867              	.LASF44:
 12868 04e4 73697A65 		.ascii	"size\000"
 12868      00
 12869              	.LASF79:
 12870 04e9 63685379 		.ascii	"chSysUnlock\000"
 12870      73556E6C 
 12870      6F636B00 
 12871              	.LASF85:
 12872 04f5 63685F71 		.ascii	"ch_queue_init\000"
 12872      75657565 
 12872      5F696E69 
 12872      7400
 12873              	.LASF55:
 12874 0503 6F627152 		.ascii	"obqResetI\000"
 12874      65736574 
 12874      4900
 12875              	.LASF9:
 12876 050d 5F5F696E 		.ascii	"__int32_t\000"
 12876      7433325F 
 12876      7400
 12877              	.LASF50:
 12878 0517 6F627146 		.ascii	"obqFlush\000"
 12878      6C757368 
 12878      00
 12879              	.LASF53:
 12880 0520 6F627152 		.ascii	"obqReleaseEmptyBufferI\000"
 12880      656C6561 
 12880      7365456D 
 12880      70747942 
 12880      75666665 
ARM GAS  /tmp/cc9meDp5.s 			page 231


 12881              	.LASF72:
 12882 0537 696E6679 		.ascii	"infy\000"
 12882      00
 12883              	.LASF87:
 12884 053c 63685468 		.ascii	"chThdDequeueNextI\000"
 12884      64446571 
 12884      75657565 
 12884      4E657874 
 12884      4900
 12885              	.LASF41:
 12886 054e 696E7075 		.ascii	"input_buffers_queue_t\000"
 12886      745F6275 
 12886      66666572 
 12886      735F7175 
 12886      6575655F 
 12887              	.LASF38:
 12888 0564 6E6F7469 		.ascii	"notify\000"
 12888      667900
 12889              	.LASF83:
 12890 056b 5F5F7365 		.ascii	"__set_BASEPRI\000"
 12890      745F4241 
 12890      53455052 
 12890      4900
 12891              	.LASF59:
 12892 0579 69627152 		.ascii	"ibqReadTimeout\000"
 12892      65616454 
 12892      696D656F 
 12892      757400
 12893              	.LASF30:
 12894 0588 77616974 		.ascii	"waiting\000"
 12894      696E6700 
 12895              	.LASF22:
 12896 0590 70726576 		.ascii	"prev\000"
 12896      00
 12897              	.LASF34:
 12898 0595 62726470 		.ascii	"brdptr\000"
 12898      747200
 12899              	.LASF18:
 12900 059c 6D73675F 		.ascii	"msg_t\000"
 12900      7400
 12901              	.LASF47:
 12902 05a2 74696D65 		.ascii	"timeout\000"
 12902      6F757400 
 12903              	.LASF28:
 12904 05aa 696F5F62 		.ascii	"io_buffers_queue_t\000"
 12904      75666665 
 12904      72735F71 
 12904      75657565 
 12904      5F7400
 12905              	.LASF51:
 12906 05bd 6F627150 		.ascii	"obqPostFullBuffer\000"
 12906      6F737446 
 12906      756C6C42 
 12906      75666665 
 12906      7200
 12907              		.ident	"GCC: (GNU Arm Embedded Toolchain 10.3-2021.07) 10.3.1 20210621 (release)"
ARM GAS  /tmp/cc9meDp5.s 			page 232


DEFINED SYMBOLS
                            *ABS*:0000000000000000 hal_buffers.c
     /tmp/cc9meDp5.s:16     .text.ibqObjectInit:0000000000000000 $t
     /tmp/cc9meDp5.s:25     .text.ibqObjectInit:0000000000000000 ibqObjectInit
     /tmp/cc9meDp5.s:130    .text.ibqResetI:0000000000000000 $t
     /tmp/cc9meDp5.s:138    .text.ibqResetI:0000000000000000 ibqResetI
     /tmp/cc9meDp5.s:177    .text.ibqGetEmptyBufferI:0000000000000000 $t
     /tmp/cc9meDp5.s:185    .text.ibqGetEmptyBufferI:0000000000000000 ibqGetEmptyBufferI
     /tmp/cc9meDp5.s:221    .text.ibqPostFullBufferI:0000000000000000 $t
     /tmp/cc9meDp5.s:229    .text.ibqPostFullBufferI:0000000000000000 ibqPostFullBufferI
     /tmp/cc9meDp5.s:303    .text.ibqGetFullBufferTimeout:0000000000000000 $t
     /tmp/cc9meDp5.s:311    .text.ibqGetFullBufferTimeout:0000000000000000 ibqGetFullBufferTimeout
     /tmp/cc9meDp5.s:593    .text.ibqGetFullBufferTimeoutS:0000000000000000 $t
     /tmp/cc9meDp5.s:601    .text.ibqGetFullBufferTimeoutS:0000000000000000 ibqGetFullBufferTimeoutS
     /tmp/cc9meDp5.s:714    .text.ibqReleaseEmptyBuffer:0000000000000000 $t
     /tmp/cc9meDp5.s:722    .text.ibqReleaseEmptyBuffer:0000000000000000 ibqReleaseEmptyBuffer
     /tmp/cc9meDp5.s:895    .text.ibqReleaseEmptyBufferS:0000000000000000 $t
     /tmp/cc9meDp5.s:903    .text.ibqReleaseEmptyBufferS:0000000000000000 ibqReleaseEmptyBufferS
     /tmp/cc9meDp5.s:958    .text.ibqGetTimeout:0000000000000000 $t
     /tmp/cc9meDp5.s:966    .text.ibqGetTimeout:0000000000000000 ibqGetTimeout
     /tmp/cc9meDp5.s:1358   .text.ibqReadTimeout:0000000000000000 $t
     /tmp/cc9meDp5.s:1366   .text.ibqReadTimeout:0000000000000000 ibqReadTimeout
     /tmp/cc9meDp5.s:1892   .text.obqObjectInit:0000000000000000 $t
     /tmp/cc9meDp5.s:1900   .text.obqObjectInit:0000000000000000 obqObjectInit
     /tmp/cc9meDp5.s:2000   .text.obqResetI:0000000000000000 $t
     /tmp/cc9meDp5.s:2008   .text.obqResetI:0000000000000000 obqResetI
     /tmp/cc9meDp5.s:2047   .text.obqGetFullBufferI:0000000000000000 $t
     /tmp/cc9meDp5.s:2055   .text.obqGetFullBufferI:0000000000000000 obqGetFullBufferI
     /tmp/cc9meDp5.s:2098   .text.obqReleaseEmptyBufferI:0000000000000000 $t
     /tmp/cc9meDp5.s:2106   .text.obqReleaseEmptyBufferI:0000000000000000 obqReleaseEmptyBufferI
     /tmp/cc9meDp5.s:2161   .text.obqGetEmptyBufferTimeout:0000000000000000 $t
     /tmp/cc9meDp5.s:2169   .text.obqGetEmptyBufferTimeout:0000000000000000 obqGetEmptyBufferTimeout
     /tmp/cc9meDp5.s:2449   .text.obqGetEmptyBufferTimeoutS:0000000000000000 $t
     /tmp/cc9meDp5.s:2457   .text.obqGetEmptyBufferTimeoutS:0000000000000000 obqGetEmptyBufferTimeoutS
     /tmp/cc9meDp5.s:2571   .text.obqPostFullBuffer:0000000000000000 $t
     /tmp/cc9meDp5.s:2579   .text.obqPostFullBuffer:0000000000000000 obqPostFullBuffer
     /tmp/cc9meDp5.s:2763   .text.obqPostFullBufferS:0000000000000000 $t
     /tmp/cc9meDp5.s:2771   .text.obqPostFullBufferS:0000000000000000 obqPostFullBufferS
     /tmp/cc9meDp5.s:2851   .text.obqPutTimeout:0000000000000000 $t
     /tmp/cc9meDp5.s:2859   .text.obqPutTimeout:0000000000000000 obqPutTimeout
     /tmp/cc9meDp5.s:3238   .text.obqWriteTimeout:0000000000000000 $t
     /tmp/cc9meDp5.s:3246   .text.obqWriteTimeout:0000000000000000 obqWriteTimeout
     /tmp/cc9meDp5.s:3795   .text.obqTryFlushI:0000000000000000 $t
     /tmp/cc9meDp5.s:3803   .text.obqTryFlushI:0000000000000000 obqTryFlushI
     /tmp/cc9meDp5.s:3893   .text.obqFlush:0000000000000000 $t
     /tmp/cc9meDp5.s:3901   .text.obqFlush:0000000000000000 obqFlush

UNDEFINED SYMBOLS
chThdDequeueAllI
chThdDequeueNextI
chThdEnqueueTimeoutS
memcpy
