ARM GAS  /tmp/ccaLFArB.s 			page 1


   1              		.cpu cortex-m4
   2              		.eabi_attribute 20, 1
   3              		.eabi_attribute 21, 1
   4              		.eabi_attribute 23, 3
   5              		.eabi_attribute 24, 1
   6              		.eabi_attribute 25, 1
   7              		.eabi_attribute 26, 1
   8              		.eabi_attribute 30, 2
   9              		.eabi_attribute 34, 1
  10              		.eabi_attribute 18, 4
  11              		.file	"hal_dac_lld.c"
  12              		.text
  13              	.Ltext0:
  14              		.cfi_sections	.debug_frame
  15              		.section	.text.dac_lld_init,"ax",%progbits
  16              		.align	1
  17              		.p2align 4,,15
  18              		.global	dac_lld_init
  19              		.arch armv7e-m
  20              		.syntax unified
  21              		.thumb
  22              		.thumb_func
  23              		.fpu softvfp
  24              		.type	dac_lld_init, %function
  25              	dac_lld_init:
  26              	.LFB401:
  27              		.file 1 "../ChibiOS/os/hal/ports/STM32/LLD/DACv1/hal_dac_lld.c"
  28              		.loc 1 314 25 view -0
  29              		.cfi_startproc
  30              		@ args = 0, pretend = 0, frame = 0
  31              		@ frame_needed = 0, uses_anonymous_args = 0
  32              		.loc 1 317 3 view .LVU1
  33              		.loc 1 314 25 is_stmt 0 view .LVU2
  34 0000 10B5     		push	{r4, lr}
  35              		.cfi_def_cfa_offset 8
  36              		.cfi_offset 4, -8
  37              		.cfi_offset 14, -4
  38              		.loc 1 317 3 view .LVU3
  39 0002 044C     		ldr	r4, .L4
  40 0004 2046     		mov	r0, r4
  41 0006 FFF7FEFF 		bl	dacObjectInit
  42              	.LVL0:
  43              		.loc 1 318 3 is_stmt 1 view .LVU4
  44              		.loc 1 318 17 is_stmt 0 view .LVU5
  45 000a 034A     		ldr	r2, .L4+4
  46              		.loc 1 319 13 view .LVU6
  47 000c 0023     		movs	r3, #0
  48 000e C4E90A23 		strd	r2, r3, [r4, #40]
  49              		.loc 1 363 1 view .LVU7
  50 0012 10BD     		pop	{r4, pc}
  51              	.L5:
  52              		.align	2
  53              	.L4:
  54 0014 00000000 		.word	.LANCHOR0
  55 0018 00000000 		.word	.LANCHOR1
  56              		.cfi_endproc
  57              	.LFE401:
ARM GAS  /tmp/ccaLFArB.s 			page 2


  58              		.size	dac_lld_init, .-dac_lld_init
  59              		.section	.text.dac_lld_start,"ax",%progbits
  60              		.align	1
  61              		.p2align 4,,15
  62              		.global	dac_lld_start
  63              		.syntax unified
  64              		.thumb
  65              		.thumb_func
  66              		.fpu softvfp
  67              		.type	dac_lld_start, %function
  68              	dac_lld_start:
  69              	.LVL1:
  70              	.LFB402:
  71              		.loc 1 372 37 is_stmt 1 view -0
  72              		.cfi_startproc
  73              		@ args = 0, pretend = 0, frame = 0
  74              		@ frame_needed = 0, uses_anonymous_args = 0
  75              		@ link register save eliminated.
  76              		.loc 1 376 3 view .LVU9
  77              		.loc 1 376 6 is_stmt 0 view .LVU10
  78 0000 0378     		ldrb	r3, [r0]	@ zero_extendqisi2
  79 0002 012B     		cmp	r3, #1
  80 0004 00D0     		beq	.L15
  81 0006 7047     		bx	lr
  82              	.L15:
  83              	.LBB56:
  84              		.loc 1 377 5 is_stmt 1 view .LVU11
  85              	.LVL2:
  86              		.loc 1 381 5 view .LVU12
  87              		.loc 1 381 8 is_stmt 0 view .LVU13
  88 0008 1B4B     		ldr	r3, .L18
  89 000a 9842     		cmp	r0, r3
  90              	.LBE56:
  91              		.loc 1 372 37 view .LVU14
  92 000c 10B4     		push	{r4}
  93              		.cfi_def_cfa_offset 4
  94              		.cfi_offset 4, -4
  95              	.LBB68:
  96              		.loc 1 381 8 view .LVU15
  97 000e 18D0     		beq	.L16
  98              	.L8:
  99              		.loc 1 382 26 is_stmt 1 discriminator 5 view .LVU16
 100              	.LBB57:
 101              		.loc 1 436 7 discriminator 5 view .LVU17
 102              		.loc 1 438 7 discriminator 5 view .LVU18
 103              		.loc 1 438 16 is_stmt 0 discriminator 5 view .LVU19
 104 0010 816A     		ldr	r1, [r0, #40]
 105              		.loc 1 440 31 discriminator 5 view .LVU20
 106 0012 0069     		ldr	r0, [r0, #16]
 107              	.LVL3:
 108              		.loc 1 438 24 discriminator 5 view .LVU21
 109 0014 0A68     		ldr	r2, [r1]
 110              		.loc 1 439 10 discriminator 5 view .LVU22
 111 0016 D1F80CC0 		ldr	ip, [r1, #12]
 112              		.loc 1 438 10 discriminator 5 view .LVU23
 113 001a 1468     		ldr	r4, [r2]
 114              	.LVL4:
ARM GAS  /tmp/ccaLFArB.s 			page 3


 115              		.loc 1 439 7 is_stmt 1 discriminator 5 view .LVU24
 116              		.loc 1 440 25 is_stmt 0 discriminator 5 view .LVU25
 117 001c 4368     		ldr	r3, [r0, #4]
 118              		.loc 1 439 10 discriminator 5 view .LVU26
 119 001e 04EA0C0C 		and	ip, r4, ip
 120              	.LVL5:
 121              		.loc 1 440 7 is_stmt 1 discriminator 5 view .LVU27
 122              		.loc 1 440 45 is_stmt 0 discriminator 5 view .LVU28
 123 0022 8C68     		ldr	r4, [r1, #8]
 124              		.loc 1 440 25 discriminator 5 view .LVU29
 125 0024 43F00103 		orr	r3, r3, #1
 126              		.loc 1 440 45 discriminator 5 view .LVU30
 127 0028 A340     		lsls	r3, r3, r4
 128              		.loc 1 440 10 discriminator 5 view .LVU31
 129 002a 43EA0C03 		orr	r3, r3, ip
 130              	.LVL6:
 131              		.loc 1 441 7 is_stmt 1 discriminator 5 view .LVU32
 132              		.loc 1 441 29 is_stmt 0 discriminator 5 view .LVU33
 133 002e 1360     		str	r3, [r2]
 134              		.loc 1 442 7 is_stmt 1 discriminator 5 view .LVU34
 135              	.LBB58:
 136              	.LBB59:
 137              		.loc 1 569 23 is_stmt 0 discriminator 5 view .LVU35
 138 0030 8378     		ldrb	r3, [r0, #2]	@ zero_extendqisi2
 139              	.LVL7:
 140              		.loc 1 569 23 discriminator 5 view .LVU36
 141              	.LBE59:
 142              	.LBE58:
 143              		.loc 1 442 7 discriminator 5 view .LVU37
 144 0032 0088     		ldrh	r0, [r0]
 145              	.LVL8:
 146              	.LBB63:
 147              	.LBI58:
 148              		.loc 1 565 6 is_stmt 1 discriminator 5 view .LVU38
 149              	.LBB60:
 150              		.loc 1 569 3 discriminator 5 view .LVU39
 151 0034 012B     		cmp	r3, #1
 152 0036 19D0     		beq	.L9
 153              		.loc 1 569 3 is_stmt 0 view .LVU40
 154 0038 022B     		cmp	r3, #2
 155 003a 12D0     		beq	.L10
 156 003c 63B1     		cbz	r3, .L17
 157              	.LVL9:
 158              	.L6:
 159              		.loc 1 569 3 view .LVU41
 160              	.LBE60:
 161              	.LBE63:
 162              	.LBE57:
 163              	.LBE68:
 164              		.loc 1 457 1 view .LVU42
 165 003e 10BC     		pop	{r4}
 166              		.cfi_remember_state
 167              		.cfi_restore 4
 168              		.cfi_def_cfa_offset 0
 169 0040 7047     		bx	lr
 170              	.LVL10:
 171              	.L16:
ARM GAS  /tmp/ccaLFArB.s 			page 4


 172              		.cfi_restore_state
 173              	.LBB69:
 174              		.loc 1 382 7 is_stmt 1 view .LVU43
 175 0042 0E4B     		ldr	r3, .L18+4
 176 0044 9A6D     		ldr	r2, [r3, #88]
 177 0046 42F00052 		orr	r2, r2, #536870912
 178 004a 9A65     		str	r2, [r3, #88]
 179              		.loc 1 382 7 view .LVU44
 180              		.loc 1 382 7 view .LVU45
 181 004c 9A6F     		ldr	r2, [r3, #120]
 182 004e 42F00052 		orr	r2, r2, #536870912
 183 0052 9A67     		str	r2, [r3, #120]
 184              		.loc 1 382 7 view .LVU46
 185 0054 9B6F     		ldr	r3, [r3, #120]
 186 0056 DBE7     		b	.L8
 187              	.LVL11:
 188              	.L17:
 189              	.LBB66:
 190              	.LBB64:
 191              	.LBB61:
 192              		.loc 1 574 5 view .LVU47
 193              		.loc 1 578 7 view .LVU48
 194              		.loc 1 578 37 is_stmt 0 view .LVU49
 195 0058 4B68     		ldr	r3, [r1, #4]
 196              		.loc 1 578 9 view .LVU50
 197 005a 0832     		adds	r2, r2, #8
 198              	.LVL12:
 199              		.loc 1 578 65 view .LVU51
 200 005c 42F82300 		str	r0, [r2, r3, lsl #2]
 201              	.LVL13:
 202              		.loc 1 578 65 view .LVU52
 203 0060 EDE7     		b	.L6
 204              	.LVL14:
 205              	.L10:
 206              		.loc 1 610 5 is_stmt 1 view .LVU53
 207              		.loc 1 614 7 view .LVU54
 208              		.loc 1 614 36 is_stmt 0 view .LVU55
 209 0062 4B68     		ldr	r3, [r1, #4]
 210              		.loc 1 614 9 view .LVU56
 211 0064 1032     		adds	r2, r2, #16
 212              	.LVL15:
 213              		.loc 1 614 64 view .LVU57
 214 0066 42F82300 		str	r0, [r2, r3, lsl #2]
 215              	.LVL16:
 216              		.loc 1 614 64 view .LVU58
 217              	.LBE61:
 218              	.LBE64:
 219              	.LBE66:
 220              	.LBE69:
 221              		.loc 1 457 1 view .LVU59
 222 006a E8E7     		b	.L6
 223              	.LVL17:
 224              	.L9:
 225              	.LBB70:
 226              	.LBB67:
 227              	.LBB65:
 228              	.LBB62:
ARM GAS  /tmp/ccaLFArB.s 			page 5


 229              		.loc 1 592 5 is_stmt 1 view .LVU60
 230              		.loc 1 596 7 view .LVU61
 231              		.loc 1 596 37 is_stmt 0 view .LVU62
 232 006c 4B68     		ldr	r3, [r1, #4]
 233              		.loc 1 596 9 view .LVU63
 234 006e 0C32     		adds	r2, r2, #12
 235              	.LVL18:
 236              		.loc 1 596 65 view .LVU64
 237 0070 42F82300 		str	r0, [r2, r3, lsl #2]
 238              	.LVL19:
 239              		.loc 1 596 65 view .LVU65
 240 0074 E3E7     		b	.L6
 241              	.L19:
 242 0076 00BF     		.align	2
 243              	.L18:
 244 0078 00000000 		.word	.LANCHOR0
 245 007c 00100240 		.word	1073876992
 246              	.LBE62:
 247              	.LBE65:
 248              	.LBE67:
 249              	.LBE70:
 250              		.cfi_endproc
 251              	.LFE402:
 252              		.size	dac_lld_start, .-dac_lld_start
 253              		.section	.text.dac_lld_stop,"ax",%progbits
 254              		.align	1
 255              		.p2align 4,,15
 256              		.global	dac_lld_stop
 257              		.syntax unified
 258              		.thumb
 259              		.thumb_func
 260              		.fpu softvfp
 261              		.type	dac_lld_stop, %function
 262              	dac_lld_stop:
 263              	.LVL20:
 264              	.LFB403:
 265              		.loc 1 466 36 is_stmt 1 view -0
 266              		.cfi_startproc
 267              		@ args = 0, pretend = 0, frame = 0
 268              		@ frame_needed = 0, uses_anonymous_args = 0
 269              		@ link register save eliminated.
 270              		.loc 1 469 3 view .LVU67
 271              		.loc 1 469 6 is_stmt 0 view .LVU68
 272 0000 0378     		ldrb	r3, [r0]	@ zero_extendqisi2
 273 0002 022B     		cmp	r3, #2
 274 0004 00D0     		beq	.L24
 275              	.L20:
 276              		.loc 1 554 1 view .LVU69
 277 0006 7047     		bx	lr
 278              	.L24:
 279              		.loc 1 472 5 is_stmt 1 view .LVU70
 280              		.loc 1 472 9 is_stmt 0 view .LVU71
 281 0008 836A     		ldr	r3, [r0, #40]
 282              		.loc 1 472 17 view .LVU72
 283 000a 1A68     		ldr	r2, [r3]
 284              		.loc 1 472 27 view .LVU73
 285 000c D968     		ldr	r1, [r3, #12]
ARM GAS  /tmp/ccaLFArB.s 			page 6


 286 000e 1368     		ldr	r3, [r2]
 287 0010 0B40     		ands	r3, r3, r1
 288              		.loc 1 475 8 view .LVU74
 289 0012 0949     		ldr	r1, .L25
 290              		.loc 1 472 27 view .LVU75
 291 0014 1360     		str	r3, [r2]
 292              		.loc 1 475 5 is_stmt 1 view .LVU76
 293              		.loc 1 475 8 is_stmt 0 view .LVU77
 294 0016 8842     		cmp	r0, r1
 295 0018 F5D1     		bne	.L20
 296              		.loc 1 477 7 is_stmt 1 view .LVU78
 297              		.loc 1 477 29 is_stmt 0 view .LVU79
 298 001a 1368     		ldr	r3, [r2]
 299              		.loc 1 477 10 view .LVU80
 300 001c DB03     		lsls	r3, r3, #15
 301 001e F2D4     		bmi	.L20
 302              		.loc 1 478 9 is_stmt 1 view .LVU81
 303 0020 064B     		ldr	r3, .L25+4
 304 0022 9A6D     		ldr	r2, [r3, #88]
 305 0024 22F00052 		bic	r2, r2, #536870912
 306 0028 9A65     		str	r2, [r3, #88]
 307              		.loc 1 478 9 view .LVU82
 308 002a 9A6F     		ldr	r2, [r3, #120]
 309 002c 22F00052 		bic	r2, r2, #536870912
 310 0030 9A67     		str	r2, [r3, #120]
 311              		.loc 1 478 9 view .LVU83
 312 0032 9B6F     		ldr	r3, [r3, #120]
 313              		.loc 1 478 25 view .LVU84
 314              		.loc 1 554 1 is_stmt 0 view .LVU85
 315 0034 E7E7     		b	.L20
 316              	.L26:
 317 0036 00BF     		.align	2
 318              	.L25:
 319 0038 00000000 		.word	.LANCHOR0
 320 003c 00100240 		.word	1073876992
 321              		.cfi_endproc
 322              	.LFE403:
 323              		.size	dac_lld_stop, .-dac_lld_stop
 324              		.section	.text.dac_lld_put_channel,"ax",%progbits
 325              		.align	1
 326              		.p2align 4,,15
 327              		.global	dac_lld_put_channel
 328              		.syntax unified
 329              		.thumb
 330              		.thumb_func
 331              		.fpu softvfp
 332              		.type	dac_lld_put_channel, %function
 333              	dac_lld_put_channel:
 334              	.LVL21:
 335              	.LFB404:
 336              		.loc 1 567 46 is_stmt 1 view -0
 337              		.cfi_startproc
 338              		@ args = 0, pretend = 0, frame = 0
 339              		@ frame_needed = 0, uses_anonymous_args = 0
 340              		@ link register save eliminated.
 341              		.loc 1 569 3 view .LVU87
 342              		.loc 1 569 23 is_stmt 0 view .LVU88
ARM GAS  /tmp/ccaLFArB.s 			page 7


 343 0000 0369     		ldr	r3, [r0, #16]
 344 0002 9B78     		ldrb	r3, [r3, #2]	@ zero_extendqisi2
 345              		.loc 1 569 3 view .LVU89
 346 0004 012B     		cmp	r3, #1
 347 0006 03D0     		beq	.L28
 348 0008 022B     		cmp	r3, #2
 349 000a 11D0     		beq	.L29
 350 000c 43B1     		cbz	r3, .L34
 351              		.loc 1 628 1 view .LVU90
 352 000e 7047     		bx	lr
 353              	.L28:
 354              		.loc 1 592 5 is_stmt 1 view .LVU91
 355              		.loc 1 592 8 is_stmt 0 view .LVU92
 356 0010 F1B9     		cbnz	r1, .L32
 357              		.loc 1 596 7 is_stmt 1 view .LVU93
 358              		.loc 1 596 14 is_stmt 0 view .LVU94
 359 0012 816A     		ldr	r1, [r0, #40]
 360              	.LVL22:
 361              		.loc 1 596 37 view .LVU95
 362 0014 D1E90031 		ldrd	r3, r1, [r1]
 363              		.loc 1 596 9 view .LVU96
 364 0018 0C33     		adds	r3, r3, #12
 365              		.loc 1 596 65 view .LVU97
 366 001a 43F82120 		str	r2, [r3, r1, lsl #2]
 367 001e 7047     		bx	lr
 368              	.LVL23:
 369              	.L34:
 370              		.loc 1 574 5 is_stmt 1 view .LVU98
 371              		.loc 1 574 8 is_stmt 0 view .LVU99
 372 0020 91B9     		cbnz	r1, .L31
 373              		.loc 1 578 7 is_stmt 1 view .LVU100
 374              		.loc 1 578 14 is_stmt 0 view .LVU101
 375 0022 816A     		ldr	r1, [r0, #40]
 376              	.LVL24:
 377              		.loc 1 578 37 view .LVU102
 378 0024 D1E90031 		ldrd	r3, r1, [r1]
 379              		.loc 1 578 9 view .LVU103
 380 0028 0833     		adds	r3, r3, #8
 381              		.loc 1 578 65 view .LVU104
 382 002a 43F82120 		str	r2, [r3, r1, lsl #2]
 383 002e 7047     		bx	lr
 384              	.LVL25:
 385              	.L29:
 386              		.loc 1 610 5 is_stmt 1 view .LVU105
 387              		.loc 1 610 8 is_stmt 0 view .LVU106
 388 0030 31B9     		cbnz	r1, .L33
 389              		.loc 1 614 7 is_stmt 1 view .LVU107
 390              		.loc 1 614 14 is_stmt 0 view .LVU108
 391 0032 816A     		ldr	r1, [r0, #40]
 392              	.LVL26:
 393              		.loc 1 614 36 view .LVU109
 394 0034 D1E90031 		ldrd	r3, r1, [r1]
 395              		.loc 1 614 9 view .LVU110
 396 0038 1033     		adds	r3, r3, #16
 397              		.loc 1 614 64 view .LVU111
 398 003a 43F82120 		str	r2, [r3, r1, lsl #2]
 399 003e 7047     		bx	lr
ARM GAS  /tmp/ccaLFArB.s 			page 8


 400              	.LVL27:
 401              	.L33:
 402              		.loc 1 620 7 is_stmt 1 view .LVU112
 403              		.loc 1 620 19 is_stmt 0 view .LVU113
 404 0040 836A     		ldr	r3, [r0, #40]
 405 0042 1B68     		ldr	r3, [r3]
 406              		.loc 1 620 33 view .LVU114
 407 0044 DA61     		str	r2, [r3, #28]
 408              		.loc 1 628 1 view .LVU115
 409 0046 7047     		bx	lr
 410              	.L31:
 411              		.loc 1 584 7 is_stmt 1 view .LVU116
 412              		.loc 1 584 19 is_stmt 0 view .LVU117
 413 0048 836A     		ldr	r3, [r0, #40]
 414 004a 1B68     		ldr	r3, [r3]
 415              		.loc 1 584 34 view .LVU118
 416 004c 5A61     		str	r2, [r3, #20]
 417 004e 7047     		bx	lr
 418              	.L32:
 419              		.loc 1 602 7 is_stmt 1 view .LVU119
 420              		.loc 1 602 19 is_stmt 0 view .LVU120
 421 0050 836A     		ldr	r3, [r0, #40]
 422 0052 1B68     		ldr	r3, [r3]
 423              		.loc 1 602 34 view .LVU121
 424 0054 9A61     		str	r2, [r3, #24]
 425 0056 7047     		bx	lr
 426              		.cfi_endproc
 427              	.LFE404:
 428              		.size	dac_lld_put_channel, .-dac_lld_put_channel
 429              		.section	.text.dac_lld_start_conversion,"ax",%progbits
 430              		.align	1
 431              		.p2align 4,,15
 432              		.global	dac_lld_start_conversion
 433              		.syntax unified
 434              		.thumb
 435              		.thumb_func
 436              		.fpu softvfp
 437              		.type	dac_lld_start_conversion, %function
 438              	dac_lld_start_conversion:
 439              	.LVL28:
 440              	.LFB405:
 441              		.loc 1 646 48 is_stmt 1 view -0
 442              		.cfi_startproc
 443              		@ args = 0, pretend = 0, frame = 0
 444              		@ frame_needed = 0, uses_anonymous_args = 0
 445              		.loc 1 647 3 view .LVU123
 446              		.loc 1 650 3 view .LVU124
 447              		.loc 1 646 48 is_stmt 0 view .LVU125
 448 0000 F8B5     		push	{r3, r4, r5, r6, r7, lr}
 449              		.cfi_def_cfa_offset 24
 450              		.cfi_offset 3, -24
 451              		.cfi_offset 4, -20
 452              		.cfi_offset 5, -16
 453              		.cfi_offset 6, -12
 454              		.cfi_offset 7, -8
 455              		.cfi_offset 14, -4
 456              		.loc 1 646 48 view .LVU126
ARM GAS  /tmp/ccaLFArB.s 			page 9


 457 0002 0446     		mov	r4, r0
 458              		.loc 1 650 31 view .LVU127
 459 0004 4368     		ldr	r3, [r0, #4]
 460              		.loc 1 653 35 view .LVU128
 461 0006 806A     		ldr	r0, [r0, #40]
 462              	.LVL29:
 463              		.loc 1 650 5 view .LVU129
 464 0008 1D68     		ldr	r5, [r3]
 465 000a E368     		ldr	r3, [r4, #12]
 466              		.loc 1 653 15 view .LVU130
 467 000c 8169     		ldr	r1, [r0, #24]
 468 000e 314A     		ldr	r2, .L42
 469 0010 0069     		ldr	r0, [r0, #16]
 470              		.loc 1 650 5 view .LVU131
 471 0012 03FB05F5 		mul	r5, r3, r5
 472              	.LVL30:
 473              		.loc 1 653 3 is_stmt 1 view .LVU132
 474              		.loc 1 653 15 is_stmt 0 view .LVU133
 475 0016 2346     		mov	r3, r4
 476 0018 FFF7FEFF 		bl	dmaStreamAllocI
 477              	.LVL31:
 478              		.loc 1 663 15 view .LVU134
 479 001c 2769     		ldr	r7, [r4, #16]
 480              		.loc 1 653 13 view .LVU135
 481 001e E062     		str	r0, [r4, #44]
 482              		.loc 1 657 3 is_stmt 1 view .LVU136
 483              		.loc 1 657 3 view .LVU137
 484              		.loc 1 657 3 view .LVU138
 485              		.loc 1 663 3 view .LVU139
 486              		.loc 1 663 23 is_stmt 0 view .LVU140
 487 0020 BB78     		ldrb	r3, [r7, #2]	@ zero_extendqisi2
 488              		.loc 1 663 3 view .LVU141
 489 0022 012B     		cmp	r3, #1
 490 0024 48D0     		beq	.L36
 491 0026 022B     		cmp	r3, #2
 492 0028 38D0     		beq	.L37
 493 002a 03B1     		cbz	r3, .L41
 494              		.loc 1 743 1 view .LVU142
 495 002c F8BD     		pop	{r3, r4, r5, r6, r7, pc}
 496              	.LVL32:
 497              	.L41:
 498              		.loc 1 666 5 is_stmt 1 discriminator 5 view .LVU143
 499              		.loc 1 666 5 discriminator 5 view .LVU144
 500              		.loc 1 666 5 discriminator 5 view .LVU145
 501              		.loc 1 668 5 discriminator 5 view .LVU146
 502 002e A66A     		ldr	r6, [r4, #40]
 503 0030 4268     		ldr	r2, [r0, #4]
 504              		.loc 1 670 13 is_stmt 0 discriminator 5 view .LVU147
 505 0032 7369     		ldr	r3, [r6, #20]
 506              		.loc 1 668 5 discriminator 5 view .LVU148
 507 0034 3168     		ldr	r1, [r6]
 508 0036 D6F804E0 		ldr	lr, [r6, #4]
 509              		.loc 1 670 13 discriminator 5 view .LVU149
 510 003a 43F4A06C 		orr	ip, r3, #1280
 511              		.loc 1 668 5 discriminator 5 view .LVU150
 512 003e 01F10803 		add	r3, r1, #8
 513 0042 03EB8E03 		add	r3, r3, lr, lsl #2
ARM GAS  /tmp/ccaLFArB.s 			page 10


 514 0046 9360     		str	r3, [r2, #8]
 515              		.loc 1 669 64 is_stmt 1 discriminator 5 view .LVU151
 516              		.loc 1 670 5 discriminator 5 view .LVU152
 517              	.LVL33:
 518              		.loc 1 672 5 discriminator 5 view .LVU153
 519              	.L39:
 520              		.loc 1 724 3 view .LVU154
 521 0048 A368     		ldr	r3, [r4, #8]
 522 004a D360     		str	r3, [r2, #12]
 523              		.loc 1 724 48 view .LVU155
 524              		.loc 1 725 3 view .LVU156
 525 004c 5560     		str	r5, [r2, #4]
 526              		.loc 1 725 44 view .LVU157
 527              	.LBB71:
 528              		.loc 1 726 3 view .LVU158
 529 004e C568     		ldr	r5, [r0, #12]
 530              	.LVL34:
 531              		.loc 1 726 3 is_stmt 0 view .LVU159
 532 0050 90F810E0 		ldrb	lr, [r0, #16]	@ zero_extendqisi2
 533 0054 2868     		ldr	r0, [r5]
 534              	.LVL35:
 535              		.loc 1 726 3 is_stmt 1 view .LVU160
 536              	.LBE71:
 537              		.loc 1 736 37 is_stmt 0 view .LVU161
 538 0056 6468     		ldr	r4, [r4, #4]
 539              	.LVL36:
 540              	.LBB72:
 541              		.loc 1 726 3 view .LVU162
 542 0058 0F23     		movs	r3, #15
 543 005a 03FA0EF3 		lsl	r3, r3, lr
 544 005e 20EA0300 		bic	r0, r0, r3
 545              	.LVL37:
 546              		.loc 1 726 3 is_stmt 1 view .LVU163
 547 0062 4FEA1C43 		lsr	r3, ip, #16
 548 0066 03FA0EF3 		lsl	r3, r3, lr
 549 006a 0343     		orrs	r3, r3, r0
 550              	.LVL38:
 551              		.loc 1 726 3 view .LVU164
 552 006c 2B60     		str	r3, [r5]
 553              	.LVL39:
 554              		.loc 1 726 3 view .LVU165
 555 006e 4CF00E03 		orr	r3, ip, #14
 556              	.LVL40:
 557              		.loc 1 726 3 is_stmt 0 view .LVU166
 558 0072 1360     		str	r3, [r2]
 559              	.LVL41:
 560              		.loc 1 726 3 view .LVU167
 561              	.LBE72:
 562              		.loc 1 728 70 is_stmt 1 view .LVU168
 563              		.loc 1 729 3 view .LVU169
 564              		.loc 1 736 47 is_stmt 0 view .LVU170
 565 0074 E068     		ldr	r0, [r4, #12]
 566              	.LVL42:
 567              		.loc 1 736 95 view .LVU171
 568 0076 7B68     		ldr	r3, [r7, #4]
 569 0078 43EAC003 		orr	r3, r3, r0, lsl #3
 570              		.loc 1 735 6 view .LVU172
ARM GAS  /tmp/ccaLFArB.s 			page 11


 571 007c D6E90204 		ldrd	r0, r4, [r6, #8]
 572              		.loc 1 736 95 view .LVU173
 573 0080 43F48053 		orr	r3, r3, #4096
 574 0084 43F00503 		orr	r3, r3, #5
 575              		.loc 1 736 115 view .LVU174
 576 0088 8340     		lsls	r3, r3, r0
 577              		.loc 1 729 3 view .LVU175
 578 008a 1068     		ldr	r0, [r2]
 579 008c 40F00100 		orr	r0, r0, #1
 580 0090 1060     		str	r0, [r2]
 581              		.loc 1 729 29 is_stmt 1 view .LVU176
 582              		.loc 1 732 3 view .LVU177
 583              		.loc 1 732 6 is_stmt 0 view .LVU178
 584 0092 0A68     		ldr	r2, [r1]
 585              	.LVL43:
 586              		.loc 1 735 3 is_stmt 1 view .LVU179
 587              		.loc 1 735 6 is_stmt 0 view .LVU180
 588 0094 2240     		ands	r2, r2, r4
 589              	.LVL44:
 590              		.loc 1 736 3 is_stmt 1 view .LVU181
 591              		.loc 1 736 6 is_stmt 0 view .LVU182
 592 0096 1343     		orrs	r3, r3, r2
 593              	.LVL45:
 594              		.loc 1 742 3 is_stmt 1 view .LVU183
 595              		.loc 1 742 25 is_stmt 0 view .LVU184
 596 0098 0B60     		str	r3, [r1]
 597              		.loc 1 743 1 view .LVU185
 598 009a F8BD     		pop	{r3, r4, r5, r6, r7, pc}
 599              	.LVL46:
 600              	.L37:
 601              		.loc 1 682 5 is_stmt 1 discriminator 5 view .LVU186
 602              		.loc 1 682 5 discriminator 5 view .LVU187
 603              		.loc 1 682 5 discriminator 5 view .LVU188
 604              		.loc 1 684 5 discriminator 5 view .LVU189
 605 009c A66A     		ldr	r6, [r4, #40]
 606 009e 4268     		ldr	r2, [r0, #4]
 607 00a0 D6E90013 		ldrd	r1, r3, [r6]
 608 00a4 01F1100C 		add	ip, r1, #16
 609 00a8 0CEB8303 		add	r3, ip, r3, lsl #2
 610              		.loc 1 691 12 is_stmt 0 discriminator 5 view .LVU190
 611 00ac 0135     		adds	r5, r5, #1
 612              	.LVL47:
 613              		.loc 1 686 13 discriminator 5 view .LVU191
 614 00ae D6F814C0 		ldr	ip, [r6, #20]
 615              		.loc 1 684 5 discriminator 5 view .LVU192
 616 00b2 9360     		str	r3, [r2, #8]
 617              		.loc 1 685 64 is_stmt 1 discriminator 5 view .LVU193
 618              		.loc 1 686 5 discriminator 5 view .LVU194
 619              	.LVL48:
 620              		.loc 1 691 5 discriminator 5 view .LVU195
 621              		.loc 1 691 7 is_stmt 0 discriminator 5 view .LVU196
 622 00b4 6D08     		lsrs	r5, r5, #1
 623              	.LVL49:
 624              		.loc 1 692 5 is_stmt 1 discriminator 5 view .LVU197
 625 00b6 C7E7     		b	.L39
 626              	.LVL50:
 627              	.L36:
ARM GAS  /tmp/ccaLFArB.s 			page 12


 628              		.loc 1 674 5 discriminator 5 view .LVU198
 629              		.loc 1 674 5 discriminator 5 view .LVU199
 630              		.loc 1 674 5 discriminator 5 view .LVU200
 631              		.loc 1 676 5 discriminator 5 view .LVU201
 632 00b8 A66A     		ldr	r6, [r4, #40]
 633 00ba 4268     		ldr	r2, [r0, #4]
 634              		.loc 1 678 13 is_stmt 0 discriminator 5 view .LVU202
 635 00bc 7369     		ldr	r3, [r6, #20]
 636              		.loc 1 676 5 discriminator 5 view .LVU203
 637 00be 3168     		ldr	r1, [r6]
 638 00c0 D6F804E0 		ldr	lr, [r6, #4]
 639              		.loc 1 678 13 discriminator 5 view .LVU204
 640 00c4 43F4A06C 		orr	ip, r3, #1280
 641              		.loc 1 676 5 discriminator 5 view .LVU205
 642 00c8 01F10C03 		add	r3, r1, #12
 643 00cc 03EB8E03 		add	r3, r3, lr, lsl #2
 644 00d0 9360     		str	r3, [r2, #8]
 645              		.loc 1 677 64 is_stmt 1 discriminator 5 view .LVU206
 646              		.loc 1 678 5 discriminator 5 view .LVU207
 647              	.LVL51:
 648              		.loc 1 680 5 discriminator 5 view .LVU208
 649 00d2 B9E7     		b	.L39
 650              	.L43:
 651              		.align	2
 652              	.L42:
 653 00d4 00000000 		.word	dac_lld_serve_tx_interrupt
 654              		.cfi_endproc
 655              	.LFE405:
 656              		.size	dac_lld_start_conversion, .-dac_lld_start_conversion
 657              		.section	.text.dac_lld_stop_conversion,"ax",%progbits
 658              		.align	1
 659              		.p2align 4,,15
 660              		.global	dac_lld_stop_conversion
 661              		.syntax unified
 662              		.thumb
 663              		.thumb_func
 664              		.fpu softvfp
 665              		.type	dac_lld_stop_conversion, %function
 666              	dac_lld_stop_conversion:
 667              	.LVL52:
 668              	.LFB406:
 669              		.loc 1 755 47 view -0
 670              		.cfi_startproc
 671              		@ args = 0, pretend = 0, frame = 0
 672              		@ frame_needed = 0, uses_anonymous_args = 0
 673              		.loc 1 756 3 view .LVU210
 674              		.loc 1 759 3 view .LVU211
 675              		.loc 1 755 47 is_stmt 0 view .LVU212
 676 0000 10B5     		push	{r4, lr}
 677              		.cfi_def_cfa_offset 8
 678              		.cfi_offset 4, -8
 679              		.cfi_offset 14, -4
 680              		.loc 1 755 47 view .LVU213
 681 0002 0446     		mov	r4, r0
 682              		.loc 1 759 3 view .LVU214
 683 0004 C06A     		ldr	r0, [r0, #44]
 684              	.LVL53:
ARM GAS  /tmp/ccaLFArB.s 			page 13


 685              		.loc 1 759 3 view .LVU215
 686 0006 D0E90012 		ldrd	r1, r2, [r0]
 687 000a 1368     		ldr	r3, [r2]
 688 000c 23F00F03 		bic	r3, r3, #15
 689 0010 1360     		str	r3, [r2]
 690              		.loc 1 759 3 is_stmt 1 view .LVU216
 691 0012 027C     		ldrb	r2, [r0, #16]	@ zero_extendqisi2
 692 0014 0E23     		movs	r3, #14
 693 0016 9340     		lsls	r3, r3, r2
 694 0018 4B60     		str	r3, [r1, #4]
 695              		.loc 1 759 3 view .LVU217
 696              		.loc 1 759 30 view .LVU218
 697              		.loc 1 760 3 view .LVU219
 698 001a FFF7FEFF 		bl	dmaStreamFreeI
 699              	.LVL54:
 700              		.loc 1 761 3 view .LVU220
 701              		.loc 1 763 12 is_stmt 0 view .LVU221
 702 001e A16A     		ldr	r1, [r4, #40]
 703              		.loc 1 761 13 view .LVU222
 704 0020 0023     		movs	r3, #0
 705              		.loc 1 763 20 view .LVU223
 706 0022 0868     		ldr	r0, [r1]
 707              		.loc 1 761 13 view .LVU224
 708 0024 E362     		str	r3, [r4, #44]
 709              		.loc 1 763 3 is_stmt 1 view .LVU225
 710              		.loc 1 767 35 is_stmt 0 view .LVU226
 711 0026 2369     		ldr	r3, [r4, #16]
 712              		.loc 1 763 6 view .LVU227
 713 0028 0268     		ldr	r2, [r0]
 714              	.LVL55:
 715              		.loc 1 766 3 is_stmt 1 view .LVU228
 716              		.loc 1 767 21 is_stmt 0 view .LVU229
 717 002a 5B68     		ldr	r3, [r3, #4]
 718              		.loc 1 767 41 view .LVU230
 719 002c D1E90214 		ldrd	r1, r4, [r1, #8]
 720              	.LVL56:
 721              		.loc 1 767 21 view .LVU231
 722 0030 43F00103 		orr	r3, r3, #1
 723              		.loc 1 766 6 view .LVU232
 724 0034 2240     		ands	r2, r2, r4
 725              	.LVL57:
 726              		.loc 1 767 3 is_stmt 1 view .LVU233
 727              		.loc 1 767 41 is_stmt 0 view .LVU234
 728 0036 8B40     		lsls	r3, r3, r1
 729              		.loc 1 767 6 view .LVU235
 730 0038 1343     		orrs	r3, r3, r2
 731              	.LVL58:
 732              		.loc 1 780 3 is_stmt 1 view .LVU236
 733              		.loc 1 780 25 is_stmt 0 view .LVU237
 734 003a 0360     		str	r3, [r0]
 735              		.loc 1 781 1 view .LVU238
 736 003c 10BD     		pop	{r4, pc}
 737              		.cfi_endproc
 738              	.LFE406:
 739              		.size	dac_lld_stop_conversion, .-dac_lld_stop_conversion
 740 003e 00BF     		.section	.text.dac_lld_serve_tx_interrupt,"ax",%progbits
 741              		.align	1
ARM GAS  /tmp/ccaLFArB.s 			page 14


 742              		.p2align 4,,15
 743              		.syntax unified
 744              		.thumb
 745              		.thumb_func
 746              		.fpu softvfp
 747              		.type	dac_lld_serve_tx_interrupt, %function
 748              	dac_lld_serve_tx_interrupt:
 749              	.LVL59:
 750              	.LFB400:
 751              		.loc 1 282 73 is_stmt 1 view -0
 752              		.cfi_startproc
 753              		@ args = 0, pretend = 0, frame = 0
 754              		@ frame_needed = 0, uses_anonymous_args = 0
 755              		.loc 1 284 3 view .LVU240
 756              		.loc 1 282 73 is_stmt 0 view .LVU241
 757 0000 38B5     		push	{r3, r4, r5, lr}
 758              		.cfi_def_cfa_offset 16
 759              		.cfi_offset 3, -16
 760              		.cfi_offset 4, -12
 761              		.cfi_offset 5, -8
 762              		.cfi_offset 14, -4
 763              		.loc 1 284 6 view .LVU242
 764 0002 0D07     		lsls	r5, r1, #28
 765              		.loc 1 282 73 view .LVU243
 766 0004 0446     		mov	r4, r0
 767              		.loc 1 284 6 view .LVU244
 768 0006 15D4     		bmi	.L67
 769              		.loc 1 290 5 is_stmt 1 view .LVU245
 770              		.loc 1 290 8 is_stmt 0 view .LVU246
 771 0008 4A07     		lsls	r2, r1, #29
 772 000a 0D46     		mov	r5, r1
 773 000c 03D5     		bpl	.L52
 774              		.loc 1 292 7 is_stmt 1 view .LVU247
 775 000e 4368     		ldr	r3, [r0, #4]
 776 0010 5B68     		ldr	r3, [r3, #4]
 777 0012 73B1     		cbz	r3, .L46
 778              		.loc 1 292 7 discriminator 1 view .LVU248
 779 0014 9847     		blx	r3
 780              	.LVL60:
 781              	.L52:
 782              		.loc 1 292 31 discriminator 3 view .LVU249
 783              		.loc 1 294 5 discriminator 3 view .LVU250
 784              		.loc 1 294 8 is_stmt 0 discriminator 3 view .LVU251
 785 0016 AB07     		lsls	r3, r5, #30
 786 0018 0BD5     		bpl	.L46
 787              		.loc 1 296 7 is_stmt 1 view .LVU252
 788 001a 6368     		ldr	r3, [r4, #4]
 789 001c 5B68     		ldr	r3, [r3, #4]
 790 001e 43B1     		cbz	r3, .L46
 791              		.loc 1 296 7 discriminator 1 view .LVU253
 792 0020 0422     		movs	r2, #4
 793 0022 2270     		strb	r2, [r4]
 794              		.loc 1 296 7 discriminator 1 view .LVU254
 795 0024 2046     		mov	r0, r4
 796 0026 9847     		blx	r3
 797              	.LVL61:
 798              		.loc 1 296 7 discriminator 1 view .LVU255
ARM GAS  /tmp/ccaLFArB.s 			page 15


 799 0028 2378     		ldrb	r3, [r4]	@ zero_extendqisi2
 800 002a 042B     		cmp	r3, #4
 801              		.loc 1 296 7 discriminator 1 view .LVU256
 802 002c 04BF     		itt	eq
 803 002e 0323     		moveq	r3, #3
 804 0030 2370     		strbeq	r3, [r4]
 805              		.loc 1 296 31 discriminator 1 view .LVU257
 806              	.L46:
 807              		.loc 1 299 1 is_stmt 0 view .LVU258
 808 0032 38BD     		pop	{r3, r4, r5, pc}
 809              	.LVL62:
 810              	.L67:
 811              		.loc 1 286 5 is_stmt 1 view .LVU259
 812 0034 FFF7FEFF 		bl	dac_lld_stop_conversion
 813              	.LVL63:
 814              		.loc 1 287 5 view .LVU260
 815 0038 2046     		mov	r0, r4
 816 003a FFF7FEFF 		bl	dac_lld_stop_conversion
 817              	.LVL64:
 818              		.loc 1 287 5 view .LVU261
 819 003e 6368     		ldr	r3, [r4, #4]
 820 0040 9B68     		ldr	r3, [r3, #8]
 821 0042 4BB1     		cbz	r3, .L49
 822              		.loc 1 287 5 discriminator 1 view .LVU262
 823 0044 0522     		movs	r2, #5
 824 0046 2270     		strb	r2, [r4]
 825              		.loc 1 287 5 discriminator 1 view .LVU263
 826 0048 0021     		movs	r1, #0
 827 004a 2046     		mov	r0, r4
 828 004c 9847     		blx	r3
 829              	.LVL65:
 830              		.loc 1 287 5 discriminator 1 view .LVU264
 831 004e 2378     		ldrb	r3, [r4]	@ zero_extendqisi2
 832 0050 052B     		cmp	r3, #5
 833              		.loc 1 287 5 discriminator 1 view .LVU265
 834 0052 04BF     		itt	eq
 835 0054 0223     		moveq	r3, #2
 836 0056 2370     		strbeq	r3, [r4]
 837              	.L49:
 838              		.loc 1 287 5 discriminator 5 view .LVU266
 839 0058 0025     		movs	r5, #0
 840 005a 6560     		str	r5, [r4, #4]
 841              		.loc 1 287 5 discriminator 5 view .LVU267
 842              	.LBB73:
 843              	.LBI73:
 844              		.file 2 "../ChibiOS/os/hal/osal/rt-nil/osal.h"
 845              		.loc 2 595 20 discriminator 5 view .LVU268
 846              	.LBE73:
 847              		.loc 2 597 3 discriminator 5 view .LVU269
 848              	.LBB85:
 849              	.LBB74:
 850              	.LBI74:
 851              		.file 3 "../ChibiOS/os/rt/include/chsys.h"
 852              		.loc 3 451 20 discriminator 5 view .LVU270
 853              	.LBE74:
 854              	.LBE85:
 855              		.loc 3 453 3 discriminator 5 view .LVU271
ARM GAS  /tmp/ccaLFArB.s 			page 16


 856              	.LBB86:
 857              	.LBB82:
 858              	.LBB75:
 859              	.LBI75:
 860              		.file 4 "../ChibiOS/os/common/ports/ARMv7-M/chcore.h"
 861              		.loc 4 845 27 discriminator 5 view .LVU272
 862              	.LBE75:
 863              	.LBE82:
 864              	.LBE86:
 865              		.loc 4 847 3 discriminator 5 view .LVU273
 866              	.LBB87:
 867              	.LBB83:
 868              	.LBB80:
 869              	.LBB76:
 870              	.LBI76:
 871              		.loc 4 806 27 discriminator 5 view .LVU274
 872              	.LBE76:
 873              	.LBE80:
 874              	.LBE83:
 875              	.LBE87:
 876              		.loc 4 814 3 discriminator 5 view .LVU275
 877              	.LVL66:
 878              	.LBB88:
 879              	.LBB84:
 880              	.LBB81:
 881              	.LBB79:
 882              	.LBB77:
 883              	.LBI77:
 884              		.file 5 "../ChibiOS/os/common/ext/ARM/CMSIS/Core/Include/cmsis_gcc.h"
 885              		.loc 5 491 27 discriminator 5 view .LVU276
 886              	.LBB78:
 887              		.loc 5 493 3 discriminator 5 view .LVU277
 888 005c 3023     		movs	r3, #48
 889              		.syntax unified
 890              	@ 493 "../ChibiOS/os/common/ext/ARM/CMSIS/Core/Include/cmsis_gcc.h" 1
 891 005e 83F31188 		MSR basepri, r3
 892              	@ 0 "" 2
 893              	.LVL67:
 894              		.loc 5 493 3 is_stmt 0 discriminator 5 view .LVU278
 895              		.thumb
 896              		.syntax unified
 897              	.LBE78:
 898              	.LBE77:
 899              	.LBE79:
 900              	.LBE81:
 901              	.LBE84:
 902              	.LBE88:
 903              		.loc 3 454 35 is_stmt 1 discriminator 5 view .LVU279
 904              		.loc 3 455 30 discriminator 5 view .LVU280
 905              		.loc 1 287 5 discriminator 5 view .LVU281
 906              	.LBB89:
 907              	.LBI89:
 908              		.loc 2 837 20 discriminator 5 view .LVU282
 909              	.LBB90:
 910              		.loc 2 839 3 discriminator 5 view .LVU283
 911 0062 4FF0FF31 		mov	r1, #-1
 912 0066 04F11400 		add	r0, r4, #20
ARM GAS  /tmp/ccaLFArB.s 			page 17


 913              	.LVL68:
 914              		.loc 2 839 3 is_stmt 0 discriminator 5 view .LVU284
 915 006a FFF7FEFF 		bl	chThdResumeI
 916              	.LVL69:
 917              		.loc 2 839 3 discriminator 5 view .LVU285
 918              	.LBE90:
 919              	.LBE89:
 920              		.loc 1 287 5 is_stmt 1 discriminator 5 view .LVU286
 921              	.LBB91:
 922              	.LBI91:
 923              		.loc 2 606 20 discriminator 5 view .LVU287
 924              	.LBB92:
 925              		.loc 2 608 3 discriminator 5 view .LVU288
 926              	.LBB93:
 927              	.LBI93:
 928              		.loc 3 473 20 discriminator 5 view .LVU289
 929              	.LBE93:
 930              	.LBE92:
 931              	.LBE91:
 932              		.loc 3 475 32 discriminator 5 view .LVU290
 933              		.loc 3 476 34 discriminator 5 view .LVU291
 934              		.loc 3 477 3 discriminator 5 view .LVU292
 935              	.LBB107:
 936              	.LBB104:
 937              	.LBB101:
 938              	.LBB94:
 939              	.LBI94:
 940              		.loc 4 856 27 discriminator 5 view .LVU293
 941              	.LBE94:
 942              	.LBE101:
 943              	.LBE104:
 944              	.LBE107:
 945              		.loc 4 858 3 discriminator 5 view .LVU294
 946              	.LBB108:
 947              	.LBB105:
 948              	.LBB102:
 949              	.LBB99:
 950              	.LBB95:
 951              	.LBI95:
 952              		.loc 4 830 27 discriminator 5 view .LVU295
 953              	.LBE95:
 954              	.LBE99:
 955              	.LBE102:
 956              	.LBE105:
 957              	.LBE108:
 958              		.loc 4 833 3 discriminator 5 view .LVU296
 959              	.LBB109:
 960              	.LBB106:
 961              	.LBB103:
 962              	.LBB100:
 963              	.LBB98:
 964              	.LBB96:
 965              	.LBI96:
 966              		.loc 5 491 27 discriminator 5 view .LVU297
 967              	.LBB97:
 968              		.loc 5 493 3 discriminator 5 view .LVU298
 969              		.syntax unified
ARM GAS  /tmp/ccaLFArB.s 			page 18


 970              	@ 493 "../ChibiOS/os/common/ext/ARM/CMSIS/Core/Include/cmsis_gcc.h" 1
 971 006e 85F31188 		MSR basepri, r5
 972              	@ 0 "" 2
 973              	.LVL70:
 974              		.loc 5 493 3 is_stmt 0 discriminator 5 view .LVU299
 975              		.thumb
 976              		.syntax unified
 977              	.LBE97:
 978              	.LBE96:
 979              	.LBE98:
 980              	.LBE100:
 981              	.LBE103:
 982              	.LBE106:
 983              	.LBE109:
 984              		.loc 1 299 1 discriminator 5 view .LVU300
 985 0072 38BD     		pop	{r3, r4, r5, pc}
 986              		.loc 1 299 1 discriminator 5 view .LVU301
 987              		.cfi_endproc
 988              	.LFE400:
 989              		.size	dac_lld_serve_tx_interrupt, .-dac_lld_serve_tx_interrupt
 990              		.global	DACD1
 991              		.section	.bss.DACD1,"aw",%nobits
 992              		.align	2
 993              		.set	.LANCHOR0,. + 0
 994              		.type	DACD1, %object
 995              		.size	DACD1, 48
 996              	DACD1:
 997 0000 00000000 		.space	48
 997      00000000 
 997      00000000 
 997      00000000 
 997      00000000 
 998              		.section	.rodata.dac1_ch1_params,"a"
 999              		.align	2
 1000              		.set	.LANCHOR1,. + 0
 1001              		.type	dac1_ch1_params, %object
 1002              		.size	dac1_ch1_params, 28
 1003              	dac1_ch1_params:
 1004 0000 00740040 		.word	1073771520
 1005 0004 00000000 		.word	0
 1006 0008 00000000 		.word	0
 1007 000c 0000FFFF 		.word	-65536
 1008 0010 0A000000 		.word	10
 1009 0014 BE200300 		.word	204990
 1010 0018 0A000000 		.word	10
 1011              		.text
 1012              	.Letext0:
 1013              		.file 6 "/opt/gcc-arm-none-eabi/gcc-arm-none-eabi-10.3-2021.07/lib/gcc/arm-none-eabi/10.3.1/includ
 1014              		.file 7 "/opt/gcc-arm-none-eabi/gcc-arm-none-eabi-10.3-2021.07/arm-none-eabi/include/machine/_defa
 1015              		.file 8 "/opt/gcc-arm-none-eabi/gcc-arm-none-eabi-10.3-2021.07/arm-none-eabi/include/sys/_stdint.h
 1016              		.file 9 "../ChibiOS/os/common/ports/ARM-common/chtypes.h"
 1017              		.file 10 "../ChibiOS/os/rt/include/chearly.h"
 1018              		.file 11 "../ChibiOS/os/rt/include/chobjects.h"
 1019              		.file 12 "../ChibiOS/os/rt/include/chrfcu.h"
 1020              		.file 13 "../ChibiOS/os/rt/include/chdebug.h"
 1021              		.file 14 "../ChibiOS/os/rt/include/chtime.h"
 1022              		.file 15 "../ChibiOS/os/rt/include/chlists.h"
ARM GAS  /tmp/ccaLFArB.s 			page 19


 1023              		.file 16 "../ChibiOS/os/common/ext/ST/STM32L4xx/stm32l432xx.h"
 1024              		.file 17 "../ChibiOS/os/rt/include/chsem.h"
 1025              		.file 18 "../ChibiOS/os/rt/include/chmtx.h"
 1026              		.file 19 "../ChibiOS/os/hal/ports/STM32/LLD/DMAv1/stm32_dma.h"
 1027              		.file 20 "../ChibiOS/os/hal/include/hal_dac.h"
 1028              		.file 21 "../ChibiOS/os/hal/ports/STM32/LLD/DACv1/hal_dac_lld.h"
 1029              		.file 22 "../ChibiOS/os/rt/include/chthreads.h"