ARM GAS  /tmp/cc9meDp5.s 			page 1


   1              		.cpu cortex-m4
   2              		.eabi_attribute 20, 1
   3              		.eabi_attribute 21, 1
   4              		.eabi_attribute 23, 3
   5              		.eabi_attribute 24, 1
   6              		.eabi_attribute 25, 1
   7              		.eabi_attribute 26, 1
   8              		.eabi_attribute 30, 2
   9              		.eabi_attribute 34, 1
  10              		.eabi_attribute 18, 4
  11              		.file	"hal_buffers.c"
  12              		.text
  13              	.Ltext0:
  14              		.cfi_sections	.debug_frame
  15              		.section	.text.ibqObjectInit,"ax",%progbits
  16              		.align	1
  17              		.p2align 4,,15
  18              		.global	ibqObjectInit
  19              		.arch armv7e-m
  20              		.syntax unified
  21              		.thumb
  22              		.thumb_func
  23              		.fpu softvfp
  24              		.type	ibqObjectInit, %function
  25              	ibqObjectInit:
  26              	.LVL0:
  27              	.LFB400:
  28              		.file 1 "../ChibiOS/os/hal/src/hal_buffers.c"
  29              		.loc 1 77 72 view -0
  30              		.cfi_startproc
  31              		@ args = 12, pretend = 0, frame = 0
  32              		@ frame_needed = 0, uses_anonymous_args = 0
  33              		@ link register save eliminated.
  34              		.loc 1 79 3 view .LVU1
  35              		.loc 1 79 3 view .LVU2
  36              		.loc 1 79 3 view .LVU3
  37              		.loc 1 81 3 view .LVU4
  38              		.loc 1 77 72 is_stmt 0 view .LVU5
  39 0000 10B4     		push	{r4}
  40              		.cfi_def_cfa_offset 4
  41              		.cfi_offset 4, -4
  42              		.loc 1 77 72 view .LVU6
  43 0002 019C     		ldr	r4, [sp, #4]
  44              	.LVL1:
  45              	.LBB224:
  46              	.LBI224:
  47              		.file 2 "../ChibiOS/os/hal/osal/rt-nil/osal.h"
  48              		.loc 2 864 20 is_stmt 1 view .LVU7
  49              	.LBE224:
  50              		.loc 2 866 3 view .LVU8
  51              	.LBB233:
  52              	.LBB225:
  53              	.LBI225:
  54              		.file 3 "../ChibiOS/os/rt/include/chthreads.h"
  55              		.loc 3 461 20 view .LVU9
  56              	.LBB226:
  57              		.loc 3 463 3 view .LVU10
ARM GAS  /tmp/cc9meDp5.s 			page 2


  58              	.LBB227:
  59              	.LBI227:
  60              		.file 4 "../ChibiOS/os/rt/include/chlists.h"
  61              		.loc 4 222 20 view .LVU11
  62              	.LBB228:
  63              		.loc 4 224 3 view .LVU12
  64              	.LBE228:
  65              	.LBE227:
  66              	.LBE226:
  67              	.LBE225:
  68              	.LBE233:
  69              		.loc 1 82 19 is_stmt 0 view .LVU13
  70 0004 0172     		strb	r1, [r0, #8]
  71              		.loc 1 86 33 view .LVU14
  72 0006 0433     		adds	r3, r3, #4
  73              	.LVL2:
  74              		.loc 1 87 19 view .LVU15
  75 0008 C361     		str	r3, [r0, #28]
  76              		.loc 1 86 24 view .LVU16
  77 000a 04FB0323 		mla	r3, r4, r3, r2
  78              	.LVL3:
  79              		.loc 1 89 19 view .LVU17
  80 000e C0E90842 		strd	r4, r2, [r0, #32]
  81              		.loc 1 85 19 view .LVU18
  82 0012 C0E90422 		strd	r2, r2, [r0, #16]
  83              		.loc 1 86 19 view .LVU19
  84 0016 8361     		str	r3, [r0, #24]
  85              		.loc 1 77 72 view .LVU20
  86 0018 DDE90223 		ldrd	r2, r3, [sp, #8]
  87              	.LVL4:
  88              		.loc 1 83 19 view .LVU21
  89 001c 0021     		movs	r1, #0
  90              	.LVL5:
  91              	.LBB234:
  92              	.LBB232:
  93              	.LBB231:
  94              	.LBB230:
  95              	.LBB229:
  96              		.loc 4 225 12 view .LVU22
  97 001e C0E90000 		strd	r0, r0, [r0]
  98              	.LVL6:
  99              		.loc 4 225 12 view .LVU23
 100              	.LBE229:
 101              	.LBE230:
 102              	.LBE231:
 103              	.LBE232:
 104              	.LBE234:
 105              		.loc 1 82 3 is_stmt 1 view .LVU24
 106              		.loc 1 83 3 view .LVU25
 107              		.loc 1 91 19 is_stmt 0 view .LVU26
 108 0022 C0E90A11 		strd	r1, r1, [r0, #40]
 109              		.loc 1 93 19 view .LVU27
 110 0026 C0E90C23 		strd	r2, r3, [r0, #48]
 111              		.loc 1 94 1 view .LVU28
 112 002a 10BC     		pop	{r4}
 113              		.cfi_restore 4
 114              		.cfi_def_cfa_offset 0
ARM GAS  /tmp/cc9meDp5.s 			page 3


 115              	.LVL7:
 116              		.loc 1 83 19 view .LVU29
 117 002c C160     		str	r1, [r0, #12]
 118              		.loc 1 84 3 is_stmt 1 view .LVU30
 119              		.loc 1 86 3 view .LVU31
 120              		.loc 1 87 3 view .LVU32
 121              		.loc 1 88 3 view .LVU33
 122              		.loc 1 90 3 view .LVU34
 123              		.loc 1 92 3 view .LVU35
 124              		.loc 1 94 1 is_stmt 0 view .LVU36
 125 002e 7047     		bx	lr
 126              		.cfi_endproc
 127              	.LFE400:
 128              		.size	ibqObjectInit, .-ibqObjectInit
 129              		.section	.text.ibqResetI,"ax",%progbits
 130              		.align	1
 131              		.p2align 4,,15
 132              		.global	ibqResetI
 133              		.syntax unified
 134              		.thumb
 135              		.thumb_func
 136              		.fpu softvfp
 137              		.type	ibqResetI, %function
 138              	ibqResetI:
 139              	.LVL8:
 140              	.LFB401:
 141              		.loc 1 107 45 is_stmt 1 view -0
 142              		.cfi_startproc
 143              		@ args = 0, pretend = 0, frame = 0
 144              		@ frame_needed = 0, uses_anonymous_args = 0
 145              		@ link register save eliminated.
 146              		.loc 1 109 23 view .LVU38
 147              		.loc 1 111 3 view .LVU39
 148              		.loc 1 112 25 is_stmt 0 view .LVU40
 149 0000 416A     		ldr	r1, [r0, #36]
 150              		.loc 1 111 19 view .LVU41
 151 0002 0022     		movs	r2, #0
 152              		.loc 1 113 19 view .LVU42
 153 0004 C0E90411 		strd	r1, r1, [r0, #16]
 154              		.loc 1 115 19 view .LVU43
 155 0008 C0E90A22 		strd	r2, r2, [r0, #40]
 156              		.loc 1 111 19 view .LVU44
 157 000c C260     		str	r2, [r0, #12]
 158              		.loc 1 112 3 is_stmt 1 view .LVU45
 159              		.loc 1 114 3 view .LVU46
 160              		.loc 1 116 3 view .LVU47
 161              	.LVL9:
 162              	.LBB235:
 163              	.LBI235:
 164              		.loc 2 919 20 view .LVU48
 165              	.LBB236:
 166              		.loc 2 921 3 view .LVU49
 167 000e 6FF00101 		mvn	r1, #1
 168 0012 FFF7FEBF 		b	chThdDequeueAllI
 169              	.LVL10:
 170              		.loc 2 921 3 is_stmt 0 view .LVU50
 171              	.LBE236:
ARM GAS  /tmp/cc9meDp5.s 			page 4


 172              	.LBE235:
 173              		.cfi_endproc
 174              	.LFE401:
 175              		.size	ibqResetI, .-ibqResetI
 176 0016 00BF     		.section	.text.ibqGetEmptyBufferI,"ax",%progbits
 177              		.align	1
 178              		.p2align 4,,15
 179              		.global	ibqGetEmptyBufferI
 180              		.syntax unified
 181              		.thumb
 182              		.thumb_func
 183              		.fpu softvfp
 184              		.type	ibqGetEmptyBufferI, %function
 185              	ibqGetEmptyBufferI:
 186              	.LVL11:
 187              	.LFB402:
 188              		.loc 1 129 58 is_stmt 1 view -0
 189              		.cfi_startproc
 190              		@ args = 0, pretend = 0, frame = 0
 191              		@ frame_needed = 0, uses_anonymous_args = 0
 192              		@ link register save eliminated.
 193              		.loc 1 131 23 view .LVU52
 194              		.loc 1 133 3 view .LVU53
 195              		.loc 1 133 7 is_stmt 0 view .LVU54
 196 0000 D0E90432 		ldrd	r3, r2, [r0, #16]
 197 0004 9342     		cmp	r3, r2
 198 0006 01D0     		beq	.L11
 199              	.L6:
 200              		.loc 1 137 3 is_stmt 1 view .LVU55
 201              		.loc 1 137 23 is_stmt 0 view .LVU56
 202 0008 181D     		adds	r0, r3, #4
 203              	.LVL12:
 204              		.loc 1 138 1 view .LVU57
 205 000a 7047     		bx	lr
 206              	.LVL13:
 207              	.L11:
 208              		.loc 1 133 7 discriminator 1 view .LVU58
 209 000c C268     		ldr	r2, [r0, #12]
 210 000e 002A     		cmp	r2, #0
 211 0010 FAD0     		beq	.L6
 212              		.loc 1 134 12 view .LVU59
 213 0012 0020     		movs	r0, #0
 214              	.LVL14:
 215              		.loc 1 134 12 view .LVU60
 216 0014 7047     		bx	lr
 217              		.cfi_endproc
 218              	.LFE402:
 219              		.size	ibqGetEmptyBufferI, .-ibqGetEmptyBufferI
 220 0016 00BF     		.section	.text.ibqPostFullBufferI,"ax",%progbits
 221              		.align	1
 222              		.p2align 4,,15
 223              		.global	ibqPostFullBufferI
 224              		.syntax unified
 225              		.thumb
 226              		.thumb_func
 227              		.fpu softvfp
 228              		.type	ibqPostFullBufferI, %function
ARM GAS  /tmp/cc9meDp5.s 			page 5


 229              	ibqPostFullBufferI:
 230              	.LVL15:
 231              	.LFB403:
 232              		.loc 1 148 67 is_stmt 1 view -0
 233              		.cfi_startproc
 234              		@ args = 0, pretend = 0, frame = 0
 235              		@ frame_needed = 0, uses_anonymous_args = 0
 236              		@ link register save eliminated.
 237              		.loc 1 150 23 view .LVU62
 238              		.loc 1 152 3 view .LVU63
 239              		.loc 1 152 3 view .LVU64
 240              		.loc 1 152 3 view .LVU65
 241              		.loc 1 153 3 view .LVU66
 242              		.loc 1 153 3 view .LVU67
 243              		.loc 1 153 3 view .LVU68
 244              		.loc 1 156 3 view .LVU69
 245              		.loc 1 156 27 is_stmt 0 view .LVU70
 246 0000 0369     		ldr	r3, [r0, #16]
 247              		.loc 1 148 67 view .LVU71
 248 0002 10B4     		push	{r4}
 249              		.cfi_def_cfa_offset 4
 250              		.cfi_offset 4, -4
 251              		.loc 1 161 6 view .LVU72
 252 0004 8469     		ldr	r4, [r0, #24]
 253              		.loc 1 156 37 view .LVU73
 254 0006 1960     		str	r1, [r3]
 255              		.loc 1 159 3 is_stmt 1 view .LVU74
 256              		.loc 1 160 16 is_stmt 0 view .LVU75
 257 0008 C169     		ldr	r1, [r0, #28]
 258              	.LVL16:
 259              		.loc 1 159 7 view .LVU76
 260 000a C268     		ldr	r2, [r0, #12]
 261              		.loc 1 160 16 view .LVU77
 262 000c 0B44     		add	r3, r3, r1
 263              	.LVL17:
 264              		.loc 1 161 6 view .LVU78
 265 000e A342     		cmp	r3, r4
 266              		.loc 1 160 16 view .LVU79
 267 0010 0361     		str	r3, [r0, #16]
 268              	.LVL18:
 269              		.loc 1 159 17 view .LVU80
 270 0012 02F10102 		add	r2, r2, #1
 271              		.loc 1 162 18 view .LVU81
 272 0016 28BF     		it	cs
 273 0018 436A     		ldrcs	r3, [r0, #36]
 274              		.loc 1 167 1 view .LVU82
 275 001a 10BC     		pop	{r4}
 276              		.cfi_restore 4
 277              		.cfi_def_cfa_offset 0
 278              		.loc 1 159 17 view .LVU83
 279 001c C260     		str	r2, [r0, #12]
 280              		.loc 1 160 3 is_stmt 1 view .LVU84
 281              		.loc 1 161 3 view .LVU85
 282              		.loc 1 162 5 view .LVU86
 283              		.loc 1 162 18 is_stmt 0 view .LVU87
 284 001e 28BF     		it	cs
 285 0020 0361     		strcs	r3, [r0, #16]
ARM GAS  /tmp/cc9meDp5.s 			page 6


 286              		.loc 1 166 3 is_stmt 1 view .LVU88
 287              	.LVL19:
 288              	.LBB237:
 289              	.LBI237:
 290              		.loc 2 906 20 view .LVU89
 291              	.LBB238:
 292              		.loc 2 908 3 view .LVU90
 293 0022 0021     		movs	r1, #0
 294 0024 FFF7FEBF 		b	chThdDequeueNextI
 295              	.LVL20:
 296              		.loc 2 908 3 is_stmt 0 view .LVU91
 297              	.LBE238:
 298              	.LBE237:
 299              		.cfi_endproc
 300              	.LFE403:
 301              		.size	ibqPostFullBufferI, .-ibqPostFullBufferI
 302              		.section	.text.ibqGetFullBufferTimeout,"ax",%progbits
 303              		.align	1
 304              		.p2align 4,,15
 305              		.global	ibqGetFullBufferTimeout
 306              		.syntax unified
 307              		.thumb
 308              		.thumb_func
 309              		.fpu softvfp
 310              		.type	ibqGetFullBufferTimeout, %function
 311              	ibqGetFullBufferTimeout:
 312              	.LVL21:
 313              	.LFB404:
 314              		.loc 1 191 54 is_stmt 1 view -0
 315              		.cfi_startproc
 316              		@ args = 0, pretend = 0, frame = 0
 317              		@ frame_needed = 0, uses_anonymous_args = 0
 318              		.loc 1 191 54 is_stmt 0 view .LVU93
 319 0000 38B5     		push	{r3, r4, r5, lr}
 320              		.cfi_def_cfa_offset 16
 321              		.cfi_offset 3, -16
 322              		.cfi_offset 4, -12
 323              		.cfi_offset 5, -8
 324              		.cfi_offset 14, -4
 325              		.loc 1 191 54 view .LVU94
 326 0002 0446     		mov	r4, r0
 327              		.loc 1 192 3 is_stmt 1 view .LVU95
 328              		.loc 1 194 3 view .LVU96
 329              	.LBB260:
 330              	.LBI260:
 331              		.loc 2 573 20 view .LVU97
 332              	.LBE260:
 333              		.loc 2 575 3 view .LVU98
 334              	.LBB272:
 335              	.LBB261:
 336              	.LBI261:
 337              		.file 5 "../ChibiOS/os/rt/include/chsys.h"
 338              		.loc 5 407 20 view .LVU99
 339              	.LBE261:
 340              	.LBE272:
 341              		.loc 5 409 3 view .LVU100
 342              	.LBB273:
ARM GAS  /tmp/cc9meDp5.s 			page 7


 343              	.LBB269:
 344              	.LBB262:
 345              	.LBI262:
 346              		.file 6 "../ChibiOS/os/common/ports/ARMv7-M/chcore.h"
 347              		.loc 6 806 27 view .LVU101
 348              	.LBE262:
 349              	.LBE269:
 350              	.LBE273:
 351              		.loc 6 814 3 view .LVU102
 352              	.LVL22:
 353              	.LBB274:
 354              	.LBB270:
 355              	.LBB267:
 356              	.LBB263:
 357              	.LBI263:
 358              		.file 7 "../ChibiOS/os/common/ext/ARM/CMSIS/Core/Include/cmsis_gcc.h"
 359              		.loc 7 491 27 view .LVU103
 360              	.LBB264:
 361              		.loc 7 493 3 view .LVU104
 362              	.LBE264:
 363              	.LBE263:
 364              	.LBE267:
 365              	.LBE270:
 366              	.LBE274:
 367              		.loc 1 191 54 is_stmt 0 view .LVU105
 368 0004 0D46     		mov	r5, r1
 369              	.LBB275:
 370              	.LBB271:
 371              	.LBB268:
 372              	.LBB266:
 373              	.LBB265:
 374              		.loc 7 493 3 view .LVU106
 375 0006 3023     		movs	r3, #48
 376              		.syntax unified
 377              	@ 493 "../ChibiOS/os/common/ext/ARM/CMSIS/Core/Include/cmsis_gcc.h" 1
 378 0008 83F31188 		MSR basepri, r3
 379              	@ 0 "" 2
 380              	.LVL23:
 381              		.loc 7 493 3 view .LVU107
 382              		.thumb
 383              		.syntax unified
 384              	.LBE265:
 385              	.LBE266:
 386              	.LBE268:
 387              	.LBE271:
 388              	.LBE275:
 389              		.loc 5 410 35 is_stmt 1 view .LVU108
 390              		.loc 5 411 21 view .LVU109
 391              		.loc 1 195 3 view .LVU110
 392              	.LBB276:
 393              	.LBI276:
 394              		.loc 1 222 9 view .LVU111
 395              	.LBB277:
 396              		.loc 1 225 23 view .LVU112
 397              		.loc 1 227 3 view .LVU113
 398              		.loc 1 227 9 is_stmt 0 view .LVU114
 399 000c 05E0     		b	.L16
ARM GAS  /tmp/cc9meDp5.s 			page 8


 400              	.LVL24:
 401              	.L18:
 402              	.LBB278:
 403              		.loc 1 228 8 view .LVU115
 404 000e 237A     		ldrb	r3, [r4, #8]	@ zero_extendqisi2
 405 0010 9BB9     		cbnz	r3, .L19
 406              	.LBB279:
 407              	.LBB280:
 408              		.loc 2 895 10 view .LVU116
 409 0012 FFF7FEFF 		bl	chThdEnqueueTimeoutS
 410              	.LVL25:
 411              		.loc 2 895 10 view .LVU117
 412              	.LBE280:
 413              	.LBE279:
 414              		.loc 1 232 5 is_stmt 1 view .LVU118
 415              		.loc 1 232 8 is_stmt 0 view .LVU119
 416 0016 0028     		cmp	r0, #0
 417              		.loc 1 232 8 view .LVU120
 418 0018 0BDB     		blt	.L17
 419              	.LVL26:
 420              	.L16:
 421              		.loc 1 228 5 is_stmt 1 view .LVU121
 422              		.loc 1 231 5 view .LVU122
 423              	.LBB283:
 424              	.LBI279:
 425              		.loc 2 892 21 view .LVU123
 426              	.LBB281:
 427              		.loc 2 895 3 view .LVU124
 428              	.LBE281:
 429              	.LBE283:
 430              	.LBE278:
 431              		.loc 1 227 9 view .LVU125
 432              		.loc 1 227 10 is_stmt 0 view .LVU126
 433 001a E368     		ldr	r3, [r4, #12]
 434              	.LBB285:
 435              	.LBB284:
 436              	.LBB282:
 437              		.loc 2 895 10 view .LVU127
 438 001c 2946     		mov	r1, r5
 439 001e 2046     		mov	r0, r4
 440              	.LBE282:
 441              	.LBE284:
 442              	.LBE285:
 443              		.loc 1 227 9 view .LVU128
 444 0020 002B     		cmp	r3, #0
 445 0022 F4D0     		beq	.L18
 446              	.LVL27:
 447              	.LBB286:
 448              	.LBI286:
 449              		.loc 1 222 9 is_stmt 1 view .LVU129
 450              	.LBB287:
 451              		.loc 1 237 3 view .LVU130
 452              		.loc 1 237 3 view .LVU131
 453              		.loc 1 237 3 view .LVU132
 454              		.loc 1 240 3 view .LVU133
 455              		.loc 1 240 19 is_stmt 0 view .LVU134
 456 0024 6369     		ldr	r3, [r4, #20]
ARM GAS  /tmp/cc9meDp5.s 			page 9


 457              		.loc 1 241 25 view .LVU135
 458 0026 1A68     		ldr	r2, [r3]
 459              		.loc 1 240 28 view .LVU136
 460 0028 0433     		adds	r3, r3, #4
 461              		.loc 1 241 25 view .LVU137
 462 002a 1A44     		add	r2, r2, r3
 463              		.loc 1 241 13 view .LVU138
 464 002c C4E90A32 		strd	r3, r2, [r4, #40]
 465              		.loc 1 243 3 is_stmt 1 view .LVU139
 466              	.LVL28:
 467              		.loc 1 241 13 is_stmt 0 view .LVU140
 468 0030 0020     		movs	r0, #0
 469              	.LVL29:
 470              	.L17:
 471              		.loc 1 241 13 view .LVU141
 472              	.LBE287:
 473              	.LBE286:
 474              	.LBE277:
 475              	.LBE276:
 476              		.loc 1 196 3 is_stmt 1 view .LVU142
 477              	.LBB290:
 478              	.LBI290:
 479              		.loc 2 584 20 view .LVU143
 480              	.LBE290:
 481              		.loc 2 586 3 view .LVU144
 482              	.LBB307:
 483              	.LBB291:
 484              	.LBI291:
 485              		.loc 5 421 20 view .LVU145
 486              	.LBB292:
 487              		.loc 5 423 23 view .LVU146
 488              		.loc 5 424 34 view .LVU147
 489              		.loc 5 430 3 view .LVU148
 490              		.loc 5 430 3 view .LVU149
 491              		.loc 5 430 3 view .LVU150
 492              		.loc 5 434 3 view .LVU151
 493              	.LBB293:
 494              	.LBI293:
 495              		.loc 6 830 27 view .LVU152
 496              	.LBE293:
 497              	.LBE292:
 498              	.LBE291:
 499              	.LBE307:
 500              		.loc 6 833 3 view .LVU153
 501              	.LBB308:
 502              	.LBB304:
 503              	.LBB301:
 504              	.LBB298:
 505              	.LBB294:
 506              	.LBI294:
 507              		.loc 7 491 27 view .LVU154
 508              	.LBB295:
 509              		.loc 7 493 3 view .LVU155
 510 0032 0023     		movs	r3, #0
 511              		.syntax unified
 512              	@ 493 "../ChibiOS/os/common/ext/ARM/CMSIS/Core/Include/cmsis_gcc.h" 1
 513 0034 83F31188 		MSR basepri, r3
ARM GAS  /tmp/cc9meDp5.s 			page 10


 514              	@ 0 "" 2
 515              	.LVL30:
 516              		.loc 7 493 3 is_stmt 0 view .LVU156
 517              		.thumb
 518              		.syntax unified
 519              	.LBE295:
 520              	.LBE294:
 521              	.LBE298:
 522              	.LBE301:
 523              	.LBE304:
 524              	.LBE308:
 525              		.loc 1 198 3 is_stmt 1 view .LVU157
 526              		.loc 1 199 1 is_stmt 0 view .LVU158
 527 0038 38BD     		pop	{r3, r4, r5, pc}
 528              	.LVL31:
 529              	.L19:
 530              	.LBB309:
 531              	.LBB289:
 532              	.LBB288:
 533              		.loc 1 229 14 view .LVU159
 534 003a 6FF00100 		mvn	r0, #1
 535              	.LVL32:
 536              		.loc 1 229 14 view .LVU160
 537              	.LBE288:
 538              	.LBE289:
 539              	.LBE309:
 540              		.loc 1 196 3 is_stmt 1 view .LVU161
 541              	.LBB310:
 542              		.loc 2 584 20 view .LVU162
 543              	.LBE310:
 544              		.loc 2 586 3 view .LVU163
 545              	.LBB311:
 546              	.LBB305:
 547              		.loc 5 421 20 view .LVU164
 548              	.LBB302:
 549              		.loc 5 423 23 view .LVU165
 550              		.loc 5 424 34 view .LVU166
 551              		.loc 5 430 3 view .LVU167
 552              		.loc 5 430 3 view .LVU168
 553              		.loc 5 430 3 view .LVU169
 554              		.loc 5 434 3 view .LVU170
 555              	.LBB299:
 556              		.loc 6 830 27 view .LVU171
 557              	.LBE299:
 558              	.LBE302:
 559              	.LBE305:
 560              	.LBE311:
 561              		.loc 6 833 3 view .LVU172
 562              	.LBB312:
 563              	.LBB306:
 564              	.LBB303:
 565              	.LBB300:
 566              	.LBB297:
 567              		.loc 7 491 27 view .LVU173
 568              	.LBB296:
 569              		.loc 7 493 3 view .LVU174
 570 003e 0023     		movs	r3, #0
ARM GAS  /tmp/cc9meDp5.s 			page 11


 571              		.syntax unified
 572              	@ 493 "../ChibiOS/os/common/ext/ARM/CMSIS/Core/Include/cmsis_gcc.h" 1
 573 0040 83F31188 		MSR basepri, r3
 574              	@ 0 "" 2
 575              	.LVL33:
 576              		.loc 7 493 3 is_stmt 0 view .LVU175
 577              		.thumb
 578              		.syntax unified
 579              	.LBE296:
 580              	.LBE297:
 581              	.LBE300:
 582              	.LBE303:
 583              	.LBE306:
 584              	.LBE312:
 585              		.loc 1 198 3 is_stmt 1 view .LVU176
 586              		.loc 1 199 1 is_stmt 0 view .LVU177
 587 0044 38BD     		pop	{r3, r4, r5, pc}
 588              		.loc 1 199 1 view .LVU178
 589              		.cfi_endproc
 590              	.LFE404:
 591              		.size	ibqGetFullBufferTimeout, .-ibqGetFullBufferTimeout
 592 0046 00BF     		.section	.text.ibqGetFullBufferTimeoutS,"ax",%progbits
 593              		.align	1
 594              		.p2align 4,,15
 595              		.global	ibqGetFullBufferTimeoutS
 596              		.syntax unified
 597              		.thumb
 598              		.thumb_func
 599              		.fpu softvfp
 600              		.type	ibqGetFullBufferTimeoutS, %function
 601              	ibqGetFullBufferTimeoutS:
 602              	.LVL34:
 603              	.LFB405:
 604              		.loc 1 223 57 is_stmt 1 view -0
 605              		.cfi_startproc
 606              		@ args = 0, pretend = 0, frame = 0
 607              		@ frame_needed = 0, uses_anonymous_args = 0
 608              		.loc 1 223 57 is_stmt 0 view .LVU180
 609 0000 38B5     		push	{r3, r4, r5, lr}
 610              		.cfi_def_cfa_offset 16
 611              		.cfi_offset 3, -16
 612              		.cfi_offset 4, -12
 613              		.cfi_offset 5, -8
 614              		.cfi_offset 14, -4
 615              		.loc 1 223 57 view .LVU181
 616 0002 0446     		mov	r4, r0
 617              		.loc 1 225 23 is_stmt 1 view .LVU182
 618              		.loc 1 227 3 view .LVU183
 619              		.loc 1 223 57 is_stmt 0 view .LVU184
 620 0004 0D46     		mov	r5, r1
 621              		.loc 1 227 9 view .LVU185
 622 0006 05E0     		b	.L22
 623              	.LVL35:
 624              	.L24:
 625              	.LBB324:
 626              		.loc 1 228 8 view .LVU186
 627 0008 237A     		ldrb	r3, [r4, #8]	@ zero_extendqisi2
ARM GAS  /tmp/cc9meDp5.s 			page 12


 628 000a 83B9     		cbnz	r3, .L25
 629              	.LBB325:
 630              	.LBB326:
 631              		.loc 2 895 10 view .LVU187
 632 000c FFF7FEFF 		bl	chThdEnqueueTimeoutS
 633              	.LVL36:
 634              		.loc 2 895 10 view .LVU188
 635              	.LBE326:
 636              	.LBE325:
 637              		.loc 1 232 5 is_stmt 1 view .LVU189
 638              		.loc 1 232 8 is_stmt 0 view .LVU190
 639 0010 0028     		cmp	r0, #0
 640              		.loc 1 232 8 view .LVU191
 641 0012 0BDB     		blt	.L21
 642              	.LVL37:
 643              	.L22:
 644              		.loc 1 228 5 is_stmt 1 view .LVU192
 645              		.loc 1 231 5 view .LVU193
 646              	.LBB329:
 647              	.LBI325:
 648              		.loc 2 892 21 view .LVU194
 649              	.LBB327:
 650              		.loc 2 895 3 view .LVU195
 651              	.LBE327:
 652              	.LBE329:
 653              	.LBE324:
 654              		.loc 1 227 9 view .LVU196
 655              		.loc 1 227 10 is_stmt 0 view .LVU197
 656 0014 E368     		ldr	r3, [r4, #12]
 657              	.LBB331:
 658              	.LBB330:
 659              	.LBB328:
 660              		.loc 2 895 10 view .LVU198
 661 0016 2946     		mov	r1, r5
 662 0018 2046     		mov	r0, r4
 663              	.LBE328:
 664              	.LBE330:
 665              	.LBE331:
 666              		.loc 1 227 9 view .LVU199
 667 001a 002B     		cmp	r3, #0
 668 001c F4D0     		beq	.L24
 669              	.LVL38:
 670              	.LBB332:
 671              	.LBI332:
 672              		.loc 1 222 9 is_stmt 1 view .LVU200
 673              	.LBB333:
 674              		.loc 1 237 3 view .LVU201
 675              		.loc 1 237 3 view .LVU202
 676              		.loc 1 237 3 view .LVU203
 677              		.loc 1 240 3 view .LVU204
 678              		.loc 1 240 19 is_stmt 0 view .LVU205
 679 001e 6369     		ldr	r3, [r4, #20]
 680              		.loc 1 241 25 view .LVU206
 681 0020 1A68     		ldr	r2, [r3]
 682              		.loc 1 240 28 view .LVU207
 683 0022 0433     		adds	r3, r3, #4
 684              		.loc 1 241 25 view .LVU208
ARM GAS  /tmp/cc9meDp5.s 			page 13


 685 0024 1A44     		add	r2, r2, r3
 686              		.loc 1 241 13 view .LVU209
 687 0026 C4E90A32 		strd	r3, r2, [r4, #40]
 688              		.loc 1 243 3 is_stmt 1 view .LVU210
 689              	.LVL39:
 690              		.loc 1 241 13 is_stmt 0 view .LVU211
 691 002a 0020     		movs	r0, #0
 692              	.LVL40:
 693              	.L21:
 694              		.loc 1 241 13 view .LVU212
 695              	.LBE333:
 696              	.LBE332:
 697              		.loc 1 244 1 view .LVU213
 698 002c 38BD     		pop	{r3, r4, r5, pc}
 699              	.LVL41:
 700              	.L25:
 701              	.LBB334:
 702              		.loc 1 229 14 view .LVU214
 703 002e 6FF00100 		mvn	r0, #1
 704              	.LVL42:
 705              		.loc 1 229 14 view .LVU215
 706              	.LBE334:
 707              		.loc 1 244 1 view .LVU216
 708 0032 38BD     		pop	{r3, r4, r5, pc}
 709              		.loc 1 244 1 view .LVU217
 710              		.cfi_endproc
 711              	.LFE405:
 712              		.size	ibqGetFullBufferTimeoutS, .-ibqGetFullBufferTimeoutS
 713              		.section	.text.ibqReleaseEmptyBuffer,"ax",%progbits
 714              		.align	1
 715              		.p2align 4,,15
 716              		.global	ibqReleaseEmptyBuffer
 717              		.syntax unified
 718              		.thumb
 719              		.thumb_func
 720              		.fpu softvfp
 721              		.type	ibqReleaseEmptyBuffer, %function
 722              	ibqReleaseEmptyBuffer:
 723              	.LVL43:
 724              	.LFB406:
 725              		.loc 1 254 57 is_stmt 1 view -0
 726              		.cfi_startproc
 727              		@ args = 0, pretend = 0, frame = 0
 728              		@ frame_needed = 0, uses_anonymous_args = 0
 729              		.loc 1 256 3 view .LVU219
 730              	.LBB348:
 731              	.LBI348:
 732              		.loc 2 573 20 view .LVU220
 733              	.LBE348:
 734              		.loc 2 575 3 view .LVU221
 735              	.LBB360:
 736              	.LBB349:
 737              	.LBI349:
 738              		.loc 5 407 20 view .LVU222
 739              	.LBE349:
 740              	.LBE360:
 741              		.loc 5 409 3 view .LVU223
ARM GAS  /tmp/cc9meDp5.s 			page 14


 742              	.LBB361:
 743              	.LBB357:
 744              	.LBB350:
 745              	.LBI350:
 746              		.loc 6 806 27 view .LVU224
 747              	.LBE350:
 748              	.LBE357:
 749              	.LBE361:
 750              		.loc 6 814 3 view .LVU225
 751              	.LBB362:
 752              	.LBB358:
 753              	.LBB355:
 754              	.LBB351:
 755              	.LBI351:
 756              		.loc 7 491 27 view .LVU226
 757              	.LBB352:
 758              		.loc 7 493 3 view .LVU227
 759              	.LBE352:
 760              	.LBE351:
 761              	.LBE355:
 762              	.LBE358:
 763              	.LBE362:
 764              		.loc 1 254 57 is_stmt 0 view .LVU228
 765 0000 08B5     		push	{r3, lr}
 766              		.cfi_def_cfa_offset 8
 767              		.cfi_offset 3, -8
 768              		.cfi_offset 14, -4
 769              	.LBB363:
 770              	.LBB359:
 771              	.LBB356:
 772              	.LBB354:
 773              	.LBB353:
 774              		.loc 7 493 3 view .LVU229
 775 0002 3023     		movs	r3, #48
 776              		.syntax unified
 777              	@ 493 "../ChibiOS/os/common/ext/ARM/CMSIS/Core/Include/cmsis_gcc.h" 1
 778 0004 83F31188 		MSR basepri, r3
 779              	@ 0 "" 2
 780              	.LVL44:
 781              		.loc 7 493 3 view .LVU230
 782              		.thumb
 783              		.syntax unified
 784              	.LBE353:
 785              	.LBE354:
 786              	.LBE356:
 787              	.LBE359:
 788              	.LBE363:
 789              		.loc 5 410 35 is_stmt 1 view .LVU231
 790              		.loc 5 411 21 view .LVU232
 791              		.loc 1 257 3 view .LVU233
 792              	.LBB364:
 793              	.LBI364:
 794              		.loc 1 269 8 view .LVU234
 795              	.LBB365:
 796              		.loc 1 271 23 view .LVU235
 797              		.loc 1 272 3 view .LVU236
 798              		.loc 1 272 3 view .LVU237
ARM GAS  /tmp/cc9meDp5.s 			page 15


 799              		.loc 1 272 3 view .LVU238
 800              		.loc 1 275 3 view .LVU239
 801              		.loc 1 277 6 is_stmt 0 view .LVU240
 802 0008 D0E90531 		ldrd	r3, r1, [r0, #20]
 803              		.loc 1 276 16 view .LVU241
 804 000c D0F81CC0 		ldr	ip, [r0, #28]
 805              		.loc 1 275 7 view .LVU242
 806 0010 C268     		ldr	r2, [r0, #12]
 807              		.loc 1 276 16 view .LVU243
 808 0012 6344     		add	r3, r3, ip
 809              		.loc 1 277 6 view .LVU244
 810 0014 8B42     		cmp	r3, r1
 811              		.loc 1 276 16 view .LVU245
 812 0016 4361     		str	r3, [r0, #20]
 813              		.loc 1 278 18 view .LVU246
 814 0018 24BF     		itt	cs
 815 001a 436A     		ldrcs	r3, [r0, #36]
 816 001c 4361     		strcs	r3, [r0, #20]
 817              		.loc 1 275 17 view .LVU247
 818 001e 013A     		subs	r2, r2, #1
 819              		.loc 1 285 11 view .LVU248
 820 0020 036B     		ldr	r3, [r0, #48]
 821              		.loc 1 275 17 view .LVU249
 822 0022 C260     		str	r2, [r0, #12]
 823              		.loc 1 276 3 is_stmt 1 view .LVU250
 824              		.loc 1 277 3 view .LVU251
 825              		.loc 1 278 5 view .LVU252
 826              		.loc 1 282 3 view .LVU253
 827              		.loc 1 282 13 is_stmt 0 view .LVU254
 828 0024 0022     		movs	r2, #0
 829 0026 8262     		str	r2, [r0, #40]
 830              		.loc 1 285 3 is_stmt 1 view .LVU255
 831              		.loc 1 285 6 is_stmt 0 view .LVU256
 832 0028 03B1     		cbz	r3, .L29
 833              		.loc 1 286 5 is_stmt 1 view .LVU257
 834 002a 9847     		blx	r3
 835              	.LVL45:
 836              	.L29:
 837              		.loc 1 286 5 is_stmt 0 view .LVU258
 838              	.LBE365:
 839              	.LBE364:
 840              		.loc 1 258 3 is_stmt 1 view .LVU259
 841              	.LBB366:
 842              	.LBI366:
 843              		.loc 2 584 20 view .LVU260
 844              	.LBE366:
 845              		.loc 2 586 3 view .LVU261
 846              	.LBB375:
 847              	.LBB367:
 848              	.LBI367:
 849              		.loc 5 421 20 view .LVU262
 850              	.LBB368:
 851              		.loc 5 423 23 view .LVU263
 852              		.loc 5 424 34 view .LVU264
 853              		.loc 5 430 3 view .LVU265
 854              		.loc 5 430 3 view .LVU266
 855              		.loc 5 430 3 view .LVU267
ARM GAS  /tmp/cc9meDp5.s 			page 16


 856              		.loc 5 434 3 view .LVU268
 857              	.LBB369:
 858              	.LBI369:
 859              		.loc 6 830 27 view .LVU269
 860              	.LBE369:
 861              	.LBE368:
 862              	.LBE367:
 863              	.LBE375:
 864              		.loc 6 833 3 view .LVU270
 865              	.LBB376:
 866              	.LBB374:
 867              	.LBB373:
 868              	.LBB372:
 869              	.LBB370:
 870              	.LBI370:
 871              		.loc 7 491 27 view .LVU271
 872              	.LBB371:
 873              		.loc 7 493 3 view .LVU272
 874 002c 0023     		movs	r3, #0
 875              		.syntax unified
 876              	@ 493 "../ChibiOS/os/common/ext/ARM/CMSIS/Core/Include/cmsis_gcc.h" 1
 877 002e 83F31188 		MSR basepri, r3
 878              	@ 0 "" 2
 879              	.LVL46:
 880              		.loc 7 493 3 is_stmt 0 view .LVU273
 881              		.thumb
 882              		.syntax unified
 883              	.LBE371:
 884              	.LBE370:
 885              	.LBE372:
 886              	.LBE373:
 887              	.LBE374:
 888              	.LBE376:
 889              		.loc 1 259 1 view .LVU274
 890 0032 08BD     		pop	{r3, pc}
 891              		.cfi_endproc
 892              	.LFE406:
 893              		.size	ibqReleaseEmptyBuffer, .-ibqReleaseEmptyBuffer
 894              		.section	.text.ibqReleaseEmptyBufferS,"ax",%progbits
 895              		.align	1
 896              		.p2align 4,,15
 897              		.global	ibqReleaseEmptyBufferS
 898              		.syntax unified
 899              		.thumb
 900              		.thumb_func
 901              		.fpu softvfp
 902              		.type	ibqReleaseEmptyBufferS, %function
 903              	ibqReleaseEmptyBufferS:
 904              	.LVL47:
 905              	.LFB407:
 906              		.loc 1 269 60 is_stmt 1 view -0
 907              		.cfi_startproc
 908              		@ args = 0, pretend = 0, frame = 0
 909              		@ frame_needed = 0, uses_anonymous_args = 0
 910              		@ link register save eliminated.
 911              		.loc 1 271 23 view .LVU276
 912              		.loc 1 272 3 view .LVU277
ARM GAS  /tmp/cc9meDp5.s 			page 17


 913              		.loc 1 272 3 view .LVU278
 914              		.loc 1 272 3 view .LVU279
 915              		.loc 1 275 3 view .LVU280
 916              		.loc 1 277 6 is_stmt 0 view .LVU281
 917 0000 D0E90531 		ldrd	r3, r1, [r0, #20]
 918              		.loc 1 276 16 view .LVU282
 919 0004 D0F81CC0 		ldr	ip, [r0, #28]
 920              		.loc 1 275 7 view .LVU283
 921 0008 C268     		ldr	r2, [r0, #12]
 922              		.loc 1 276 16 view .LVU284
 923 000a 6344     		add	r3, r3, ip
 924              		.loc 1 277 6 view .LVU285
 925 000c 8B42     		cmp	r3, r1
 926              		.loc 1 276 16 view .LVU286
 927 000e 4361     		str	r3, [r0, #20]
 928              		.loc 1 278 18 view .LVU287
 929 0010 24BF     		itt	cs
 930 0012 436A     		ldrcs	r3, [r0, #36]
 931 0014 4361     		strcs	r3, [r0, #20]
 932              		.loc 1 275 17 view .LVU288
 933 0016 013A     		subs	r2, r2, #1
 934              		.loc 1 285 11 view .LVU289
 935 0018 036B     		ldr	r3, [r0, #48]
 936              		.loc 1 275 17 view .LVU290
 937 001a C260     		str	r2, [r0, #12]
 938              		.loc 1 276 3 is_stmt 1 view .LVU291
 939              		.loc 1 277 3 view .LVU292
 940              		.loc 1 278 5 view .LVU293
 941              		.loc 1 282 3 view .LVU294
 942              		.loc 1 282 13 is_stmt 0 view .LVU295
 943 001c 0022     		movs	r2, #0
 944 001e 8262     		str	r2, [r0, #40]
 945              		.loc 1 285 3 is_stmt 1 view .LVU296
 946              		.loc 1 285 6 is_stmt 0 view .LVU297
 947 0020 03B1     		cbz	r3, .L34
 948              		.loc 1 286 5 is_stmt 1 view .LVU298
 949 0022 1847     		bx	r3	@ indirect register sibling call
 950              	.LVL48:
 951              	.L34:
 952              		.loc 1 288 1 is_stmt 0 view .LVU299
 953 0024 7047     		bx	lr
 954              		.cfi_endproc
 955              	.LFE407:
 956              		.size	ibqReleaseEmptyBufferS, .-ibqReleaseEmptyBufferS
 957 0026 00BF     		.section	.text.ibqGetTimeout,"ax",%progbits
 958              		.align	1
 959              		.p2align 4,,15
 960              		.global	ibqGetTimeout
 961              		.syntax unified
 962              		.thumb
 963              		.thumb_func
 964              		.fpu softvfp
 965              		.type	ibqGetTimeout, %function
 966              	ibqGetTimeout:
 967              	.LVL49:
 968              	.LFB408:
 969              		.loc 1 309 73 is_stmt 1 view -0
ARM GAS  /tmp/cc9meDp5.s 			page 18


 970              		.cfi_startproc
 971              		@ args = 0, pretend = 0, frame = 0
 972              		@ frame_needed = 0, uses_anonymous_args = 0
 973              		.loc 1 309 73 is_stmt 0 view .LVU301
 974 0000 70B5     		push	{r4, r5, r6, lr}
 975              		.cfi_def_cfa_offset 16
 976              		.cfi_offset 4, -16
 977              		.cfi_offset 5, -12
 978              		.cfi_offset 6, -8
 979              		.cfi_offset 14, -4
 980              	.LBB406:
 981              	.LBB407:
 982              	.LBB408:
 983              	.LBB409:
 984              	.LBB410:
 985              		.loc 7 493 3 view .LVU302
 986 0002 3023     		movs	r3, #48
 987              	.LBE410:
 988              	.LBE409:
 989              	.LBE408:
 990              	.LBE407:
 991              	.LBE406:
 992              		.loc 1 309 73 view .LVU303
 993 0004 0446     		mov	r4, r0
 994              		.loc 1 310 3 is_stmt 1 view .LVU304
 995              		.loc 1 312 3 view .LVU305
 996              	.LBB418:
 997              	.LBI406:
 998              		.loc 2 573 20 view .LVU306
 999              	.LBE418:
 1000              		.loc 2 575 3 view .LVU307
 1001              	.LBB419:
 1002              	.LBB415:
 1003              	.LBI407:
 1004              		.loc 5 407 20 view .LVU308
 1005              	.LBE415:
 1006              	.LBE419:
 1007              		.loc 5 409 3 view .LVU309
 1008              	.LBB420:
 1009              	.LBB416:
 1010              	.LBB413:
 1011              	.LBI408:
 1012              		.loc 6 806 27 view .LVU310
 1013              	.LBE413:
 1014              	.LBE416:
 1015              	.LBE420:
 1016              		.loc 6 814 3 view .LVU311
 1017              	.LVL50:
 1018              	.LBB421:
 1019              	.LBB417:
 1020              	.LBB414:
 1021              	.LBB412:
 1022              	.LBI409:
 1023              		.loc 7 491 27 view .LVU312
 1024              	.LBB411:
 1025              		.loc 7 493 3 view .LVU313
 1026              		.syntax unified
ARM GAS  /tmp/cc9meDp5.s 			page 19


 1027              	@ 493 "../ChibiOS/os/common/ext/ARM/CMSIS/Core/Include/cmsis_gcc.h" 1
 1028 0006 83F31188 		MSR basepri, r3
 1029              	@ 0 "" 2
 1030              	.LVL51:
 1031              		.loc 7 493 3 is_stmt 0 view .LVU314
 1032              		.thumb
 1033              		.syntax unified
 1034              	.LBE411:
 1035              	.LBE412:
 1036              	.LBE414:
 1037              	.LBE417:
 1038              	.LBE421:
 1039              		.loc 5 410 35 is_stmt 1 view .LVU315
 1040              		.loc 5 411 21 view .LVU316
 1041              		.loc 1 315 3 view .LVU317
 1042              		.loc 1 315 11 is_stmt 0 view .LVU318
 1043 000a 836A     		ldr	r3, [r0, #40]
 1044              		.loc 1 315 6 view .LVU319
 1045 000c 13B3     		cbz	r3, .L53
 1046              		.loc 1 329 24 view .LVU320
 1047 000e C26A     		ldr	r2, [r0, #44]
 1048              	.L39:
 1049              		.loc 1 324 3 is_stmt 1 view .LVU321
 1050              		.loc 1 324 7 is_stmt 0 view .LVU322
 1051 0010 13F8016B 		ldrb	r6, [r3], #1	@ zero_extendqisi2
 1052              	.LVL52:
 1053              		.loc 1 325 3 is_stmt 1 view .LVU323
 1054              		.loc 1 325 12 is_stmt 0 view .LVU324
 1055 0014 A362     		str	r3, [r4, #40]
 1056              		.loc 1 329 3 is_stmt 1 view .LVU325
 1057              		.loc 1 329 6 is_stmt 0 view .LVU326
 1058 0016 9342     		cmp	r3, r2
 1059 0018 04D2     		bcs	.L55
 1060              	.LVL53:
 1061              	.L40:
 1062              		.loc 1 317 5 is_stmt 1 view .LVU327
 1063              		.loc 1 318 7 view .LVU328
 1064              	.LBB422:
 1065              	.LBI422:
 1066              		.loc 2 584 20 view .LVU329
 1067              	.LBE422:
 1068              		.loc 2 586 3 view .LVU330
 1069              	.LBB439:
 1070              	.LBB423:
 1071              	.LBI423:
 1072              		.loc 5 421 20 view .LVU331
 1073              	.LBB424:
 1074              		.loc 5 423 23 view .LVU332
 1075              		.loc 5 424 34 view .LVU333
 1076              		.loc 5 430 3 view .LVU334
 1077              		.loc 5 430 3 view .LVU335
 1078              		.loc 5 430 3 view .LVU336
 1079              		.loc 5 434 3 view .LVU337
 1080              	.LBB425:
 1081              	.LBI425:
 1082              		.loc 6 830 27 view .LVU338
 1083              	.LBE425:
ARM GAS  /tmp/cc9meDp5.s 			page 20


 1084              	.LBE424:
 1085              	.LBE423:
 1086              	.LBE439:
 1087              		.loc 6 833 3 view .LVU339
 1088              	.LBB440:
 1089              	.LBB436:
 1090              	.LBB433:
 1091              	.LBB430:
 1092              	.LBB426:
 1093              	.LBI426:
 1094              		.loc 7 491 27 view .LVU340
 1095              	.LBB427:
 1096              		.loc 7 493 3 view .LVU341
 1097 001a 0023     		movs	r3, #0
 1098              		.syntax unified
 1099              	@ 493 "../ChibiOS/os/common/ext/ARM/CMSIS/Core/Include/cmsis_gcc.h" 1
 1100 001c 83F31188 		MSR basepri, r3
 1101              	@ 0 "" 2
 1102              	.LVL54:
 1103              		.loc 7 493 3 is_stmt 0 view .LVU342
 1104              		.thumb
 1105              		.syntax unified
 1106              	.LBE427:
 1107              	.LBE426:
 1108              	.LBE430:
 1109              	.LBE433:
 1110              	.LBE436:
 1111              	.LBE440:
 1112              		.loc 1 319 7 is_stmt 1 view .LVU343
 1113              		.loc 1 335 1 is_stmt 0 view .LVU344
 1114 0020 3046     		mov	r0, r6
 1115 0022 70BD     		pop	{r4, r5, r6, pc}
 1116              	.LVL55:
 1117              	.L55:
 1118              		.loc 1 330 5 is_stmt 1 view .LVU345
 1119              	.LBB441:
 1120              	.LBI441:
 1121              		.loc 1 269 8 view .LVU346
 1122              	.LBB442:
 1123              		.loc 1 271 23 view .LVU347
 1124              		.loc 1 272 3 view .LVU348
 1125              		.loc 1 272 3 view .LVU349
 1126              		.loc 1 272 3 view .LVU350
 1127              		.loc 1 275 3 view .LVU351
 1128              		.loc 1 276 16 is_stmt 0 view .LVU352
 1129 0024 6369     		ldr	r3, [r4, #20]
 1130 0026 E169     		ldr	r1, [r4, #28]
 1131              	.LVL56:
 1132              		.loc 1 275 7 view .LVU353
 1133 0028 E268     		ldr	r2, [r4, #12]
 1134              		.loc 1 276 16 view .LVU354
 1135 002a 0B44     		add	r3, r3, r1
 1136              		.loc 1 277 6 view .LVU355
 1137 002c A169     		ldr	r1, [r4, #24]
 1138              		.loc 1 276 16 view .LVU356
 1139 002e 6361     		str	r3, [r4, #20]
 1140              		.loc 1 277 6 view .LVU357
ARM GAS  /tmp/cc9meDp5.s 			page 21


 1141 0030 8B42     		cmp	r3, r1
 1142              		.loc 1 278 18 view .LVU358
 1143 0032 24BF     		itt	cs
 1144 0034 636A     		ldrcs	r3, [r4, #36]
 1145 0036 6361     		strcs	r3, [r4, #20]
 1146              		.loc 1 275 17 view .LVU359
 1147 0038 013A     		subs	r2, r2, #1
 1148              		.loc 1 285 11 view .LVU360
 1149 003a 236B     		ldr	r3, [r4, #48]
 1150              		.loc 1 275 17 view .LVU361
 1151 003c E260     		str	r2, [r4, #12]
 1152              		.loc 1 276 3 is_stmt 1 view .LVU362
 1153              		.loc 1 277 3 view .LVU363
 1154              		.loc 1 278 5 view .LVU364
 1155              		.loc 1 282 3 view .LVU365
 1156              		.loc 1 282 13 is_stmt 0 view .LVU366
 1157 003e 0022     		movs	r2, #0
 1158 0040 A262     		str	r2, [r4, #40]
 1159              		.loc 1 285 3 is_stmt 1 view .LVU367
 1160              		.loc 1 285 6 is_stmt 0 view .LVU368
 1161 0042 002B     		cmp	r3, #0
 1162 0044 E9D0     		beq	.L40
 1163              		.loc 1 286 5 is_stmt 1 view .LVU369
 1164 0046 2046     		mov	r0, r4
 1165              	.LVL57:
 1166              		.loc 1 286 5 is_stmt 0 view .LVU370
 1167 0048 9847     		blx	r3
 1168              	.LVL58:
 1169              		.loc 1 286 5 view .LVU371
 1170              	.LBE442:
 1171              	.LBE441:
 1172              		.loc 1 333 3 is_stmt 1 view .LVU372
 1173              	.LBB443:
 1174              	.LBI443:
 1175              		.loc 2 584 20 view .LVU373
 1176              	.LBE443:
 1177              		.loc 2 586 3 view .LVU374
 1178              	.LBB452:
 1179              	.LBB444:
 1180              	.LBI444:
 1181              		.loc 5 421 20 view .LVU375
 1182              	.LBB445:
 1183              		.loc 5 423 23 view .LVU376
 1184              		.loc 5 424 34 view .LVU377
 1185              		.loc 5 430 3 view .LVU378
 1186              		.loc 5 430 3 view .LVU379
 1187              		.loc 5 430 3 view .LVU380
 1188              		.loc 5 434 3 view .LVU381
 1189              	.LBB446:
 1190              	.LBI446:
 1191              		.loc 6 830 27 view .LVU382
 1192              	.LBE446:
 1193              	.LBE445:
 1194              	.LBE444:
 1195              	.LBE452:
 1196              		.loc 6 833 3 view .LVU383
 1197              	.LBB453:
ARM GAS  /tmp/cc9meDp5.s 			page 22


 1198              	.LBB451:
 1199              	.LBB450:
 1200              	.LBB449:
 1201              	.LBB447:
 1202              	.LBI447:
 1203              		.loc 7 491 27 view .LVU384
 1204              	.LBB448:
 1205              		.loc 7 493 3 view .LVU385
 1206              		.loc 7 493 3 is_stmt 0 view .LVU386
 1207              	.LBE448:
 1208              	.LBE447:
 1209              	.LBE449:
 1210              	.LBE450:
 1211              	.LBE451:
 1212              	.LBE453:
 1213              		.loc 1 317 5 is_stmt 1 view .LVU387
 1214              		.loc 1 318 7 view .LVU388
 1215              	.LBB454:
 1216              		.loc 2 584 20 view .LVU389
 1217              	.LBE454:
 1218              		.loc 2 586 3 view .LVU390
 1219              	.LBB455:
 1220              	.LBB437:
 1221              		.loc 5 421 20 view .LVU391
 1222              	.LBB434:
 1223              		.loc 5 423 23 view .LVU392
 1224              		.loc 5 424 34 view .LVU393
 1225              		.loc 5 430 3 view .LVU394
 1226              		.loc 5 430 3 view .LVU395
 1227              		.loc 5 430 3 view .LVU396
 1228              		.loc 5 434 3 view .LVU397
 1229              	.LBB431:
 1230              		.loc 6 830 27 view .LVU398
 1231              	.LBE431:
 1232              	.LBE434:
 1233              	.LBE437:
 1234              	.LBE455:
 1235              		.loc 6 833 3 view .LVU399
 1236              	.LBB456:
 1237              	.LBB438:
 1238              	.LBB435:
 1239              	.LBB432:
 1240              	.LBB429:
 1241              		.loc 7 491 27 view .LVU400
 1242              	.LBB428:
 1243              		.loc 7 493 3 view .LVU401
 1244 004a 0023     		movs	r3, #0
 1245              		.syntax unified
 1246              	@ 493 "../ChibiOS/os/common/ext/ARM/CMSIS/Core/Include/cmsis_gcc.h" 1
 1247 004c 83F31188 		MSR basepri, r3
 1248              	@ 0 "" 2
 1249              	.LVL59:
 1250              		.loc 7 493 3 is_stmt 0 view .LVU402
 1251              		.thumb
 1252              		.syntax unified
 1253              	.LBE428:
 1254              	.LBE429:
ARM GAS  /tmp/cc9meDp5.s 			page 23


 1255              	.LBE432:
 1256              	.LBE435:
 1257              	.LBE438:
 1258              	.LBE456:
 1259              		.loc 1 319 7 is_stmt 1 view .LVU403
 1260              		.loc 1 335 1 is_stmt 0 view .LVU404
 1261 0050 3046     		mov	r0, r6
 1262 0052 70BD     		pop	{r4, r5, r6, pc}
 1263              	.LVL60:
 1264              	.L53:
 1265              		.loc 1 335 1 view .LVU405
 1266 0054 0D46     		mov	r5, r1
 1267 0056 05E0     		b	.L38
 1268              	.LVL61:
 1269              	.L41:
 1270              	.LBB457:
 1271              	.LBB458:
 1272              	.LBB459:
 1273              		.loc 1 228 8 view .LVU406
 1274 0058 237A     		ldrb	r3, [r4, #8]	@ zero_extendqisi2
 1275 005a 7BB9     		cbnz	r3, .L47
 1276              	.LBB460:
 1277              	.LBB461:
 1278              		.loc 2 895 10 view .LVU407
 1279 005c FFF7FEFF 		bl	chThdEnqueueTimeoutS
 1280              	.LVL62:
 1281              		.loc 2 895 10 view .LVU408
 1282              	.LBE461:
 1283              	.LBE460:
 1284              		.loc 1 232 5 is_stmt 1 view .LVU409
 1285              		.loc 1 232 8 is_stmt 0 view .LVU410
 1286 0060 061E     		subs	r6, r0, #0
 1287 0062 DADB     		blt	.L40
 1288              	.LVL63:
 1289              	.L38:
 1290              		.loc 1 228 5 is_stmt 1 view .LVU411
 1291              		.loc 1 231 5 view .LVU412
 1292              	.LBB464:
 1293              	.LBI460:
 1294              		.loc 2 892 21 view .LVU413
 1295              	.LBB462:
 1296              		.loc 2 895 3 view .LVU414
 1297              	.LBE462:
 1298              	.LBE464:
 1299              	.LBE459:
 1300              		.loc 1 227 9 view .LVU415
 1301              		.loc 1 227 10 is_stmt 0 view .LVU416
 1302 0064 E368     		ldr	r3, [r4, #12]
 1303              	.LBB466:
 1304              	.LBB465:
 1305              	.LBB463:
 1306              		.loc 2 895 10 view .LVU417
 1307 0066 2946     		mov	r1, r5
 1308 0068 2046     		mov	r0, r4
 1309              	.LBE463:
 1310              	.LBE465:
 1311              	.LBE466:
ARM GAS  /tmp/cc9meDp5.s 			page 24


 1312              		.loc 1 227 9 view .LVU418
 1313 006a 002B     		cmp	r3, #0
 1314 006c F4D0     		beq	.L41
 1315              	.LVL64:
 1316              	.LBB467:
 1317              	.LBI467:
 1318              		.loc 1 222 9 is_stmt 1 view .LVU419
 1319              	.LBB468:
 1320              		.loc 1 237 3 view .LVU420
 1321              		.loc 1 237 3 view .LVU421
 1322              		.loc 1 237 3 view .LVU422
 1323              		.loc 1 240 3 view .LVU423
 1324              		.loc 1 240 19 is_stmt 0 view .LVU424
 1325 006e 6369     		ldr	r3, [r4, #20]
 1326              		.loc 1 241 25 view .LVU425
 1327 0070 1A68     		ldr	r2, [r3]
 1328              		.loc 1 240 28 view .LVU426
 1329 0072 0433     		adds	r3, r3, #4
 1330              		.loc 1 241 25 view .LVU427
 1331 0074 1A44     		add	r2, r2, r3
 1332              		.loc 1 241 13 view .LVU428
 1333 0076 C4E90A32 		strd	r3, r2, [r4, #40]
 1334              		.loc 1 243 3 is_stmt 1 view .LVU429
 1335              	.LVL65:
 1336              		.loc 1 243 3 is_stmt 0 view .LVU430
 1337              	.LBE468:
 1338              	.LBE467:
 1339              	.LBE458:
 1340              	.LBE457:
 1341              		.loc 1 317 5 is_stmt 1 view .LVU431
 1342 007a C9E7     		b	.L39
 1343              	.LVL66:
 1344              	.L47:
 1345              	.LBB471:
 1346              	.LBB470:
 1347              	.LBB469:
 1348              		.loc 1 229 14 is_stmt 0 view .LVU432
 1349 007c 6FF00106 		mvn	r6, #1
 1350 0080 CBE7     		b	.L40
 1351              	.LBE469:
 1352              	.LBE470:
 1353              	.LBE471:
 1354              		.cfi_endproc
 1355              	.LFE408:
 1356              		.size	ibqGetTimeout, .-ibqGetTimeout
 1357 0082 00BF     		.section	.text.ibqReadTimeout,"ax",%progbits
 1358              		.align	1
 1359              		.p2align 4,,15
 1360              		.global	ibqReadTimeout
 1361              		.syntax unified
 1362              		.thumb
 1363              		.thumb_func
 1364              		.fpu softvfp
 1365              		.type	ibqReadTimeout, %function
 1366              	ibqReadTimeout:
 1367              	.LVL67:
 1368              	.LFB409:
ARM GAS  /tmp/cc9meDp5.s 			page 25


 1369              		.loc 1 359 56 is_stmt 1 view -0
 1370              		.cfi_startproc
 1371              		@ args = 0, pretend = 0, frame = 0
 1372              		@ frame_needed = 0, uses_anonymous_args = 0
 1373              		.loc 1 360 3 view .LVU434
 1374              		.loc 1 362 3 view .LVU435
 1375              		.loc 1 362 3 view .LVU436
 1376              		.loc 1 362 3 view .LVU437
 1377              		.loc 1 364 3 view .LVU438
 1378              	.LBB510:
 1379              	.LBI510:
 1380              		.loc 2 573 20 view .LVU439
 1381              	.LBB511:
 1382              		.loc 2 575 3 view .LVU440
 1383              	.LBB512:
 1384              	.LBI512:
 1385              		.loc 5 407 20 view .LVU441
 1386              	.LBE512:
 1387              	.LBE511:
 1388              	.LBE510:
 1389              		.loc 5 409 3 view .LVU442
 1390              	.LBB526:
 1391              	.LBB523:
 1392              	.LBB520:
 1393              	.LBB513:
 1394              	.LBI513:
 1395              		.loc 6 806 27 view .LVU443
 1396              	.LBE513:
 1397              	.LBE520:
 1398              	.LBE523:
 1399              	.LBE526:
 1400              		.loc 6 814 3 view .LVU444
 1401              	.LBB527:
 1402              	.LBB524:
 1403              	.LBB521:
 1404              	.LBB518:
 1405              	.LBB514:
 1406              	.LBI514:
 1407              		.loc 7 491 27 view .LVU445
 1408              	.LBB515:
 1409              		.loc 7 493 3 view .LVU446
 1410              	.LBE515:
 1411              	.LBE514:
 1412              	.LBE518:
 1413              	.LBE521:
 1414              	.LBE524:
 1415              	.LBE527:
 1416              		.loc 1 359 56 is_stmt 0 view .LVU447
 1417 0000 2DE9F84F 		push	{r3, r4, r5, r6, r7, r8, r9, r10, fp, lr}
 1418              		.cfi_def_cfa_offset 40
 1419              		.cfi_offset 3, -40
 1420              		.cfi_offset 4, -36
 1421              		.cfi_offset 5, -32
 1422              		.cfi_offset 6, -28
 1423              		.cfi_offset 7, -24
 1424              		.cfi_offset 8, -20
 1425              		.cfi_offset 9, -16
ARM GAS  /tmp/cc9meDp5.s 			page 26


 1426              		.cfi_offset 10, -12
 1427              		.cfi_offset 11, -8
 1428              		.cfi_offset 14, -4
 1429              		.loc 1 359 56 view .LVU448
 1430 0004 8246     		mov	r10, r0
 1431 0006 0D46     		mov	r5, r1
 1432 0008 1646     		mov	r6, r2
 1433 000a 1F46     		mov	r7, r3
 1434              	.LBB528:
 1435              	.LBB525:
 1436              	.LBB522:
 1437              	.LBB519:
 1438              	.LBB517:
 1439              	.LBB516:
 1440              		.loc 7 493 3 view .LVU449
 1441 000c 4FF03009 		mov	r9, #48
 1442              		.syntax unified
 1443              	@ 493 "../ChibiOS/os/common/ext/ARM/CMSIS/Core/Include/cmsis_gcc.h" 1
 1444 0010 89F31188 		MSR basepri, r9
 1445              	@ 0 "" 2
 1446              	.LVL68:
 1447              		.loc 7 493 3 view .LVU450
 1448              		.thumb
 1449              		.syntax unified
 1450              	.LBE516:
 1451              	.LBE517:
 1452              	.LBE519:
 1453              	.LBE522:
 1454              	.LBE525:
 1455              	.LBE528:
 1456              		.loc 5 410 35 is_stmt 1 view .LVU451
 1457              		.loc 5 411 21 view .LVU452
 1458              		.loc 1 360 10 is_stmt 0 view .LVU453
 1459 0014 0024     		movs	r4, #0
 1460              	.LBB529:
 1461              	.LBB530:
 1462              	.LBB531:
 1463              		.loc 1 282 13 view .LVU454
 1464 0016 A046     		mov	r8, r4
 1465              	.LVL69:
 1466              	.L69:
 1467              		.loc 1 282 13 view .LVU455
 1468              	.LBE531:
 1469              	.LBE530:
 1470              	.LBE529:
 1471              		.loc 1 366 3 is_stmt 1 view .LVU456
 1472              	.LBB587:
 1473              		.loc 1 367 5 view .LVU457
 1474              		.loc 1 370 5 view .LVU458
 1475              		.loc 1 370 13 is_stmt 0 view .LVU459
 1476 0018 DAF82810 		ldr	r1, [r10, #40]
 1477              		.loc 1 370 8 view .LVU460
 1478 001c D1B3     		cbz	r1, .L57
 1479              		.loc 1 384 24 view .LVU461
 1480 001e DAF82C20 		ldr	r2, [r10, #44]
 1481              	.L58:
 1482              		.loc 1 384 5 is_stmt 1 view .LVU462
ARM GAS  /tmp/cc9meDp5.s 			page 27


 1483              		.loc 1 385 19 is_stmt 0 view .LVU463
 1484 0022 A6EB040B 		sub	fp, r6, r4
 1485              		.loc 1 384 10 view .LVU464
 1486 0026 521A     		subs	r2, r2, r1
 1487              	.LVL70:
 1488              		.loc 1 385 5 is_stmt 1 view .LVU465
 1489 0028 9345     		cmp	fp, r2
 1490 002a 28BF     		it	cs
 1491 002c 9346     		movcs	fp, r2
 1492              	.LVL71:
 1493              		.loc 1 391 5 view .LVU466
 1494              		.loc 1 391 8 is_stmt 0 view .LVU467
 1495 002e BBF1400F 		cmp	fp, #64
 1496 0032 3DD9     		bls	.L61
 1497              		.loc 1 393 7 is_stmt 1 view .LVU468
 1498 0034 2B46     		mov	r3, r5
 1499 0036 01F1400B 		add	fp, r1, #64
 1500              	.LVL72:
 1501              	.L62:
 1502              		.loc 1 393 7 is_stmt 0 view .LVU469
 1503 003a D1F800C0 		ldr	ip, [r1]	@ unaligned
 1504 003e 4868     		ldr	r0, [r1, #4]	@ unaligned
 1505 0040 8A68     		ldr	r2, [r1, #8]	@ unaligned
 1506 0042 D1F80CE0 		ldr	lr, [r1, #12]	@ unaligned
 1507 0046 C3F80CE0 		str	lr, [r3, #12]	@ unaligned
 1508 004a 1031     		adds	r1, r1, #16
 1509 004c 5945     		cmp	r1, fp
 1510 004e C3F800C0 		str	ip, [r3]	@ unaligned
 1511 0052 5860     		str	r0, [r3, #4]	@ unaligned
 1512 0054 9A60     		str	r2, [r3, #8]	@ unaligned
 1513 0056 03F11003 		add	r3, r3, #16
 1514 005a EED1     		bne	.L62
 1515              		.loc 1 394 7 is_stmt 1 view .LVU470
 1516              		.loc 1 395 17 is_stmt 0 view .LVU471
 1517 005c DAF82830 		ldr	r3, [r10, #40]
 1518              		.loc 1 406 8 view .LVU472
 1519 0060 DAF82C20 		ldr	r2, [r10, #44]
 1520              		.loc 1 395 17 view .LVU473
 1521 0064 4033     		adds	r3, r3, #64
 1522              		.loc 1 406 8 view .LVU474
 1523 0066 9A42     		cmp	r2, r3
 1524              		.loc 1 394 17 view .LVU475
 1525 0068 05F14005 		add	r5, r5, #64
 1526              	.LVL73:
 1527              		.loc 1 395 7 is_stmt 1 view .LVU476
 1528              		.loc 1 395 17 is_stmt 0 view .LVU477
 1529 006c CAF82830 		str	r3, [r10, #40]
 1530              		.loc 1 396 7 is_stmt 1 view .LVU478
 1531              		.loc 1 396 17 is_stmt 0 view .LVU479
 1532 0070 04F14004 		add	r4, r4, #64
 1533              	.LVL74:
 1534              		.loc 1 406 5 is_stmt 1 view .LVU480
 1535              		.loc 1 406 8 is_stmt 0 view .LVU481
 1536 0074 2BD9     		bls	.L77
 1537              	.L65:
 1538              		.loc 1 411 5 is_stmt 1 view .LVU482
 1539              	.LBB533:
ARM GAS  /tmp/cc9meDp5.s 			page 28


 1540              	.LBI533:
 1541              		.loc 2 584 20 view .LVU483
 1542              	.LBE533:
 1543              	.LBE587:
 1544              		.loc 2 586 3 view .LVU484
 1545              	.LBB588:
 1546              	.LBB542:
 1547              	.LBB534:
 1548              	.LBI534:
 1549              		.loc 5 421 20 view .LVU485
 1550              	.LBB535:
 1551              		.loc 5 423 23 view .LVU486
 1552              		.loc 5 424 34 view .LVU487
 1553              		.loc 5 430 3 view .LVU488
 1554              		.loc 5 430 3 view .LVU489
 1555              		.loc 5 430 3 view .LVU490
 1556              		.loc 5 434 3 view .LVU491
 1557              	.LBB536:
 1558              	.LBI536:
 1559              		.loc 6 830 27 view .LVU492
 1560              	.LBE536:
 1561              	.LBE535:
 1562              	.LBE534:
 1563              	.LBE542:
 1564              	.LBE588:
 1565              		.loc 6 833 3 view .LVU493
 1566              	.LVL75:
 1567              	.LBB589:
 1568              	.LBB543:
 1569              	.LBB541:
 1570              	.LBB540:
 1571              	.LBB539:
 1572              	.LBB537:
 1573              	.LBI537:
 1574              		.loc 7 491 27 view .LVU494
 1575              	.LBB538:
 1576              		.loc 7 493 3 view .LVU495
 1577              		.syntax unified
 1578              	@ 493 "../ChibiOS/os/common/ext/ARM/CMSIS/Core/Include/cmsis_gcc.h" 1
 1579 0076 88F31188 		MSR basepri, r8
 1580              	@ 0 "" 2
 1581              	.LVL76:
 1582              		.loc 7 493 3 is_stmt 0 view .LVU496
 1583              		.thumb
 1584              		.syntax unified
 1585              	.LBE538:
 1586              	.LBE537:
 1587              	.LBE539:
 1588              	.LBE540:
 1589              	.LBE541:
 1590              	.LBE543:
 1591              		.loc 1 412 5 is_stmt 1 view .LVU497
 1592              		.loc 1 412 8 is_stmt 0 view .LVU498
 1593 007a B442     		cmp	r4, r6
 1594 007c 45D2     		bcs	.L56
 1595              		.loc 1 415 5 is_stmt 1 view .LVU499
 1596              	.LBB544:
ARM GAS  /tmp/cc9meDp5.s 			page 29


 1597              	.LBI544:
 1598              		.loc 2 573 20 view .LVU500
 1599              	.LBB545:
 1600              		.loc 2 575 3 view .LVU501
 1601              	.LBB546:
 1602              	.LBI546:
 1603              		.loc 5 407 20 view .LVU502
 1604              	.LBE546:
 1605              	.LBE545:
 1606              	.LBE544:
 1607              	.LBE589:
 1608              		.loc 5 409 3 view .LVU503
 1609              	.LBB590:
 1610              	.LBB556:
 1611              	.LBB553:
 1612              	.LBB551:
 1613              	.LBB547:
 1614              	.LBI547:
 1615              		.loc 6 806 27 view .LVU504
 1616              	.LBE547:
 1617              	.LBE551:
 1618              	.LBE553:
 1619              	.LBE556:
 1620              	.LBE590:
 1621              		.loc 6 814 3 view .LVU505
 1622              	.LVL77:
 1623              	.LBB591:
 1624              	.LBB557:
 1625              	.LBB554:
 1626              	.LBB552:
 1627              	.LBB550:
 1628              	.LBB548:
 1629              	.LBI548:
 1630              		.loc 7 491 27 view .LVU506
 1631              	.LBB549:
 1632              		.loc 7 493 3 view .LVU507
 1633              		.syntax unified
 1634              	@ 493 "../ChibiOS/os/common/ext/ARM/CMSIS/Core/Include/cmsis_gcc.h" 1
 1635 007e 89F31188 		MSR basepri, r9
 1636              	@ 0 "" 2
 1637              	.LVL78:
 1638              		.loc 7 493 3 is_stmt 0 view .LVU508
 1639              		.thumb
 1640              		.syntax unified
 1641              	.LBE549:
 1642              	.LBE548:
 1643              	.LBE550:
 1644              	.LBE552:
 1645              	.LBE554:
 1646              	.LBE557:
 1647              	.LBE591:
 1648              		.loc 5 410 35 is_stmt 1 view .LVU509
 1649              		.loc 5 411 21 view .LVU510
 1650              	.LBB592:
 1651              	.LBB558:
 1652              	.LBB555:
 1653              		.loc 2 576 1 is_stmt 0 view .LVU511
ARM GAS  /tmp/cc9meDp5.s 			page 30


 1654 0082 C9E7     		b	.L69
 1655              	.LVL79:
 1656              	.L60:
 1657              		.loc 2 576 1 view .LVU512
 1658              	.LBE555:
 1659              	.LBE558:
 1660              	.LBB559:
 1661              	.LBB560:
 1662              	.LBB561:
 1663              	.LBB562:
 1664              		.loc 1 228 8 view .LVU513
 1665 0084 9AF80830 		ldrb	r3, [r10, #8]	@ zero_extendqisi2
 1666 0088 002B     		cmp	r3, #0
 1667 008a 3BD1     		bne	.L59
 1668              	.LBB563:
 1669              	.LBB564:
 1670              		.loc 2 895 10 view .LVU514
 1671 008c FFF7FEFF 		bl	chThdEnqueueTimeoutS
 1672              	.LVL80:
 1673              		.loc 2 895 10 view .LVU515
 1674              	.LBE564:
 1675              	.LBE563:
 1676              		.loc 1 232 5 is_stmt 1 view .LVU516
 1677              		.loc 1 232 8 is_stmt 0 view .LVU517
 1678 0090 0028     		cmp	r0, #0
 1679 0092 37DB     		blt	.L59
 1680              	.LVL81:
 1681              	.L57:
 1682              		.loc 1 228 5 is_stmt 1 view .LVU518
 1683              		.loc 1 231 5 view .LVU519
 1684              	.LBB567:
 1685              	.LBI563:
 1686              		.loc 2 892 21 view .LVU520
 1687              	.LBB565:
 1688              		.loc 2 895 3 view .LVU521
 1689              	.LBE565:
 1690              	.LBE567:
 1691              	.LBE562:
 1692              		.loc 1 227 9 view .LVU522
 1693              		.loc 1 227 10 is_stmt 0 view .LVU523
 1694 0094 DAF80C30 		ldr	r3, [r10, #12]
 1695              	.LBB569:
 1696              	.LBB568:
 1697              	.LBB566:
 1698              		.loc 2 895 10 view .LVU524
 1699 0098 3946     		mov	r1, r7
 1700 009a 5046     		mov	r0, r10
 1701              	.LBE566:
 1702              	.LBE568:
 1703              	.LBE569:
 1704              		.loc 1 227 9 view .LVU525
 1705 009c 002B     		cmp	r3, #0
 1706 009e F1D0     		beq	.L60
 1707              	.LVL82:
 1708              	.LBB570:
 1709              	.LBI570:
 1710              		.loc 1 222 9 is_stmt 1 view .LVU526
ARM GAS  /tmp/cc9meDp5.s 			page 31


 1711              	.LBB571:
 1712              		.loc 1 237 3 view .LVU527
 1713              		.loc 1 237 3 view .LVU528
 1714              		.loc 1 237 3 view .LVU529
 1715              		.loc 1 240 3 view .LVU530
 1716              		.loc 1 240 19 is_stmt 0 view .LVU531
 1717 00a0 DAF81410 		ldr	r1, [r10, #20]
 1718              	.LVL83:
 1719              		.loc 1 241 25 view .LVU532
 1720 00a4 0A68     		ldr	r2, [r1]
 1721              		.loc 1 240 28 view .LVU533
 1722 00a6 0431     		adds	r1, r1, #4
 1723              		.loc 1 241 25 view .LVU534
 1724 00a8 0A44     		add	r2, r2, r1
 1725              		.loc 1 241 13 view .LVU535
 1726 00aa CAE90A12 		strd	r1, r2, [r10, #40]
 1727              		.loc 1 243 3 is_stmt 1 view .LVU536
 1728              	.LVL84:
 1729              		.loc 1 243 3 is_stmt 0 view .LVU537
 1730              	.LBE571:
 1731              	.LBE570:
 1732              	.LBE561:
 1733              	.LBE560:
 1734              		.loc 1 377 7 is_stmt 1 view .LVU538
 1735 00ae B8E7     		b	.L58
 1736              	.LVL85:
 1737              	.L61:
 1738              		.loc 1 377 7 is_stmt 0 view .LVU539
 1739              	.LBE559:
 1740              		.loc 1 399 7 is_stmt 1 view .LVU540
 1741 00b0 2846     		mov	r0, r5
 1742 00b2 5A46     		mov	r2, fp
 1743 00b4 FFF7FEFF 		bl	memcpy
 1744              	.LVL86:
 1745              		.loc 1 400 7 view .LVU541
 1746              		.loc 1 401 17 is_stmt 0 view .LVU542
 1747 00b8 DAF82830 		ldr	r3, [r10, #40]
 1748              		.loc 1 406 8 view .LVU543
 1749 00bc DAF82C20 		ldr	r2, [r10, #44]
 1750              		.loc 1 401 17 view .LVU544
 1751 00c0 5B44     		add	r3, r3, fp
 1752              		.loc 1 406 8 view .LVU545
 1753 00c2 9A42     		cmp	r2, r3
 1754              		.loc 1 400 17 view .LVU546
 1755 00c4 5D44     		add	r5, r5, fp
 1756              	.LVL87:
 1757              		.loc 1 401 7 is_stmt 1 view .LVU547
 1758              		.loc 1 401 17 is_stmt 0 view .LVU548
 1759 00c6 CAF82830 		str	r3, [r10, #40]
 1760              		.loc 1 402 7 is_stmt 1 view .LVU549
 1761              		.loc 1 402 17 is_stmt 0 view .LVU550
 1762 00ca 5C44     		add	r4, r4, fp
 1763              	.LVL88:
 1764              		.loc 1 406 5 is_stmt 1 view .LVU551
 1765              		.loc 1 406 8 is_stmt 0 view .LVU552
 1766 00cc D3D8     		bhi	.L65
 1767              	.LVL89:
ARM GAS  /tmp/cc9meDp5.s 			page 32


 1768              	.L77:
 1769              		.loc 1 407 7 is_stmt 1 view .LVU553
 1770              	.LBB583:
 1771              	.LBI530:
 1772              		.loc 1 269 8 view .LVU554
 1773              	.LBB532:
 1774              		.loc 1 271 23 view .LVU555
 1775              		.loc 1 272 3 view .LVU556
 1776              		.loc 1 272 3 view .LVU557
 1777              		.loc 1 272 3 view .LVU558
 1778              		.loc 1 275 3 view .LVU559
 1779              		.loc 1 277 6 is_stmt 0 view .LVU560
 1780 00ce DAE90621 		ldrd	r2, r1, [r10, #24]
 1781              		.loc 1 276 16 view .LVU561
 1782 00d2 DAF81430 		ldr	r3, [r10, #20]
 1783              		.loc 1 275 7 view .LVU562
 1784 00d6 DAF80C00 		ldr	r0, [r10, #12]
 1785              		.loc 1 282 13 view .LVU563
 1786 00da CAF82880 		str	r8, [r10, #40]
 1787              		.loc 1 276 16 view .LVU564
 1788 00de 0B44     		add	r3, r3, r1
 1789              		.loc 1 277 6 view .LVU565
 1790 00e0 9342     		cmp	r3, r2
 1791              		.loc 1 276 16 view .LVU566
 1792 00e2 CAF81430 		str	r3, [r10, #20]
 1793              		.loc 1 278 18 view .LVU567
 1794 00e6 24BF     		itt	cs
 1795 00e8 DAF82430 		ldrcs	r3, [r10, #36]
 1796 00ec CAF81430 		strcs	r3, [r10, #20]
 1797              		.loc 1 285 11 view .LVU568
 1798 00f0 DAF83030 		ldr	r3, [r10, #48]
 1799              		.loc 1 275 17 view .LVU569
 1800 00f4 0138     		subs	r0, r0, #1
 1801 00f6 CAF80C00 		str	r0, [r10, #12]
 1802              		.loc 1 276 3 is_stmt 1 view .LVU570
 1803              		.loc 1 277 3 view .LVU571
 1804              		.loc 1 278 5 view .LVU572
 1805              		.loc 1 282 3 view .LVU573
 1806              		.loc 1 285 3 view .LVU574
 1807              		.loc 1 285 6 is_stmt 0 view .LVU575
 1808 00fa 002B     		cmp	r3, #0
 1809 00fc BBD0     		beq	.L65
 1810              		.loc 1 286 5 is_stmt 1 view .LVU576
 1811 00fe 5046     		mov	r0, r10
 1812 0100 9847     		blx	r3
 1813              	.LVL90:
 1814 0102 B8E7     		b	.L65
 1815              	.LVL91:
 1816              	.L59:
 1817              		.loc 1 286 5 is_stmt 0 view .LVU577
 1818              	.LBE532:
 1819              	.LBE583:
 1820              	.LBB584:
 1821              		.loc 1 377 7 is_stmt 1 view .LVU578
 1822              		.loc 1 378 9 view .LVU579
 1823              	.LBB572:
 1824              	.LBI572:
ARM GAS  /tmp/cc9meDp5.s 			page 33


 1825              		.loc 2 584 20 view .LVU580
 1826              	.LBE572:
 1827              	.LBE584:
 1828              	.LBE592:
 1829              		.loc 2 586 3 view .LVU581
 1830              	.LBB593:
 1831              	.LBB585:
 1832              	.LBB581:
 1833              	.LBB573:
 1834              	.LBI573:
 1835              		.loc 5 421 20 view .LVU582
 1836              	.LBB574:
 1837              		.loc 5 423 23 view .LVU583
 1838              		.loc 5 424 34 view .LVU584
 1839              		.loc 5 430 3 view .LVU585
 1840              		.loc 5 430 3 view .LVU586
 1841              		.loc 5 430 3 view .LVU587
 1842              		.loc 5 434 3 view .LVU588
 1843              	.LBB575:
 1844              	.LBI575:
 1845              		.loc 6 830 27 view .LVU589
 1846              	.LBE575:
 1847              	.LBE574:
 1848              	.LBE573:
 1849              	.LBE581:
 1850              	.LBE585:
 1851              	.LBE593:
 1852              		.loc 6 833 3 view .LVU590
 1853              	.LBB594:
 1854              	.LBB586:
 1855              	.LBB582:
 1856              	.LBB580:
 1857              	.LBB579:
 1858              	.LBB578:
 1859              	.LBB576:
 1860              	.LBI576:
 1861              		.loc 7 491 27 view .LVU591
 1862              	.LBB577:
 1863              		.loc 7 493 3 view .LVU592
 1864 0104 0023     		movs	r3, #0
 1865              		.syntax unified
 1866              	@ 493 "../ChibiOS/os/common/ext/ARM/CMSIS/Core/Include/cmsis_gcc.h" 1
 1867 0106 83F31188 		MSR basepri, r3
 1868              	@ 0 "" 2
 1869              	.LVL92:
 1870              		.loc 7 493 3 is_stmt 0 view .LVU593
 1871              		.thumb
 1872              		.syntax unified
 1873              	.LBE577:
 1874              	.LBE576:
 1875              	.LBE578:
 1876              	.LBE579:
 1877              	.LBE580:
 1878              	.LBE582:
 1879              		.loc 1 379 9 is_stmt 1 view .LVU594
 1880              	.L56:
 1881              		.loc 1 379 9 is_stmt 0 view .LVU595
ARM GAS  /tmp/cc9meDp5.s 			page 34


 1882              	.LBE586:
 1883              	.LBE594:
 1884              		.loc 1 417 1 view .LVU596
 1885 010a 2046     		mov	r0, r4
 1886 010c BDE8F88F 		pop	{r3, r4, r5, r6, r7, r8, r9, r10, fp, pc}
 1887              		.loc 1 417 1 view .LVU597
 1888              		.cfi_endproc
 1889              	.LFE409:
 1890              		.size	ibqReadTimeout, .-ibqReadTimeout
 1891              		.section	.text.obqObjectInit,"ax",%progbits
 1892              		.align	1
 1893              		.p2align 4,,15
 1894              		.global	obqObjectInit
 1895              		.syntax unified
 1896              		.thumb
 1897              		.thumb_func
 1898              		.fpu softvfp
 1899              		.type	obqObjectInit, %function
 1900              	obqObjectInit:
 1901              	.LVL93:
 1902              	.LFB410:
 1903              		.loc 1 433 72 is_stmt 1 view -0
 1904              		.cfi_startproc
 1905              		@ args = 12, pretend = 0, frame = 0
 1906              		@ frame_needed = 0, uses_anonymous_args = 0
 1907              		@ link register save eliminated.
 1908              		.loc 1 435 3 view .LVU599
 1909              		.loc 1 435 3 view .LVU600
 1910              		.loc 1 435 3 view .LVU601
 1911              		.loc 1 437 3 view .LVU602
 1912              		.loc 1 433 72 is_stmt 0 view .LVU603
 1913 0000 10B4     		push	{r4}
 1914              		.cfi_def_cfa_offset 4
 1915              		.cfi_offset 4, -4
 1916              		.loc 1 433 72 view .LVU604
 1917 0002 019C     		ldr	r4, [sp, #4]
 1918              	.LVL94:
 1919              	.LBB595:
 1920              	.LBI595:
 1921              		.loc 2 864 20 is_stmt 1 view .LVU605
 1922              	.LBE595:
 1923              		.loc 2 866 3 view .LVU606
 1924              	.LBB604:
 1925              	.LBB596:
 1926              	.LBI596:
 1927              		.loc 3 461 20 view .LVU607
 1928              	.LBB597:
 1929              		.loc 3 463 3 view .LVU608
 1930              	.LBB598:
 1931              	.LBI598:
 1932              		.loc 4 222 20 view .LVU609
 1933              	.LBB599:
 1934              		.loc 4 224 3 view .LVU610
 1935              	.LBE599:
 1936              	.LBE598:
 1937              	.LBE597:
 1938              	.LBE596:
ARM GAS  /tmp/cc9meDp5.s 			page 35


 1939              	.LBE604:
 1940              		.loc 1 438 19 is_stmt 0 view .LVU611
 1941 0004 0172     		strb	r1, [r0, #8]
 1942              		.loc 1 442 33 view .LVU612
 1943 0006 0433     		adds	r3, r3, #4
 1944              	.LVL95:
 1945              		.loc 1 442 24 view .LVU613
 1946 0008 03FB0421 		mla	r1, r3, r4, r2
 1947              	.LVL96:
 1948              		.loc 1 442 19 view .LVU614
 1949 000c 8161     		str	r1, [r0, #24]
 1950              		.loc 1 446 19 view .LVU615
 1951 000e 0021     		movs	r1, #0
 1952              		.loc 1 444 19 view .LVU616
 1953 0010 C0E90734 		strd	r3, r4, [r0, #28]
 1954              		.loc 1 441 19 view .LVU617
 1955 0014 C0E90422 		strd	r2, r2, [r0, #16]
 1956              		.loc 1 446 19 view .LVU618
 1957 0018 C0E90921 		strd	r2, r1, [r0, #36]
 1958              		.loc 1 433 72 view .LVU619
 1959 001c DDE90223 		ldrd	r2, r3, [sp, #8]
 1960              	.LVL97:
 1961              		.loc 1 439 19 view .LVU620
 1962 0020 C460     		str	r4, [r0, #12]
 1963              	.LBB605:
 1964              	.LBB603:
 1965              	.LBB602:
 1966              	.LBB601:
 1967              	.LBB600:
 1968              		.loc 4 225 12 view .LVU621
 1969 0022 C0E90000 		strd	r0, r0, [r0]
 1970              	.LVL98:
 1971              		.loc 4 225 12 view .LVU622
 1972              	.LBE600:
 1973              	.LBE601:
 1974              	.LBE602:
 1975              	.LBE603:
 1976              	.LBE605:
 1977              		.loc 1 438 3 is_stmt 1 view .LVU623
 1978              		.loc 1 439 3 view .LVU624
 1979              		.loc 1 440 3 view .LVU625
 1980              		.loc 1 442 3 view .LVU626
 1981              		.loc 1 443 3 view .LVU627
 1982              		.loc 1 445 3 view .LVU628
 1983              		.loc 1 447 3 view .LVU629
 1984              		.loc 1 449 19 is_stmt 0 view .LVU630
 1985 0026 C0E90C23 		strd	r2, r3, [r0, #48]
 1986              		.loc 1 450 1 view .LVU631
 1987 002a 10BC     		pop	{r4}
 1988              		.cfi_restore 4
 1989              		.cfi_def_cfa_offset 0
 1990              	.LVL99:
 1991              		.loc 1 447 19 view .LVU632
 1992 002c C162     		str	r1, [r0, #44]
 1993              		.loc 1 448 3 is_stmt 1 view .LVU633
 1994              		.loc 1 450 1 is_stmt 0 view .LVU634
 1995 002e 7047     		bx	lr
ARM GAS  /tmp/cc9meDp5.s 			page 36


 1996              		.cfi_endproc
 1997              	.LFE410:
 1998              		.size	obqObjectInit, .-obqObjectInit
 1999              		.section	.text.obqResetI,"ax",%progbits
 2000              		.align	1
 2001              		.p2align 4,,15
 2002              		.global	obqResetI
 2003              		.syntax unified
 2004              		.thumb
 2005              		.thumb_func
 2006              		.fpu softvfp
 2007              		.type	obqResetI, %function
 2008              	obqResetI:
 2009              	.LVL100:
 2010              	.LFB411:
 2011              		.loc 1 463 46 is_stmt 1 view -0
 2012              		.cfi_startproc
 2013              		@ args = 0, pretend = 0, frame = 0
 2014              		@ frame_needed = 0, uses_anonymous_args = 0
 2015              		@ link register save eliminated.
 2016              		.loc 1 465 23 view .LVU636
 2017              		.loc 1 467 3 view .LVU637
 2018              		.loc 1 467 19 is_stmt 0 view .LVU638
 2019 0000 D0E908C1 		ldrd	ip, r1, [r0, #32]
 2020              		.loc 1 470 19 view .LVU639
 2021 0004 0022     		movs	r2, #0
 2022              		.loc 1 469 19 view .LVU640
 2023 0006 C0E90411 		strd	r1, r1, [r0, #16]
 2024              		.loc 1 471 19 view .LVU641
 2025 000a C0E90A22 		strd	r2, r2, [r0, #40]
 2026              		.loc 1 467 19 view .LVU642
 2027 000e C0F80CC0 		str	ip, [r0, #12]
 2028              		.loc 1 468 3 is_stmt 1 view .LVU643
 2029              		.loc 1 470 3 view .LVU644
 2030              		.loc 1 472 3 view .LVU645
 2031              	.LVL101:
 2032              	.LBB606:
 2033              	.LBI606:
 2034              		.loc 2 919 20 view .LVU646
 2035              	.LBB607:
 2036              		.loc 2 921 3 view .LVU647
 2037 0012 6FF00101 		mvn	r1, #1
 2038 0016 FFF7FEBF 		b	chThdDequeueAllI
 2039              	.LVL102:
 2040              		.loc 2 921 3 is_stmt 0 view .LVU648
 2041              	.LBE607:
 2042              	.LBE606:
 2043              		.cfi_endproc
 2044              	.LFE411:
 2045              		.size	obqResetI, .-obqResetI
 2046 001a 00BF     		.section	.text.obqGetFullBufferI,"ax",%progbits
 2047              		.align	1
 2048              		.p2align 4,,15
 2049              		.global	obqGetFullBufferI
 2050              		.syntax unified
 2051              		.thumb
 2052              		.thumb_func
ARM GAS  /tmp/cc9meDp5.s 			page 37


 2053              		.fpu softvfp
 2054              		.type	obqGetFullBufferI, %function
 2055              	obqGetFullBufferI:
 2056              	.LVL103:
 2057              	.LFB412:
 2058              		.loc 1 487 43 is_stmt 1 view -0
 2059              		.cfi_startproc
 2060              		@ args = 0, pretend = 0, frame = 0
 2061              		@ frame_needed = 0, uses_anonymous_args = 0
 2062              		@ link register save eliminated.
 2063              		.loc 1 489 23 view .LVU650
 2064              		.loc 1 491 3 view .LVU651
 2065              		.loc 1 487 43 is_stmt 0 view .LVU652
 2066 0000 0346     		mov	r3, r0
 2067              		.loc 1 491 7 view .LVU653
 2068 0002 D0E90420 		ldrd	r2, r0, [r0, #16]
 2069              	.LVL104:
 2070              		.loc 1 491 7 view .LVU654
 2071 0006 8242     		cmp	r2, r0
 2072 0008 03D0     		beq	.L87
 2073              	.LVL105:
 2074              	.L82:
 2075              		.loc 1 496 3 is_stmt 1 view .LVU655
 2076              		.loc 1 496 12 is_stmt 0 view .LVU656
 2077 000a 50F8043B 		ldr	r3, [r0], #4
 2078              		.loc 1 496 10 view .LVU657
 2079 000e 0B60     		str	r3, [r1]
 2080              		.loc 1 498 3 is_stmt 1 view .LVU658
 2081              		.loc 1 499 1 is_stmt 0 view .LVU659
 2082 0010 7047     		bx	lr
 2083              	.LVL106:
 2084              	.L87:
 2085              		.loc 1 491 7 discriminator 1 view .LVU660
 2086 0012 DB68     		ldr	r3, [r3, #12]
 2087              	.LVL107:
 2088              		.loc 1 491 7 discriminator 1 view .LVU661
 2089 0014 002B     		cmp	r3, #0
 2090 0016 F8D0     		beq	.L82
 2091              		.loc 1 492 12 view .LVU662
 2092 0018 0020     		movs	r0, #0
 2093 001a 7047     		bx	lr
 2094              		.cfi_endproc
 2095              	.LFE412:
 2096              		.size	obqGetFullBufferI, .-obqGetFullBufferI
 2097              		.section	.text.obqReleaseEmptyBufferI,"ax",%progbits
 2098              		.align	1
 2099              		.p2align 4,,15
 2100              		.global	obqReleaseEmptyBufferI
 2101              		.syntax unified
 2102              		.thumb
 2103              		.thumb_func
 2104              		.fpu softvfp
 2105              		.type	obqReleaseEmptyBufferI, %function
 2106              	obqReleaseEmptyBufferI:
 2107              	.LVL108:
 2108              	.LFB413:
 2109              		.loc 1 508 59 is_stmt 1 view -0
ARM GAS  /tmp/cc9meDp5.s 			page 38


 2110              		.cfi_startproc
 2111              		@ args = 0, pretend = 0, frame = 0
 2112              		@ frame_needed = 0, uses_anonymous_args = 0
 2113              		@ link register save eliminated.
 2114              		.loc 1 510 23 view .LVU664
 2115              		.loc 1 511 3 view .LVU665
 2116              		.loc 1 511 3 view .LVU666
 2117              		.loc 1 511 3 view .LVU667
 2118              		.loc 1 514 3 view .LVU668
 2119              		.loc 1 516 6 is_stmt 0 view .LVU669
 2120 0000 D0E90531 		ldrd	r3, r1, [r0, #20]
 2121              		.loc 1 515 16 view .LVU670
 2122 0004 D0F81CC0 		ldr	ip, [r0, #28]
 2123              		.loc 1 514 7 view .LVU671
 2124 0008 C268     		ldr	r2, [r0, #12]
 2125              		.loc 1 515 16 view .LVU672
 2126 000a 6344     		add	r3, r3, ip
 2127              		.loc 1 516 6 view .LVU673
 2128 000c 8B42     		cmp	r3, r1
 2129              		.loc 1 515 16 view .LVU674
 2130 000e 4361     		str	r3, [r0, #20]
 2131              		.loc 1 514 17 view .LVU675
 2132 0010 02F10102 		add	r2, r2, #1
 2133              		.loc 1 517 18 view .LVU676
 2134 0014 28BF     		it	cs
 2135 0016 436A     		ldrcs	r3, [r0, #36]
 2136              		.loc 1 514 17 view .LVU677
 2137 0018 C260     		str	r2, [r0, #12]
 2138              		.loc 1 515 3 is_stmt 1 view .LVU678
 2139              		.loc 1 516 3 view .LVU679
 2140              		.loc 1 517 5 view .LVU680
 2141              		.loc 1 517 18 is_stmt 0 view .LVU681
 2142 001a 28BF     		it	cs
 2143 001c 4361     		strcs	r3, [r0, #20]
 2144              		.loc 1 521 3 is_stmt 1 view .LVU682
 2145              	.LVL109:
 2146              	.LBB608:
 2147              	.LBI608:
 2148              		.loc 2 906 20 view .LVU683
 2149              	.LBB609:
 2150              		.loc 2 908 3 view .LVU684
 2151 001e 0021     		movs	r1, #0
 2152 0020 FFF7FEBF 		b	chThdDequeueNextI
 2153              	.LVL110:
 2154              		.loc 2 908 3 is_stmt 0 view .LVU685
 2155              	.LBE609:
 2156              	.LBE608:
 2157              		.cfi_endproc
 2158              	.LFE413:
 2159              		.size	obqReleaseEmptyBufferI, .-obqReleaseEmptyBufferI
 2160              		.section	.text.obqGetEmptyBufferTimeout,"ax",%progbits
 2161              		.align	1
 2162              		.p2align 4,,15
 2163              		.global	obqGetEmptyBufferTimeout
 2164              		.syntax unified
 2165              		.thumb
 2166              		.thumb_func
ARM GAS  /tmp/cc9meDp5.s 			page 39


 2167              		.fpu softvfp
 2168              		.type	obqGetEmptyBufferTimeout, %function
 2169              	obqGetEmptyBufferTimeout:
 2170              	.LVL111:
 2171              	.LFB414:
 2172              		.loc 1 546 55 is_stmt 1 view -0
 2173              		.cfi_startproc
 2174              		@ args = 0, pretend = 0, frame = 0
 2175              		@ frame_needed = 0, uses_anonymous_args = 0
 2176              		.loc 1 546 55 is_stmt 0 view .LVU687
 2177 0000 38B5     		push	{r3, r4, r5, lr}
 2178              		.cfi_def_cfa_offset 16
 2179              		.cfi_offset 3, -16
 2180              		.cfi_offset 4, -12
 2181              		.cfi_offset 5, -8
 2182              		.cfi_offset 14, -4
 2183              		.loc 1 546 55 view .LVU688
 2184 0002 0446     		mov	r4, r0
 2185              		.loc 1 547 3 is_stmt 1 view .LVU689
 2186              		.loc 1 549 3 view .LVU690
 2187              	.LBB631:
 2188              	.LBI631:
 2189              		.loc 2 573 20 view .LVU691
 2190              	.LBE631:
 2191              		.loc 2 575 3 view .LVU692
 2192              	.LBB643:
 2193              	.LBB632:
 2194              	.LBI632:
 2195              		.loc 5 407 20 view .LVU693
 2196              	.LBE632:
 2197              	.LBE643:
 2198              		.loc 5 409 3 view .LVU694
 2199              	.LBB644:
 2200              	.LBB640:
 2201              	.LBB633:
 2202              	.LBI633:
 2203              		.loc 6 806 27 view .LVU695
 2204              	.LBE633:
 2205              	.LBE640:
 2206              	.LBE644:
 2207              		.loc 6 814 3 view .LVU696
 2208              	.LVL112:
 2209              	.LBB645:
 2210              	.LBB641:
 2211              	.LBB638:
 2212              	.LBB634:
 2213              	.LBI634:
 2214              		.loc 7 491 27 view .LVU697
 2215              	.LBB635:
 2216              		.loc 7 493 3 view .LVU698
 2217              	.LBE635:
 2218              	.LBE634:
 2219              	.LBE638:
 2220              	.LBE641:
 2221              	.LBE645:
 2222              		.loc 1 546 55 is_stmt 0 view .LVU699
 2223 0004 0D46     		mov	r5, r1
ARM GAS  /tmp/cc9meDp5.s 			page 40


 2224              	.LBB646:
 2225              	.LBB642:
 2226              	.LBB639:
 2227              	.LBB637:
 2228              	.LBB636:
 2229              		.loc 7 493 3 view .LVU700
 2230 0006 3023     		movs	r3, #48
 2231              		.syntax unified
 2232              	@ 493 "../ChibiOS/os/common/ext/ARM/CMSIS/Core/Include/cmsis_gcc.h" 1
 2233 0008 83F31188 		MSR basepri, r3
 2234              	@ 0 "" 2
 2235              	.LVL113:
 2236              		.loc 7 493 3 view .LVU701
 2237              		.thumb
 2238              		.syntax unified
 2239              	.LBE636:
 2240              	.LBE637:
 2241              	.LBE639:
 2242              	.LBE642:
 2243              	.LBE646:
 2244              		.loc 5 410 35 is_stmt 1 view .LVU702
 2245              		.loc 5 411 21 view .LVU703
 2246              		.loc 1 550 3 view .LVU704
 2247              	.LBB647:
 2248              	.LBI647:
 2249              		.loc 1 577 7 view .LVU705
 2250              	.LBB648:
 2251              		.loc 1 580 23 view .LVU706
 2252              		.loc 1 582 3 view .LVU707
 2253              		.loc 1 582 9 is_stmt 0 view .LVU708
 2254 000c 05E0     		b	.L91
 2255              	.LVL114:
 2256              	.L93:
 2257              	.LBB649:
 2258              		.loc 1 583 8 view .LVU709
 2259 000e 237A     		ldrb	r3, [r4, #8]	@ zero_extendqisi2
 2260 0010 9BB9     		cbnz	r3, .L94
 2261              	.LBB650:
 2262              	.LBB651:
 2263              		.loc 2 895 10 view .LVU710
 2264 0012 FFF7FEFF 		bl	chThdEnqueueTimeoutS
 2265              	.LVL115:
 2266              		.loc 2 895 10 view .LVU711
 2267              	.LBE651:
 2268              	.LBE650:
 2269              		.loc 1 587 5 is_stmt 1 view .LVU712
 2270              		.loc 1 587 8 is_stmt 0 view .LVU713
 2271 0016 0028     		cmp	r0, #0
 2272              		.loc 1 587 8 view .LVU714
 2273 0018 0BDB     		blt	.L92
 2274              	.LVL116:
 2275              	.L91:
 2276              		.loc 1 583 5 is_stmt 1 view .LVU715
 2277              		.loc 1 586 5 view .LVU716
 2278              	.LBB654:
 2279              	.LBI650:
 2280              		.loc 2 892 21 view .LVU717
ARM GAS  /tmp/cc9meDp5.s 			page 41


 2281              	.LBB652:
 2282              		.loc 2 895 3 view .LVU718
 2283              	.LBE652:
 2284              	.LBE654:
 2285              	.LBE649:
 2286              		.loc 1 582 9 view .LVU719
 2287              		.loc 1 582 10 is_stmt 0 view .LVU720
 2288 001a E368     		ldr	r3, [r4, #12]
 2289              	.LBB656:
 2290              	.LBB655:
 2291              	.LBB653:
 2292              		.loc 2 895 10 view .LVU721
 2293 001c 2946     		mov	r1, r5
 2294 001e 2046     		mov	r0, r4
 2295              	.LBE653:
 2296              	.LBE655:
 2297              	.LBE656:
 2298              		.loc 1 582 9 view .LVU722
 2299 0020 002B     		cmp	r3, #0
 2300 0022 F4D0     		beq	.L93
 2301              	.LVL117:
 2302              	.LBB657:
 2303              	.LBI657:
 2304              		.loc 1 577 7 is_stmt 1 view .LVU723
 2305              	.LBB658:
 2306              		.loc 1 592 3 view .LVU724
 2307              		.loc 1 592 3 view .LVU725
 2308              		.loc 1 592 3 view .LVU726
 2309              		.loc 1 595 3 view .LVU727
 2310              		.loc 1 595 19 is_stmt 0 view .LVU728
 2311 0024 2369     		ldr	r3, [r4, #16]
 2312              		.loc 1 596 28 view .LVU729
 2313 0026 E169     		ldr	r1, [r4, #28]
 2314              	.LVL118:
 2315              		.loc 1 595 28 view .LVU730
 2316 0028 1A1D     		adds	r2, r3, #4
 2317              		.loc 1 596 28 view .LVU731
 2318 002a 0B44     		add	r3, r3, r1
 2319              		.loc 1 596 13 view .LVU732
 2320 002c C4E90A23 		strd	r2, r3, [r4, #40]
 2321              		.loc 1 598 3 is_stmt 1 view .LVU733
 2322              	.LVL119:
 2323              		.loc 1 596 13 is_stmt 0 view .LVU734
 2324 0030 0020     		movs	r0, #0
 2325              	.LVL120:
 2326              	.L92:
 2327              		.loc 1 596 13 view .LVU735
 2328              	.LBE658:
 2329              	.LBE657:
 2330              	.LBE648:
 2331              	.LBE647:
 2332              		.loc 1 551 3 is_stmt 1 view .LVU736
 2333              	.LBB661:
 2334              	.LBI661:
 2335              		.loc 2 584 20 view .LVU737
 2336              	.LBE661:
 2337              		.loc 2 586 3 view .LVU738
ARM GAS  /tmp/cc9meDp5.s 			page 42


 2338              	.LBB678:
 2339              	.LBB662:
 2340              	.LBI662:
 2341              		.loc 5 421 20 view .LVU739
 2342              	.LBB663:
 2343              		.loc 5 423 23 view .LVU740
 2344              		.loc 5 424 34 view .LVU741
 2345              		.loc 5 430 3 view .LVU742
 2346              		.loc 5 430 3 view .LVU743
 2347              		.loc 5 430 3 view .LVU744
 2348              		.loc 5 434 3 view .LVU745
 2349              	.LBB664:
 2350              	.LBI664:
 2351              		.loc 6 830 27 view .LVU746
 2352              	.LBE664:
 2353              	.LBE663:
 2354              	.LBE662:
 2355              	.LBE678:
 2356              		.loc 6 833 3 view .LVU747
 2357              	.LBB679:
 2358              	.LBB675:
 2359              	.LBB672:
 2360              	.LBB669:
 2361              	.LBB665:
 2362              	.LBI665:
 2363              		.loc 7 491 27 view .LVU748
 2364              	.LBB666:
 2365              		.loc 7 493 3 view .LVU749
 2366 0032 0023     		movs	r3, #0
 2367              		.syntax unified
 2368              	@ 493 "../ChibiOS/os/common/ext/ARM/CMSIS/Core/Include/cmsis_gcc.h" 1
 2369 0034 83F31188 		MSR basepri, r3
 2370              	@ 0 "" 2
 2371              	.LVL121:
 2372              		.loc 7 493 3 is_stmt 0 view .LVU750
 2373              		.thumb
 2374              		.syntax unified
 2375              	.LBE666:
 2376              	.LBE665:
 2377              	.LBE669:
 2378              	.LBE672:
 2379              	.LBE675:
 2380              	.LBE679:
 2381              		.loc 1 553 3 is_stmt 1 view .LVU751
 2382              		.loc 1 554 1 is_stmt 0 view .LVU752
 2383 0038 38BD     		pop	{r3, r4, r5, pc}
 2384              	.LVL122:
 2385              	.L94:
 2386              	.LBB680:
 2387              	.LBB660:
 2388              	.LBB659:
 2389              		.loc 1 584 14 view .LVU753
 2390 003a 6FF00100 		mvn	r0, #1
 2391              	.LVL123:
 2392              		.loc 1 584 14 view .LVU754
 2393              	.LBE659:
 2394              	.LBE660:
ARM GAS  /tmp/cc9meDp5.s 			page 43


 2395              	.LBE680:
 2396              		.loc 1 551 3 is_stmt 1 view .LVU755
 2397              	.LBB681:
 2398              		.loc 2 584 20 view .LVU756
 2399              	.LBE681:
 2400              		.loc 2 586 3 view .LVU757
 2401              	.LBB682:
 2402              	.LBB676:
 2403              		.loc 5 421 20 view .LVU758
 2404              	.LBB673:
 2405              		.loc 5 423 23 view .LVU759
 2406              		.loc 5 424 34 view .LVU760
 2407              		.loc 5 430 3 view .LVU761
 2408              		.loc 5 430 3 view .LVU762
 2409              		.loc 5 430 3 view .LVU763
 2410              		.loc 5 434 3 view .LVU764
 2411              	.LBB670:
 2412              		.loc 6 830 27 view .LVU765
 2413              	.LBE670:
 2414              	.LBE673:
 2415              	.LBE676:
 2416              	.LBE682:
 2417              		.loc 6 833 3 view .LVU766
 2418              	.LBB683:
 2419              	.LBB677:
 2420              	.LBB674:
 2421              	.LBB671:
 2422              	.LBB668:
 2423              		.loc 7 491 27 view .LVU767
 2424              	.LBB667:
 2425              		.loc 7 493 3 view .LVU768
 2426 003e 0023     		movs	r3, #0
 2427              		.syntax unified
 2428              	@ 493 "../ChibiOS/os/common/ext/ARM/CMSIS/Core/Include/cmsis_gcc.h" 1
 2429 0040 83F31188 		MSR basepri, r3
 2430              	@ 0 "" 2
 2431              	.LVL124:
 2432              		.loc 7 493 3 is_stmt 0 view .LVU769
 2433              		.thumb
 2434              		.syntax unified
 2435              	.LBE667:
 2436              	.LBE668:
 2437              	.LBE671:
 2438              	.LBE674:
 2439              	.LBE677:
 2440              	.LBE683:
 2441              		.loc 1 553 3 is_stmt 1 view .LVU770
 2442              		.loc 1 554 1 is_stmt 0 view .LVU771
 2443 0044 38BD     		pop	{r3, r4, r5, pc}
 2444              		.loc 1 554 1 view .LVU772
 2445              		.cfi_endproc
 2446              	.LFE414:
 2447              		.size	obqGetEmptyBufferTimeout, .-obqGetEmptyBufferTimeout
 2448 0046 00BF     		.section	.text.obqGetEmptyBufferTimeoutS,"ax",%progbits
 2449              		.align	1
 2450              		.p2align 4,,15
 2451              		.global	obqGetEmptyBufferTimeoutS
ARM GAS  /tmp/cc9meDp5.s 			page 44


 2452              		.syntax unified
 2453              		.thumb
 2454              		.thumb_func
 2455              		.fpu softvfp
 2456              		.type	obqGetEmptyBufferTimeoutS, %function
 2457              	obqGetEmptyBufferTimeoutS:
 2458              	.LVL125:
 2459              	.LFB415:
 2460              		.loc 1 578 56 is_stmt 1 view -0
 2461              		.cfi_startproc
 2462              		@ args = 0, pretend = 0, frame = 0
 2463              		@ frame_needed = 0, uses_anonymous_args = 0
 2464              		.loc 1 578 56 is_stmt 0 view .LVU774
 2465 0000 38B5     		push	{r3, r4, r5, lr}
 2466              		.cfi_def_cfa_offset 16
 2467              		.cfi_offset 3, -16
 2468              		.cfi_offset 4, -12
 2469              		.cfi_offset 5, -8
 2470              		.cfi_offset 14, -4
 2471              		.loc 1 578 56 view .LVU775
 2472 0002 0446     		mov	r4, r0
 2473              		.loc 1 580 23 is_stmt 1 view .LVU776
 2474              		.loc 1 582 3 view .LVU777
 2475              		.loc 1 578 56 is_stmt 0 view .LVU778
 2476 0004 0D46     		mov	r5, r1
 2477              		.loc 1 582 9 view .LVU779
 2478 0006 05E0     		b	.L97
 2479              	.LVL126:
 2480              	.L99:
 2481              	.LBB695:
 2482              		.loc 1 583 8 view .LVU780
 2483 0008 237A     		ldrb	r3, [r4, #8]	@ zero_extendqisi2
 2484 000a 83B9     		cbnz	r3, .L100
 2485              	.LBB696:
 2486              	.LBB697:
 2487              		.loc 2 895 10 view .LVU781
 2488 000c FFF7FEFF 		bl	chThdEnqueueTimeoutS
 2489              	.LVL127:
 2490              		.loc 2 895 10 view .LVU782
 2491              	.LBE697:
 2492              	.LBE696:
 2493              		.loc 1 587 5 is_stmt 1 view .LVU783
 2494              		.loc 1 587 8 is_stmt 0 view .LVU784
 2495 0010 0028     		cmp	r0, #0
 2496              		.loc 1 587 8 view .LVU785
 2497 0012 0BDB     		blt	.L96
 2498              	.LVL128:
 2499              	.L97:
 2500              		.loc 1 583 5 is_stmt 1 view .LVU786
 2501              		.loc 1 586 5 view .LVU787
 2502              	.LBB700:
 2503              	.LBI696:
 2504              		.loc 2 892 21 view .LVU788
 2505              	.LBB698:
 2506              		.loc 2 895 3 view .LVU789
 2507              	.LBE698:
 2508              	.LBE700:
ARM GAS  /tmp/cc9meDp5.s 			page 45


 2509              	.LBE695:
 2510              		.loc 1 582 9 view .LVU790
 2511              		.loc 1 582 10 is_stmt 0 view .LVU791
 2512 0014 E368     		ldr	r3, [r4, #12]
 2513              	.LBB702:
 2514              	.LBB701:
 2515              	.LBB699:
 2516              		.loc 2 895 10 view .LVU792
 2517 0016 2946     		mov	r1, r5
 2518 0018 2046     		mov	r0, r4
 2519              	.LBE699:
 2520              	.LBE701:
 2521              	.LBE702:
 2522              		.loc 1 582 9 view .LVU793
 2523 001a 002B     		cmp	r3, #0
 2524 001c F4D0     		beq	.L99
 2525              	.LVL129:
 2526              	.LBB703:
 2527              	.LBI703:
 2528              		.loc 1 577 7 is_stmt 1 view .LVU794
 2529              	.LBB704:
 2530              		.loc 1 592 3 view .LVU795
 2531              		.loc 1 592 3 view .LVU796
 2532              		.loc 1 592 3 view .LVU797
 2533              		.loc 1 595 3 view .LVU798
 2534              		.loc 1 595 19 is_stmt 0 view .LVU799
 2535 001e 2369     		ldr	r3, [r4, #16]
 2536              		.loc 1 596 28 view .LVU800
 2537 0020 E169     		ldr	r1, [r4, #28]
 2538              	.LVL130:
 2539              		.loc 1 595 28 view .LVU801
 2540 0022 1A1D     		adds	r2, r3, #4
 2541              		.loc 1 596 28 view .LVU802
 2542 0024 0B44     		add	r3, r3, r1
 2543              		.loc 1 596 13 view .LVU803
 2544 0026 C4E90A23 		strd	r2, r3, [r4, #40]
 2545              		.loc 1 598 3 is_stmt 1 view .LVU804
 2546              	.LVL131:
 2547              		.loc 1 596 13 is_stmt 0 view .LVU805
 2548 002a 0020     		movs	r0, #0
 2549              	.LVL132:
 2550              	.L96:
 2551              		.loc 1 596 13 view .LVU806
 2552              	.LBE704:
 2553              	.LBE703:
 2554              		.loc 1 599 1 view .LVU807
 2555 002c 38BD     		pop	{r3, r4, r5, pc}
 2556              	.LVL133:
 2557              	.L100:
 2558              	.LBB705:
 2559              		.loc 1 584 14 view .LVU808
 2560 002e 6FF00100 		mvn	r0, #1
 2561              	.LVL134:
 2562              		.loc 1 584 14 view .LVU809
 2563              	.LBE705:
 2564              		.loc 1 599 1 view .LVU810
 2565 0032 38BD     		pop	{r3, r4, r5, pc}
ARM GAS  /tmp/cc9meDp5.s 			page 46


 2566              		.loc 1 599 1 view .LVU811
 2567              		.cfi_endproc
 2568              	.LFE415:
 2569              		.size	obqGetEmptyBufferTimeoutS, .-obqGetEmptyBufferTimeoutS
 2570              		.section	.text.obqPostFullBuffer,"ax",%progbits
 2571              		.align	1
 2572              		.p2align 4,,15
 2573              		.global	obqPostFullBuffer
 2574              		.syntax unified
 2575              		.thumb
 2576              		.thumb_func
 2577              		.fpu softvfp
 2578              		.type	obqPostFullBuffer, %function
 2579              	obqPostFullBuffer:
 2580              	.LVL135:
 2581              	.LFB416:
 2582              		.loc 1 610 67 is_stmt 1 view -0
 2583              		.cfi_startproc
 2584              		@ args = 0, pretend = 0, frame = 0
 2585              		@ frame_needed = 0, uses_anonymous_args = 0
 2586              		.loc 1 612 3 view .LVU813
 2587              	.LBB719:
 2588              	.LBI719:
 2589              		.loc 2 573 20 view .LVU814
 2590              	.LBE719:
 2591              		.loc 2 575 3 view .LVU815
 2592              	.LBB731:
 2593              	.LBB720:
 2594              	.LBI720:
 2595              		.loc 5 407 20 view .LVU816
 2596              	.LBE720:
 2597              	.LBE731:
 2598              		.loc 5 409 3 view .LVU817
 2599              	.LBB732:
 2600              	.LBB728:
 2601              	.LBB721:
 2602              	.LBI721:
 2603              		.loc 6 806 27 view .LVU818
 2604              	.LBE721:
 2605              	.LBE728:
 2606              	.LBE732:
 2607              		.loc 6 814 3 view .LVU819
 2608              	.LBB733:
 2609              	.LBB729:
 2610              	.LBB726:
 2611              	.LBB722:
 2612              	.LBI722:
 2613              		.loc 7 491 27 view .LVU820
 2614              	.LBB723:
 2615              		.loc 7 493 3 view .LVU821
 2616              	.LBE723:
 2617              	.LBE722:
 2618              	.LBE726:
 2619              	.LBE729:
 2620              	.LBE733:
 2621              		.loc 1 610 67 is_stmt 0 view .LVU822
 2622 0000 10B5     		push	{r4, lr}
ARM GAS  /tmp/cc9meDp5.s 			page 47


 2623              		.cfi_def_cfa_offset 8
 2624              		.cfi_offset 4, -8
 2625              		.cfi_offset 14, -4
 2626              	.LBB734:
 2627              	.LBB730:
 2628              	.LBB727:
 2629              	.LBB725:
 2630              	.LBB724:
 2631              		.loc 7 493 3 view .LVU823
 2632 0002 3023     		movs	r3, #48
 2633              		.syntax unified
 2634              	@ 493 "../ChibiOS/os/common/ext/ARM/CMSIS/Core/Include/cmsis_gcc.h" 1
 2635 0004 83F31188 		MSR basepri, r3
 2636              	@ 0 "" 2
 2637              	.LVL136:
 2638              		.loc 7 493 3 view .LVU824
 2639              		.thumb
 2640              		.syntax unified
 2641              	.LBE724:
 2642              	.LBE725:
 2643              	.LBE727:
 2644              	.LBE730:
 2645              	.LBE734:
 2646              		.loc 5 410 35 is_stmt 1 view .LVU825
 2647              		.loc 5 411 21 view .LVU826
 2648              		.loc 1 613 3 view .LVU827
 2649              	.LBB735:
 2650              	.LBI735:
 2651              		.loc 1 626 6 view .LVU828
 2652              	.LBB736:
 2653              		.loc 1 628 23 view .LVU829
 2654              		.loc 1 629 3 view .LVU830
 2655              		.loc 1 629 3 view .LVU831
 2656              		.loc 1 629 3 view .LVU832
 2657              		.loc 1 630 3 view .LVU833
 2658              		.loc 1 630 3 view .LVU834
 2659              		.loc 1 630 3 view .LVU835
 2660              		.loc 1 633 3 view .LVU836
 2661              		.loc 1 633 27 is_stmt 0 view .LVU837
 2662 0008 0369     		ldr	r3, [r0, #16]
 2663              		.loc 1 638 6 view .LVU838
 2664 000a 8469     		ldr	r4, [r0, #24]
 2665              		.loc 1 633 37 view .LVU839
 2666 000c 1960     		str	r1, [r3]
 2667              		.loc 1 636 3 is_stmt 1 view .LVU840
 2668              		.loc 1 637 16 is_stmt 0 view .LVU841
 2669 000e C169     		ldr	r1, [r0, #28]
 2670              	.LVL137:
 2671              		.loc 1 636 7 view .LVU842
 2672 0010 C268     		ldr	r2, [r0, #12]
 2673              		.loc 1 637 16 view .LVU843
 2674 0012 0B44     		add	r3, r3, r1
 2675              	.LVL138:
 2676              		.loc 1 638 6 view .LVU844
 2677 0014 A342     		cmp	r3, r4
 2678              		.loc 1 637 16 view .LVU845
 2679 0016 0361     		str	r3, [r0, #16]
ARM GAS  /tmp/cc9meDp5.s 			page 48


 2680              	.LVL139:
 2681              		.loc 1 639 18 view .LVU846
 2682 0018 24BF     		itt	cs
 2683 001a 436A     		ldrcs	r3, [r0, #36]
 2684 001c 0361     		strcs	r3, [r0, #16]
 2685              		.loc 1 636 17 view .LVU847
 2686 001e 013A     		subs	r2, r2, #1
 2687              		.loc 1 646 11 view .LVU848
 2688 0020 036B     		ldr	r3, [r0, #48]
 2689              		.loc 1 636 17 view .LVU849
 2690 0022 C260     		str	r2, [r0, #12]
 2691              		.loc 1 637 3 is_stmt 1 view .LVU850
 2692              		.loc 1 638 3 view .LVU851
 2693              		.loc 1 639 5 view .LVU852
 2694              		.loc 1 643 3 view .LVU853
 2695              		.loc 1 643 13 is_stmt 0 view .LVU854
 2696 0024 0022     		movs	r2, #0
 2697 0026 8262     		str	r2, [r0, #40]
 2698              		.loc 1 646 3 is_stmt 1 view .LVU855
 2699              		.loc 1 646 6 is_stmt 0 view .LVU856
 2700 0028 03B1     		cbz	r3, .L104
 2701              		.loc 1 647 5 is_stmt 1 view .LVU857
 2702 002a 9847     		blx	r3
 2703              	.LVL140:
 2704              	.L104:
 2705              		.loc 1 647 5 is_stmt 0 view .LVU858
 2706              	.LBE736:
 2707              	.LBE735:
 2708              		.loc 1 614 3 is_stmt 1 view .LVU859
 2709              	.LBB737:
 2710              	.LBI737:
 2711              		.loc 2 584 20 view .LVU860
 2712              	.LBE737:
 2713              		.loc 2 586 3 view .LVU861
 2714              	.LBB746:
 2715              	.LBB738:
 2716              	.LBI738:
 2717              		.loc 5 421 20 view .LVU862
 2718              	.LBB739:
 2719              		.loc 5 423 23 view .LVU863
 2720              		.loc 5 424 34 view .LVU864
 2721              		.loc 5 430 3 view .LVU865
 2722              		.loc 5 430 3 view .LVU866
 2723              		.loc 5 430 3 view .LVU867
 2724              		.loc 5 434 3 view .LVU868
 2725              	.LBB740:
 2726              	.LBI740:
 2727              		.loc 6 830 27 view .LVU869
 2728              	.LBE740:
 2729              	.LBE739:
 2730              	.LBE738:
 2731              	.LBE746:
 2732              		.loc 6 833 3 view .LVU870
 2733              	.LBB747:
 2734              	.LBB745:
 2735              	.LBB744:
 2736              	.LBB743:
ARM GAS  /tmp/cc9meDp5.s 			page 49


 2737              	.LBB741:
 2738              	.LBI741:
 2739              		.loc 7 491 27 view .LVU871
 2740              	.LBB742:
 2741              		.loc 7 493 3 view .LVU872
 2742 002c 0023     		movs	r3, #0
 2743              		.syntax unified
 2744              	@ 493 "../ChibiOS/os/common/ext/ARM/CMSIS/Core/Include/cmsis_gcc.h" 1
 2745 002e 83F31188 		MSR basepri, r3
 2746              	@ 0 "" 2
 2747              	.LVL141:
 2748              		.loc 7 493 3 is_stmt 0 view .LVU873
 2749              		.thumb
 2750              		.syntax unified
 2751              	.LBE742:
 2752              	.LBE741:
 2753              	.LBE743:
 2754              	.LBE744:
 2755              	.LBE745:
 2756              	.LBE747:
 2757              		.loc 1 615 1 view .LVU874
 2758 0032 10BD     		pop	{r4, pc}
 2759              		.cfi_endproc
 2760              	.LFE416:
 2761              		.size	obqPostFullBuffer, .-obqPostFullBuffer
 2762              		.section	.text.obqPostFullBufferS,"ax",%progbits
 2763              		.align	1
 2764              		.p2align 4,,15
 2765              		.global	obqPostFullBufferS
 2766              		.syntax unified
 2767              		.thumb
 2768              		.thumb_func
 2769              		.fpu softvfp
 2770              		.type	obqPostFullBufferS, %function
 2771              	obqPostFullBufferS:
 2772              	.LVL142:
 2773              	.LFB417:
 2774              		.loc 1 626 68 is_stmt 1 view -0
 2775              		.cfi_startproc
 2776              		@ args = 0, pretend = 0, frame = 0
 2777              		@ frame_needed = 0, uses_anonymous_args = 0
 2778              		@ link register save eliminated.
 2779              		.loc 1 628 23 view .LVU876
 2780              		.loc 1 629 3 view .LVU877
 2781              		.loc 1 629 3 view .LVU878
 2782              		.loc 1 629 3 view .LVU879
 2783              		.loc 1 630 3 view .LVU880
 2784              		.loc 1 630 3 view .LVU881
 2785              		.loc 1 630 3 view .LVU882
 2786              		.loc 1 633 3 view .LVU883
 2787              		.loc 1 633 27 is_stmt 0 view .LVU884
 2788 0000 0369     		ldr	r3, [r0, #16]
 2789              		.loc 1 626 68 view .LVU885
 2790 0002 10B4     		push	{r4}
 2791              		.cfi_def_cfa_offset 4
 2792              		.cfi_offset 4, -4
 2793              		.loc 1 638 6 view .LVU886
ARM GAS  /tmp/cc9meDp5.s 			page 50


 2794 0004 8469     		ldr	r4, [r0, #24]
 2795              		.loc 1 633 37 view .LVU887
 2796 0006 1960     		str	r1, [r3]
 2797              		.loc 1 636 3 is_stmt 1 view .LVU888
 2798              		.loc 1 637 16 is_stmt 0 view .LVU889
 2799 0008 C169     		ldr	r1, [r0, #28]
 2800              	.LVL143:
 2801              		.loc 1 636 7 view .LVU890
 2802 000a C268     		ldr	r2, [r0, #12]
 2803              		.loc 1 637 16 view .LVU891
 2804 000c 0B44     		add	r3, r3, r1
 2805              	.LVL144:
 2806              		.loc 1 638 6 view .LVU892
 2807 000e A342     		cmp	r3, r4
 2808              		.loc 1 637 16 view .LVU893
 2809 0010 0361     		str	r3, [r0, #16]
 2810              	.LVL145:
 2811              		.loc 1 639 18 view .LVU894
 2812 0012 24BF     		itt	cs
 2813 0014 436A     		ldrcs	r3, [r0, #36]
 2814 0016 0361     		strcs	r3, [r0, #16]
 2815              		.loc 1 636 17 view .LVU895
 2816 0018 013A     		subs	r2, r2, #1
 2817              		.loc 1 646 11 view .LVU896
 2818 001a 036B     		ldr	r3, [r0, #48]
 2819              		.loc 1 636 17 view .LVU897
 2820 001c C260     		str	r2, [r0, #12]
 2821              		.loc 1 637 3 is_stmt 1 view .LVU898
 2822              		.loc 1 638 3 view .LVU899
 2823              		.loc 1 639 5 view .LVU900
 2824              		.loc 1 643 3 view .LVU901
 2825              		.loc 1 643 13 is_stmt 0 view .LVU902
 2826 001e 0022     		movs	r2, #0
 2827 0020 8262     		str	r2, [r0, #40]
 2828              		.loc 1 646 3 is_stmt 1 view .LVU903
 2829              		.loc 1 646 6 is_stmt 0 view .LVU904
 2830 0022 0BB1     		cbz	r3, .L109
 2831              		.loc 1 647 5 is_stmt 1 view .LVU905
 2832              		.loc 1 649 1 is_stmt 0 view .LVU906
 2833 0024 10BC     		pop	{r4}
 2834              		.cfi_remember_state
 2835              		.cfi_restore 4
 2836              		.cfi_def_cfa_offset 0
 2837              		.loc 1 647 5 view .LVU907
 2838 0026 1847     		bx	r3	@ indirect register sibling call
 2839              	.LVL146:
 2840              	.L109:
 2841              		.cfi_restore_state
 2842              		.loc 1 649 1 view .LVU908
 2843 0028 10BC     		pop	{r4}
 2844              		.cfi_restore 4
 2845              		.cfi_def_cfa_offset 0
 2846 002a 7047     		bx	lr
 2847              		.cfi_endproc
 2848              	.LFE417:
 2849              		.size	obqPostFullBufferS, .-obqPostFullBufferS
 2850              		.section	.text.obqPutTimeout,"ax",%progbits
ARM GAS  /tmp/cc9meDp5.s 			page 51


 2851              		.align	1
 2852              		.p2align 4,,15
 2853              		.global	obqPutTimeout
 2854              		.syntax unified
 2855              		.thumb
 2856              		.thumb_func
 2857              		.fpu softvfp
 2858              		.type	obqPutTimeout, %function
 2859              	obqPutTimeout:
 2860              	.LVL147:
 2861              	.LFB418:
 2862              		.loc 1 672 44 is_stmt 1 view -0
 2863              		.cfi_startproc
 2864              		@ args = 0, pretend = 0, frame = 0
 2865              		@ frame_needed = 0, uses_anonymous_args = 0
 2866              		.loc 1 672 44 is_stmt 0 view .LVU910
 2867 0000 70B5     		push	{r4, r5, r6, lr}
 2868              		.cfi_def_cfa_offset 16
 2869              		.cfi_offset 4, -16
 2870              		.cfi_offset 5, -12
 2871              		.cfi_offset 6, -8
 2872              		.cfi_offset 14, -4
 2873              	.LBB777:
 2874              	.LBB778:
 2875              	.LBB779:
 2876              	.LBB780:
 2877              	.LBB781:
 2878              		.loc 7 493 3 view .LVU911
 2879 0002 3023     		movs	r3, #48
 2880              	.LBE781:
 2881              	.LBE780:
 2882              	.LBE779:
 2883              	.LBE778:
 2884              	.LBE777:
 2885              		.loc 1 672 44 view .LVU912
 2886 0004 0446     		mov	r4, r0
 2887 0006 0E46     		mov	r6, r1
 2888              		.loc 1 673 3 is_stmt 1 view .LVU913
 2889              		.loc 1 675 3 view .LVU914
 2890              	.LBB789:
 2891              	.LBI777:
 2892              		.loc 2 573 20 view .LVU915
 2893              	.LBE789:
 2894              		.loc 2 575 3 view .LVU916
 2895              	.LBB790:
 2896              	.LBB786:
 2897              	.LBI778:
 2898              		.loc 5 407 20 view .LVU917
 2899              	.LBE786:
 2900              	.LBE790:
 2901              		.loc 5 409 3 view .LVU918
 2902              	.LBB791:
 2903              	.LBB787:
 2904              	.LBB784:
 2905              	.LBI779:
 2906              		.loc 6 806 27 view .LVU919
 2907              	.LBE784:
ARM GAS  /tmp/cc9meDp5.s 			page 52


 2908              	.LBE787:
 2909              	.LBE791:
 2910              		.loc 6 814 3 view .LVU920
 2911              	.LVL148:
 2912              	.LBB792:
 2913              	.LBB788:
 2914              	.LBB785:
 2915              	.LBB783:
 2916              	.LBI780:
 2917              		.loc 7 491 27 view .LVU921
 2918              	.LBB782:
 2919              		.loc 7 493 3 view .LVU922
 2920              		.syntax unified
 2921              	@ 493 "../ChibiOS/os/common/ext/ARM/CMSIS/Core/Include/cmsis_gcc.h" 1
 2922 0008 83F31188 		MSR basepri, r3
 2923              	@ 0 "" 2
 2924              	.LVL149:
 2925              		.loc 7 493 3 is_stmt 0 view .LVU923
 2926              		.thumb
 2927              		.syntax unified
 2928              	.LBE782:
 2929              	.LBE783:
 2930              	.LBE785:
 2931              	.LBE788:
 2932              	.LBE792:
 2933              		.loc 5 410 35 is_stmt 1 view .LVU924
 2934              		.loc 5 411 21 view .LVU925
 2935              		.loc 1 678 3 view .LVU926
 2936              		.loc 1 678 11 is_stmt 0 view .LVU927
 2937 000c 836A     		ldr	r3, [r0, #40]
 2938              		.loc 1 678 6 view .LVU928
 2939 000e 0BB3     		cbz	r3, .L130
 2940              	.LVL150:
 2941              	.L115:
 2942              		.loc 1 687 3 is_stmt 1 view .LVU929
 2943              		.loc 1 687 14 is_stmt 0 view .LVU930
 2944 0010 1E70     		strb	r6, [r3]
 2945              		.loc 1 688 3 is_stmt 1 view .LVU931
 2946              		.loc 1 692 6 is_stmt 0 view .LVU932
 2947 0012 D4E90A32 		ldrd	r3, r2, [r4, #40]
 2948              		.loc 1 688 12 view .LVU933
 2949 0016 0133     		adds	r3, r3, #1
 2950              		.loc 1 692 6 view .LVU934
 2951 0018 9342     		cmp	r3, r2
 2952              		.loc 1 688 12 view .LVU935
 2953 001a A362     		str	r3, [r4, #40]
 2954              		.loc 1 692 3 is_stmt 1 view .LVU936
 2955              		.loc 1 692 6 is_stmt 0 view .LVU937
 2956 001c 03D2     		bcs	.L131
 2957              	.LVL151:
 2958              	.L119:
 2959              		.loc 1 696 3 is_stmt 1 view .LVU938
 2960              	.LBB793:
 2961              	.LBI793:
 2962              		.loc 2 584 20 view .LVU939
 2963              	.LBE793:
 2964              		.loc 2 586 3 view .LVU940
ARM GAS  /tmp/cc9meDp5.s 			page 53


 2965              	.LBB802:
 2966              	.LBB794:
 2967              	.LBI794:
 2968              		.loc 5 421 20 view .LVU941
 2969              	.LBB795:
 2970              		.loc 5 423 23 view .LVU942
 2971              		.loc 5 424 34 view .LVU943
 2972              		.loc 5 430 3 view .LVU944
 2973              		.loc 5 430 3 view .LVU945
 2974              		.loc 5 430 3 view .LVU946
 2975              		.loc 5 434 3 view .LVU947
 2976              	.LBB796:
 2977              	.LBI796:
 2978              		.loc 6 830 27 view .LVU948
 2979              	.LBE796:
 2980              	.LBE795:
 2981              	.LBE794:
 2982              	.LBE802:
 2983              		.loc 6 833 3 view .LVU949
 2984              	.LBB803:
 2985              	.LBB801:
 2986              	.LBB800:
 2987              	.LBB799:
 2988              	.LBB797:
 2989              	.LBI797:
 2990              		.loc 7 491 27 view .LVU950
 2991              	.LBB798:
 2992              		.loc 7 493 3 view .LVU951
 2993 001e 0020     		movs	r0, #0
 2994              		.syntax unified
 2995              	@ 493 "../ChibiOS/os/common/ext/ARM/CMSIS/Core/Include/cmsis_gcc.h" 1
 2996 0020 80F31188 		MSR basepri, r0
 2997              	@ 0 "" 2
 2998              	.LVL152:
 2999              		.loc 7 493 3 is_stmt 0 view .LVU952
 3000              		.thumb
 3001              		.syntax unified
 3002              	.LBE798:
 3003              	.LBE797:
 3004              	.LBE799:
 3005              	.LBE800:
 3006              	.LBE801:
 3007              	.LBE803:
 3008              		.loc 1 697 3 is_stmt 1 view .LVU953
 3009              		.loc 1 698 1 is_stmt 0 view .LVU954
 3010 0024 70BD     		pop	{r4, r5, r6, pc}
 3011              	.LVL153:
 3012              	.L131:
 3013              		.loc 1 693 5 is_stmt 1 view .LVU955
 3014              	.LBB804:
 3015              	.LBI804:
 3016              		.loc 1 626 6 view .LVU956
 3017              	.LBB805:
 3018              		.loc 1 628 23 view .LVU957
 3019              		.loc 1 629 3 view .LVU958
 3020              		.loc 1 629 3 view .LVU959
 3021              		.loc 1 629 3 view .LVU960
ARM GAS  /tmp/cc9meDp5.s 			page 54


 3022              		.loc 1 630 3 view .LVU961
 3023              		.loc 1 630 3 view .LVU962
 3024              		.loc 1 630 3 view .LVU963
 3025              		.loc 1 633 3 view .LVU964
 3026              	.LBE805:
 3027              	.LBE804:
 3028              		.loc 1 693 5 is_stmt 0 view .LVU965
 3029 0026 E269     		ldr	r2, [r4, #28]
 3030              	.LBB808:
 3031              	.LBB806:
 3032              		.loc 1 633 27 view .LVU966
 3033 0028 2369     		ldr	r3, [r4, #16]
 3034              	.LBE806:
 3035              	.LBE808:
 3036              		.loc 1 693 5 view .LVU967
 3037 002a 043A     		subs	r2, r2, #4
 3038              	.LVL154:
 3039              	.LBB809:
 3040              	.LBB807:
 3041              		.loc 1 633 37 view .LVU968
 3042 002c 1A60     		str	r2, [r3]
 3043              		.loc 1 636 3 is_stmt 1 view .LVU969
 3044              		.loc 1 638 6 is_stmt 0 view .LVU970
 3045 002e D4E90610 		ldrd	r1, r0, [r4, #24]
 3046              	.LVL155:
 3047              		.loc 1 637 16 view .LVU971
 3048 0032 0344     		add	r3, r3, r0
 3049              		.loc 1 638 6 view .LVU972
 3050 0034 8B42     		cmp	r3, r1
 3051              		.loc 1 636 7 view .LVU973
 3052 0036 E268     		ldr	r2, [r4, #12]
 3053              	.LVL156:
 3054              		.loc 1 637 16 view .LVU974
 3055 0038 2361     		str	r3, [r4, #16]
 3056              	.LVL157:
 3057              		.loc 1 639 18 view .LVU975
 3058 003a 24BF     		itt	cs
 3059 003c 636A     		ldrcs	r3, [r4, #36]
 3060 003e 2361     		strcs	r3, [r4, #16]
 3061              		.loc 1 636 17 view .LVU976
 3062 0040 013A     		subs	r2, r2, #1
 3063              		.loc 1 646 11 view .LVU977
 3064 0042 236B     		ldr	r3, [r4, #48]
 3065              		.loc 1 636 17 view .LVU978
 3066 0044 E260     		str	r2, [r4, #12]
 3067              		.loc 1 637 3 is_stmt 1 view .LVU979
 3068              		.loc 1 638 3 view .LVU980
 3069              		.loc 1 639 5 view .LVU981
 3070              		.loc 1 643 3 view .LVU982
 3071              		.loc 1 643 13 is_stmt 0 view .LVU983
 3072 0046 0022     		movs	r2, #0
 3073 0048 A262     		str	r2, [r4, #40]
 3074              		.loc 1 646 3 is_stmt 1 view .LVU984
 3075              		.loc 1 646 6 is_stmt 0 view .LVU985
 3076 004a 002B     		cmp	r3, #0
 3077 004c E7D0     		beq	.L119
 3078              		.loc 1 647 5 is_stmt 1 view .LVU986
ARM GAS  /tmp/cc9meDp5.s 			page 55


 3079 004e 2046     		mov	r0, r4
 3080 0050 9847     		blx	r3
 3081              	.LVL158:
 3082 0052 E4E7     		b	.L119
 3083              	.LVL159:
 3084              	.L130:
 3085              		.loc 1 647 5 is_stmt 0 view .LVU987
 3086 0054 1546     		mov	r5, r2
 3087              	.LBE807:
 3088              	.LBE809:
 3089 0056 05E0     		b	.L114
 3090              	.LVL160:
 3091              	.L117:
 3092              	.LBB810:
 3093              	.LBB811:
 3094              	.LBB812:
 3095              		.loc 1 583 8 view .LVU988
 3096 0058 237A     		ldrb	r3, [r4, #8]	@ zero_extendqisi2
 3097 005a 7BB9     		cbnz	r3, .L123
 3098              	.LBB813:
 3099              	.LBB814:
 3100              		.loc 2 895 10 view .LVU989
 3101 005c FFF7FEFF 		bl	chThdEnqueueTimeoutS
 3102              	.LVL161:
 3103              		.loc 2 895 10 view .LVU990
 3104              	.LBE814:
 3105              	.LBE813:
 3106              		.loc 1 587 5 is_stmt 1 view .LVU991
 3107              		.loc 1 587 8 is_stmt 0 view .LVU992
 3108 0060 0028     		cmp	r0, #0
 3109              		.loc 1 587 8 view .LVU993
 3110 0062 0DDB     		blt	.L116
 3111              	.LVL162:
 3112              	.L114:
 3113              		.loc 1 583 5 is_stmt 1 view .LVU994
 3114              		.loc 1 586 5 view .LVU995
 3115              	.LBB817:
 3116              	.LBI813:
 3117              		.loc 2 892 21 view .LVU996
 3118              	.LBB815:
 3119              		.loc 2 895 3 view .LVU997
 3120              	.LBE815:
 3121              	.LBE817:
 3122              	.LBE812:
 3123              		.loc 1 582 9 view .LVU998
 3124              		.loc 1 582 10 is_stmt 0 view .LVU999
 3125 0064 E368     		ldr	r3, [r4, #12]
 3126              	.LBB819:
 3127              	.LBB818:
 3128              	.LBB816:
 3129              		.loc 2 895 10 view .LVU1000
 3130 0066 2946     		mov	r1, r5
 3131 0068 2046     		mov	r0, r4
 3132              	.LBE816:
 3133              	.LBE818:
 3134              	.LBE819:
 3135              		.loc 1 582 9 view .LVU1001
ARM GAS  /tmp/cc9meDp5.s 			page 56


 3136 006a 002B     		cmp	r3, #0
 3137 006c F4D0     		beq	.L117
 3138              	.LVL163:
 3139              	.LBB820:
 3140              	.LBI820:
 3141              		.loc 1 577 7 is_stmt 1 view .LVU1002
 3142              	.LBB821:
 3143              		.loc 1 592 3 view .LVU1003
 3144              		.loc 1 592 3 view .LVU1004
 3145              		.loc 1 592 3 view .LVU1005
 3146              		.loc 1 595 3 view .LVU1006
 3147              		.loc 1 595 19 is_stmt 0 view .LVU1007
 3148 006e 2269     		ldr	r2, [r4, #16]
 3149              		.loc 1 596 28 view .LVU1008
 3150 0070 E169     		ldr	r1, [r4, #28]
 3151              	.LVL164:
 3152              		.loc 1 595 28 view .LVU1009
 3153 0072 131D     		adds	r3, r2, #4
 3154              		.loc 1 596 28 view .LVU1010
 3155 0074 0A44     		add	r2, r2, r1
 3156              		.loc 1 596 13 view .LVU1011
 3157 0076 C4E90A32 		strd	r3, r2, [r4, #40]
 3158              		.loc 1 598 3 is_stmt 1 view .LVU1012
 3159              	.LVL165:
 3160              		.loc 1 598 3 is_stmt 0 view .LVU1013
 3161              	.LBE821:
 3162              	.LBE820:
 3163              	.LBE811:
 3164              	.LBE810:
 3165              		.loc 1 680 5 is_stmt 1 view .LVU1014
 3166 007a C9E7     		b	.L115
 3167              	.LVL166:
 3168              	.L123:
 3169              	.LBB824:
 3170              	.LBB823:
 3171              	.LBB822:
 3172              		.loc 1 584 14 is_stmt 0 view .LVU1015
 3173 007c 6FF00100 		mvn	r0, #1
 3174              	.LVL167:
 3175              	.L116:
 3176              		.loc 1 584 14 view .LVU1016
 3177              	.LBE822:
 3178              	.LBE823:
 3179              	.LBE824:
 3180              		.loc 1 680 5 is_stmt 1 view .LVU1017
 3181              		.loc 1 681 7 view .LVU1018
 3182              	.LBB825:
 3183              	.LBI825:
 3184              		.loc 2 584 20 view .LVU1019
 3185              	.LBE825:
 3186              		.loc 2 586 3 view .LVU1020
 3187              	.LBB834:
 3188              	.LBB826:
 3189              	.LBI826:
 3190              		.loc 5 421 20 view .LVU1021
 3191              	.LBB827:
 3192              		.loc 5 423 23 view .LVU1022
ARM GAS  /tmp/cc9meDp5.s 			page 57


 3193              		.loc 5 424 34 view .LVU1023
 3194              		.loc 5 430 3 view .LVU1024
 3195              		.loc 5 430 3 view .LVU1025
 3196              		.loc 5 430 3 view .LVU1026
 3197              		.loc 5 434 3 view .LVU1027
 3198              	.LBB828:
 3199              	.LBI828:
 3200              		.loc 6 830 27 view .LVU1028
 3201              	.LBE828:
 3202              	.LBE827:
 3203              	.LBE826:
 3204              	.LBE834:
 3205              		.loc 6 833 3 view .LVU1029
 3206              	.LBB835:
 3207              	.LBB833:
 3208              	.LBB832:
 3209              	.LBB831:
 3210              	.LBB829:
 3211              	.LBI829:
 3212              		.loc 7 491 27 view .LVU1030
 3213              	.LBB830:
 3214              		.loc 7 493 3 view .LVU1031
 3215 0080 0023     		movs	r3, #0
 3216              		.syntax unified
 3217              	@ 493 "../ChibiOS/os/common/ext/ARM/CMSIS/Core/Include/cmsis_gcc.h" 1
 3218 0082 83F31188 		MSR basepri, r3
 3219              	@ 0 "" 2
 3220              	.LVL168:
 3221              		.loc 7 493 3 is_stmt 0 view .LVU1032
 3222              		.thumb
 3223              		.syntax unified
 3224              	.LBE830:
 3225              	.LBE829:
 3226              	.LBE831:
 3227              	.LBE832:
 3228              	.LBE833:
 3229              	.LBE835:
 3230              		.loc 1 682 7 is_stmt 1 view .LVU1033
 3231              		.loc 1 698 1 is_stmt 0 view .LVU1034
 3232 0086 70BD     		pop	{r4, r5, r6, pc}
 3233              		.loc 1 698 1 view .LVU1035
 3234              		.cfi_endproc
 3235              	.LFE418:
 3236              		.size	obqPutTimeout, .-obqPutTimeout
 3237              		.section	.text.obqWriteTimeout,"ax",%progbits
 3238              		.align	1
 3239              		.p2align 4,,15
 3240              		.global	obqWriteTimeout
 3241              		.syntax unified
 3242              		.thumb
 3243              		.thumb_func
 3244              		.fpu softvfp
 3245              		.type	obqWriteTimeout, %function
 3246              	obqWriteTimeout:
 3247              	.LVL169:
 3248              	.LFB419:
 3249              		.loc 1 722 57 is_stmt 1 view -0
ARM GAS  /tmp/cc9meDp5.s 			page 58


 3250              		.cfi_startproc
 3251              		@ args = 0, pretend = 0, frame = 0
 3252              		@ frame_needed = 0, uses_anonymous_args = 0
 3253              		.loc 1 723 3 view .LVU1037
 3254              		.loc 1 725 3 view .LVU1038
 3255              		.loc 1 725 3 view .LVU1039
 3256              		.loc 1 725 3 view .LVU1040
 3257              		.loc 1 727 3 view .LVU1041
 3258              	.LBB874:
 3259              	.LBI874:
 3260              		.loc 2 573 20 view .LVU1042
 3261              	.LBB875:
 3262              		.loc 2 575 3 view .LVU1043
 3263              	.LBB876:
 3264              	.LBI876:
 3265              		.loc 5 407 20 view .LVU1044
 3266              	.LBE876:
 3267              	.LBE875:
 3268              	.LBE874:
 3269              		.loc 5 409 3 view .LVU1045
 3270              	.LBB890:
 3271              	.LBB887:
 3272              	.LBB884:
 3273              	.LBB877:
 3274              	.LBI877:
 3275              		.loc 6 806 27 view .LVU1046
 3276              	.LBE877:
 3277              	.LBE884:
 3278              	.LBE887:
 3279              	.LBE890:
 3280              		.loc 6 814 3 view .LVU1047
 3281              	.LBB891:
 3282              	.LBB888:
 3283              	.LBB885:
 3284              	.LBB882:
 3285              	.LBB878:
 3286              	.LBI878:
 3287              		.loc 7 491 27 view .LVU1048
 3288              	.LBB879:
 3289              		.loc 7 493 3 view .LVU1049
 3290              	.LBE879:
 3291              	.LBE878:
 3292              	.LBE882:
 3293              	.LBE885:
 3294              	.LBE888:
 3295              	.LBE891:
 3296              		.loc 1 722 57 is_stmt 0 view .LVU1050
 3297 0000 2DE9F84F 		push	{r3, r4, r5, r6, r7, r8, r9, r10, fp, lr}
 3298              		.cfi_def_cfa_offset 40
 3299              		.cfi_offset 3, -40
 3300              		.cfi_offset 4, -36
 3301              		.cfi_offset 5, -32
 3302              		.cfi_offset 6, -28
 3303              		.cfi_offset 7, -24
 3304              		.cfi_offset 8, -20
 3305              		.cfi_offset 9, -16
 3306              		.cfi_offset 10, -12
ARM GAS  /tmp/cc9meDp5.s 			page 59


 3307              		.cfi_offset 11, -8
 3308              		.cfi_offset 14, -4
 3309              		.loc 1 722 57 view .LVU1051
 3310 0004 8146     		mov	r9, r0
 3311 0006 8A46     		mov	r10, r1
 3312 0008 1546     		mov	r5, r2
 3313 000a 1E46     		mov	r6, r3
 3314              	.LBB892:
 3315              	.LBB889:
 3316              	.LBB886:
 3317              	.LBB883:
 3318              	.LBB881:
 3319              	.LBB880:
 3320              		.loc 7 493 3 view .LVU1052
 3321 000c 4FF03008 		mov	r8, #48
 3322              		.syntax unified
 3323              	@ 493 "../ChibiOS/os/common/ext/ARM/CMSIS/Core/Include/cmsis_gcc.h" 1
 3324 0010 88F31188 		MSR basepri, r8
 3325              	@ 0 "" 2
 3326              	.LVL170:
 3327              		.loc 7 493 3 view .LVU1053
 3328              		.thumb
 3329              		.syntax unified
 3330              	.LBE880:
 3331              	.LBE881:
 3332              	.LBE883:
 3333              	.LBE886:
 3334              	.LBE889:
 3335              	.LBE892:
 3336              		.loc 5 410 35 is_stmt 1 view .LVU1054
 3337              		.loc 5 411 21 view .LVU1055
 3338              		.loc 1 723 10 is_stmt 0 view .LVU1056
 3339 0014 0024     		movs	r4, #0
 3340              	.LBB893:
 3341              	.LBB894:
 3342              	.LBB895:
 3343              		.loc 1 643 13 view .LVU1057
 3344 0016 2746     		mov	r7, r4
 3345              	.LVL171:
 3346              	.L145:
 3347              		.loc 1 643 13 view .LVU1058
 3348              	.LBE895:
 3349              	.LBE894:
 3350              	.LBE893:
 3351              		.loc 1 729 3 is_stmt 1 view .LVU1059
 3352              	.LBB955:
 3353              		.loc 1 730 5 view .LVU1060
 3354              		.loc 1 733 5 view .LVU1061
 3355              		.loc 1 733 13 is_stmt 0 view .LVU1062
 3356 0018 D9F82800 		ldr	r0, [r9, #40]
 3357              		.loc 1 733 8 view .LVU1063
 3358 001c C8B3     		cbz	r0, .L133
 3359              		.loc 1 747 24 view .LVU1064
 3360 001e D9F82C20 		ldr	r2, [r9, #44]
 3361              	.L134:
 3362              		.loc 1 747 5 is_stmt 1 view .LVU1065
 3363              		.loc 1 748 19 is_stmt 0 view .LVU1066
ARM GAS  /tmp/cc9meDp5.s 			page 60


 3364 0022 A5EB040B 		sub	fp, r5, r4
 3365              		.loc 1 747 10 view .LVU1067
 3366 0026 121A     		subs	r2, r2, r0
 3367              	.LVL172:
 3368              		.loc 1 748 5 is_stmt 1 view .LVU1068
 3369 0028 9345     		cmp	fp, r2
 3370 002a 28BF     		it	cs
 3371 002c 9346     		movcs	fp, r2
 3372              	.LVL173:
 3373              		.loc 1 754 5 view .LVU1069
 3374              		.loc 1 754 8 is_stmt 0 view .LVU1070
 3375 002e BBF1400F 		cmp	fp, #64
 3376              		.loc 1 756 7 view .LVU1071
 3377 0032 5146     		mov	r1, r10
 3378              		.loc 1 754 8 view .LVU1072
 3379 0034 3CD9     		bls	.L137
 3380              	.LVL174:
 3381              		.loc 1 756 7 is_stmt 1 view .LVU1073
 3382 0036 0AF1400A 		add	r10, r10, #64
 3383              	.LVL175:
 3384              	.L138:
 3385              		.loc 1 756 7 is_stmt 0 view .LVU1074
 3386 003a D1F800E0 		ldr	lr, [r1]	@ unaligned
 3387 003e D1F804C0 		ldr	ip, [r1, #4]	@ unaligned
 3388 0042 8A68     		ldr	r2, [r1, #8]	@ unaligned
 3389 0044 CB68     		ldr	r3, [r1, #12]	@ unaligned
 3390 0046 C360     		str	r3, [r0, #12]	@ unaligned
 3391 0048 1031     		adds	r1, r1, #16
 3392 004a 5145     		cmp	r1, r10
 3393 004c C0F800E0 		str	lr, [r0]	@ unaligned
 3394 0050 C0F804C0 		str	ip, [r0, #4]	@ unaligned
 3395 0054 8260     		str	r2, [r0, #8]	@ unaligned
 3396 0056 00F11000 		add	r0, r0, #16
 3397 005a EED1     		bne	.L138
 3398              		.loc 1 757 7 is_stmt 1 view .LVU1075
 3399              		.loc 1 758 17 is_stmt 0 view .LVU1076
 3400 005c D9F82830 		ldr	r3, [r9, #40]
 3401              		.loc 1 769 8 view .LVU1077
 3402 0060 D9F82C20 		ldr	r2, [r9, #44]
 3403              		.loc 1 758 17 view .LVU1078
 3404 0064 4033     		adds	r3, r3, #64
 3405              		.loc 1 769 8 view .LVU1079
 3406 0066 9A42     		cmp	r2, r3
 3407              		.loc 1 757 17 view .LVU1080
 3408 0068 8A46     		mov	r10, r1
 3409              	.LVL176:
 3410              		.loc 1 758 7 is_stmt 1 view .LVU1081
 3411              		.loc 1 758 17 is_stmt 0 view .LVU1082
 3412 006a C9F82830 		str	r3, [r9, #40]
 3413              		.loc 1 759 7 is_stmt 1 view .LVU1083
 3414              		.loc 1 759 17 is_stmt 0 view .LVU1084
 3415 006e 04F14004 		add	r4, r4, #64
 3416              	.LVL177:
 3417              		.loc 1 769 5 is_stmt 1 view .LVU1085
 3418              		.loc 1 769 8 is_stmt 0 view .LVU1086
 3419 0072 2BD9     		bls	.L153
 3420              	.LVL178:
ARM GAS  /tmp/cc9meDp5.s 			page 61


 3421              	.L141:
 3422              		.loc 1 774 5 is_stmt 1 view .LVU1087
 3423              	.LBB899:
 3424              	.LBI899:
 3425              		.loc 2 584 20 view .LVU1088
 3426              	.LBE899:
 3427              	.LBE955:
 3428              		.loc 2 586 3 view .LVU1089
 3429              	.LBB956:
 3430              	.LBB908:
 3431              	.LBB900:
 3432              	.LBI900:
 3433              		.loc 5 421 20 view .LVU1090
 3434              	.LBB901:
 3435              		.loc 5 423 23 view .LVU1091
 3436              		.loc 5 424 34 view .LVU1092
 3437              		.loc 5 430 3 view .LVU1093
 3438              		.loc 5 430 3 view .LVU1094
 3439              		.loc 5 430 3 view .LVU1095
 3440              		.loc 5 434 3 view .LVU1096
 3441              	.LBB902:
 3442              	.LBI902:
 3443              		.loc 6 830 27 view .LVU1097
 3444              	.LBE902:
 3445              	.LBE901:
 3446              	.LBE900:
 3447              	.LBE908:
 3448              	.LBE956:
 3449              		.loc 6 833 3 view .LVU1098
 3450              	.LBB957:
 3451              	.LBB909:
 3452              	.LBB907:
 3453              	.LBB906:
 3454              	.LBB905:
 3455              	.LBB903:
 3456              	.LBI903:
 3457              		.loc 7 491 27 view .LVU1099
 3458              	.LBB904:
 3459              		.loc 7 493 3 view .LVU1100
 3460              		.syntax unified
 3461              	@ 493 "../ChibiOS/os/common/ext/ARM/CMSIS/Core/Include/cmsis_gcc.h" 1
 3462 0074 87F31188 		MSR basepri, r7
 3463              	@ 0 "" 2
 3464              	.LVL179:
 3465              		.loc 7 493 3 is_stmt 0 view .LVU1101
 3466              		.thumb
 3467              		.syntax unified
 3468              	.LBE904:
 3469              	.LBE903:
 3470              	.LBE905:
 3471              	.LBE906:
 3472              	.LBE907:
 3473              	.LBE909:
 3474              		.loc 1 775 5 is_stmt 1 view .LVU1102
 3475              		.loc 1 775 8 is_stmt 0 view .LVU1103
 3476 0078 AC42     		cmp	r4, r5
 3477 007a 49D2     		bcs	.L132
ARM GAS  /tmp/cc9meDp5.s 			page 62


 3478              		.loc 1 778 5 is_stmt 1 view .LVU1104
 3479              	.LBB910:
 3480              	.LBI910:
 3481              		.loc 2 573 20 view .LVU1105
 3482              	.LBB911:
 3483              		.loc 2 575 3 view .LVU1106
 3484              	.LBB912:
 3485              	.LBI912:
 3486              		.loc 5 407 20 view .LVU1107
 3487              	.LBE912:
 3488              	.LBE911:
 3489              	.LBE910:
 3490              	.LBE957:
 3491              		.loc 5 409 3 view .LVU1108
 3492              	.LBB958:
 3493              	.LBB922:
 3494              	.LBB919:
 3495              	.LBB917:
 3496              	.LBB913:
 3497              	.LBI913:
 3498              		.loc 6 806 27 view .LVU1109
 3499              	.LBE913:
 3500              	.LBE917:
 3501              	.LBE919:
 3502              	.LBE922:
 3503              	.LBE958:
 3504              		.loc 6 814 3 view .LVU1110
 3505              	.LVL180:
 3506              	.LBB959:
 3507              	.LBB923:
 3508              	.LBB920:
 3509              	.LBB918:
 3510              	.LBB916:
 3511              	.LBB914:
 3512              	.LBI914:
 3513              		.loc 7 491 27 view .LVU1111
 3514              	.LBB915:
 3515              		.loc 7 493 3 view .LVU1112
 3516              		.syntax unified
 3517              	@ 493 "../ChibiOS/os/common/ext/ARM/CMSIS/Core/Include/cmsis_gcc.h" 1
 3518 007c 88F31188 		MSR basepri, r8
 3519              	@ 0 "" 2
 3520              	.LVL181:
 3521              		.loc 7 493 3 is_stmt 0 view .LVU1113
 3522              		.thumb
 3523              		.syntax unified
 3524              	.LBE915:
 3525              	.LBE914:
 3526              	.LBE916:
 3527              	.LBE918:
 3528              	.LBE920:
 3529              	.LBE923:
 3530              	.LBE959:
 3531              		.loc 5 410 35 is_stmt 1 view .LVU1114
 3532              		.loc 5 411 21 view .LVU1115
 3533              	.LBB960:
 3534              	.LBB924:
ARM GAS  /tmp/cc9meDp5.s 			page 63


 3535              	.LBB921:
 3536              		.loc 2 576 1 is_stmt 0 view .LVU1116
 3537 0080 CAE7     		b	.L145
 3538              	.LVL182:
 3539              	.L136:
 3540              		.loc 2 576 1 view .LVU1117
 3541              	.LBE921:
 3542              	.LBE924:
 3543              	.LBB925:
 3544              	.LBB926:
 3545              	.LBB927:
 3546              	.LBB928:
 3547              		.loc 1 583 8 view .LVU1118
 3548 0082 99F80830 		ldrb	r3, [r9, #8]	@ zero_extendqisi2
 3549 0086 002B     		cmp	r3, #0
 3550 0088 3FD1     		bne	.L135
 3551              	.LBB929:
 3552              	.LBB930:
 3553              		.loc 2 895 10 view .LVU1119
 3554 008a FFF7FEFF 		bl	chThdEnqueueTimeoutS
 3555              	.LVL183:
 3556              		.loc 2 895 10 view .LVU1120
 3557              	.LBE930:
 3558              	.LBE929:
 3559              		.loc 1 587 5 is_stmt 1 view .LVU1121
 3560              		.loc 1 587 8 is_stmt 0 view .LVU1122
 3561 008e 0028     		cmp	r0, #0
 3562 0090 3BDB     		blt	.L135
 3563              	.LVL184:
 3564              	.L133:
 3565              		.loc 1 583 5 is_stmt 1 view .LVU1123
 3566              		.loc 1 586 5 view .LVU1124
 3567              	.LBB933:
 3568              	.LBI929:
 3569              		.loc 2 892 21 view .LVU1125
 3570              	.LBB931:
 3571              		.loc 2 895 3 view .LVU1126
 3572              	.LBE931:
 3573              	.LBE933:
 3574              	.LBE928:
 3575              		.loc 1 582 9 view .LVU1127
 3576              		.loc 1 582 10 is_stmt 0 view .LVU1128
 3577 0092 D9F80C30 		ldr	r3, [r9, #12]
 3578              	.LBB935:
 3579              	.LBB934:
 3580              	.LBB932:
 3581              		.loc 2 895 10 view .LVU1129
 3582 0096 3146     		mov	r1, r6
 3583 0098 4846     		mov	r0, r9
 3584              	.LBE932:
 3585              	.LBE934:
 3586              	.LBE935:
 3587              		.loc 1 582 9 view .LVU1130
 3588 009a 002B     		cmp	r3, #0
 3589 009c F1D0     		beq	.L136
 3590              	.LVL185:
 3591              	.LBB936:
ARM GAS  /tmp/cc9meDp5.s 			page 64


 3592              	.LBI936:
 3593              		.loc 1 577 7 is_stmt 1 view .LVU1131
 3594              	.LBB937:
 3595              		.loc 1 592 3 view .LVU1132
 3596              		.loc 1 592 3 view .LVU1133
 3597              		.loc 1 592 3 view .LVU1134
 3598              		.loc 1 595 3 view .LVU1135
 3599              		.loc 1 595 19 is_stmt 0 view .LVU1136
 3600 009e D9F81000 		ldr	r0, [r9, #16]
 3601              	.LVL186:
 3602              		.loc 1 596 28 view .LVU1137
 3603 00a2 D9F81C20 		ldr	r2, [r9, #28]
 3604 00a6 0244     		add	r2, r2, r0
 3605              		.loc 1 595 28 view .LVU1138
 3606 00a8 0430     		adds	r0, r0, #4
 3607              		.loc 1 596 13 view .LVU1139
 3608 00aa C9E90A02 		strd	r0, r2, [r9, #40]
 3609              		.loc 1 598 3 is_stmt 1 view .LVU1140
 3610              	.LVL187:
 3611              		.loc 1 598 3 is_stmt 0 view .LVU1141
 3612              	.LBE937:
 3613              	.LBE936:
 3614              	.LBE927:
 3615              	.LBE926:
 3616              		.loc 1 740 7 is_stmt 1 view .LVU1142
 3617 00ae B8E7     		b	.L134
 3618              	.LVL188:
 3619              	.L137:
 3620              		.loc 1 740 7 is_stmt 0 view .LVU1143
 3621              	.LBE925:
 3622              		.loc 1 762 7 is_stmt 1 view .LVU1144
 3623 00b0 5A46     		mov	r2, fp
 3624 00b2 FFF7FEFF 		bl	memcpy
 3625              	.LVL189:
 3626              		.loc 1 763 7 view .LVU1145
 3627              		.loc 1 764 17 is_stmt 0 view .LVU1146
 3628 00b6 D9F82830 		ldr	r3, [r9, #40]
 3629              		.loc 1 769 8 view .LVU1147
 3630 00ba D9F82C20 		ldr	r2, [r9, #44]
 3631              		.loc 1 764 17 view .LVU1148
 3632 00be 5B44     		add	r3, r3, fp
 3633              		.loc 1 769 8 view .LVU1149
 3634 00c0 9A42     		cmp	r2, r3
 3635              		.loc 1 763 17 view .LVU1150
 3636 00c2 DA44     		add	r10, r10, fp
 3637              	.LVL190:
 3638              		.loc 1 764 7 is_stmt 1 view .LVU1151
 3639              		.loc 1 764 17 is_stmt 0 view .LVU1152
 3640 00c4 C9F82830 		str	r3, [r9, #40]
 3641              		.loc 1 765 7 is_stmt 1 view .LVU1153
 3642              		.loc 1 765 17 is_stmt 0 view .LVU1154
 3643 00c8 5C44     		add	r4, r4, fp
 3644              	.LVL191:
 3645              		.loc 1 769 5 is_stmt 1 view .LVU1155
 3646              		.loc 1 769 8 is_stmt 0 view .LVU1156
 3647 00ca D3D8     		bhi	.L141
 3648              	.L153:
ARM GAS  /tmp/cc9meDp5.s 			page 65


 3649              		.loc 1 770 7 is_stmt 1 view .LVU1157
 3650              	.LVL192:
 3651              	.LBB949:
 3652              	.LBI894:
 3653              		.loc 1 626 6 view .LVU1158
 3654              	.LBB896:
 3655              		.loc 1 628 23 view .LVU1159
 3656              		.loc 1 629 3 view .LVU1160
 3657              		.loc 1 629 3 view .LVU1161
 3658              		.loc 1 629 3 view .LVU1162
 3659              		.loc 1 630 3 view .LVU1163
 3660              		.loc 1 630 3 view .LVU1164
 3661              		.loc 1 630 3 view .LVU1165
 3662              		.loc 1 633 3 view .LVU1166
 3663              	.LBE896:
 3664              	.LBE949:
 3665              		.loc 1 770 7 is_stmt 0 view .LVU1167
 3666 00cc D9F81C20 		ldr	r2, [r9, #28]
 3667              	.LBB950:
 3668              	.LBB897:
 3669              		.loc 1 633 27 view .LVU1168
 3670 00d0 D9F81030 		ldr	r3, [r9, #16]
 3671              	.LBE897:
 3672              	.LBE950:
 3673              		.loc 1 770 7 view .LVU1169
 3674 00d4 043A     		subs	r2, r2, #4
 3675              	.LVL193:
 3676              	.LBB951:
 3677              	.LBB898:
 3678              		.loc 1 633 37 view .LVU1170
 3679 00d6 1A60     		str	r2, [r3]
 3680              		.loc 1 636 3 is_stmt 1 view .LVU1171
 3681              		.loc 1 638 6 is_stmt 0 view .LVU1172
 3682 00d8 D9E90621 		ldrd	r2, r1, [r9, #24]
 3683              	.LVL194:
 3684              		.loc 1 637 16 view .LVU1173
 3685 00dc 0B44     		add	r3, r3, r1
 3686              	.LVL195:
 3687              		.loc 1 638 6 view .LVU1174
 3688 00de 9342     		cmp	r3, r2
 3689              		.loc 1 637 16 view .LVU1175
 3690 00e0 C9F81030 		str	r3, [r9, #16]
 3691              	.LVL196:
 3692              		.loc 1 636 7 view .LVU1176
 3693 00e4 D9F80C00 		ldr	r0, [r9, #12]
 3694              		.loc 1 639 18 view .LVU1177
 3695 00e8 24BF     		itt	cs
 3696 00ea D9F82430 		ldrcs	r3, [r9, #36]
 3697 00ee C9F81030 		strcs	r3, [r9, #16]
 3698              		.loc 1 646 11 view .LVU1178
 3699 00f2 D9F83030 		ldr	r3, [r9, #48]
 3700              		.loc 1 643 13 view .LVU1179
 3701 00f6 C9F82870 		str	r7, [r9, #40]
 3702              		.loc 1 636 17 view .LVU1180
 3703 00fa 0138     		subs	r0, r0, #1
 3704 00fc C9F80C00 		str	r0, [r9, #12]
 3705              		.loc 1 637 3 is_stmt 1 view .LVU1181
ARM GAS  /tmp/cc9meDp5.s 			page 66


 3706              		.loc 1 638 3 view .LVU1182
 3707              		.loc 1 639 5 view .LVU1183
 3708              		.loc 1 643 3 view .LVU1184
 3709              		.loc 1 646 3 view .LVU1185
 3710              		.loc 1 646 6 is_stmt 0 view .LVU1186
 3711 0100 002B     		cmp	r3, #0
 3712 0102 B7D0     		beq	.L141
 3713              		.loc 1 647 5 is_stmt 1 view .LVU1187
 3714 0104 4846     		mov	r0, r9
 3715 0106 9847     		blx	r3
 3716              	.LVL197:
 3717 0108 B4E7     		b	.L141
 3718              	.LVL198:
 3719              	.L135:
 3720              		.loc 1 647 5 is_stmt 0 view .LVU1188
 3721              	.LBE898:
 3722              	.LBE951:
 3723              	.LBB952:
 3724              		.loc 1 740 7 is_stmt 1 view .LVU1189
 3725              		.loc 1 741 9 view .LVU1190
 3726              	.LBB938:
 3727              	.LBI938:
 3728              		.loc 2 584 20 view .LVU1191
 3729              	.LBE938:
 3730              	.LBE952:
 3731              	.LBE960:
 3732              		.loc 2 586 3 view .LVU1192
 3733              	.LBB961:
 3734              	.LBB953:
 3735              	.LBB947:
 3736              	.LBB939:
 3737              	.LBI939:
 3738              		.loc 5 421 20 view .LVU1193
 3739              	.LBB940:
 3740              		.loc 5 423 23 view .LVU1194
 3741              		.loc 5 424 34 view .LVU1195
 3742              		.loc 5 430 3 view .LVU1196
 3743              		.loc 5 430 3 view .LVU1197
 3744              		.loc 5 430 3 view .LVU1198
 3745              		.loc 5 434 3 view .LVU1199
 3746              	.LBB941:
 3747              	.LBI941:
 3748              		.loc 6 830 27 view .LVU1200
 3749              	.LBE941:
 3750              	.LBE940:
 3751              	.LBE939:
 3752              	.LBE947:
 3753              	.LBE953:
 3754              	.LBE961:
 3755              		.loc 6 833 3 view .LVU1201
 3756              	.LBB962:
 3757              	.LBB954:
 3758              	.LBB948:
 3759              	.LBB946:
 3760              	.LBB945:
 3761              	.LBB944:
 3762              	.LBB942:
ARM GAS  /tmp/cc9meDp5.s 			page 67


 3763              	.LBI942:
 3764              		.loc 7 491 27 view .LVU1202
 3765              	.LBB943:
 3766              		.loc 7 493 3 view .LVU1203
 3767 010a 0023     		movs	r3, #0
 3768              		.syntax unified
 3769              	@ 493 "../ChibiOS/os/common/ext/ARM/CMSIS/Core/Include/cmsis_gcc.h" 1
 3770 010c 83F31188 		MSR basepri, r3
 3771              	@ 0 "" 2
 3772              	.LVL199:
 3773              		.loc 7 493 3 is_stmt 0 view .LVU1204
 3774              		.thumb
 3775              		.syntax unified
 3776              	.LBE943:
 3777              	.LBE942:
 3778              	.LBE944:
 3779              	.LBE945:
 3780              	.LBE946:
 3781              	.LBE948:
 3782              		.loc 1 742 9 is_stmt 1 view .LVU1205
 3783              	.L132:
 3784              		.loc 1 742 9 is_stmt 0 view .LVU1206
 3785              	.LBE954:
 3786              	.LBE962:
 3787              		.loc 1 780 1 view .LVU1207
 3788 0110 2046     		mov	r0, r4
 3789 0112 BDE8F88F 		pop	{r3, r4, r5, r6, r7, r8, r9, r10, fp, pc}
 3790              		.loc 1 780 1 view .LVU1208
 3791              		.cfi_endproc
 3792              	.LFE419:
 3793              		.size	obqWriteTimeout, .-obqWriteTimeout
 3794 0116 00BF     		.section	.text.obqTryFlushI,"ax",%progbits
 3795              		.align	1
 3796              		.p2align 4,,15
 3797              		.global	obqTryFlushI
 3798              		.syntax unified
 3799              		.thumb
 3800              		.thumb_func
 3801              		.fpu softvfp
 3802              		.type	obqTryFlushI, %function
 3803              	obqTryFlushI:
 3804              	.LVL200:
 3805              	.LFB420:
 3806              		.loc 1 795 49 is_stmt 1 view -0
 3807              		.cfi_startproc
 3808              		@ args = 0, pretend = 0, frame = 0
 3809              		@ frame_needed = 0, uses_anonymous_args = 0
 3810              		@ link register save eliminated.
 3811              		.loc 1 797 23 view .LVU1210
 3812              		.loc 1 801 3 view .LVU1211
 3813              		.loc 1 801 7 is_stmt 0 view .LVU1212
 3814 0000 D0E90423 		ldrd	r2, r3, [r0, #16]
 3815 0004 9A42     		cmp	r2, r3
 3816 0006 01D0     		beq	.L163
 3817              	.L159:
 3818              		.loc 1 822 10 view .LVU1213
 3819 0008 0020     		movs	r0, #0
ARM GAS  /tmp/cc9meDp5.s 			page 68


 3820              	.LVL201:
 3821              		.loc 1 822 10 view .LVU1214
 3822 000a 7047     		bx	lr
 3823              	.LVL202:
 3824              	.L163:
 3825              		.loc 1 801 7 discriminator 1 view .LVU1215
 3826 000c C368     		ldr	r3, [r0, #12]
 3827 000e 002B     		cmp	r3, #0
 3828 0010 FAD0     		beq	.L159
 3829              		.loc 1 801 33 view .LVU1216
 3830 0012 836A     		ldr	r3, [r0, #40]
 3831              		.loc 1 801 25 view .LVU1217
 3832 0014 002B     		cmp	r3, #0
 3833 0016 F7D0     		beq	.L159
 3834              	.LBB963:
 3835              		.loc 1 802 5 is_stmt 1 view .LVU1218
 3836              		.loc 1 802 12 is_stmt 0 view .LVU1219
 3837 0018 043B     		subs	r3, r3, #4
 3838              	.LVL203:
 3839              		.loc 1 804 5 is_stmt 1 view .LVU1220
 3840              		.loc 1 804 8 is_stmt 0 view .LVU1221
 3841 001a 9B1A     		subs	r3, r3, r2
 3842              	.LVL204:
 3843              		.loc 1 804 8 view .LVU1222
 3844 001c F4D0     		beq	.L159
 3845              		.loc 1 807 7 is_stmt 1 view .LVU1223
 3846              		.loc 1 807 41 is_stmt 0 view .LVU1224
 3847 001e 1360     		str	r3, [r2]
 3848              		.loc 1 810 7 is_stmt 1 view .LVU1225
 3849              		.loc 1 811 20 is_stmt 0 view .LVU1226
 3850 0020 D0F81CC0 		ldr	ip, [r0, #28]
 3851              		.loc 1 810 11 view .LVU1227
 3852 0024 C368     		ldr	r3, [r0, #12]
 3853              	.LVL205:
 3854              		.loc 1 812 10 view .LVU1228
 3855 0026 8169     		ldr	r1, [r0, #24]
 3856              		.loc 1 811 20 view .LVU1229
 3857 0028 6244     		add	r2, r2, ip
 3858              	.LVL206:
 3859              		.loc 1 810 21 view .LVU1230
 3860 002a 013B     		subs	r3, r3, #1
 3861              		.loc 1 812 10 view .LVU1231
 3862 002c 8A42     		cmp	r2, r1
 3863              		.loc 1 810 21 view .LVU1232
 3864 002e C360     		str	r3, [r0, #12]
 3865              	.LVL207:
 3866              		.loc 1 811 7 is_stmt 1 view .LVU1233
 3867              		.loc 1 813 22 is_stmt 0 view .LVU1234
 3868 0030 28BF     		it	cs
 3869 0032 436A     		ldrcs	r3, [r0, #36]
 3870              		.loc 1 811 20 view .LVU1235
 3871 0034 0261     		str	r2, [r0, #16]
 3872              	.LVL208:
 3873              		.loc 1 812 7 is_stmt 1 view .LVU1236
 3874              		.loc 1 813 9 view .LVU1237
 3875              		.loc 1 813 22 is_stmt 0 view .LVU1238
 3876 0036 28BF     		it	cs
ARM GAS  /tmp/cc9meDp5.s 			page 69


 3877 0038 0361     		strcs	r3, [r0, #16]
 3878              		.loc 1 817 7 is_stmt 1 view .LVU1239
 3879              		.loc 1 817 17 is_stmt 0 view .LVU1240
 3880 003a 0023     		movs	r3, #0
 3881 003c 8362     		str	r3, [r0, #40]
 3882              		.loc 1 819 7 is_stmt 1 view .LVU1241
 3883              		.loc 1 819 14 is_stmt 0 view .LVU1242
 3884 003e 0120     		movs	r0, #1
 3885              	.LVL209:
 3886              		.loc 1 819 14 view .LVU1243
 3887 0040 7047     		bx	lr
 3888              	.LBE963:
 3889              		.cfi_endproc
 3890              	.LFE420:
 3891              		.size	obqTryFlushI, .-obqTryFlushI
 3892 0042 00BF     		.section	.text.obqFlush,"ax",%progbits
 3893              		.align	1
 3894              		.p2align 4,,15
 3895              		.global	obqFlush
 3896              		.syntax unified
 3897              		.thumb
 3898              		.thumb_func
 3899              		.fpu softvfp
 3900              		.type	obqFlush, %function
 3901              	obqFlush:
 3902              	.LVL210:
 3903              	.LFB421:
 3904              		.loc 1 832 45 is_stmt 1 view -0
 3905              		.cfi_startproc
 3906              		@ args = 0, pretend = 0, frame = 0
 3907              		@ frame_needed = 0, uses_anonymous_args = 0
 3908              		.loc 1 834 3 view .LVU1245
 3909              	.LBB978:
 3910              	.LBI978:
 3911              		.loc 2 573 20 view .LVU1246
 3912              	.LBE978:
 3913              		.loc 2 575 3 view .LVU1247
 3914              	.LBB990:
 3915              	.LBB979:
 3916              	.LBI979:
 3917              		.loc 5 407 20 view .LVU1248
 3918              	.LBE979:
 3919              	.LBE990:
 3920              		.loc 5 409 3 view .LVU1249
 3921              	.LBB991:
 3922              	.LBB987:
 3923              	.LBB980:
 3924              	.LBI980:
 3925              		.loc 6 806 27 view .LVU1250
 3926              	.LBE980:
 3927              	.LBE987:
 3928              	.LBE991:
 3929              		.loc 6 814 3 view .LVU1251
 3930              	.LBB992:
 3931              	.LBB988:
 3932              	.LBB985:
 3933              	.LBB981:
ARM GAS  /tmp/cc9meDp5.s 			page 70


 3934              	.LBI981:
 3935              		.loc 7 491 27 view .LVU1252
 3936              	.LBB982:
 3937              		.loc 7 493 3 view .LVU1253
 3938              	.LBE982:
 3939              	.LBE981:
 3940              	.LBE985:
 3941              	.LBE988:
 3942              	.LBE992:
 3943              		.loc 1 832 45 is_stmt 0 view .LVU1254
 3944 0000 08B5     		push	{r3, lr}
 3945              		.cfi_def_cfa_offset 8
 3946              		.cfi_offset 3, -8
 3947              		.cfi_offset 14, -4
 3948              	.LBB993:
 3949              	.LBB989:
 3950              	.LBB986:
 3951              	.LBB984:
 3952              	.LBB983:
 3953              		.loc 7 493 3 view .LVU1255
 3954 0002 3023     		movs	r3, #48
 3955              		.syntax unified
 3956              	@ 493 "../ChibiOS/os/common/ext/ARM/CMSIS/Core/Include/cmsis_gcc.h" 1
 3957 0004 83F31188 		MSR basepri, r3
 3958              	@ 0 "" 2
 3959              	.LVL211:
 3960              		.loc 7 493 3 view .LVU1256
 3961              		.thumb
 3962              		.syntax unified
 3963              	.LBE983:
 3964              	.LBE984:
 3965              	.LBE986:
 3966              	.LBE989:
 3967              	.LBE993:
 3968              		.loc 5 410 35 is_stmt 1 view .LVU1257
 3969              		.loc 5 411 21 view .LVU1258
 3970              		.loc 1 837 3 view .LVU1259
 3971              		.loc 1 837 11 is_stmt 0 view .LVU1260
 3972 0008 836A     		ldr	r3, [r0, #40]
 3973              		.loc 1 837 6 view .LVU1261
 3974 000a 1BB1     		cbz	r3, .L166
 3975              	.LBB994:
 3976              		.loc 1 838 5 is_stmt 1 view .LVU1262
 3977              		.loc 1 838 52 is_stmt 0 view .LVU1263
 3978 000c 0269     		ldr	r2, [r0, #16]
 3979              		.loc 1 838 12 view .LVU1264
 3980 000e 043B     		subs	r3, r3, #4
 3981              	.LVL212:
 3982              		.loc 1 840 5 is_stmt 1 view .LVU1265
 3983              		.loc 1 840 8 is_stmt 0 view .LVU1266
 3984 0010 9B1A     		subs	r3, r3, r2
 3985              	.LVL213:
 3986              		.loc 1 840 8 view .LVU1267
 3987 0012 03D1     		bne	.L176
 3988              	.LVL214:
 3989              	.L166:
 3990              		.loc 1 840 8 view .LVU1268
ARM GAS  /tmp/cc9meDp5.s 			page 71


 3991              	.LBE994:
 3992              		.loc 1 845 3 is_stmt 1 view .LVU1269
 3993              	.LBB997:
 3994              	.LBI997:
 3995              		.loc 2 584 20 view .LVU1270
 3996              	.LBE997:
 3997              		.loc 2 586 3 view .LVU1271
 3998              	.LBB1014:
 3999              	.LBB998:
 4000              	.LBI998:
 4001              		.loc 5 421 20 view .LVU1272
 4002              	.LBB999:
 4003              		.loc 5 423 23 view .LVU1273
 4004              		.loc 5 424 34 view .LVU1274
 4005              		.loc 5 430 3 view .LVU1275
 4006              		.loc 5 430 3 view .LVU1276
 4007              		.loc 5 430 3 view .LVU1277
 4008              		.loc 5 434 3 view .LVU1278
 4009              	.LBB1000:
 4010              	.LBI1000:
 4011              		.loc 6 830 27 view .LVU1279
 4012              	.LBE1000:
 4013              	.LBE999:
 4014              	.LBE998:
 4015              	.LBE1014:
 4016              		.loc 6 833 3 view .LVU1280
 4017              	.LBB1015:
 4018              	.LBB1011:
 4019              	.LBB1008:
 4020              	.LBB1005:
 4021              	.LBB1001:
 4022              	.LBI1001:
 4023              		.loc 7 491 27 view .LVU1281
 4024              	.LBB1002:
 4025              		.loc 7 493 3 view .LVU1282
 4026 0014 0023     		movs	r3, #0
 4027              		.syntax unified
 4028              	@ 493 "../ChibiOS/os/common/ext/ARM/CMSIS/Core/Include/cmsis_gcc.h" 1
 4029 0016 83F31188 		MSR basepri, r3
 4030              	@ 0 "" 2
 4031              	.LVL215:
 4032              		.loc 7 493 3 is_stmt 0 view .LVU1283
 4033              		.thumb
 4034              		.syntax unified
 4035              	.LBE1002:
 4036              	.LBE1001:
 4037              	.LBE1005:
 4038              	.LBE1008:
 4039              	.LBE1011:
 4040              	.LBE1015:
 4041              		.loc 1 846 1 view .LVU1284
 4042 001a 08BD     		pop	{r3, pc}
 4043              	.LVL216:
 4044              	.L176:
 4045              	.LBB1016:
 4046              		.loc 1 841 7 is_stmt 1 view .LVU1285
 4047              	.LBB995:
ARM GAS  /tmp/cc9meDp5.s 			page 72


 4048              	.LBI995:
 4049              		.loc 1 626 6 view .LVU1286
 4050              	.LBB996:
 4051              		.loc 1 628 23 view .LVU1287
 4052              		.loc 1 629 3 view .LVU1288
 4053              		.loc 1 629 3 view .LVU1289
 4054              		.loc 1 629 3 view .LVU1290
 4055              		.loc 1 630 3 view .LVU1291
 4056              		.loc 1 630 3 view .LVU1292
 4057              		.loc 1 630 3 view .LVU1293
 4058              		.loc 1 633 3 view .LVU1294
 4059              		.loc 1 633 37 is_stmt 0 view .LVU1295
 4060 001c 1360     		str	r3, [r2]
 4061              		.loc 1 636 3 is_stmt 1 view .LVU1296
 4062              		.loc 1 637 16 is_stmt 0 view .LVU1297
 4063 001e D0F81CC0 		ldr	ip, [r0, #28]
 4064              		.loc 1 636 7 view .LVU1298
 4065 0022 C368     		ldr	r3, [r0, #12]
 4066              	.LVL217:
 4067              		.loc 1 638 6 view .LVU1299
 4068 0024 8169     		ldr	r1, [r0, #24]
 4069              		.loc 1 637 16 view .LVU1300
 4070 0026 6244     		add	r2, r2, ip
 4071              	.LVL218:
 4072              		.loc 1 636 17 view .LVU1301
 4073 0028 013B     		subs	r3, r3, #1
 4074              		.loc 1 638 6 view .LVU1302
 4075 002a 8A42     		cmp	r2, r1
 4076              		.loc 1 636 17 view .LVU1303
 4077 002c C360     		str	r3, [r0, #12]
 4078              	.LVL219:
 4079              		.loc 1 637 3 is_stmt 1 view .LVU1304
 4080              		.loc 1 639 18 is_stmt 0 view .LVU1305
 4081 002e 28BF     		it	cs
 4082 0030 436A     		ldrcs	r3, [r0, #36]
 4083              		.loc 1 637 16 view .LVU1306
 4084 0032 0261     		str	r2, [r0, #16]
 4085              	.LVL220:
 4086              		.loc 1 638 3 is_stmt 1 view .LVU1307
 4087              		.loc 1 639 5 view .LVU1308
 4088              		.loc 1 643 3 view .LVU1309
 4089              		.loc 1 639 18 is_stmt 0 view .LVU1310
 4090 0034 28BF     		it	cs
 4091 0036 0361     		strcs	r3, [r0, #16]
 4092              		.loc 1 646 11 view .LVU1311
 4093 0038 036B     		ldr	r3, [r0, #48]
 4094              		.loc 1 643 13 view .LVU1312
 4095 003a 0022     		movs	r2, #0
 4096 003c 8262     		str	r2, [r0, #40]
 4097              		.loc 1 646 3 is_stmt 1 view .LVU1313
 4098              		.loc 1 646 6 is_stmt 0 view .LVU1314
 4099 003e 002B     		cmp	r3, #0
 4100 0040 E8D0     		beq	.L166
 4101              		.loc 1 647 5 is_stmt 1 view .LVU1315
 4102 0042 9847     		blx	r3
 4103              	.LVL221:
 4104              		.loc 1 647 5 is_stmt 0 view .LVU1316
ARM GAS  /tmp/cc9meDp5.s 			page 73


 4105              	.LBE996:
 4106              	.LBE995:
 4107              	.LBE1016:
 4108              		.loc 1 845 3 is_stmt 1 view .LVU1317
 4109              	.LBB1017:
 4110              		.loc 2 584 20 view .LVU1318
 4111              	.LBE1017:
 4112              		.loc 2 586 3 view .LVU1319
 4113              	.LBB1018:
 4114              	.LBB1012:
 4115              		.loc 5 421 20 view .LVU1320
 4116              	.LBB1009:
 4117              		.loc 5 423 23 view .LVU1321
 4118              		.loc 5 424 34 view .LVU1322
 4119              		.loc 5 430 3 view .LVU1323
 4120              		.loc 5 430 3 view .LVU1324
 4121              		.loc 5 430 3 view .LVU1325
 4122              		.loc 5 434 3 view .LVU1326
 4123              	.LBB1006:
 4124              		.loc 6 830 27 view .LVU1327
 4125              	.LBE1006:
 4126              	.LBE1009:
 4127              	.LBE1012:
 4128              	.LBE1018:
 4129              		.loc 6 833 3 view .LVU1328
 4130              	.LBB1019:
 4131              	.LBB1013:
 4132              	.LBB1010:
 4133              	.LBB1007:
 4134              	.LBB1004:
 4135              		.loc 7 491 27 view .LVU1329
 4136              	.LBB1003:
 4137              		.loc 7 493 3 view .LVU1330
 4138 0044 0023     		movs	r3, #0
 4139              		.syntax unified
 4140              	@ 493 "../ChibiOS/os/common/ext/ARM/CMSIS/Core/Include/cmsis_gcc.h" 1
 4141 0046 83F31188 		MSR basepri, r3
 4142              	@ 0 "" 2
 4143              	.LVL222:
 4144              		.loc 7 493 3 is_stmt 0 view .LVU1331
 4145              		.thumb
 4146              		.syntax unified
 4147              	.LBE1003:
 4148              	.LBE1004:
 4149              	.LBE1007:
 4150              	.LBE1010:
 4151              	.LBE1013:
 4152              	.LBE1019:
 4153              		.loc 1 846 1 view .LVU1332
 4154 004a 08BD     		pop	{r3, pc}
 4155              		.cfi_endproc
 4156              	.LFE421:
 4157              		.size	obqFlush, .-obqFlush
 4158              		.text
 4159              	.Letext0:
 4160              		.file 8 "/opt/gcc-arm-none-eabi/gcc-arm-none-eabi-10.3-2021.07/lib/gcc/arm-none-eabi/10.3.1/includ
 4161              		.file 9 "/opt/gcc-arm-none-eabi/gcc-arm-none-eabi-10.3-2021.07/arm-none-eabi/include/machine/_defa
ARM GAS  /tmp/cc9meDp5.s 			page 74


 4162              		.file 10 "/opt/gcc-arm-none-eabi/gcc-arm-none-eabi-10.3-2021.07/arm-none-eabi/include/sys/_stdint.
 4163              		.file 11 "../ChibiOS/os/rt/include/chearly.h"
 4164              		.file 12 "../ChibiOS/os/rt/include/chtime.h"
 4165              		.file 13 "../ChibiOS/os/rt/include/chobjects.h"
 4166              		.file 14 "../ChibiOS/os/hal/include/hal_buffers.h"
 4167              		.file 15 "<built-in>"