ARM GAS  /tmp/ccQvhFd3.s 			page 1


   1              		.cpu cortex-m4
   2              		.eabi_attribute 20, 1
   3              		.eabi_attribute 21, 1
   4              		.eabi_attribute 23, 3
   5              		.eabi_attribute 24, 1
   6              		.eabi_attribute 25, 1
   7              		.eabi_attribute 26, 1
   8              		.eabi_attribute 30, 2
   9              		.eabi_attribute 34, 1
  10              		.eabi_attribute 18, 4
  11              		.file	"hal_st.c"
  12              		.text
  13              	.Ltext0:
  14              		.cfi_sections	.debug_frame
  15              		.section	.text.stInit,"ax",%progbits
  16              		.align	1
  17              		.p2align 4,,15
  18              		.global	stInit
  19              		.arch armv7e-m
  20              		.syntax unified
  21              		.thumb
  22              		.thumb_func
  23              		.fpu softvfp
  24              		.type	stInit, %function
  25              	stInit:
  26              	.LFB400:
  27              		.file 1 "../ChibiOS/os/hal/src/hal_st.c"
  28              		.loc 1 69 19 view -0
  29              		.cfi_startproc
  30              		@ args = 0, pretend = 0, frame = 0
  31              		@ frame_needed = 0, uses_anonymous_args = 0
  32              		@ link register save eliminated.
  33              		.loc 1 77 3 view .LVU1
  34 0000 FFF7FEBF 		b	st_lld_init
  35              	.LVL0:
  36              		.cfi_endproc
  37              	.LFE400:
  38              		.size	stInit, .-stInit
  39              		.section	.text.stGetCounter,"ax",%progbits
  40              		.align	1
  41              		.p2align 4,,15
  42              		.global	stGetCounter
  43              		.syntax unified
  44              		.thumb
  45              		.thumb_func
  46              		.fpu softvfp
  47              		.type	stGetCounter, %function
  48              	stGetCounter:
  49              	.LFB401:
  50              		.loc 1 103 30 view -0
  51              		.cfi_startproc
  52              		@ args = 0, pretend = 0, frame = 0
  53              		@ frame_needed = 0, uses_anonymous_args = 0
  54              		@ link register save eliminated.
  55              		.loc 1 105 3 view .LVU3
  56              	.LBB14:
  57              	.LBI14:
ARM GAS  /tmp/ccQvhFd3.s 			page 2


  58              		.file 2 "../ChibiOS/os/hal/ports/STM32/LLD/SYSTICKv1/hal_st_lld.h"
  59              		.loc 2 697 25 view .LVU4
  60              	.LBB15:
  61              		.loc 2 699 3 view .LVU5
  62              		.loc 2 699 10 is_stmt 0 view .LVU6
  63 0000 4FF08043 		mov	r3, #1073741824
  64 0004 586A     		ldr	r0, [r3, #36]
  65              	.LBE15:
  66              	.LBE14:
  67              		.loc 1 106 1 view .LVU7
  68 0006 7047     		bx	lr
  69              		.cfi_endproc
  70              	.LFE401:
  71              		.size	stGetCounter, .-stGetCounter
  72              		.section	.text.stStartAlarm,"ax",%progbits
  73              		.align	1
  74              		.p2align 4,,15
  75              		.global	stStartAlarm
  76              		.syntax unified
  77              		.thumb
  78              		.thumb_func
  79              		.fpu softvfp
  80              		.type	stStartAlarm, %function
  81              	stStartAlarm:
  82              	.LVL1:
  83              	.LFB402:
  84              		.loc 1 119 38 is_stmt 1 view -0
  85              		.cfi_startproc
  86              		@ args = 0, pretend = 0, frame = 0
  87              		@ frame_needed = 0, uses_anonymous_args = 0
  88              		@ link register save eliminated.
  89              		.loc 1 121 3 view .LVU9
  90              		.loc 1 121 3 view .LVU10
  91              		.loc 1 121 3 view .LVU11
  92              		.loc 1 123 3 view .LVU12
  93              	.LBB16:
  94              	.LBB17:
  95              		.loc 2 713 24 is_stmt 0 view .LVU13
  96 0000 4FF08043 		mov	r3, #1073741824
  97              	.LVL2:
  98              		.loc 2 713 24 view .LVU14
  99              	.LBE17:
 100              	.LBI16:
 101              		.loc 2 711 20 is_stmt 1 view .LVU15
 102              	.LBB18:
 103              		.loc 2 713 3 view .LVU16
 104              		.loc 2 714 24 is_stmt 0 view .LVU17
 105 0004 0021     		movs	r1, #0
 106              		.loc 2 716 24 view .LVU18
 107 0006 0222     		movs	r2, #2
 108              		.loc 2 713 24 view .LVU19
 109 0008 5863     		str	r0, [r3, #52]
 110              		.loc 2 714 3 is_stmt 1 view .LVU20
 111              		.loc 2 714 24 is_stmt 0 view .LVU21
 112 000a 1961     		str	r1, [r3, #16]
 113              		.loc 2 716 3 is_stmt 1 view .LVU22
 114              		.loc 2 716 24 is_stmt 0 view .LVU23
ARM GAS  /tmp/ccQvhFd3.s 			page 3


 115 000c DA60     		str	r2, [r3, #12]
 116              	.LVL3:
 117              		.loc 2 716 24 view .LVU24
 118              	.LBE18:
 119              	.LBE16:
 120              		.loc 1 124 1 view .LVU25
 121 000e 7047     		bx	lr
 122              		.cfi_endproc
 123              	.LFE402:
 124              		.size	stStartAlarm, .-stStartAlarm
 125              		.section	.text.stStopAlarm,"ax",%progbits
 126              		.align	1
 127              		.p2align 4,,15
 128              		.global	stStopAlarm
 129              		.syntax unified
 130              		.thumb
 131              		.thumb_func
 132              		.fpu softvfp
 133              		.type	stStopAlarm, %function
 134              	stStopAlarm:
 135              	.LFB403:
 136              		.loc 1 133 24 is_stmt 1 view -0
 137              		.cfi_startproc
 138              		@ args = 0, pretend = 0, frame = 0
 139              		@ frame_needed = 0, uses_anonymous_args = 0
 140              		@ link register save eliminated.
 141              		.loc 1 135 3 view .LVU27
 142              	.LBB19:
 143              	.LBI19:
 144              		.loc 2 727 20 view .LVU28
 145              	.LBB20:
 146              		.loc 2 730 3 view .LVU29
 147              		.loc 2 730 22 is_stmt 0 view .LVU30
 148 0000 4FF08043 		mov	r3, #1073741824
 149 0004 0022     		movs	r2, #0
 150 0006 DA60     		str	r2, [r3, #12]
 151              	.LBE20:
 152              	.LBE19:
 153              		.loc 1 136 1 view .LVU31
 154 0008 7047     		bx	lr
 155              		.cfi_endproc
 156              	.LFE403:
 157              		.size	stStopAlarm, .-stStopAlarm
 158 000a 00BF     		.section	.text.stSetAlarm,"ax",%progbits
 159              		.align	1
 160              		.p2align 4,,15
 161              		.global	stSetAlarm
 162              		.syntax unified
 163              		.thumb
 164              		.thumb_func
 165              		.fpu softvfp
 166              		.type	stSetAlarm, %function
 167              	stSetAlarm:
 168              	.LVL4:
 169              	.LFB404:
 170              		.loc 1 147 36 is_stmt 1 view -0
 171              		.cfi_startproc
ARM GAS  /tmp/ccQvhFd3.s 			page 4


 172              		@ args = 0, pretend = 0, frame = 0
 173              		@ frame_needed = 0, uses_anonymous_args = 0
 174              		@ link register save eliminated.
 175              		.loc 1 149 3 view .LVU33
 176              		.loc 1 149 3 view .LVU34
 177              		.loc 1 149 3 view .LVU35
 178              		.loc 1 151 3 view .LVU36
 179              	.LBB21:
 180              	.LBB22:
 181              		.loc 2 745 24 is_stmt 0 view .LVU37
 182 0000 4FF08043 		mov	r3, #1073741824
 183              	.LVL5:
 184              		.loc 2 745 24 view .LVU38
 185              	.LBE22:
 186              	.LBI21:
 187              		.loc 2 743 20 is_stmt 1 view .LVU39
 188              	.LBB23:
 189              		.loc 2 745 3 view .LVU40
 190              		.loc 2 745 24 is_stmt 0 view .LVU41
 191 0004 5863     		str	r0, [r3, #52]
 192              	.LVL6:
 193              		.loc 2 745 24 view .LVU42
 194              	.LBE23:
 195              	.LBE21:
 196              		.loc 1 152 1 view .LVU43
 197 0006 7047     		bx	lr
 198              		.cfi_endproc
 199              	.LFE404:
 200              		.size	stSetAlarm, .-stSetAlarm
 201              		.section	.text.stGetAlarm,"ax",%progbits
 202              		.align	1
 203              		.p2align 4,,15
 204              		.global	stGetAlarm
 205              		.syntax unified
 206              		.thumb
 207              		.thumb_func
 208              		.fpu softvfp
 209              		.type	stGetAlarm, %function
 210              	stGetAlarm:
 211              	.LFB405:
 212              		.loc 1 163 28 is_stmt 1 view -0
 213              		.cfi_startproc
 214              		@ args = 0, pretend = 0, frame = 0
 215              		@ frame_needed = 0, uses_anonymous_args = 0
 216              		@ link register save eliminated.
 217              		.loc 1 165 3 view .LVU45
 218              		.loc 1 165 3 view .LVU46
 219              		.loc 1 165 3 view .LVU47
 220              		.loc 1 167 3 view .LVU48
 221              	.LBB24:
 222              	.LBI24:
 223              		.loc 2 755 25 view .LVU49
 224              	.LBB25:
 225              		.loc 2 757 3 view .LVU50
 226              		.loc 2 757 10 is_stmt 0 view .LVU51
 227 0000 4FF08043 		mov	r3, #1073741824
 228 0004 586B     		ldr	r0, [r3, #52]
ARM GAS  /tmp/ccQvhFd3.s 			page 5


 229              	.LBE25:
 230              	.LBE24:
 231              		.loc 1 168 1 view .LVU52
 232 0006 7047     		bx	lr
 233              		.cfi_endproc
 234              	.LFE405:
 235              		.size	stGetAlarm, .-stGetAlarm
 236              		.section	.text.stIsAlarmActive,"ax",%progbits
 237              		.align	1
 238              		.p2align 4,,15
 239              		.global	stIsAlarmActive
 240              		.syntax unified
 241              		.thumb
 242              		.thumb_func
 243              		.fpu softvfp
 244              		.type	stIsAlarmActive, %function
 245              	stIsAlarmActive:
 246              	.LFB406:
 247              		.loc 1 179 28 is_stmt 1 view -0
 248              		.cfi_startproc
 249              		@ args = 0, pretend = 0, frame = 0
 250              		@ frame_needed = 0, uses_anonymous_args = 0
 251              		@ link register save eliminated.
 252              		.loc 1 181 3 view .LVU54
 253              	.LBB26:
 254              	.LBI26:
 255              		.loc 2 769 20 view .LVU55
 256              	.LBB27:
 257              		.loc 2 771 3 view .LVU56
 258              		.loc 2 771 30 is_stmt 0 view .LVU57
 259 0000 4FF08043 		mov	r3, #1073741824
 260 0004 D868     		ldr	r0, [r3, #12]
 261              	.LBE27:
 262              	.LBE26:
 263              		.loc 1 182 1 view .LVU58
 264 0006 C0F34000 		ubfx	r0, r0, #1, #1
 265 000a 7047     		bx	lr
 266              		.cfi_endproc
 267              	.LFE406:
 268              		.size	stIsAlarmActive, .-stIsAlarmActive
 269              		.text
 270              	.Letext0:
 271              		.file 3 "/opt/gcc-arm-none-eabi/gcc-arm-none-eabi-10.3-2021.07/arm-none-eabi/include/machine/_defa
 272              		.file 4 "/opt/gcc-arm-none-eabi/gcc-arm-none-eabi-10.3-2021.07/arm-none-eabi/include/sys/_stdint.h
 273              		.file 5 "../ChibiOS/os/rt/include/chtime.h"
 274              		.file 6 "../ChibiOS/os/hal/ports/STM32/LLD/TIMv1/stm32_tim.h"
 275              		.section	.debug_info,"",%progbits
 276              	.Ldebug_info0:
 277 0000 2D040000 		.4byte	0x42d
 278 0004 0400     		.2byte	0x4
 279 0006 00000000 		.4byte	.Ldebug_abbrev0
 280 000a 04       		.byte	0x4
 281 000b 01       		.uleb128 0x1
 282 000c 32010000 		.4byte	.LASF39
 283 0010 0C       		.byte	0xc
 284 0011 5B000000 		.4byte	.LASF40
 285 0015 2C000000 		.4byte	.LASF41
ARM GAS  /tmp/ccQvhFd3.s 			page 6


 286 0019 00000000 		.4byte	.Ldebug_ranges0+0
 287 001d 00000000 		.4byte	0
 288 0021 00000000 		.4byte	.Ldebug_line0
 289 0025 02       		.uleb128 0x2
 290 0026 04       		.byte	0x4
 291 0027 05       		.byte	0x5
 292 0028 696E7400 		.ascii	"int\000"
 293 002c 03       		.uleb128 0x3
 294 002d 04       		.byte	0x4
 295 002e 07       		.byte	0x7
 296 002f 20020000 		.4byte	.LASF0
 297 0033 03       		.uleb128 0x3
 298 0034 08       		.byte	0x8
 299 0035 05       		.byte	0x5
 300 0036 51020000 		.4byte	.LASF1
 301 003a 03       		.uleb128 0x3
 302 003b 08       		.byte	0x8
 303 003c 04       		.byte	0x4
 304 003d 9E020000 		.4byte	.LASF2
 305 0041 03       		.uleb128 0x3
 306 0042 01       		.byte	0x1
 307 0043 06       		.byte	0x6
 308 0044 AA020000 		.4byte	.LASF3
 309 0048 03       		.uleb128 0x3
 310 0049 01       		.byte	0x1
 311 004a 08       		.byte	0x8
 312 004b 01010000 		.4byte	.LASF4
 313 004f 03       		.uleb128 0x3
 314 0050 02       		.byte	0x2
 315 0051 05       		.byte	0x5
 316 0052 99000000 		.4byte	.LASF5
 317 0056 03       		.uleb128 0x3
 318 0057 02       		.byte	0x2
 319 0058 07       		.byte	0x7
 320 0059 7A000000 		.4byte	.LASF6
 321 005d 03       		.uleb128 0x3
 322 005e 04       		.byte	0x4
 323 005f 05       		.byte	0x5
 324 0060 95020000 		.4byte	.LASF7
 325 0064 04       		.uleb128 0x4
 326 0065 F1010000 		.4byte	.LASF10
 327 0069 03       		.byte	0x3
 328 006a 4F       		.byte	0x4f
 329 006b 19       		.byte	0x19
 330 006c 70000000 		.4byte	0x70
 331 0070 03       		.uleb128 0x3
 332 0071 04       		.byte	0x4
 333 0072 07       		.byte	0x7
 334 0073 0F010000 		.4byte	.LASF8
 335 0077 03       		.uleb128 0x3
 336 0078 08       		.byte	0x8
 337 0079 07       		.byte	0x7
 338 007a BC020000 		.4byte	.LASF9
 339 007e 04       		.uleb128 0x4
 340 007f 8C020000 		.4byte	.LASF11
 341 0083 04       		.byte	0x4
 342 0084 30       		.byte	0x30
ARM GAS  /tmp/ccQvhFd3.s 			page 7


 343 0085 14       		.byte	0x14
 344 0086 64000000 		.4byte	0x64
 345 008a 05       		.uleb128 0x5
 346 008b 7E000000 		.4byte	0x7e
 347 008f 03       		.uleb128 0x3
 348 0090 01       		.byte	0x1
 349 0091 08       		.byte	0x8
 350 0092 2D020000 		.4byte	.LASF12
 351 0096 06       		.uleb128 0x6
 352 0097 8F000000 		.4byte	0x8f
 353 009b 04       		.uleb128 0x4
 354 009c 22000000 		.4byte	.LASF13
 355 00a0 05       		.byte	0x5
 356 00a1 6D       		.byte	0x6d
 357 00a2 12       		.byte	0x12
 358 00a3 7E000000 		.4byte	0x7e
 359 00a7 07       		.uleb128 0x7
 360 00a8 8A000000 		.4byte	0x8a
 361 00ac B7000000 		.4byte	0xb7
 362 00b0 08       		.uleb128 0x8
 363 00b1 2C000000 		.4byte	0x2c
 364 00b5 01       		.byte	0x1
 365 00b6 00       		.byte	0
 366 00b7 05       		.uleb128 0x5
 367 00b8 A7000000 		.4byte	0xa7
 368 00bc 07       		.uleb128 0x7
 369 00bd 8A000000 		.4byte	0x8a
 370 00c1 CC000000 		.4byte	0xcc
 371 00c5 08       		.uleb128 0x8
 372 00c6 2C000000 		.4byte	0x2c
 373 00ca 03       		.byte	0x3
 374 00cb 00       		.byte	0
 375 00cc 05       		.uleb128 0x5
 376 00cd BC000000 		.4byte	0xbc
 377 00d1 03       		.uleb128 0x3
 378 00d2 01       		.byte	0x1
 379 00d3 02       		.byte	0x2
 380 00d4 B6020000 		.4byte	.LASF14
 381 00d8 09       		.uleb128 0x9
 382 00d9 60       		.byte	0x60
 383 00da 06       		.byte	0x6
 384 00db F601     		.2byte	0x1f6
 385 00dd 09       		.byte	0x9
 386 00de F9010000 		.4byte	0x1f9
 387 00e2 0A       		.uleb128 0xa
 388 00e3 43523100 		.ascii	"CR1\000"
 389 00e7 06       		.byte	0x6
 390 00e8 F701     		.2byte	0x1f7
 391 00ea 19       		.byte	0x19
 392 00eb 8A000000 		.4byte	0x8a
 393 00ef 00       		.byte	0
 394 00f0 0A       		.uleb128 0xa
 395 00f1 43523200 		.ascii	"CR2\000"
 396 00f5 06       		.byte	0x6
 397 00f6 F801     		.2byte	0x1f8
 398 00f8 19       		.byte	0x19
 399 00f9 8A000000 		.4byte	0x8a
ARM GAS  /tmp/ccQvhFd3.s 			page 8


 400 00fd 04       		.byte	0x4
 401 00fe 0B       		.uleb128 0xb
 402 00ff 75020000 		.4byte	.LASF15
 403 0103 06       		.byte	0x6
 404 0104 F901     		.2byte	0x1f9
 405 0106 19       		.byte	0x19
 406 0107 8A000000 		.4byte	0x8a
 407 010b 08       		.byte	0x8
 408 010c 0B       		.uleb128 0xb
 409 010d D8000000 		.4byte	.LASF16
 410 0111 06       		.byte	0x6
 411 0112 FA01     		.2byte	0x1fa
 412 0114 19       		.byte	0x19
 413 0115 8A000000 		.4byte	0x8a
 414 0119 0C       		.byte	0xc
 415 011a 0A       		.uleb128 0xa
 416 011b 535200   		.ascii	"SR\000"
 417 011e 06       		.byte	0x6
 418 011f FB01     		.2byte	0x1fb
 419 0121 19       		.byte	0x19
 420 0122 8A000000 		.4byte	0x8a
 421 0126 10       		.byte	0x10
 422 0127 0A       		.uleb128 0xa
 423 0128 45475200 		.ascii	"EGR\000"
 424 012c 06       		.byte	0x6
 425 012d FC01     		.2byte	0x1fc
 426 012f 19       		.byte	0x19
 427 0130 8A000000 		.4byte	0x8a
 428 0134 14       		.byte	0x14
 429 0135 0B       		.uleb128 0xb
 430 0136 7A020000 		.4byte	.LASF17
 431 013a 06       		.byte	0x6
 432 013b FD01     		.2byte	0x1fd
 433 013d 19       		.byte	0x19
 434 013e 8A000000 		.4byte	0x8a
 435 0142 18       		.byte	0x18
 436 0143 0B       		.uleb128 0xb
 437 0144 80020000 		.4byte	.LASF18
 438 0148 06       		.byte	0x6
 439 0149 FE01     		.2byte	0x1fe
 440 014b 19       		.byte	0x19
 441 014c 8A000000 		.4byte	0x8a
 442 0150 1C       		.byte	0x1c
 443 0151 0B       		.uleb128 0xb
 444 0152 70020000 		.4byte	.LASF19
 445 0156 06       		.byte	0x6
 446 0157 FF01     		.2byte	0x1ff
 447 0159 19       		.byte	0x19
 448 015a 8A000000 		.4byte	0x8a
 449 015e 20       		.byte	0x20
 450 015f 0A       		.uleb128 0xa
 451 0160 434E5400 		.ascii	"CNT\000"
 452 0164 06       		.byte	0x6
 453 0165 0002     		.2byte	0x200
 454 0167 19       		.byte	0x19
 455 0168 8A000000 		.4byte	0x8a
 456 016c 24       		.byte	0x24
ARM GAS  /tmp/ccQvhFd3.s 			page 9


 457 016d 0A       		.uleb128 0xa
 458 016e 50534300 		.ascii	"PSC\000"
 459 0172 06       		.byte	0x6
 460 0173 0102     		.2byte	0x201
 461 0175 19       		.byte	0x19
 462 0176 8A000000 		.4byte	0x8a
 463 017a 28       		.byte	0x28
 464 017b 0A       		.uleb128 0xa
 465 017c 41525200 		.ascii	"ARR\000"
 466 0180 06       		.byte	0x6
 467 0181 0202     		.2byte	0x202
 468 0183 19       		.byte	0x19
 469 0184 8A000000 		.4byte	0x8a
 470 0188 2C       		.byte	0x2c
 471 0189 0A       		.uleb128 0xa
 472 018a 52435200 		.ascii	"RCR\000"
 473 018e 06       		.byte	0x6
 474 018f 0302     		.2byte	0x203
 475 0191 19       		.byte	0x19
 476 0192 8A000000 		.4byte	0x8a
 477 0196 30       		.byte	0x30
 478 0197 0A       		.uleb128 0xa
 479 0198 43435200 		.ascii	"CCR\000"
 480 019c 06       		.byte	0x6
 481 019d 0402     		.2byte	0x204
 482 019f 19       		.byte	0x19
 483 01a0 CC000000 		.4byte	0xcc
 484 01a4 34       		.byte	0x34
 485 01a5 0B       		.uleb128 0xb
 486 01a6 00000000 		.4byte	.LASF20
 487 01aa 06       		.byte	0x6
 488 01ab 0502     		.2byte	0x205
 489 01ad 19       		.byte	0x19
 490 01ae 8A000000 		.4byte	0x8a
 491 01b2 44       		.byte	0x44
 492 01b3 0A       		.uleb128 0xa
 493 01b4 44435200 		.ascii	"DCR\000"
 494 01b8 06       		.byte	0x6
 495 01b9 1302     		.2byte	0x213
 496 01bb 19       		.byte	0x19
 497 01bc 8A000000 		.4byte	0x8a
 498 01c0 48       		.byte	0x48
 499 01c1 0B       		.uleb128 0xb
 500 01c2 FC010000 		.4byte	.LASF21
 501 01c6 06       		.byte	0x6
 502 01c7 1402     		.2byte	0x214
 503 01c9 19       		.byte	0x19
 504 01ca 8A000000 		.4byte	0x8a
 505 01ce 4C       		.byte	0x4c
 506 01cf 0A       		.uleb128 0xa
 507 01d0 4F5200   		.ascii	"OR\000"
 508 01d3 06       		.byte	0x6
 509 01d4 1502     		.2byte	0x215
 510 01d6 19       		.byte	0x19
 511 01d7 8A000000 		.4byte	0x8a
 512 01db 50       		.byte	0x50
 513 01dc 0B       		.uleb128 0xb
ARM GAS  /tmp/ccQvhFd3.s 			page 10


 514 01dd 86020000 		.4byte	.LASF22
 515 01e1 06       		.byte	0x6
 516 01e2 1602     		.2byte	0x216
 517 01e4 19       		.byte	0x19
 518 01e5 8A000000 		.4byte	0x8a
 519 01e9 54       		.byte	0x54
 520 01ea 0B       		.uleb128 0xb
 521 01eb D3020000 		.4byte	.LASF23
 522 01ef 06       		.byte	0x6
 523 01f0 1702     		.2byte	0x217
 524 01f2 19       		.byte	0x19
 525 01f3 B7000000 		.4byte	0xb7
 526 01f7 58       		.byte	0x58
 527 01f8 00       		.byte	0
 528 01f9 0C       		.uleb128 0xc
 529 01fa CC000000 		.4byte	.LASF24
 530 01fe 06       		.byte	0x6
 531 01ff 1902     		.2byte	0x219
 532 0201 03       		.byte	0x3
 533 0202 D8000000 		.4byte	0xd8
 534 0206 0D       		.uleb128 0xd
 535 0207 05000000 		.4byte	.LASF25
 536 020b 01       		.byte	0x1
 537 020c B3       		.byte	0xb3
 538 020d 06       		.byte	0x6
 539 020e D1000000 		.4byte	0xd1
 540 0212 00000000 		.4byte	.LFB406
 541 0216 0C000000 		.4byte	.LFE406-.LFB406
 542 021a 01       		.uleb128 0x1
 543 021b 9C       		.byte	0x9c
 544 021c 36020000 		.4byte	0x236
 545 0220 0E       		.uleb128 0xe
 546 0221 B7030000 		.4byte	0x3b7
 547 0225 00000000 		.4byte	.LBI26
 548 0229 02       		.byte	.LVU55
 549 022a 00000000 		.4byte	.LBB26
 550 022e 06000000 		.4byte	.LBE26-.LBB26
 551 0232 01       		.byte	0x1
 552 0233 B5       		.byte	0xb5
 553 0234 0A       		.byte	0xa
 554 0235 00       		.byte	0
 555 0236 0D       		.uleb128 0xd
 556 0237 D8020000 		.4byte	.LASF26
 557 023b 01       		.byte	0x1
 558 023c A3       		.byte	0xa3
 559 023d 0B       		.byte	0xb
 560 023e 9B000000 		.4byte	0x9b
 561 0242 00000000 		.4byte	.LFB405
 562 0246 08000000 		.4byte	.LFE405-.LFB405
 563 024a 01       		.uleb128 0x1
 564 024b 9C       		.byte	0x9c
 565 024c 6F020000 		.4byte	0x26f
 566 0250 0F       		.uleb128 0xf
 567 0251 DD000000 		.4byte	.LASF27
 568 0255 7F020000 		.4byte	0x27f
 569 0259 0E       		.uleb128 0xe
 570 025a C5030000 		.4byte	0x3c5
ARM GAS  /tmp/ccQvhFd3.s 			page 11


 571 025e 00000000 		.4byte	.LBI24
 572 0262 05       		.byte	.LVU49
 573 0263 00000000 		.4byte	.LBB24
 574 0267 06000000 		.4byte	.LBE24-.LBB24
 575 026b 01       		.byte	0x1
 576 026c A7       		.byte	0xa7
 577 026d 0A       		.byte	0xa
 578 026e 00       		.byte	0
 579 026f 07       		.uleb128 0x7
 580 0270 96000000 		.4byte	0x96
 581 0274 7F020000 		.4byte	0x27f
 582 0278 08       		.uleb128 0x8
 583 0279 2C000000 		.4byte	0x2c
 584 027d 0A       		.byte	0xa
 585 027e 00       		.byte	0
 586 027f 06       		.uleb128 0x6
 587 0280 6F020000 		.4byte	0x26f
 588 0284 10       		.uleb128 0x10
 589 0285 3F020000 		.4byte	.LASF28
 590 0289 01       		.byte	0x1
 591 028a 93       		.byte	0x93
 592 028b 06       		.byte	0x6
 593 028c 00000000 		.4byte	.LFB404
 594 0290 08000000 		.4byte	.LFE404-.LFB404
 595 0294 01       		.uleb128 0x1
 596 0295 9C       		.byte	0x9c
 597 0296 D5020000 		.4byte	0x2d5
 598 029a 11       		.uleb128 0x11
 599 029b F9000000 		.4byte	.LASF31
 600 029f 01       		.byte	0x1
 601 02a0 93       		.byte	0x93
 602 02a1 1B       		.byte	0x1b
 603 02a2 9B000000 		.4byte	0x9b
 604 02a6 01       		.uleb128 0x1
 605 02a7 50       		.byte	0x50
 606 02a8 0F       		.uleb128 0xf
 607 02a9 DD000000 		.4byte	.LASF27
 608 02ad 7F020000 		.4byte	0x27f
 609 02b1 12       		.uleb128 0x12
 610 02b2 D3030000 		.4byte	0x3d3
 611 02b6 04000000 		.4byte	.LBI21
 612 02ba 01       		.byte	.LVU39
 613 02bb 00000000 		.4byte	.LBB21
 614 02bf 06000000 		.4byte	.LBE21-.LBB21
 615 02c3 01       		.byte	0x1
 616 02c4 97       		.byte	0x97
 617 02c5 03       		.byte	0x3
 618 02c6 13       		.uleb128 0x13
 619 02c7 E1030000 		.4byte	0x3e1
 620 02cb 02000000 		.4byte	.LLST1
 621 02cf 00000000 		.4byte	.LVUS1
 622 02d3 00       		.byte	0
 623 02d4 00       		.byte	0
 624 02d5 10       		.uleb128 0x10
 625 02d6 01020000 		.4byte	.LASF29
 626 02da 01       		.byte	0x1
 627 02db 85       		.byte	0x85
ARM GAS  /tmp/ccQvhFd3.s 			page 12


 628 02dc 06       		.byte	0x6
 629 02dd 00000000 		.4byte	.LFB403
 630 02e1 0A000000 		.4byte	.LFE403-.LFB403
 631 02e5 01       		.uleb128 0x1
 632 02e6 9C       		.byte	0x9c
 633 02e7 01030000 		.4byte	0x301
 634 02eb 0E       		.uleb128 0xe
 635 02ec EF030000 		.4byte	0x3ef
 636 02f0 00000000 		.4byte	.LBI19
 637 02f4 02       		.byte	.LVU28
 638 02f5 00000000 		.4byte	.LBB19
 639 02f9 08000000 		.4byte	.LBE19-.LBB19
 640 02fd 01       		.byte	0x1
 641 02fe 87       		.byte	0x87
 642 02ff 03       		.byte	0x3
 643 0300 00       		.byte	0
 644 0301 10       		.uleb128 0x10
 645 0302 32020000 		.4byte	.LASF30
 646 0306 01       		.byte	0x1
 647 0307 77       		.byte	0x77
 648 0308 06       		.byte	0x6
 649 0309 00000000 		.4byte	.LFB402
 650 030d 10000000 		.4byte	.LFE402-.LFB402
 651 0311 01       		.uleb128 0x1
 652 0312 9C       		.byte	0x9c
 653 0313 52030000 		.4byte	0x352
 654 0317 11       		.uleb128 0x11
 655 0318 F9000000 		.4byte	.LASF31
 656 031c 01       		.byte	0x1
 657 031d 77       		.byte	0x77
 658 031e 1D       		.byte	0x1d
 659 031f 9B000000 		.4byte	0x9b
 660 0323 01       		.uleb128 0x1
 661 0324 50       		.byte	0x50
 662 0325 0F       		.uleb128 0xf
 663 0326 DD000000 		.4byte	.LASF27
 664 032a 62030000 		.4byte	0x362
 665 032e 12       		.uleb128 0x12
 666 032f F9030000 		.4byte	0x3f9
 667 0333 04000000 		.4byte	.LBI16
 668 0337 01       		.byte	.LVU15
 669 0338 00000000 		.4byte	.LBB16
 670 033c 0E000000 		.4byte	.LBE16-.LBB16
 671 0340 01       		.byte	0x1
 672 0341 7B       		.byte	0x7b
 673 0342 03       		.byte	0x3
 674 0343 13       		.uleb128 0x13
 675 0344 07040000 		.4byte	0x407
 676 0348 17000000 		.4byte	.LLST0
 677 034c 15000000 		.4byte	.LVUS0
 678 0350 00       		.byte	0
 679 0351 00       		.byte	0
 680 0352 07       		.uleb128 0x7
 681 0353 96000000 		.4byte	0x96
 682 0357 62030000 		.4byte	0x362
 683 035b 08       		.uleb128 0x8
 684 035c 2C000000 		.4byte	0x2c
ARM GAS  /tmp/ccQvhFd3.s 			page 13


 685 0360 0C       		.byte	0xc
 686 0361 00       		.byte	0
 687 0362 06       		.uleb128 0x6
 688 0363 52030000 		.4byte	0x352
 689 0367 0D       		.uleb128 0xd
 690 0368 15000000 		.4byte	.LASF32
 691 036c 01       		.byte	0x1
 692 036d 67       		.byte	0x67
 693 036e 0B       		.byte	0xb
 694 036f 9B000000 		.4byte	0x9b
 695 0373 00000000 		.4byte	.LFB401
 696 0377 08000000 		.4byte	.LFE401-.LFB401
 697 037b 01       		.uleb128 0x1
 698 037c 9C       		.byte	0x9c
 699 037d 97030000 		.4byte	0x397
 700 0381 0E       		.uleb128 0xe
 701 0382 15040000 		.4byte	0x415
 702 0386 00000000 		.4byte	.LBI14
 703 038a 02       		.byte	.LVU4
 704 038b 00000000 		.4byte	.LBB14
 705 038f 06000000 		.4byte	.LBE14-.LBB14
 706 0393 01       		.byte	0x1
 707 0394 69       		.byte	0x69
 708 0395 0A       		.byte	0xa
 709 0396 00       		.byte	0
 710 0397 10       		.uleb128 0x10
 711 0398 4A020000 		.4byte	.LASF33
 712 039c 01       		.byte	0x1
 713 039d 45       		.byte	0x45
 714 039e 06       		.byte	0x6
 715 039f 00000000 		.4byte	.LFB400
 716 03a3 04000000 		.4byte	.LFE400-.LFB400
 717 03a7 01       		.uleb128 0x1
 718 03a8 9C       		.byte	0x9c
 719 03a9 B7030000 		.4byte	0x3b7
 720 03ad 14       		.uleb128 0x14
 721 03ae 04000000 		.4byte	.LVL0
 722 03b2 23040000 		.4byte	0x423
 723 03b6 00       		.byte	0
 724 03b7 15       		.uleb128 0x15
 725 03b8 B5000000 		.4byte	.LASF34
 726 03bc 02       		.byte	0x2
 727 03bd 0103     		.2byte	0x301
 728 03bf 14       		.byte	0x14
 729 03c0 D1000000 		.4byte	0xd1
 730 03c4 03       		.byte	0x3
 731 03c5 15       		.uleb128 0x15
 732 03c6 5F020000 		.4byte	.LASF35
 733 03ca 02       		.byte	0x2
 734 03cb F302     		.2byte	0x2f3
 735 03cd 19       		.byte	0x19
 736 03ce 9B000000 		.4byte	0x9b
 737 03d2 03       		.byte	0x3
 738 03d3 16       		.uleb128 0x16
 739 03d4 21010000 		.4byte	.LASF36
 740 03d8 02       		.byte	0x2
 741 03d9 E702     		.2byte	0x2e7
ARM GAS  /tmp/ccQvhFd3.s 			page 14


 742 03db 14       		.byte	0x14
 743 03dc 03       		.byte	0x3
 744 03dd EF030000 		.4byte	0x3ef
 745 03e1 17       		.uleb128 0x17
 746 03e2 F9000000 		.4byte	.LASF31
 747 03e6 02       		.byte	0x2
 748 03e7 E702     		.2byte	0x2e7
 749 03e9 2F       		.byte	0x2f
 750 03ea 9B000000 		.4byte	0x9b
 751 03ee 00       		.byte	0
 752 03ef 18       		.uleb128 0x18
 753 03f0 A3000000 		.4byte	.LASF42
 754 03f4 02       		.byte	0x2
 755 03f5 D702     		.2byte	0x2d7
 756 03f7 14       		.byte	0x14
 757 03f8 03       		.byte	0x3
 758 03f9 16       		.uleb128 0x16
 759 03fa E6000000 		.4byte	.LASF37
 760 03fe 02       		.byte	0x2
 761 03ff C702     		.2byte	0x2c7
 762 0401 14       		.byte	0x14
 763 0402 03       		.byte	0x3
 764 0403 15040000 		.4byte	0x415
 765 0407 17       		.uleb128 0x17
 766 0408 F9000000 		.4byte	.LASF31
 767 040c 02       		.byte	0x2
 768 040d C702     		.2byte	0x2c7
 769 040f 31       		.byte	0x31
 770 0410 9B000000 		.4byte	0x9b
 771 0414 00       		.byte	0
 772 0415 15       		.uleb128 0x15
 773 0416 0D020000 		.4byte	.LASF38
 774 041a 02       		.byte	0x2
 775 041b B902     		.2byte	0x2b9
 776 041d 19       		.byte	0x19
 777 041e 9B000000 		.4byte	0x9b
 778 0422 03       		.byte	0x3
 779 0423 19       		.uleb128 0x19
 780 0424 8D000000 		.4byte	.LASF43
 781 0428 8D000000 		.4byte	.LASF43
 782 042c 02       		.byte	0x2
 783 042d A502     		.2byte	0x2a5
 784 042f 08       		.byte	0x8
 785 0430 00       		.byte	0
 786              		.section	.debug_abbrev,"",%progbits
 787              	.Ldebug_abbrev0:
 788 0000 01       		.uleb128 0x1
 789 0001 11       		.uleb128 0x11
 790 0002 01       		.byte	0x1
 791 0003 25       		.uleb128 0x25
 792 0004 0E       		.uleb128 0xe
 793 0005 13       		.uleb128 0x13
 794 0006 0B       		.uleb128 0xb
 795 0007 03       		.uleb128 0x3
 796 0008 0E       		.uleb128 0xe
 797 0009 1B       		.uleb128 0x1b
 798 000a 0E       		.uleb128 0xe
ARM GAS  /tmp/ccQvhFd3.s 			page 15


 799 000b 55       		.uleb128 0x55
 800 000c 17       		.uleb128 0x17
 801 000d 11       		.uleb128 0x11
 802 000e 01       		.uleb128 0x1
 803 000f 10       		.uleb128 0x10
 804 0010 17       		.uleb128 0x17
 805 0011 00       		.byte	0
 806 0012 00       		.byte	0
 807 0013 02       		.uleb128 0x2
 808 0014 24       		.uleb128 0x24
 809 0015 00       		.byte	0
 810 0016 0B       		.uleb128 0xb
 811 0017 0B       		.uleb128 0xb
 812 0018 3E       		.uleb128 0x3e
 813 0019 0B       		.uleb128 0xb
 814 001a 03       		.uleb128 0x3
 815 001b 08       		.uleb128 0x8
 816 001c 00       		.byte	0
 817 001d 00       		.byte	0
 818 001e 03       		.uleb128 0x3
 819 001f 24       		.uleb128 0x24
 820 0020 00       		.byte	0
 821 0021 0B       		.uleb128 0xb
 822 0022 0B       		.uleb128 0xb
 823 0023 3E       		.uleb128 0x3e
 824 0024 0B       		.uleb128 0xb
 825 0025 03       		.uleb128 0x3
 826 0026 0E       		.uleb128 0xe
 827 0027 00       		.byte	0
 828 0028 00       		.byte	0
 829 0029 04       		.uleb128 0x4
 830 002a 16       		.uleb128 0x16
 831 002b 00       		.byte	0
 832 002c 03       		.uleb128 0x3
 833 002d 0E       		.uleb128 0xe
 834 002e 3A       		.uleb128 0x3a
 835 002f 0B       		.uleb128 0xb
 836 0030 3B       		.uleb128 0x3b
 837 0031 0B       		.uleb128 0xb
 838 0032 39       		.uleb128 0x39
 839 0033 0B       		.uleb128 0xb
 840 0034 49       		.uleb128 0x49
 841 0035 13       		.uleb128 0x13
 842 0036 00       		.byte	0
 843 0037 00       		.byte	0
 844 0038 05       		.uleb128 0x5
 845 0039 35       		.uleb128 0x35
 846 003a 00       		.byte	0
 847 003b 49       		.uleb128 0x49
 848 003c 13       		.uleb128 0x13
 849 003d 00       		.byte	0
 850 003e 00       		.byte	0
 851 003f 06       		.uleb128 0x6
 852 0040 26       		.uleb128 0x26
 853 0041 00       		.byte	0
 854 0042 49       		.uleb128 0x49
 855 0043 13       		.uleb128 0x13
ARM GAS  /tmp/ccQvhFd3.s 			page 16


 856 0044 00       		.byte	0
 857 0045 00       		.byte	0
 858 0046 07       		.uleb128 0x7
 859 0047 01       		.uleb128 0x1
 860 0048 01       		.byte	0x1
 861 0049 49       		.uleb128 0x49
 862 004a 13       		.uleb128 0x13
 863 004b 01       		.uleb128 0x1
 864 004c 13       		.uleb128 0x13
 865 004d 00       		.byte	0
 866 004e 00       		.byte	0
 867 004f 08       		.uleb128 0x8
 868 0050 21       		.uleb128 0x21
 869 0051 00       		.byte	0
 870 0052 49       		.uleb128 0x49
 871 0053 13       		.uleb128 0x13
 872 0054 2F       		.uleb128 0x2f
 873 0055 0B       		.uleb128 0xb
 874 0056 00       		.byte	0
 875 0057 00       		.byte	0
 876 0058 09       		.uleb128 0x9
 877 0059 13       		.uleb128 0x13
 878 005a 01       		.byte	0x1
 879 005b 0B       		.uleb128 0xb
 880 005c 0B       		.uleb128 0xb
 881 005d 3A       		.uleb128 0x3a
 882 005e 0B       		.uleb128 0xb
 883 005f 3B       		.uleb128 0x3b
 884 0060 05       		.uleb128 0x5
 885 0061 39       		.uleb128 0x39
 886 0062 0B       		.uleb128 0xb
 887 0063 01       		.uleb128 0x1
 888 0064 13       		.uleb128 0x13
 889 0065 00       		.byte	0
 890 0066 00       		.byte	0
 891 0067 0A       		.uleb128 0xa
 892 0068 0D       		.uleb128 0xd
 893 0069 00       		.byte	0
 894 006a 03       		.uleb128 0x3
 895 006b 08       		.uleb128 0x8
 896 006c 3A       		.uleb128 0x3a
 897 006d 0B       		.uleb128 0xb
 898 006e 3B       		.uleb128 0x3b
 899 006f 05       		.uleb128 0x5
 900 0070 39       		.uleb128 0x39
 901 0071 0B       		.uleb128 0xb
 902 0072 49       		.uleb128 0x49
 903 0073 13       		.uleb128 0x13
 904 0074 38       		.uleb128 0x38
 905 0075 0B       		.uleb128 0xb
 906 0076 00       		.byte	0
 907 0077 00       		.byte	0
 908 0078 0B       		.uleb128 0xb
 909 0079 0D       		.uleb128 0xd
 910 007a 00       		.byte	0
 911 007b 03       		.uleb128 0x3
 912 007c 0E       		.uleb128 0xe
ARM GAS  /tmp/ccQvhFd3.s 			page 17


 913 007d 3A       		.uleb128 0x3a
 914 007e 0B       		.uleb128 0xb
 915 007f 3B       		.uleb128 0x3b
 916 0080 05       		.uleb128 0x5
 917 0081 39       		.uleb128 0x39
 918 0082 0B       		.uleb128 0xb
 919 0083 49       		.uleb128 0x49
 920 0084 13       		.uleb128 0x13
 921 0085 38       		.uleb128 0x38
 922 0086 0B       		.uleb128 0xb
 923 0087 00       		.byte	0
 924 0088 00       		.byte	0
 925 0089 0C       		.uleb128 0xc
 926 008a 16       		.uleb128 0x16
 927 008b 00       		.byte	0
 928 008c 03       		.uleb128 0x3
 929 008d 0E       		.uleb128 0xe
 930 008e 3A       		.uleb128 0x3a
 931 008f 0B       		.uleb128 0xb
 932 0090 3B       		.uleb128 0x3b
 933 0091 05       		.uleb128 0x5
 934 0092 39       		.uleb128 0x39
 935 0093 0B       		.uleb128 0xb
 936 0094 49       		.uleb128 0x49
 937 0095 13       		.uleb128 0x13
 938 0096 00       		.byte	0
 939 0097 00       		.byte	0
 940 0098 0D       		.uleb128 0xd
 941 0099 2E       		.uleb128 0x2e
 942 009a 01       		.byte	0x1
 943 009b 3F       		.uleb128 0x3f
 944 009c 19       		.uleb128 0x19
 945 009d 03       		.uleb128 0x3
 946 009e 0E       		.uleb128 0xe
 947 009f 3A       		.uleb128 0x3a
 948 00a0 0B       		.uleb128 0xb
 949 00a1 3B       		.uleb128 0x3b
 950 00a2 0B       		.uleb128 0xb
 951 00a3 39       		.uleb128 0x39
 952 00a4 0B       		.uleb128 0xb
 953 00a5 27       		.uleb128 0x27
 954 00a6 19       		.uleb128 0x19
 955 00a7 49       		.uleb128 0x49
 956 00a8 13       		.uleb128 0x13
 957 00a9 11       		.uleb128 0x11
 958 00aa 01       		.uleb128 0x1
 959 00ab 12       		.uleb128 0x12
 960 00ac 06       		.uleb128 0x6
 961 00ad 40       		.uleb128 0x40
 962 00ae 18       		.uleb128 0x18
 963 00af 9742     		.uleb128 0x2117
 964 00b1 19       		.uleb128 0x19
 965 00b2 01       		.uleb128 0x1
 966 00b3 13       		.uleb128 0x13
 967 00b4 00       		.byte	0
 968 00b5 00       		.byte	0
 969 00b6 0E       		.uleb128 0xe
ARM GAS  /tmp/ccQvhFd3.s 			page 18


 970 00b7 1D       		.uleb128 0x1d
 971 00b8 00       		.byte	0
 972 00b9 31       		.uleb128 0x31
 973 00ba 13       		.uleb128 0x13
 974 00bb 52       		.uleb128 0x52
 975 00bc 01       		.uleb128 0x1
 976 00bd B842     		.uleb128 0x2138
 977 00bf 0B       		.uleb128 0xb
 978 00c0 11       		.uleb128 0x11
 979 00c1 01       		.uleb128 0x1
 980 00c2 12       		.uleb128 0x12
 981 00c3 06       		.uleb128 0x6
 982 00c4 58       		.uleb128 0x58
 983 00c5 0B       		.uleb128 0xb
 984 00c6 59       		.uleb128 0x59
 985 00c7 0B       		.uleb128 0xb
 986 00c8 57       		.uleb128 0x57
 987 00c9 0B       		.uleb128 0xb
 988 00ca 00       		.byte	0
 989 00cb 00       		.byte	0
 990 00cc 0F       		.uleb128 0xf
 991 00cd 34       		.uleb128 0x34
 992 00ce 00       		.byte	0
 993 00cf 03       		.uleb128 0x3
 994 00d0 0E       		.uleb128 0xe
 995 00d1 49       		.uleb128 0x49
 996 00d2 13       		.uleb128 0x13
 997 00d3 34       		.uleb128 0x34
 998 00d4 19       		.uleb128 0x19
 999 00d5 00       		.byte	0
 1000 00d6 00       		.byte	0
 1001 00d7 10       		.uleb128 0x10
 1002 00d8 2E       		.uleb128 0x2e
 1003 00d9 01       		.byte	0x1
 1004 00da 3F       		.uleb128 0x3f
 1005 00db 19       		.uleb128 0x19
 1006 00dc 03       		.uleb128 0x3
 1007 00dd 0E       		.uleb128 0xe
 1008 00de 3A       		.uleb128 0x3a
 1009 00df 0B       		.uleb128 0xb
 1010 00e0 3B       		.uleb128 0x3b
 1011 00e1 0B       		.uleb128 0xb
 1012 00e2 39       		.uleb128 0x39
 1013 00e3 0B       		.uleb128 0xb
 1014 00e4 27       		.uleb128 0x27
 1015 00e5 19       		.uleb128 0x19
 1016 00e6 11       		.uleb128 0x11
 1017 00e7 01       		.uleb128 0x1
 1018 00e8 12       		.uleb128 0x12
 1019 00e9 06       		.uleb128 0x6
 1020 00ea 40       		.uleb128 0x40
 1021 00eb 18       		.uleb128 0x18
 1022 00ec 9742     		.uleb128 0x2117
 1023 00ee 19       		.uleb128 0x19
 1024 00ef 01       		.uleb128 0x1
 1025 00f0 13       		.uleb128 0x13
 1026 00f1 00       		.byte	0
ARM GAS  /tmp/ccQvhFd3.s 			page 19


 1027 00f2 00       		.byte	0
 1028 00f3 11       		.uleb128 0x11
 1029 00f4 05       		.uleb128 0x5
 1030 00f5 00       		.byte	0
 1031 00f6 03       		.uleb128 0x3
 1032 00f7 0E       		.uleb128 0xe
 1033 00f8 3A       		.uleb128 0x3a
 1034 00f9 0B       		.uleb128 0xb
 1035 00fa 3B       		.uleb128 0x3b
 1036 00fb 0B       		.uleb128 0xb
 1037 00fc 39       		.uleb128 0x39
 1038 00fd 0B       		.uleb128 0xb
 1039 00fe 49       		.uleb128 0x49
 1040 00ff 13       		.uleb128 0x13
 1041 0100 02       		.uleb128 0x2
 1042 0101 18       		.uleb128 0x18
 1043 0102 00       		.byte	0
 1044 0103 00       		.byte	0
 1045 0104 12       		.uleb128 0x12
 1046 0105 1D       		.uleb128 0x1d
 1047 0106 01       		.byte	0x1
 1048 0107 31       		.uleb128 0x31
 1049 0108 13       		.uleb128 0x13
 1050 0109 52       		.uleb128 0x52
 1051 010a 01       		.uleb128 0x1
 1052 010b B842     		.uleb128 0x2138
 1053 010d 0B       		.uleb128 0xb
 1054 010e 11       		.uleb128 0x11
 1055 010f 01       		.uleb128 0x1
 1056 0110 12       		.uleb128 0x12
 1057 0111 06       		.uleb128 0x6
 1058 0112 58       		.uleb128 0x58
 1059 0113 0B       		.uleb128 0xb
 1060 0114 59       		.uleb128 0x59
 1061 0115 0B       		.uleb128 0xb
 1062 0116 57       		.uleb128 0x57
 1063 0117 0B       		.uleb128 0xb
 1064 0118 00       		.byte	0
 1065 0119 00       		.byte	0
 1066 011a 13       		.uleb128 0x13
 1067 011b 05       		.uleb128 0x5
 1068 011c 00       		.byte	0
 1069 011d 31       		.uleb128 0x31
 1070 011e 13       		.uleb128 0x13
 1071 011f 02       		.uleb128 0x2
 1072 0120 17       		.uleb128 0x17
 1073 0121 B742     		.uleb128 0x2137
 1074 0123 17       		.uleb128 0x17
 1075 0124 00       		.byte	0
 1076 0125 00       		.byte	0
 1077 0126 14       		.uleb128 0x14
 1078 0127 898201   		.uleb128 0x4109
 1079 012a 00       		.byte	0
 1080 012b 11       		.uleb128 0x11
 1081 012c 01       		.uleb128 0x1
 1082 012d 9542     		.uleb128 0x2115
 1083 012f 19       		.uleb128 0x19
ARM GAS  /tmp/ccQvhFd3.s 			page 20


 1084 0130 31       		.uleb128 0x31
 1085 0131 13       		.uleb128 0x13
 1086 0132 00       		.byte	0
 1087 0133 00       		.byte	0
 1088 0134 15       		.uleb128 0x15
 1089 0135 2E       		.uleb128 0x2e
 1090 0136 00       		.byte	0
 1091 0137 03       		.uleb128 0x3
 1092 0138 0E       		.uleb128 0xe
 1093 0139 3A       		.uleb128 0x3a
 1094 013a 0B       		.uleb128 0xb
 1095 013b 3B       		.uleb128 0x3b
 1096 013c 05       		.uleb128 0x5
 1097 013d 39       		.uleb128 0x39
 1098 013e 0B       		.uleb128 0xb
 1099 013f 27       		.uleb128 0x27
 1100 0140 19       		.uleb128 0x19
 1101 0141 49       		.uleb128 0x49
 1102 0142 13       		.uleb128 0x13
 1103 0143 20       		.uleb128 0x20
 1104 0144 0B       		.uleb128 0xb
 1105 0145 00       		.byte	0
 1106 0146 00       		.byte	0
 1107 0147 16       		.uleb128 0x16
 1108 0148 2E       		.uleb128 0x2e
 1109 0149 01       		.byte	0x1
 1110 014a 03       		.uleb128 0x3
 1111 014b 0E       		.uleb128 0xe
 1112 014c 3A       		.uleb128 0x3a
 1113 014d 0B       		.uleb128 0xb
 1114 014e 3B       		.uleb128 0x3b
 1115 014f 05       		.uleb128 0x5
 1116 0150 39       		.uleb128 0x39
 1117 0151 0B       		.uleb128 0xb
 1118 0152 27       		.uleb128 0x27
 1119 0153 19       		.uleb128 0x19
 1120 0154 20       		.uleb128 0x20
 1121 0155 0B       		.uleb128 0xb
 1122 0156 01       		.uleb128 0x1
 1123 0157 13       		.uleb128 0x13
 1124 0158 00       		.byte	0
 1125 0159 00       		.byte	0
 1126 015a 17       		.uleb128 0x17
 1127 015b 05       		.uleb128 0x5
 1128 015c 00       		.byte	0
 1129 015d 03       		.uleb128 0x3
 1130 015e 0E       		.uleb128 0xe
 1131 015f 3A       		.uleb128 0x3a
 1132 0160 0B       		.uleb128 0xb
 1133 0161 3B       		.uleb128 0x3b
 1134 0162 05       		.uleb128 0x5
 1135 0163 39       		.uleb128 0x39
 1136 0164 0B       		.uleb128 0xb
 1137 0165 49       		.uleb128 0x49
 1138 0166 13       		.uleb128 0x13
 1139 0167 00       		.byte	0
 1140 0168 00       		.byte	0
ARM GAS  /tmp/ccQvhFd3.s 			page 21


 1141 0169 18       		.uleb128 0x18
 1142 016a 2E       		.uleb128 0x2e
 1143 016b 00       		.byte	0
 1144 016c 03       		.uleb128 0x3
 1145 016d 0E       		.uleb128 0xe
 1146 016e 3A       		.uleb128 0x3a
 1147 016f 0B       		.uleb128 0xb
 1148 0170 3B       		.uleb128 0x3b
 1149 0171 05       		.uleb128 0x5
 1150 0172 39       		.uleb128 0x39
 1151 0173 0B       		.uleb128 0xb
 1152 0174 27       		.uleb128 0x27
 1153 0175 19       		.uleb128 0x19
 1154 0176 20       		.uleb128 0x20
 1155 0177 0B       		.uleb128 0xb
 1156 0178 00       		.byte	0
 1157 0179 00       		.byte	0
 1158 017a 19       		.uleb128 0x19
 1159 017b 2E       		.uleb128 0x2e
 1160 017c 00       		.byte	0
 1161 017d 3F       		.uleb128 0x3f
 1162 017e 19       		.uleb128 0x19
 1163 017f 3C       		.uleb128 0x3c
 1164 0180 19       		.uleb128 0x19
 1165 0181 6E       		.uleb128 0x6e
 1166 0182 0E       		.uleb128 0xe
 1167 0183 03       		.uleb128 0x3
 1168 0184 0E       		.uleb128 0xe
 1169 0185 3A       		.uleb128 0x3a
 1170 0186 0B       		.uleb128 0xb
 1171 0187 3B       		.uleb128 0x3b
 1172 0188 05       		.uleb128 0x5
 1173 0189 39       		.uleb128 0x39
 1174 018a 0B       		.uleb128 0xb
 1175 018b 00       		.byte	0
 1176 018c 00       		.byte	0
 1177 018d 00       		.byte	0
 1178              		.section	.debug_loc,"",%progbits
 1179              	.Ldebug_loc0:
 1180              	.LVUS1:
 1181 0000 00       		.uleb128 .LVU38
 1182 0001 00       		.uleb128 .LVU42
 1183              	.LLST1:
 1184 0002 04000000 		.4byte	.LVL5
 1185 0006 06000000 		.4byte	.LVL6
 1186 000a 0100     		.2byte	0x1
 1187 000c 50       		.byte	0x50
 1188 000d 00000000 		.4byte	0
 1189 0011 00000000 		.4byte	0
 1190              	.LVUS0:
 1191 0015 00       		.uleb128 .LVU14
 1192 0016 00       		.uleb128 .LVU24
 1193              	.LLST0:
 1194 0017 04000000 		.4byte	.LVL2
 1195 001b 0E000000 		.4byte	.LVL3
 1196 001f 0100     		.2byte	0x1
 1197 0021 50       		.byte	0x50
ARM GAS  /tmp/ccQvhFd3.s 			page 22


 1198 0022 00000000 		.4byte	0
 1199 0026 00000000 		.4byte	0
 1200              		.section	.debug_aranges,"",%progbits
 1201 0000 4C000000 		.4byte	0x4c
 1202 0004 0200     		.2byte	0x2
 1203 0006 00000000 		.4byte	.Ldebug_info0
 1204 000a 04       		.byte	0x4
 1205 000b 00       		.byte	0
 1206 000c 0000     		.2byte	0
 1207 000e 0000     		.2byte	0
 1208 0010 00000000 		.4byte	.LFB400
 1209 0014 04000000 		.4byte	.LFE400-.LFB400
 1210 0018 00000000 		.4byte	.LFB401
 1211 001c 08000000 		.4byte	.LFE401-.LFB401
 1212 0020 00000000 		.4byte	.LFB402
 1213 0024 10000000 		.4byte	.LFE402-.LFB402
 1214 0028 00000000 		.4byte	.LFB403
 1215 002c 0A000000 		.4byte	.LFE403-.LFB403
 1216 0030 00000000 		.4byte	.LFB404
 1217 0034 08000000 		.4byte	.LFE404-.LFB404
 1218 0038 00000000 		.4byte	.LFB405
 1219 003c 08000000 		.4byte	.LFE405-.LFB405
 1220 0040 00000000 		.4byte	.LFB406
 1221 0044 0C000000 		.4byte	.LFE406-.LFB406
 1222 0048 00000000 		.4byte	0
 1223 004c 00000000 		.4byte	0
 1224              		.section	.debug_ranges,"",%progbits
 1225              	.Ldebug_ranges0:
 1226 0000 00000000 		.4byte	.LFB400
 1227 0004 04000000 		.4byte	.LFE400
 1228 0008 00000000 		.4byte	.LFB401
 1229 000c 08000000 		.4byte	.LFE401
 1230 0010 00000000 		.4byte	.LFB402
 1231 0014 10000000 		.4byte	.LFE402
 1232 0018 00000000 		.4byte	.LFB403
 1233 001c 0A000000 		.4byte	.LFE403
 1234 0020 00000000 		.4byte	.LFB404
 1235 0024 08000000 		.4byte	.LFE404
 1236 0028 00000000 		.4byte	.LFB405
 1237 002c 08000000 		.4byte	.LFE405
 1238 0030 00000000 		.4byte	.LFB406
 1239 0034 0C000000 		.4byte	.LFE406
 1240 0038 00000000 		.4byte	0
 1241 003c 00000000 		.4byte	0
 1242              		.section	.debug_line,"",%progbits
 1243              	.Ldebug_line0:
 1244 0000 DE020000 		.section	.debug_str,"MS",%progbits,1
 1244      03009201 
 1244      00000201 
 1244      FB0E0D00 
 1244      01010101 
 1245              	.LASF20:
 1246 0000 42445452 		.ascii	"BDTR\000"
 1246      00
 1247              	.LASF25:
 1248 0005 73744973 		.ascii	"stIsAlarmActive\000"
 1248      416C6172 
ARM GAS  /tmp/ccQvhFd3.s 			page 23


 1248      6D416374 
 1248      69766500 
 1249              	.LASF32:
 1250 0015 73744765 		.ascii	"stGetCounter\000"
 1250      74436F75 
 1250      6E746572 
 1250      00
 1251              	.LASF13:
 1252 0022 73797374 		.ascii	"systime_t\000"
 1252      696D655F 
 1252      7400
 1253              	.LASF41:
 1254 002c 2F686F6D 		.ascii	"/home/bhimebau/forge/analog_in_out/application\000"
 1254      652F6268 
 1254      696D6562 
 1254      61752F66 
 1254      6F726765 
 1255              	.LASF40:
 1256 005b 2E2E2F43 		.ascii	"../ChibiOS/os/hal/src/hal_st.c\000"
 1256      68696269 
 1256      4F532F6F 
 1256      732F6861 
 1256      6C2F7372 
 1257              	.LASF6:
 1258 007a 73686F72 		.ascii	"short unsigned int\000"
 1258      7420756E 
 1258      7369676E 
 1258      65642069 
 1258      6E7400
 1259              	.LASF43:
 1260 008d 73745F6C 		.ascii	"st_lld_init\000"
 1260      6C645F69 
 1260      6E697400 
 1261              	.LASF5:
 1262 0099 73686F72 		.ascii	"short int\000"
 1262      7420696E 
 1262      7400
 1263              	.LASF42:
 1264 00a3 73745F6C 		.ascii	"st_lld_stop_alarm\000"
 1264      6C645F73 
 1264      746F705F 
 1264      616C6172 
 1264      6D00
 1265              	.LASF34:
 1266 00b5 73745F6C 		.ascii	"st_lld_is_alarm_active\000"
 1266      6C645F69 
 1266      735F616C 
 1266      61726D5F 
 1266      61637469 
 1267              	.LASF24:
 1268 00cc 73746D33 		.ascii	"stm32_tim_t\000"
 1268      325F7469 
 1268      6D5F7400 
 1269              	.LASF16:
 1270 00d8 44494552 		.ascii	"DIER\000"
 1270      00
 1271              	.LASF27:
ARM GAS  /tmp/ccQvhFd3.s 			page 24


 1272 00dd 5F5F6675 		.ascii	"__func__\000"
 1272      6E635F5F 
 1272      00
 1273              	.LASF37:
 1274 00e6 73745F6C 		.ascii	"st_lld_start_alarm\000"
 1274      6C645F73 
 1274      74617274 
 1274      5F616C61 
 1274      726D00
 1275              	.LASF31:
 1276 00f9 61627374 		.ascii	"abstime\000"
 1276      696D6500 
 1277              	.LASF4:
 1278 0101 756E7369 		.ascii	"unsigned char\000"
 1278      676E6564 
 1278      20636861 
 1278      7200
 1279              	.LASF8:
 1280 010f 6C6F6E67 		.ascii	"long unsigned int\000"
 1280      20756E73 
 1280      69676E65 
 1280      6420696E 
 1280      7400
 1281              	.LASF36:
 1282 0121 73745F6C 		.ascii	"st_lld_set_alarm\000"
 1282      6C645F73 
 1282      65745F61 
 1282      6C61726D 
 1282      00
 1283              	.LASF39:
 1284 0132 474E5520 		.ascii	"GNU C17 10.3.1 20210621 (release) -mcpu=cortex-m4 -"
 1284      43313720 
 1284      31302E33 
 1284      2E312032 
 1284      30323130 
 1285 0165 6D746875 		.ascii	"mthumb -mfloat-abi=soft -march=armv7e-m -ggdb -O2 -"
 1285      6D62202D 
 1285      6D666C6F 
 1285      61742D61 
 1285      62693D73 
 1286 0198 666F6D69 		.ascii	"fomit-frame-pointer -falign-functions=16 -ffunction"
 1286      742D6672 
 1286      616D652D 
 1286      706F696E 
 1286      74657220 
 1287 01cb 2D736563 		.ascii	"-sections -fdata-sections -fno-common\000"
 1287      74696F6E 
 1287      73202D66 
 1287      64617461 
 1287      2D736563 
 1288              	.LASF10:
 1289 01f1 5F5F7569 		.ascii	"__uint32_t\000"
 1289      6E743332 
 1289      5F7400
 1290              	.LASF21:
 1291 01fc 444D4152 		.ascii	"DMAR\000"
 1291      00
ARM GAS  /tmp/ccQvhFd3.s 			page 25


 1292              	.LASF29:
 1293 0201 73745374 		.ascii	"stStopAlarm\000"
 1293      6F70416C 
 1293      61726D00 
 1294              	.LASF38:
 1295 020d 73745F6C 		.ascii	"st_lld_get_counter\000"
 1295      6C645F67 
 1295      65745F63 
 1295      6F756E74 
 1295      657200
 1296              	.LASF0:
 1297 0220 756E7369 		.ascii	"unsigned int\000"
 1297      676E6564 
 1297      20696E74 
 1297      00
 1298              	.LASF12:
 1299 022d 63686172 		.ascii	"char\000"
 1299      00
 1300              	.LASF30:
 1301 0232 73745374 		.ascii	"stStartAlarm\000"
 1301      61727441 
 1301      6C61726D 
 1301      00
 1302              	.LASF28:
 1303 023f 73745365 		.ascii	"stSetAlarm\000"
 1303      74416C61 
 1303      726D00
 1304              	.LASF33:
 1305 024a 7374496E 		.ascii	"stInit\000"
 1305      697400
 1306              	.LASF1:
 1307 0251 6C6F6E67 		.ascii	"long long int\000"
 1307      206C6F6E 
 1307      6720696E 
 1307      7400
 1308              	.LASF35:
 1309 025f 73745F6C 		.ascii	"st_lld_get_alarm\000"
 1309      6C645F67 
 1309      65745F61 
 1309      6C61726D 
 1309      00
 1310              	.LASF19:
 1311 0270 43434552 		.ascii	"CCER\000"
 1311      00
 1312              	.LASF15:
 1313 0275 534D4352 		.ascii	"SMCR\000"
 1313      00
 1314              	.LASF17:
 1315 027a 43434D52 		.ascii	"CCMR1\000"
 1315      3100
 1316              	.LASF18:
 1317 0280 43434D52 		.ascii	"CCMR2\000"
 1317      3200
 1318              	.LASF22:
 1319 0286 43434D52 		.ascii	"CCMR3\000"
 1319      3300
 1320              	.LASF11:
ARM GAS  /tmp/ccQvhFd3.s 			page 26


 1321 028c 75696E74 		.ascii	"uint32_t\000"
 1321      33325F74 
 1321      00
 1322              	.LASF7:
 1323 0295 6C6F6E67 		.ascii	"long int\000"
 1323      20696E74 
 1323      00
 1324              	.LASF2:
 1325 029e 6C6F6E67 		.ascii	"long double\000"
 1325      20646F75 
 1325      626C6500 
 1326              	.LASF3:
 1327 02aa 7369676E 		.ascii	"signed char\000"
 1327      65642063 
 1327      68617200 
 1328              	.LASF14:
 1329 02b6 5F426F6F 		.ascii	"_Bool\000"
 1329      6C00
 1330              	.LASF9:
 1331 02bc 6C6F6E67 		.ascii	"long long unsigned int\000"
 1331      206C6F6E 
 1331      6720756E 
 1331      7369676E 
 1331      65642069 
 1332              	.LASF23:
 1333 02d3 43435852 		.ascii	"CCXR\000"
 1333      00
 1334              	.LASF26:
 1335 02d8 73744765 		.ascii	"stGetAlarm\000"
 1335      74416C61 
 1335      726D00
 1336              		.ident	"GCC: (GNU Arm Embedded Toolchain 10.3-2021.07) 10.3.1 20210621 (release)"
ARM GAS  /tmp/ccQvhFd3.s 			page 27


DEFINED SYMBOLS
                            *ABS*:0000000000000000 hal_st.c
     /tmp/ccQvhFd3.s:16     .text.stInit:0000000000000000 $t
     /tmp/ccQvhFd3.s:25     .text.stInit:0000000000000000 stInit
     /tmp/ccQvhFd3.s:40     .text.stGetCounter:0000000000000000 $t
     /tmp/ccQvhFd3.s:48     .text.stGetCounter:0000000000000000 stGetCounter
     /tmp/ccQvhFd3.s:73     .text.stStartAlarm:0000000000000000 $t
     /tmp/ccQvhFd3.s:81     .text.stStartAlarm:0000000000000000 stStartAlarm
     /tmp/ccQvhFd3.s:126    .text.stStopAlarm:0000000000000000 $t
     /tmp/ccQvhFd3.s:134    .text.stStopAlarm:0000000000000000 stStopAlarm
     /tmp/ccQvhFd3.s:159    .text.stSetAlarm:0000000000000000 $t
     /tmp/ccQvhFd3.s:167    .text.stSetAlarm:0000000000000000 stSetAlarm
     /tmp/ccQvhFd3.s:202    .text.stGetAlarm:0000000000000000 $t
     /tmp/ccQvhFd3.s:210    .text.stGetAlarm:0000000000000000 stGetAlarm
     /tmp/ccQvhFd3.s:237    .text.stIsAlarmActive:0000000000000000 $t
     /tmp/ccQvhFd3.s:245    .text.stIsAlarmActive:0000000000000000 stIsAlarmActive

UNDEFINED SYMBOLS
st_lld_init
