ARM GAS  /tmp/cccn03eJ.s 			page 1


   1              		.cpu cortex-m4
   2              		.eabi_attribute 20, 1
   3              		.eabi_attribute 21, 1
   4              		.eabi_attribute 23, 3
   5              		.eabi_attribute 24, 1
   6              		.eabi_attribute 25, 1
   7              		.eabi_attribute 26, 1
   8              		.eabi_attribute 30, 2
   9              		.eabi_attribute 34, 1
  10              		.eabi_attribute 18, 4
  11              		.file	"hal_dac.c"
  12              		.text
  13              	.Ltext0:
  14              		.cfi_sections	.debug_frame
  15              		.section	.text.dacInit,"ax",%progbits
  16              		.align	1
  17              		.p2align 4,,15
  18              		.global	dacInit
  19              		.arch armv7e-m
  20              		.syntax unified
  21              		.thumb
  22              		.thumb_func
  23              		.fpu softvfp
  24              		.type	dacInit, %function
  25              	dacInit:
  26              	.LFB400:
  27              		.file 1 "../ChibiOS/os/hal/src/hal_dac.c"
  28              		.loc 1 56 20 view -0
  29              		.cfi_startproc
  30              		@ args = 0, pretend = 0, frame = 0
  31              		@ frame_needed = 0, uses_anonymous_args = 0
  32              		@ link register save eliminated.
  33              		.loc 1 58 3 view .LVU1
  34 0000 FFF7FEBF 		b	dac_lld_init
  35              	.LVL0:
  36              		.cfi_endproc
  37              	.LFE400:
  38              		.size	dacInit, .-dacInit
  39              		.section	.text.dacObjectInit,"ax",%progbits
  40              		.align	1
  41              		.p2align 4,,15
  42              		.global	dacObjectInit
  43              		.syntax unified
  44              		.thumb
  45              		.thumb_func
  46              		.fpu softvfp
  47              		.type	dacObjectInit, %function
  48              	dacObjectInit:
  49              	.LVL1:
  50              	.LFB401:
  51              		.loc 1 68 37 view -0
  52              		.cfi_startproc
  53              		@ args = 0, pretend = 0, frame = 0
  54              		@ frame_needed = 0, uses_anonymous_args = 0
  55              		@ link register save eliminated.
  56              		.loc 1 70 3 view .LVU3
  57              		.loc 1 71 16 is_stmt 0 view .LVU4
ARM GAS  /tmp/cccn03eJ.s 			page 2


  58 0000 0023     		movs	r3, #0
  59              		.loc 1 70 15 view .LVU5
  60 0002 0122     		movs	r2, #1
  61              		.loc 1 73 16 view .LVU6
  62 0004 C0E90433 		strd	r3, r3, [r0, #16]
  63              		.loc 1 70 15 view .LVU7
  64 0008 0270     		strb	r2, [r0]
  65              		.loc 1 71 3 is_stmt 1 view .LVU8
  66              		.loc 1 76 3 view .LVU9
  67              	.LVL2:
  68              	.LBB105:
  69              	.LBI105:
  70              		.file 2 "../ChibiOS/os/hal/osal/rt-nil/osal.h"
  71              		.loc 2 1035 20 view .LVU10
  72              	.LBB106:
  73              		.loc 2 1038 3 view .LVU11
  74 000a 1830     		adds	r0, r0, #24
  75              	.LVL3:
  76              		.loc 2 1038 3 is_stmt 0 view .LVU12
  77 000c FFF7FEBF 		b	chMtxObjectInit
  78              	.LVL4:
  79              		.loc 2 1038 3 view .LVU13
  80              	.LBE106:
  81              	.LBE105:
  82              		.cfi_endproc
  83              	.LFE401:
  84              		.size	dacObjectInit, .-dacObjectInit
  85              		.section	.text.dacStart,"ax",%progbits
  86              		.align	1
  87              		.p2align 4,,15
  88              		.global	dacStart
  89              		.syntax unified
  90              		.thumb
  91              		.thumb_func
  92              		.fpu softvfp
  93              		.type	dacStart, %function
  94              	dacStart:
  95              	.LVL5:
  96              	.LFB402:
  97              		.loc 1 94 58 is_stmt 1 view -0
  98              		.cfi_startproc
  99              		@ args = 0, pretend = 0, frame = 0
 100              		@ frame_needed = 0, uses_anonymous_args = 0
 101              		.loc 1 95 3 view .LVU15
 102              		.loc 1 97 3 view .LVU16
 103              		.loc 1 97 3 view .LVU17
 104              		.loc 1 97 3 view .LVU18
 105              		.loc 1 99 3 view .LVU19
 106              	.LBB107:
 107              	.LBI107:
 108              		.loc 2 573 20 view .LVU20
 109              	.LBE107:
 110              		.loc 2 575 3 view .LVU21
 111              	.LBB123:
 112              	.LBB108:
 113              	.LBI108:
 114              		.file 3 "../ChibiOS/os/rt/include/chsys.h"
ARM GAS  /tmp/cccn03eJ.s 			page 3


 115              		.loc 3 407 20 view .LVU22
 116              	.LBE108:
 117              	.LBE123:
 118              		.loc 3 409 3 view .LVU23
 119              	.LBB124:
 120              	.LBB119:
 121              	.LBB109:
 122              	.LBI109:
 123              		.file 4 "../ChibiOS/os/common/ports/ARMv7-M/chcore.h"
 124              		.loc 4 806 27 view .LVU24
 125              	.LBE109:
 126              	.LBE119:
 127              	.LBE124:
 128              		.loc 4 814 3 view .LVU25
 129              	.LBB125:
 130              	.LBB120:
 131              	.LBB116:
 132              	.LBB110:
 133              	.LBI110:
 134              		.file 5 "../ChibiOS/os/common/ext/ARM/CMSIS/Core/Include/cmsis_gcc.h"
 135              		.loc 5 491 27 view .LVU26
 136              	.LBB111:
 137              		.loc 5 493 3 view .LVU27
 138              	.LBE111:
 139              	.LBE110:
 140              	.LBE116:
 141              	.LBE120:
 142              	.LBE125:
 143              		.loc 1 94 58 is_stmt 0 view .LVU28
 144 0000 10B5     		push	{r4, lr}
 145              		.cfi_def_cfa_offset 8
 146              		.cfi_offset 4, -8
 147              		.cfi_offset 14, -4
 148              	.LBB126:
 149              	.LBB121:
 150              	.LBB117:
 151              	.LBB114:
 152              	.LBB112:
 153              		.loc 5 493 3 view .LVU29
 154 0002 3023     		movs	r3, #48
 155              	.LBE112:
 156              	.LBE114:
 157              	.LBE117:
 158              	.LBE121:
 159              	.LBE126:
 160              		.loc 1 94 58 view .LVU30
 161 0004 0446     		mov	r4, r0
 162              	.LBB127:
 163              	.LBB122:
 164              	.LBB118:
 165              	.LBB115:
 166              	.LBB113:
 167              		.loc 5 493 3 view .LVU31
 168              		.syntax unified
 169              	@ 493 "../ChibiOS/os/common/ext/ARM/CMSIS/Core/Include/cmsis_gcc.h" 1
 170 0006 83F31188 		MSR basepri, r3
 171              	@ 0 "" 2
ARM GAS  /tmp/cccn03eJ.s 			page 4


 172              	.LVL6:
 173              		.loc 5 493 3 view .LVU32
 174              		.thumb
 175              		.syntax unified
 176              	.LBE113:
 177              	.LBE115:
 178              	.LBE118:
 179              	.LBE122:
 180              	.LBE127:
 181              		.loc 3 410 35 is_stmt 1 view .LVU33
 182              		.loc 3 411 21 view .LVU34
 183              		.loc 1 101 3 view .LVU35
 184              		.loc 1 101 3 view .LVU36
 185              		.loc 1 101 3 view .LVU37
 186              		.loc 1 104 3 view .LVU38
 187              		.loc 1 104 16 is_stmt 0 view .LVU39
 188 000a 0161     		str	r1, [r0, #16]
 189              		.loc 1 109 3 is_stmt 1 view .LVU40
 190 000c FFF7FEFF 		bl	dac_lld_start
 191              	.LVL7:
 192              		.loc 1 110 3 view .LVU41
 193              		.loc 1 112 3 view .LVU42
 194              		.loc 1 113 5 view .LVU43
 195              		.loc 1 113 17 is_stmt 0 view .LVU44
 196 0010 0223     		movs	r3, #2
 197 0012 2370     		strb	r3, [r4]
 198              		.loc 1 119 3 is_stmt 1 view .LVU45
 199              	.LBB128:
 200              	.LBI128:
 201              		.loc 2 584 20 view .LVU46
 202              	.LBE128:
 203              		.loc 2 586 3 view .LVU47
 204              	.LBB137:
 205              	.LBB129:
 206              	.LBI129:
 207              		.loc 3 421 20 view .LVU48
 208              	.LBB130:
 209              		.loc 3 423 23 view .LVU49
 210              		.loc 3 424 34 view .LVU50
 211              		.loc 3 430 3 view .LVU51
 212              		.loc 3 430 3 view .LVU52
 213              		.loc 3 430 3 view .LVU53
 214              		.loc 3 434 3 view .LVU54
 215              	.LBB131:
 216              	.LBI131:
 217              		.loc 4 830 27 view .LVU55
 218              	.LBE131:
 219              	.LBE130:
 220              	.LBE129:
 221              	.LBE137:
 222              		.loc 4 833 3 view .LVU56
 223              	.LVL8:
 224              	.LBB138:
 225              	.LBB136:
 226              	.LBB135:
 227              	.LBB134:
 228              	.LBB132:
ARM GAS  /tmp/cccn03eJ.s 			page 5


 229              	.LBI132:
 230              		.loc 5 491 27 view .LVU57
 231              	.LBB133:
 232              		.loc 5 493 3 view .LVU58
 233 0014 0020     		movs	r0, #0
 234              		.syntax unified
 235              	@ 493 "../ChibiOS/os/common/ext/ARM/CMSIS/Core/Include/cmsis_gcc.h" 1
 236 0016 80F31188 		MSR basepri, r0
 237              	@ 0 "" 2
 238              	.LVL9:
 239              		.loc 5 493 3 is_stmt 0 view .LVU59
 240              		.thumb
 241              		.syntax unified
 242              	.LBE133:
 243              	.LBE132:
 244              	.LBE134:
 245              	.LBE135:
 246              	.LBE136:
 247              	.LBE138:
 248              		.loc 1 121 3 is_stmt 1 view .LVU60
 249              		.loc 1 122 1 is_stmt 0 view .LVU61
 250 001a 10BD     		pop	{r4, pc}
 251              		.loc 1 122 1 view .LVU62
 252              		.cfi_endproc
 253              	.LFE402:
 254              		.size	dacStart, .-dacStart
 255              		.section	.text.dacStop,"ax",%progbits
 256              		.align	1
 257              		.p2align 4,,15
 258              		.global	dacStop
 259              		.syntax unified
 260              		.thumb
 261              		.thumb_func
 262              		.fpu softvfp
 263              		.type	dacStop, %function
 264              	dacStop:
 265              	.LVL10:
 266              	.LFB403:
 267              		.loc 1 133 31 is_stmt 1 view -0
 268              		.cfi_startproc
 269              		@ args = 0, pretend = 0, frame = 0
 270              		@ frame_needed = 0, uses_anonymous_args = 0
 271              		.loc 1 135 3 view .LVU64
 272              		.loc 1 135 3 view .LVU65
 273              		.loc 1 135 3 view .LVU66
 274              		.loc 1 137 3 view .LVU67
 275              	.LBB139:
 276              	.LBI139:
 277              		.loc 2 573 20 view .LVU68
 278              	.LBE139:
 279              		.loc 2 575 3 view .LVU69
 280              	.LBB155:
 281              	.LBB140:
 282              	.LBI140:
 283              		.loc 3 407 20 view .LVU70
 284              	.LBE140:
 285              	.LBE155:
ARM GAS  /tmp/cccn03eJ.s 			page 6


 286              		.loc 3 409 3 view .LVU71
 287              	.LBB156:
 288              	.LBB151:
 289              	.LBB141:
 290              	.LBI141:
 291              		.loc 4 806 27 view .LVU72
 292              	.LBE141:
 293              	.LBE151:
 294              	.LBE156:
 295              		.loc 4 814 3 view .LVU73
 296              	.LBB157:
 297              	.LBB152:
 298              	.LBB148:
 299              	.LBB142:
 300              	.LBI142:
 301              		.loc 5 491 27 view .LVU74
 302              	.LBB143:
 303              		.loc 5 493 3 view .LVU75
 304              	.LBE143:
 305              	.LBE142:
 306              	.LBE148:
 307              	.LBE152:
 308              	.LBE157:
 309              		.loc 1 133 31 is_stmt 0 view .LVU76
 310 0000 10B5     		push	{r4, lr}
 311              		.cfi_def_cfa_offset 8
 312              		.cfi_offset 4, -8
 313              		.cfi_offset 14, -4
 314              	.LBB158:
 315              	.LBB153:
 316              	.LBB149:
 317              	.LBB146:
 318              	.LBB144:
 319              		.loc 5 493 3 view .LVU77
 320 0002 3023     		movs	r3, #48
 321              	.LBE144:
 322              	.LBE146:
 323              	.LBE149:
 324              	.LBE153:
 325              	.LBE158:
 326              		.loc 1 133 31 view .LVU78
 327 0004 0446     		mov	r4, r0
 328              	.LBB159:
 329              	.LBB154:
 330              	.LBB150:
 331              	.LBB147:
 332              	.LBB145:
 333              		.loc 5 493 3 view .LVU79
 334              		.syntax unified
 335              	@ 493 "../ChibiOS/os/common/ext/ARM/CMSIS/Core/Include/cmsis_gcc.h" 1
 336 0006 83F31188 		MSR basepri, r3
 337              	@ 0 "" 2
 338              	.LVL11:
 339              		.loc 5 493 3 view .LVU80
 340              		.thumb
 341              		.syntax unified
 342              	.LBE145:
ARM GAS  /tmp/cccn03eJ.s 			page 7


 343              	.LBE147:
 344              	.LBE150:
 345              	.LBE154:
 346              	.LBE159:
 347              		.loc 3 410 35 is_stmt 1 view .LVU81
 348              		.loc 3 411 21 view .LVU82
 349              		.loc 1 139 3 view .LVU83
 350              		.loc 1 139 3 view .LVU84
 351              		.loc 1 139 3 view .LVU85
 352              		.loc 1 142 3 view .LVU86
 353 000a FFF7FEFF 		bl	dac_lld_stop
 354              	.LVL12:
 355              		.loc 1 143 3 view .LVU87
 356              		.loc 1 143 16 is_stmt 0 view .LVU88
 357 000e 0023     		movs	r3, #0
 358              		.loc 1 144 16 view .LVU89
 359 0010 0122     		movs	r2, #1
 360              		.loc 1 143 16 view .LVU90
 361 0012 2361     		str	r3, [r4, #16]
 362              		.loc 1 144 3 is_stmt 1 view .LVU91
 363              		.loc 1 144 16 is_stmt 0 view .LVU92
 364 0014 2270     		strb	r2, [r4]
 365              		.loc 1 146 3 is_stmt 1 view .LVU93
 366              	.LBB160:
 367              	.LBI160:
 368              		.loc 2 584 20 view .LVU94
 369              	.LBE160:
 370              		.loc 2 586 3 view .LVU95
 371              	.LBB169:
 372              	.LBB161:
 373              	.LBI161:
 374              		.loc 3 421 20 view .LVU96
 375              	.LBB162:
 376              		.loc 3 423 23 view .LVU97
 377              		.loc 3 424 34 view .LVU98
 378              		.loc 3 430 3 view .LVU99
 379              		.loc 3 430 3 view .LVU100
 380              		.loc 3 430 3 view .LVU101
 381              		.loc 3 434 3 view .LVU102
 382              	.LBB163:
 383              	.LBI163:
 384              		.loc 4 830 27 view .LVU103
 385              	.LBE163:
 386              	.LBE162:
 387              	.LBE161:
 388              	.LBE169:
 389              		.loc 4 833 3 view .LVU104
 390              	.LVL13:
 391              	.LBB170:
 392              	.LBB168:
 393              	.LBB167:
 394              	.LBB166:
 395              	.LBB164:
 396              	.LBI164:
 397              		.loc 5 491 27 view .LVU105
 398              	.LBB165:
 399              		.loc 5 493 3 view .LVU106
ARM GAS  /tmp/cccn03eJ.s 			page 8


 400              		.syntax unified
 401              	@ 493 "../ChibiOS/os/common/ext/ARM/CMSIS/Core/Include/cmsis_gcc.h" 1
 402 0016 83F31188 		MSR basepri, r3
 403              	@ 0 "" 2
 404              	.LVL14:
 405              		.loc 5 493 3 is_stmt 0 view .LVU107
 406              		.thumb
 407              		.syntax unified
 408              	.LBE165:
 409              	.LBE164:
 410              	.LBE166:
 411              	.LBE167:
 412              	.LBE168:
 413              	.LBE170:
 414              		.loc 1 147 1 view .LVU108
 415 001a 10BD     		pop	{r4, pc}
 416              		.loc 1 147 1 view .LVU109
 417              		.cfi_endproc
 418              	.LFE403:
 419              		.size	dacStop, .-dacStop
 420              		.section	.text.dacPutChannelX,"ax",%progbits
 421              		.align	1
 422              		.p2align 4,,15
 423              		.global	dacPutChannelX
 424              		.syntax unified
 425              		.thumb
 426              		.thumb_func
 427              		.fpu softvfp
 428              		.type	dacPutChannelX, %function
 429              	dacPutChannelX:
 430              	.LVL15:
 431              	.LFB404:
 432              		.loc 1 158 80 is_stmt 1 view -0
 433              		.cfi_startproc
 434              		@ args = 0, pretend = 0, frame = 0
 435              		@ frame_needed = 0, uses_anonymous_args = 0
 436              		@ link register save eliminated.
 437              		.loc 1 160 3 view .LVU111
 438              		.loc 1 160 3 view .LVU112
 439              		.loc 1 160 3 view .LVU113
 440              		.loc 1 161 3 view .LVU114
 441              		.loc 1 161 3 view .LVU115
 442              		.loc 1 161 3 view .LVU116
 443              		.loc 1 163 3 view .LVU117
 444 0000 FFF7FEBF 		b	dac_lld_put_channel
 445              	.LVL16:
 446              		.loc 1 163 3 is_stmt 0 view .LVU118
 447              		.cfi_endproc
 448              	.LFE404:
 449              		.size	dacPutChannelX, .-dacPutChannelX
 450              		.section	.text.dacStartConversion,"ax",%progbits
 451              		.align	1
 452              		.p2align 4,,15
 453              		.global	dacStartConversion
 454              		.syntax unified
 455              		.thumb
 456              		.thumb_func
ARM GAS  /tmp/cccn03eJ.s 			page 9


 457              		.fpu softvfp
 458              		.type	dacStartConversion, %function
 459              	dacStartConversion:
 460              	.LVL17:
 461              	.LFB405:
 462              		.loc 1 185 39 is_stmt 1 view -0
 463              		.cfi_startproc
 464              		@ args = 0, pretend = 0, frame = 0
 465              		@ frame_needed = 0, uses_anonymous_args = 0
 466              		.loc 1 187 3 view .LVU120
 467              	.LBB171:
 468              	.LBI171:
 469              		.loc 2 573 20 view .LVU121
 470              	.LBE171:
 471              		.loc 2 575 3 view .LVU122
 472              	.LBB183:
 473              	.LBB172:
 474              	.LBI172:
 475              		.loc 3 407 20 view .LVU123
 476              	.LBE172:
 477              	.LBE183:
 478              		.loc 3 409 3 view .LVU124
 479              	.LBB184:
 480              	.LBB180:
 481              	.LBB173:
 482              	.LBI173:
 483              		.loc 4 806 27 view .LVU125
 484              	.LBE173:
 485              	.LBE180:
 486              	.LBE184:
 487              		.loc 4 814 3 view .LVU126
 488              	.LBB185:
 489              	.LBB181:
 490              	.LBB178:
 491              	.LBB174:
 492              	.LBI174:
 493              		.loc 5 491 27 view .LVU127
 494              	.LBB175:
 495              		.loc 5 493 3 view .LVU128
 496              	.LBE175:
 497              	.LBE174:
 498              	.LBE178:
 499              	.LBE181:
 500              	.LBE185:
 501              		.loc 1 185 39 is_stmt 0 view .LVU129
 502 0000 08B5     		push	{r3, lr}
 503              		.cfi_def_cfa_offset 8
 504              		.cfi_offset 3, -8
 505              		.cfi_offset 14, -4
 506              	.LBB186:
 507              	.LBB182:
 508              	.LBB179:
 509              	.LBB177:
 510              	.LBB176:
 511              		.loc 5 493 3 view .LVU130
 512 0002 4FF0300E 		mov	lr, #48
 513              		.syntax unified
ARM GAS  /tmp/cccn03eJ.s 			page 10


 514              	@ 493 "../ChibiOS/os/common/ext/ARM/CMSIS/Core/Include/cmsis_gcc.h" 1
 515 0006 8EF31188 		MSR basepri, lr
 516              	@ 0 "" 2
 517              	.LVL18:
 518              		.loc 5 493 3 view .LVU131
 519              		.thumb
 520              		.syntax unified
 521              	.LBE176:
 522              	.LBE177:
 523              	.LBE179:
 524              	.LBE182:
 525              	.LBE186:
 526              		.loc 3 410 35 is_stmt 1 view .LVU132
 527              		.loc 3 411 21 view .LVU133
 528              		.loc 1 188 3 view .LVU134
 529              	.LBB187:
 530              	.LBI187:
 531              		.loc 1 210 6 view .LVU135
 532              	.LBB188:
 533              		.loc 1 215 23 view .LVU136
 534              		.loc 1 216 3 view .LVU137
 535              		.loc 1 216 3 view .LVU138
 536              		.loc 1 216 3 view .LVU139
 537              		.loc 1 218 3 view .LVU140
 538              		.loc 1 218 3 view .LVU141
 539              		.loc 1 218 3 view .LVU142
 540              		.loc 1 223 3 view .LVU143
 541              		.loc 1 223 18 is_stmt 0 view .LVU144
 542 000a 8260     		str	r2, [r0, #8]
 543              		.loc 1 224 3 is_stmt 1 view .LVU145
 544              		.loc 1 226 18 is_stmt 0 view .LVU146
 545 000c 0322     		movs	r2, #3
 546              	.LVL19:
 547              		.loc 1 224 18 view .LVU147
 548 000e C360     		str	r3, [r0, #12]
 549              		.loc 1 225 3 is_stmt 1 view .LVU148
 550              		.loc 1 225 18 is_stmt 0 view .LVU149
 551 0010 4160     		str	r1, [r0, #4]
 552              		.loc 1 226 3 is_stmt 1 view .LVU150
 553              		.loc 1 226 18 is_stmt 0 view .LVU151
 554 0012 0270     		strb	r2, [r0]
 555              		.loc 1 227 3 is_stmt 1 view .LVU152
 556 0014 FFF7FEFF 		bl	dac_lld_start_conversion
 557              	.LVL20:
 558              		.loc 1 227 3 is_stmt 0 view .LVU153
 559              	.LBE188:
 560              	.LBE187:
 561              		.loc 1 189 3 is_stmt 1 view .LVU154
 562              	.LBB189:
 563              	.LBI189:
 564              		.loc 2 584 20 view .LVU155
 565              	.LBE189:
 566              		.loc 2 586 3 view .LVU156
 567              	.LBB198:
 568              	.LBB190:
 569              	.LBI190:
 570              		.loc 3 421 20 view .LVU157
ARM GAS  /tmp/cccn03eJ.s 			page 11


 571              	.LBB191:
 572              		.loc 3 423 23 view .LVU158
 573              		.loc 3 424 34 view .LVU159
 574              		.loc 3 430 3 view .LVU160
 575              		.loc 3 430 3 view .LVU161
 576              		.loc 3 430 3 view .LVU162
 577              		.loc 3 434 3 view .LVU163
 578              	.LBB192:
 579              	.LBI192:
 580              		.loc 4 830 27 view .LVU164
 581              	.LBE192:
 582              	.LBE191:
 583              	.LBE190:
 584              	.LBE198:
 585              		.loc 4 833 3 view .LVU165
 586              	.LBB199:
 587              	.LBB197:
 588              	.LBB196:
 589              	.LBB195:
 590              	.LBB193:
 591              	.LBI193:
 592              		.loc 5 491 27 view .LVU166
 593              	.LBB194:
 594              		.loc 5 493 3 view .LVU167
 595 0018 0023     		movs	r3, #0
 596              		.syntax unified
 597              	@ 493 "../ChibiOS/os/common/ext/ARM/CMSIS/Core/Include/cmsis_gcc.h" 1
 598 001a 83F31188 		MSR basepri, r3
 599              	@ 0 "" 2
 600              	.LVL21:
 601              		.loc 5 493 3 is_stmt 0 view .LVU168
 602              		.thumb
 603              		.syntax unified
 604              	.LBE194:
 605              	.LBE193:
 606              	.LBE195:
 607              	.LBE196:
 608              	.LBE197:
 609              	.LBE199:
 610              		.loc 1 190 1 view .LVU169
 611 001e 08BD     		pop	{r3, pc}
 612              		.cfi_endproc
 613              	.LFE405:
 614              		.size	dacStartConversion, .-dacStartConversion
 615              		.section	.text.dacStartConversionI,"ax",%progbits
 616              		.align	1
 617              		.p2align 4,,15
 618              		.global	dacStartConversionI
 619              		.syntax unified
 620              		.thumb
 621              		.thumb_func
 622              		.fpu softvfp
 623              		.type	dacStartConversionI, %function
 624              	dacStartConversionI:
 625              	.LVL22:
 626              	.LFB406:
 627              		.loc 1 213 40 is_stmt 1 view -0
ARM GAS  /tmp/cccn03eJ.s 			page 12


 628              		.cfi_startproc
 629              		@ args = 0, pretend = 0, frame = 0
 630              		@ frame_needed = 0, uses_anonymous_args = 0
 631              		@ link register save eliminated.
 632              		.loc 1 215 23 view .LVU171
 633              		.loc 1 216 3 view .LVU172
 634              		.loc 1 216 3 view .LVU173
 635              		.loc 1 216 3 view .LVU174
 636              		.loc 1 218 3 view .LVU175
 637              		.loc 1 218 3 view .LVU176
 638              		.loc 1 218 3 view .LVU177
 639              		.loc 1 223 3 view .LVU178
 640              		.loc 1 223 18 is_stmt 0 view .LVU179
 641 0000 8260     		str	r2, [r0, #8]
 642              		.loc 1 224 3 is_stmt 1 view .LVU180
 643              		.loc 1 226 18 is_stmt 0 view .LVU181
 644 0002 0322     		movs	r2, #3
 645              	.LVL23:
 646              		.loc 1 224 18 view .LVU182
 647 0004 C360     		str	r3, [r0, #12]
 648              		.loc 1 225 3 is_stmt 1 view .LVU183
 649              		.loc 1 225 18 is_stmt 0 view .LVU184
 650 0006 4160     		str	r1, [r0, #4]
 651              		.loc 1 226 3 is_stmt 1 view .LVU185
 652              		.loc 1 226 18 is_stmt 0 view .LVU186
 653 0008 0270     		strb	r2, [r0]
 654              		.loc 1 227 3 is_stmt 1 view .LVU187
 655 000a FFF7FEBF 		b	dac_lld_start_conversion
 656              	.LVL24:
 657              		.loc 1 227 3 is_stmt 0 view .LVU188
 658              		.cfi_endproc
 659              	.LFE406:
 660              		.size	dacStartConversionI, .-dacStartConversionI
 661 000e 00BF     		.section	.text.dacStopConversion,"ax",%progbits
 662              		.align	1
 663              		.p2align 4,,15
 664              		.global	dacStopConversion
 665              		.syntax unified
 666              		.thumb
 667              		.thumb_func
 668              		.fpu softvfp
 669              		.type	dacStopConversion, %function
 670              	dacStopConversion:
 671              	.LVL25:
 672              	.LFB407:
 673              		.loc 1 240 41 is_stmt 1 view -0
 674              		.cfi_startproc
 675              		@ args = 0, pretend = 0, frame = 0
 676              		@ frame_needed = 0, uses_anonymous_args = 0
 677              		.loc 1 242 3 view .LVU190
 678              		.loc 1 242 3 view .LVU191
 679              		.loc 1 242 3 view .LVU192
 680              		.loc 1 244 3 view .LVU193
 681              	.LBB200:
 682              	.LBI200:
 683              		.loc 2 573 20 view .LVU194
 684              	.LBE200:
ARM GAS  /tmp/cccn03eJ.s 			page 13


 685              		.loc 2 575 3 view .LVU195
 686              	.LBB208:
 687              	.LBB201:
 688              	.LBI201:
 689              		.loc 3 407 20 view .LVU196
 690              	.LBE201:
 691              	.LBE208:
 692              		.loc 3 409 3 view .LVU197
 693              	.LBB209:
 694              	.LBB206:
 695              	.LBB202:
 696              	.LBI202:
 697              		.loc 4 806 27 view .LVU198
 698              	.LBE202:
 699              	.LBE206:
 700              	.LBE209:
 701              		.loc 4 814 3 view .LVU199
 702              	.LBB210:
 703              	.LBB207:
 704              	.LBB205:
 705              	.LBB203:
 706              	.LBI203:
 707              		.loc 5 491 27 view .LVU200
 708              	.LBB204:
 709              		.loc 5 493 3 view .LVU201
 710 0000 3023     		movs	r3, #48
 711              		.syntax unified
 712              	@ 493 "../ChibiOS/os/common/ext/ARM/CMSIS/Core/Include/cmsis_gcc.h" 1
 713 0002 83F31188 		MSR basepri, r3
 714              	@ 0 "" 2
 715              	.LVL26:
 716              		.loc 5 493 3 is_stmt 0 view .LVU202
 717              		.thumb
 718              		.syntax unified
 719              	.LBE204:
 720              	.LBE203:
 721              	.LBE205:
 722              	.LBE207:
 723              	.LBE210:
 724              		.loc 3 410 35 is_stmt 1 view .LVU203
 725              		.loc 3 411 21 view .LVU204
 726              		.loc 1 246 3 view .LVU205
 727              		.loc 1 246 3 view .LVU206
 728              		.loc 1 246 3 view .LVU207
 729              		.loc 1 250 3 view .LVU208
 730              		.loc 1 250 6 is_stmt 0 view .LVU209
 731 0006 0378     		ldrb	r3, [r0]	@ zero_extendqisi2
 732 0008 022B     		cmp	r3, #2
 733 000a 03D1     		bne	.L21
 734              		.loc 1 257 3 is_stmt 1 view .LVU210
 735              	.LBB211:
 736              	.LBI211:
 737              		.loc 2 584 20 view .LVU211
 738              	.LBE211:
 739              		.loc 2 586 3 view .LVU212
 740              	.LBB228:
 741              	.LBB212:
ARM GAS  /tmp/cccn03eJ.s 			page 14


 742              	.LBI212:
 743              		.loc 3 421 20 view .LVU213
 744              	.LBB213:
 745              		.loc 3 423 23 view .LVU214
 746              		.loc 3 424 34 view .LVU215
 747              		.loc 3 430 3 view .LVU216
 748              		.loc 3 430 3 view .LVU217
 749              		.loc 3 430 3 view .LVU218
 750              		.loc 3 434 3 view .LVU219
 751              	.LBB214:
 752              	.LBI214:
 753              		.loc 4 830 27 view .LVU220
 754              	.LBE214:
 755              	.LBE213:
 756              	.LBE212:
 757              	.LBE228:
 758              		.loc 4 833 3 view .LVU221
 759              	.LVL27:
 760              	.LBB229:
 761              	.LBB225:
 762              	.LBB222:
 763              	.LBB219:
 764              	.LBB215:
 765              	.LBI215:
 766              		.loc 5 491 27 view .LVU222
 767              	.LBB216:
 768              		.loc 5 493 3 view .LVU223
 769 000c 0023     		movs	r3, #0
 770              		.syntax unified
 771              	@ 493 "../ChibiOS/os/common/ext/ARM/CMSIS/Core/Include/cmsis_gcc.h" 1
 772 000e 83F31188 		MSR basepri, r3
 773              	@ 0 "" 2
 774              	.LVL28:
 775              		.loc 5 493 3 is_stmt 0 view .LVU224
 776              		.thumb
 777              		.syntax unified
 778 0012 7047     		bx	lr
 779              	.L21:
 780              	.LBE216:
 781              	.LBE215:
 782              	.LBE219:
 783              	.LBE222:
 784              	.LBE225:
 785              	.LBE229:
 786              		.loc 1 240 41 view .LVU225
 787 0014 10B5     		push	{r4, lr}
 788              		.cfi_def_cfa_offset 8
 789              		.cfi_offset 4, -8
 790              		.cfi_offset 14, -4
 791 0016 0446     		mov	r4, r0
 792              		.loc 1 251 5 is_stmt 1 view .LVU226
 793 0018 FFF7FEFF 		bl	dac_lld_stop_conversion
 794              	.LVL29:
 795              		.loc 1 252 5 view .LVU227
 796              		.loc 1 253 17 is_stmt 0 view .LVU228
 797 001c 2046     		mov	r0, r4
 798              		.loc 1 252 17 view .LVU229
ARM GAS  /tmp/cccn03eJ.s 			page 15


 799 001e 0022     		movs	r2, #0
 800              		.loc 1 253 17 view .LVU230
 801 0020 0223     		movs	r3, #2
 802              		.loc 1 252 17 view .LVU231
 803 0022 6260     		str	r2, [r4, #4]
 804              		.loc 1 253 5 is_stmt 1 view .LVU232
 805              	.LBB230:
 806              	.LBB231:
 807              		.loc 2 854 3 is_stmt 0 view .LVU233
 808 0024 6FF00101 		mvn	r1, #1
 809              	.LBE231:
 810              	.LBE230:
 811              		.loc 1 253 17 view .LVU234
 812 0028 00F8143B 		strb	r3, [r0], #20
 813              		.loc 1 254 5 is_stmt 1 view .LVU235
 814              	.LVL30:
 815              	.LBB233:
 816              	.LBI230:
 817              		.loc 2 852 20 view .LVU236
 818              	.LBB232:
 819              		.loc 2 854 3 view .LVU237
 820 002c FFF7FEFF 		bl	chThdResumeS
 821              	.LVL31:
 822              		.loc 2 854 3 is_stmt 0 view .LVU238
 823              	.LBE232:
 824              	.LBE233:
 825              		.loc 1 257 3 is_stmt 1 view .LVU239
 826              	.LBB234:
 827              		.loc 2 584 20 view .LVU240
 828              	.LBE234:
 829              		.loc 2 586 3 view .LVU241
 830              	.LBB235:
 831              	.LBB226:
 832              		.loc 3 421 20 view .LVU242
 833              	.LBB223:
 834              		.loc 3 423 23 view .LVU243
 835              		.loc 3 424 34 view .LVU244
 836              		.loc 3 430 3 view .LVU245
 837              		.loc 3 430 3 view .LVU246
 838              		.loc 3 430 3 view .LVU247
 839              		.loc 3 434 3 view .LVU248
 840              	.LBB220:
 841              		.loc 4 830 27 view .LVU249
 842              	.LBE220:
 843              	.LBE223:
 844              	.LBE226:
 845              	.LBE235:
 846              		.loc 4 833 3 view .LVU250
 847              	.LBB236:
 848              	.LBB227:
 849              	.LBB224:
 850              	.LBB221:
 851              	.LBB218:
 852              		.loc 5 491 27 view .LVU251
 853              	.LBB217:
 854              		.loc 5 493 3 view .LVU252
 855 0030 0023     		movs	r3, #0
ARM GAS  /tmp/cccn03eJ.s 			page 16


 856              		.syntax unified
 857              	@ 493 "../ChibiOS/os/common/ext/ARM/CMSIS/Core/Include/cmsis_gcc.h" 1
 858 0032 83F31188 		MSR basepri, r3
 859              	@ 0 "" 2
 860              	.LVL32:
 861              		.loc 5 493 3 is_stmt 0 view .LVU253
 862              		.thumb
 863              		.syntax unified
 864              	.LBE217:
 865              	.LBE218:
 866              	.LBE221:
 867              	.LBE224:
 868              	.LBE227:
 869              	.LBE236:
 870              		.loc 1 258 1 view .LVU254
 871 0036 10BD     		pop	{r4, pc}
 872              		.loc 1 258 1 view .LVU255
 873              		.cfi_endproc
 874              	.LFE407:
 875              		.size	dacStopConversion, .-dacStopConversion
 876              		.section	.text.dacStopConversionI,"ax",%progbits
 877              		.align	1
 878              		.p2align 4,,15
 879              		.global	dacStopConversionI
 880              		.syntax unified
 881              		.thumb
 882              		.thumb_func
 883              		.fpu softvfp
 884              		.type	dacStopConversionI, %function
 885              	dacStopConversionI:
 886              	.LVL33:
 887              	.LFB408:
 888              		.loc 1 270 42 is_stmt 1 view -0
 889              		.cfi_startproc
 890              		@ args = 0, pretend = 0, frame = 0
 891              		@ frame_needed = 0, uses_anonymous_args = 0
 892              		.loc 1 272 23 view .LVU257
 893              		.loc 1 273 3 view .LVU258
 894              		.loc 1 273 3 view .LVU259
 895              		.loc 1 273 3 view .LVU260
 896              		.loc 1 274 3 view .LVU261
 897              		.loc 1 274 3 view .LVU262
 898              		.loc 1 274 3 view .LVU263
 899              		.loc 1 279 3 view .LVU264
 900              		.loc 1 279 6 is_stmt 0 view .LVU265
 901 0000 0378     		ldrb	r3, [r0]	@ zero_extendqisi2
 902 0002 022B     		cmp	r3, #2
 903 0004 00D1     		bne	.L27
 904 0006 7047     		bx	lr
 905              	.L27:
 906              		.loc 1 270 42 view .LVU266
 907 0008 10B5     		push	{r4, lr}
 908              		.cfi_def_cfa_offset 8
 909              		.cfi_offset 4, -8
 910              		.cfi_offset 14, -4
 911 000a 0446     		mov	r4, r0
 912              		.loc 1 280 5 is_stmt 1 view .LVU267
ARM GAS  /tmp/cccn03eJ.s 			page 17


 913 000c FFF7FEFF 		bl	dac_lld_stop_conversion
 914              	.LVL34:
 915              		.loc 1 281 5 view .LVU268
 916              		.loc 1 282 17 is_stmt 0 view .LVU269
 917 0010 2046     		mov	r0, r4
 918              		.loc 1 281 17 view .LVU270
 919 0012 0022     		movs	r2, #0
 920              		.loc 1 282 17 view .LVU271
 921 0014 0223     		movs	r3, #2
 922              		.loc 1 281 17 view .LVU272
 923 0016 6260     		str	r2, [r4, #4]
 924              		.loc 1 282 5 is_stmt 1 view .LVU273
 925              		.loc 1 282 17 is_stmt 0 view .LVU274
 926 0018 00F8143B 		strb	r3, [r0], #20
 927              		.loc 1 283 5 is_stmt 1 view .LVU275
 928              	.LVL35:
 929              	.LBB237:
 930              	.LBI237:
 931              		.loc 2 837 20 view .LVU276
 932              	.LBB238:
 933              		.loc 2 839 3 view .LVU277
 934 001c 6FF00101 		mvn	r1, #1
 935              	.LBE238:
 936              	.LBE237:
 937              		.loc 1 285 1 is_stmt 0 view .LVU278
 938 0020 BDE81040 		pop	{r4, lr}
 939              		.cfi_restore 14
 940              		.cfi_restore 4
 941              		.cfi_def_cfa_offset 0
 942              	.LVL36:
 943              	.LBB240:
 944              	.LBB239:
 945              		.loc 2 839 3 view .LVU279
 946 0024 FFF7FEBF 		b	chThdResumeI
 947              	.LVL37:
 948              		.loc 2 839 3 view .LVU280
 949              	.LBE239:
 950              	.LBE240:
 951              		.cfi_endproc
 952              	.LFE408:
 953              		.size	dacStopConversionI, .-dacStopConversionI
 954              		.section	.text.dacConvert,"ax",%progbits
 955              		.align	1
 956              		.p2align 4,,15
 957              		.global	dacConvert
 958              		.syntax unified
 959              		.thumb
 960              		.thumb_func
 961              		.fpu softvfp
 962              		.type	dacConvert, %function
 963              	dacConvert:
 964              	.LVL38:
 965              	.LFB409:
 966              		.loc 1 314 32 is_stmt 1 view -0
 967              		.cfi_startproc
 968              		@ args = 0, pretend = 0, frame = 0
 969              		@ frame_needed = 0, uses_anonymous_args = 0
ARM GAS  /tmp/cccn03eJ.s 			page 18


 970              		.loc 1 315 3 view .LVU282
 971              		.loc 1 317 3 view .LVU283
 972              	.LBB241:
 973              	.LBI241:
 974              		.loc 2 573 20 view .LVU284
 975              	.LBE241:
 976              		.loc 2 575 3 view .LVU285
 977              	.LBB253:
 978              	.LBB242:
 979              	.LBI242:
 980              		.loc 3 407 20 view .LVU286
 981              	.LBE242:
 982              	.LBE253:
 983              		.loc 3 409 3 view .LVU287
 984              	.LBB254:
 985              	.LBB250:
 986              	.LBB243:
 987              	.LBI243:
 988              		.loc 4 806 27 view .LVU288
 989              	.LBE243:
 990              	.LBE250:
 991              	.LBE254:
 992              		.loc 4 814 3 view .LVU289
 993              	.LBB255:
 994              	.LBB251:
 995              	.LBB248:
 996              	.LBB244:
 997              	.LBI244:
 998              		.loc 5 491 27 view .LVU290
 999              	.LBB245:
 1000              		.loc 5 493 3 view .LVU291
 1001              	.LBE245:
 1002              	.LBE244:
 1003              	.LBE248:
 1004              	.LBE251:
 1005              	.LBE255:
 1006              		.loc 1 314 32 is_stmt 0 view .LVU292
 1007 0000 10B5     		push	{r4, lr}
 1008              		.cfi_def_cfa_offset 8
 1009              		.cfi_offset 4, -8
 1010              		.cfi_offset 14, -4
 1011              	.LBB256:
 1012              	.LBB252:
 1013              	.LBB249:
 1014              	.LBB247:
 1015              	.LBB246:
 1016              		.loc 5 493 3 view .LVU293
 1017 0002 3024     		movs	r4, #48
 1018              		.syntax unified
 1019              	@ 493 "../ChibiOS/os/common/ext/ARM/CMSIS/Core/Include/cmsis_gcc.h" 1
 1020 0004 84F31188 		MSR basepri, r4
 1021              	@ 0 "" 2
 1022              	.LVL39:
 1023              		.loc 5 493 3 view .LVU294
 1024              		.thumb
 1025              		.syntax unified
 1026              	.LBE246:
ARM GAS  /tmp/cccn03eJ.s 			page 19


 1027              	.LBE247:
 1028              	.LBE249:
 1029              	.LBE252:
 1030              	.LBE256:
 1031              		.loc 3 410 35 is_stmt 1 view .LVU295
 1032              		.loc 3 411 21 view .LVU296
 1033              		.loc 1 319 3 view .LVU297
 1034              	.LBB257:
 1035              	.LBI257:
 1036              		.loc 1 210 6 view .LVU298
 1037              	.LBB258:
 1038              		.loc 1 215 23 view .LVU299
 1039              		.loc 1 216 3 view .LVU300
 1040              		.loc 1 216 3 view .LVU301
 1041              		.loc 1 216 3 view .LVU302
 1042              		.loc 1 218 3 view .LVU303
 1043              		.loc 1 218 3 view .LVU304
 1044              		.loc 1 218 3 view .LVU305
 1045              		.loc 1 223 3 view .LVU306
 1046              		.loc 1 226 18 is_stmt 0 view .LVU307
 1047 0008 0446     		mov	r4, r0
 1048              		.loc 1 223 18 view .LVU308
 1049 000a 8260     		str	r2, [r0, #8]
 1050              		.loc 1 224 3 is_stmt 1 view .LVU309
 1051              		.loc 1 226 18 is_stmt 0 view .LVU310
 1052 000c 0322     		movs	r2, #3
 1053              	.LVL40:
 1054              		.loc 1 224 18 view .LVU311
 1055 000e C360     		str	r3, [r0, #12]
 1056              		.loc 1 225 3 is_stmt 1 view .LVU312
 1057              		.loc 1 225 18 is_stmt 0 view .LVU313
 1058 0010 4160     		str	r1, [r0, #4]
 1059              		.loc 1 226 3 is_stmt 1 view .LVU314
 1060              		.loc 1 226 18 is_stmt 0 view .LVU315
 1061 0012 04F8142B 		strb	r2, [r4], #20
 1062              		.loc 1 227 3 is_stmt 1 view .LVU316
 1063 0016 FFF7FEFF 		bl	dac_lld_start_conversion
 1064              	.LVL41:
 1065              		.loc 1 227 3 is_stmt 0 view .LVU317
 1066              	.LBE258:
 1067              	.LBE257:
 1068              		.loc 1 320 3 is_stmt 1 view .LVU318
 1069              	.LBB259:
 1070              	.LBI259:
 1071              		.loc 2 797 21 view .LVU319
 1072              	.LBB260:
 1073              		.loc 2 799 3 view .LVU320
 1074              		.loc 2 799 10 is_stmt 0 view .LVU321
 1075 001a 4FF0FF31 		mov	r1, #-1
 1076 001e 2046     		mov	r0, r4
 1077 0020 FFF7FEFF 		bl	chThdSuspendTimeoutS
 1078              	.LVL42:
 1079              		.loc 2 799 10 view .LVU322
 1080              	.LBE260:
 1081              	.LBE259:
 1082              		.loc 1 322 3 is_stmt 1 view .LVU323
 1083              	.LBB261:
ARM GAS  /tmp/cccn03eJ.s 			page 20


 1084              	.LBI261:
 1085              		.loc 2 584 20 view .LVU324
 1086              	.LBE261:
 1087              		.loc 2 586 3 view .LVU325
 1088              	.LBB270:
 1089              	.LBB262:
 1090              	.LBI262:
 1091              		.loc 3 421 20 view .LVU326
 1092              	.LBB263:
 1093              		.loc 3 423 23 view .LVU327
 1094              		.loc 3 424 34 view .LVU328
 1095              		.loc 3 430 3 view .LVU329
 1096              		.loc 3 430 3 view .LVU330
 1097              		.loc 3 430 3 view .LVU331
 1098              		.loc 3 434 3 view .LVU332
 1099              	.LBB264:
 1100              	.LBI264:
 1101              		.loc 4 830 27 view .LVU333
 1102              	.LBE264:
 1103              	.LBE263:
 1104              	.LBE262:
 1105              	.LBE270:
 1106              		.loc 4 833 3 view .LVU334
 1107              	.LBB271:
 1108              	.LBB269:
 1109              	.LBB268:
 1110              	.LBB267:
 1111              	.LBB265:
 1112              	.LBI265:
 1113              		.loc 5 491 27 view .LVU335
 1114              	.LBB266:
 1115              		.loc 5 493 3 view .LVU336
 1116 0024 0023     		movs	r3, #0
 1117              		.syntax unified
 1118              	@ 493 "../ChibiOS/os/common/ext/ARM/CMSIS/Core/Include/cmsis_gcc.h" 1
 1119 0026 83F31188 		MSR basepri, r3
 1120              	@ 0 "" 2
 1121              	.LVL43:
 1122              		.loc 5 493 3 is_stmt 0 view .LVU337
 1123              		.thumb
 1124              		.syntax unified
 1125              	.LBE266:
 1126              	.LBE265:
 1127              	.LBE267:
 1128              	.LBE268:
 1129              	.LBE269:
 1130              	.LBE271:
 1131              		.loc 1 323 3 is_stmt 1 view .LVU338
 1132              		.loc 1 324 1 is_stmt 0 view .LVU339
 1133 002a 10BD     		pop	{r4, pc}
 1134              		.loc 1 324 1 view .LVU340
 1135              		.cfi_endproc
 1136              	.LFE409:
 1137              		.size	dacConvert, .-dacConvert
 1138              		.section	.text.dacAcquireBus,"ax",%progbits
 1139              		.align	1
 1140              		.p2align 4,,15
ARM GAS  /tmp/cccn03eJ.s 			page 21


 1141              		.global	dacAcquireBus
 1142              		.syntax unified
 1143              		.thumb
 1144              		.thumb_func
 1145              		.fpu softvfp
 1146              		.type	dacAcquireBus, %function
 1147              	dacAcquireBus:
 1148              	.LVL44:
 1149              	.LFB410:
 1150              		.loc 1 339 37 is_stmt 1 view -0
 1151              		.cfi_startproc
 1152              		@ args = 0, pretend = 0, frame = 0
 1153              		@ frame_needed = 0, uses_anonymous_args = 0
 1154              		@ link register save eliminated.
 1155              		.loc 1 341 3 view .LVU342
 1156              		.loc 1 341 3 view .LVU343
 1157              		.loc 1 341 3 view .LVU344
 1158              		.loc 1 343 3 view .LVU345
 1159              	.LBB272:
 1160              	.LBI272:
 1161              		.loc 2 1055 20 view .LVU346
 1162              	.LBB273:
 1163              		.loc 2 1058 3 view .LVU347
 1164 0000 1830     		adds	r0, r0, #24
 1165              	.LVL45:
 1166              		.loc 2 1058 3 is_stmt 0 view .LVU348
 1167 0002 FFF7FEBF 		b	chMtxLock
 1168              	.LVL46:
 1169              		.loc 2 1058 3 view .LVU349
 1170              	.LBE273:
 1171              	.LBE272:
 1172              		.cfi_endproc
 1173              	.LFE410:
 1174              		.size	dacAcquireBus, .-dacAcquireBus
 1175 0006 00BF     		.section	.text.dacReleaseBus,"ax",%progbits
 1176              		.align	1
 1177              		.p2align 4,,15
 1178              		.global	dacReleaseBus
 1179              		.syntax unified
 1180              		.thumb
 1181              		.thumb_func
 1182              		.fpu softvfp
 1183              		.type	dacReleaseBus, %function
 1184              	dacReleaseBus:
 1185              	.LVL47:
 1186              	.LFB411:
 1187              		.loc 1 355 37 is_stmt 1 view -0
 1188              		.cfi_startproc
 1189              		@ args = 0, pretend = 0, frame = 0
 1190              		@ frame_needed = 0, uses_anonymous_args = 0
 1191              		@ link register save eliminated.
 1192              		.loc 1 357 3 view .LVU351
 1193              		.loc 1 357 3 view .LVU352
 1194              		.loc 1 357 3 view .LVU353
 1195              		.loc 1 359 3 view .LVU354
 1196              	.LBB274:
 1197              	.LBI274:
ARM GAS  /tmp/cccn03eJ.s 			page 22


 1198              		.loc 2 1079 20 view .LVU355
 1199              	.LBB275:
 1200              		.loc 2 1082 3 view .LVU356
 1201 0000 1830     		adds	r0, r0, #24
 1202              	.LVL48:
 1203              		.loc 2 1082 3 is_stmt 0 view .LVU357
 1204 0002 FFF7FEBF 		b	chMtxUnlock
 1205              	.LVL49:
 1206              		.loc 2 1082 3 view .LVU358
 1207              	.LBE275:
 1208              	.LBE274:
 1209              		.cfi_endproc
 1210              	.LFE411:
 1211              		.size	dacReleaseBus, .-dacReleaseBus
 1212 0006 00BF     		.text
 1213              	.Letext0:
 1214              		.file 6 "/opt/gcc-arm-none-eabi/gcc-arm-none-eabi-10.3-2021.07/lib/gcc/arm-none-eabi/10.3.1/includ
 1215              		.file 7 "/opt/gcc-arm-none-eabi/gcc-arm-none-eabi-10.3-2021.07/arm-none-eabi/include/machine/_defa
 1216              		.file 8 "/opt/gcc-arm-none-eabi/gcc-arm-none-eabi-10.3-2021.07/arm-none-eabi/include/sys/_stdint.h
 1217              		.file 9 "../ChibiOS/os/common/ports/ARM-common/chtypes.h"
 1218              		.file 10 "../ChibiOS/os/rt/include/chearly.h"
 1219              		.file 11 "../ChibiOS/os/rt/include/chobjects.h"
 1220              		.file 12 "../ChibiOS/os/rt/include/chrfcu.h"
 1221              		.file 13 "../ChibiOS/os/rt/include/chdebug.h"
 1222              		.file 14 "../ChibiOS/os/rt/include/chtime.h"
 1223              		.file 15 "../ChibiOS/os/rt/include/chlists.h"
 1224              		.file 16 "../ChibiOS/os/common/ext/ST/STM32L4xx/stm32l432xx.h"
 1225              		.file 17 "../ChibiOS/os/rt/include/chsem.h"
 1226              		.file 18 "../ChibiOS/os/rt/include/chmtx.h"
 1227              		.file 19 "../ChibiOS/os/hal/ports/STM32/LLD/DMAv1/stm32_dma.h"
 1228              		.file 20 "../ChibiOS/os/hal/include/hal_dac.h"
 1229              		.file 21 "../ChibiOS/os/hal/ports/STM32/LLD/DACv1/hal_dac_lld.h"
 1230              		.file 22 "../ChibiOS/os/rt/include/chthreads.h"