ARM GAS  /tmp/ccc8hyl8.s 			page 1


   1              		.cpu cortex-m4
   2              		.eabi_attribute 20, 1
   3              		.eabi_attribute 21, 1
   4              		.eabi_attribute 23, 3
   5              		.eabi_attribute 24, 1
   6              		.eabi_attribute 25, 1
   7              		.eabi_attribute 26, 1
   8              		.eabi_attribute 30, 2
   9              		.eabi_attribute 34, 1
  10              		.eabi_attribute 18, 4
  11              		.file	"hal_pal_lld.c"
  12              		.text
  13              	.Ltext0:
  14              		.cfi_sections	.debug_frame
  15              		.section	.text._pal_lld_init,"ax",%progbits
  16              		.align	1
  17              		.p2align 4,,15
  18              		.global	_pal_lld_init
  19              		.arch armv7e-m
  20              		.syntax unified
  21              		.thumb
  22              		.thumb_func
  23              		.fpu softvfp
  24              		.type	_pal_lld_init, %function
  25              	_pal_lld_init:
  26              	.LFB400:
  27              		.file 1 "../ChibiOS/os/hal/ports/STM32/LLD/GPIOv3/hal_pal_lld.c"
  28              		.loc 1 65 26 view -0
  29              		.cfi_startproc
  30              		@ args = 0, pretend = 0, frame = 0
  31              		@ frame_needed = 0, uses_anonymous_args = 0
  32              		@ link register save eliminated.
  33              		.loc 1 74 1 view .LVU1
  34 0000 7047     		bx	lr
  35              		.cfi_endproc
  36              	.LFE400:
  37              		.size	_pal_lld_init, .-_pal_lld_init
  38 0002 00BF     		.section	.text._pal_lld_setgroupmode,"ax",%progbits
  39              		.align	1
  40              		.p2align 4,,15
  41              		.global	_pal_lld_setgroupmode
  42              		.syntax unified
  43              		.thumb
  44              		.thumb_func
  45              		.fpu softvfp
  46              		.type	_pal_lld_setgroupmode, %function
  47              	_pal_lld_setgroupmode:
  48              	.LVL0:
  49              	.LFB401:
  50              		.loc 1 91 43 view -0
  51              		.cfi_startproc
  52              		@ args = 0, pretend = 0, frame = 8
  53              		@ frame_needed = 0, uses_anonymous_args = 0
  54              		.loc 1 93 3 view .LVU3
  55              		.loc 1 91 43 is_stmt 0 view .LVU4
  56 0000 2DE9F04F 		push	{r4, r5, r6, r7, r8, r9, r10, fp, lr}
  57              		.cfi_def_cfa_offset 36
ARM GAS  /tmp/ccc8hyl8.s 			page 2


  58              		.cfi_offset 4, -36
  59              		.cfi_offset 5, -32
  60              		.cfi_offset 6, -28
  61              		.cfi_offset 7, -24
  62              		.cfi_offset 8, -20
  63              		.cfi_offset 9, -16
  64              		.cfi_offset 10, -12
  65              		.cfi_offset 11, -8
  66              		.cfi_offset 14, -4
  67 0004 83B0     		sub	sp, sp, #12
  68              		.cfi_def_cfa_offset 48
  69              		.loc 1 97 12 view .LVU5
  70 0006 C2F3C313 		ubfx	r3, r2, #7, #4
  71              		.loc 1 93 12 view .LVU6
  72 000a 02F0030A 		and	r10, r2, #3
  73              	.LVL1:
  74              		.loc 1 94 3 is_stmt 1 view .LVU7
  75              		.loc 1 97 12 is_stmt 0 view .LVU8
  76 000e 0093     		str	r3, [sp]
  77              		.loc 1 99 12 view .LVU9
  78 0010 C2F30033 		ubfx	r3, r2, #12, #1
  79              		.loc 1 94 12 view .LVU10
  80 0014 C2F38008 		ubfx	r8, r2, #2, #1
  81              	.LVL2:
  82              		.loc 1 95 3 is_stmt 1 view .LVU11
  83              		.loc 1 95 12 is_stmt 0 view .LVU12
  84 0018 C2F3C107 		ubfx	r7, r2, #3, #2
  85              	.LVL3:
  86              		.loc 1 96 3 is_stmt 1 view .LVU13
  87              		.loc 1 96 12 is_stmt 0 view .LVU14
  88 001c C2F34116 		ubfx	r6, r2, #5, #2
  89              	.LVL4:
  90              		.loc 1 97 3 is_stmt 1 view .LVU15
  91              		.loc 1 98 3 view .LVU16
  92              		.loc 1 98 12 is_stmt 0 view .LVU17
  93 0020 C2F3C025 		ubfx	r5, r2, #11, #1
  94              	.LVL5:
  95              		.loc 1 99 3 is_stmt 1 view .LVU18
  96              		.loc 1 99 12 is_stmt 0 view .LVU19
  97 0024 0193     		str	r3, [sp, #4]
  98              	.LVL6:
  99              		.loc 1 100 3 is_stmt 1 view .LVU20
 100              		.loc 1 93 12 is_stmt 0 view .LVU21
 101 0026 5446     		mov	r4, r10
 102              		.loc 1 100 12 view .LVU22
 103 0028 4FF0000C 		mov	ip, #0
 104 002c 1DE0     		b	.L11
 105              	.LVL7:
 106              	.L5:
 107              	.LBB2:
 108              		.loc 1 125 9 is_stmt 1 view .LVU23
 109              		.loc 1 125 30 is_stmt 0 view .LVU24
 110 002e D0F800B0 		ldr	fp, [r0]
 111              		.loc 1 125 38 view .LVU25
 112 0032 03EA0B03 		and	r3, r3, fp
 113              	.LVL8:
 114              		.loc 1 125 45 view .LVU26
ARM GAS  /tmp/ccc8hyl8.s 			page 3


 115 0036 2343     		orrs	r3, r3, r4
 116              		.loc 1 126 12 view .LVU27
 117 0038 BCF1070F 		cmp	ip, #7
 118              		.loc 1 125 23 view .LVU28
 119 003c 0360     		str	r3, [r0]
 120              		.loc 1 126 9 is_stmt 1 view .LVU29
 121              		.loc 1 126 12 is_stmt 0 view .LVU30
 122 003e 5FD8     		bhi	.L9
 123              		.loc 1 127 11 is_stmt 1 view .LVU31
 124              		.loc 1 127 29 is_stmt 0 view .LVU32
 125 0040 036A     		ldr	r3, [r0, #32]
 126              		.loc 1 127 36 view .LVU33
 127 0042 23EA0E03 		bic	r3, r3, lr
 128              		.loc 1 127 43 view .LVU34
 129 0046 43EA0903 		orr	r3, r3, r9
 130              		.loc 1 127 22 view .LVU35
 131 004a 0362     		str	r3, [r0, #32]
 132              	.LVL9:
 133              	.L8:
 134              		.loc 1 131 7 is_stmt 1 view .LVU36
 135              		.loc 1 131 28 is_stmt 0 view .LVU37
 136 004c C369     		ldr	r3, [r0, #28]
 137              		.loc 1 131 36 view .LVU38
 138 004e 1A40     		ands	r2, r2, r3
 139              	.LVL10:
 140              		.loc 1 131 43 view .LVU39
 141 0050 019B     		ldr	r3, [sp, #4]
 142 0052 1A43     		orrs	r2, r2, r3
 143              		.loc 1 131 21 view .LVU40
 144 0054 C261     		str	r2, [r0, #28]
 145              	.LVL11:
 146              	.L4:
 147              		.loc 1 131 21 view .LVU41
 148              	.LBE2:
 149              		.loc 1 133 5 is_stmt 1 view .LVU42
 150              		.loc 1 134 5 view .LVU43
 151              		.loc 1 134 8 is_stmt 0 view .LVU44
 152 0056 4908     		lsrs	r1, r1, #1
 153              	.LVL12:
 154              		.loc 1 134 8 view .LVU45
 155 0058 59D0     		beq	.L15
 156              		.loc 1 136 5 is_stmt 1 view .LVU46
 157              		.loc 1 136 12 is_stmt 0 view .LVU47
 158 005a 4FEA4808 		lsl	r8, r8, #1
 159              	.LVL13:
 160              		.loc 1 137 5 is_stmt 1 view .LVU48
 161              		.loc 1 137 10 is_stmt 0 view .LVU49
 162 005e 6D00     		lsls	r5, r5, #1
 163              	.LVL14:
 164              		.loc 1 138 5 is_stmt 1 view .LVU50
 165              		.loc 1 138 13 is_stmt 0 view .LVU51
 166 0060 BF00     		lsls	r7, r7, #2
 167              	.LVL15:
 168              		.loc 1 139 5 is_stmt 1 view .LVU52
 169              		.loc 1 139 11 is_stmt 0 view .LVU53
 170 0062 B600     		lsls	r6, r6, #2
 171              	.LVL16:
ARM GAS  /tmp/ccc8hyl8.s 			page 4


 172              		.loc 1 140 5 is_stmt 1 view .LVU54
 173              		.loc 1 140 11 is_stmt 0 view .LVU55
 174 0064 A400     		lsls	r4, r4, #2
 175              	.LVL17:
 176              		.loc 1 141 5 is_stmt 1 view .LVU56
 177              		.loc 1 141 8 is_stmt 0 view .LVU57
 178 0066 0CF1010C 		add	ip, ip, #1
 179              	.LVL18:
 180              		.loc 1 101 9 is_stmt 1 view .LVU58
 181              	.L11:
 182              		.loc 1 101 3 view .LVU59
 183              		.loc 1 102 5 view .LVU60
 184              		.loc 1 102 8 is_stmt 0 view .LVU61
 185 006a CB07     		lsls	r3, r1, #31
 186 006c F3D5     		bpl	.L4
 187              	.LBB3:
 188              		.loc 1 103 7 is_stmt 1 view .LVU62
 189              		.loc 1 105 7 view .LVU63
 190              		.loc 1 109 28 is_stmt 0 view .LVU64
 191 006e 4368     		ldr	r3, [r0, #4]
 192              		.loc 1 106 14 view .LVU65
 193 0070 0122     		movs	r2, #1
 194 0072 02FA0CF2 		lsl	r2, r2, ip
 195              		.loc 1 109 37 view .LVU66
 196 0076 23EA0203 		bic	r3, r3, r2
 197              		.loc 1 109 44 view .LVU67
 198 007a 43EA0803 		orr	r3, r3, r8
 199              		.loc 1 109 21 view .LVU68
 200 007e 4360     		str	r3, [r0, #4]
 201              		.loc 1 110 28 view .LVU69
 202 0080 C36A     		ldr	r3, [r0, #44]
 203              		.loc 1 110 35 view .LVU70
 204 0082 23EA0203 		bic	r3, r3, r2
 205              		.loc 1 110 42 view .LVU71
 206 0086 2B43     		orrs	r3, r3, r5
 207              		.loc 1 110 21 view .LVU72
 208 0088 C362     		str	r3, [r0, #44]
 209              		.loc 1 111 28 view .LVU73
 210 008a D0F808E0 		ldr	lr, [r0, #8]
 211              		.loc 1 107 14 view .LVU74
 212 008e 4FF00309 		mov	r9, #3
 213 0092 4FEA4C03 		lsl	r3, ip, #1
 214 0096 09FA03F3 		lsl	r3, r9, r3
 215              		.loc 1 111 38 view .LVU75
 216 009a 2EEA030E 		bic	lr, lr, r3
 217              		.loc 1 111 45 view .LVU76
 218 009e 4EEA070E 		orr	lr, lr, r7
 219              		.loc 1 111 21 view .LVU77
 220 00a2 C0F808E0 		str	lr, [r0, #8]
 221              		.loc 1 112 28 view .LVU78
 222 00a6 D0F80CE0 		ldr	lr, [r0, #12]
 223              		.loc 1 105 16 view .LVU79
 224 00aa DDF80090 		ldr	r9, [sp]
 225              		.loc 1 112 36 view .LVU80
 226 00ae 2EEA030E 		bic	lr, lr, r3
 227              		.loc 1 112 43 view .LVU81
 228 00b2 4EEA060E 		orr	lr, lr, r6
ARM GAS  /tmp/ccc8hyl8.s 			page 5


 229              		.loc 1 112 21 view .LVU82
 230 00b6 C0F80CE0 		str	lr, [r0, #12]
 231              		.loc 1 105 32 view .LVU83
 232 00ba 0CF0070E 		and	lr, ip, #7
 233              		.loc 1 105 37 view .LVU84
 234 00be 4FEA8E0E 		lsl	lr, lr, #2
 235              		.loc 1 108 15 view .LVU85
 236 00c2 4FF00F0B 		mov	fp, #15
 237              		.loc 1 113 11 view .LVU86
 238 00c6 BAF1020F 		cmp	r10, #2
 239              		.loc 1 105 16 view .LVU87
 240 00ca 09FA0EF9 		lsl	r9, r9, lr
 241              	.LVL19:
 242              		.loc 1 106 7 is_stmt 1 view .LVU88
 243              		.loc 1 107 7 view .LVU89
 244              		.loc 1 108 7 view .LVU90
 245              		.loc 1 109 39 is_stmt 0 view .LVU91
 246 00ce 6FEA0202 		mvn	r2, r2
 247              	.LVL20:
 248              		.loc 1 111 40 view .LVU92
 249 00d2 6FEA0303 		mvn	r3, r3
 250              	.LVL21:
 251              		.loc 1 108 15 view .LVU93
 252 00d6 0BFA0EFE 		lsl	lr, fp, lr
 253              	.LVL22:
 254              		.loc 1 109 7 is_stmt 1 view .LVU94
 255              		.loc 1 110 7 view .LVU95
 256              		.loc 1 111 7 view .LVU96
 257              		.loc 1 112 7 view .LVU97
 258              		.loc 1 113 8 view .LVU98
 259              		.loc 1 113 11 is_stmt 0 view .LVU99
 260 00da A8D1     		bne	.L5
 261              		.loc 1 116 9 is_stmt 1 view .LVU100
 262              		.loc 1 116 12 is_stmt 0 view .LVU101
 263 00dc BCF1070F 		cmp	ip, #7
 264 00e0 18D8     		bhi	.L6
 265              		.loc 1 117 11 is_stmt 1 view .LVU102
 266              		.loc 1 117 29 is_stmt 0 view .LVU103
 267 00e2 D0F820B0 		ldr	fp, [r0, #32]
 268              		.loc 1 117 36 view .LVU104
 269 00e6 2BEA0E0E 		bic	lr, fp, lr
 270              	.LVL23:
 271              		.loc 1 117 43 view .LVU105
 272 00ea 4EEA090E 		orr	lr, lr, r9
 273              		.loc 1 117 22 view .LVU106
 274 00ee C0F820E0 		str	lr, [r0, #32]
 275              	.L7:
 276              		.loc 1 120 9 is_stmt 1 view .LVU107
 277              		.loc 1 120 30 is_stmt 0 view .LVU108
 278 00f2 D0F800E0 		ldr	lr, [r0]
 279              		.loc 1 120 38 view .LVU109
 280 00f6 03EA0E03 		and	r3, r3, lr
 281              	.LVL24:
 282              		.loc 1 120 45 view .LVU110
 283 00fa 2343     		orrs	r3, r3, r4
 284              		.loc 1 120 23 view .LVU111
 285 00fc 0360     		str	r3, [r0]
ARM GAS  /tmp/ccc8hyl8.s 			page 6


 286 00fe A5E7     		b	.L8
 287              	.LVL25:
 288              	.L9:
 289              		.loc 1 129 11 is_stmt 1 view .LVU112
 290              		.loc 1 129 29 is_stmt 0 view .LVU113
 291 0100 436A     		ldr	r3, [r0, #36]
 292              		.loc 1 129 36 view .LVU114
 293 0102 23EA0E03 		bic	r3, r3, lr
 294              		.loc 1 129 43 view .LVU115
 295 0106 43EA0903 		orr	r3, r3, r9
 296              		.loc 1 129 22 view .LVU116
 297 010a 4362     		str	r3, [r0, #36]
 298 010c 9EE7     		b	.L8
 299              	.LVL26:
 300              	.L15:
 301              		.loc 1 129 22 view .LVU117
 302              	.LBE3:
 303              		.loc 1 143 1 view .LVU118
 304 010e 03B0     		add	sp, sp, #12
 305              		.cfi_remember_state
 306              		.cfi_def_cfa_offset 36
 307              	.LVL27:
 308              		.loc 1 143 1 view .LVU119
 309              		@ sp needed
 310 0110 BDE8F08F 		pop	{r4, r5, r6, r7, r8, r9, r10, fp, pc}
 311              	.LVL28:
 312              	.L6:
 313              		.cfi_restore_state
 314              	.LBB4:
 315              		.loc 1 119 11 is_stmt 1 view .LVU120
 316              		.loc 1 119 29 is_stmt 0 view .LVU121
 317 0114 D0F824B0 		ldr	fp, [r0, #36]
 318              		.loc 1 119 36 view .LVU122
 319 0118 2BEA0E0E 		bic	lr, fp, lr
 320              	.LVL29:
 321              		.loc 1 119 43 view .LVU123
 322 011c 4EEA090E 		orr	lr, lr, r9
 323              		.loc 1 119 22 view .LVU124
 324 0120 C0F824E0 		str	lr, [r0, #36]
 325 0124 E5E7     		b	.L7
 326              	.LBE4:
 327              		.cfi_endproc
 328              	.LFE401:
 329              		.size	_pal_lld_setgroupmode, .-_pal_lld_setgroupmode
 330 0126 00BF     		.text
 331              	.Letext0:
 332              		.file 2 "/opt/gcc-arm-none-eabi/gcc-arm-none-eabi-10.3-2021.07/arm-none-eabi/include/machine/_defa
 333              		.file 3 "/opt/gcc-arm-none-eabi/gcc-arm-none-eabi-10.3-2021.07/arm-none-eabi/include/sys/_stdint.h
 334              		.file 4 "../ChibiOS/os/hal/ports/STM32/LLD/GPIOv3/stm32_gpio.h"
 335              		.file 5 "../ChibiOS/os/hal/ports/STM32/LLD/GPIOv3/hal_pal_lld.h"
 336              		.section	.debug_info,"",%progbits
 337              	.Ldebug_info0:
 338 0000 28030000 		.4byte	0x328
 339 0004 0400     		.2byte	0x4
 340 0006 00000000 		.4byte	.Ldebug_abbrev0
 341 000a 04       		.byte	0x4
 342 000b 01       		.uleb128 0x1
ARM GAS  /tmp/ccc8hyl8.s 			page 7


 343 000c ED000000 		.4byte	.LASF40
 344 0010 0C       		.byte	0xc
 345 0011 B2010000 		.4byte	.LASF41
 346 0015 3A000000 		.4byte	.LASF42
 347 0019 20000000 		.4byte	.Ldebug_ranges0+0x20
 348 001d 00000000 		.4byte	0
 349 0021 00000000 		.4byte	.Ldebug_line0
 350 0025 02       		.uleb128 0x2
 351 0026 04       		.byte	0x4
 352 0027 05       		.byte	0x5
 353 0028 696E7400 		.ascii	"int\000"
 354 002c 03       		.uleb128 0x3
 355 002d 04       		.byte	0x4
 356 002e 07       		.byte	0x7
 357 002f 10020000 		.4byte	.LASF0
 358 0033 03       		.uleb128 0x3
 359 0034 08       		.byte	0x8
 360 0035 05       		.byte	0x5
 361 0036 00000000 		.4byte	.LASF1
 362 003a 03       		.uleb128 0x3
 363 003b 08       		.byte	0x8
 364 003c 04       		.byte	0x4
 365 003d 3F020000 		.4byte	.LASF2
 366 0041 03       		.uleb128 0x3
 367 0042 01       		.byte	0x1
 368 0043 06       		.byte	0x6
 369 0044 8F020000 		.4byte	.LASF3
 370 0048 03       		.uleb128 0x3
 371 0049 01       		.byte	0x1
 372 004a 08       		.byte	0x8
 373 004b A5000000 		.4byte	.LASF4
 374 004f 03       		.uleb128 0x3
 375 0050 02       		.byte	0x2
 376 0051 05       		.byte	0x5
 377 0052 75000000 		.4byte	.LASF5
 378 0056 04       		.uleb128 0x4
 379 0057 E2000000 		.4byte	.LASF8
 380 005b 02       		.byte	0x2
 381 005c 39       		.byte	0x39
 382 005d 19       		.byte	0x19
 383 005e 62000000 		.4byte	0x62
 384 0062 03       		.uleb128 0x3
 385 0063 02       		.byte	0x2
 386 0064 07       		.byte	0x7
 387 0065 CA000000 		.4byte	.LASF6
 388 0069 03       		.uleb128 0x3
 389 006a 04       		.byte	0x4
 390 006b 05       		.byte	0x5
 391 006c 80020000 		.4byte	.LASF7
 392 0070 04       		.uleb128 0x4
 393 0071 E9010000 		.4byte	.LASF9
 394 0075 02       		.byte	0x2
 395 0076 4F       		.byte	0x4f
 396 0077 19       		.byte	0x19
 397 0078 7C000000 		.4byte	0x7c
 398 007c 03       		.uleb128 0x3
 399 007d 04       		.byte	0x4
ARM GAS  /tmp/ccc8hyl8.s 			page 8


 400 007e 07       		.byte	0x7
 401 007f B8000000 		.4byte	.LASF10
 402 0083 03       		.uleb128 0x3
 403 0084 08       		.byte	0x8
 404 0085 07       		.byte	0x7
 405 0086 A1020000 		.4byte	.LASF11
 406 008a 04       		.uleb128 0x4
 407 008b 6E020000 		.4byte	.LASF12
 408 008f 03       		.byte	0x3
 409 0090 24       		.byte	0x24
 410 0091 14       		.byte	0x14
 411 0092 56000000 		.4byte	0x56
 412 0096 04       		.uleb128 0x4
 413 0097 77020000 		.4byte	.LASF13
 414 009b 03       		.byte	0x3
 415 009c 30       		.byte	0x30
 416 009d 14       		.byte	0x14
 417 009e 70000000 		.4byte	0x70
 418 00a2 05       		.uleb128 0x5
 419 00a3 96000000 		.4byte	0x96
 420 00a7 03       		.uleb128 0x3
 421 00a8 01       		.byte	0x1
 422 00a9 08       		.byte	0x8
 423 00aa 22020000 		.4byte	.LASF14
 424 00ae 03       		.uleb128 0x3
 425 00af 01       		.byte	0x1
 426 00b0 02       		.byte	0x2
 427 00b1 9B020000 		.4byte	.LASF15
 428 00b5 06       		.uleb128 0x6
 429 00b6 04       		.byte	0x4
 430 00b7 04       		.byte	0x4
 431 00b8 5B       		.byte	0x5b
 432 00b9 05       		.byte	0x5
 433 00ba D9000000 		.4byte	0xd9
 434 00be 07       		.uleb128 0x7
 435 00bf 73657400 		.ascii	"set\000"
 436 00c3 04       		.byte	0x4
 437 00c4 5C       		.byte	0x5c
 438 00c5 19       		.byte	0x19
 439 00c6 8A000000 		.4byte	0x8a
 440 00ca 00       		.byte	0
 441 00cb 08       		.uleb128 0x8
 442 00cc 20000000 		.4byte	.LASF16
 443 00d0 04       		.byte	0x4
 444 00d1 5D       		.byte	0x5d
 445 00d2 19       		.byte	0x19
 446 00d3 8A000000 		.4byte	0x8a
 447 00d7 02       		.byte	0x2
 448 00d8 00       		.byte	0
 449 00d9 09       		.uleb128 0x9
 450 00da 04       		.byte	0x4
 451 00db 04       		.byte	0x4
 452 00dc 59       		.byte	0x59
 453 00dd 0C       		.byte	0xc
 454 00de F7000000 		.4byte	0xf7
 455 00e2 0A       		.uleb128 0xa
 456 00e3 5700     		.ascii	"W\000"
ARM GAS  /tmp/ccc8hyl8.s 			page 9


 457 00e5 04       		.byte	0x4
 458 00e6 5A       		.byte	0x5a
 459 00e7 19       		.byte	0x19
 460 00e8 96000000 		.4byte	0x96
 461 00ec 0A       		.uleb128 0xa
 462 00ed 4800     		.ascii	"H\000"
 463 00ef 04       		.byte	0x4
 464 00f0 5E       		.byte	0x5e
 465 00f1 07       		.byte	0x7
 466 00f2 B5000000 		.4byte	0xb5
 467 00f6 00       		.byte	0
 468 00f7 05       		.uleb128 0x5
 469 00f8 D9000000 		.4byte	0xd9
 470 00fc 06       		.uleb128 0x6
 471 00fd 30       		.byte	0x30
 472 00fe 04       		.byte	0x4
 473 00ff 51       		.byte	0x51
 474 0100 09       		.byte	0x9
 475 0101 A2010000 		.4byte	0x1a2
 476 0105 08       		.uleb128 0x8
 477 0106 26000000 		.4byte	.LASF17
 478 010a 04       		.byte	0x4
 479 010b 53       		.byte	0x53
 480 010c 19       		.byte	0x19
 481 010d A2000000 		.4byte	0xa2
 482 0111 00       		.byte	0
 483 0112 08       		.uleb128 0x8
 484 0113 6E000000 		.4byte	.LASF18
 485 0117 04       		.byte	0x4
 486 0118 54       		.byte	0x54
 487 0119 19       		.byte	0x19
 488 011a A2000000 		.4byte	0xa2
 489 011e 04       		.byte	0x4
 490 011f 08       		.uleb128 0x8
 491 0120 13000000 		.4byte	.LASF19
 492 0124 04       		.byte	0x4
 493 0125 55       		.byte	0x55
 494 0126 19       		.byte	0x19
 495 0127 A2000000 		.4byte	0xa2
 496 012b 08       		.byte	0x8
 497 012c 08       		.uleb128 0x8
 498 012d 4B020000 		.4byte	.LASF20
 499 0131 04       		.byte	0x4
 500 0132 56       		.byte	0x56
 501 0133 19       		.byte	0x19
 502 0134 A2000000 		.4byte	0xa2
 503 0138 0C       		.byte	0xc
 504 0139 07       		.uleb128 0x7
 505 013a 49445200 		.ascii	"IDR\000"
 506 013e 04       		.byte	0x4
 507 013f 57       		.byte	0x57
 508 0140 19       		.byte	0x19
 509 0141 A2000000 		.4byte	0xa2
 510 0145 10       		.byte	0x10
 511 0146 07       		.uleb128 0x7
 512 0147 4F445200 		.ascii	"ODR\000"
 513 014b 04       		.byte	0x4
ARM GAS  /tmp/ccc8hyl8.s 			page 10


 514 014c 58       		.byte	0x58
 515 014d 19       		.byte	0x19
 516 014e A2000000 		.4byte	0xa2
 517 0152 14       		.byte	0x14
 518 0153 08       		.uleb128 0x8
 519 0154 69000000 		.4byte	.LASF21
 520 0158 04       		.byte	0x4
 521 0159 5F       		.byte	0x5f
 522 015a 05       		.byte	0x5
 523 015b F7000000 		.4byte	0xf7
 524 015f 18       		.byte	0x18
 525 0160 08       		.uleb128 0x8
 526 0161 2C020000 		.4byte	.LASF22
 527 0165 04       		.byte	0x4
 528 0166 60       		.byte	0x60
 529 0167 19       		.byte	0x19
 530 0168 A2000000 		.4byte	0xa2
 531 016c 1C       		.byte	0x1c
 532 016d 08       		.uleb128 0x8
 533 016e DD000000 		.4byte	.LASF23
 534 0172 04       		.byte	0x4
 535 0173 61       		.byte	0x61
 536 0174 19       		.byte	0x19
 537 0175 A2000000 		.4byte	0xa2
 538 0179 20       		.byte	0x20
 539 017a 08       		.uleb128 0x8
 540 017b B3000000 		.4byte	.LASF24
 541 017f 04       		.byte	0x4
 542 0180 62       		.byte	0x62
 543 0181 19       		.byte	0x19
 544 0182 A2000000 		.4byte	0xa2
 545 0186 24       		.byte	0x24
 546 0187 07       		.uleb128 0x7
 547 0188 42525200 		.ascii	"BRR\000"
 548 018c 04       		.byte	0x4
 549 018d 63       		.byte	0x63
 550 018e 19       		.byte	0x19
 551 018f A2000000 		.4byte	0xa2
 552 0193 28       		.byte	0x28
 553 0194 08       		.uleb128 0x8
 554 0195 0E000000 		.4byte	.LASF25
 555 0199 04       		.byte	0x4
 556 019a 64       		.byte	0x64
 557 019b 19       		.byte	0x19
 558 019c A2000000 		.4byte	0xa2
 559 01a0 2C       		.byte	0x2c
 560 01a1 00       		.byte	0
 561 01a2 04       		.uleb128 0x4
 562 01a3 32020000 		.4byte	.LASF26
 563 01a7 04       		.byte	0x4
 564 01a8 65       		.byte	0x65
 565 01a9 03       		.byte	0x3
 566 01aa FC000000 		.4byte	0xfc
 567 01ae 04       		.uleb128 0x4
 568 01af 86000000 		.4byte	.LASF27
 569 01b3 05       		.byte	0x5
 570 01b4 EA       		.byte	0xea
ARM GAS  /tmp/ccc8hyl8.s 			page 11


 571 01b5 12       		.byte	0x12
 572 01b6 96000000 		.4byte	0x96
 573 01ba 04       		.uleb128 0x4
 574 01bb 9C000000 		.4byte	.LASF28
 575 01bf 05       		.byte	0x5
 576 01c0 EF       		.byte	0xef
 577 01c1 12       		.byte	0x12
 578 01c2 96000000 		.4byte	0x96
 579 01c6 0B       		.uleb128 0xb
 580 01c7 63020000 		.4byte	.LASF29
 581 01cb 05       		.byte	0x5
 582 01cc 0101     		.2byte	0x101
 583 01ce 18       		.byte	0x18
 584 01cf D3010000 		.4byte	0x1d3
 585 01d3 0C       		.uleb128 0xc
 586 01d4 04       		.byte	0x4
 587 01d5 A2010000 		.4byte	0x1a2
 588 01d9 0D       		.uleb128 0xd
 589 01da FA010000 		.4byte	.LASF43
 590 01de 01       		.byte	0x1
 591 01df 59       		.byte	0x59
 592 01e0 06       		.byte	0x6
 593 01e1 00000000 		.4byte	.LFB401
 594 01e5 26010000 		.4byte	.LFE401-.LFB401
 595 01e9 01       		.uleb128 0x1
 596 01ea 9C       		.byte	0x9c
 597 01eb 19030000 		.4byte	0x319
 598 01ef 0E       		.uleb128 0xe
 599 01f0 5E020000 		.4byte	.LASF44
 600 01f4 01       		.byte	0x1
 601 01f5 59       		.byte	0x59
 602 01f6 27       		.byte	0x27
 603 01f7 C6010000 		.4byte	0x1c6
 604 01fb 01       		.uleb128 0x1
 605 01fc 50       		.byte	0x50
 606 01fd 0F       		.uleb128 0xf
 607 01fe 59020000 		.4byte	.LASF30
 608 0202 01       		.byte	0x1
 609 0203 5A       		.byte	0x5a
 610 0204 29       		.byte	0x29
 611 0205 AE010000 		.4byte	0x1ae
 612 0209 06000000 		.4byte	.LLST0
 613 020d 00000000 		.4byte	.LVUS0
 614 0211 0F       		.uleb128 0xf
 615 0212 27020000 		.4byte	.LASF31
 616 0216 01       		.byte	0x1
 617 0217 5B       		.byte	0x5b
 618 0218 25       		.byte	0x25
 619 0219 BA010000 		.4byte	0x1ba
 620 021d 37000000 		.4byte	.LLST1
 621 0221 33000000 		.4byte	.LVUS1
 622 0225 10       		.uleb128 0x10
 623 0226 89020000 		.4byte	.LASF32
 624 022a 01       		.byte	0x1
 625 022b 5D       		.byte	0x5d
 626 022c 0C       		.byte	0xc
 627 022d 96000000 		.4byte	0x96
ARM GAS  /tmp/ccc8hyl8.s 			page 12


 628 0231 5C000000 		.4byte	.LLST2
 629 0235 58000000 		.4byte	.LVUS2
 630 0239 10       		.uleb128 0x10
 631 023a 7F000000 		.4byte	.LASF33
 632 023e 01       		.byte	0x1
 633 023f 5E       		.byte	0x5e
 634 0240 0C       		.byte	0xc
 635 0241 96000000 		.4byte	0x96
 636 0245 7C000000 		.4byte	.LLST3
 637 0249 7A000000 		.4byte	.LVUS3
 638 024d 10       		.uleb128 0x10
 639 024e 51020000 		.4byte	.LASF34
 640 0252 01       		.byte	0x1
 641 0253 5F       		.byte	0x5f
 642 0254 0C       		.byte	0xc
 643 0255 96000000 		.4byte	0x96
 644 0259 91000000 		.4byte	.LLST4
 645 025d 8F000000 		.4byte	.LVUS4
 646 0261 10       		.uleb128 0x10
 647 0262 F4010000 		.4byte	.LASF35
 648 0266 01       		.byte	0x1
 649 0267 60       		.byte	0x60
 650 0268 0C       		.byte	0xc
 651 0269 96000000 		.4byte	0x96
 652 026d A6000000 		.4byte	.LLST5
 653 0271 A4000000 		.4byte	.LVUS5
 654 0275 10       		.uleb128 0x10
 655 0276 1D020000 		.4byte	.LASF36
 656 027a 01       		.byte	0x1
 657 027b 61       		.byte	0x61
 658 027c 0C       		.byte	0xc
 659 027d 96000000 		.4byte	0x96
 660 0281 BF000000 		.4byte	.LLST6
 661 0285 B9000000 		.4byte	.LVUS6
 662 0289 10       		.uleb128 0x10
 663 028a 1B000000 		.4byte	.LASF37
 664 028e 01       		.byte	0x1
 665 028f 62       		.byte	0x62
 666 0290 0C       		.byte	0xc
 667 0291 96000000 		.4byte	0x96
 668 0295 ED000000 		.4byte	.LLST7
 669 0299 EB000000 		.4byte	.LVUS7
 670 029d 10       		.uleb128 0x10
 671 029e AC010000 		.4byte	.LASF38
 672 02a2 01       		.byte	0x1
 673 02a3 63       		.byte	0x63
 674 02a4 0C       		.byte	0xc
 675 02a5 96000000 		.4byte	0x96
 676 02a9 04010000 		.4byte	.LLST8
 677 02ad 00010000 		.4byte	.LVUS8
 678 02b1 11       		.uleb128 0x11
 679 02b2 62697400 		.ascii	"bit\000"
 680 02b6 01       		.byte	0x1
 681 02b7 64       		.byte	0x64
 682 02b8 0C       		.byte	0xc
 683 02b9 96000000 		.4byte	0x96
 684 02bd 27010000 		.4byte	.LLST9
ARM GAS  /tmp/ccc8hyl8.s 			page 13


 685 02c1 23010000 		.4byte	.LVUS9
 686 02c5 12       		.uleb128 0x12
 687 02c6 00000000 		.4byte	.Ldebug_ranges0+0
 688 02ca 10       		.uleb128 0x10
 689 02cb 93000000 		.4byte	.LASF39
 690 02cf 01       		.byte	0x1
 691 02d0 67       		.byte	0x67
 692 02d1 10       		.byte	0x10
 693 02d2 96000000 		.4byte	0x96
 694 02d6 4C010000 		.4byte	.LLST10
 695 02da 46010000 		.4byte	.LVUS10
 696 02de 11       		.uleb128 0x11
 697 02df 6D3100   		.ascii	"m1\000"
 698 02e2 01       		.byte	0x1
 699 02e3 67       		.byte	0x67
 700 02e4 1A       		.byte	0x1a
 701 02e5 96000000 		.4byte	0x96
 702 02e9 7F010000 		.4byte	.LLST11
 703 02ed 75010000 		.4byte	.LVUS11
 704 02f1 11       		.uleb128 0x11
 705 02f2 6D3200   		.ascii	"m2\000"
 706 02f5 01       		.byte	0x1
 707 02f6 67       		.byte	0x67
 708 02f7 1E       		.byte	0x1e
 709 02f8 96000000 		.4byte	0x96
 710 02fc D7010000 		.4byte	.LLST12
 711 0300 CB010000 		.4byte	.LVUS12
 712 0304 11       		.uleb128 0x11
 713 0305 6D3400   		.ascii	"m4\000"
 714 0308 01       		.byte	0x1
 715 0309 67       		.byte	0x67
 716 030a 22       		.byte	0x22
 717 030b 96000000 		.4byte	0x96
 718 030f 44020000 		.4byte	.LLST13
 719 0313 36020000 		.4byte	.LVUS13
 720 0317 00       		.byte	0
 721 0318 00       		.byte	0
 722 0319 13       		.uleb128 0x13
 723 031a 2C000000 		.4byte	.LASF45
 724 031e 01       		.byte	0x1
 725 031f 41       		.byte	0x41
 726 0320 06       		.byte	0x6
 727 0321 00000000 		.4byte	.LFB400
 728 0325 02000000 		.4byte	.LFE400-.LFB400
 729 0329 01       		.uleb128 0x1
 730 032a 9C       		.byte	0x9c
 731 032b 00       		.byte	0
 732              		.section	.debug_abbrev,"",%progbits
 733              	.Ldebug_abbrev0:
 734 0000 01       		.uleb128 0x1
 735 0001 11       		.uleb128 0x11
 736 0002 01       		.byte	0x1
 737 0003 25       		.uleb128 0x25
 738 0004 0E       		.uleb128 0xe
 739 0005 13       		.uleb128 0x13
 740 0006 0B       		.uleb128 0xb
 741 0007 03       		.uleb128 0x3
ARM GAS  /tmp/ccc8hyl8.s 			page 14


 742 0008 0E       		.uleb128 0xe
 743 0009 1B       		.uleb128 0x1b
 744 000a 0E       		.uleb128 0xe
 745 000b 55       		.uleb128 0x55
 746 000c 17       		.uleb128 0x17
 747 000d 11       		.uleb128 0x11
 748 000e 01       		.uleb128 0x1
 749 000f 10       		.uleb128 0x10
 750 0010 17       		.uleb128 0x17
 751 0011 00       		.byte	0
 752 0012 00       		.byte	0
 753 0013 02       		.uleb128 0x2
 754 0014 24       		.uleb128 0x24
 755 0015 00       		.byte	0
 756 0016 0B       		.uleb128 0xb
 757 0017 0B       		.uleb128 0xb
 758 0018 3E       		.uleb128 0x3e
 759 0019 0B       		.uleb128 0xb
 760 001a 03       		.uleb128 0x3
 761 001b 08       		.uleb128 0x8
 762 001c 00       		.byte	0
 763 001d 00       		.byte	0
 764 001e 03       		.uleb128 0x3
 765 001f 24       		.uleb128 0x24
 766 0020 00       		.byte	0
 767 0021 0B       		.uleb128 0xb
 768 0022 0B       		.uleb128 0xb
 769 0023 3E       		.uleb128 0x3e
 770 0024 0B       		.uleb128 0xb
 771 0025 03       		.uleb128 0x3
 772 0026 0E       		.uleb128 0xe
 773 0027 00       		.byte	0
 774 0028 00       		.byte	0
 775 0029 04       		.uleb128 0x4
 776 002a 16       		.uleb128 0x16
 777 002b 00       		.byte	0
 778 002c 03       		.uleb128 0x3
 779 002d 0E       		.uleb128 0xe
 780 002e 3A       		.uleb128 0x3a
 781 002f 0B       		.uleb128 0xb
 782 0030 3B       		.uleb128 0x3b
 783 0031 0B       		.uleb128 0xb
 784 0032 39       		.uleb128 0x39
 785 0033 0B       		.uleb128 0xb
 786 0034 49       		.uleb128 0x49
 787 0035 13       		.uleb128 0x13
 788 0036 00       		.byte	0
 789 0037 00       		.byte	0
 790 0038 05       		.uleb128 0x5
 791 0039 35       		.uleb128 0x35
 792 003a 00       		.byte	0
 793 003b 49       		.uleb128 0x49
 794 003c 13       		.uleb128 0x13
 795 003d 00       		.byte	0
 796 003e 00       		.byte	0
 797 003f 06       		.uleb128 0x6
 798 0040 13       		.uleb128 0x13
ARM GAS  /tmp/ccc8hyl8.s 			page 15


 799 0041 01       		.byte	0x1
 800 0042 0B       		.uleb128 0xb
 801 0043 0B       		.uleb128 0xb
 802 0044 3A       		.uleb128 0x3a
 803 0045 0B       		.uleb128 0xb
 804 0046 3B       		.uleb128 0x3b
 805 0047 0B       		.uleb128 0xb
 806 0048 39       		.uleb128 0x39
 807 0049 0B       		.uleb128 0xb
 808 004a 01       		.uleb128 0x1
 809 004b 13       		.uleb128 0x13
 810 004c 00       		.byte	0
 811 004d 00       		.byte	0
 812 004e 07       		.uleb128 0x7
 813 004f 0D       		.uleb128 0xd
 814 0050 00       		.byte	0
 815 0051 03       		.uleb128 0x3
 816 0052 08       		.uleb128 0x8
 817 0053 3A       		.uleb128 0x3a
 818 0054 0B       		.uleb128 0xb
 819 0055 3B       		.uleb128 0x3b
 820 0056 0B       		.uleb128 0xb
 821 0057 39       		.uleb128 0x39
 822 0058 0B       		.uleb128 0xb
 823 0059 49       		.uleb128 0x49
 824 005a 13       		.uleb128 0x13
 825 005b 38       		.uleb128 0x38
 826 005c 0B       		.uleb128 0xb
 827 005d 00       		.byte	0
 828 005e 00       		.byte	0
 829 005f 08       		.uleb128 0x8
 830 0060 0D       		.uleb128 0xd
 831 0061 00       		.byte	0
 832 0062 03       		.uleb128 0x3
 833 0063 0E       		.uleb128 0xe
 834 0064 3A       		.uleb128 0x3a
 835 0065 0B       		.uleb128 0xb
 836 0066 3B       		.uleb128 0x3b
 837 0067 0B       		.uleb128 0xb
 838 0068 39       		.uleb128 0x39
 839 0069 0B       		.uleb128 0xb
 840 006a 49       		.uleb128 0x49
 841 006b 13       		.uleb128 0x13
 842 006c 38       		.uleb128 0x38
 843 006d 0B       		.uleb128 0xb
 844 006e 00       		.byte	0
 845 006f 00       		.byte	0
 846 0070 09       		.uleb128 0x9
 847 0071 17       		.uleb128 0x17
 848 0072 01       		.byte	0x1
 849 0073 0B       		.uleb128 0xb
 850 0074 0B       		.uleb128 0xb
 851 0075 3A       		.uleb128 0x3a
 852 0076 0B       		.uleb128 0xb
 853 0077 3B       		.uleb128 0x3b
 854 0078 0B       		.uleb128 0xb
 855 0079 39       		.uleb128 0x39
ARM GAS  /tmp/ccc8hyl8.s 			page 16


 856 007a 0B       		.uleb128 0xb
 857 007b 01       		.uleb128 0x1
 858 007c 13       		.uleb128 0x13
 859 007d 00       		.byte	0
 860 007e 00       		.byte	0
 861 007f 0A       		.uleb128 0xa
 862 0080 0D       		.uleb128 0xd
 863 0081 00       		.byte	0
 864 0082 03       		.uleb128 0x3
 865 0083 08       		.uleb128 0x8
 866 0084 3A       		.uleb128 0x3a
 867 0085 0B       		.uleb128 0xb
 868 0086 3B       		.uleb128 0x3b
 869 0087 0B       		.uleb128 0xb
 870 0088 39       		.uleb128 0x39
 871 0089 0B       		.uleb128 0xb
 872 008a 49       		.uleb128 0x49
 873 008b 13       		.uleb128 0x13
 874 008c 00       		.byte	0
 875 008d 00       		.byte	0
 876 008e 0B       		.uleb128 0xb
 877 008f 16       		.uleb128 0x16
 878 0090 00       		.byte	0
 879 0091 03       		.uleb128 0x3
 880 0092 0E       		.uleb128 0xe
 881 0093 3A       		.uleb128 0x3a
 882 0094 0B       		.uleb128 0xb
 883 0095 3B       		.uleb128 0x3b
 884 0096 05       		.uleb128 0x5
 885 0097 39       		.uleb128 0x39
 886 0098 0B       		.uleb128 0xb
 887 0099 49       		.uleb128 0x49
 888 009a 13       		.uleb128 0x13
 889 009b 00       		.byte	0
 890 009c 00       		.byte	0
 891 009d 0C       		.uleb128 0xc
 892 009e 0F       		.uleb128 0xf
 893 009f 00       		.byte	0
 894 00a0 0B       		.uleb128 0xb
 895 00a1 0B       		.uleb128 0xb
 896 00a2 49       		.uleb128 0x49
 897 00a3 13       		.uleb128 0x13
 898 00a4 00       		.byte	0
 899 00a5 00       		.byte	0
 900 00a6 0D       		.uleb128 0xd
 901 00a7 2E       		.uleb128 0x2e
 902 00a8 01       		.byte	0x1
 903 00a9 3F       		.uleb128 0x3f
 904 00aa 19       		.uleb128 0x19
 905 00ab 03       		.uleb128 0x3
 906 00ac 0E       		.uleb128 0xe
 907 00ad 3A       		.uleb128 0x3a
 908 00ae 0B       		.uleb128 0xb
 909 00af 3B       		.uleb128 0x3b
 910 00b0 0B       		.uleb128 0xb
 911 00b1 39       		.uleb128 0x39
 912 00b2 0B       		.uleb128 0xb
ARM GAS  /tmp/ccc8hyl8.s 			page 17


 913 00b3 27       		.uleb128 0x27
 914 00b4 19       		.uleb128 0x19
 915 00b5 11       		.uleb128 0x11
 916 00b6 01       		.uleb128 0x1
 917 00b7 12       		.uleb128 0x12
 918 00b8 06       		.uleb128 0x6
 919 00b9 40       		.uleb128 0x40
 920 00ba 18       		.uleb128 0x18
 921 00bb 9742     		.uleb128 0x2117
 922 00bd 19       		.uleb128 0x19
 923 00be 01       		.uleb128 0x1
 924 00bf 13       		.uleb128 0x13
 925 00c0 00       		.byte	0
 926 00c1 00       		.byte	0
 927 00c2 0E       		.uleb128 0xe
 928 00c3 05       		.uleb128 0x5
 929 00c4 00       		.byte	0
 930 00c5 03       		.uleb128 0x3
 931 00c6 0E       		.uleb128 0xe
 932 00c7 3A       		.uleb128 0x3a
 933 00c8 0B       		.uleb128 0xb
 934 00c9 3B       		.uleb128 0x3b
 935 00ca 0B       		.uleb128 0xb
 936 00cb 39       		.uleb128 0x39
 937 00cc 0B       		.uleb128 0xb
 938 00cd 49       		.uleb128 0x49
 939 00ce 13       		.uleb128 0x13
 940 00cf 02       		.uleb128 0x2
 941 00d0 18       		.uleb128 0x18
 942 00d1 00       		.byte	0
 943 00d2 00       		.byte	0
 944 00d3 0F       		.uleb128 0xf
 945 00d4 05       		.uleb128 0x5
 946 00d5 00       		.byte	0
 947 00d6 03       		.uleb128 0x3
 948 00d7 0E       		.uleb128 0xe
 949 00d8 3A       		.uleb128 0x3a
 950 00d9 0B       		.uleb128 0xb
 951 00da 3B       		.uleb128 0x3b
 952 00db 0B       		.uleb128 0xb
 953 00dc 39       		.uleb128 0x39
 954 00dd 0B       		.uleb128 0xb
 955 00de 49       		.uleb128 0x49
 956 00df 13       		.uleb128 0x13
 957 00e0 02       		.uleb128 0x2
 958 00e1 17       		.uleb128 0x17
 959 00e2 B742     		.uleb128 0x2137
 960 00e4 17       		.uleb128 0x17
 961 00e5 00       		.byte	0
 962 00e6 00       		.byte	0
 963 00e7 10       		.uleb128 0x10
 964 00e8 34       		.uleb128 0x34
 965 00e9 00       		.byte	0
 966 00ea 03       		.uleb128 0x3
 967 00eb 0E       		.uleb128 0xe
 968 00ec 3A       		.uleb128 0x3a
 969 00ed 0B       		.uleb128 0xb
ARM GAS  /tmp/ccc8hyl8.s 			page 18


 970 00ee 3B       		.uleb128 0x3b
 971 00ef 0B       		.uleb128 0xb
 972 00f0 39       		.uleb128 0x39
 973 00f1 0B       		.uleb128 0xb
 974 00f2 49       		.uleb128 0x49
 975 00f3 13       		.uleb128 0x13
 976 00f4 02       		.uleb128 0x2
 977 00f5 17       		.uleb128 0x17
 978 00f6 B742     		.uleb128 0x2137
 979 00f8 17       		.uleb128 0x17
 980 00f9 00       		.byte	0
 981 00fa 00       		.byte	0
 982 00fb 11       		.uleb128 0x11
 983 00fc 34       		.uleb128 0x34
 984 00fd 00       		.byte	0
 985 00fe 03       		.uleb128 0x3
 986 00ff 08       		.uleb128 0x8
 987 0100 3A       		.uleb128 0x3a
 988 0101 0B       		.uleb128 0xb
 989 0102 3B       		.uleb128 0x3b
 990 0103 0B       		.uleb128 0xb
 991 0104 39       		.uleb128 0x39
 992 0105 0B       		.uleb128 0xb
 993 0106 49       		.uleb128 0x49
 994 0107 13       		.uleb128 0x13
 995 0108 02       		.uleb128 0x2
 996 0109 17       		.uleb128 0x17
 997 010a B742     		.uleb128 0x2137
 998 010c 17       		.uleb128 0x17
 999 010d 00       		.byte	0
 1000 010e 00       		.byte	0
 1001 010f 12       		.uleb128 0x12
 1002 0110 0B       		.uleb128 0xb
 1003 0111 01       		.byte	0x1
 1004 0112 55       		.uleb128 0x55
 1005 0113 17       		.uleb128 0x17
 1006 0114 00       		.byte	0
 1007 0115 00       		.byte	0
 1008 0116 13       		.uleb128 0x13
 1009 0117 2E       		.uleb128 0x2e
 1010 0118 00       		.byte	0
 1011 0119 3F       		.uleb128 0x3f
 1012 011a 19       		.uleb128 0x19
 1013 011b 03       		.uleb128 0x3
 1014 011c 0E       		.uleb128 0xe
 1015 011d 3A       		.uleb128 0x3a
 1016 011e 0B       		.uleb128 0xb
 1017 011f 3B       		.uleb128 0x3b
 1018 0120 0B       		.uleb128 0xb
 1019 0121 39       		.uleb128 0x39
 1020 0122 0B       		.uleb128 0xb
 1021 0123 27       		.uleb128 0x27
 1022 0124 19       		.uleb128 0x19
 1023 0125 11       		.uleb128 0x11
 1024 0126 01       		.uleb128 0x1
 1025 0127 12       		.uleb128 0x12
 1026 0128 06       		.uleb128 0x6
ARM GAS  /tmp/ccc8hyl8.s 			page 19


 1027 0129 40       		.uleb128 0x40
 1028 012a 18       		.uleb128 0x18
 1029 012b 9742     		.uleb128 0x2117
 1030 012d 19       		.uleb128 0x19
 1031 012e 00       		.byte	0
 1032 012f 00       		.byte	0
 1033 0130 00       		.byte	0
 1034              		.section	.debug_loc,"",%progbits
 1035              	.Ldebug_loc0:
 1036              	.LVUS0:
 1037 0000 00       		.uleb128 0
 1038 0001 02       		.uleb128 .LVU43
 1039 0002 02       		.uleb128 .LVU43
 1040 0003 00       		.uleb128 .LVU45
 1041 0004 00       		.uleb128 .LVU45
 1042 0005 00       		.uleb128 0
 1043              	.LLST0:
 1044 0006 00000000 		.4byte	.LVL0
 1045 000a 56000000 		.4byte	.LVL11
 1046 000e 0100     		.2byte	0x1
 1047 0010 51       		.byte	0x51
 1048 0011 56000000 		.4byte	.LVL11
 1049 0015 58000000 		.4byte	.LVL12
 1050 0019 0500     		.2byte	0x5
 1051 001b 71       		.byte	0x71
 1052 001c 00       		.sleb128 0
 1053 001d 31       		.byte	0x31
 1054 001e 25       		.byte	0x25
 1055 001f 9F       		.byte	0x9f
 1056 0020 58000000 		.4byte	.LVL12
 1057 0024 26010000 		.4byte	.LFE401
 1058 0028 0100     		.2byte	0x1
 1059 002a 51       		.byte	0x51
 1060 002b 00000000 		.4byte	0
 1061 002f 00000000 		.4byte	0
 1062              	.LVUS1:
 1063 0033 00       		.uleb128 0
 1064 0034 00       		.uleb128 .LVU23
 1065 0035 00       		.uleb128 .LVU23
 1066 0036 00       		.uleb128 0
 1067              	.LLST1:
 1068 0037 00000000 		.4byte	.LVL0
 1069 003b 2E000000 		.4byte	.LVL7
 1070 003f 0100     		.2byte	0x1
 1071 0041 52       		.byte	0x52
 1072 0042 2E000000 		.4byte	.LVL7
 1073 0046 26010000 		.4byte	.LFE401
 1074 004a 0400     		.2byte	0x4
 1075 004c F3       		.byte	0xf3
 1076 004d 01       		.uleb128 0x1
 1077 004e 52       		.byte	0x52
 1078 004f 9F       		.byte	0x9f
 1079 0050 00000000 		.4byte	0
 1080 0054 00000000 		.4byte	0
 1081              	.LVUS2:
 1082 0058 00       		.uleb128 .LVU7
 1083 0059 00       		.uleb128 .LVU23
ARM GAS  /tmp/ccc8hyl8.s 			page 20


 1084 005a 00       		.uleb128 .LVU23
 1085 005b 00       		.uleb128 0
 1086              	.LLST2:
 1087 005c 0E000000 		.4byte	.LVL1
 1088 0060 2E000000 		.4byte	.LVL7
 1089 0064 0100     		.2byte	0x1
 1090 0066 5A       		.byte	0x5a
 1091 0067 2E000000 		.4byte	.LVL7
 1092 006b 26010000 		.4byte	.LFE401
 1093 006f 0100     		.2byte	0x1
 1094 0071 54       		.byte	0x54
 1095 0072 00000000 		.4byte	0
 1096 0076 00000000 		.4byte	0
 1097              	.LVUS3:
 1098 007a 00       		.uleb128 .LVU11
 1099 007b 00       		.uleb128 0
 1100              	.LLST3:
 1101 007c 18000000 		.4byte	.LVL2
 1102 0080 26010000 		.4byte	.LFE401
 1103 0084 0100     		.2byte	0x1
 1104 0086 58       		.byte	0x58
 1105 0087 00000000 		.4byte	0
 1106 008b 00000000 		.4byte	0
 1107              	.LVUS4:
 1108 008f 00       		.uleb128 .LVU13
 1109 0090 00       		.uleb128 0
 1110              	.LLST4:
 1111 0091 1C000000 		.4byte	.LVL3
 1112 0095 26010000 		.4byte	.LFE401
 1113 0099 0100     		.2byte	0x1
 1114 009b 57       		.byte	0x57
 1115 009c 00000000 		.4byte	0
 1116 00a0 00000000 		.4byte	0
 1117              	.LVUS5:
 1118 00a4 00       		.uleb128 .LVU15
 1119 00a5 00       		.uleb128 0
 1120              	.LLST5:
 1121 00a6 20000000 		.4byte	.LVL4
 1122 00aa 26010000 		.4byte	.LFE401
 1123 00ae 0100     		.2byte	0x1
 1124 00b0 56       		.byte	0x56
 1125 00b1 00000000 		.4byte	0
 1126 00b5 00000000 		.4byte	0
 1127              	.LVUS6:
 1128 00b9 01       		.uleb128 .LVU16
 1129 00ba 00       		.uleb128 .LVU119
 1130 00bb 00       		.uleb128 .LVU119
 1131 00bc 00       		.uleb128 .LVU120
 1132 00bd 00       		.uleb128 .LVU120
 1133 00be 00       		.uleb128 0
 1134              	.LLST6:
 1135 00bf 20000000 		.4byte	.LVL4
 1136 00c3 10010000 		.4byte	.LVL27
 1137 00c7 0200     		.2byte	0x2
 1138 00c9 7D       		.byte	0x7d
 1139 00ca 00       		.sleb128 0
 1140 00cb 10010000 		.4byte	.LVL27
ARM GAS  /tmp/ccc8hyl8.s 			page 21


 1141 00cf 14010000 		.4byte	.LVL28
 1142 00d3 0200     		.2byte	0x2
 1143 00d5 91       		.byte	0x91
 1144 00d6 50       		.sleb128 -48
 1145 00d7 14010000 		.4byte	.LVL28
 1146 00db 26010000 		.4byte	.LFE401
 1147 00df 0200     		.2byte	0x2
 1148 00e1 7D       		.byte	0x7d
 1149 00e2 00       		.sleb128 0
 1150 00e3 00000000 		.4byte	0
 1151 00e7 00000000 		.4byte	0
 1152              	.LVUS7:
 1153 00eb 00       		.uleb128 .LVU18
 1154 00ec 00       		.uleb128 0
 1155              	.LLST7:
 1156 00ed 24000000 		.4byte	.LVL5
 1157 00f1 26010000 		.4byte	.LFE401
 1158 00f5 0100     		.2byte	0x1
 1159 00f7 55       		.byte	0x55
 1160 00f8 00000000 		.4byte	0
 1161 00fc 00000000 		.4byte	0
 1162              	.LVUS8:
 1163 0100 00       		.uleb128 .LVU20
 1164 0101 00       		.uleb128 .LVU23
 1165 0102 00       		.uleb128 .LVU23
 1166 0103 00       		.uleb128 0
 1167              	.LLST8:
 1168 0104 26000000 		.4byte	.LVL6
 1169 0108 2E000000 		.4byte	.LVL7
 1170 010c 0100     		.2byte	0x1
 1171 010e 53       		.byte	0x53
 1172 010f 2E000000 		.4byte	.LVL7
 1173 0113 26010000 		.4byte	.LFE401
 1174 0117 0200     		.2byte	0x2
 1175 0119 91       		.byte	0x91
 1176 011a 54       		.sleb128 -44
 1177 011b 00000000 		.4byte	0
 1178 011f 00000000 		.4byte	0
 1179              	.LVUS9:
 1180 0123 01       		.uleb128 .LVU21
 1181 0124 00       		.uleb128 .LVU23
 1182 0125 00       		.uleb128 .LVU23
 1183 0126 00       		.uleb128 0
 1184              	.LLST9:
 1185 0127 26000000 		.4byte	.LVL6
 1186 012b 2E000000 		.4byte	.LVL7
 1187 012f 0200     		.2byte	0x2
 1188 0131 30       		.byte	0x30
 1189 0132 9F       		.byte	0x9f
 1190 0133 2E000000 		.4byte	.LVL7
 1191 0137 26010000 		.4byte	.LFE401
 1192 013b 0100     		.2byte	0x1
 1193 013d 5C       		.byte	0x5c
 1194 013e 00000000 		.4byte	0
 1195 0142 00000000 		.4byte	0
 1196              	.LVUS10:
 1197 0146 00       		.uleb128 .LVU23
ARM GAS  /tmp/ccc8hyl8.s 			page 22


 1198 0147 00       		.uleb128 .LVU41
 1199 0148 00       		.uleb128 .LVU88
 1200 0149 00       		.uleb128 .LVU117
 1201 014a 00       		.uleb128 .LVU120
 1202 014b 00       		.uleb128 0
 1203              	.LLST10:
 1204 014c 2E000000 		.4byte	.LVL7
 1205 0150 56000000 		.4byte	.LVL11
 1206 0154 0100     		.2byte	0x1
 1207 0156 59       		.byte	0x59
 1208 0157 CE000000 		.4byte	.LVL19
 1209 015b 0E010000 		.4byte	.LVL26
 1210 015f 0100     		.2byte	0x1
 1211 0161 59       		.byte	0x59
 1212 0162 14010000 		.4byte	.LVL28
 1213 0166 26010000 		.4byte	.LFE401
 1214 016a 0100     		.2byte	0x1
 1215 016c 59       		.byte	0x59
 1216 016d 00000000 		.4byte	0
 1217 0171 00000000 		.4byte	0
 1218              	.LVUS11:
 1219 0175 00       		.uleb128 .LVU23
 1220 0176 00       		.uleb128 .LVU39
 1221 0177 00       		.uleb128 .LVU39
 1222 0178 00       		.uleb128 .LVU41
 1223 0179 01       		.uleb128 .LVU89
 1224 017a 00       		.uleb128 .LVU92
 1225 017b 00       		.uleb128 .LVU92
 1226 017c 00       		.uleb128 .LVU117
 1227 017d 00       		.uleb128 .LVU120
 1228 017e 00       		.uleb128 0
 1229              	.LLST11:
 1230 017f 2E000000 		.4byte	.LVL7
 1231 0183 50000000 		.4byte	.LVL10
 1232 0187 0400     		.2byte	0x4
 1233 0189 72       		.byte	0x72
 1234 018a 00       		.sleb128 0
 1235 018b 20       		.byte	0x20
 1236 018c 9F       		.byte	0x9f
 1237 018d 50000000 		.4byte	.LVL10
 1238 0191 56000000 		.4byte	.LVL11
 1239 0195 0500     		.2byte	0x5
 1240 0197 31       		.byte	0x31
 1241 0198 7C       		.byte	0x7c
 1242 0199 00       		.sleb128 0
 1243 019a 24       		.byte	0x24
 1244 019b 9F       		.byte	0x9f
 1245 019c CE000000 		.4byte	.LVL19
 1246 01a0 D2000000 		.4byte	.LVL20
 1247 01a4 0100     		.2byte	0x1
 1248 01a6 52       		.byte	0x52
 1249 01a7 D2000000 		.4byte	.LVL20
 1250 01ab 0E010000 		.4byte	.LVL26
 1251 01af 0400     		.2byte	0x4
 1252 01b1 72       		.byte	0x72
 1253 01b2 00       		.sleb128 0
 1254 01b3 20       		.byte	0x20
ARM GAS  /tmp/ccc8hyl8.s 			page 23


 1255 01b4 9F       		.byte	0x9f
 1256 01b5 14010000 		.4byte	.LVL28
 1257 01b9 26010000 		.4byte	.LFE401
 1258 01bd 0400     		.2byte	0x4
 1259 01bf 72       		.byte	0x72
 1260 01c0 00       		.sleb128 0
 1261 01c1 20       		.byte	0x20
 1262 01c2 9F       		.byte	0x9f
 1263 01c3 00000000 		.4byte	0
 1264 01c7 00000000 		.4byte	0
 1265              	.LVUS12:
 1266 01cb 00       		.uleb128 .LVU23
 1267 01cc 00       		.uleb128 .LVU26
 1268 01cd 00       		.uleb128 .LVU26
 1269 01ce 00       		.uleb128 .LVU41
 1270 01cf 02       		.uleb128 .LVU90
 1271 01d0 00       		.uleb128 .LVU93
 1272 01d1 00       		.uleb128 .LVU93
 1273 01d2 00       		.uleb128 .LVU110
 1274 01d3 00       		.uleb128 .LVU110
 1275 01d4 00       		.uleb128 .LVU117
 1276 01d5 00       		.uleb128 .LVU120
 1277 01d6 00       		.uleb128 0
 1278              	.LLST12:
 1279 01d7 2E000000 		.4byte	.LVL7
 1280 01db 36000000 		.4byte	.LVL8
 1281 01df 0400     		.2byte	0x4
 1282 01e1 73       		.byte	0x73
 1283 01e2 00       		.sleb128 0
 1284 01e3 20       		.byte	0x20
 1285 01e4 9F       		.byte	0x9f
 1286 01e5 36000000 		.4byte	.LVL8
 1287 01e9 56000000 		.4byte	.LVL11
 1288 01ed 0700     		.2byte	0x7
 1289 01ef 33       		.byte	0x33
 1290 01f0 7C       		.byte	0x7c
 1291 01f1 00       		.sleb128 0
 1292 01f2 31       		.byte	0x31
 1293 01f3 24       		.byte	0x24
 1294 01f4 24       		.byte	0x24
 1295 01f5 9F       		.byte	0x9f
 1296 01f6 CE000000 		.4byte	.LVL19
 1297 01fa D6000000 		.4byte	.LVL21
 1298 01fe 0100     		.2byte	0x1
 1299 0200 53       		.byte	0x53
 1300 0201 D6000000 		.4byte	.LVL21
 1301 0205 FA000000 		.4byte	.LVL24
 1302 0209 0400     		.2byte	0x4
 1303 020b 73       		.byte	0x73
 1304 020c 00       		.sleb128 0
 1305 020d 20       		.byte	0x20
 1306 020e 9F       		.byte	0x9f
 1307 020f FA000000 		.4byte	.LVL24
 1308 0213 0E010000 		.4byte	.LVL26
 1309 0217 0700     		.2byte	0x7
 1310 0219 33       		.byte	0x33
 1311 021a 7C       		.byte	0x7c
ARM GAS  /tmp/ccc8hyl8.s 			page 24


 1312 021b 00       		.sleb128 0
 1313 021c 31       		.byte	0x31
 1314 021d 24       		.byte	0x24
 1315 021e 24       		.byte	0x24
 1316 021f 9F       		.byte	0x9f
 1317 0220 14010000 		.4byte	.LVL28
 1318 0224 26010000 		.4byte	.LFE401
 1319 0228 0400     		.2byte	0x4
 1320 022a 73       		.byte	0x73
 1321 022b 00       		.sleb128 0
 1322 022c 20       		.byte	0x20
 1323 022d 9F       		.byte	0x9f
 1324 022e 00000000 		.4byte	0
 1325 0232 00000000 		.4byte	0
 1326              	.LVUS13:
 1327 0236 00       		.uleb128 .LVU23
 1328 0237 00       		.uleb128 .LVU36
 1329 0238 00       		.uleb128 .LVU36
 1330 0239 00       		.uleb128 .LVU41
 1331 023a 00       		.uleb128 .LVU94
 1332 023b 00       		.uleb128 .LVU105
 1333 023c 00       		.uleb128 .LVU105
 1334 023d 00       		.uleb128 .LVU112
 1335 023e 00       		.uleb128 .LVU112
 1336 023f 00       		.uleb128 .LVU117
 1337 0240 00       		.uleb128 .LVU120
 1338 0241 00       		.uleb128 .LVU123
 1339 0242 00       		.uleb128 .LVU123
 1340 0243 00       		.uleb128 0
 1341              	.LLST13:
 1342 0244 2E000000 		.4byte	.LVL7
 1343 0248 4C000000 		.4byte	.LVL9
 1344 024c 0100     		.2byte	0x1
 1345 024e 5E       		.byte	0x5e
 1346 024f 4C000000 		.4byte	.LVL9
 1347 0253 56000000 		.4byte	.LVL11
 1348 0257 0900     		.2byte	0x9
 1349 0259 3F       		.byte	0x3f
 1350 025a 7C       		.byte	0x7c
 1351 025b 00       		.sleb128 0
 1352 025c 37       		.byte	0x37
 1353 025d 1A       		.byte	0x1a
 1354 025e 32       		.byte	0x32
 1355 025f 24       		.byte	0x24
 1356 0260 24       		.byte	0x24
 1357 0261 9F       		.byte	0x9f
 1358 0262 DA000000 		.4byte	.LVL22
 1359 0266 EA000000 		.4byte	.LVL23
 1360 026a 0100     		.2byte	0x1
 1361 026c 5E       		.byte	0x5e
 1362 026d EA000000 		.4byte	.LVL23
 1363 0271 00010000 		.4byte	.LVL25
 1364 0275 0900     		.2byte	0x9
 1365 0277 3F       		.byte	0x3f
 1366 0278 7C       		.byte	0x7c
 1367 0279 00       		.sleb128 0
 1368 027a 37       		.byte	0x37
ARM GAS  /tmp/ccc8hyl8.s 			page 25


 1369 027b 1A       		.byte	0x1a
 1370 027c 32       		.byte	0x32
 1371 027d 24       		.byte	0x24
 1372 027e 24       		.byte	0x24
 1373 027f 9F       		.byte	0x9f
 1374 0280 00010000 		.4byte	.LVL25
 1375 0284 0E010000 		.4byte	.LVL26
 1376 0288 0100     		.2byte	0x1
 1377 028a 5E       		.byte	0x5e
 1378 028b 14010000 		.4byte	.LVL28
 1379 028f 1C010000 		.4byte	.LVL29
 1380 0293 0100     		.2byte	0x1
 1381 0295 5E       		.byte	0x5e
 1382 0296 1C010000 		.4byte	.LVL29
 1383 029a 26010000 		.4byte	.LFE401
 1384 029e 0900     		.2byte	0x9
 1385 02a0 3F       		.byte	0x3f
 1386 02a1 7C       		.byte	0x7c
 1387 02a2 00       		.sleb128 0
 1388 02a3 37       		.byte	0x37
 1389 02a4 1A       		.byte	0x1a
 1390 02a5 32       		.byte	0x32
 1391 02a6 24       		.byte	0x24
 1392 02a7 24       		.byte	0x24
 1393 02a8 9F       		.byte	0x9f
 1394 02a9 00000000 		.4byte	0
 1395 02ad 00000000 		.4byte	0
 1396              		.section	.debug_aranges,"",%progbits
 1397 0000 24000000 		.4byte	0x24
 1398 0004 0200     		.2byte	0x2
 1399 0006 00000000 		.4byte	.Ldebug_info0
 1400 000a 04       		.byte	0x4
 1401 000b 00       		.byte	0
 1402 000c 0000     		.2byte	0
 1403 000e 0000     		.2byte	0
 1404 0010 00000000 		.4byte	.LFB400
 1405 0014 02000000 		.4byte	.LFE400-.LFB400
 1406 0018 00000000 		.4byte	.LFB401
 1407 001c 26010000 		.4byte	.LFE401-.LFB401
 1408 0020 00000000 		.4byte	0
 1409 0024 00000000 		.4byte	0
 1410              		.section	.debug_ranges,"",%progbits
 1411              	.Ldebug_ranges0:
 1412 0000 2E000000 		.4byte	.LBB2
 1413 0004 56000000 		.4byte	.LBE2
 1414 0008 6E000000 		.4byte	.LBB3
 1415 000c 0E010000 		.4byte	.LBE3
 1416 0010 14010000 		.4byte	.LBB4
 1417 0014 26010000 		.4byte	.LBE4
 1418 0018 00000000 		.4byte	0
 1419 001c 00000000 		.4byte	0
 1420 0020 00000000 		.4byte	.LFB400
 1421 0024 02000000 		.4byte	.LFE400
 1422 0028 00000000 		.4byte	.LFB401
 1423 002c 26010000 		.4byte	.LFE401
 1424 0030 00000000 		.4byte	0
 1425 0034 00000000 		.4byte	0
ARM GAS  /tmp/ccc8hyl8.s 			page 26


 1426              		.section	.debug_line,"",%progbits
 1427              	.Ldebug_line0:
 1428 0000 F7020000 		.section	.debug_str,"MS",%progbits,1
 1428      03003301 
 1428      00000201 
 1428      FB0E0D00 
 1428      01010101 
 1429              	.LASF1:
 1430 0000 6C6F6E67 		.ascii	"long long int\000"
 1430      206C6F6E 
 1430      6720696E 
 1430      7400
 1431              	.LASF25:
 1432 000e 41534352 		.ascii	"ASCR\000"
 1432      00
 1433              	.LASF19:
 1434 0013 4F535045 		.ascii	"OSPEEDR\000"
 1434      45445200 
 1435              	.LASF37:
 1436 001b 61736372 		.ascii	"ascr\000"
 1436      00
 1437              	.LASF16:
 1438 0020 636C6561 		.ascii	"clear\000"
 1438      7200
 1439              	.LASF17:
 1440 0026 4D4F4445 		.ascii	"MODER\000"
 1440      5200
 1441              	.LASF45:
 1442 002c 5F70616C 		.ascii	"_pal_lld_init\000"
 1442      5F6C6C64 
 1442      5F696E69 
 1442      7400
 1443              	.LASF42:
 1444 003a 2F686F6D 		.ascii	"/home/bhimebau/forge/analog_in_out/application\000"
 1444      652F6268 
 1444      696D6562 
 1444      61752F66 
 1444      6F726765 
 1445              	.LASF21:
 1446 0069 42535252 		.ascii	"BSRR\000"
 1446      00
 1447              	.LASF18:
 1448 006e 4F545950 		.ascii	"OTYPER\000"
 1448      455200
 1449              	.LASF5:
 1450 0075 73686F72 		.ascii	"short int\000"
 1450      7420696E 
 1450      7400
 1451              	.LASF33:
 1452 007f 6F747970 		.ascii	"otyper\000"
 1452      657200
 1453              	.LASF27:
 1454 0086 696F706F 		.ascii	"ioportmask_t\000"
 1454      72746D61 
 1454      736B5F74 
 1454      00
 1455              	.LASF39:
ARM GAS  /tmp/ccc8hyl8.s 			page 27


 1456 0093 616C7472 		.ascii	"altrmask\000"
 1456      6D61736B 
 1456      00
 1457              	.LASF28:
 1458 009c 696F6D6F 		.ascii	"iomode_t\000"
 1458      64655F74 
 1458      00
 1459              	.LASF4:
 1460 00a5 756E7369 		.ascii	"unsigned char\000"
 1460      676E6564 
 1460      20636861 
 1460      7200
 1461              	.LASF24:
 1462 00b3 41465248 		.ascii	"AFRH\000"
 1462      00
 1463              	.LASF10:
 1464 00b8 6C6F6E67 		.ascii	"long unsigned int\000"
 1464      20756E73 
 1464      69676E65 
 1464      6420696E 
 1464      7400
 1465              	.LASF6:
 1466 00ca 73686F72 		.ascii	"short unsigned int\000"
 1466      7420756E 
 1466      7369676E 
 1466      65642069 
 1466      6E7400
 1467              	.LASF23:
 1468 00dd 4146524C 		.ascii	"AFRL\000"
 1468      00
 1469              	.LASF8:
 1470 00e2 5F5F7569 		.ascii	"__uint16_t\000"
 1470      6E743136 
 1470      5F7400
 1471              	.LASF40:
 1472 00ed 474E5520 		.ascii	"GNU C17 10.3.1 20210621 (release) -mcpu=cortex-m4 -"
 1472      43313720 
 1472      31302E33 
 1472      2E312032 
 1472      30323130 
 1473 0120 6D746875 		.ascii	"mthumb -mfloat-abi=soft -march=armv7e-m -ggdb -O2 -"
 1473      6D62202D 
 1473      6D666C6F 
 1473      61742D61 
 1473      62693D73 
 1474 0153 666F6D69 		.ascii	"fomit-frame-pointer -falign-functions=16 -ffunction"
 1474      742D6672 
 1474      616D652D 
 1474      706F696E 
 1474      74657220 
 1475 0186 2D736563 		.ascii	"-sections -fdata-sections -fno-common\000"
 1475      74696F6E 
 1475      73202D66 
 1475      64617461 
 1475      2D736563 
 1476              	.LASF38:
 1477 01ac 6C6F636B 		.ascii	"lockr\000"
ARM GAS  /tmp/ccc8hyl8.s 			page 28


 1477      7200
 1478              	.LASF41:
 1479 01b2 2E2E2F43 		.ascii	"../ChibiOS/os/hal/ports/STM32/LLD/GPIOv3/hal_pal_ll"
 1479      68696269 
 1479      4F532F6F 
 1479      732F6861 
 1479      6C2F706F 
 1480 01e5 642E6300 		.ascii	"d.c\000"
 1481              	.LASF9:
 1482 01e9 5F5F7569 		.ascii	"__uint32_t\000"
 1482      6E743332 
 1482      5F7400
 1483              	.LASF35:
 1484 01f4 70757064 		.ascii	"pupdr\000"
 1484      7200
 1485              	.LASF43:
 1486 01fa 5F70616C 		.ascii	"_pal_lld_setgroupmode\000"
 1486      5F6C6C64 
 1486      5F736574 
 1486      67726F75 
 1486      706D6F64 
 1487              	.LASF0:
 1488 0210 756E7369 		.ascii	"unsigned int\000"
 1488      676E6564 
 1488      20696E74 
 1488      00
 1489              	.LASF36:
 1490 021d 616C7472 		.ascii	"altr\000"
 1490      00
 1491              	.LASF14:
 1492 0222 63686172 		.ascii	"char\000"
 1492      00
 1493              	.LASF31:
 1494 0227 6D6F6465 		.ascii	"mode\000"
 1494      00
 1495              	.LASF22:
 1496 022c 4C4F434B 		.ascii	"LOCKR\000"
 1496      5200
 1497              	.LASF26:
 1498 0232 73746D33 		.ascii	"stm32_gpio_t\000"
 1498      325F6770 
 1498      696F5F74 
 1498      00
 1499              	.LASF2:
 1500 023f 6C6F6E67 		.ascii	"long double\000"
 1500      20646F75 
 1500      626C6500 
 1501              	.LASF20:
 1502 024b 50555044 		.ascii	"PUPDR\000"
 1502      5200
 1503              	.LASF34:
 1504 0251 6F737065 		.ascii	"ospeedr\000"
 1504      65647200 
 1505              	.LASF30:
 1506 0259 6D61736B 		.ascii	"mask\000"
 1506      00
 1507              	.LASF44:
ARM GAS  /tmp/ccc8hyl8.s 			page 29


 1508 025e 706F7274 		.ascii	"port\000"
 1508      00
 1509              	.LASF29:
 1510 0263 696F706F 		.ascii	"ioportid_t\000"
 1510      72746964 
 1510      5F7400
 1511              	.LASF12:
 1512 026e 75696E74 		.ascii	"uint16_t\000"
 1512      31365F74 
 1512      00
 1513              	.LASF13:
 1514 0277 75696E74 		.ascii	"uint32_t\000"
 1514      33325F74 
 1514      00
 1515              	.LASF7:
 1516 0280 6C6F6E67 		.ascii	"long int\000"
 1516      20696E74 
 1516      00
 1517              	.LASF32:
 1518 0289 6D6F6465 		.ascii	"moder\000"
 1518      7200
 1519              	.LASF3:
 1520 028f 7369676E 		.ascii	"signed char\000"
 1520      65642063 
 1520      68617200 
 1521              	.LASF15:
 1522 029b 5F426F6F 		.ascii	"_Bool\000"
 1522      6C00
 1523              	.LASF11:
 1524 02a1 6C6F6E67 		.ascii	"long long unsigned int\000"
 1524      206C6F6E 
 1524      6720756E 
 1524      7369676E 
 1524      65642069 
 1525              		.ident	"GCC: (GNU Arm Embedded Toolchain 10.3-2021.07) 10.3.1 20210621 (release)"
ARM GAS  /tmp/ccc8hyl8.s 			page 30


DEFINED SYMBOLS
                            *ABS*:0000000000000000 hal_pal_lld.c
     /tmp/ccc8hyl8.s:16     .text._pal_lld_init:0000000000000000 $t
     /tmp/ccc8hyl8.s:25     .text._pal_lld_init:0000000000000000 _pal_lld_init
     /tmp/ccc8hyl8.s:39     .text._pal_lld_setgroupmode:0000000000000000 $t
     /tmp/ccc8hyl8.s:47     .text._pal_lld_setgroupmode:0000000000000000 _pal_lld_setgroupmode

NO UNDEFINED SYMBOLS
