ARM GAS  /tmp/ccW5kuI3.s 			page 1


   1              		.cpu cortex-m4
   2              		.eabi_attribute 20, 1
   3              		.eabi_attribute 21, 1
   4              		.eabi_attribute 23, 3
   5              		.eabi_attribute 24, 1
   6              		.eabi_attribute 25, 1
   7              		.eabi_attribute 26, 1
   8              		.eabi_attribute 30, 2
   9              		.eabi_attribute 34, 1
  10              		.eabi_attribute 18, 4
  11              		.file	"hal_serial.c"
  12              		.text
  13              	.Ltext0:
  14              		.cfi_sections	.debug_frame
  15              		.section	.text._readt,"ax",%progbits
  16              		.align	1
  17              		.p2align 4,,15
  18              		.arch armv7e-m
  19              		.syntax unified
  20              		.thumb
  21              		.thumb_func
  22              		.fpu softvfp
  23              		.type	_readt, %function
  24              	_readt:
  25              	.LVL0:
  26              	.LFB407:
  27              		.file 1 "../ChibiOS/os/hal/src/hal_serial.c"
  28              		.loc 1 89 45 view -0
  29              		.cfi_startproc
  30              		@ args = 0, pretend = 0, frame = 0
  31              		@ frame_needed = 0, uses_anonymous_args = 0
  32              		@ link register save eliminated.
  33              		.loc 1 91 3 view .LVU1
  34              		.loc 1 91 10 is_stmt 0 view .LVU2
  35 0000 0C30     		adds	r0, r0, #12
  36              	.LVL1:
  37              		.loc 1 91 10 view .LVU3
  38 0002 FFF7FEBF 		b	iqReadTimeout
  39              	.LVL2:
  40              		.loc 1 91 10 view .LVU4
  41              		.cfi_endproc
  42              	.LFE407:
  43              		.size	_readt, .-_readt
  44 0006 00BF     		.section	.text._read,"ax",%progbits
  45              		.align	1
  46              		.p2align 4,,15
  47              		.syntax unified
  48              		.thumb
  49              		.thumb_func
  50              		.fpu softvfp
  51              		.type	_read, %function
  52              	_read:
  53              	.LVL3:
  54              	.LFB401:
  55              		.loc 1 56 54 is_stmt 1 view -0
  56              		.cfi_startproc
  57              		@ args = 0, pretend = 0, frame = 0
ARM GAS  /tmp/ccW5kuI3.s 			page 2


  58              		@ frame_needed = 0, uses_anonymous_args = 0
  59              		@ link register save eliminated.
  60              		.loc 1 58 3 view .LVU6
  61              		.loc 1 58 10 is_stmt 0 view .LVU7
  62 0000 4FF0FF33 		mov	r3, #-1
  63 0004 0C30     		adds	r0, r0, #12
  64              	.LVL4:
  65              		.loc 1 58 10 view .LVU8
  66 0006 FFF7FEBF 		b	iqReadTimeout
  67              	.LVL5:
  68              		.loc 1 58 10 view .LVU9
  69              		.cfi_endproc
  70              	.LFE401:
  71              		.size	_read, .-_read
  72 000a 00BF     		.section	.text._writet,"ax",%progbits
  73              		.align	1
  74              		.p2align 4,,15
  75              		.syntax unified
  76              		.thumb
  77              		.thumb_func
  78              		.fpu softvfp
  79              		.type	_writet, %function
  80              	_writet:
  81              	.LVL6:
  82              	.LFB406:
  83              		.loc 1 83 46 is_stmt 1 view -0
  84              		.cfi_startproc
  85              		@ args = 0, pretend = 0, frame = 0
  86              		@ frame_needed = 0, uses_anonymous_args = 0
  87              		@ link register save eliminated.
  88              		.loc 1 85 3 view .LVU11
  89              		.loc 1 85 10 is_stmt 0 view .LVU12
  90 0000 3030     		adds	r0, r0, #48
  91              	.LVL7:
  92              		.loc 1 85 10 view .LVU13
  93 0002 FFF7FEBF 		b	oqWriteTimeout
  94              	.LVL8:
  95              		.loc 1 85 10 view .LVU14
  96              		.cfi_endproc
  97              	.LFE406:
  98              		.size	_writet, .-_writet
  99 0006 00BF     		.section	.text._write,"ax",%progbits
 100              		.align	1
 101              		.p2align 4,,15
 102              		.syntax unified
 103              		.thumb
 104              		.thumb_func
 105              		.fpu softvfp
 106              		.type	_write, %function
 107              	_write:
 108              	.LVL9:
 109              	.LFB400:
 110              		.loc 1 50 61 is_stmt 1 view -0
 111              		.cfi_startproc
 112              		@ args = 0, pretend = 0, frame = 0
 113              		@ frame_needed = 0, uses_anonymous_args = 0
 114              		@ link register save eliminated.
ARM GAS  /tmp/ccW5kuI3.s 			page 3


 115              		.loc 1 52 3 view .LVU16
 116              		.loc 1 52 10 is_stmt 0 view .LVU17
 117 0000 4FF0FF33 		mov	r3, #-1
 118 0004 3030     		adds	r0, r0, #48
 119              	.LVL10:
 120              		.loc 1 52 10 view .LVU18
 121 0006 FFF7FEBF 		b	oqWriteTimeout
 122              	.LVL11:
 123              		.loc 1 52 10 view .LVU19
 124              		.cfi_endproc
 125              	.LFE400:
 126              		.size	_write, .-_write
 127 000a 00BF     		.section	.text._gett,"ax",%progbits
 128              		.align	1
 129              		.p2align 4,,15
 130              		.syntax unified
 131              		.thumb
 132              		.thumb_func
 133              		.fpu softvfp
 134              		.type	_gett, %function
 135              	_gett:
 136              	.LVL12:
 137              	.LFB405:
 138              		.loc 1 77 53 is_stmt 1 view -0
 139              		.cfi_startproc
 140              		@ args = 0, pretend = 0, frame = 0
 141              		@ frame_needed = 0, uses_anonymous_args = 0
 142              		@ link register save eliminated.
 143              		.loc 1 79 3 view .LVU21
 144              		.loc 1 79 10 is_stmt 0 view .LVU22
 145 0000 0C30     		adds	r0, r0, #12
 146              	.LVL13:
 147              		.loc 1 79 10 view .LVU23
 148 0002 FFF7FEBF 		b	iqGetTimeout
 149              	.LVL14:
 150              		.loc 1 79 10 view .LVU24
 151              		.cfi_endproc
 152              	.LFE405:
 153              		.size	_gett, .-_gett
 154 0006 00BF     		.section	.text._get,"ax",%progbits
 155              		.align	1
 156              		.p2align 4,,15
 157              		.syntax unified
 158              		.thumb
 159              		.thumb_func
 160              		.fpu softvfp
 161              		.type	_get, %function
 162              	_get:
 163              	.LVL15:
 164              	.LFB403:
 165              		.loc 1 67 29 is_stmt 1 view -0
 166              		.cfi_startproc
 167              		@ args = 0, pretend = 0, frame = 0
 168              		@ frame_needed = 0, uses_anonymous_args = 0
 169              		@ link register save eliminated.
 170              		.loc 1 69 3 view .LVU26
 171              		.loc 1 69 10 is_stmt 0 view .LVU27
ARM GAS  /tmp/ccW5kuI3.s 			page 4


 172 0000 4FF0FF31 		mov	r1, #-1
 173 0004 0C30     		adds	r0, r0, #12
 174              	.LVL16:
 175              		.loc 1 69 10 view .LVU28
 176 0006 FFF7FEBF 		b	iqGetTimeout
 177              	.LVL17:
 178              		.loc 1 69 10 view .LVU29
 179              		.cfi_endproc
 180              	.LFE403:
 181              		.size	_get, .-_get
 182 000a 00BF     		.section	.text._putt,"ax",%progbits
 183              		.align	1
 184              		.p2align 4,,15
 185              		.syntax unified
 186              		.thumb
 187              		.thumb_func
 188              		.fpu softvfp
 189              		.type	_putt, %function
 190              	_putt:
 191              	.LVL18:
 192              	.LFB404:
 193              		.loc 1 72 64 is_stmt 1 view -0
 194              		.cfi_startproc
 195              		@ args = 0, pretend = 0, frame = 0
 196              		@ frame_needed = 0, uses_anonymous_args = 0
 197              		@ link register save eliminated.
 198              		.loc 1 74 3 view .LVU31
 199              		.loc 1 74 10 is_stmt 0 view .LVU32
 200 0000 3030     		adds	r0, r0, #48
 201              	.LVL19:
 202              		.loc 1 74 10 view .LVU33
 203 0002 FFF7FEBF 		b	oqPutTimeout
 204              	.LVL20:
 205              		.loc 1 74 10 view .LVU34
 206              		.cfi_endproc
 207              	.LFE404:
 208              		.size	_putt, .-_putt
 209 0006 00BF     		.section	.text._put,"ax",%progbits
 210              		.align	1
 211              		.p2align 4,,15
 212              		.syntax unified
 213              		.thumb
 214              		.thumb_func
 215              		.fpu softvfp
 216              		.type	_put, %function
 217              	_put:
 218              	.LVL21:
 219              	.LFB402:
 220              		.loc 1 62 40 is_stmt 1 view -0
 221              		.cfi_startproc
 222              		@ args = 0, pretend = 0, frame = 0
 223              		@ frame_needed = 0, uses_anonymous_args = 0
 224              		@ link register save eliminated.
 225              		.loc 1 64 3 view .LVU36
 226              		.loc 1 64 10 is_stmt 0 view .LVU37
 227 0000 4FF0FF32 		mov	r2, #-1
 228 0004 3030     		adds	r0, r0, #48
ARM GAS  /tmp/ccW5kuI3.s 			page 5


 229              	.LVL22:
 230              		.loc 1 64 10 view .LVU38
 231 0006 FFF7FEBF 		b	oqPutTimeout
 232              	.LVL23:
 233              		.loc 1 64 10 view .LVU39
 234              		.cfi_endproc
 235              	.LFE402:
 236              		.size	_put, .-_put
 237 000a 00BF     		.section	.text._ctl,"ax",%progbits
 238              		.align	1
 239              		.p2align 4,,15
 240              		.syntax unified
 241              		.thumb
 242              		.thumb_func
 243              		.fpu softvfp
 244              		.type	_ctl, %function
 245              	_ctl:
 246              	.LFB419:
 247              		.cfi_startproc
 248              		@ args = 0, pretend = 0, frame = 0
 249              		@ frame_needed = 0, uses_anonymous_args = 0
 250              		@ link register save eliminated.
 251 0000 0020     		movs	r0, #0
 252 0002 7047     		bx	lr
 253              		.cfi_endproc
 254              	.LFE419:
 255              		.size	_ctl, .-_ctl
 256              		.section	.text.sdInit,"ax",%progbits
 257              		.align	1
 258              		.p2align 4,,15
 259              		.global	sdInit
 260              		.syntax unified
 261              		.thumb
 262              		.thumb_func
 263              		.fpu softvfp
 264              		.type	sdInit, %function
 265              	sdInit:
 266              	.LFB409:
 267              		.loc 1 135 19 is_stmt 1 view -0
 268              		.cfi_startproc
 269              		@ args = 0, pretend = 0, frame = 0
 270              		@ frame_needed = 0, uses_anonymous_args = 0
 271              		@ link register save eliminated.
 272              		.loc 1 137 3 view .LVU41
 273 0000 FFF7FEBF 		b	sd_lld_init
 274              	.LVL24:
 275              		.cfi_endproc
 276              	.LFE409:
 277              		.size	sdInit, .-sdInit
 278              		.section	.text.sdObjectInit,"ax",%progbits
 279              		.align	1
 280              		.p2align 4,,15
 281              		.global	sdObjectInit
 282              		.syntax unified
 283              		.thumb
 284              		.thumb_func
 285              		.fpu softvfp
ARM GAS  /tmp/ccW5kuI3.s 			page 6


 286              		.type	sdObjectInit, %function
 287              	sdObjectInit:
 288              	.LVL25:
 289              	.LFB410:
 290              		.loc 1 167 38 view -0
 291              		.cfi_startproc
 292              		@ args = 0, pretend = 0, frame = 0
 293              		@ frame_needed = 0, uses_anonymous_args = 0
 294              		@ link register save eliminated.
 295              		.loc 1 169 3 view .LVU43
 296              		.loc 1 169 12 is_stmt 0 view .LVU44
 297 0000 0346     		mov	r3, r0
 298 0002 034A     		ldr	r2, .L13
 299 0004 43F8042B 		str	r2, [r3], #4
 300              		.loc 1 170 3 is_stmt 1 view .LVU45
 301              	.LVL26:
 302              	.LBB92:
 303              	.LBI92:
 304              		.file 2 "../ChibiOS/os/hal/osal/rt-nil/osal.h"
 305              		.loc 2 932 20 view .LVU46
 306              	.LBE92:
 307              		.loc 2 934 3 view .LVU47
 308              	.LBB97:
 309              	.LBB93:
 310              	.LBI93:
 311              		.file 3 "../ChibiOS/os/rt/include/chevents.h"
 312              		.loc 3 175 20 view .LVU48
 313              	.LBB94:
 314              		.loc 3 177 3 view .LVU49
 315              	.LBE94:
 316              	.LBE93:
 317              	.LBE97:
 318              		.loc 1 171 14 is_stmt 0 view .LVU50
 319 0008 0122     		movs	r2, #1
 320              	.LBB98:
 321              	.LBB96:
 322              	.LBB95:
 323              		.loc 3 177 13 view .LVU51
 324 000a 4360     		str	r3, [r0, #4]
 325              	.LVL27:
 326              		.loc 3 177 13 view .LVU52
 327              	.LBE95:
 328              	.LBE96:
 329              	.LBE98:
 330              		.loc 1 171 3 is_stmt 1 view .LVU53
 331              		.loc 1 171 14 is_stmt 0 view .LVU54
 332 000c 0272     		strb	r2, [r0, #8]
 333              		.loc 1 172 1 view .LVU55
 334 000e 7047     		bx	lr
 335              	.L14:
 336              		.align	2
 337              	.L13:
 338 0010 00000000 		.word	.LANCHOR0
 339              		.cfi_endproc
 340              	.LFE410:
 341              		.size	sdObjectInit, .-sdObjectInit
 342              		.section	.text.sdStart,"ax",%progbits
ARM GAS  /tmp/ccW5kuI3.s 			page 7


 343              		.align	1
 344              		.p2align 4,,15
 345              		.global	sdStart
 346              		.syntax unified
 347              		.thumb
 348              		.thumb_func
 349              		.fpu softvfp
 350              		.type	sdStart, %function
 351              	sdStart:
 352              	.LVL28:
 353              	.LFB411:
 354              		.loc 1 186 62 is_stmt 1 view -0
 355              		.cfi_startproc
 356              		@ args = 0, pretend = 0, frame = 0
 357              		@ frame_needed = 0, uses_anonymous_args = 0
 358              		.loc 1 187 3 view .LVU57
 359              		.loc 1 189 3 view .LVU58
 360              		.loc 1 189 3 view .LVU59
 361              		.loc 1 189 3 view .LVU60
 362              		.loc 1 191 3 view .LVU61
 363              	.LBB99:
 364              	.LBI99:
 365              		.loc 2 573 20 view .LVU62
 366              	.LBE99:
 367              		.loc 2 575 3 view .LVU63
 368              	.LBB115:
 369              	.LBB100:
 370              	.LBI100:
 371              		.file 4 "../ChibiOS/os/rt/include/chsys.h"
 372              		.loc 4 407 20 view .LVU64
 373              	.LBE100:
 374              	.LBE115:
 375              		.loc 4 409 3 view .LVU65
 376              	.LBB116:
 377              	.LBB111:
 378              	.LBB101:
 379              	.LBI101:
 380              		.file 5 "../ChibiOS/os/common/ports/ARMv7-M/chcore.h"
 381              		.loc 5 806 27 view .LVU66
 382              	.LBE101:
 383              	.LBE111:
 384              	.LBE116:
 385              		.loc 5 814 3 view .LVU67
 386              	.LBB117:
 387              	.LBB112:
 388              	.LBB108:
 389              	.LBB102:
 390              	.LBI102:
 391              		.file 6 "../ChibiOS/os/common/ext/ARM/CMSIS/Core/Include/cmsis_gcc.h"
 392              		.loc 6 491 27 view .LVU68
 393              	.LBB103:
 394              		.loc 6 493 3 view .LVU69
 395              	.LBE103:
 396              	.LBE102:
 397              	.LBE108:
 398              	.LBE112:
 399              	.LBE117:
ARM GAS  /tmp/ccW5kuI3.s 			page 8


 400              		.loc 1 186 62 is_stmt 0 view .LVU70
 401 0000 10B5     		push	{r4, lr}
 402              		.cfi_def_cfa_offset 8
 403              		.cfi_offset 4, -8
 404              		.cfi_offset 14, -4
 405              	.LBB118:
 406              	.LBB113:
 407              	.LBB109:
 408              	.LBB106:
 409              	.LBB104:
 410              		.loc 6 493 3 view .LVU71
 411 0002 3023     		movs	r3, #48
 412              	.LBE104:
 413              	.LBE106:
 414              	.LBE109:
 415              	.LBE113:
 416              	.LBE118:
 417              		.loc 1 186 62 view .LVU72
 418 0004 0446     		mov	r4, r0
 419              	.LBB119:
 420              	.LBB114:
 421              	.LBB110:
 422              	.LBB107:
 423              	.LBB105:
 424              		.loc 6 493 3 view .LVU73
 425              		.syntax unified
 426              	@ 493 "../ChibiOS/os/common/ext/ARM/CMSIS/Core/Include/cmsis_gcc.h" 1
 427 0006 83F31188 		MSR basepri, r3
 428              	@ 0 "" 2
 429              	.LVL29:
 430              		.loc 6 493 3 view .LVU74
 431              		.thumb
 432              		.syntax unified
 433              	.LBE105:
 434              	.LBE107:
 435              	.LBE110:
 436              	.LBE114:
 437              	.LBE119:
 438              		.loc 4 410 35 is_stmt 1 view .LVU75
 439              		.loc 4 411 21 view .LVU76
 440              		.loc 1 192 3 view .LVU77
 441              		.loc 1 192 3 view .LVU78
 442              		.loc 1 192 3 view .LVU79
 443              		.loc 1 198 3 view .LVU80
 444 000a FFF7FEFF 		bl	sd_lld_start
 445              	.LVL30:
 446              		.loc 1 199 3 view .LVU81
 447              		.loc 1 201 3 view .LVU82
 448              		.loc 1 202 5 view .LVU83
 449              		.loc 1 202 16 is_stmt 0 view .LVU84
 450 000e 0223     		movs	r3, #2
 451 0010 2372     		strb	r3, [r4, #8]
 452              		.loc 1 208 3 is_stmt 1 view .LVU85
 453              	.LBB120:
 454              	.LBI120:
 455              		.loc 2 584 20 view .LVU86
 456              	.LBE120:
ARM GAS  /tmp/ccW5kuI3.s 			page 9


 457              		.loc 2 586 3 view .LVU87
 458              	.LBB129:
 459              	.LBB121:
 460              	.LBI121:
 461              		.loc 4 421 20 view .LVU88
 462              	.LBB122:
 463              		.loc 4 423 23 view .LVU89
 464              		.loc 4 424 34 view .LVU90
 465              		.loc 4 430 3 view .LVU91
 466              		.loc 4 430 3 view .LVU92
 467              		.loc 4 430 3 view .LVU93
 468              		.loc 4 434 3 view .LVU94
 469              	.LBB123:
 470              	.LBI123:
 471              		.loc 5 830 27 view .LVU95
 472              	.LBE123:
 473              	.LBE122:
 474              	.LBE121:
 475              	.LBE129:
 476              		.loc 5 833 3 view .LVU96
 477              	.LVL31:
 478              	.LBB130:
 479              	.LBB128:
 480              	.LBB127:
 481              	.LBB126:
 482              	.LBB124:
 483              	.LBI124:
 484              		.loc 6 491 27 view .LVU97
 485              	.LBB125:
 486              		.loc 6 493 3 view .LVU98
 487 0012 0020     		movs	r0, #0
 488              		.syntax unified
 489              	@ 493 "../ChibiOS/os/common/ext/ARM/CMSIS/Core/Include/cmsis_gcc.h" 1
 490 0014 80F31188 		MSR basepri, r0
 491              	@ 0 "" 2
 492              	.LVL32:
 493              		.loc 6 493 3 is_stmt 0 view .LVU99
 494              		.thumb
 495              		.syntax unified
 496              	.LBE125:
 497              	.LBE124:
 498              	.LBE126:
 499              	.LBE127:
 500              	.LBE128:
 501              	.LBE130:
 502              		.loc 1 210 3 is_stmt 1 view .LVU100
 503              		.loc 1 211 1 is_stmt 0 view .LVU101
 504 0018 10BD     		pop	{r4, pc}
 505              		.loc 1 211 1 view .LVU102
 506              		.cfi_endproc
 507              	.LFE411:
 508              		.size	sdStart, .-sdStart
 509 001a 00BF     		.section	.text.sdStop,"ax",%progbits
 510              		.align	1
 511              		.p2align 4,,15
 512              		.global	sdStop
 513              		.syntax unified
ARM GAS  /tmp/ccW5kuI3.s 			page 10


 514              		.thumb
 515              		.thumb_func
 516              		.fpu softvfp
 517              		.type	sdStop, %function
 518              	sdStop:
 519              	.LVL33:
 520              	.LFB412:
 521              		.loc 1 222 32 is_stmt 1 view -0
 522              		.cfi_startproc
 523              		@ args = 0, pretend = 0, frame = 0
 524              		@ frame_needed = 0, uses_anonymous_args = 0
 525              		.loc 1 224 3 view .LVU104
 526              		.loc 1 224 3 view .LVU105
 527              		.loc 1 224 3 view .LVU106
 528              		.loc 1 226 3 view .LVU107
 529              	.LBB131:
 530              	.LBI131:
 531              		.loc 2 573 20 view .LVU108
 532              	.LBE131:
 533              		.loc 2 575 3 view .LVU109
 534              	.LBB147:
 535              	.LBB132:
 536              	.LBI132:
 537              		.loc 4 407 20 view .LVU110
 538              	.LBE132:
 539              	.LBE147:
 540              		.loc 4 409 3 view .LVU111
 541              	.LBB148:
 542              	.LBB143:
 543              	.LBB133:
 544              	.LBI133:
 545              		.loc 5 806 27 view .LVU112
 546              	.LBE133:
 547              	.LBE143:
 548              	.LBE148:
 549              		.loc 5 814 3 view .LVU113
 550              	.LBB149:
 551              	.LBB144:
 552              	.LBB140:
 553              	.LBB134:
 554              	.LBI134:
 555              		.loc 6 491 27 view .LVU114
 556              	.LBB135:
 557              		.loc 6 493 3 view .LVU115
 558              	.LBE135:
 559              	.LBE134:
 560              	.LBE140:
 561              	.LBE144:
 562              	.LBE149:
 563              		.loc 1 222 32 is_stmt 0 view .LVU116
 564 0000 10B5     		push	{r4, lr}
 565              		.cfi_def_cfa_offset 8
 566              		.cfi_offset 4, -8
 567              		.cfi_offset 14, -4
 568              	.LBB150:
 569              	.LBB145:
 570              	.LBB141:
ARM GAS  /tmp/ccW5kuI3.s 			page 11


 571              	.LBB138:
 572              	.LBB136:
 573              		.loc 6 493 3 view .LVU117
 574 0002 3023     		movs	r3, #48
 575              	.LBE136:
 576              	.LBE138:
 577              	.LBE141:
 578              	.LBE145:
 579              	.LBE150:
 580              		.loc 1 222 32 view .LVU118
 581 0004 0446     		mov	r4, r0
 582              	.LBB151:
 583              	.LBB146:
 584              	.LBB142:
 585              	.LBB139:
 586              	.LBB137:
 587              		.loc 6 493 3 view .LVU119
 588              		.syntax unified
 589              	@ 493 "../ChibiOS/os/common/ext/ARM/CMSIS/Core/Include/cmsis_gcc.h" 1
 590 0006 83F31188 		MSR basepri, r3
 591              	@ 0 "" 2
 592              	.LVL34:
 593              		.loc 6 493 3 view .LVU120
 594              		.thumb
 595              		.syntax unified
 596              	.LBE137:
 597              	.LBE139:
 598              	.LBE142:
 599              	.LBE146:
 600              	.LBE151:
 601              		.loc 4 410 35 is_stmt 1 view .LVU121
 602              		.loc 4 411 21 view .LVU122
 603              		.loc 1 228 3 view .LVU123
 604              		.loc 1 228 3 view .LVU124
 605              		.loc 1 228 3 view .LVU125
 606              		.loc 1 231 3 view .LVU126
 607 000a FFF7FEFF 		bl	sd_lld_stop
 608              	.LVL35:
 609              		.loc 1 232 3 view .LVU127
 610              		.loc 1 232 14 is_stmt 0 view .LVU128
 611 000e 0123     		movs	r3, #1
 612 0010 2372     		strb	r3, [r4, #8]
 613              		.loc 1 233 3 is_stmt 1 view .LVU129
 614 0012 04F13000 		add	r0, r4, #48
 615 0016 FFF7FEFF 		bl	oqResetI
 616              	.LVL36:
 617              		.loc 1 234 3 view .LVU130
 618 001a 04F10C00 		add	r0, r4, #12
 619 001e FFF7FEFF 		bl	iqResetI
 620              	.LVL37:
 621              		.loc 1 235 3 view .LVU131
 622              	.LBB152:
 623              	.LBI152:
 624              		.loc 2 680 20 view .LVU132
 625              	.LBB153:
 626              		.loc 2 682 3 view .LVU133
 627 0022 FFF7FEFF 		bl	chSchRescheduleS
ARM GAS  /tmp/ccW5kuI3.s 			page 12


 628              	.LVL38:
 629              	.LBE153:
 630              	.LBE152:
 631              		.loc 1 237 3 view .LVU134
 632              	.LBB154:
 633              	.LBI154:
 634              		.loc 2 584 20 view .LVU135
 635              	.LBE154:
 636              		.loc 2 586 3 view .LVU136
 637              	.LBB163:
 638              	.LBB155:
 639              	.LBI155:
 640              		.loc 4 421 20 view .LVU137
 641              	.LBB156:
 642              		.loc 4 423 23 view .LVU138
 643              		.loc 4 424 34 view .LVU139
 644              		.loc 4 430 3 view .LVU140
 645              		.loc 4 430 3 view .LVU141
 646              		.loc 4 430 3 view .LVU142
 647              		.loc 4 434 3 view .LVU143
 648              	.LBB157:
 649              	.LBI157:
 650              		.loc 5 830 27 view .LVU144
 651              	.LBE157:
 652              	.LBE156:
 653              	.LBE155:
 654              	.LBE163:
 655              		.loc 5 833 3 view .LVU145
 656              	.LBB164:
 657              	.LBB162:
 658              	.LBB161:
 659              	.LBB160:
 660              	.LBB158:
 661              	.LBI158:
 662              		.loc 6 491 27 view .LVU146
 663              	.LBB159:
 664              		.loc 6 493 3 view .LVU147
 665 0026 0023     		movs	r3, #0
 666              		.syntax unified
 667              	@ 493 "../ChibiOS/os/common/ext/ARM/CMSIS/Core/Include/cmsis_gcc.h" 1
 668 0028 83F31188 		MSR basepri, r3
 669              	@ 0 "" 2
 670              	.LVL39:
 671              		.loc 6 493 3 is_stmt 0 view .LVU148
 672              		.thumb
 673              		.syntax unified
 674              	.LBE159:
 675              	.LBE158:
 676              	.LBE160:
 677              	.LBE161:
 678              	.LBE162:
 679              	.LBE164:
 680              		.loc 1 238 1 view .LVU149
 681 002c 10BD     		pop	{r4, pc}
 682              		.loc 1 238 1 view .LVU150
 683              		.cfi_endproc
 684              	.LFE412:
ARM GAS  /tmp/ccW5kuI3.s 			page 13


 685              		.size	sdStop, .-sdStop
 686 002e 00BF     		.section	.text.sdIncomingDataI,"ax",%progbits
 687              		.align	1
 688              		.p2align 4,,15
 689              		.global	sdIncomingDataI
 690              		.syntax unified
 691              		.thumb
 692              		.thumb_func
 693              		.fpu softvfp
 694              		.type	sdIncomingDataI, %function
 695              	sdIncomingDataI:
 696              	.LVL40:
 697              	.LFB413:
 698              		.loc 1 256 52 is_stmt 1 view -0
 699              		.cfi_startproc
 700              		@ args = 0, pretend = 0, frame = 0
 701              		@ frame_needed = 0, uses_anonymous_args = 0
 702              		.loc 1 258 23 view .LVU152
 703              		.loc 1 259 3 view .LVU153
 704              		.loc 1 259 3 view .LVU154
 705              		.loc 1 259 3 view .LVU155
 706              		.loc 1 261 3 view .LVU156
 707              		.loc 1 256 52 is_stmt 0 view .LVU157
 708 0000 38B5     		push	{r3, r4, r5, lr}
 709              		.cfi_def_cfa_offset 16
 710              		.cfi_offset 3, -16
 711              		.cfi_offset 4, -12
 712              		.cfi_offset 5, -8
 713              		.cfi_offset 14, -4
 714              		.loc 1 261 7 view .LVU158
 715 0002 4369     		ldr	r3, [r0, #20]
 716              		.loc 1 256 52 view .LVU159
 717 0004 0446     		mov	r4, r0
 718 0006 0D46     		mov	r5, r1
 719              		.loc 1 261 6 view .LVU160
 720 0008 3BB1     		cbz	r3, .L23
 721              		.loc 1 262 43 is_stmt 1 discriminator 1 view .LVU161
 722              		.loc 1 263 3 discriminator 1 view .LVU162
 723              		.loc 1 263 7 is_stmt 0 discriminator 1 view .LVU163
 724 000a 2946     		mov	r1, r5
 725              	.LVL41:
 726              		.loc 1 263 7 discriminator 1 view .LVU164
 727 000c 04F10C00 		add	r0, r4, #12
 728              	.LVL42:
 729              		.loc 1 263 7 discriminator 1 view .LVU165
 730 0010 FFF7FEFF 		bl	iqPutI
 731              	.LVL43:
 732              		.loc 1 263 6 discriminator 1 view .LVU166
 733 0014 0028     		cmp	r0, #0
 734 0016 0BDB     		blt	.L24
 735              	.L19:
 736              		.loc 1 265 1 view .LVU167
 737 0018 38BD     		pop	{r3, r4, r5, pc}
 738              	.LVL44:
 739              	.L23:
 740              		.loc 1 262 5 is_stmt 1 view .LVU168
 741              	.LBB165:
ARM GAS  /tmp/ccW5kuI3.s 			page 14


 742              	.LBI165:
 743              		.loc 2 956 20 view .LVU169
 744              	.LBB166:
 745              		.loc 2 959 3 view .LVU170
 746 001a 0421     		movs	r1, #4
 747              	.LVL45:
 748              		.loc 2 959 3 is_stmt 0 view .LVU171
 749 001c 0844     		add	r0, r0, r1
 750              	.LVL46:
 751              		.loc 2 959 3 view .LVU172
 752 001e FFF7FEFF 		bl	chEvtBroadcastFlagsI
 753              	.LVL47:
 754              		.loc 2 959 3 view .LVU173
 755              	.LBE166:
 756              	.LBE165:
 757              		.loc 1 262 43 is_stmt 1 view .LVU174
 758              		.loc 1 263 3 view .LVU175
 759              		.loc 1 263 7 is_stmt 0 view .LVU176
 760 0022 2946     		mov	r1, r5
 761 0024 04F10C00 		add	r0, r4, #12
 762 0028 FFF7FEFF 		bl	iqPutI
 763              	.LVL48:
 764              		.loc 1 263 6 view .LVU177
 765 002c 0028     		cmp	r0, #0
 766 002e F3DA     		bge	.L19
 767              	.L24:
 768              		.loc 1 264 5 is_stmt 1 view .LVU178
 769              	.LVL49:
 770              	.LBB167:
 771              	.LBI167:
 772              		.loc 2 956 20 view .LVU179
 773              	.LBB168:
 774              		.loc 2 959 3 view .LVU180
 775 0030 201D     		adds	r0, r4, #4
 776              	.LVL50:
 777              		.loc 2 959 3 is_stmt 0 view .LVU181
 778 0032 4FF48061 		mov	r1, #1024
 779              	.LBE168:
 780              	.LBE167:
 781              		.loc 1 265 1 view .LVU182
 782 0036 BDE83840 		pop	{r3, r4, r5, lr}
 783              		.cfi_restore 14
 784              		.cfi_restore 5
 785              		.cfi_restore 4
 786              		.cfi_restore 3
 787              		.cfi_def_cfa_offset 0
 788              	.LVL51:
 789              	.LBB170:
 790              	.LBB169:
 791              		.loc 2 959 3 view .LVU183
 792 003a FFF7FEBF 		b	chEvtBroadcastFlagsI
 793              	.LVL52:
 794              		.loc 2 959 3 view .LVU184
 795              	.LBE169:
 796              	.LBE170:
 797              		.cfi_endproc
 798              	.LFE413:
ARM GAS  /tmp/ccW5kuI3.s 			page 15


 799              		.size	sdIncomingDataI, .-sdIncomingDataI
 800 003e 00BF     		.section	.text.sdRequestDataI,"ax",%progbits
 801              		.align	1
 802              		.p2align 4,,15
 803              		.global	sdRequestDataI
 804              		.syntax unified
 805              		.thumb
 806              		.thumb_func
 807              		.fpu softvfp
 808              		.type	sdRequestDataI, %function
 809              	sdRequestDataI:
 810              	.LVL53:
 811              	.LFB414:
 812              		.loc 1 282 41 is_stmt 1 view -0
 813              		.cfi_startproc
 814              		@ args = 0, pretend = 0, frame = 0
 815              		@ frame_needed = 0, uses_anonymous_args = 0
 816              		.loc 1 283 3 view .LVU186
 817              		.loc 1 285 23 view .LVU187
 818              		.loc 1 286 3 view .LVU188
 819              		.loc 1 286 3 view .LVU189
 820              		.loc 1 286 3 view .LVU190
 821              		.loc 1 288 3 view .LVU191
 822              		.loc 1 282 41 is_stmt 0 view .LVU192
 823 0000 38B5     		push	{r3, r4, r5, lr}
 824              		.cfi_def_cfa_offset 16
 825              		.cfi_offset 3, -16
 826              		.cfi_offset 4, -12
 827              		.cfi_offset 5, -8
 828              		.cfi_offset 14, -4
 829              		.loc 1 282 41 view .LVU193
 830 0002 0546     		mov	r5, r0
 831              		.loc 1 288 7 view .LVU194
 832 0004 3030     		adds	r0, r0, #48
 833              	.LVL54:
 834              		.loc 1 288 7 view .LVU195
 835 0006 FFF7FEFF 		bl	oqGetI
 836              	.LVL55:
 837              		.loc 1 289 3 is_stmt 1 view .LVU196
 838              		.loc 1 289 6 is_stmt 0 view .LVU197
 839 000a 041E     		subs	r4, r0, #0
 840 000c 01DB     		blt	.L28
 841              		.loc 1 292 1 view .LVU198
 842 000e 2046     		mov	r0, r4
 843              		.loc 1 292 1 view .LVU199
 844 0010 38BD     		pop	{r3, r4, r5, pc}
 845              	.LVL56:
 846              	.L28:
 847              		.loc 1 290 5 is_stmt 1 view .LVU200
 848              	.LBB171:
 849              	.LBI171:
 850              		.loc 2 956 20 view .LVU201
 851              	.LBB172:
 852              		.loc 2 959 3 view .LVU202
 853 0012 281D     		adds	r0, r5, #4
 854              	.LVL57:
 855              		.loc 2 959 3 is_stmt 0 view .LVU203
ARM GAS  /tmp/ccW5kuI3.s 			page 16


 856 0014 0821     		movs	r1, #8
 857 0016 FFF7FEFF 		bl	chEvtBroadcastFlagsI
 858              	.LVL58:
 859              		.loc 2 959 3 view .LVU204
 860              	.LBE172:
 861              	.LBE171:
 862              		.loc 1 290 40 is_stmt 1 view .LVU205
 863              		.loc 1 291 3 view .LVU206
 864              		.loc 1 292 1 is_stmt 0 view .LVU207
 865 001a 2046     		mov	r0, r4
 866 001c 38BD     		pop	{r3, r4, r5, pc}
 867              		.loc 1 292 1 view .LVU208
 868              		.cfi_endproc
 869              	.LFE414:
 870              		.size	sdRequestDataI, .-sdRequestDataI
 871 001e 00BF     		.section	.text.sdPutWouldBlock,"ax",%progbits
 872              		.align	1
 873              		.p2align 4,,15
 874              		.global	sdPutWouldBlock
 875              		.syntax unified
 876              		.thumb
 877              		.thumb_func
 878              		.fpu softvfp
 879              		.type	sdPutWouldBlock, %function
 880              	sdPutWouldBlock:
 881              	.LVL59:
 882              	.LFB415:
 883              		.loc 1 309 41 is_stmt 1 view -0
 884              		.cfi_startproc
 885              		@ args = 0, pretend = 0, frame = 0
 886              		@ frame_needed = 0, uses_anonymous_args = 0
 887              		@ link register save eliminated.
 888              		.loc 1 310 3 view .LVU210
 889              		.loc 1 312 3 view .LVU211
 890              	.LBB173:
 891              	.LBI173:
 892              		.loc 2 573 20 view .LVU212
 893              	.LBE173:
 894              		.loc 2 575 3 view .LVU213
 895              	.LBB181:
 896              	.LBB174:
 897              	.LBI174:
 898              		.loc 4 407 20 view .LVU214
 899              	.LBE174:
 900              	.LBE181:
 901              		.loc 4 409 3 view .LVU215
 902              	.LBB182:
 903              	.LBB179:
 904              	.LBB175:
 905              	.LBI175:
 906              		.loc 5 806 27 view .LVU216
 907              	.LBE175:
 908              	.LBE179:
 909              	.LBE182:
 910              		.loc 5 814 3 view .LVU217
 911              	.LBB183:
 912              	.LBB180:
ARM GAS  /tmp/ccW5kuI3.s 			page 17


 913              	.LBB178:
 914              	.LBB176:
 915              	.LBI176:
 916              		.loc 6 491 27 view .LVU218
 917              	.LBB177:
 918              		.loc 6 493 3 view .LVU219
 919 0000 3023     		movs	r3, #48
 920              		.syntax unified
 921              	@ 493 "../ChibiOS/os/common/ext/ARM/CMSIS/Core/Include/cmsis_gcc.h" 1
 922 0002 83F31188 		MSR basepri, r3
 923              	@ 0 "" 2
 924              	.LVL60:
 925              		.loc 6 493 3 is_stmt 0 view .LVU220
 926              		.thumb
 927              		.syntax unified
 928              	.LBE177:
 929              	.LBE176:
 930              	.LBE178:
 931              	.LBE180:
 932              	.LBE183:
 933              		.loc 4 410 35 is_stmt 1 view .LVU221
 934              		.loc 4 411 21 view .LVU222
 935              		.loc 1 313 3 view .LVU223
 936              	.LBB184:
 937              	.LBB185:
 938              	.LBB186:
 939              	.LBB187:
 940              	.LBB188:
 941              	.LBB189:
 942              		.loc 6 493 3 is_stmt 0 view .LVU224
 943 0006 0023     		movs	r3, #0
 944              	.LBE189:
 945              	.LBE188:
 946              	.LBE187:
 947              	.LBE186:
 948              	.LBE185:
 949              	.LBE184:
 950              		.loc 1 313 7 view .LVU225
 951 0008 806B     		ldr	r0, [r0, #56]
 952              	.LVL61:
 953              		.loc 1 314 3 is_stmt 1 view .LVU226
 954              	.LBB198:
 955              	.LBI184:
 956              		.loc 2 584 20 view .LVU227
 957              	.LBE198:
 958              		.loc 2 586 3 view .LVU228
 959              	.LBB199:
 960              	.LBB196:
 961              	.LBI185:
 962              		.loc 4 421 20 view .LVU229
 963              	.LBB194:
 964              		.loc 4 423 23 view .LVU230
 965              		.loc 4 424 34 view .LVU231
 966              		.loc 4 430 3 view .LVU232
 967              		.loc 4 430 3 view .LVU233
 968              		.loc 4 430 3 view .LVU234
 969              		.loc 4 434 3 view .LVU235
ARM GAS  /tmp/ccW5kuI3.s 			page 18


 970              	.LBB192:
 971              	.LBI187:
 972              		.loc 5 830 27 view .LVU236
 973              	.LBE192:
 974              	.LBE194:
 975              	.LBE196:
 976              	.LBE199:
 977              		.loc 5 833 3 view .LVU237
 978              	.LBB200:
 979              	.LBB197:
 980              	.LBB195:
 981              	.LBB193:
 982              	.LBB191:
 983              	.LBI188:
 984              		.loc 6 491 27 view .LVU238
 985              	.LBB190:
 986              		.loc 6 493 3 view .LVU239
 987              		.syntax unified
 988              	@ 493 "../ChibiOS/os/common/ext/ARM/CMSIS/Core/Include/cmsis_gcc.h" 1
 989 000a 83F31188 		MSR basepri, r3
 990              	@ 0 "" 2
 991              	.LVL62:
 992              		.loc 6 493 3 is_stmt 0 view .LVU240
 993              		.thumb
 994              		.syntax unified
 995              	.LBE190:
 996              	.LBE191:
 997              	.LBE193:
 998              	.LBE195:
 999              	.LBE197:
 1000              	.LBE200:
 1001              		.loc 1 316 3 is_stmt 1 view .LVU241
 1002              		.loc 1 317 1 is_stmt 0 view .LVU242
 1003 000e B0FA80F0 		clz	r0, r0
 1004              	.LVL63:
 1005              		.loc 1 317 1 view .LVU243
 1006 0012 4009     		lsrs	r0, r0, #5
 1007 0014 7047     		bx	lr
 1008              		.cfi_endproc
 1009              	.LFE415:
 1010              		.size	sdPutWouldBlock, .-sdPutWouldBlock
 1011 0016 00BF     		.section	.text.sdGetWouldBlock,"ax",%progbits
 1012              		.align	1
 1013              		.p2align 4,,15
 1014              		.global	sdGetWouldBlock
 1015              		.syntax unified
 1016              		.thumb
 1017              		.thumb_func
 1018              		.fpu softvfp
 1019              		.type	sdGetWouldBlock, %function
 1020              	sdGetWouldBlock:
 1021              	.LVL64:
 1022              	.LFB416:
 1023              		.loc 1 334 41 is_stmt 1 view -0
 1024              		.cfi_startproc
 1025              		@ args = 0, pretend = 0, frame = 0
 1026              		@ frame_needed = 0, uses_anonymous_args = 0
ARM GAS  /tmp/ccW5kuI3.s 			page 19


 1027              		@ link register save eliminated.
 1028              		.loc 1 335 3 view .LVU245
 1029              		.loc 1 337 3 view .LVU246
 1030              	.LBB201:
 1031              	.LBI201:
 1032              		.loc 2 573 20 view .LVU247
 1033              	.LBE201:
 1034              		.loc 2 575 3 view .LVU248
 1035              	.LBB209:
 1036              	.LBB202:
 1037              	.LBI202:
 1038              		.loc 4 407 20 view .LVU249
 1039              	.LBE202:
 1040              	.LBE209:
 1041              		.loc 4 409 3 view .LVU250
 1042              	.LBB210:
 1043              	.LBB207:
 1044              	.LBB203:
 1045              	.LBI203:
 1046              		.loc 5 806 27 view .LVU251
 1047              	.LBE203:
 1048              	.LBE207:
 1049              	.LBE210:
 1050              		.loc 5 814 3 view .LVU252
 1051              	.LBB211:
 1052              	.LBB208:
 1053              	.LBB206:
 1054              	.LBB204:
 1055              	.LBI204:
 1056              		.loc 6 491 27 view .LVU253
 1057              	.LBB205:
 1058              		.loc 6 493 3 view .LVU254
 1059 0000 3023     		movs	r3, #48
 1060              		.syntax unified
 1061              	@ 493 "../ChibiOS/os/common/ext/ARM/CMSIS/Core/Include/cmsis_gcc.h" 1
 1062 0002 83F31188 		MSR basepri, r3
 1063              	@ 0 "" 2
 1064              	.LVL65:
 1065              		.loc 6 493 3 is_stmt 0 view .LVU255
 1066              		.thumb
 1067              		.syntax unified
 1068              	.LBE205:
 1069              	.LBE204:
 1070              	.LBE206:
 1071              	.LBE208:
 1072              	.LBE211:
 1073              		.loc 4 410 35 is_stmt 1 view .LVU256
 1074              		.loc 4 411 21 view .LVU257
 1075              		.loc 1 338 3 view .LVU258
 1076              	.LBB212:
 1077              	.LBB213:
 1078              	.LBB214:
 1079              	.LBB215:
 1080              	.LBB216:
 1081              	.LBB217:
 1082              		.loc 6 493 3 is_stmt 0 view .LVU259
 1083 0006 0023     		movs	r3, #0
ARM GAS  /tmp/ccW5kuI3.s 			page 20


 1084              	.LBE217:
 1085              	.LBE216:
 1086              	.LBE215:
 1087              	.LBE214:
 1088              	.LBE213:
 1089              	.LBE212:
 1090              		.loc 1 338 7 view .LVU260
 1091 0008 4069     		ldr	r0, [r0, #20]
 1092              	.LVL66:
 1093              		.loc 1 339 3 is_stmt 1 view .LVU261
 1094              	.LBB226:
 1095              	.LBI212:
 1096              		.loc 2 584 20 view .LVU262
 1097              	.LBE226:
 1098              		.loc 2 586 3 view .LVU263
 1099              	.LBB227:
 1100              	.LBB224:
 1101              	.LBI213:
 1102              		.loc 4 421 20 view .LVU264
 1103              	.LBB222:
 1104              		.loc 4 423 23 view .LVU265
 1105              		.loc 4 424 34 view .LVU266
 1106              		.loc 4 430 3 view .LVU267
 1107              		.loc 4 430 3 view .LVU268
 1108              		.loc 4 430 3 view .LVU269
 1109              		.loc 4 434 3 view .LVU270
 1110              	.LBB220:
 1111              	.LBI215:
 1112              		.loc 5 830 27 view .LVU271
 1113              	.LBE220:
 1114              	.LBE222:
 1115              	.LBE224:
 1116              	.LBE227:
 1117              		.loc 5 833 3 view .LVU272
 1118              	.LBB228:
 1119              	.LBB225:
 1120              	.LBB223:
 1121              	.LBB221:
 1122              	.LBB219:
 1123              	.LBI216:
 1124              		.loc 6 491 27 view .LVU273
 1125              	.LBB218:
 1126              		.loc 6 493 3 view .LVU274
 1127              		.syntax unified
 1128              	@ 493 "../ChibiOS/os/common/ext/ARM/CMSIS/Core/Include/cmsis_gcc.h" 1
 1129 000a 83F31188 		MSR basepri, r3
 1130              	@ 0 "" 2
 1131              	.LVL67:
 1132              		.loc 6 493 3 is_stmt 0 view .LVU275
 1133              		.thumb
 1134              		.syntax unified
 1135              	.LBE218:
 1136              	.LBE219:
 1137              	.LBE221:
 1138              	.LBE223:
 1139              	.LBE225:
 1140              	.LBE228:
ARM GAS  /tmp/ccW5kuI3.s 			page 21


 1141              		.loc 1 341 3 is_stmt 1 view .LVU276
 1142              		.loc 1 342 1 is_stmt 0 view .LVU277
 1143 000e B0FA80F0 		clz	r0, r0
 1144              	.LVL68:
 1145              		.loc 1 342 1 view .LVU278
 1146 0012 4009     		lsrs	r0, r0, #5
 1147 0014 7047     		bx	lr
 1148              		.cfi_endproc
 1149              	.LFE416:
 1150              		.size	sdGetWouldBlock, .-sdGetWouldBlock
 1151 0016 00BF     		.section	.text.sdControl,"ax",%progbits
 1152              		.align	1
 1153              		.p2align 4,,15
 1154              		.global	sdControl
 1155              		.syntax unified
 1156              		.thumb
 1157              		.thumb_func
 1158              		.fpu softvfp
 1159              		.type	sdControl, %function
 1160              	sdControl:
 1161              	.LVL69:
 1162              	.LFB417:
 1163              		.loc 1 358 71 is_stmt 1 view -0
 1164              		.cfi_startproc
 1165              		@ args = 0, pretend = 0, frame = 0
 1166              		@ frame_needed = 0, uses_anonymous_args = 0
 1167              		@ link register save eliminated.
 1168              		.loc 1 360 3 view .LVU280
 1169              		.loc 1 95 3 view .LVU281
 1170              		.loc 1 97 3 view .LVU282
 1171              		.loc 1 97 3 view .LVU283
 1172              		.loc 1 97 3 view .LVU284
 1173              		.loc 1 99 3 view .LVU285
 1174              		.loc 1 114 3 view .LVU286
 1175              		.loc 1 361 1 is_stmt 0 view .LVU287
 1176 0000 0020     		movs	r0, #0
 1177              	.LVL70:
 1178              		.loc 1 361 1 view .LVU288
 1179 0002 7047     		bx	lr
 1180              		.cfi_endproc
 1181              	.LFE417:
 1182              		.size	sdControl, .-sdControl
 1183              		.section	.rodata.vmt,"a"
 1184              		.align	2
 1185              		.set	.LANCHOR0,. + 0
 1186              		.type	vmt, %object
 1187              		.size	vmt, 40
 1188              	vmt:
 1189 0000 00000000 		.word	0
 1190 0004 00000000 		.word	_write
 1191 0008 00000000 		.word	_read
 1192 000c 00000000 		.word	_put
 1193 0010 00000000 		.word	_get
 1194 0014 00000000 		.word	_putt
 1195 0018 00000000 		.word	_gett
 1196 001c 00000000 		.word	_writet
 1197 0020 00000000 		.word	_readt
ARM GAS  /tmp/ccW5kuI3.s 			page 22


 1198 0024 00000000 		.word	_ctl
 1199              		.text
 1200              	.Letext0:
 1201              		.file 7 "/opt/gcc-arm-none-eabi/gcc-arm-none-eabi-10.3-2021.07/lib/gcc/arm-none-eabi/10.3.1/includ
 1202              		.file 8 "/opt/gcc-arm-none-eabi/gcc-arm-none-eabi-10.3-2021.07/arm-none-eabi/include/machine/_defa
 1203              		.file 9 "/opt/gcc-arm-none-eabi/gcc-arm-none-eabi-10.3-2021.07/arm-none-eabi/include/sys/_stdint.h
 1204              		.file 10 "../ChibiOS/os/common/ports/ARM-common/chtypes.h"
 1205              		.file 11 "../ChibiOS/os/rt/include/chearly.h"
 1206              		.file 12 "../ChibiOS/os/rt/include/chobjects.h"
 1207              		.file 13 "../ChibiOS/os/rt/include/chrfcu.h"
 1208              		.file 14 "../ChibiOS/os/rt/include/chdebug.h"
 1209              		.file 15 "../ChibiOS/os/rt/include/chtime.h"
 1210              		.file 16 "../ChibiOS/os/rt/include/chlists.h"
 1211              		.file 17 "../ChibiOS/os/common/ext/ST/STM32L4xx/stm32l432xx.h"
 1212              		.file 18 "../ChibiOS/os/rt/include/chsem.h"
 1213              		.file 19 "../ChibiOS/os/rt/include/chmtx.h"
 1214              		.file 20 "../ChibiOS/os/hal/include/hal_queues.h"
 1215              		.file 21 "../ChibiOS/os/hal/include/hal_serial.h"
 1216              		.file 22 "../ChibiOS/os/hal/ports/STM32/LLD/USARTv2/hal_serial_lld.h"
 1217              		.file 23 "../ChibiOS/os/rt/include/chschd.h"