ARM GAS  /tmp/ccTMtxXw.s 			page 1


   1              		.cpu cortex-m4
   2              		.eabi_attribute 20, 1
   3              		.eabi_attribute 21, 1
   4              		.eabi_attribute 23, 3
   5              		.eabi_attribute 24, 1
   6              		.eabi_attribute 25, 1
   7              		.eabi_attribute 26, 1
   8              		.eabi_attribute 30, 2
   9              		.eabi_attribute 34, 1
  10              		.eabi_attribute 18, 4
  11              		.file	"oslib_test_sequence_002.c"
  12              		.text
  13              	.Ltext0:
  14              		.cfi_sections	.debug_frame
  15              		.section	.text.oslib_test_002_001_teardown,"ax",%progbits
  16              		.align	1
  17              		.p2align 4,,15
  18              		.arch armv7e-m
  19              		.syntax unified
  20              		.thumb
  21              		.thumb_func
  22              		.fpu softvfp
  23              		.type	oslib_test_002_001_teardown, %function
  24              	oslib_test_002_001_teardown:
  25              	.LFB405:
  26              		.file 1 "../ChibiOS/test/oslib/source/test/oslib_test_sequence_002.c"
  27              		.loc 1 90 47 view -0
  28              		.cfi_startproc
  29              		@ args = 0, pretend = 0, frame = 0
  30              		@ frame_needed = 0, uses_anonymous_args = 0
  31              		@ link register save eliminated.
  32              		.loc 1 91 3 view .LVU1
  33 0000 0148     		ldr	r0, .L3
  34 0002 FFF7FEBF 		b	chMBReset
  35              	.LVL0:
  36              	.L4:
  37 0006 00BF     		.align	2
  38              	.L3:
  39 0008 00000000 		.word	.LANCHOR0
  40              		.cfi_endproc
  41              	.LFE405:
  42              		.size	oslib_test_002_001_teardown, .-oslib_test_002_001_teardown
  43              		.section	.rodata.oslib_test_002_003_execute.str1.4,"aMS",%progbits,1
  44              		.align	2
  45              	.LC0:
  46 0000 77726F6E 		.ascii	"wrong wake-up message\000"
  46      67207761 
  46      6B652D75 
  46      70206D65 
  46      73736167 
  47              		.section	.text.oslib_test_002_003_execute,"ax",%progbits
  48              		.align	1
  49              		.p2align 4,,15
  50              		.syntax unified
  51              		.thumb
  52              		.thumb_func
  53              		.fpu softvfp
ARM GAS  /tmp/ccTMtxXw.s 			page 2


  54              		.type	oslib_test_002_003_execute, %function
  55              	oslib_test_002_003_execute:
  56              	.LFB412:
  57              		.loc 1 351 46 view -0
  58              		.cfi_startproc
  59              		@ args = 0, pretend = 0, frame = 8
  60              		@ frame_needed = 0, uses_anonymous_args = 0
  61              		.loc 1 352 3 view .LVU3
  62              		.loc 1 353 3 view .LVU4
  63              		.loc 1 356 3 view .LVU5
  64              		.loc 1 351 46 is_stmt 0 view .LVU6
  65 0000 F0B5     		push	{r4, r5, r6, r7, lr}
  66              		.cfi_def_cfa_offset 20
  67              		.cfi_offset 4, -20
  68              		.cfi_offset 5, -16
  69              		.cfi_offset 6, -12
  70              		.cfi_offset 7, -8
  71              		.cfi_offset 14, -4
  72              		.loc 1 356 3 view .LVU7
  73 0002 454F     		ldr	r7, .L13
  74 0004 454D     		ldr	r5, .L13+4
  75              		.loc 1 360 7 view .LVU8
  76 0006 464E     		ldr	r6, .L13+8
  77              		.loc 1 356 3 view .LVU9
  78 0008 0123     		movs	r3, #1
  79              		.loc 1 351 46 view .LVU10
  80 000a 83B0     		sub	sp, sp, #12
  81              		.cfi_def_cfa_offset 32
  82              		.loc 1 356 3 view .LVU11
  83 000c 3B60     		str	r3, [r7]
  84              		.loc 1 358 5 is_stmt 1 view .LVU12
  85              	.LVL1:
  86              		.loc 1 358 17 view .LVU13
  87              		.loc 1 356 3 is_stmt 0 view .LVU14
  88 000e 4224     		movs	r4, #66
  89              	.LVL2:
  90              	.L8:
  91              		.loc 1 359 7 is_stmt 1 view .LVU15
  92              		.loc 1 359 14 is_stmt 0 view .LVU16
  93 0010 2146     		mov	r1, r4
  94 0012 4FF0FF32 		mov	r2, #-1
  95 0016 2846     		mov	r0, r5
  96 0018 FFF7FEFF 		bl	chMBPostTimeout
  97              	.LVL3:
  98              		.loc 1 360 7 is_stmt 1 view .LVU17
  99 001c B0FA80F0 		clz	r0, r0
 100              	.LVL4:
 101              		.loc 1 360 7 is_stmt 0 view .LVU18
 102 0020 3146     		mov	r1, r6
 103 0022 4009     		lsrs	r0, r0, #5
 104              		.loc 1 358 5 view .LVU19
 105 0024 0134     		adds	r4, r4, #1
 106              	.LVL5:
 107              		.loc 1 360 7 view .LVU20
 108 0026 FFF7FEFF 		bl	__test_assert
 109              	.LVL6:
 110              		.loc 1 360 59 is_stmt 1 view .LVU21
ARM GAS  /tmp/ccTMtxXw.s 			page 3


 111              		.loc 1 358 30 view .LVU22
 112              		.loc 1 358 17 view .LVU23
 113              		.loc 1 360 7 is_stmt 0 view .LVU24
 114 002a 90B9     		cbnz	r0, .L5
 115              		.loc 1 358 5 discriminator 2 view .LVU25
 116 002c 462C     		cmp	r4, #70
 117 002e EFD1     		bne	.L8
 118              		.loc 1 363 3 is_stmt 1 view .LVU26
 119              		.loc 1 363 19 view .LVU27
 120              		.loc 1 367 3 view .LVU28
 121 0030 0223     		movs	r3, #2
 122              		.loc 1 369 12 is_stmt 0 view .LVU29
 123 0032 0122     		movs	r2, #1
 124 0034 5821     		movs	r1, #88
 125 0036 3948     		ldr	r0, .L13+4
 126              		.loc 1 367 3 view .LVU30
 127 0038 3B60     		str	r3, [r7]
 128              		.loc 1 369 5 is_stmt 1 view .LVU31
 129              		.loc 1 369 12 is_stmt 0 view .LVU32
 130 003a FFF7FEFF 		bl	chMBPostTimeout
 131              	.LVL7:
 132              		.loc 1 370 5 is_stmt 1 view .LVU33
 133 003e A0F1FF30 		sub	r0, r0, #-1
 134              	.LVL8:
 135              		.loc 1 370 5 is_stmt 0 view .LVU34
 136 0042 B0FA80F0 		clz	r0, r0
 137              	.LVL9:
 138              		.loc 1 370 5 view .LVU35
 139 0046 3649     		ldr	r1, .L13+8
 140 0048 4009     		lsrs	r0, r0, #5
 141 004a FFF7FEFF 		bl	__test_assert
 142              	.LVL10:
 143 004e 0446     		mov	r4, r0
 144 0050 08B1     		cbz	r0, .L12
 145              	.L5:
 146              		.loc 1 404 1 view .LVU36
 147 0052 03B0     		add	sp, sp, #12
 148              		.cfi_remember_state
 149              		.cfi_def_cfa_offset 20
 150              		@ sp needed
 151 0054 F0BD     		pop	{r4, r5, r6, r7, pc}
 152              	.L12:
 153              		.cfi_restore_state
 154              		.loc 1 370 62 is_stmt 1 view .LVU37
 155              		.loc 1 371 5 view .LVU38
 156              	.LBB1004:
 157              	.LBI1004:
 158              		.file 2 "../ChibiOS/os/rt/include/chsys.h"
 159              		.loc 2 407 20 view .LVU39
 160              	.LBE1004:
 161              		.loc 2 409 3 view .LVU40
 162              	.LBB1009:
 163              	.LBB1005:
 164              	.LBI1005:
 165              		.file 3 "../ChibiOS/os/common/ports/ARMv7-M/chcore.h"
 166              		.loc 3 806 27 view .LVU41
 167              	.LBE1005:
ARM GAS  /tmp/ccTMtxXw.s 			page 4


 168              	.LBE1009:
 169              		.loc 3 814 3 view .LVU42
 170              	.LVL11:
 171              	.LBB1010:
 172              	.LBB1008:
 173              	.LBB1006:
 174              	.LBI1006:
 175              		.file 4 "../ChibiOS/os/common/ext/ARM/CMSIS/Core/Include/cmsis_gcc.h"
 176              		.loc 4 491 27 view .LVU43
 177              	.LBB1007:
 178              		.loc 4 493 3 view .LVU44
 179 0056 3026     		movs	r6, #48
 180              		.syntax unified
 181              	@ 493 "../ChibiOS/os/common/ext/ARM/CMSIS/Core/Include/cmsis_gcc.h" 1
 182 0058 86F31188 		MSR basepri, r6
 183              	@ 0 "" 2
 184              	.LVL12:
 185              		.loc 4 493 3 is_stmt 0 view .LVU45
 186              		.thumb
 187              		.syntax unified
 188              	.LBE1007:
 189              	.LBE1006:
 190              	.LBE1008:
 191              	.LBE1010:
 192              		.loc 2 410 35 is_stmt 1 view .LVU46
 193              		.loc 2 411 21 view .LVU47
 194              		.loc 1 372 5 view .LVU48
 195              		.loc 1 372 12 is_stmt 0 view .LVU49
 196 005c 5821     		movs	r1, #88
 197 005e 2F48     		ldr	r0, .L13+4
 198 0060 FFF7FEFF 		bl	chMBPostI
 199              	.LVL13:
 200              		.loc 1 373 5 is_stmt 1 view .LVU50
 201              	.LBB1011:
 202              	.LBI1011:
 203              		.loc 2 421 20 view .LVU51
 204              	.LBB1012:
 205              		.loc 2 423 23 view .LVU52
 206              		.loc 2 424 34 view .LVU53
 207              		.loc 2 430 3 view .LVU54
 208              		.loc 2 430 3 view .LVU55
 209              		.loc 2 430 3 view .LVU56
 210              		.loc 2 434 3 view .LVU57
 211              	.LBB1013:
 212              	.LBI1013:
 213              		.loc 3 830 27 view .LVU58
 214              	.LBE1013:
 215              	.LBE1012:
 216              	.LBE1011:
 217              		.loc 3 833 3 view .LVU59
 218              	.LBB1018:
 219              	.LBB1017:
 220              	.LBB1016:
 221              	.LBB1014:
 222              	.LBI1014:
 223              		.loc 4 491 27 view .LVU60
 224              	.LBB1015:
ARM GAS  /tmp/ccTMtxXw.s 			page 5


 225              		.loc 4 493 3 view .LVU61
 226              		.syntax unified
 227              	@ 493 "../ChibiOS/os/common/ext/ARM/CMSIS/Core/Include/cmsis_gcc.h" 1
 228 0064 84F31188 		MSR basepri, r4
 229              	@ 0 "" 2
 230              	.LVL14:
 231              		.loc 4 493 3 is_stmt 0 view .LVU62
 232              		.thumb
 233              		.syntax unified
 234              	.LBE1015:
 235              	.LBE1014:
 236              	.LBE1016:
 237              	.LBE1017:
 238              	.LBE1018:
 239              		.loc 1 374 5 is_stmt 1 view .LVU63
 240 0068 A0F1FF30 		sub	r0, r0, #-1
 241              	.LVL15:
 242              		.loc 1 374 5 is_stmt 0 view .LVU64
 243 006c B0FA80F0 		clz	r0, r0
 244              	.LVL16:
 245              		.loc 1 374 5 view .LVU65
 246 0070 2B49     		ldr	r1, .L13+8
 247 0072 4009     		lsrs	r0, r0, #5
 248 0074 FFF7FEFF 		bl	__test_assert
 249              	.LVL17:
 250 0078 0028     		cmp	r0, #0
 251 007a EAD1     		bne	.L5
 252              		.loc 1 374 62 is_stmt 1 discriminator 2 view .LVU66
 253              		.loc 1 375 5 discriminator 2 view .LVU67
 254              		.loc 1 375 12 is_stmt 0 discriminator 2 view .LVU68
 255 007c 0122     		movs	r2, #1
 256 007e 5821     		movs	r1, #88
 257 0080 2648     		ldr	r0, .L13+4
 258 0082 FFF7FEFF 		bl	chMBPostAheadTimeout
 259              	.LVL18:
 260              		.loc 1 376 5 is_stmt 1 discriminator 2 view .LVU69
 261 0086 A0F1FF30 		sub	r0, r0, #-1
 262              	.LVL19:
 263              		.loc 1 376 5 is_stmt 0 discriminator 2 view .LVU70
 264 008a B0FA80F0 		clz	r0, r0
 265              	.LVL20:
 266              		.loc 1 376 5 discriminator 2 view .LVU71
 267 008e 2449     		ldr	r1, .L13+8
 268 0090 4009     		lsrs	r0, r0, #5
 269 0092 FFF7FEFF 		bl	__test_assert
 270              	.LVL21:
 271 0096 0446     		mov	r4, r0
 272 0098 0028     		cmp	r0, #0
 273 009a DAD1     		bne	.L5
 274              		.loc 1 376 62 is_stmt 1 view .LVU72
 275              		.loc 1 377 5 view .LVU73
 276              	.LBB1019:
 277              	.LBI1019:
 278              		.loc 2 407 20 view .LVU74
 279              	.LBE1019:
 280              		.loc 2 409 3 view .LVU75
 281              	.LBB1024:
ARM GAS  /tmp/ccTMtxXw.s 			page 6


 282              	.LBB1020:
 283              	.LBI1020:
 284              		.loc 3 806 27 view .LVU76
 285              	.LBE1020:
 286              	.LBE1024:
 287              		.loc 3 814 3 view .LVU77
 288              	.LVL22:
 289              	.LBB1025:
 290              	.LBB1023:
 291              	.LBB1021:
 292              	.LBI1021:
 293              		.loc 4 491 27 view .LVU78
 294              	.LBB1022:
 295              		.loc 4 493 3 view .LVU79
 296              		.syntax unified
 297              	@ 493 "../ChibiOS/os/common/ext/ARM/CMSIS/Core/Include/cmsis_gcc.h" 1
 298 009c 86F31188 		MSR basepri, r6
 299              	@ 0 "" 2
 300              	.LVL23:
 301              		.loc 4 493 3 is_stmt 0 view .LVU80
 302              		.thumb
 303              		.syntax unified
 304              	.LBE1022:
 305              	.LBE1021:
 306              	.LBE1023:
 307              	.LBE1025:
 308              		.loc 2 410 35 is_stmt 1 view .LVU81
 309              		.loc 2 411 21 view .LVU82
 310              		.loc 1 378 5 view .LVU83
 311              		.loc 1 378 12 is_stmt 0 view .LVU84
 312 00a0 5821     		movs	r1, #88
 313 00a2 1E48     		ldr	r0, .L13+4
 314 00a4 FFF7FEFF 		bl	chMBPostAheadI
 315              	.LVL24:
 316              		.loc 1 379 5 is_stmt 1 view .LVU85
 317              	.LBB1026:
 318              	.LBI1026:
 319              		.loc 2 421 20 view .LVU86
 320              	.LBB1027:
 321              		.loc 2 423 23 view .LVU87
 322              		.loc 2 424 34 view .LVU88
 323              		.loc 2 430 3 view .LVU89
 324              		.loc 2 430 3 view .LVU90
 325              		.loc 2 430 3 view .LVU91
 326              		.loc 2 434 3 view .LVU92
 327              	.LBB1028:
 328              	.LBI1028:
 329              		.loc 3 830 27 view .LVU93
 330              	.LBE1028:
 331              	.LBE1027:
 332              	.LBE1026:
 333              		.loc 3 833 3 view .LVU94
 334              	.LBB1033:
 335              	.LBB1032:
 336              	.LBB1031:
 337              	.LBB1029:
 338              	.LBI1029:
ARM GAS  /tmp/ccTMtxXw.s 			page 7


 339              		.loc 4 491 27 view .LVU95
 340              	.LBB1030:
 341              		.loc 4 493 3 view .LVU96
 342              		.syntax unified
 343              	@ 493 "../ChibiOS/os/common/ext/ARM/CMSIS/Core/Include/cmsis_gcc.h" 1
 344 00a8 84F31188 		MSR basepri, r4
 345              	@ 0 "" 2
 346              	.LVL25:
 347              		.loc 4 493 3 is_stmt 0 view .LVU97
 348              		.thumb
 349              		.syntax unified
 350              	.LBE1030:
 351              	.LBE1029:
 352              	.LBE1031:
 353              	.LBE1032:
 354              	.LBE1033:
 355              		.loc 1 380 5 is_stmt 1 view .LVU98
 356 00ac A0F1FF30 		sub	r0, r0, #-1
 357              	.LVL26:
 358              		.loc 1 380 5 is_stmt 0 view .LVU99
 359 00b0 B0FA80F0 		clz	r0, r0
 360              	.LVL27:
 361              		.loc 1 380 5 view .LVU100
 362 00b4 1A49     		ldr	r1, .L13+8
 363 00b6 4009     		lsrs	r0, r0, #5
 364 00b8 FFF7FEFF 		bl	__test_assert
 365              	.LVL28:
 366 00bc 0446     		mov	r4, r0
 367 00be 0028     		cmp	r0, #0
 368 00c0 C7D1     		bne	.L5
 369              		.loc 1 380 62 is_stmt 1 discriminator 2 view .LVU101
 370              		.loc 1 382 3 discriminator 2 view .LVU102
 371              		.loc 1 382 19 discriminator 2 view .LVU103
 372              		.loc 1 386 3 discriminator 2 view .LVU104
 373 00c2 0323     		movs	r3, #3
 374              		.loc 1 388 5 is_stmt 0 discriminator 2 view .LVU105
 375 00c4 1548     		ldr	r0, .L13+4
 376              		.loc 1 386 3 discriminator 2 view .LVU106
 377 00c6 3B60     		str	r3, [r7]
 378              		.loc 1 388 5 is_stmt 1 discriminator 2 view .LVU107
 379 00c8 FFF7FEFF 		bl	chMBReset
 380              	.LVL29:
 381              		.loc 1 389 5 discriminator 2 view .LVU108
 382              	.LBB1034:
 383              	.LBI1034:
 384              		.file 5 "../ChibiOS/os/oslib/include/chmboxes.h"
 385              		.loc 5 200 20 discriminator 2 view .LVU109
 386              	.LBB1035:
 387              		.loc 5 202 3 discriminator 2 view .LVU110
 388              	.LBE1035:
 389              	.LBE1034:
 390              		.loc 1 394 3 is_stmt 0 discriminator 2 view .LVU111
 391 00cc 0423     		movs	r3, #4
 392              		.loc 1 396 12 discriminator 2 view .LVU112
 393 00ce 0DEB0301 		add	r1, sp, r3
 394 00d2 0122     		movs	r2, #1
 395 00d4 1148     		ldr	r0, .L13+4
ARM GAS  /tmp/ccTMtxXw.s 			page 8


 396              		.loc 1 394 3 discriminator 2 view .LVU113
 397 00d6 3B60     		str	r3, [r7]
 398              	.LBB1037:
 399              	.LBB1036:
 400              		.loc 5 202 14 discriminator 2 view .LVU114
 401 00d8 2C75     		strb	r4, [r5, #20]
 402              	.LVL30:
 403              		.loc 5 202 14 discriminator 2 view .LVU115
 404              	.LBE1036:
 405              	.LBE1037:
 406              		.loc 1 391 3 is_stmt 1 discriminator 2 view .LVU116
 407              		.loc 1 391 19 discriminator 2 view .LVU117
 408              		.loc 1 394 3 discriminator 2 view .LVU118
 409              		.loc 1 396 5 discriminator 2 view .LVU119
 410              		.loc 1 396 12 is_stmt 0 discriminator 2 view .LVU120
 411 00da FFF7FEFF 		bl	chMBFetchTimeout
 412              	.LVL31:
 413              		.loc 1 397 5 is_stmt 1 discriminator 2 view .LVU121
 414 00de A0F1FF30 		sub	r0, r0, #-1
 415              	.LVL32:
 416              		.loc 1 397 5 is_stmt 0 discriminator 2 view .LVU122
 417 00e2 B0FA80F0 		clz	r0, r0
 418              	.LVL33:
 419              		.loc 1 397 5 discriminator 2 view .LVU123
 420 00e6 0E49     		ldr	r1, .L13+8
 421 00e8 4009     		lsrs	r0, r0, #5
 422 00ea FFF7FEFF 		bl	__test_assert
 423              	.LVL34:
 424 00ee 0446     		mov	r4, r0
 425 00f0 0028     		cmp	r0, #0
 426 00f2 AED1     		bne	.L5
 427              		.loc 1 397 62 is_stmt 1 view .LVU124
 428              		.loc 1 398 5 view .LVU125
 429              	.LBB1038:
 430              	.LBI1038:
 431              		.loc 2 407 20 view .LVU126
 432              	.LBE1038:
 433              		.loc 2 409 3 view .LVU127
 434              	.LBB1043:
 435              	.LBB1039:
 436              	.LBI1039:
 437              		.loc 3 806 27 view .LVU128
 438              	.LBE1039:
 439              	.LBE1043:
 440              		.loc 3 814 3 view .LVU129
 441              	.LVL35:
 442              	.LBB1044:
 443              	.LBB1042:
 444              	.LBB1040:
 445              	.LBI1040:
 446              		.loc 4 491 27 view .LVU130
 447              	.LBB1041:
 448              		.loc 4 493 3 view .LVU131
 449              		.syntax unified
 450              	@ 493 "../ChibiOS/os/common/ext/ARM/CMSIS/Core/Include/cmsis_gcc.h" 1
 451 00f4 86F31188 		MSR basepri, r6
 452              	@ 0 "" 2
ARM GAS  /tmp/ccTMtxXw.s 			page 9


 453              	.LVL36:
 454              		.loc 4 493 3 is_stmt 0 view .LVU132
 455              		.thumb
 456              		.syntax unified
 457              	.LBE1041:
 458              	.LBE1040:
 459              	.LBE1042:
 460              	.LBE1044:
 461              		.loc 2 410 35 is_stmt 1 view .LVU133
 462              		.loc 2 411 21 view .LVU134
 463              		.loc 1 399 5 view .LVU135
 464              		.loc 1 399 12 is_stmt 0 view .LVU136
 465 00f8 0848     		ldr	r0, .L13+4
 466 00fa 01A9     		add	r1, sp, #4
 467 00fc FFF7FEFF 		bl	chMBFetchI
 468              	.LVL37:
 469              		.loc 1 400 5 is_stmt 1 view .LVU137
 470              	.LBB1045:
 471              	.LBI1045:
 472              		.loc 2 421 20 view .LVU138
 473              	.LBB1046:
 474              		.loc 2 423 23 view .LVU139
 475              		.loc 2 424 34 view .LVU140
 476              		.loc 2 430 3 view .LVU141
 477              		.loc 2 430 3 view .LVU142
 478              		.loc 2 430 3 view .LVU143
 479              		.loc 2 434 3 view .LVU144
 480              	.LBB1047:
 481              	.LBI1047:
 482              		.loc 3 830 27 view .LVU145
 483              	.LBE1047:
 484              	.LBE1046:
 485              	.LBE1045:
 486              		.loc 3 833 3 view .LVU146
 487              	.LBB1052:
 488              	.LBB1051:
 489              	.LBB1050:
 490              	.LBB1048:
 491              	.LBI1048:
 492              		.loc 4 491 27 view .LVU147
 493              	.LBB1049:
 494              		.loc 4 493 3 view .LVU148
 495              		.syntax unified
 496              	@ 493 "../ChibiOS/os/common/ext/ARM/CMSIS/Core/Include/cmsis_gcc.h" 1
 497 0100 84F31188 		MSR basepri, r4
 498              	@ 0 "" 2
 499              	.LVL38:
 500              		.loc 4 493 3 is_stmt 0 view .LVU149
 501              		.thumb
 502              		.syntax unified
 503              	.LBE1049:
 504              	.LBE1048:
 505              	.LBE1050:
 506              	.LBE1051:
 507              	.LBE1052:
 508              		.loc 1 401 5 is_stmt 1 view .LVU150
 509 0104 A0F1FF30 		sub	r0, r0, #-1
ARM GAS  /tmp/ccTMtxXw.s 			page 10


 510              	.LVL39:
 511              		.loc 1 401 5 is_stmt 0 view .LVU151
 512 0108 B0FA80F0 		clz	r0, r0
 513              	.LVL40:
 514              		.loc 1 401 5 view .LVU152
 515 010c 0449     		ldr	r1, .L13+8
 516 010e 4009     		lsrs	r0, r0, #5
 517 0110 FFF7FEFF 		bl	__test_assert
 518              	.LVL41:
 519              		.loc 1 401 5 is_stmt 1 view .LVU153
 520 0114 9DE7     		b	.L5
 521              	.L14:
 522 0116 00BF     		.align	2
 523              	.L13:
 524 0118 00000000 		.word	chtest
 525 011c 00000000 		.word	.LANCHOR0
 526 0120 00000000 		.word	.LC0
 527              		.cfi_endproc
 528              	.LFE412:
 529              		.size	oslib_test_002_003_execute, .-oslib_test_002_003_execute
 530              		.section	.text.oslib_test_002_001_setup,"ax",%progbits
 531              		.align	1
 532              		.p2align 4,,15
 533              		.syntax unified
 534              		.thumb
 535              		.thumb_func
 536              		.fpu softvfp
 537              		.type	oslib_test_002_001_setup, %function
 538              	oslib_test_002_001_setup:
 539              	.LFB404:
 540              		.loc 1 86 44 view -0
 541              		.cfi_startproc
 542              		@ args = 0, pretend = 0, frame = 0
 543              		@ frame_needed = 0, uses_anonymous_args = 0
 544              		@ link register save eliminated.
 545              		.loc 1 87 3 view .LVU155
 546 0000 0249     		ldr	r1, .L16
 547 0002 0348     		ldr	r0, .L16+4
 548 0004 0422     		movs	r2, #4
 549 0006 FFF7FEBF 		b	chMBObjectInit
 550              	.LVL42:
 551              	.L17:
 552 000a 00BF     		.align	2
 553              	.L16:
 554 000c 00000000 		.word	.LANCHOR1
 555 0010 00000000 		.word	.LANCHOR0
 556              		.cfi_endproc
 557              	.LFE404:
 558              		.size	oslib_test_002_001_setup, .-oslib_test_002_001_setup
 559              		.section	.rodata.oslib_test_002_002_execute.str1.4,"aMS",%progbits,1
 560              		.align	2
 561              	.LC1:
 562 0000 77726F6E 		.ascii	"wrong size\000"
 562      67207369 
 562      7A6500
 563 000b 00       		.align	2
 564              	.LC2:
ARM GAS  /tmp/ccTMtxXw.s 			page 11


 565 000c 6E6F7420 		.ascii	"not empty\000"
 565      656D7074 
 565      7900
 566 0016 0000     		.align	2
 567              	.LC3:
 568 0018 7374696C 		.ascii	"still full\000"
 568      6C206675 
 568      6C6C00
 569 0023 00       		.align	2
 570              	.LC4:
 571 0024 77726974 		.ascii	"write pointer not aligned to base\000"
 571      6520706F 
 571      696E7465 
 571      72206E6F 
 571      7420616C 
 572 0046 0000     		.align	2
 573              	.LC5:
 574 0048 72656164 		.ascii	"read pointer not aligned to base\000"
 574      20706F69 
 574      6E746572 
 574      206E6F74 
 574      20616C69 
 575 0069 000000   		.align	2
 576              	.LC6:
 577 006c 7374696C 		.ascii	"still empty\000"
 577      6C20656D 
 577      70747900 
 578              		.align	2
 579              	.LC7:
 580 0078 6E6F7420 		.ascii	"not full\000"
 580      66756C6C 
 580      00
 581 0081 000000   		.align	2
 582              	.LC8:
 583 0084 706F696E 		.ascii	"pointers not aligned\000"
 583      74657273 
 583      206E6F74 
 583      20616C69 
 583      676E6564 
 584 0099 000000   		.align	2
 585              	.LC9:
 586 009c 77726F6E 		.ascii	"wrong get sequence\000"
 586      67206765 
 586      74207365 
 586      7175656E 
 586      636500
 587 00af 00       		.align	2
 588              	.LC10:
 589 00b0 41424344 		.ascii	"ABCD\000"
 589      00
 590              		.section	.text.oslib_test_002_002_execute,"ax",%progbits
 591              		.align	1
 592              		.p2align 4,,15
 593              		.syntax unified
 594              		.thumb
 595              		.thumb_func
 596              		.fpu softvfp
ARM GAS  /tmp/ccTMtxXw.s 			page 12


 597              		.type	oslib_test_002_002_execute, %function
 598              	oslib_test_002_002_execute:
 599              	.LFB409:
 600              		.loc 1 229 46 view -0
 601              		.cfi_startproc
 602              		@ args = 0, pretend = 0, frame = 8
 603              		@ frame_needed = 0, uses_anonymous_args = 0
 604              		.loc 1 230 3 view .LVU157
 605              		.loc 1 231 3 view .LVU158
 606              		.loc 1 234 3 view .LVU159
 607              		.loc 1 229 46 is_stmt 0 view .LVU160
 608 0000 2DE9F043 		push	{r4, r5, r6, r7, r8, r9, lr}
 609              		.cfi_def_cfa_offset 28
 610              		.cfi_offset 4, -28
 611              		.cfi_offset 5, -24
 612              		.cfi_offset 6, -20
 613              		.cfi_offset 7, -16
 614              		.cfi_offset 8, -12
 615              		.cfi_offset 9, -8
 616              		.cfi_offset 14, -4
 617              		.loc 1 234 3 view .LVU161
 618 0004 AB4F     		ldr	r7, .L43
 619 0006 0123     		movs	r3, #1
 620              		.loc 1 229 46 view .LVU162
 621 0008 83B0     		sub	sp, sp, #12
 622              		.cfi_def_cfa_offset 40
 623              		.loc 1 234 3 view .LVU163
 624 000a 3B60     		str	r3, [r7]
 625              		.loc 1 236 5 is_stmt 1 view .LVU164
 626              	.LBB1310:
 627              	.LBI1310:
 628              		.file 6 "../ChibiOS/os/hal/osal/rt-nil/osal.h"
 629              		.loc 6 573 20 view .LVU165
 630              	.LBE1310:
 631              		.loc 6 575 3 view .LVU166
 632              	.LBB1318:
 633              	.LBB1311:
 634              	.LBI1311:
 635              		.loc 2 407 20 view .LVU167
 636              	.LBE1311:
 637              	.LBE1318:
 638              		.loc 2 409 3 view .LVU168
 639              	.LBB1319:
 640              	.LBB1316:
 641              	.LBB1312:
 642              	.LBI1312:
 643              		.loc 3 806 27 view .LVU169
 644              	.LBE1312:
 645              	.LBE1316:
 646              	.LBE1319:
 647              		.loc 3 814 3 view .LVU170
 648              	.LVL43:
 649              	.LBB1320:
 650              	.LBB1317:
 651              	.LBB1315:
 652              	.LBB1313:
 653              	.LBI1313:
ARM GAS  /tmp/ccTMtxXw.s 			page 13


 654              		.loc 4 491 27 view .LVU171
 655              	.LBB1314:
 656              		.loc 4 493 3 view .LVU172
 657 000c 3026     		movs	r6, #48
 658              		.syntax unified
 659              	@ 493 "../ChibiOS/os/common/ext/ARM/CMSIS/Core/Include/cmsis_gcc.h" 1
 660 000e 86F31188 		MSR basepri, r6
 661              	@ 0 "" 2
 662              	.LVL44:
 663              		.loc 4 493 3 is_stmt 0 view .LVU173
 664              		.thumb
 665              		.syntax unified
 666              	.LBE1314:
 667              	.LBE1313:
 668              	.LBE1315:
 669              	.LBE1317:
 670              	.LBE1320:
 671              		.loc 2 410 35 is_stmt 1 view .LVU174
 672              		.loc 2 411 21 view .LVU175
 673              		.loc 1 236 5 view .LVU176
 674              	.LBB1321:
 675              	.LBI1321:
 676              		.loc 5 167 22 view .LVU177
 677              	.LBB1322:
 678              		.loc 5 169 21 view .LVU178
 679              		.loc 5 171 3 view .LVU179
 680              	.LBB1323:
 681              	.LBI1323:
 682              		.loc 5 136 22 view .LVU180
 683              	.LBB1324:
 684              		.loc 5 140 3 view .LVU181
 685              		.loc 5 140 3 is_stmt 0 view .LVU182
 686              	.LBE1324:
 687              	.LBE1323:
 688              	.LBB1327:
 689              	.LBI1327:
 690              		.loc 5 152 22 is_stmt 1 view .LVU183
 691              	.LBB1328:
 692              		.loc 5 154 21 view .LVU184
 693              		.loc 5 156 3 view .LVU185
 694              		.loc 5 156 3 is_stmt 0 view .LVU186
 695              	.LBE1328:
 696              	.LBE1327:
 697              	.LBB1329:
 698              	.LBB1325:
 699              		.loc 5 140 22 view .LVU187
 700 0012 A94C     		ldr	r4, .L43+4
 701              	.LBE1325:
 702              	.LBE1329:
 703              	.LBE1322:
 704              	.LBE1321:
 705              		.loc 1 236 5 view .LVU188
 706 0014 A949     		ldr	r1, .L43+8
 707              	.LBB1332:
 708              	.LBB1331:
 709              	.LBB1330:
 710              	.LBB1326:
ARM GAS  /tmp/ccTMtxXw.s 			page 14


 711              		.loc 5 140 28 view .LVU189
 712 0016 D4E90030 		ldrd	r3, r0, [r4]
 713 001a C31A     		subs	r3, r0, r3
 714              	.LBE1326:
 715              	.LBE1330:
 716              		.loc 5 171 28 view .LVU190
 717 001c 2069     		ldr	r0, [r4, #16]
 718 001e C0EBA300 		rsb	r0, r0, r3, asr #2
 719              	.LBE1331:
 720              	.LBE1332:
 721              		.loc 1 236 5 view .LVU191
 722 0022 A0F10400 		sub	r0, #4
 723 0026 B0FA80F0 		clz	r0, r0
 724 002a 4009     		lsrs	r0, r0, #5
 725 002c FFF7FEFF 		bl	__test_assert
 726              	.LVL45:
 727 0030 28B1     		cbz	r0, .L19
 728              		.loc 1 236 5 is_stmt 1 view .LVU192
 729              	.LBB1333:
 730              	.LBI1333:
 731              		.loc 6 584 20 view .LVU193
 732              	.LBE1333:
 733              		.loc 6 586 3 view .LVU194
 734              	.LBB1342:
 735              	.LBB1334:
 736              	.LBI1334:
 737              		.loc 2 421 20 view .LVU195
 738              	.LBB1335:
 739              		.loc 2 423 23 view .LVU196
 740              		.loc 2 424 34 view .LVU197
 741              		.loc 2 430 3 view .LVU198
 742              		.loc 2 430 3 view .LVU199
 743              		.loc 2 430 3 view .LVU200
 744              		.loc 2 434 3 view .LVU201
 745              	.LBB1336:
 746              	.LBI1336:
 747              		.loc 3 830 27 view .LVU202
 748              	.LBE1336:
 749              	.LBE1335:
 750              	.LBE1334:
 751              	.LBE1342:
 752              		.loc 3 833 3 view .LVU203
 753              	.LVL46:
 754              	.LBB1343:
 755              	.LBB1341:
 756              	.LBB1340:
 757              	.LBB1339:
 758              	.LBB1337:
 759              	.LBI1337:
 760              		.loc 4 491 27 view .LVU204
 761              	.LBB1338:
 762              		.loc 4 493 3 view .LVU205
 763 0032 0023     		movs	r3, #0
 764              		.syntax unified
 765              	@ 493 "../ChibiOS/os/common/ext/ARM/CMSIS/Core/Include/cmsis_gcc.h" 1
 766 0034 83F31188 		MSR basepri, r3
 767              	@ 0 "" 2
ARM GAS  /tmp/ccTMtxXw.s 			page 15


 768              	.LVL47:
 769              		.loc 4 493 3 is_stmt 0 view .LVU206
 770              		.thumb
 771              		.syntax unified
 772              	.LBE1338:
 773              	.LBE1337:
 774              	.LBE1339:
 775              	.LBE1340:
 776              	.LBE1341:
 777              	.LBE1343:
 778              		.loc 1 236 5 is_stmt 1 view .LVU207
 779              	.L18:
 780              		.loc 1 318 1 is_stmt 0 view .LVU208
 781 0038 03B0     		add	sp, sp, #12
 782              		.cfi_remember_state
 783              		.cfi_def_cfa_offset 28
 784              		@ sp needed
 785 003a BDE8F083 		pop	{r4, r5, r6, r7, r8, r9, pc}
 786              	.L19:
 787              		.cfi_restore_state
 788              	.LBB1344:
 789              	.LBI1344:
 790              		.loc 1 229 13 is_stmt 1 view .LVU209
 791              	.LBB1345:
 792              		.loc 1 236 5 view .LVU210
 793              	.LBB1346:
 794              	.LBI1346:
 795              		.loc 6 584 20 view .LVU211
 796              	.LBE1346:
 797              	.LBE1345:
 798              	.LBE1344:
 799              		.loc 6 586 3 view .LVU212
 800              	.LBB1771:
 801              	.LBB1690:
 802              	.LBB1355:
 803              	.LBB1347:
 804              	.LBI1347:
 805              		.loc 2 421 20 view .LVU213
 806              	.LBB1348:
 807              		.loc 2 423 23 view .LVU214
 808              		.loc 2 424 34 view .LVU215
 809              		.loc 2 430 3 view .LVU216
 810              		.loc 2 430 3 view .LVU217
 811              		.loc 2 430 3 view .LVU218
 812              		.loc 2 434 3 view .LVU219
 813              	.LBB1349:
 814              	.LBI1349:
 815              		.loc 3 830 27 view .LVU220
 816              	.LBE1349:
 817              	.LBE1348:
 818              	.LBE1347:
 819              	.LBE1355:
 820              	.LBE1690:
 821              	.LBE1771:
 822              		.loc 3 833 3 view .LVU221
 823              	.LVL48:
 824              	.LBB1772:
ARM GAS  /tmp/ccTMtxXw.s 			page 16


 825              	.LBB1691:
 826              	.LBB1356:
 827              	.LBB1354:
 828              	.LBB1353:
 829              	.LBB1352:
 830              	.LBB1350:
 831              	.LBI1350:
 832              		.loc 4 491 27 view .LVU222
 833              	.LBB1351:
 834              		.loc 4 493 3 view .LVU223
 835 003e 0546     		mov	r5, r0
 836              		.syntax unified
 837              	@ 493 "../ChibiOS/os/common/ext/ARM/CMSIS/Core/Include/cmsis_gcc.h" 1
 838 0040 80F31188 		MSR basepri, r0
 839              	@ 0 "" 2
 840              	.LVL49:
 841              		.loc 4 493 3 is_stmt 0 view .LVU224
 842              		.thumb
 843              		.syntax unified
 844              	.LBE1351:
 845              	.LBE1350:
 846              	.LBE1352:
 847              	.LBE1353:
 848              	.LBE1354:
 849              	.LBE1356:
 850              		.loc 1 236 71 is_stmt 1 view .LVU225
 851              		.loc 1 238 3 view .LVU226
 852              		.loc 1 238 19 view .LVU227
 853              		.loc 1 242 3 view .LVU228
 854 0044 0223     		movs	r3, #2
 855 0046 3B60     		str	r3, [r7]
 856              		.loc 1 244 5 view .LVU229
 857              	.LBB1357:
 858              	.LBI1357:
 859              		.loc 2 407 20 view .LVU230
 860              	.LBE1357:
 861              	.LBE1691:
 862              	.LBE1772:
 863              		.loc 2 409 3 view .LVU231
 864              	.LBB1773:
 865              	.LBB1692:
 866              	.LBB1362:
 867              	.LBB1358:
 868              	.LBI1358:
 869              		.loc 3 806 27 view .LVU232
 870              	.LBE1358:
 871              	.LBE1362:
 872              	.LBE1692:
 873              	.LBE1773:
 874              		.loc 3 814 3 view .LVU233
 875              	.LVL50:
 876              	.LBB1774:
 877              	.LBB1693:
 878              	.LBB1363:
 879              	.LBB1361:
 880              	.LBB1359:
 881              	.LBI1359:
ARM GAS  /tmp/ccTMtxXw.s 			page 17


 882              		.loc 4 491 27 view .LVU234
 883              	.LBB1360:
 884              		.loc 4 493 3 view .LVU235
 885              		.syntax unified
 886              	@ 493 "../ChibiOS/os/common/ext/ARM/CMSIS/Core/Include/cmsis_gcc.h" 1
 887 0048 86F31188 		MSR basepri, r6
 888              	@ 0 "" 2
 889              	.LVL51:
 890              		.loc 4 493 3 is_stmt 0 view .LVU236
 891              		.thumb
 892              		.syntax unified
 893              	.LBE1360:
 894              	.LBE1359:
 895              	.LBE1361:
 896              	.LBE1363:
 897              	.LBE1693:
 898              	.LBE1774:
 899              		.loc 2 410 35 is_stmt 1 view .LVU237
 900              		.loc 2 411 21 view .LVU238
 901              	.LBB1775:
 902              	.LBB1694:
 903              		.loc 1 245 5 view .LVU239
 904 004c 2046     		mov	r0, r4
 905 004e FFF7FEFF 		bl	chMBResetI
 906              	.LVL52:
 907              		.loc 1 246 5 view .LVU240
 908              	.LBB1364:
 909              	.LBI1364:
 910              		.loc 2 421 20 view .LVU241
 911              	.LBB1365:
 912              		.loc 2 423 23 view .LVU242
 913              		.loc 2 424 34 view .LVU243
 914              		.loc 2 430 3 view .LVU244
 915              		.loc 2 430 3 view .LVU245
 916              		.loc 2 430 3 view .LVU246
 917              		.loc 2 434 3 view .LVU247
 918              	.LBB1366:
 919              	.LBI1366:
 920              		.loc 3 830 27 view .LVU248
 921              	.LBE1366:
 922              	.LBE1365:
 923              	.LBE1364:
 924              	.LBE1694:
 925              	.LBE1775:
 926              		.loc 3 833 3 view .LVU249
 927              	.LBB1776:
 928              	.LBB1695:
 929              	.LBB1371:
 930              	.LBB1370:
 931              	.LBB1369:
 932              	.LBB1367:
 933              	.LBI1367:
 934              		.loc 4 491 27 view .LVU250
 935              	.LBB1368:
 936              		.loc 4 493 3 view .LVU251
 937              		.syntax unified
 938              	@ 493 "../ChibiOS/os/common/ext/ARM/CMSIS/Core/Include/cmsis_gcc.h" 1
ARM GAS  /tmp/ccTMtxXw.s 			page 18


 939 0052 85F31188 		MSR basepri, r5
 940              	@ 0 "" 2
 941              	.LVL53:
 942              		.loc 4 493 3 is_stmt 0 view .LVU252
 943              		.thumb
 944              		.syntax unified
 945              	.LBE1368:
 946              	.LBE1367:
 947              	.LBE1369:
 948              	.LBE1370:
 949              	.LBE1371:
 950              		.loc 1 247 5 is_stmt 1 view .LVU253
 951              	.LBB1372:
 952              	.LBI1372:
 953              		.loc 6 573 20 view .LVU254
 954              	.LBE1372:
 955              	.LBE1695:
 956              	.LBE1776:
 957              		.loc 6 575 3 view .LVU255
 958              	.LBB1777:
 959              	.LBB1696:
 960              	.LBB1380:
 961              	.LBB1373:
 962              	.LBI1373:
 963              		.loc 2 407 20 view .LVU256
 964              	.LBE1373:
 965              	.LBE1380:
 966              	.LBE1696:
 967              	.LBE1777:
 968              		.loc 2 409 3 view .LVU257
 969              	.LBB1778:
 970              	.LBB1697:
 971              	.LBB1381:
 972              	.LBB1378:
 973              	.LBB1374:
 974              	.LBI1374:
 975              		.loc 3 806 27 view .LVU258
 976              	.LBE1374:
 977              	.LBE1378:
 978              	.LBE1381:
 979              	.LBE1697:
 980              	.LBE1778:
 981              		.loc 3 814 3 view .LVU259
 982              	.LBB1779:
 983              	.LBB1698:
 984              	.LBB1382:
 985              	.LBB1379:
 986              	.LBB1377:
 987              	.LBB1375:
 988              	.LBI1375:
 989              		.loc 4 491 27 view .LVU260
 990              	.LBB1376:
 991              		.loc 4 493 3 view .LVU261
 992              		.syntax unified
 993              	@ 493 "../ChibiOS/os/common/ext/ARM/CMSIS/Core/Include/cmsis_gcc.h" 1
 994 0056 86F31188 		MSR basepri, r6
 995              	@ 0 "" 2
ARM GAS  /tmp/ccTMtxXw.s 			page 19


 996              	.LVL54:
 997              		.loc 4 493 3 is_stmt 0 view .LVU262
 998              		.thumb
 999              		.syntax unified
 1000              	.LBE1376:
 1001              	.LBE1375:
 1002              	.LBE1377:
 1003              	.LBE1379:
 1004              	.LBE1382:
 1005              	.LBE1698:
 1006              	.LBE1779:
 1007              		.loc 2 410 35 is_stmt 1 view .LVU263
 1008              		.loc 2 411 21 view .LVU264
 1009              	.LBB1780:
 1010              	.LBB1699:
 1011              		.loc 1 247 5 view .LVU265
 1012              	.LBB1383:
 1013              	.LBI1383:
 1014              		.loc 5 167 22 view .LVU266
 1015              	.LBB1384:
 1016              		.loc 5 169 21 view .LVU267
 1017              		.loc 5 171 3 view .LVU268
 1018              	.LBB1385:
 1019              	.LBI1385:
 1020              		.loc 5 136 22 view .LVU269
 1021              	.LBB1386:
 1022              		.loc 5 140 3 view .LVU270
 1023              		.loc 5 140 3 is_stmt 0 view .LVU271
 1024              	.LBE1386:
 1025              	.LBE1385:
 1026              	.LBB1388:
 1027              	.LBI1388:
 1028              		.loc 5 152 22 is_stmt 1 view .LVU272
 1029              	.LBB1389:
 1030              		.loc 5 154 21 view .LVU273
 1031              		.loc 5 156 3 view .LVU274
 1032              		.loc 5 156 3 is_stmt 0 view .LVU275
 1033              	.LBE1389:
 1034              	.LBE1388:
 1035              	.LBB1390:
 1036              	.LBB1387:
 1037              		.loc 5 140 28 view .LVU276
 1038 005a D4E90030 		ldrd	r3, r0, [r4]
 1039 005e C31A     		subs	r3, r0, r3
 1040              	.LBE1387:
 1041              	.LBE1390:
 1042              		.loc 5 171 28 view .LVU277
 1043 0060 2069     		ldr	r0, [r4, #16]
 1044              	.LBE1384:
 1045              	.LBE1383:
 1046              		.loc 1 247 5 view .LVU278
 1047 0062 9749     		ldr	r1, .L43+12
 1048              	.LBB1392:
 1049              	.LBB1391:
 1050              		.loc 5 171 28 view .LVU279
 1051 0064 C0EBA300 		rsb	r0, r0, r3, asr #2
 1052              	.LBE1391:
ARM GAS  /tmp/ccTMtxXw.s 			page 20


 1053              	.LBE1392:
 1054              		.loc 1 247 5 view .LVU280
 1055 0068 A0F10400 		sub	r0, #4
 1056 006c B0FA80F0 		clz	r0, r0
 1057 0070 4009     		lsrs	r0, r0, #5
 1058 0072 FFF7FEFF 		bl	__test_assert
 1059              	.LVL55:
 1060 0076 8046     		mov	r8, r0
 1061 0078 88B9     		cbnz	r0, .L41
 1062              		.loc 1 247 5 is_stmt 1 view .LVU281
 1063              	.LBB1393:
 1064              	.LBI1393:
 1065              		.loc 6 584 20 view .LVU282
 1066              	.LBE1393:
 1067              	.LBE1699:
 1068              	.LBE1780:
 1069              		.loc 6 586 3 view .LVU283
 1070              	.LBB1781:
 1071              	.LBB1700:
 1072              	.LBB1402:
 1073              	.LBB1394:
 1074              	.LBI1394:
 1075              		.loc 2 421 20 view .LVU284
 1076              	.LBB1395:
 1077              		.loc 2 423 23 view .LVU285
 1078              		.loc 2 424 34 view .LVU286
 1079              		.loc 2 430 3 view .LVU287
 1080              		.loc 2 430 3 view .LVU288
 1081              		.loc 2 430 3 view .LVU289
 1082              		.loc 2 434 3 view .LVU290
 1083              	.LBB1396:
 1084              	.LBI1396:
 1085              		.loc 3 830 27 view .LVU291
 1086              	.LBE1396:
 1087              	.LBE1395:
 1088              	.LBE1394:
 1089              	.LBE1402:
 1090              	.LBE1700:
 1091              	.LBE1781:
 1092              		.loc 3 833 3 view .LVU292
 1093              	.LVL56:
 1094              	.LBB1782:
 1095              	.LBB1701:
 1096              	.LBB1403:
 1097              	.LBB1401:
 1098              	.LBB1400:
 1099              	.LBB1399:
 1100              	.LBB1397:
 1101              	.LBI1397:
 1102              		.loc 4 491 27 view .LVU293
 1103              	.LBB1398:
 1104              		.loc 4 493 3 view .LVU294
 1105              		.syntax unified
 1106              	@ 493 "../ChibiOS/os/common/ext/ARM/CMSIS/Core/Include/cmsis_gcc.h" 1
 1107 007a 80F31188 		MSR basepri, r0
 1108              	@ 0 "" 2
 1109              	.LVL57:
ARM GAS  /tmp/ccTMtxXw.s 			page 21


 1110              		.loc 4 493 3 is_stmt 0 view .LVU295
 1111              		.thumb
 1112              		.syntax unified
 1113              	.LBE1398:
 1114              	.LBE1397:
 1115              	.LBE1399:
 1116              	.LBE1400:
 1117              	.LBE1401:
 1118              	.LBE1403:
 1119              		.loc 1 247 70 is_stmt 1 view .LVU296
 1120              		.loc 1 248 5 view .LVU297
 1121              	.LBB1404:
 1122              	.LBI1404:
 1123              		.loc 6 573 20 view .LVU298
 1124              	.LBE1404:
 1125              	.LBE1701:
 1126              	.LBE1782:
 1127              		.loc 6 575 3 view .LVU299
 1128              	.LBB1783:
 1129              	.LBB1702:
 1130              	.LBB1412:
 1131              	.LBB1405:
 1132              	.LBI1405:
 1133              		.loc 2 407 20 view .LVU300
 1134              	.LBE1405:
 1135              	.LBE1412:
 1136              	.LBE1702:
 1137              	.LBE1783:
 1138              		.loc 2 409 3 view .LVU301
 1139              	.LBB1784:
 1140              	.LBB1703:
 1141              	.LBB1413:
 1142              	.LBB1410:
 1143              	.LBB1406:
 1144              	.LBI1406:
 1145              		.loc 3 806 27 view .LVU302
 1146              	.LBE1406:
 1147              	.LBE1410:
 1148              	.LBE1413:
 1149              	.LBE1703:
 1150              	.LBE1784:
 1151              		.loc 3 814 3 view .LVU303
 1152              	.LBB1785:
 1153              	.LBB1704:
 1154              	.LBB1414:
 1155              	.LBB1411:
 1156              	.LBB1409:
 1157              	.LBB1407:
 1158              	.LBI1407:
 1159              		.loc 4 491 27 view .LVU304
 1160              	.LBB1408:
 1161              		.loc 4 493 3 view .LVU305
 1162              		.syntax unified
 1163              	@ 493 "../ChibiOS/os/common/ext/ARM/CMSIS/Core/Include/cmsis_gcc.h" 1
 1164 007e 86F31188 		MSR basepri, r6
 1165              	@ 0 "" 2
 1166              	.LVL58:
ARM GAS  /tmp/ccTMtxXw.s 			page 22


 1167              		.loc 4 493 3 is_stmt 0 view .LVU306
 1168              		.thumb
 1169              		.syntax unified
 1170              	.LBE1408:
 1171              	.LBE1407:
 1172              	.LBE1409:
 1173              	.LBE1411:
 1174              	.LBE1414:
 1175              	.LBE1704:
 1176              	.LBE1785:
 1177              		.loc 2 410 35 is_stmt 1 view .LVU307
 1178              		.loc 2 411 21 view .LVU308
 1179              	.LBB1786:
 1180              	.LBB1705:
 1181              		.loc 1 248 5 view .LVU309
 1182              	.LBB1415:
 1183              	.LBI1415:
 1184              		.loc 5 152 22 view .LVU310
 1185              	.LBB1416:
 1186              		.loc 5 154 21 view .LVU311
 1187              		.loc 5 156 3 view .LVU312
 1188              		.loc 5 156 3 is_stmt 0 view .LVU313
 1189              	.LBE1416:
 1190              	.LBE1415:
 1191              		.loc 1 248 5 view .LVU314
 1192 0082 2069     		ldr	r0, [r4, #16]
 1193 0084 8F49     		ldr	r1, .L43+16
 1194 0086 B0FA80F0 		clz	r0, r0
 1195 008a 4009     		lsrs	r0, r0, #5
 1196 008c FFF7FEFF 		bl	__test_assert
 1197              	.LVL59:
 1198 0090 0546     		mov	r5, r0
 1199 0092 48B1     		cbz	r0, .L23
 1200              	.L42:
 1201              		.loc 1 277 5 is_stmt 1 view .LVU315
 1202              	.LBB1417:
 1203              	.LBI1417:
 1204              		.loc 6 584 20 view .LVU316
 1205              	.LBE1417:
 1206              	.LBE1705:
 1207              	.LBE1786:
 1208              		.loc 6 586 3 view .LVU317
 1209              	.LBB1787:
 1210              	.LBB1706:
 1211              	.LBB1426:
 1212              	.LBB1418:
 1213              	.LBI1418:
 1214              		.loc 2 421 20 view .LVU318
 1215              	.LBB1419:
 1216              		.loc 2 423 23 view .LVU319
 1217              		.loc 2 424 34 view .LVU320
 1218              		.loc 2 430 3 view .LVU321
 1219              		.loc 2 430 3 view .LVU322
 1220              		.loc 2 430 3 view .LVU323
 1221              		.loc 2 434 3 view .LVU324
 1222              	.LBB1420:
 1223              	.LBI1420:
ARM GAS  /tmp/ccTMtxXw.s 			page 23


 1224              		.loc 3 830 27 view .LVU325
 1225              	.LBE1420:
 1226              	.LBE1419:
 1227              	.LBE1418:
 1228              	.LBE1426:
 1229              	.LBE1706:
 1230              	.LBE1787:
 1231              		.loc 3 833 3 view .LVU326
 1232              	.LVL60:
 1233              	.LBB1788:
 1234              	.LBB1707:
 1235              	.LBB1427:
 1236              	.LBB1425:
 1237              	.LBB1424:
 1238              	.LBB1423:
 1239              	.LBB1421:
 1240              	.LBI1421:
 1241              		.loc 4 491 27 view .LVU327
 1242              	.LBB1422:
 1243              		.loc 4 493 3 view .LVU328
 1244              		.syntax unified
 1245              	@ 493 "../ChibiOS/os/common/ext/ARM/CMSIS/Core/Include/cmsis_gcc.h" 1
 1246 0094 88F31188 		MSR basepri, r8
 1247              	@ 0 "" 2
 1248              	.LVL61:
 1249              		.loc 4 493 3 is_stmt 0 view .LVU329
 1250              		.thumb
 1251              		.syntax unified
 1252              	.LBE1422:
 1253              	.LBE1421:
 1254              	.LBE1423:
 1255              	.LBE1424:
 1256              	.LBE1425:
 1257              	.LBE1427:
 1258              		.loc 1 277 5 is_stmt 1 view .LVU330
 1259              	.LBE1707:
 1260              	.LBE1788:
 1261              		.loc 1 318 1 is_stmt 0 view .LVU331
 1262 0098 03B0     		add	sp, sp, #12
 1263              		.cfi_remember_state
 1264              		.cfi_def_cfa_offset 28
 1265              		@ sp needed
 1266 009a BDE8F083 		pop	{r4, r5, r6, r7, r8, r9, pc}
 1267              	.L41:
 1268              		.cfi_restore_state
 1269              	.LBB1789:
 1270              	.LBB1708:
 1271              		.loc 1 278 5 is_stmt 1 view .LVU332
 1272              	.LBB1428:
 1273              	.LBI1428:
 1274              		.loc 6 584 20 view .LVU333
 1275              	.LBE1428:
 1276              	.LBE1708:
 1277              	.LBE1789:
 1278              		.loc 6 586 3 view .LVU334
 1279              	.LBB1790:
 1280              	.LBB1709:
ARM GAS  /tmp/ccTMtxXw.s 			page 24


 1281              	.LBB1437:
 1282              	.LBB1429:
 1283              	.LBI1429:
 1284              		.loc 2 421 20 view .LVU335
 1285              	.LBB1430:
 1286              		.loc 2 423 23 view .LVU336
 1287              		.loc 2 424 34 view .LVU337
 1288              		.loc 2 430 3 view .LVU338
 1289              		.loc 2 430 3 view .LVU339
 1290              		.loc 2 430 3 view .LVU340
 1291              		.loc 2 434 3 view .LVU341
 1292              	.LBB1431:
 1293              	.LBI1431:
 1294              		.loc 3 830 27 view .LVU342
 1295              	.LBE1431:
 1296              	.LBE1430:
 1297              	.LBE1429:
 1298              	.LBE1437:
 1299              	.LBE1709:
 1300              	.LBE1790:
 1301              		.loc 3 833 3 view .LVU343
 1302              	.LVL62:
 1303              	.LBB1791:
 1304              	.LBB1710:
 1305              	.LBB1438:
 1306              	.LBB1436:
 1307              	.LBB1435:
 1308              	.LBB1434:
 1309              	.LBB1432:
 1310              	.LBI1432:
 1311              		.loc 4 491 27 view .LVU344
 1312              	.LBB1433:
 1313              		.loc 4 493 3 view .LVU345
 1314              		.syntax unified
 1315              	@ 493 "../ChibiOS/os/common/ext/ARM/CMSIS/Core/Include/cmsis_gcc.h" 1
 1316 009e 85F31188 		MSR basepri, r5
 1317              	@ 0 "" 2
 1318              	.LVL63:
 1319              		.loc 4 493 3 is_stmt 0 view .LVU346
 1320              		.thumb
 1321              		.syntax unified
 1322              	.LBE1433:
 1323              	.LBE1432:
 1324              	.LBE1434:
 1325              	.LBE1435:
 1326              	.LBE1436:
 1327              	.LBE1438:
 1328              		.loc 1 278 5 is_stmt 1 view .LVU347
 1329              	.LBE1710:
 1330              	.LBE1791:
 1331              		.loc 1 318 1 is_stmt 0 view .LVU348
 1332 00a2 03B0     		add	sp, sp, #12
 1333              		.cfi_remember_state
 1334              		.cfi_def_cfa_offset 28
 1335              		@ sp needed
 1336 00a4 BDE8F083 		pop	{r4, r5, r6, r7, r8, r9, pc}
 1337              	.L23:
ARM GAS  /tmp/ccTMtxXw.s 			page 25


 1338              		.cfi_restore_state
 1339              	.LBB1792:
 1340              	.LBB1711:
 1341              		.loc 1 248 5 is_stmt 1 view .LVU349
 1342              	.LBB1439:
 1343              	.LBI1439:
 1344              		.loc 6 584 20 view .LVU350
 1345              	.LBE1439:
 1346              	.LBE1711:
 1347              	.LBE1792:
 1348              		.loc 6 586 3 view .LVU351
 1349              	.LBB1793:
 1350              	.LBB1712:
 1351              	.LBB1448:
 1352              	.LBB1440:
 1353              	.LBI1440:
 1354              		.loc 2 421 20 view .LVU352
 1355              	.LBB1441:
 1356              		.loc 2 423 23 view .LVU353
 1357              		.loc 2 424 34 view .LVU354
 1358              		.loc 2 430 3 view .LVU355
 1359              		.loc 2 430 3 view .LVU356
 1360              		.loc 2 430 3 view .LVU357
 1361              		.loc 2 434 3 view .LVU358
 1362              	.LBB1442:
 1363              	.LBI1442:
 1364              		.loc 3 830 27 view .LVU359
 1365              	.LBE1442:
 1366              	.LBE1441:
 1367              	.LBE1440:
 1368              	.LBE1448:
 1369              	.LBE1712:
 1370              	.LBE1793:
 1371              		.loc 3 833 3 view .LVU360
 1372              	.LVL64:
 1373              	.LBB1794:
 1374              	.LBB1713:
 1375              	.LBB1449:
 1376              	.LBB1447:
 1377              	.LBB1446:
 1378              	.LBB1445:
 1379              	.LBB1443:
 1380              	.LBI1443:
 1381              		.loc 4 491 27 view .LVU361
 1382              	.LBB1444:
 1383              		.loc 4 493 3 view .LVU362
 1384              		.syntax unified
 1385              	@ 493 "../ChibiOS/os/common/ext/ARM/CMSIS/Core/Include/cmsis_gcc.h" 1
 1386 00a8 80F31188 		MSR basepri, r0
 1387              	@ 0 "" 2
 1388              	.LVL65:
 1389              		.loc 4 493 3 is_stmt 0 view .LVU363
 1390              		.thumb
 1391              		.syntax unified
 1392              	.LBE1444:
 1393              	.LBE1443:
 1394              	.LBE1445:
ARM GAS  /tmp/ccTMtxXw.s 			page 26


 1395              	.LBE1446:
 1396              	.LBE1447:
 1397              	.LBE1449:
 1398              		.loc 1 248 65 is_stmt 1 view .LVU364
 1399              		.loc 1 249 5 view .LVU365
 1400              	.LBB1450:
 1401              	.LBI1450:
 1402              		.loc 6 573 20 view .LVU366
 1403              	.LBE1450:
 1404              	.LBE1713:
 1405              	.LBE1794:
 1406              		.loc 6 575 3 view .LVU367
 1407              	.LBB1795:
 1408              	.LBB1714:
 1409              	.LBB1458:
 1410              	.LBB1451:
 1411              	.LBI1451:
 1412              		.loc 2 407 20 view .LVU368
 1413              	.LBE1451:
 1414              	.LBE1458:
 1415              	.LBE1714:
 1416              	.LBE1795:
 1417              		.loc 2 409 3 view .LVU369
 1418              	.LBB1796:
 1419              	.LBB1715:
 1420              	.LBB1459:
 1421              	.LBB1456:
 1422              	.LBB1452:
 1423              	.LBI1452:
 1424              		.loc 3 806 27 view .LVU370
 1425              	.LBE1452:
 1426              	.LBE1456:
 1427              	.LBE1459:
 1428              	.LBE1715:
 1429              	.LBE1796:
 1430              		.loc 3 814 3 view .LVU371
 1431              	.LBB1797:
 1432              	.LBB1716:
 1433              	.LBB1460:
 1434              	.LBB1457:
 1435              	.LBB1455:
 1436              	.LBB1453:
 1437              	.LBI1453:
 1438              		.loc 4 491 27 view .LVU372
 1439              	.LBB1454:
 1440              		.loc 4 493 3 view .LVU373
 1441              		.syntax unified
 1442              	@ 493 "../ChibiOS/os/common/ext/ARM/CMSIS/Core/Include/cmsis_gcc.h" 1
 1443 00ac 86F31188 		MSR basepri, r6
 1444              	@ 0 "" 2
 1445              	.LVL66:
 1446              		.loc 4 493 3 is_stmt 0 view .LVU374
 1447              		.thumb
 1448              		.syntax unified
 1449              	.LBE1454:
 1450              	.LBE1453:
 1451              	.LBE1455:
ARM GAS  /tmp/ccTMtxXw.s 			page 27


 1452              	.LBE1457:
 1453              	.LBE1460:
 1454              	.LBE1716:
 1455              	.LBE1797:
 1456              		.loc 2 410 35 is_stmt 1 view .LVU375
 1457              		.loc 2 411 21 view .LVU376
 1458              	.LBB1798:
 1459              	.LBB1717:
 1460              		.loc 1 249 5 view .LVU377
 1461 00b0 2068     		ldr	r0, [r4]
 1462 00b2 A368     		ldr	r3, [r4, #8]
 1463 00b4 8449     		ldr	r1, .L43+20
 1464 00b6 C01A     		subs	r0, r0, r3
 1465 00b8 B0FA80F0 		clz	r0, r0
 1466 00bc 4009     		lsrs	r0, r0, #5
 1467 00be FFF7FEFF 		bl	__test_assert
 1468              	.LVL67:
 1469 00c2 8046     		mov	r8, r0
 1470 00c4 0028     		cmp	r0, #0
 1471 00c6 EAD1     		bne	.L41
 1472              		.loc 1 249 5 view .LVU378
 1473              	.LBB1461:
 1474              	.LBI1461:
 1475              		.loc 6 584 20 view .LVU379
 1476              	.LBE1461:
 1477              	.LBE1717:
 1478              	.LBE1798:
 1479              		.loc 6 586 3 view .LVU380
 1480              	.LBB1799:
 1481              	.LBB1718:
 1482              	.LBB1470:
 1483              	.LBB1462:
 1484              	.LBI1462:
 1485              		.loc 2 421 20 view .LVU381
 1486              	.LBB1463:
 1487              		.loc 2 423 23 view .LVU382
 1488              		.loc 2 424 34 view .LVU383
 1489              		.loc 2 430 3 view .LVU384
 1490              		.loc 2 430 3 view .LVU385
 1491              		.loc 2 430 3 view .LVU386
 1492              		.loc 2 434 3 view .LVU387
 1493              	.LBB1464:
 1494              	.LBI1464:
 1495              		.loc 3 830 27 view .LVU388
 1496              	.LBE1464:
 1497              	.LBE1463:
 1498              	.LBE1462:
 1499              	.LBE1470:
 1500              	.LBE1718:
 1501              	.LBE1799:
 1502              		.loc 3 833 3 view .LVU389
 1503              	.LVL68:
 1504              	.LBB1800:
 1505              	.LBB1719:
 1506              	.LBB1471:
 1507              	.LBB1469:
 1508              	.LBB1468:
ARM GAS  /tmp/ccTMtxXw.s 			page 28


 1509              	.LBB1467:
 1510              	.LBB1465:
 1511              	.LBI1465:
 1512              		.loc 4 491 27 view .LVU390
 1513              	.LBB1466:
 1514              		.loc 4 493 3 view .LVU391
 1515              		.syntax unified
 1516              	@ 493 "../ChibiOS/os/common/ext/ARM/CMSIS/Core/Include/cmsis_gcc.h" 1
 1517 00c8 80F31188 		MSR basepri, r0
 1518              	@ 0 "" 2
 1519              	.LVL69:
 1520              		.loc 4 493 3 is_stmt 0 view .LVU392
 1521              		.thumb
 1522              		.syntax unified
 1523              	.LBE1466:
 1524              	.LBE1465:
 1525              	.LBE1467:
 1526              	.LBE1468:
 1527              	.LBE1469:
 1528              	.LBE1471:
 1529              		.loc 1 249 83 is_stmt 1 view .LVU393
 1530              		.loc 1 250 5 view .LVU394
 1531              	.LBB1472:
 1532              	.LBI1472:
 1533              		.loc 6 573 20 view .LVU395
 1534              	.LBE1472:
 1535              	.LBE1719:
 1536              	.LBE1800:
 1537              		.loc 6 575 3 view .LVU396
 1538              	.LBB1801:
 1539              	.LBB1720:
 1540              	.LBB1480:
 1541              	.LBB1473:
 1542              	.LBI1473:
 1543              		.loc 2 407 20 view .LVU397
 1544              	.LBE1473:
 1545              	.LBE1480:
 1546              	.LBE1720:
 1547              	.LBE1801:
 1548              		.loc 2 409 3 view .LVU398
 1549              	.LBB1802:
 1550              	.LBB1721:
 1551              	.LBB1481:
 1552              	.LBB1478:
 1553              	.LBB1474:
 1554              	.LBI1474:
 1555              		.loc 3 806 27 view .LVU399
 1556              	.LBE1474:
 1557              	.LBE1478:
 1558              	.LBE1481:
 1559              	.LBE1721:
 1560              	.LBE1802:
 1561              		.loc 3 814 3 view .LVU400
 1562              	.LBB1803:
 1563              	.LBB1722:
 1564              	.LBB1482:
 1565              	.LBB1479:
ARM GAS  /tmp/ccTMtxXw.s 			page 29


 1566              	.LBB1477:
 1567              	.LBB1475:
 1568              	.LBI1475:
 1569              		.loc 4 491 27 view .LVU401
 1570              	.LBB1476:
 1571              		.loc 4 493 3 view .LVU402
 1572              		.syntax unified
 1573              	@ 493 "../ChibiOS/os/common/ext/ARM/CMSIS/Core/Include/cmsis_gcc.h" 1
 1574 00cc 86F31188 		MSR basepri, r6
 1575              	@ 0 "" 2
 1576              	.LVL70:
 1577              		.loc 4 493 3 is_stmt 0 view .LVU403
 1578              		.thumb
 1579              		.syntax unified
 1580              	.LBE1476:
 1581              	.LBE1475:
 1582              	.LBE1477:
 1583              	.LBE1479:
 1584              	.LBE1482:
 1585              	.LBE1722:
 1586              	.LBE1803:
 1587              		.loc 2 410 35 is_stmt 1 view .LVU404
 1588              		.loc 2 411 21 view .LVU405
 1589              	.LBB1804:
 1590              	.LBB1723:
 1591              		.loc 1 250 5 view .LVU406
 1592 00d0 2068     		ldr	r0, [r4]
 1593 00d2 E368     		ldr	r3, [r4, #12]
 1594 00d4 7D49     		ldr	r1, .L43+24
 1595 00d6 C01A     		subs	r0, r0, r3
 1596 00d8 B0FA80F0 		clz	r0, r0
 1597 00dc 4009     		lsrs	r0, r0, #5
 1598 00de FFF7FEFF 		bl	__test_assert
 1599              	.LVL71:
 1600 00e2 0028     		cmp	r0, #0
 1601 00e4 D6D1     		bne	.L42
 1602              		.loc 1 250 5 view .LVU407
 1603              	.LBB1483:
 1604              	.LBI1483:
 1605              		.loc 6 584 20 view .LVU408
 1606              	.LBE1483:
 1607              	.LBE1723:
 1608              	.LBE1804:
 1609              		.loc 6 586 3 view .LVU409
 1610              	.LBB1805:
 1611              	.LBB1724:
 1612              	.LBB1492:
 1613              	.LBB1484:
 1614              	.LBI1484:
 1615              		.loc 2 421 20 view .LVU410
 1616              	.LBB1485:
 1617              		.loc 2 423 23 view .LVU411
 1618              		.loc 2 424 34 view .LVU412
 1619              		.loc 2 430 3 view .LVU413
 1620              		.loc 2 430 3 view .LVU414
 1621              		.loc 2 430 3 view .LVU415
 1622              		.loc 2 434 3 view .LVU416
ARM GAS  /tmp/ccTMtxXw.s 			page 30


 1623              	.LBB1486:
 1624              	.LBI1486:
 1625              		.loc 3 830 27 view .LVU417
 1626              	.LBE1486:
 1627              	.LBE1485:
 1628              	.LBE1484:
 1629              	.LBE1492:
 1630              	.LBE1724:
 1631              	.LBE1805:
 1632              		.loc 3 833 3 view .LVU418
 1633              	.LVL72:
 1634              	.LBB1806:
 1635              	.LBB1725:
 1636              	.LBB1493:
 1637              	.LBB1491:
 1638              	.LBB1490:
 1639              	.LBB1489:
 1640              	.LBB1487:
 1641              	.LBI1487:
 1642              		.loc 4 491 27 view .LVU419
 1643              	.LBB1488:
 1644              		.loc 4 493 3 view .LVU420
 1645              		.syntax unified
 1646              	@ 493 "../ChibiOS/os/common/ext/ARM/CMSIS/Core/Include/cmsis_gcc.h" 1
 1647 00e6 80F31188 		MSR basepri, r0
 1648              	@ 0 "" 2
 1649              	.LVL73:
 1650              		.loc 4 493 3 is_stmt 0 view .LVU421
 1651              		.thumb
 1652              		.syntax unified
 1653              	.LBE1488:
 1654              	.LBE1487:
 1655              	.LBE1489:
 1656              	.LBE1490:
 1657              	.LBE1491:
 1658              	.LBE1493:
 1659              		.loc 1 250 82 is_stmt 1 view .LVU422
 1660              		.loc 1 251 5 view .LVU423
 1661              	.LBB1494:
 1662              	.LBI1494:
 1663              		.loc 5 200 20 view .LVU424
 1664              	.LBB1495:
 1665              		.loc 5 202 3 view .LVU425
 1666              	.LBE1495:
 1667              	.LBE1494:
 1668              		.loc 1 257 3 is_stmt 0 view .LVU426
 1669 00ea 0323     		movs	r3, #3
 1670              		.loc 1 263 7 view .LVU427
 1671 00ec DFF8E091 		ldr	r9, .L43+28
 1672              	.LBB1497:
 1673              	.LBB1496:
 1674              		.loc 5 202 14 view .LVU428
 1675 00f0 2075     		strb	r0, [r4, #20]
 1676              	.LVL74:
 1677              		.loc 5 202 14 view .LVU429
 1678              	.LBE1496:
 1679              	.LBE1497:
ARM GAS  /tmp/ccTMtxXw.s 			page 31


 1680              		.loc 1 253 3 is_stmt 1 view .LVU430
 1681              		.loc 1 253 19 view .LVU431
 1682              		.loc 1 257 3 view .LVU432
 1683 00f2 3B60     		str	r3, [r7]
 1684              		.loc 1 259 5 view .LVU433
 1685              	.LVL75:
 1686              		.loc 1 259 17 view .LVU434
 1687              		.loc 1 257 3 is_stmt 0 view .LVU435
 1688 00f4 4FF04208 		mov	r8, #66
 1689              	.LVL76:
 1690              	.L27:
 1691              		.loc 1 260 7 is_stmt 1 view .LVU436
 1692              	.LBB1498:
 1693              	.LBI1498:
 1694              		.loc 2 407 20 view .LVU437
 1695              	.LBE1498:
 1696              	.LBE1725:
 1697              	.LBE1806:
 1698              		.loc 2 409 3 view .LVU438
 1699              	.LBB1807:
 1700              	.LBB1726:
 1701              	.LBB1503:
 1702              	.LBB1499:
 1703              	.LBI1499:
 1704              		.loc 3 806 27 view .LVU439
 1705              	.LBE1499:
 1706              	.LBE1503:
 1707              	.LBE1726:
 1708              	.LBE1807:
 1709              		.loc 3 814 3 view .LVU440
 1710              	.LBB1808:
 1711              	.LBB1727:
 1712              	.LBB1504:
 1713              	.LBB1502:
 1714              	.LBB1500:
 1715              	.LBI1500:
 1716              		.loc 4 491 27 view .LVU441
 1717              	.LBB1501:
 1718              		.loc 4 493 3 view .LVU442
 1719              		.syntax unified
 1720              	@ 493 "../ChibiOS/os/common/ext/ARM/CMSIS/Core/Include/cmsis_gcc.h" 1
 1721 00f8 86F31188 		MSR basepri, r6
 1722              	@ 0 "" 2
 1723              	.LVL77:
 1724              		.loc 4 493 3 is_stmt 0 view .LVU443
 1725              		.thumb
 1726              		.syntax unified
 1727              	.LBE1501:
 1728              	.LBE1500:
 1729              	.LBE1502:
 1730              	.LBE1504:
 1731              	.LBE1727:
 1732              	.LBE1808:
 1733              		.loc 2 410 35 is_stmt 1 view .LVU444
 1734              		.loc 2 411 21 view .LVU445
 1735              	.LBB1809:
 1736              	.LBB1728:
ARM GAS  /tmp/ccTMtxXw.s 			page 32


 1737              		.loc 1 261 7 view .LVU446
 1738              		.loc 1 261 14 is_stmt 0 view .LVU447
 1739 00fc 4146     		mov	r1, r8
 1740 00fe 2046     		mov	r0, r4
 1741 0100 FFF7FEFF 		bl	chMBPostI
 1742              	.LVL78:
 1743              		.loc 1 262 7 is_stmt 1 view .LVU448
 1744              	.LBB1505:
 1745              	.LBI1505:
 1746              		.loc 2 421 20 view .LVU449
 1747              	.LBB1506:
 1748              		.loc 2 423 23 view .LVU450
 1749              		.loc 2 424 34 view .LVU451
 1750              		.loc 2 430 3 view .LVU452
 1751              		.loc 2 430 3 view .LVU453
 1752              		.loc 2 430 3 view .LVU454
 1753              		.loc 2 434 3 view .LVU455
 1754              	.LBB1507:
 1755              	.LBI1507:
 1756              		.loc 3 830 27 view .LVU456
 1757              	.LBE1507:
 1758              	.LBE1506:
 1759              	.LBE1505:
 1760              	.LBE1728:
 1761              	.LBE1809:
 1762              		.loc 3 833 3 view .LVU457
 1763              	.LBB1810:
 1764              	.LBB1729:
 1765              	.LBB1512:
 1766              	.LBB1511:
 1767              	.LBB1510:
 1768              	.LBB1508:
 1769              	.LBI1508:
 1770              		.loc 4 491 27 view .LVU458
 1771              	.LBB1509:
 1772              		.loc 4 493 3 view .LVU459
 1773 0104 0023     		movs	r3, #0
 1774              		.syntax unified
 1775              	@ 493 "../ChibiOS/os/common/ext/ARM/CMSIS/Core/Include/cmsis_gcc.h" 1
 1776 0106 83F31188 		MSR basepri, r3
 1777              	@ 0 "" 2
 1778              	.LVL79:
 1779              		.loc 4 493 3 is_stmt 0 view .LVU460
 1780              		.thumb
 1781              		.syntax unified
 1782              	.LBE1509:
 1783              	.LBE1508:
 1784              	.LBE1510:
 1785              	.LBE1511:
 1786              	.LBE1512:
 1787              		.loc 1 263 7 is_stmt 1 view .LVU461
 1788 010a B0FA80F0 		clz	r0, r0
 1789              	.LVL80:
 1790              		.loc 1 263 7 is_stmt 0 view .LVU462
 1791 010e 4009     		lsrs	r0, r0, #5
 1792 0110 4946     		mov	r1, r9
 1793 0112 FFF7FEFF 		bl	__test_assert
ARM GAS  /tmp/ccTMtxXw.s 			page 33


 1794              	.LVL81:
 1795              		.loc 1 263 59 is_stmt 1 view .LVU463
 1796              		.loc 1 259 34 view .LVU464
 1797              		.loc 1 259 17 view .LVU465
 1798              		.loc 1 259 5 is_stmt 0 view .LVU466
 1799 0116 08F10108 		add	r8, r8, #1
 1800              		.loc 1 263 7 view .LVU467
 1801 011a 0546     		mov	r5, r0
 1802 011c 0028     		cmp	r0, #0
 1803 011e 8BD1     		bne	.L18
 1804              		.loc 1 259 5 view .LVU468
 1805 0120 B8F1450F 		cmp	r8, #69
 1806 0124 E8D1     		bne	.L27
 1807              		.loc 1 265 5 is_stmt 1 view .LVU469
 1808              	.LBB1513:
 1809              	.LBI1513:
 1810              		.loc 2 407 20 view .LVU470
 1811              	.LBE1513:
 1812              	.LBE1729:
 1813              	.LBE1810:
 1814              		.loc 2 409 3 view .LVU471
 1815              	.LBB1811:
 1816              	.LBB1730:
 1817              	.LBB1518:
 1818              	.LBB1514:
 1819              	.LBI1514:
 1820              		.loc 3 806 27 view .LVU472
 1821              	.LBE1514:
 1822              	.LBE1518:
 1823              	.LBE1730:
 1824              	.LBE1811:
 1825              		.loc 3 814 3 view .LVU473
 1826              	.LVL82:
 1827              	.LBB1812:
 1828              	.LBB1731:
 1829              	.LBB1519:
 1830              	.LBB1517:
 1831              	.LBB1515:
 1832              	.LBI1515:
 1833              		.loc 4 491 27 view .LVU474
 1834              	.LBB1516:
 1835              		.loc 4 493 3 view .LVU475
 1836              		.syntax unified
 1837              	@ 493 "../ChibiOS/os/common/ext/ARM/CMSIS/Core/Include/cmsis_gcc.h" 1
 1838 0126 86F31188 		MSR basepri, r6
 1839              	@ 0 "" 2
 1840              	.LVL83:
 1841              		.loc 4 493 3 is_stmt 0 view .LVU476
 1842              		.thumb
 1843              		.syntax unified
 1844              	.LBE1516:
 1845              	.LBE1515:
 1846              	.LBE1517:
 1847              	.LBE1519:
 1848              	.LBE1731:
 1849              	.LBE1812:
 1850              		.loc 2 410 35 is_stmt 1 view .LVU477
ARM GAS  /tmp/ccTMtxXw.s 			page 34


 1851              		.loc 2 411 21 view .LVU478
 1852              	.LBB1813:
 1853              	.LBB1732:
 1854              		.loc 1 266 5 view .LVU479
 1855              		.loc 1 266 12 is_stmt 0 view .LVU480
 1856 012a 4121     		movs	r1, #65
 1857 012c 6248     		ldr	r0, .L43+4
 1858 012e FFF7FEFF 		bl	chMBPostAheadI
 1859              	.LVL84:
 1860              		.loc 1 267 5 is_stmt 1 view .LVU481
 1861              	.LBB1520:
 1862              	.LBI1520:
 1863              		.loc 2 421 20 view .LVU482
 1864              	.LBB1521:
 1865              		.loc 2 423 23 view .LVU483
 1866              		.loc 2 424 34 view .LVU484
 1867              		.loc 2 430 3 view .LVU485
 1868              		.loc 2 430 3 view .LVU486
 1869              		.loc 2 430 3 view .LVU487
 1870              		.loc 2 434 3 view .LVU488
 1871              	.LBB1522:
 1872              	.LBI1522:
 1873              		.loc 3 830 27 view .LVU489
 1874              	.LBE1522:
 1875              	.LBE1521:
 1876              	.LBE1520:
 1877              	.LBE1732:
 1878              	.LBE1813:
 1879              		.loc 3 833 3 view .LVU490
 1880              	.LBB1814:
 1881              	.LBB1733:
 1882              	.LBB1527:
 1883              	.LBB1526:
 1884              	.LBB1525:
 1885              	.LBB1523:
 1886              	.LBI1523:
 1887              		.loc 4 491 27 view .LVU491
 1888              	.LBB1524:
 1889              		.loc 4 493 3 view .LVU492
 1890              		.syntax unified
 1891              	@ 493 "../ChibiOS/os/common/ext/ARM/CMSIS/Core/Include/cmsis_gcc.h" 1
 1892 0132 85F31188 		MSR basepri, r5
 1893              	@ 0 "" 2
 1894              	.LVL85:
 1895              		.loc 4 493 3 is_stmt 0 view .LVU493
 1896              		.thumb
 1897              		.syntax unified
 1898              	.LBE1524:
 1899              	.LBE1523:
 1900              	.LBE1525:
 1901              	.LBE1526:
 1902              	.LBE1527:
 1903              		.loc 1 268 5 is_stmt 1 view .LVU494
 1904 0136 B0FA80F0 		clz	r0, r0
 1905              	.LVL86:
 1906              		.loc 1 268 5 is_stmt 0 view .LVU495
 1907 013a 6549     		ldr	r1, .L43+28
ARM GAS  /tmp/ccTMtxXw.s 			page 35


 1908 013c 4009     		lsrs	r0, r0, #5
 1909 013e FFF7FEFF 		bl	__test_assert
 1910              	.LVL87:
 1911 0142 0546     		mov	r5, r0
 1912 0144 0028     		cmp	r0, #0
 1913 0146 7FF477AF 		bne	.L18
 1914              		.loc 1 268 57 is_stmt 1 view .LVU496
 1915              		.loc 1 270 3 view .LVU497
 1916              		.loc 1 270 19 view .LVU498
 1917              		.loc 1 274 3 view .LVU499
 1918 014a 4FF00409 		mov	r9, #4
 1919 014e C7F80090 		str	r9, [r7]
 1920              		.loc 1 276 5 view .LVU500
 1921              	.LBB1528:
 1922              	.LBI1528:
 1923              		.loc 6 573 20 view .LVU501
 1924              	.LBE1528:
 1925              	.LBE1733:
 1926              	.LBE1814:
 1927              		.loc 6 575 3 view .LVU502
 1928              	.LBB1815:
 1929              	.LBB1734:
 1930              	.LBB1536:
 1931              	.LBB1529:
 1932              	.LBI1529:
 1933              		.loc 2 407 20 view .LVU503
 1934              	.LBE1529:
 1935              	.LBE1536:
 1936              	.LBE1734:
 1937              	.LBE1815:
 1938              		.loc 2 409 3 view .LVU504
 1939              	.LBB1816:
 1940              	.LBB1735:
 1941              	.LBB1537:
 1942              	.LBB1534:
 1943              	.LBB1530:
 1944              	.LBI1530:
 1945              		.loc 3 806 27 view .LVU505
 1946              	.LBE1530:
 1947              	.LBE1534:
 1948              	.LBE1537:
 1949              	.LBE1735:
 1950              	.LBE1816:
 1951              		.loc 3 814 3 view .LVU506
 1952              	.LVL88:
 1953              	.LBB1817:
 1954              	.LBB1736:
 1955              	.LBB1538:
 1956              	.LBB1535:
 1957              	.LBB1533:
 1958              	.LBB1531:
 1959              	.LBI1531:
 1960              		.loc 4 491 27 view .LVU507
 1961              	.LBB1532:
 1962              		.loc 4 493 3 view .LVU508
 1963              		.syntax unified
 1964              	@ 493 "../ChibiOS/os/common/ext/ARM/CMSIS/Core/Include/cmsis_gcc.h" 1
ARM GAS  /tmp/ccTMtxXw.s 			page 36


 1965 0152 86F31188 		MSR basepri, r6
 1966              	@ 0 "" 2
 1967              	.LVL89:
 1968              		.loc 4 493 3 is_stmt 0 view .LVU509
 1969              		.thumb
 1970              		.syntax unified
 1971              	.LBE1532:
 1972              	.LBE1531:
 1973              	.LBE1533:
 1974              	.LBE1535:
 1975              	.LBE1538:
 1976              	.LBE1736:
 1977              	.LBE1817:
 1978              		.loc 2 410 35 is_stmt 1 view .LVU510
 1979              		.loc 2 411 21 view .LVU511
 1980              	.LBB1818:
 1981              	.LBB1737:
 1982              		.loc 1 276 5 view .LVU512
 1983              	.LBB1539:
 1984              	.LBI1539:
 1985              		.loc 5 167 22 view .LVU513
 1986              	.LBE1539:
 1987              	.LBE1737:
 1988              	.LBE1818:
 1989              		.loc 5 169 21 view .LVU514
 1990              		.loc 5 171 3 view .LVU515
 1991              	.LBB1819:
 1992              	.LBB1738:
 1993              	.LBB1546:
 1994              	.LBB1540:
 1995              	.LBI1540:
 1996              		.loc 5 136 22 view .LVU516
 1997              	.LBB1541:
 1998              		.loc 5 140 3 view .LVU517
 1999              		.loc 5 140 3 is_stmt 0 view .LVU518
 2000              	.LBE1541:
 2001              	.LBE1540:
 2002              	.LBB1543:
 2003              	.LBI1543:
 2004              		.loc 5 152 22 is_stmt 1 view .LVU519
 2005              	.LBB1544:
 2006              		.loc 5 154 21 view .LVU520
 2007              		.loc 5 156 3 view .LVU521
 2008              		.loc 5 156 3 is_stmt 0 view .LVU522
 2009              	.LBE1544:
 2010              	.LBE1543:
 2011              	.LBB1545:
 2012              	.LBB1542:
 2013              		.loc 5 140 28 view .LVU523
 2014 0156 D4E90023 		ldrd	r2, r3, [r4]
 2015 015a 9B1A     		subs	r3, r3, r2
 2016              	.LBE1542:
 2017              	.LBE1545:
 2018              	.LBE1546:
 2019              		.loc 1 276 5 view .LVU524
 2020 015c 2269     		ldr	r2, [r4, #16]
 2021 015e 5D49     		ldr	r1, .L43+32
ARM GAS  /tmp/ccTMtxXw.s 			page 37


 2022 0160 B2EBA30F 		cmp	r2, r3, asr #2
 2023 0164 0CBF     		ite	eq
 2024 0166 0120     		moveq	r0, #1
 2025 0168 0020     		movne	r0, #0
 2026 016a FFF7FEFF 		bl	__test_assert
 2027              	.LVL90:
 2028 016e 8046     		mov	r8, r0
 2029 0170 0028     		cmp	r0, #0
 2030 0172 94D1     		bne	.L41
 2031              		.loc 1 276 5 is_stmt 1 view .LVU525
 2032              	.LBB1547:
 2033              	.LBI1547:
 2034              		.loc 6 584 20 view .LVU526
 2035              	.LBE1547:
 2036              	.LBE1738:
 2037              	.LBE1819:
 2038              		.loc 6 586 3 view .LVU527
 2039              	.LBB1820:
 2040              	.LBB1739:
 2041              	.LBB1556:
 2042              	.LBB1548:
 2043              	.LBI1548:
 2044              		.loc 2 421 20 view .LVU528
 2045              	.LBB1549:
 2046              		.loc 2 423 23 view .LVU529
 2047              		.loc 2 424 34 view .LVU530
 2048              		.loc 2 430 3 view .LVU531
 2049              		.loc 2 430 3 view .LVU532
 2050              		.loc 2 430 3 view .LVU533
 2051              		.loc 2 434 3 view .LVU534
 2052              	.LBB1550:
 2053              	.LBI1550:
 2054              		.loc 3 830 27 view .LVU535
 2055              	.LBE1550:
 2056              	.LBE1549:
 2057              	.LBE1548:
 2058              	.LBE1556:
 2059              	.LBE1739:
 2060              	.LBE1820:
 2061              		.loc 3 833 3 view .LVU536
 2062              	.LVL91:
 2063              	.LBB1821:
 2064              	.LBB1740:
 2065              	.LBB1557:
 2066              	.LBB1555:
 2067              	.LBB1554:
 2068              	.LBB1553:
 2069              	.LBB1551:
 2070              	.LBI1551:
 2071              		.loc 4 491 27 view .LVU537
 2072              	.LBB1552:
 2073              		.loc 4 493 3 view .LVU538
 2074              		.syntax unified
 2075              	@ 493 "../ChibiOS/os/common/ext/ARM/CMSIS/Core/Include/cmsis_gcc.h" 1
 2076 0174 80F31188 		MSR basepri, r0
 2077              	@ 0 "" 2
 2078              	.LVL92:
ARM GAS  /tmp/ccTMtxXw.s 			page 38


 2079              		.loc 4 493 3 is_stmt 0 view .LVU539
 2080              		.thumb
 2081              		.syntax unified
 2082              	.LBE1552:
 2083              	.LBE1551:
 2084              	.LBE1553:
 2085              	.LBE1554:
 2086              	.LBE1555:
 2087              	.LBE1557:
 2088              		.loc 1 276 66 is_stmt 1 view .LVU540
 2089              		.loc 1 277 5 view .LVU541
 2090              	.LBB1558:
 2091              	.LBI1558:
 2092              		.loc 6 573 20 view .LVU542
 2093              	.LBE1558:
 2094              	.LBE1740:
 2095              	.LBE1821:
 2096              		.loc 6 575 3 view .LVU543
 2097              	.LBB1822:
 2098              	.LBB1741:
 2099              	.LBB1566:
 2100              	.LBB1559:
 2101              	.LBI1559:
 2102              		.loc 2 407 20 view .LVU544
 2103              	.LBE1559:
 2104              	.LBE1566:
 2105              	.LBE1741:
 2106              	.LBE1822:
 2107              		.loc 2 409 3 view .LVU545
 2108              	.LBB1823:
 2109              	.LBB1742:
 2110              	.LBB1567:
 2111              	.LBB1564:
 2112              	.LBB1560:
 2113              	.LBI1560:
 2114              		.loc 3 806 27 view .LVU546
 2115              	.LBE1560:
 2116              	.LBE1564:
 2117              	.LBE1567:
 2118              	.LBE1742:
 2119              	.LBE1823:
 2120              		.loc 3 814 3 view .LVU547
 2121              	.LBB1824:
 2122              	.LBB1743:
 2123              	.LBB1568:
 2124              	.LBB1565:
 2125              	.LBB1563:
 2126              	.LBB1561:
 2127              	.LBI1561:
 2128              		.loc 4 491 27 view .LVU548
 2129              	.LBB1562:
 2130              		.loc 4 493 3 view .LVU549
 2131              		.syntax unified
 2132              	@ 493 "../ChibiOS/os/common/ext/ARM/CMSIS/Core/Include/cmsis_gcc.h" 1
 2133 0178 86F31188 		MSR basepri, r6
 2134              	@ 0 "" 2
 2135              	.LVL93:
ARM GAS  /tmp/ccTMtxXw.s 			page 39


 2136              		.loc 4 493 3 is_stmt 0 view .LVU550
 2137              		.thumb
 2138              		.syntax unified
 2139              	.LBE1562:
 2140              	.LBE1561:
 2141              	.LBE1563:
 2142              	.LBE1565:
 2143              	.LBE1568:
 2144              	.LBE1743:
 2145              	.LBE1824:
 2146              		.loc 2 410 35 is_stmt 1 view .LVU551
 2147              		.loc 2 411 21 view .LVU552
 2148              	.LBB1825:
 2149              	.LBB1744:
 2150              		.loc 1 277 5 view .LVU553
 2151              	.LBB1569:
 2152              	.LBI1569:
 2153              		.loc 5 152 22 view .LVU554
 2154              	.LBB1570:
 2155              		.loc 5 154 21 view .LVU555
 2156              		.loc 5 156 3 view .LVU556
 2157              		.loc 5 156 3 is_stmt 0 view .LVU557
 2158              	.LBE1570:
 2159              	.LBE1569:
 2160              		.loc 1 277 5 view .LVU558
 2161 017c 2069     		ldr	r0, [r4, #16]
 2162 017e 5649     		ldr	r1, .L43+36
 2163 0180 A0F10400 		sub	r0, #4
 2164 0184 B0FA80F0 		clz	r0, r0
 2165 0188 4009     		lsrs	r0, r0, #5
 2166 018a FFF7FEFF 		bl	__test_assert
 2167              	.LVL94:
 2168 018e 0546     		mov	r5, r0
 2169 0190 0028     		cmp	r0, #0
 2170 0192 7FF47FAF 		bne	.L42
 2171              		.loc 1 277 5 is_stmt 1 view .LVU559
 2172              	.LBB1571:
 2173              	.LBI1571:
 2174              		.loc 6 584 20 view .LVU560
 2175              	.LBE1571:
 2176              	.LBE1744:
 2177              	.LBE1825:
 2178              		.loc 6 586 3 view .LVU561
 2179              	.LBB1826:
 2180              	.LBB1745:
 2181              	.LBB1580:
 2182              	.LBB1572:
 2183              	.LBI1572:
 2184              		.loc 2 421 20 view .LVU562
 2185              	.LBB1573:
 2186              		.loc 2 423 23 view .LVU563
 2187              		.loc 2 424 34 view .LVU564
 2188              		.loc 2 430 3 view .LVU565
 2189              		.loc 2 430 3 view .LVU566
 2190              		.loc 2 430 3 view .LVU567
 2191              		.loc 2 434 3 view .LVU568
 2192              	.LBB1574:
ARM GAS  /tmp/ccTMtxXw.s 			page 40


 2193              	.LBI1574:
 2194              		.loc 3 830 27 view .LVU569
 2195              	.LBE1574:
 2196              	.LBE1573:
 2197              	.LBE1572:
 2198              	.LBE1580:
 2199              	.LBE1745:
 2200              	.LBE1826:
 2201              		.loc 3 833 3 view .LVU570
 2202              	.LVL95:
 2203              	.LBB1827:
 2204              	.LBB1746:
 2205              	.LBB1581:
 2206              	.LBB1579:
 2207              	.LBB1578:
 2208              	.LBB1577:
 2209              	.LBB1575:
 2210              	.LBI1575:
 2211              		.loc 4 491 27 view .LVU571
 2212              	.LBB1576:
 2213              		.loc 4 493 3 view .LVU572
 2214              		.syntax unified
 2215              	@ 493 "../ChibiOS/os/common/ext/ARM/CMSIS/Core/Include/cmsis_gcc.h" 1
 2216 0196 80F31188 		MSR basepri, r0
 2217              	@ 0 "" 2
 2218              	.LVL96:
 2219              		.loc 4 493 3 is_stmt 0 view .LVU573
 2220              		.thumb
 2221              		.syntax unified
 2222              	.LBE1576:
 2223              	.LBE1575:
 2224              	.LBE1577:
 2225              	.LBE1578:
 2226              	.LBE1579:
 2227              	.LBE1581:
 2228              		.loc 1 277 69 is_stmt 1 view .LVU574
 2229              		.loc 1 278 5 view .LVU575
 2230              	.LBB1582:
 2231              	.LBI1582:
 2232              		.loc 6 573 20 view .LVU576
 2233              	.LBE1582:
 2234              	.LBE1746:
 2235              	.LBE1827:
 2236              		.loc 6 575 3 view .LVU577
 2237              	.LBB1828:
 2238              	.LBB1747:
 2239              	.LBB1590:
 2240              	.LBB1583:
 2241              	.LBI1583:
 2242              		.loc 2 407 20 view .LVU578
 2243              	.LBE1583:
 2244              	.LBE1590:
 2245              	.LBE1747:
 2246              	.LBE1828:
 2247              		.loc 2 409 3 view .LVU579
 2248              	.LBB1829:
 2249              	.LBB1748:
ARM GAS  /tmp/ccTMtxXw.s 			page 41


 2250              	.LBB1591:
 2251              	.LBB1588:
 2252              	.LBB1584:
 2253              	.LBI1584:
 2254              		.loc 3 806 27 view .LVU580
 2255              	.LBE1584:
 2256              	.LBE1588:
 2257              	.LBE1591:
 2258              	.LBE1748:
 2259              	.LBE1829:
 2260              		.loc 3 814 3 view .LVU581
 2261              	.LBB1830:
 2262              	.LBB1749:
 2263              	.LBB1592:
 2264              	.LBB1589:
 2265              	.LBB1587:
 2266              	.LBB1585:
 2267              	.LBI1585:
 2268              		.loc 4 491 27 view .LVU582
 2269              	.LBB1586:
 2270              		.loc 4 493 3 view .LVU583
 2271              		.syntax unified
 2272              	@ 493 "../ChibiOS/os/common/ext/ARM/CMSIS/Core/Include/cmsis_gcc.h" 1
 2273 019a 86F31188 		MSR basepri, r6
 2274              	@ 0 "" 2
 2275              	.LVL97:
 2276              		.loc 4 493 3 is_stmt 0 view .LVU584
 2277              		.thumb
 2278              		.syntax unified
 2279              	.LBE1586:
 2280              	.LBE1585:
 2281              	.LBE1587:
 2282              	.LBE1589:
 2283              	.LBE1592:
 2284              	.LBE1749:
 2285              	.LBE1830:
 2286              		.loc 2 410 35 is_stmt 1 view .LVU585
 2287              		.loc 2 411 21 view .LVU586
 2288              	.LBB1831:
 2289              	.LBB1750:
 2290              		.loc 1 278 5 view .LVU587
 2291 019e D4E90230 		ldrd	r3, r0, [r4, #8]
 2292 01a2 C01A     		subs	r0, r0, r3
 2293 01a4 B0FA80F0 		clz	r0, r0
 2294 01a8 4C49     		ldr	r1, .L43+40
 2295 01aa 4009     		lsrs	r0, r0, #5
 2296 01ac FFF7FEFF 		bl	__test_assert
 2297              	.LVL98:
 2298 01b0 0028     		cmp	r0, #0
 2299 01b2 7FF474AF 		bne	.L41
 2300              		.loc 1 278 5 view .LVU588
 2301              	.LBB1593:
 2302              	.LBI1593:
 2303              		.loc 6 584 20 view .LVU589
 2304              	.LBE1593:
 2305              	.LBE1750:
 2306              	.LBE1831:
ARM GAS  /tmp/ccTMtxXw.s 			page 42


 2307              		.loc 6 586 3 view .LVU590
 2308              	.LBB1832:
 2309              	.LBB1751:
 2310              	.LBB1602:
 2311              	.LBB1594:
 2312              	.LBI1594:
 2313              		.loc 2 421 20 view .LVU591
 2314              	.LBB1595:
 2315              		.loc 2 423 23 view .LVU592
 2316              		.loc 2 424 34 view .LVU593
 2317              		.loc 2 430 3 view .LVU594
 2318              		.loc 2 430 3 view .LVU595
 2319              		.loc 2 430 3 view .LVU596
 2320              		.loc 2 434 3 view .LVU597
 2321              	.LBB1596:
 2322              	.LBI1596:
 2323              		.loc 3 830 27 view .LVU598
 2324              	.LBE1596:
 2325              	.LBE1595:
 2326              	.LBE1594:
 2327              	.LBE1602:
 2328              	.LBE1751:
 2329              	.LBE1832:
 2330              		.loc 3 833 3 view .LVU599
 2331              	.LVL99:
 2332              	.LBB1833:
 2333              	.LBB1752:
 2334              	.LBB1603:
 2335              	.LBB1601:
 2336              	.LBB1600:
 2337              	.LBB1599:
 2338              	.LBB1597:
 2339              	.LBI1597:
 2340              		.loc 4 491 27 view .LVU600
 2341              	.LBB1598:
 2342              		.loc 4 493 3 view .LVU601
 2343              		.syntax unified
 2344              	@ 493 "../ChibiOS/os/common/ext/ARM/CMSIS/Core/Include/cmsis_gcc.h" 1
 2345 01b6 80F31188 		MSR basepri, r0
 2346              	@ 0 "" 2
 2347              	.LVL100:
 2348              		.loc 4 493 3 is_stmt 0 view .LVU602
 2349              		.thumb
 2350              		.syntax unified
 2351              	.LBE1598:
 2352              	.LBE1597:
 2353              	.LBE1599:
 2354              	.LBE1600:
 2355              	.LBE1601:
 2356              	.LBE1603:
 2357              		.loc 1 278 69 is_stmt 1 view .LVU603
 2358              		.loc 1 280 3 view .LVU604
 2359              		.loc 1 280 19 view .LVU605
 2360              		.loc 1 284 3 view .LVU606
 2361 01ba 0523     		movs	r3, #5
 2362              		.loc 1 288 14 is_stmt 0 view .LVU607
 2363 01bc DFF8F880 		ldr	r8, .L43+4
ARM GAS  /tmp/ccTMtxXw.s 			page 43


 2364              		.loc 1 290 7 view .LVU608
 2365 01c0 434E     		ldr	r6, .L43+28
 2366              		.loc 1 284 3 view .LVU609
 2367 01c2 3B60     		str	r3, [r7]
 2368              		.loc 1 286 5 is_stmt 1 view .LVU610
 2369              	.LVL101:
 2370              		.loc 1 286 17 view .LVU611
 2371              	.LBB1604:
 2372              	.LBB1605:
 2373              	.LBB1606:
 2374              	.LBB1607:
 2375              		.loc 4 493 3 is_stmt 0 view .LVU612
 2376 01c4 3025     		movs	r5, #48
 2377              	.LVL102:
 2378              	.L32:
 2379              		.loc 4 493 3 view .LVU613
 2380              	.LBE1607:
 2381              	.LBE1606:
 2382              	.LBE1605:
 2383              	.LBE1604:
 2384              		.loc 1 287 7 is_stmt 1 view .LVU614
 2385              	.LBB1612:
 2386              	.LBI1604:
 2387              		.loc 2 407 20 view .LVU615
 2388              	.LBE1612:
 2389              	.LBE1752:
 2390              	.LBE1833:
 2391              		.loc 2 409 3 view .LVU616
 2392              	.LBB1834:
 2393              	.LBB1753:
 2394              	.LBB1613:
 2395              	.LBB1610:
 2396              	.LBI1605:
 2397              		.loc 3 806 27 view .LVU617
 2398              	.LBE1610:
 2399              	.LBE1613:
 2400              	.LBE1753:
 2401              	.LBE1834:
 2402              		.loc 3 814 3 view .LVU618
 2403              	.LBB1835:
 2404              	.LBB1754:
 2405              	.LBB1614:
 2406              	.LBB1611:
 2407              	.LBB1609:
 2408              	.LBI1606:
 2409              		.loc 4 491 27 view .LVU619
 2410              	.LBB1608:
 2411              		.loc 4 493 3 view .LVU620
 2412              		.syntax unified
 2413              	@ 493 "../ChibiOS/os/common/ext/ARM/CMSIS/Core/Include/cmsis_gcc.h" 1
 2414 01c6 85F31188 		MSR basepri, r5
 2415              	@ 0 "" 2
 2416              	.LVL103:
 2417              		.loc 4 493 3 is_stmt 0 view .LVU621
 2418              		.thumb
 2419              		.syntax unified
 2420              	.LBE1608:
ARM GAS  /tmp/ccTMtxXw.s 			page 44


 2421              	.LBE1609:
 2422              	.LBE1611:
 2423              	.LBE1614:
 2424              	.LBE1754:
 2425              	.LBE1835:
 2426              		.loc 2 410 35 is_stmt 1 view .LVU622
 2427              		.loc 2 411 21 view .LVU623
 2428              	.LBB1836:
 2429              	.LBB1755:
 2430              		.loc 1 288 7 view .LVU624
 2431              		.loc 1 288 14 is_stmt 0 view .LVU625
 2432 01ca 01A9     		add	r1, sp, #4
 2433 01cc 4046     		mov	r0, r8
 2434 01ce FFF7FEFF 		bl	chMBFetchI
 2435              	.LVL104:
 2436              		.loc 1 289 7 is_stmt 1 view .LVU626
 2437              	.LBB1615:
 2438              	.LBI1615:
 2439              		.loc 2 421 20 view .LVU627
 2440              	.LBB1616:
 2441              		.loc 2 423 23 view .LVU628
 2442              		.loc 2 424 34 view .LVU629
 2443              		.loc 2 430 3 view .LVU630
 2444              		.loc 2 430 3 view .LVU631
 2445              		.loc 2 430 3 view .LVU632
 2446              		.loc 2 434 3 view .LVU633
 2447              	.LBB1617:
 2448              	.LBI1617:
 2449              		.loc 3 830 27 view .LVU634
 2450              	.LBE1617:
 2451              	.LBE1616:
 2452              	.LBE1615:
 2453              	.LBE1755:
 2454              	.LBE1836:
 2455              		.loc 3 833 3 view .LVU635
 2456              	.LBB1837:
 2457              	.LBB1756:
 2458              	.LBB1622:
 2459              	.LBB1621:
 2460              	.LBB1620:
 2461              	.LBB1618:
 2462              	.LBI1618:
 2463              		.loc 4 491 27 view .LVU636
 2464              	.LBB1619:
 2465              		.loc 4 493 3 view .LVU637
 2466 01d2 0023     		movs	r3, #0
 2467              		.syntax unified
 2468              	@ 493 "../ChibiOS/os/common/ext/ARM/CMSIS/Core/Include/cmsis_gcc.h" 1
 2469 01d4 83F31188 		MSR basepri, r3
 2470              	@ 0 "" 2
 2471              	.LVL105:
 2472              		.loc 4 493 3 is_stmt 0 view .LVU638
 2473              		.thumb
 2474              		.syntax unified
 2475              	.LBE1619:
 2476              	.LBE1618:
 2477              	.LBE1620:
ARM GAS  /tmp/ccTMtxXw.s 			page 45


 2478              	.LBE1621:
 2479              	.LBE1622:
 2480              		.loc 1 290 7 is_stmt 1 view .LVU639
 2481 01d8 B0FA80F0 		clz	r0, r0
 2482              	.LVL106:
 2483              		.loc 1 290 7 is_stmt 0 view .LVU640
 2484 01dc 4009     		lsrs	r0, r0, #5
 2485 01de 3146     		mov	r1, r6
 2486 01e0 FFF7FEFF 		bl	__test_assert
 2487              	.LVL107:
 2488              		.loc 1 290 59 is_stmt 1 view .LVU641
 2489              		.loc 1 291 7 view .LVU642
 2490              		.loc 1 290 7 is_stmt 0 view .LVU643
 2491 01e4 0028     		cmp	r0, #0
 2492 01e6 7FF427AF 		bne	.L18
 2493              		.loc 1 291 7 view .LVU644
 2494 01ea 9DF80400 		ldrb	r0, [sp, #4]	@ zero_extendqisi2
 2495 01ee FFF7FEFF 		bl	test_emit_token
 2496              	.LVL108:
 2497              		.loc 1 286 30 is_stmt 1 view .LVU645
 2498              		.loc 1 286 17 view .LVU646
 2499              		.loc 1 286 5 is_stmt 0 view .LVU647
 2500 01f2 B9F10109 		subs	r9, r9, #1
 2501              	.LVL109:
 2502              		.loc 1 286 5 view .LVU648
 2503 01f6 E6D1     		bne	.L32
 2504              		.loc 1 293 5 is_stmt 1 view .LVU649
 2505 01f8 3949     		ldr	r1, .L43+44
 2506 01fa 3A48     		ldr	r0, .L43+48
 2507 01fc FFF7FEFF 		bl	__test_assert_sequence
 2508              	.LVL110:
 2509 0200 0028     		cmp	r0, #0
 2510 0202 7FF419AF 		bne	.L18
 2511              		.loc 1 293 55 view .LVU650
 2512              		.loc 1 295 3 view .LVU651
 2513              		.loc 1 295 19 view .LVU652
 2514              		.loc 1 299 3 view .LVU653
 2515              		.loc 1 301 12 is_stmt 0 view .LVU654
 2516 0206 4621     		movs	r1, #70
 2517              		.loc 1 299 3 view .LVU655
 2518 0208 0623     		movs	r3, #6
 2519              		.loc 1 301 12 view .LVU656
 2520 020a 2B48     		ldr	r0, .L43+4
 2521              		.loc 1 299 3 view .LVU657
 2522 020c 3B60     		str	r3, [r7]
 2523              		.loc 1 301 5 is_stmt 1 view .LVU658
 2524              		.loc 1 301 12 is_stmt 0 view .LVU659
 2525 020e 4FF0FF32 		mov	r2, #-1
 2526 0212 FFF7FEFF 		bl	chMBPostTimeout
 2527              	.LVL111:
 2528              		.loc 1 302 5 is_stmt 1 view .LVU660
 2529 0216 B0FA80F0 		clz	r0, r0
 2530              	.LVL112:
 2531              		.loc 1 302 5 is_stmt 0 view .LVU661
 2532 021a 2D49     		ldr	r1, .L43+28
 2533 021c 4009     		lsrs	r0, r0, #5
 2534 021e FFF7FEFF 		bl	__test_assert
ARM GAS  /tmp/ccTMtxXw.s 			page 46


 2535              	.LVL113:
 2536 0222 0028     		cmp	r0, #0
 2537 0224 7FF408AF 		bne	.L18
 2538              		.loc 1 302 57 is_stmt 1 view .LVU662
 2539              		.loc 1 303 5 view .LVU663
 2540              		.loc 1 303 12 is_stmt 0 view .LVU664
 2541 0228 01A9     		add	r1, sp, #4
 2542 022a 2348     		ldr	r0, .L43+4
 2543 022c 4FF0FF32 		mov	r2, #-1
 2544 0230 FFF7FEFF 		bl	chMBFetchTimeout
 2545              	.LVL114:
 2546              		.loc 1 304 5 is_stmt 1 view .LVU665
 2547 0234 B0FA80F0 		clz	r0, r0
 2548              	.LVL115:
 2549              		.loc 1 304 5 is_stmt 0 view .LVU666
 2550 0238 2549     		ldr	r1, .L43+28
 2551 023a 4009     		lsrs	r0, r0, #5
 2552 023c FFF7FEFF 		bl	__test_assert
 2553              	.LVL116:
 2554 0240 0028     		cmp	r0, #0
 2555 0242 7FF4F9AE 		bne	.L18
 2556              		.loc 1 304 57 is_stmt 1 view .LVU667
 2557              		.loc 1 306 3 view .LVU668
 2558              		.loc 1 306 19 view .LVU669
 2559              		.loc 1 310 3 view .LVU670
 2560 0246 0723     		movs	r3, #7
 2561 0248 3B60     		str	r3, [r7]
 2562              		.loc 1 312 5 view .LVU671
 2563              	.LBB1623:
 2564              	.LBI1623:
 2565              		.loc 6 573 20 view .LVU672
 2566              	.LBE1623:
 2567              	.LBE1756:
 2568              	.LBE1837:
 2569              		.loc 6 575 3 view .LVU673
 2570              	.LBB1838:
 2571              	.LBB1757:
 2572              	.LBB1631:
 2573              	.LBB1624:
 2574              	.LBI1624:
 2575              		.loc 2 407 20 view .LVU674
 2576              	.LBE1624:
 2577              	.LBE1631:
 2578              	.LBE1757:
 2579              	.LBE1838:
 2580              		.loc 2 409 3 view .LVU675
 2581              	.LBB1839:
 2582              	.LBB1758:
 2583              	.LBB1632:
 2584              	.LBB1629:
 2585              	.LBB1625:
 2586              	.LBI1625:
 2587              		.loc 3 806 27 view .LVU676
 2588              	.LBE1625:
 2589              	.LBE1629:
 2590              	.LBE1632:
 2591              	.LBE1758:
ARM GAS  /tmp/ccTMtxXw.s 			page 47


 2592              	.LBE1839:
 2593              		.loc 3 814 3 view .LVU677
 2594              	.LVL117:
 2595              	.LBB1840:
 2596              	.LBB1759:
 2597              	.LBB1633:
 2598              	.LBB1630:
 2599              	.LBB1628:
 2600              	.LBB1626:
 2601              	.LBI1626:
 2602              		.loc 4 491 27 view .LVU678
 2603              	.LBB1627:
 2604              		.loc 4 493 3 view .LVU679
 2605              		.syntax unified
 2606              	@ 493 "../ChibiOS/os/common/ext/ARM/CMSIS/Core/Include/cmsis_gcc.h" 1
 2607 024a 85F31188 		MSR basepri, r5
 2608              	@ 0 "" 2
 2609              	.LVL118:
 2610              		.loc 4 493 3 is_stmt 0 view .LVU680
 2611              		.thumb
 2612              		.syntax unified
 2613              	.LBE1627:
 2614              	.LBE1626:
 2615              	.LBE1628:
 2616              	.LBE1630:
 2617              	.LBE1633:
 2618              	.LBE1759:
 2619              	.LBE1840:
 2620              		.loc 2 410 35 is_stmt 1 view .LVU681
 2621              		.loc 2 411 21 view .LVU682
 2622              	.LBB1841:
 2623              	.LBB1760:
 2624              		.loc 1 312 5 view .LVU683
 2625              	.LBB1634:
 2626              	.LBI1634:
 2627              		.loc 5 167 22 view .LVU684
 2628              	.LBB1635:
 2629              		.loc 5 169 21 view .LVU685
 2630              		.loc 5 171 3 view .LVU686
 2631              	.LBB1636:
 2632              	.LBI1636:
 2633              		.loc 5 136 22 view .LVU687
 2634              	.LBB1637:
 2635              		.loc 5 140 3 view .LVU688
 2636              		.loc 5 140 3 is_stmt 0 view .LVU689
 2637              	.LBE1637:
 2638              	.LBE1636:
 2639              	.LBB1639:
 2640              	.LBI1639:
 2641              		.loc 5 152 22 is_stmt 1 view .LVU690
 2642              	.LBB1640:
 2643              		.loc 5 154 21 view .LVU691
 2644              		.loc 5 156 3 view .LVU692
 2645              		.loc 5 156 3 is_stmt 0 view .LVU693
 2646              	.LBE1640:
 2647              	.LBE1639:
 2648              	.LBB1641:
ARM GAS  /tmp/ccTMtxXw.s 			page 48


 2649              	.LBB1638:
 2650              		.loc 5 140 28 view .LVU694
 2651 024e D4E90023 		ldrd	r2, r3, [r4]
 2652 0252 9A1A     		subs	r2, r3, r2
 2653              	.LBE1638:
 2654              	.LBE1641:
 2655              		.loc 5 171 28 view .LVU695
 2656 0254 2369     		ldr	r3, [r4, #16]
 2657              	.LBE1635:
 2658              	.LBE1634:
 2659              		.loc 1 312 5 view .LVU696
 2660 0256 1A49     		ldr	r1, .L43+12
 2661              	.LBB1643:
 2662              	.LBB1642:
 2663              		.loc 5 171 28 view .LVU697
 2664 0258 C3EBA203 		rsb	r3, r3, r2, asr #2
 2665              	.LBE1642:
 2666              	.LBE1643:
 2667              		.loc 1 312 5 view .LVU698
 2668 025c 1E1F     		subs	r6, r3, #4
 2669 025e 7042     		rsbs	r0, r6, #0
 2670 0260 7041     		adcs	r0, r0, r6
 2671 0262 FFF7FEFF 		bl	__test_assert
 2672              	.LVL119:
 2673 0266 08BB     		cbnz	r0, .L40
 2674              		.loc 1 312 5 is_stmt 1 view .LVU699
 2675              	.LBB1644:
 2676              	.LBI1644:
 2677              		.loc 6 584 20 view .LVU700
 2678              	.LBE1644:
 2679              	.LBE1760:
 2680              	.LBE1841:
 2681              		.loc 6 586 3 view .LVU701
 2682              	.LBB1842:
 2683              	.LBB1761:
 2684              	.LBB1653:
 2685              	.LBB1645:
 2686              	.LBI1645:
 2687              		.loc 2 421 20 view .LVU702
 2688              	.LBB1646:
 2689              		.loc 2 423 23 view .LVU703
 2690              		.loc 2 424 34 view .LVU704
 2691              		.loc 2 430 3 view .LVU705
 2692              		.loc 2 430 3 view .LVU706
 2693              		.loc 2 430 3 view .LVU707
 2694              		.loc 2 434 3 view .LVU708
 2695              	.LBB1647:
 2696              	.LBI1647:
 2697              		.loc 3 830 27 view .LVU709
 2698              	.LBE1647:
 2699              	.LBE1646:
 2700              	.LBE1645:
 2701              	.LBE1653:
 2702              	.LBE1761:
 2703              	.LBE1842:
 2704              		.loc 3 833 3 view .LVU710
 2705              	.LVL120:
ARM GAS  /tmp/ccTMtxXw.s 			page 49


 2706              	.LBB1843:
 2707              	.LBB1762:
 2708              	.LBB1654:
 2709              	.LBB1652:
 2710              	.LBB1651:
 2711              	.LBB1650:
 2712              	.LBB1648:
 2713              	.LBI1648:
 2714              		.loc 4 491 27 view .LVU711
 2715              	.LBB1649:
 2716              		.loc 4 493 3 view .LVU712
 2717              		.syntax unified
 2718              	@ 493 "../ChibiOS/os/common/ext/ARM/CMSIS/Core/Include/cmsis_gcc.h" 1
 2719 0268 89F31188 		MSR basepri, r9
 2720              	@ 0 "" 2
 2721              	.LVL121:
 2722              		.loc 4 493 3 is_stmt 0 view .LVU713
 2723              		.thumb
 2724              		.syntax unified
 2725              	.LBE1649:
 2726              	.LBE1648:
 2727              	.LBE1650:
 2728              	.LBE1651:
 2729              	.LBE1652:
 2730              	.LBE1654:
 2731              		.loc 1 312 70 is_stmt 1 view .LVU714
 2732              		.loc 1 313 5 view .LVU715
 2733              	.LBB1655:
 2734              	.LBI1655:
 2735              		.loc 6 573 20 view .LVU716
 2736              	.LBE1655:
 2737              	.LBE1762:
 2738              	.LBE1843:
 2739              		.loc 6 575 3 view .LVU717
 2740              	.LBB1844:
 2741              	.LBB1763:
 2742              	.LBB1663:
 2743              	.LBB1656:
 2744              	.LBI1656:
 2745              		.loc 2 407 20 view .LVU718
 2746              	.LBE1656:
 2747              	.LBE1663:
 2748              	.LBE1763:
 2749              	.LBE1844:
 2750              		.loc 2 409 3 view .LVU719
 2751              	.LBB1845:
 2752              	.LBB1764:
 2753              	.LBB1664:
 2754              	.LBB1661:
 2755              	.LBB1657:
 2756              	.LBI1657:
 2757              		.loc 3 806 27 view .LVU720
 2758              	.LBE1657:
 2759              	.LBE1661:
 2760              	.LBE1664:
 2761              	.LBE1764:
 2762              	.LBE1845:
ARM GAS  /tmp/ccTMtxXw.s 			page 50


 2763              		.loc 3 814 3 view .LVU721
 2764              	.LBB1846:
 2765              	.LBB1765:
 2766              	.LBB1665:
 2767              	.LBB1662:
 2768              	.LBB1660:
 2769              	.LBB1658:
 2770              	.LBI1658:
 2771              		.loc 4 491 27 view .LVU722
 2772              	.LBB1659:
 2773              		.loc 4 493 3 view .LVU723
 2774              		.syntax unified
 2775              	@ 493 "../ChibiOS/os/common/ext/ARM/CMSIS/Core/Include/cmsis_gcc.h" 1
 2776 026c 85F31188 		MSR basepri, r5
 2777              	@ 0 "" 2
 2778              	.LVL122:
 2779              		.loc 4 493 3 is_stmt 0 view .LVU724
 2780              		.thumb
 2781              		.syntax unified
 2782              	.LBE1659:
 2783              	.LBE1658:
 2784              	.LBE1660:
 2785              	.LBE1662:
 2786              	.LBE1665:
 2787              	.LBE1765:
 2788              	.LBE1846:
 2789              		.loc 2 410 35 is_stmt 1 view .LVU725
 2790              		.loc 2 411 21 view .LVU726
 2791              	.LBB1847:
 2792              	.LBB1766:
 2793              		.loc 1 313 5 view .LVU727
 2794              	.LBB1666:
 2795              	.LBI1666:
 2796              		.loc 5 152 22 view .LVU728
 2797              	.LBB1667:
 2798              		.loc 5 154 21 view .LVU729
 2799              		.loc 5 156 3 view .LVU730
 2800              		.loc 5 156 3 is_stmt 0 view .LVU731
 2801              	.LBE1667:
 2802              	.LBE1666:
 2803              		.loc 1 313 5 view .LVU732
 2804 0270 2069     		ldr	r0, [r4, #16]
 2805 0272 1449     		ldr	r1, .L43+16
 2806 0274 B0FA80F0 		clz	r0, r0
 2807 0278 4009     		lsrs	r0, r0, #5
 2808 027a FFF7FEFF 		bl	__test_assert
 2809              	.LVL123:
 2810 027e A8B9     		cbnz	r0, .L40
 2811              		.loc 1 313 5 is_stmt 1 view .LVU733
 2812              	.LBB1668:
 2813              	.LBI1668:
 2814              		.loc 6 584 20 view .LVU734
 2815              	.LBE1668:
 2816              	.LBE1766:
 2817              	.LBE1847:
 2818              		.loc 6 586 3 view .LVU735
 2819              	.LBB1848:
ARM GAS  /tmp/ccTMtxXw.s 			page 51


 2820              	.LBB1767:
 2821              	.LBB1677:
 2822              	.LBB1669:
 2823              	.LBI1669:
 2824              		.loc 2 421 20 view .LVU736
 2825              	.LBB1670:
 2826              		.loc 2 423 23 view .LVU737
 2827              		.loc 2 424 34 view .LVU738
 2828              		.loc 2 430 3 view .LVU739
 2829              		.loc 2 430 3 view .LVU740
 2830              		.loc 2 430 3 view .LVU741
 2831              		.loc 2 434 3 view .LVU742
 2832              	.LBB1671:
 2833              	.LBI1671:
 2834              		.loc 3 830 27 view .LVU743
 2835              	.LBE1671:
 2836              	.LBE1670:
 2837              	.LBE1669:
 2838              	.LBE1677:
 2839              	.LBE1767:
 2840              	.LBE1848:
 2841              		.loc 3 833 3 view .LVU744
 2842              	.LVL124:
 2843              	.LBB1849:
 2844              	.LBB1768:
 2845              	.LBB1678:
 2846              	.LBB1676:
 2847              	.LBB1675:
 2848              	.LBB1674:
 2849              	.LBB1672:
 2850              	.LBI1672:
 2851              		.loc 4 491 27 view .LVU745
 2852              	.LBB1673:
 2853              		.loc 4 493 3 view .LVU746
 2854              		.syntax unified
 2855              	@ 493 "../ChibiOS/os/common/ext/ARM/CMSIS/Core/Include/cmsis_gcc.h" 1
 2856 0280 89F31188 		MSR basepri, r9
 2857              	@ 0 "" 2
 2858              	.LVL125:
 2859              		.loc 4 493 3 is_stmt 0 view .LVU747
 2860              		.thumb
 2861              		.syntax unified
 2862              	.LBE1673:
 2863              	.LBE1672:
 2864              	.LBE1674:
 2865              	.LBE1675:
 2866              	.LBE1676:
 2867              	.LBE1678:
 2868              		.loc 1 313 65 is_stmt 1 view .LVU748
 2869              		.loc 1 314 5 view .LVU749
 2870 0284 2068     		ldr	r0, [r4]
 2871 0286 A368     		ldr	r3, [r4, #8]
 2872 0288 0F49     		ldr	r1, .L43+20
 2873 028a C21A     		subs	r2, r0, r3
 2874 028c 5042     		rsbs	r0, r2, #0
 2875 028e 5041     		adcs	r0, r0, r2
 2876 0290 FFF7FEFF 		bl	__test_assert
ARM GAS  /tmp/ccTMtxXw.s 			page 52


 2877              	.LVL126:
 2878 0294 0028     		cmp	r0, #0
 2879 0296 7FF4CFAE 		bne	.L18
 2880              		.loc 1 314 78 view .LVU750
 2881              		.loc 1 315 5 view .LVU751
 2882 029a 2068     		ldr	r0, [r4]
 2883 029c E368     		ldr	r3, [r4, #12]
 2884 029e 0B49     		ldr	r1, .L43+24
 2885 02a0 C31A     		subs	r3, r0, r3
 2886 02a2 5842     		rsbs	r0, r3, #0
 2887 02a4 5841     		adcs	r0, r0, r3
 2888 02a6 FFF7FEFF 		bl	__test_assert
 2889              	.LVL127:
 2890              		.loc 1 315 5 view .LVU752
 2891              		.loc 1 315 5 is_stmt 0 view .LVU753
 2892 02aa C5E6     		b	.L18
 2893              	.LVL128:
 2894              	.L40:
 2895              		.loc 1 313 5 is_stmt 1 view .LVU754
 2896              	.LBB1679:
 2897              	.LBI1679:
 2898              		.loc 6 584 20 view .LVU755
 2899              	.LBE1679:
 2900              	.LBE1768:
 2901              	.LBE1849:
 2902              		.loc 6 586 3 view .LVU756
 2903              	.LBB1850:
 2904              	.LBB1769:
 2905              	.LBB1688:
 2906              	.LBB1680:
 2907              	.LBI1680:
 2908              		.loc 2 421 20 view .LVU757
 2909              	.LBB1681:
 2910              		.loc 2 423 23 view .LVU758
 2911              		.loc 2 424 34 view .LVU759
 2912              		.loc 2 430 3 view .LVU760
 2913              		.loc 2 430 3 view .LVU761
 2914              		.loc 2 430 3 view .LVU762
 2915              		.loc 2 434 3 view .LVU763
 2916              	.LBB1682:
 2917              	.LBI1682:
 2918              		.loc 3 830 27 view .LVU764
 2919              	.LBE1682:
 2920              	.LBE1681:
 2921              	.LBE1680:
 2922              	.LBE1688:
 2923              	.LBE1769:
 2924              	.LBE1850:
 2925              		.loc 3 833 3 view .LVU765
 2926              	.LBB1851:
 2927              	.LBB1770:
 2928              	.LBB1689:
 2929              	.LBB1687:
 2930              	.LBB1686:
 2931              	.LBB1685:
 2932              	.LBB1683:
 2933              	.LBI1683:
ARM GAS  /tmp/ccTMtxXw.s 			page 53


 2934              		.loc 4 491 27 view .LVU766
 2935              	.LBB1684:
 2936              		.loc 4 493 3 view .LVU767
 2937              		.syntax unified
 2938              	@ 493 "../ChibiOS/os/common/ext/ARM/CMSIS/Core/Include/cmsis_gcc.h" 1
 2939 02ac 89F31188 		MSR basepri, r9
 2940              	@ 0 "" 2
 2941              	.LVL129:
 2942              		.loc 4 493 3 is_stmt 0 view .LVU768
 2943              		.thumb
 2944              		.syntax unified
 2945              	.LBE1684:
 2946              	.LBE1683:
 2947              	.LBE1685:
 2948              	.LBE1686:
 2949              	.LBE1687:
 2950              	.LBE1689:
 2951              		.loc 1 313 5 is_stmt 1 view .LVU769
 2952 02b0 C2E6     		b	.L18
 2953              	.L44:
 2954 02b2 00BF     		.align	2
 2955              	.L43:
 2956 02b4 00000000 		.word	chtest
 2957 02b8 00000000 		.word	.LANCHOR0
 2958 02bc 00000000 		.word	.LC1
 2959 02c0 0C000000 		.word	.LC2
 2960 02c4 18000000 		.word	.LC3
 2961 02c8 24000000 		.word	.LC4
 2962 02cc 48000000 		.word	.LC5
 2963 02d0 00000000 		.word	.LC0
 2964 02d4 6C000000 		.word	.LC6
 2965 02d8 78000000 		.word	.LC7
 2966 02dc 84000000 		.word	.LC8
 2967 02e0 9C000000 		.word	.LC9
 2968 02e4 B0000000 		.word	.LC10
 2969              	.LBE1770:
 2970              	.LBE1851:
 2971              		.cfi_endproc
 2972              	.LFE409:
 2973              		.size	oslib_test_002_002_execute, .-oslib_test_002_002_execute
 2974              		.section	.rodata.oslib_test_002_001_execute.str1.4,"aMS",%progbits,1
 2975              		.align	2
 2976              	.LC11:
 2977 0000 6E6F7420 		.ascii	"not in reset state\000"
 2977      696E2072 
 2977      65736574 
 2977      20737461 
 2977      746500
 2978              		.section	.text.oslib_test_002_001_execute,"ax",%progbits
 2979              		.align	1
 2980              		.p2align 4,,15
 2981              		.syntax unified
 2982              		.thumb
 2983              		.thumb_func
 2984              		.fpu softvfp
 2985              		.type	oslib_test_002_001_execute, %function
 2986              	oslib_test_002_001_execute:
ARM GAS  /tmp/ccTMtxXw.s 			page 54


 2987              	.LFB406:
 2988              		.loc 1 94 46 view -0
 2989              		.cfi_startproc
 2990              		@ args = 0, pretend = 0, frame = 8
 2991              		@ frame_needed = 0, uses_anonymous_args = 0
 2992              		.loc 1 95 3 view .LVU771
 2993              		.loc 1 96 3 view .LVU772
 2994              		.loc 1 99 3 view .LVU773
 2995              		.loc 1 94 46 is_stmt 0 view .LVU774
 2996 0000 2DE9F041 		push	{r4, r5, r6, r7, r8, lr}
 2997              		.cfi_def_cfa_offset 24
 2998              		.cfi_offset 4, -24
 2999              		.cfi_offset 5, -20
 3000              		.cfi_offset 6, -16
 3001              		.cfi_offset 7, -12
 3002              		.cfi_offset 8, -8
 3003              		.cfi_offset 14, -4
 3004              		.loc 1 99 3 view .LVU775
 3005 0004 BE4F     		ldr	r7, .L68
 3006 0006 0123     		movs	r3, #1
 3007              		.loc 1 94 46 view .LVU776
 3008 0008 82B0     		sub	sp, sp, #8
 3009              		.cfi_def_cfa_offset 32
 3010              		.loc 1 99 3 view .LVU777
 3011 000a 3B60     		str	r3, [r7]
 3012              		.loc 1 101 5 is_stmt 1 view .LVU778
 3013              	.LBB2073:
 3014              	.LBI2073:
 3015              		.loc 6 573 20 view .LVU779
 3016              	.LBE2073:
 3017              		.loc 6 575 3 view .LVU780
 3018              	.LBB2081:
 3019              	.LBB2074:
 3020              	.LBI2074:
 3021              		.loc 2 407 20 view .LVU781
 3022              	.LBE2074:
 3023              	.LBE2081:
 3024              		.loc 2 409 3 view .LVU782
 3025              	.LBB2082:
 3026              	.LBB2079:
 3027              	.LBB2075:
 3028              	.LBI2075:
 3029              		.loc 3 806 27 view .LVU783
 3030              	.LBE2075:
 3031              	.LBE2079:
 3032              	.LBE2082:
 3033              		.loc 3 814 3 view .LVU784
 3034              	.LVL130:
 3035              	.LBB2083:
 3036              	.LBB2080:
 3037              	.LBB2078:
 3038              	.LBB2076:
 3039              	.LBI2076:
 3040              		.loc 4 491 27 view .LVU785
 3041              	.LBB2077:
 3042              		.loc 4 493 3 view .LVU786
 3043 000c 3026     		movs	r6, #48
ARM GAS  /tmp/ccTMtxXw.s 			page 55


 3044              		.syntax unified
 3045              	@ 493 "../ChibiOS/os/common/ext/ARM/CMSIS/Core/Include/cmsis_gcc.h" 1
 3046 000e 86F31188 		MSR basepri, r6
 3047              	@ 0 "" 2
 3048              	.LVL131:
 3049              		.loc 4 493 3 is_stmt 0 view .LVU787
 3050              		.thumb
 3051              		.syntax unified
 3052              	.LBE2077:
 3053              	.LBE2076:
 3054              	.LBE2078:
 3055              	.LBE2080:
 3056              	.LBE2083:
 3057              		.loc 2 410 35 is_stmt 1 view .LVU788
 3058              		.loc 2 411 21 view .LVU789
 3059              		.loc 1 101 5 view .LVU790
 3060              	.LBB2084:
 3061              	.LBI2084:
 3062              		.loc 5 167 22 view .LVU791
 3063              	.LBB2085:
 3064              		.loc 5 169 21 view .LVU792
 3065              		.loc 5 171 3 view .LVU793
 3066              	.LBB2086:
 3067              	.LBI2086:
 3068              		.loc 5 136 22 view .LVU794
 3069              	.LBB2087:
 3070              		.loc 5 140 3 view .LVU795
 3071              		.loc 5 140 3 is_stmt 0 view .LVU796
 3072              	.LBE2087:
 3073              	.LBE2086:
 3074              	.LBB2090:
 3075              	.LBI2090:
 3076              		.loc 5 152 22 is_stmt 1 view .LVU797
 3077              	.LBB2091:
 3078              		.loc 5 154 21 view .LVU798
 3079              		.loc 5 156 3 view .LVU799
 3080              		.loc 5 156 3 is_stmt 0 view .LVU800
 3081              	.LBE2091:
 3082              	.LBE2090:
 3083              	.LBB2092:
 3084              	.LBB2088:
 3085              		.loc 5 140 22 view .LVU801
 3086 0012 BC4C     		ldr	r4, .L68+4
 3087              	.LBE2088:
 3088              	.LBE2092:
 3089              	.LBE2085:
 3090              	.LBE2084:
 3091              		.loc 1 101 5 view .LVU802
 3092 0014 BC49     		ldr	r1, .L68+8
 3093              	.LBB2095:
 3094              	.LBB2094:
 3095              	.LBB2093:
 3096              	.LBB2089:
 3097              		.loc 5 140 28 view .LVU803
 3098 0016 D4E90030 		ldrd	r3, r0, [r4]
 3099 001a C31A     		subs	r3, r0, r3
 3100              	.LBE2089:
ARM GAS  /tmp/ccTMtxXw.s 			page 56


 3101              	.LBE2093:
 3102              		.loc 5 171 28 view .LVU804
 3103 001c 2069     		ldr	r0, [r4, #16]
 3104 001e C0EBA300 		rsb	r0, r0, r3, asr #2
 3105              	.LBE2094:
 3106              	.LBE2095:
 3107              		.loc 1 101 5 view .LVU805
 3108 0022 A0F10400 		sub	r0, #4
 3109 0026 B0FA80F0 		clz	r0, r0
 3110 002a 4009     		lsrs	r0, r0, #5
 3111 002c FFF7FEFF 		bl	__test_assert
 3112              	.LVL132:
 3113 0030 28B1     		cbz	r0, .L46
 3114              		.loc 1 101 5 is_stmt 1 view .LVU806
 3115              	.LBB2096:
 3116              	.LBI2096:
 3117              		.loc 6 584 20 view .LVU807
 3118              	.LBE2096:
 3119              		.loc 6 586 3 view .LVU808
 3120              	.LBB2105:
 3121              	.LBB2097:
 3122              	.LBI2097:
 3123              		.loc 2 421 20 view .LVU809
 3124              	.LBB2098:
 3125              		.loc 2 423 23 view .LVU810
 3126              		.loc 2 424 34 view .LVU811
 3127              		.loc 2 430 3 view .LVU812
 3128              		.loc 2 430 3 view .LVU813
 3129              		.loc 2 430 3 view .LVU814
 3130              		.loc 2 434 3 view .LVU815
 3131              	.LBB2099:
 3132              	.LBI2099:
 3133              		.loc 3 830 27 view .LVU816
 3134              	.LBE2099:
 3135              	.LBE2098:
 3136              	.LBE2097:
 3137              	.LBE2105:
 3138              		.loc 3 833 3 view .LVU817
 3139              	.LVL133:
 3140              	.LBB2106:
 3141              	.LBB2104:
 3142              	.LBB2103:
 3143              	.LBB2102:
 3144              	.LBB2100:
 3145              	.LBI2100:
 3146              		.loc 4 491 27 view .LVU818
 3147              	.LBB2101:
 3148              		.loc 4 493 3 view .LVU819
 3149 0032 0023     		movs	r3, #0
 3150              		.syntax unified
 3151              	@ 493 "../ChibiOS/os/common/ext/ARM/CMSIS/Core/Include/cmsis_gcc.h" 1
 3152 0034 83F31188 		MSR basepri, r3
 3153              	@ 0 "" 2
 3154              	.LVL134:
 3155              		.loc 4 493 3 is_stmt 0 view .LVU820
 3156              		.thumb
 3157              		.syntax unified
ARM GAS  /tmp/ccTMtxXw.s 			page 57


 3158              	.LBE2101:
 3159              	.LBE2100:
 3160              	.LBE2102:
 3161              	.LBE2103:
 3162              	.LBE2104:
 3163              	.LBE2106:
 3164              		.loc 1 101 5 is_stmt 1 view .LVU821
 3165              	.L45:
 3166              		.loc 1 188 1 is_stmt 0 view .LVU822
 3167 0038 02B0     		add	sp, sp, #8
 3168              		.cfi_remember_state
 3169              		.cfi_def_cfa_offset 24
 3170              		@ sp needed
 3171 003a BDE8F081 		pop	{r4, r5, r6, r7, r8, pc}
 3172              	.L46:
 3173              		.cfi_restore_state
 3174              	.LBB2107:
 3175              	.LBI2107:
 3176              		.loc 1 94 13 is_stmt 1 view .LVU823
 3177              	.LBB2108:
 3178              		.loc 1 101 5 view .LVU824
 3179              	.LBB2109:
 3180              	.LBI2109:
 3181              		.loc 6 584 20 view .LVU825
 3182              	.LBE2109:
 3183              	.LBE2108:
 3184              	.LBE2107:
 3185              		.loc 6 586 3 view .LVU826
 3186              	.LBB2454:
 3187              	.LBB2389:
 3188              	.LBB2118:
 3189              	.LBB2110:
 3190              	.LBI2110:
 3191              		.loc 2 421 20 view .LVU827
 3192              	.LBB2111:
 3193              		.loc 2 423 23 view .LVU828
 3194              		.loc 2 424 34 view .LVU829
 3195              		.loc 2 430 3 view .LVU830
 3196              		.loc 2 430 3 view .LVU831
 3197              		.loc 2 430 3 view .LVU832
 3198              		.loc 2 434 3 view .LVU833
 3199              	.LBB2112:
 3200              	.LBI2112:
 3201              		.loc 3 830 27 view .LVU834
 3202              	.LBE2112:
 3203              	.LBE2111:
 3204              	.LBE2110:
 3205              	.LBE2118:
 3206              	.LBE2389:
 3207              	.LBE2454:
 3208              		.loc 3 833 3 view .LVU835
 3209              	.LVL135:
 3210              	.LBB2455:
 3211              	.LBB2390:
 3212              	.LBB2119:
 3213              	.LBB2117:
 3214              	.LBB2116:
ARM GAS  /tmp/ccTMtxXw.s 			page 58


 3215              	.LBB2115:
 3216              	.LBB2113:
 3217              	.LBI2113:
 3218              		.loc 4 491 27 view .LVU836
 3219              	.LBB2114:
 3220              		.loc 4 493 3 view .LVU837
 3221 003e 0546     		mov	r5, r0
 3222              		.syntax unified
 3223              	@ 493 "../ChibiOS/os/common/ext/ARM/CMSIS/Core/Include/cmsis_gcc.h" 1
 3224 0040 80F31188 		MSR basepri, r0
 3225              	@ 0 "" 2
 3226              	.LVL136:
 3227              		.loc 4 493 3 is_stmt 0 view .LVU838
 3228              		.thumb
 3229              		.syntax unified
 3230              	.LBE2114:
 3231              	.LBE2113:
 3232              	.LBE2115:
 3233              	.LBE2116:
 3234              	.LBE2117:
 3235              	.LBE2119:
 3236              		.loc 1 101 71 is_stmt 1 view .LVU839
 3237              		.loc 1 103 3 view .LVU840
 3238              		.loc 1 103 19 view .LVU841
 3239              		.loc 1 107 3 view .LVU842
 3240 0044 0223     		movs	r3, #2
 3241              		.loc 1 109 5 is_stmt 0 view .LVU843
 3242 0046 2046     		mov	r0, r4
 3243              		.loc 1 107 3 view .LVU844
 3244 0048 3B60     		str	r3, [r7]
 3245              		.loc 1 109 5 is_stmt 1 view .LVU845
 3246 004a FFF7FEFF 		bl	chMBReset
 3247              	.LVL137:
 3248              		.loc 1 110 5 view .LVU846
 3249              	.LBB2120:
 3250              	.LBI2120:
 3251              		.loc 6 573 20 view .LVU847
 3252              	.LBE2120:
 3253              	.LBE2390:
 3254              	.LBE2455:
 3255              		.loc 6 575 3 view .LVU848
 3256              	.LBB2456:
 3257              	.LBB2391:
 3258              	.LBB2128:
 3259              	.LBB2121:
 3260              	.LBI2121:
 3261              		.loc 2 407 20 view .LVU849
 3262              	.LBE2121:
 3263              	.LBE2128:
 3264              	.LBE2391:
 3265              	.LBE2456:
 3266              		.loc 2 409 3 view .LVU850
 3267              	.LBB2457:
 3268              	.LBB2392:
 3269              	.LBB2129:
 3270              	.LBB2126:
 3271              	.LBB2122:
ARM GAS  /tmp/ccTMtxXw.s 			page 59


 3272              	.LBI2122:
 3273              		.loc 3 806 27 view .LVU851
 3274              	.LBE2122:
 3275              	.LBE2126:
 3276              	.LBE2129:
 3277              	.LBE2392:
 3278              	.LBE2457:
 3279              		.loc 3 814 3 view .LVU852
 3280              	.LBB2458:
 3281              	.LBB2393:
 3282              	.LBB2130:
 3283              	.LBB2127:
 3284              	.LBB2125:
 3285              	.LBB2123:
 3286              	.LBI2123:
 3287              		.loc 4 491 27 view .LVU853
 3288              	.LBB2124:
 3289              		.loc 4 493 3 view .LVU854
 3290              		.syntax unified
 3291              	@ 493 "../ChibiOS/os/common/ext/ARM/CMSIS/Core/Include/cmsis_gcc.h" 1
 3292 004e 86F31188 		MSR basepri, r6
 3293              	@ 0 "" 2
 3294              	.LVL138:
 3295              		.loc 4 493 3 is_stmt 0 view .LVU855
 3296              		.thumb
 3297              		.syntax unified
 3298              	.LBE2124:
 3299              	.LBE2123:
 3300              	.LBE2125:
 3301              	.LBE2127:
 3302              	.LBE2130:
 3303              	.LBE2393:
 3304              	.LBE2458:
 3305              		.loc 2 410 35 is_stmt 1 view .LVU856
 3306              		.loc 2 411 21 view .LVU857
 3307              	.LBB2459:
 3308              	.LBB2394:
 3309              		.loc 1 110 5 view .LVU858
 3310              	.LBB2131:
 3311              	.LBI2131:
 3312              		.loc 5 167 22 view .LVU859
 3313              	.LBB2132:
 3314              		.loc 5 169 21 view .LVU860
 3315              		.loc 5 171 3 view .LVU861
 3316              	.LBB2133:
 3317              	.LBI2133:
 3318              		.loc 5 136 22 view .LVU862
 3319              	.LBB2134:
 3320              		.loc 5 140 3 view .LVU863
 3321              		.loc 5 140 3 is_stmt 0 view .LVU864
 3322              	.LBE2134:
 3323              	.LBE2133:
 3324              	.LBB2136:
 3325              	.LBI2136:
 3326              		.loc 5 152 22 is_stmt 1 view .LVU865
 3327              	.LBB2137:
 3328              		.loc 5 154 21 view .LVU866
ARM GAS  /tmp/ccTMtxXw.s 			page 60


 3329              		.loc 5 156 3 view .LVU867
 3330              		.loc 5 156 3 is_stmt 0 view .LVU868
 3331              	.LBE2137:
 3332              	.LBE2136:
 3333              	.LBB2138:
 3334              	.LBB2135:
 3335              		.loc 5 140 28 view .LVU869
 3336 0052 D4E90030 		ldrd	r3, r0, [r4]
 3337 0056 C31A     		subs	r3, r0, r3
 3338              	.LBE2135:
 3339              	.LBE2138:
 3340              		.loc 5 171 28 view .LVU870
 3341 0058 2069     		ldr	r0, [r4, #16]
 3342              	.LBE2132:
 3343              	.LBE2131:
 3344              		.loc 1 110 5 view .LVU871
 3345 005a AC49     		ldr	r1, .L68+12
 3346              	.LBB2140:
 3347              	.LBB2139:
 3348              		.loc 5 171 28 view .LVU872
 3349 005c C0EBA300 		rsb	r0, r0, r3, asr #2
 3350              	.LBE2139:
 3351              	.LBE2140:
 3352              		.loc 1 110 5 view .LVU873
 3353 0060 A0F10400 		sub	r0, #4
 3354 0064 B0FA80F0 		clz	r0, r0
 3355 0068 4009     		lsrs	r0, r0, #5
 3356 006a FFF7FEFF 		bl	__test_assert
 3357              	.LVL139:
 3358 006e 8046     		mov	r8, r0
 3359 0070 88B9     		cbnz	r0, .L67
 3360              		.loc 1 110 5 is_stmt 1 view .LVU874
 3361              	.LBB2141:
 3362              	.LBI2141:
 3363              		.loc 6 584 20 view .LVU875
 3364              	.LBE2141:
 3365              	.LBE2394:
 3366              	.LBE2459:
 3367              		.loc 6 586 3 view .LVU876
 3368              	.LBB2460:
 3369              	.LBB2395:
 3370              	.LBB2150:
 3371              	.LBB2142:
 3372              	.LBI2142:
 3373              		.loc 2 421 20 view .LVU877
 3374              	.LBB2143:
 3375              		.loc 2 423 23 view .LVU878
 3376              		.loc 2 424 34 view .LVU879
 3377              		.loc 2 430 3 view .LVU880
 3378              		.loc 2 430 3 view .LVU881
 3379              		.loc 2 430 3 view .LVU882
 3380              		.loc 2 434 3 view .LVU883
 3381              	.LBB2144:
 3382              	.LBI2144:
 3383              		.loc 3 830 27 view .LVU884
 3384              	.LBE2144:
 3385              	.LBE2143:
ARM GAS  /tmp/ccTMtxXw.s 			page 61


 3386              	.LBE2142:
 3387              	.LBE2150:
 3388              	.LBE2395:
 3389              	.LBE2460:
 3390              		.loc 3 833 3 view .LVU885
 3391              	.LVL140:
 3392              	.LBB2461:
 3393              	.LBB2396:
 3394              	.LBB2151:
 3395              	.LBB2149:
 3396              	.LBB2148:
 3397              	.LBB2147:
 3398              	.LBB2145:
 3399              	.LBI2145:
 3400              		.loc 4 491 27 view .LVU886
 3401              	.LBB2146:
 3402              		.loc 4 493 3 view .LVU887
 3403              		.syntax unified
 3404              	@ 493 "../ChibiOS/os/common/ext/ARM/CMSIS/Core/Include/cmsis_gcc.h" 1
 3405 0072 80F31188 		MSR basepri, r0
 3406              	@ 0 "" 2
 3407              	.LVL141:
 3408              		.loc 4 493 3 is_stmt 0 view .LVU888
 3409              		.thumb
 3410              		.syntax unified
 3411              	.LBE2146:
 3412              	.LBE2145:
 3413              	.LBE2147:
 3414              	.LBE2148:
 3415              	.LBE2149:
 3416              	.LBE2151:
 3417              		.loc 1 110 70 is_stmt 1 view .LVU889
 3418              		.loc 1 111 5 view .LVU890
 3419              	.LBB2152:
 3420              	.LBI2152:
 3421              		.loc 6 573 20 view .LVU891
 3422              	.LBE2152:
 3423              	.LBE2396:
 3424              	.LBE2461:
 3425              		.loc 6 575 3 view .LVU892
 3426              	.LBB2462:
 3427              	.LBB2397:
 3428              	.LBB2160:
 3429              	.LBB2153:
 3430              	.LBI2153:
 3431              		.loc 2 407 20 view .LVU893
 3432              	.LBE2153:
 3433              	.LBE2160:
 3434              	.LBE2397:
 3435              	.LBE2462:
 3436              		.loc 2 409 3 view .LVU894
 3437              	.LBB2463:
 3438              	.LBB2398:
 3439              	.LBB2161:
 3440              	.LBB2158:
 3441              	.LBB2154:
 3442              	.LBI2154:
ARM GAS  /tmp/ccTMtxXw.s 			page 62


 3443              		.loc 3 806 27 view .LVU895
 3444              	.LBE2154:
 3445              	.LBE2158:
 3446              	.LBE2161:
 3447              	.LBE2398:
 3448              	.LBE2463:
 3449              		.loc 3 814 3 view .LVU896
 3450              	.LBB2464:
 3451              	.LBB2399:
 3452              	.LBB2162:
 3453              	.LBB2159:
 3454              	.LBB2157:
 3455              	.LBB2155:
 3456              	.LBI2155:
 3457              		.loc 4 491 27 view .LVU897
 3458              	.LBB2156:
 3459              		.loc 4 493 3 view .LVU898
 3460              		.syntax unified
 3461              	@ 493 "../ChibiOS/os/common/ext/ARM/CMSIS/Core/Include/cmsis_gcc.h" 1
 3462 0076 86F31188 		MSR basepri, r6
 3463              	@ 0 "" 2
 3464              	.LVL142:
 3465              		.loc 4 493 3 is_stmt 0 view .LVU899
 3466              		.thumb
 3467              		.syntax unified
 3468              	.LBE2156:
 3469              	.LBE2155:
 3470              	.LBE2157:
 3471              	.LBE2159:
 3472              	.LBE2162:
 3473              	.LBE2399:
 3474              	.LBE2464:
 3475              		.loc 2 410 35 is_stmt 1 view .LVU900
 3476              		.loc 2 411 21 view .LVU901
 3477              	.LBB2465:
 3478              	.LBB2400:
 3479              		.loc 1 111 5 view .LVU902
 3480              	.LBB2163:
 3481              	.LBI2163:
 3482              		.loc 5 152 22 view .LVU903
 3483              	.LBB2164:
 3484              		.loc 5 154 21 view .LVU904
 3485              		.loc 5 156 3 view .LVU905
 3486              		.loc 5 156 3 is_stmt 0 view .LVU906
 3487              	.LBE2164:
 3488              	.LBE2163:
 3489              		.loc 1 111 5 view .LVU907
 3490 007a 2069     		ldr	r0, [r4, #16]
 3491 007c A449     		ldr	r1, .L68+16
 3492 007e B0FA80F0 		clz	r0, r0
 3493 0082 4009     		lsrs	r0, r0, #5
 3494 0084 FFF7FEFF 		bl	__test_assert
 3495              	.LVL143:
 3496 0088 0546     		mov	r5, r0
 3497 008a 48B1     		cbz	r0, .L50
 3498              	.L66:
 3499              		.loc 1 113 5 is_stmt 1 view .LVU908
ARM GAS  /tmp/ccTMtxXw.s 			page 63


 3500              	.LBB2165:
 3501              	.LBI2165:
 3502              		.loc 6 584 20 view .LVU909
 3503              	.LBE2165:
 3504              	.LBE2400:
 3505              	.LBE2465:
 3506              		.loc 6 586 3 view .LVU910
 3507              	.LBB2466:
 3508              	.LBB2401:
 3509              	.LBB2174:
 3510              	.LBB2166:
 3511              	.LBI2166:
 3512              		.loc 2 421 20 view .LVU911
 3513              	.LBB2167:
 3514              		.loc 2 423 23 view .LVU912
 3515              		.loc 2 424 34 view .LVU913
 3516              		.loc 2 430 3 view .LVU914
 3517              		.loc 2 430 3 view .LVU915
 3518              		.loc 2 430 3 view .LVU916
 3519              		.loc 2 434 3 view .LVU917
 3520              	.LBB2168:
 3521              	.LBI2168:
 3522              		.loc 3 830 27 view .LVU918
 3523              	.LBE2168:
 3524              	.LBE2167:
 3525              	.LBE2166:
 3526              	.LBE2174:
 3527              	.LBE2401:
 3528              	.LBE2466:
 3529              		.loc 3 833 3 view .LVU919
 3530              	.LVL144:
 3531              	.LBB2467:
 3532              	.LBB2402:
 3533              	.LBB2175:
 3534              	.LBB2173:
 3535              	.LBB2172:
 3536              	.LBB2171:
 3537              	.LBB2169:
 3538              	.LBI2169:
 3539              		.loc 4 491 27 view .LVU920
 3540              	.LBB2170:
 3541              		.loc 4 493 3 view .LVU921
 3542              		.syntax unified
 3543              	@ 493 "../ChibiOS/os/common/ext/ARM/CMSIS/Core/Include/cmsis_gcc.h" 1
 3544 008c 88F31188 		MSR basepri, r8
 3545              	@ 0 "" 2
 3546              	.LVL145:
 3547              		.loc 4 493 3 is_stmt 0 view .LVU922
 3548              		.thumb
 3549              		.syntax unified
 3550              	.LBE2170:
 3551              	.LBE2169:
 3552              	.LBE2171:
 3553              	.LBE2172:
 3554              	.LBE2173:
 3555              	.LBE2175:
 3556              		.loc 1 113 5 is_stmt 1 view .LVU923
ARM GAS  /tmp/ccTMtxXw.s 			page 64


 3557              	.LBE2402:
 3558              	.LBE2467:
 3559              		.loc 1 188 1 is_stmt 0 view .LVU924
 3560 0090 02B0     		add	sp, sp, #8
 3561              		.cfi_remember_state
 3562              		.cfi_def_cfa_offset 24
 3563              		@ sp needed
 3564 0092 BDE8F081 		pop	{r4, r5, r6, r7, r8, pc}
 3565              	.L67:
 3566              		.cfi_restore_state
 3567              	.LBB2468:
 3568              	.LBB2403:
 3569              		.loc 1 183 5 is_stmt 1 view .LVU925
 3570              	.LBB2176:
 3571              	.LBI2176:
 3572              		.loc 6 584 20 view .LVU926
 3573              	.LBE2176:
 3574              	.LBE2403:
 3575              	.LBE2468:
 3576              		.loc 6 586 3 view .LVU927
 3577              	.LBB2469:
 3578              	.LBB2404:
 3579              	.LBB2185:
 3580              	.LBB2177:
 3581              	.LBI2177:
 3582              		.loc 2 421 20 view .LVU928
 3583              	.LBB2178:
 3584              		.loc 2 423 23 view .LVU929
 3585              		.loc 2 424 34 view .LVU930
 3586              		.loc 2 430 3 view .LVU931
 3587              		.loc 2 430 3 view .LVU932
 3588              		.loc 2 430 3 view .LVU933
 3589              		.loc 2 434 3 view .LVU934
 3590              	.LBB2179:
 3591              	.LBI2179:
 3592              		.loc 3 830 27 view .LVU935
 3593              	.LBE2179:
 3594              	.LBE2178:
 3595              	.LBE2177:
 3596              	.LBE2185:
 3597              	.LBE2404:
 3598              	.LBE2469:
 3599              		.loc 3 833 3 view .LVU936
 3600              	.LVL146:
 3601              	.LBB2470:
 3602              	.LBB2405:
 3603              	.LBB2186:
 3604              	.LBB2184:
 3605              	.LBB2183:
 3606              	.LBB2182:
 3607              	.LBB2180:
 3608              	.LBI2180:
 3609              		.loc 4 491 27 view .LVU937
 3610              	.LBB2181:
 3611              		.loc 4 493 3 view .LVU938
 3612              		.syntax unified
 3613              	@ 493 "../ChibiOS/os/common/ext/ARM/CMSIS/Core/Include/cmsis_gcc.h" 1
ARM GAS  /tmp/ccTMtxXw.s 			page 65


 3614 0096 85F31188 		MSR basepri, r5
 3615              	@ 0 "" 2
 3616              	.LVL147:
 3617              		.loc 4 493 3 is_stmt 0 view .LVU939
 3618              		.thumb
 3619              		.syntax unified
 3620              	.LBE2181:
 3621              	.LBE2180:
 3622              	.LBE2182:
 3623              	.LBE2183:
 3624              	.LBE2184:
 3625              	.LBE2186:
 3626              		.loc 1 183 5 is_stmt 1 view .LVU940
 3627              	.LBE2405:
 3628              	.LBE2470:
 3629              		.loc 1 188 1 is_stmt 0 view .LVU941
 3630 009a 02B0     		add	sp, sp, #8
 3631              		.cfi_remember_state
 3632              		.cfi_def_cfa_offset 24
 3633              		@ sp needed
 3634 009c BDE8F081 		pop	{r4, r5, r6, r7, r8, pc}
 3635              	.L50:
 3636              		.cfi_restore_state
 3637              	.LBB2471:
 3638              	.LBB2406:
 3639              		.loc 1 111 5 is_stmt 1 view .LVU942
 3640              	.LBB2187:
 3641              	.LBI2187:
 3642              		.loc 6 584 20 view .LVU943
 3643              	.LBE2187:
 3644              	.LBE2406:
 3645              	.LBE2471:
 3646              		.loc 6 586 3 view .LVU944
 3647              	.LBB2472:
 3648              	.LBB2407:
 3649              	.LBB2196:
 3650              	.LBB2188:
 3651              	.LBI2188:
 3652              		.loc 2 421 20 view .LVU945
 3653              	.LBB2189:
 3654              		.loc 2 423 23 view .LVU946
 3655              		.loc 2 424 34 view .LVU947
 3656              		.loc 2 430 3 view .LVU948
 3657              		.loc 2 430 3 view .LVU949
 3658              		.loc 2 430 3 view .LVU950
 3659              		.loc 2 434 3 view .LVU951
 3660              	.LBB2190:
 3661              	.LBI2190:
 3662              		.loc 3 830 27 view .LVU952
 3663              	.LBE2190:
 3664              	.LBE2189:
 3665              	.LBE2188:
 3666              	.LBE2196:
 3667              	.LBE2407:
 3668              	.LBE2472:
 3669              		.loc 3 833 3 view .LVU953
 3670              	.LVL148:
ARM GAS  /tmp/ccTMtxXw.s 			page 66


 3671              	.LBB2473:
 3672              	.LBB2408:
 3673              	.LBB2197:
 3674              	.LBB2195:
 3675              	.LBB2194:
 3676              	.LBB2193:
 3677              	.LBB2191:
 3678              	.LBI2191:
 3679              		.loc 4 491 27 view .LVU954
 3680              	.LBB2192:
 3681              		.loc 4 493 3 view .LVU955
 3682              		.syntax unified
 3683              	@ 493 "../ChibiOS/os/common/ext/ARM/CMSIS/Core/Include/cmsis_gcc.h" 1
 3684 00a0 80F31188 		MSR basepri, r0
 3685              	@ 0 "" 2
 3686              	.LVL149:
 3687              		.loc 4 493 3 is_stmt 0 view .LVU956
 3688              		.thumb
 3689              		.syntax unified
 3690              	.LBE2192:
 3691              	.LBE2191:
 3692              	.LBE2193:
 3693              	.LBE2194:
 3694              	.LBE2195:
 3695              	.LBE2197:
 3696              		.loc 1 111 65 is_stmt 1 view .LVU957
 3697              		.loc 1 112 5 view .LVU958
 3698              	.LBB2198:
 3699              	.LBI2198:
 3700              		.loc 6 573 20 view .LVU959
 3701              	.LBE2198:
 3702              	.LBE2408:
 3703              	.LBE2473:
 3704              		.loc 6 575 3 view .LVU960
 3705              	.LBB2474:
 3706              	.LBB2409:
 3707              	.LBB2206:
 3708              	.LBB2199:
 3709              	.LBI2199:
 3710              		.loc 2 407 20 view .LVU961
 3711              	.LBE2199:
 3712              	.LBE2206:
 3713              	.LBE2409:
 3714              	.LBE2474:
 3715              		.loc 2 409 3 view .LVU962
 3716              	.LBB2475:
 3717              	.LBB2410:
 3718              	.LBB2207:
 3719              	.LBB2204:
 3720              	.LBB2200:
 3721              	.LBI2200:
 3722              		.loc 3 806 27 view .LVU963
 3723              	.LBE2200:
 3724              	.LBE2204:
 3725              	.LBE2207:
 3726              	.LBE2410:
 3727              	.LBE2475:
ARM GAS  /tmp/ccTMtxXw.s 			page 67


 3728              		.loc 3 814 3 view .LVU964
 3729              	.LBB2476:
 3730              	.LBB2411:
 3731              	.LBB2208:
 3732              	.LBB2205:
 3733              	.LBB2203:
 3734              	.LBB2201:
 3735              	.LBI2201:
 3736              		.loc 4 491 27 view .LVU965
 3737              	.LBB2202:
 3738              		.loc 4 493 3 view .LVU966
 3739              		.syntax unified
 3740              	@ 493 "../ChibiOS/os/common/ext/ARM/CMSIS/Core/Include/cmsis_gcc.h" 1
 3741 00a4 86F31188 		MSR basepri, r6
 3742              	@ 0 "" 2
 3743              	.LVL150:
 3744              		.loc 4 493 3 is_stmt 0 view .LVU967
 3745              		.thumb
 3746              		.syntax unified
 3747              	.LBE2202:
 3748              	.LBE2201:
 3749              	.LBE2203:
 3750              	.LBE2205:
 3751              	.LBE2208:
 3752              	.LBE2411:
 3753              	.LBE2476:
 3754              		.loc 2 410 35 is_stmt 1 view .LVU968
 3755              		.loc 2 411 21 view .LVU969
 3756              	.LBB2477:
 3757              	.LBB2412:
 3758              		.loc 1 112 5 view .LVU970
 3759 00a8 2068     		ldr	r0, [r4]
 3760 00aa A368     		ldr	r3, [r4, #8]
 3761 00ac 9949     		ldr	r1, .L68+20
 3762 00ae C01A     		subs	r0, r0, r3
 3763 00b0 B0FA80F0 		clz	r0, r0
 3764 00b4 4009     		lsrs	r0, r0, #5
 3765 00b6 FFF7FEFF 		bl	__test_assert
 3766              	.LVL151:
 3767 00ba 8046     		mov	r8, r0
 3768 00bc 0028     		cmp	r0, #0
 3769 00be EAD1     		bne	.L67
 3770              		.loc 1 112 5 view .LVU971
 3771              	.LBB2209:
 3772              	.LBI2209:
 3773              		.loc 6 584 20 view .LVU972
 3774              	.LBE2209:
 3775              	.LBE2412:
 3776              	.LBE2477:
 3777              		.loc 6 586 3 view .LVU973
 3778              	.LBB2478:
 3779              	.LBB2413:
 3780              	.LBB2218:
 3781              	.LBB2210:
 3782              	.LBI2210:
 3783              		.loc 2 421 20 view .LVU974
 3784              	.LBB2211:
ARM GAS  /tmp/ccTMtxXw.s 			page 68


 3785              		.loc 2 423 23 view .LVU975
 3786              		.loc 2 424 34 view .LVU976
 3787              		.loc 2 430 3 view .LVU977
 3788              		.loc 2 430 3 view .LVU978
 3789              		.loc 2 430 3 view .LVU979
 3790              		.loc 2 434 3 view .LVU980
 3791              	.LBB2212:
 3792              	.LBI2212:
 3793              		.loc 3 830 27 view .LVU981
 3794              	.LBE2212:
 3795              	.LBE2211:
 3796              	.LBE2210:
 3797              	.LBE2218:
 3798              	.LBE2413:
 3799              	.LBE2478:
 3800              		.loc 3 833 3 view .LVU982
 3801              	.LVL152:
 3802              	.LBB2479:
 3803              	.LBB2414:
 3804              	.LBB2219:
 3805              	.LBB2217:
 3806              	.LBB2216:
 3807              	.LBB2215:
 3808              	.LBB2213:
 3809              	.LBI2213:
 3810              		.loc 4 491 27 view .LVU983
 3811              	.LBB2214:
 3812              		.loc 4 493 3 view .LVU984
 3813              		.syntax unified
 3814              	@ 493 "../ChibiOS/os/common/ext/ARM/CMSIS/Core/Include/cmsis_gcc.h" 1
 3815 00c0 80F31188 		MSR basepri, r0
 3816              	@ 0 "" 2
 3817              	.LVL153:
 3818              		.loc 4 493 3 is_stmt 0 view .LVU985
 3819              		.thumb
 3820              		.syntax unified
 3821              	.LBE2214:
 3822              	.LBE2213:
 3823              	.LBE2215:
 3824              	.LBE2216:
 3825              	.LBE2217:
 3826              	.LBE2219:
 3827              		.loc 1 112 83 is_stmt 1 view .LVU986
 3828              		.loc 1 113 5 view .LVU987
 3829              	.LBB2220:
 3830              	.LBI2220:
 3831              		.loc 6 573 20 view .LVU988
 3832              	.LBE2220:
 3833              	.LBE2414:
 3834              	.LBE2479:
 3835              		.loc 6 575 3 view .LVU989
 3836              	.LBB2480:
 3837              	.LBB2415:
 3838              	.LBB2228:
 3839              	.LBB2221:
 3840              	.LBI2221:
 3841              		.loc 2 407 20 view .LVU990
ARM GAS  /tmp/ccTMtxXw.s 			page 69


 3842              	.LBE2221:
 3843              	.LBE2228:
 3844              	.LBE2415:
 3845              	.LBE2480:
 3846              		.loc 2 409 3 view .LVU991
 3847              	.LBB2481:
 3848              	.LBB2416:
 3849              	.LBB2229:
 3850              	.LBB2226:
 3851              	.LBB2222:
 3852              	.LBI2222:
 3853              		.loc 3 806 27 view .LVU992
 3854              	.LBE2222:
 3855              	.LBE2226:
 3856              	.LBE2229:
 3857              	.LBE2416:
 3858              	.LBE2481:
 3859              		.loc 3 814 3 view .LVU993
 3860              	.LBB2482:
 3861              	.LBB2417:
 3862              	.LBB2230:
 3863              	.LBB2227:
 3864              	.LBB2225:
 3865              	.LBB2223:
 3866              	.LBI2223:
 3867              		.loc 4 491 27 view .LVU994
 3868              	.LBB2224:
 3869              		.loc 4 493 3 view .LVU995
 3870              		.syntax unified
 3871              	@ 493 "../ChibiOS/os/common/ext/ARM/CMSIS/Core/Include/cmsis_gcc.h" 1
 3872 00c4 86F31188 		MSR basepri, r6
 3873              	@ 0 "" 2
 3874              	.LVL154:
 3875              		.loc 4 493 3 is_stmt 0 view .LVU996
 3876              		.thumb
 3877              		.syntax unified
 3878              	.LBE2224:
 3879              	.LBE2223:
 3880              	.LBE2225:
 3881              	.LBE2227:
 3882              	.LBE2230:
 3883              	.LBE2417:
 3884              	.LBE2482:
 3885              		.loc 2 410 35 is_stmt 1 view .LVU997
 3886              		.loc 2 411 21 view .LVU998
 3887              	.LBB2483:
 3888              	.LBB2418:
 3889              		.loc 1 113 5 view .LVU999
 3890 00c8 2068     		ldr	r0, [r4]
 3891 00ca E368     		ldr	r3, [r4, #12]
 3892 00cc 9249     		ldr	r1, .L68+24
 3893 00ce C01A     		subs	r0, r0, r3
 3894 00d0 B0FA80F0 		clz	r0, r0
 3895 00d4 4009     		lsrs	r0, r0, #5
 3896 00d6 FFF7FEFF 		bl	__test_assert
 3897              	.LVL155:
 3898 00da 0028     		cmp	r0, #0
ARM GAS  /tmp/ccTMtxXw.s 			page 70


 3899 00dc D6D1     		bne	.L66
 3900              		.loc 1 113 5 view .LVU1000
 3901              	.LBB2231:
 3902              	.LBI2231:
 3903              		.loc 6 584 20 view .LVU1001
 3904              	.LBE2231:
 3905              	.LBE2418:
 3906              	.LBE2483:
 3907              		.loc 6 586 3 view .LVU1002
 3908              	.LBB2484:
 3909              	.LBB2419:
 3910              	.LBB2240:
 3911              	.LBB2232:
 3912              	.LBI2232:
 3913              		.loc 2 421 20 view .LVU1003
 3914              	.LBB2233:
 3915              		.loc 2 423 23 view .LVU1004
 3916              		.loc 2 424 34 view .LVU1005
 3917              		.loc 2 430 3 view .LVU1006
 3918              		.loc 2 430 3 view .LVU1007
 3919              		.loc 2 430 3 view .LVU1008
 3920              		.loc 2 434 3 view .LVU1009
 3921              	.LBB2234:
 3922              	.LBI2234:
 3923              		.loc 3 830 27 view .LVU1010
 3924              	.LBE2234:
 3925              	.LBE2233:
 3926              	.LBE2232:
 3927              	.LBE2240:
 3928              	.LBE2419:
 3929              	.LBE2484:
 3930              		.loc 3 833 3 view .LVU1011
 3931              	.LVL156:
 3932              	.LBB2485:
 3933              	.LBB2420:
 3934              	.LBB2241:
 3935              	.LBB2239:
 3936              	.LBB2238:
 3937              	.LBB2237:
 3938              	.LBB2235:
 3939              	.LBI2235:
 3940              		.loc 4 491 27 view .LVU1012
 3941              	.LBB2236:
 3942              		.loc 4 493 3 view .LVU1013
 3943              		.syntax unified
 3944              	@ 493 "../ChibiOS/os/common/ext/ARM/CMSIS/Core/Include/cmsis_gcc.h" 1
 3945 00de 80F31188 		MSR basepri, r0
 3946              	@ 0 "" 2
 3947              	.LVL157:
 3948              		.loc 4 493 3 is_stmt 0 view .LVU1014
 3949              		.thumb
 3950              		.syntax unified
 3951              	.LBE2236:
 3952              	.LBE2235:
 3953              	.LBE2237:
 3954              	.LBE2238:
 3955              	.LBE2239:
ARM GAS  /tmp/ccTMtxXw.s 			page 71


 3956              	.LBE2241:
 3957              		.loc 1 113 82 is_stmt 1 view .LVU1015
 3958              		.loc 1 115 3 view .LVU1016
 3959              		.loc 1 115 19 view .LVU1017
 3960              		.loc 1 119 3 view .LVU1018
 3961 00e2 0323     		movs	r3, #3
 3962              		.loc 1 121 12 is_stmt 0 view .LVU1019
 3963 00e4 0146     		mov	r1, r0
 3964 00e6 4FF0FF32 		mov	r2, #-1
 3965 00ea 2046     		mov	r0, r4
 3966              		.loc 1 119 3 view .LVU1020
 3967 00ec 3B60     		str	r3, [r7]
 3968              		.loc 1 121 5 is_stmt 1 view .LVU1021
 3969              		.loc 1 121 12 is_stmt 0 view .LVU1022
 3970 00ee FFF7FEFF 		bl	chMBPostTimeout
 3971              	.LVL158:
 3972              		.loc 1 122 5 is_stmt 1 view .LVU1023
 3973 00f2 851C     		adds	r5, r0, #2
 3974 00f4 14BF     		ite	ne
 3975 00f6 0020     		movne	r0, #0
 3976              	.LVL159:
 3977              		.loc 1 122 5 is_stmt 0 view .LVU1024
 3978 00f8 0120     		moveq	r0, #1
 3979 00fa 8849     		ldr	r1, .L68+28
 3980 00fc FFF7FEFF 		bl	__test_assert
 3981              	.LVL160:
 3982 0100 0028     		cmp	r0, #0
 3983 0102 99D1     		bne	.L45
 3984              		.loc 1 122 57 is_stmt 1 view .LVU1025
 3985              		.loc 1 123 5 view .LVU1026
 3986              		.loc 1 123 12 is_stmt 0 view .LVU1027
 3987 0104 0146     		mov	r1, r0
 3988 0106 4FF0FF32 		mov	r2, #-1
 3989 010a 2046     		mov	r0, r4
 3990 010c FFF7FEFF 		bl	chMBPostAheadTimeout
 3991              	.LVL161:
 3992              		.loc 1 124 5 is_stmt 1 view .LVU1028
 3993 0110 821C     		adds	r2, r0, #2
 3994 0112 14BF     		ite	ne
 3995 0114 0020     		movne	r0, #0
 3996              	.LVL162:
 3997              		.loc 1 124 5 is_stmt 0 view .LVU1029
 3998 0116 0120     		moveq	r0, #1
 3999 0118 8049     		ldr	r1, .L68+28
 4000 011a FFF7FEFF 		bl	__test_assert
 4001              	.LVL163:
 4002              		.loc 1 124 5 view .LVU1030
 4003 011e 0028     		cmp	r0, #0
 4004 0120 8AD1     		bne	.L45
 4005              		.loc 1 124 57 is_stmt 1 view .LVU1031
 4006              		.loc 1 125 5 view .LVU1032
 4007              		.loc 1 125 12 is_stmt 0 view .LVU1033
 4008 0122 01A9     		add	r1, sp, #4
 4009 0124 4FF0FF32 		mov	r2, #-1
 4010 0128 2046     		mov	r0, r4
 4011 012a FFF7FEFF 		bl	chMBFetchTimeout
 4012              	.LVL164:
ARM GAS  /tmp/ccTMtxXw.s 			page 72


 4013              		.loc 1 126 5 is_stmt 1 view .LVU1034
 4014 012e 831C     		adds	r3, r0, #2
 4015 0130 14BF     		ite	ne
 4016 0132 0020     		movne	r0, #0
 4017              	.LVL165:
 4018              		.loc 1 126 5 is_stmt 0 view .LVU1035
 4019 0134 0120     		moveq	r0, #1
 4020 0136 7949     		ldr	r1, .L68+28
 4021 0138 FFF7FEFF 		bl	__test_assert
 4022              	.LVL166:
 4023              		.loc 1 126 5 view .LVU1036
 4024 013c 0028     		cmp	r0, #0
 4025 013e 7FF47BAF 		bne	.L45
 4026              		.loc 1 126 57 is_stmt 1 view .LVU1037
 4027              		.loc 1 127 5 view .LVU1038
 4028              	.LVL167:
 4029              	.LBB2242:
 4030              	.LBI2242:
 4031              		.loc 5 200 20 view .LVU1039
 4032              	.LBB2243:
 4033              		.loc 5 202 3 view .LVU1040
 4034              	.LBE2243:
 4035              	.LBE2242:
 4036              		.loc 1 133 3 is_stmt 0 view .LVU1041
 4037 0142 0423     		movs	r3, #4
 4038              		.loc 1 137 7 view .LVU1042
 4039 0144 764E     		ldr	r6, .L68+32
 4040              	.LBB2245:
 4041              	.LBB2244:
 4042              		.loc 5 202 14 view .LVU1043
 4043 0146 2075     		strb	r0, [r4, #20]
 4044              	.LVL168:
 4045              		.loc 5 202 14 view .LVU1044
 4046              	.LBE2244:
 4047              	.LBE2245:
 4048              		.loc 1 129 3 is_stmt 1 view .LVU1045
 4049              		.loc 1 129 19 view .LVU1046
 4050              		.loc 1 133 3 view .LVU1047
 4051 0148 3B60     		str	r3, [r7]
 4052              		.loc 1 135 5 view .LVU1048
 4053              	.LVL169:
 4054              		.loc 1 135 17 view .LVU1049
 4055              		.loc 1 133 3 is_stmt 0 view .LVU1050
 4056 014a 4225     		movs	r5, #66
 4057              	.LVL170:
 4058              	.L55:
 4059              		.loc 1 136 7 is_stmt 1 view .LVU1051
 4060              		.loc 1 136 14 is_stmt 0 view .LVU1052
 4061 014c 2946     		mov	r1, r5
 4062 014e 4FF0FF32 		mov	r2, #-1
 4063 0152 2046     		mov	r0, r4
 4064 0154 FFF7FEFF 		bl	chMBPostTimeout
 4065              	.LVL171:
 4066              		.loc 1 137 7 is_stmt 1 view .LVU1053
 4067 0158 B0FA80F0 		clz	r0, r0
 4068              	.LVL172:
 4069              		.loc 1 137 7 is_stmt 0 view .LVU1054
ARM GAS  /tmp/ccTMtxXw.s 			page 73


 4070 015c 3146     		mov	r1, r6
 4071 015e 4009     		lsrs	r0, r0, #5
 4072              		.loc 1 135 5 view .LVU1055
 4073 0160 0135     		adds	r5, r5, #1
 4074              	.LVL173:
 4075              		.loc 1 137 7 view .LVU1056
 4076 0162 FFF7FEFF 		bl	__test_assert
 4077              	.LVL174:
 4078              		.loc 1 137 59 is_stmt 1 view .LVU1057
 4079              		.loc 1 135 34 view .LVU1058
 4080              		.loc 1 135 17 view .LVU1059
 4081              		.loc 1 137 7 is_stmt 0 view .LVU1060
 4082 0166 0028     		cmp	r0, #0
 4083 0168 7FF466AF 		bne	.L45
 4084              		.loc 1 135 5 view .LVU1061
 4085 016c 452D     		cmp	r5, #69
 4086 016e EDD1     		bne	.L55
 4087              		.loc 1 139 5 is_stmt 1 view .LVU1062
 4088              		.loc 1 139 12 is_stmt 0 view .LVU1063
 4089 0170 4FF0FF32 		mov	r2, #-1
 4090 0174 4121     		movs	r1, #65
 4091 0176 6348     		ldr	r0, .L68+4
 4092 0178 FFF7FEFF 		bl	chMBPostAheadTimeout
 4093              	.LVL175:
 4094              		.loc 1 140 5 is_stmt 1 view .LVU1064
 4095 017c B0FA80F0 		clz	r0, r0
 4096              	.LVL176:
 4097              		.loc 1 140 5 is_stmt 0 view .LVU1065
 4098 0180 6749     		ldr	r1, .L68+32
 4099 0182 4009     		lsrs	r0, r0, #5
 4100 0184 FFF7FEFF 		bl	__test_assert
 4101              	.LVL177:
 4102 0188 0546     		mov	r5, r0
 4103 018a 0028     		cmp	r0, #0
 4104 018c 7FF454AF 		bne	.L45
 4105              		.loc 1 140 57 is_stmt 1 view .LVU1066
 4106              		.loc 1 142 3 view .LVU1067
 4107              		.loc 1 142 19 view .LVU1068
 4108              		.loc 1 146 3 view .LVU1069
 4109 0190 0523     		movs	r3, #5
 4110 0192 3B60     		str	r3, [r7]
 4111              		.loc 1 148 5 view .LVU1070
 4112              	.LBB2246:
 4113              	.LBI2246:
 4114              		.loc 6 573 20 view .LVU1071
 4115              	.LBE2246:
 4116              	.LBE2420:
 4117              	.LBE2485:
 4118              		.loc 6 575 3 view .LVU1072
 4119              	.LBB2486:
 4120              	.LBB2421:
 4121              	.LBB2254:
 4122              	.LBB2247:
 4123              	.LBI2247:
 4124              		.loc 2 407 20 view .LVU1073
 4125              	.LBE2247:
 4126              	.LBE2254:
ARM GAS  /tmp/ccTMtxXw.s 			page 74


 4127              	.LBE2421:
 4128              	.LBE2486:
 4129              		.loc 2 409 3 view .LVU1074
 4130              	.LBB2487:
 4131              	.LBB2422:
 4132              	.LBB2255:
 4133              	.LBB2252:
 4134              	.LBB2248:
 4135              	.LBI2248:
 4136              		.loc 3 806 27 view .LVU1075
 4137              	.LBE2248:
 4138              	.LBE2252:
 4139              	.LBE2255:
 4140              	.LBE2422:
 4141              	.LBE2487:
 4142              		.loc 3 814 3 view .LVU1076
 4143              	.LVL178:
 4144              	.LBB2488:
 4145              	.LBB2423:
 4146              	.LBB2256:
 4147              	.LBB2253:
 4148              	.LBB2251:
 4149              	.LBB2249:
 4150              	.LBI2249:
 4151              		.loc 4 491 27 view .LVU1077
 4152              	.LBB2250:
 4153              		.loc 4 493 3 view .LVU1078
 4154 0194 4FF03008 		mov	r8, #48
 4155              		.syntax unified
 4156              	@ 493 "../ChibiOS/os/common/ext/ARM/CMSIS/Core/Include/cmsis_gcc.h" 1
 4157 0198 88F31188 		MSR basepri, r8
 4158              	@ 0 "" 2
 4159              	.LVL179:
 4160              		.loc 4 493 3 is_stmt 0 view .LVU1079
 4161              		.thumb
 4162              		.syntax unified
 4163              	.LBE2250:
 4164              	.LBE2249:
 4165              	.LBE2251:
 4166              	.LBE2253:
 4167              	.LBE2256:
 4168              	.LBE2423:
 4169              	.LBE2488:
 4170              		.loc 2 410 35 is_stmt 1 view .LVU1080
 4171              		.loc 2 411 21 view .LVU1081
 4172              	.LBB2489:
 4173              	.LBB2424:
 4174              		.loc 1 148 5 view .LVU1082
 4175              	.LBB2257:
 4176              	.LBI2257:
 4177              		.loc 5 167 22 view .LVU1083
 4178              	.LBE2257:
 4179              	.LBE2424:
 4180              	.LBE2489:
 4181              		.loc 5 169 21 view .LVU1084
 4182              		.loc 5 171 3 view .LVU1085
 4183              	.LBB2490:
ARM GAS  /tmp/ccTMtxXw.s 			page 75


 4184              	.LBB2425:
 4185              	.LBB2264:
 4186              	.LBB2258:
 4187              	.LBI2258:
 4188              		.loc 5 136 22 view .LVU1086
 4189              	.LBB2259:
 4190              		.loc 5 140 3 view .LVU1087
 4191              		.loc 5 140 3 is_stmt 0 view .LVU1088
 4192              	.LBE2259:
 4193              	.LBE2258:
 4194              	.LBB2261:
 4195              	.LBI2261:
 4196              		.loc 5 152 22 is_stmt 1 view .LVU1089
 4197              	.LBB2262:
 4198              		.loc 5 154 21 view .LVU1090
 4199              		.loc 5 156 3 view .LVU1091
 4200              		.loc 5 156 3 is_stmt 0 view .LVU1092
 4201              	.LBE2262:
 4202              	.LBE2261:
 4203              	.LBB2263:
 4204              	.LBB2260:
 4205              		.loc 5 140 28 view .LVU1093
 4206 019c D4E90023 		ldrd	r2, r3, [r4]
 4207 01a0 9B1A     		subs	r3, r3, r2
 4208              	.LBE2260:
 4209              	.LBE2263:
 4210              	.LBE2264:
 4211              		.loc 1 148 5 view .LVU1094
 4212 01a2 2269     		ldr	r2, [r4, #16]
 4213 01a4 5F49     		ldr	r1, .L68+36
 4214 01a6 B2EBA30F 		cmp	r2, r3, asr #2
 4215 01aa 0CBF     		ite	eq
 4216 01ac 0120     		moveq	r0, #1
 4217 01ae 0020     		movne	r0, #0
 4218 01b0 FFF7FEFF 		bl	__test_assert
 4219              	.LVL180:
 4220 01b4 0646     		mov	r6, r0
 4221 01b6 0028     		cmp	r0, #0
 4222 01b8 7FF46DAF 		bne	.L67
 4223              		.loc 1 148 5 is_stmt 1 view .LVU1095
 4224              	.LBB2265:
 4225              	.LBI2265:
 4226              		.loc 6 584 20 view .LVU1096
 4227              	.LBE2265:
 4228              	.LBE2425:
 4229              	.LBE2490:
 4230              		.loc 6 586 3 view .LVU1097
 4231              	.LBB2491:
 4232              	.LBB2426:
 4233              	.LBB2274:
 4234              	.LBB2266:
 4235              	.LBI2266:
 4236              		.loc 2 421 20 view .LVU1098
 4237              	.LBB2267:
 4238              		.loc 2 423 23 view .LVU1099
 4239              		.loc 2 424 34 view .LVU1100
 4240              		.loc 2 430 3 view .LVU1101
ARM GAS  /tmp/ccTMtxXw.s 			page 76


 4241              		.loc 2 430 3 view .LVU1102
 4242              		.loc 2 430 3 view .LVU1103
 4243              		.loc 2 434 3 view .LVU1104
 4244              	.LBB2268:
 4245              	.LBI2268:
 4246              		.loc 3 830 27 view .LVU1105
 4247              	.LBE2268:
 4248              	.LBE2267:
 4249              	.LBE2266:
 4250              	.LBE2274:
 4251              	.LBE2426:
 4252              	.LBE2491:
 4253              		.loc 3 833 3 view .LVU1106
 4254              	.LVL181:
 4255              	.LBB2492:
 4256              	.LBB2427:
 4257              	.LBB2275:
 4258              	.LBB2273:
 4259              	.LBB2272:
 4260              	.LBB2271:
 4261              	.LBB2269:
 4262              	.LBI2269:
 4263              		.loc 4 491 27 view .LVU1107
 4264              	.LBB2270:
 4265              		.loc 4 493 3 view .LVU1108
 4266              		.syntax unified
 4267              	@ 493 "../ChibiOS/os/common/ext/ARM/CMSIS/Core/Include/cmsis_gcc.h" 1
 4268 01bc 80F31188 		MSR basepri, r0
 4269              	@ 0 "" 2
 4270              	.LVL182:
 4271              		.loc 4 493 3 is_stmt 0 view .LVU1109
 4272              		.thumb
 4273              		.syntax unified
 4274              	.LBE2270:
 4275              	.LBE2269:
 4276              	.LBE2271:
 4277              	.LBE2272:
 4278              	.LBE2273:
 4279              	.LBE2275:
 4280              		.loc 1 148 66 is_stmt 1 view .LVU1110
 4281              		.loc 1 149 5 view .LVU1111
 4282              	.LBB2276:
 4283              	.LBI2276:
 4284              		.loc 6 573 20 view .LVU1112
 4285              	.LBE2276:
 4286              	.LBE2427:
 4287              	.LBE2492:
 4288              		.loc 6 575 3 view .LVU1113
 4289              	.LBB2493:
 4290              	.LBB2428:
 4291              	.LBB2284:
 4292              	.LBB2277:
 4293              	.LBI2277:
 4294              		.loc 2 407 20 view .LVU1114
 4295              	.LBE2277:
 4296              	.LBE2284:
 4297              	.LBE2428:
ARM GAS  /tmp/ccTMtxXw.s 			page 77


 4298              	.LBE2493:
 4299              		.loc 2 409 3 view .LVU1115
 4300              	.LBB2494:
 4301              	.LBB2429:
 4302              	.LBB2285:
 4303              	.LBB2282:
 4304              	.LBB2278:
 4305              	.LBI2278:
 4306              		.loc 3 806 27 view .LVU1116
 4307              	.LBE2278:
 4308              	.LBE2282:
 4309              	.LBE2285:
 4310              	.LBE2429:
 4311              	.LBE2494:
 4312              		.loc 3 814 3 view .LVU1117
 4313              	.LBB2495:
 4314              	.LBB2430:
 4315              	.LBB2286:
 4316              	.LBB2283:
 4317              	.LBB2281:
 4318              	.LBB2279:
 4319              	.LBI2279:
 4320              		.loc 4 491 27 view .LVU1118
 4321              	.LBB2280:
 4322              		.loc 4 493 3 view .LVU1119
 4323              		.syntax unified
 4324              	@ 493 "../ChibiOS/os/common/ext/ARM/CMSIS/Core/Include/cmsis_gcc.h" 1
 4325 01c0 88F31188 		MSR basepri, r8
 4326              	@ 0 "" 2
 4327              	.LVL183:
 4328              		.loc 4 493 3 is_stmt 0 view .LVU1120
 4329              		.thumb
 4330              		.syntax unified
 4331              	.LBE2280:
 4332              	.LBE2279:
 4333              	.LBE2281:
 4334              	.LBE2283:
 4335              	.LBE2286:
 4336              	.LBE2430:
 4337              	.LBE2495:
 4338              		.loc 2 410 35 is_stmt 1 view .LVU1121
 4339              		.loc 2 411 21 view .LVU1122
 4340              	.LBB2496:
 4341              	.LBB2431:
 4342              		.loc 1 149 5 view .LVU1123
 4343              	.LBB2287:
 4344              	.LBI2287:
 4345              		.loc 5 152 22 view .LVU1124
 4346              	.LBB2288:
 4347              		.loc 5 154 21 view .LVU1125
 4348              		.loc 5 156 3 view .LVU1126
 4349              		.loc 5 156 3 is_stmt 0 view .LVU1127
 4350              	.LBE2288:
 4351              	.LBE2287:
 4352              		.loc 1 149 5 view .LVU1128
 4353 01c4 2069     		ldr	r0, [r4, #16]
 4354 01c6 5849     		ldr	r1, .L68+40
ARM GAS  /tmp/ccTMtxXw.s 			page 78


 4355 01c8 A0F1040E 		sub	lr, r0, #4
 4356 01cc DEF10000 		rsbs	r0, lr, #0
 4357 01d0 40EB0E00 		adc	r0, r0, lr
 4358 01d4 FFF7FEFF 		bl	__test_assert
 4359              	.LVL184:
 4360 01d8 0546     		mov	r5, r0
 4361 01da 10B1     		cbz	r0, .L57
 4362              		.loc 1 149 5 is_stmt 1 view .LVU1129
 4363              	.LBB2289:
 4364              	.LBI2289:
 4365              		.loc 6 584 20 view .LVU1130
 4366              	.LBE2289:
 4367              	.LBE2431:
 4368              	.LBE2496:
 4369              		.loc 6 586 3 view .LVU1131
 4370              	.LBB2497:
 4371              	.LBB2432:
 4372              	.LBB2298:
 4373              	.LBB2290:
 4374              	.LBI2290:
 4375              		.loc 2 421 20 view .LVU1132
 4376              	.LBB2291:
 4377              		.loc 2 423 23 view .LVU1133
 4378              		.loc 2 424 34 view .LVU1134
 4379              		.loc 2 430 3 view .LVU1135
 4380              		.loc 2 430 3 view .LVU1136
 4381              		.loc 2 430 3 view .LVU1137
 4382              		.loc 2 434 3 view .LVU1138
 4383              	.LBB2292:
 4384              	.LBI2292:
 4385              		.loc 3 830 27 view .LVU1139
 4386              	.LBE2292:
 4387              	.LBE2291:
 4388              	.LBE2290:
 4389              	.LBE2298:
 4390              	.LBE2432:
 4391              	.LBE2497:
 4392              		.loc 3 833 3 view .LVU1140
 4393              	.LVL185:
 4394              	.LBB2498:
 4395              	.LBB2433:
 4396              	.LBB2299:
 4397              	.LBB2297:
 4398              	.LBB2296:
 4399              	.LBB2295:
 4400              	.LBB2293:
 4401              	.LBI2293:
 4402              		.loc 4 491 27 view .LVU1141
 4403              	.LBB2294:
 4404              		.loc 4 493 3 view .LVU1142
 4405              		.syntax unified
 4406              	@ 493 "../ChibiOS/os/common/ext/ARM/CMSIS/Core/Include/cmsis_gcc.h" 1
 4407 01dc 86F31188 		MSR basepri, r6
 4408              	@ 0 "" 2
 4409              	.LVL186:
 4410              		.loc 4 493 3 is_stmt 0 view .LVU1143
 4411              		.thumb
ARM GAS  /tmp/ccTMtxXw.s 			page 79


 4412              		.syntax unified
 4413              	.LBE2294:
 4414              	.LBE2293:
 4415              	.LBE2295:
 4416              	.LBE2296:
 4417              	.LBE2297:
 4418              	.LBE2299:
 4419              		.loc 1 149 5 is_stmt 1 view .LVU1144
 4420 01e0 2AE7     		b	.L45
 4421              	.L57:
 4422              		.loc 1 149 5 view .LVU1145
 4423              	.LBB2300:
 4424              	.LBI2300:
 4425              		.loc 6 584 20 view .LVU1146
 4426              	.LBE2300:
 4427              	.LBE2433:
 4428              	.LBE2498:
 4429              		.loc 6 586 3 view .LVU1147
 4430              	.LBB2499:
 4431              	.LBB2434:
 4432              	.LBB2309:
 4433              	.LBB2301:
 4434              	.LBI2301:
 4435              		.loc 2 421 20 view .LVU1148
 4436              	.LBB2302:
 4437              		.loc 2 423 23 view .LVU1149
 4438              		.loc 2 424 34 view .LVU1150
 4439              		.loc 2 430 3 view .LVU1151
 4440              		.loc 2 430 3 view .LVU1152
 4441              		.loc 2 430 3 view .LVU1153
 4442              		.loc 2 434 3 view .LVU1154
 4443              	.LBB2303:
 4444              	.LBI2303:
 4445              		.loc 3 830 27 view .LVU1155
 4446              	.LBE2303:
 4447              	.LBE2302:
 4448              	.LBE2301:
 4449              	.LBE2309:
 4450              	.LBE2434:
 4451              	.LBE2499:
 4452              		.loc 3 833 3 view .LVU1156
 4453              	.LVL187:
 4454              	.LBB2500:
 4455              	.LBB2435:
 4456              	.LBB2310:
 4457              	.LBB2308:
 4458              	.LBB2307:
 4459              	.LBB2306:
 4460              	.LBB2304:
 4461              	.LBI2304:
 4462              		.loc 4 491 27 view .LVU1157
 4463              	.LBB2305:
 4464              		.loc 4 493 3 view .LVU1158
 4465              		.syntax unified
 4466              	@ 493 "../ChibiOS/os/common/ext/ARM/CMSIS/Core/Include/cmsis_gcc.h" 1
 4467 01e2 80F31188 		MSR basepri, r0
 4468              	@ 0 "" 2
ARM GAS  /tmp/ccTMtxXw.s 			page 80


 4469              	.LVL188:
 4470              		.loc 4 493 3 is_stmt 0 view .LVU1159
 4471              		.thumb
 4472              		.syntax unified
 4473              	.LBE2305:
 4474              	.LBE2304:
 4475              	.LBE2306:
 4476              	.LBE2307:
 4477              	.LBE2308:
 4478              	.LBE2310:
 4479              		.loc 1 149 69 is_stmt 1 view .LVU1160
 4480              		.loc 1 150 5 view .LVU1161
 4481              	.LBB2311:
 4482              	.LBI2311:
 4483              		.loc 6 573 20 view .LVU1162
 4484              	.LBE2311:
 4485              	.LBE2435:
 4486              	.LBE2500:
 4487              		.loc 6 575 3 view .LVU1163
 4488              	.LBB2501:
 4489              	.LBB2436:
 4490              	.LBB2319:
 4491              	.LBB2312:
 4492              	.LBI2312:
 4493              		.loc 2 407 20 view .LVU1164
 4494              	.LBE2312:
 4495              	.LBE2319:
 4496              	.LBE2436:
 4497              	.LBE2501:
 4498              		.loc 2 409 3 view .LVU1165
 4499              	.LBB2502:
 4500              	.LBB2437:
 4501              	.LBB2320:
 4502              	.LBB2317:
 4503              	.LBB2313:
 4504              	.LBI2313:
 4505              		.loc 3 806 27 view .LVU1166
 4506              	.LBE2313:
 4507              	.LBE2317:
 4508              	.LBE2320:
 4509              	.LBE2437:
 4510              	.LBE2502:
 4511              		.loc 3 814 3 view .LVU1167
 4512              	.LBB2503:
 4513              	.LBB2438:
 4514              	.LBB2321:
 4515              	.LBB2318:
 4516              	.LBB2316:
 4517              	.LBB2314:
 4518              	.LBI2314:
 4519              		.loc 4 491 27 view .LVU1168
 4520              	.LBB2315:
 4521              		.loc 4 493 3 view .LVU1169
 4522              		.syntax unified
 4523              	@ 493 "../ChibiOS/os/common/ext/ARM/CMSIS/Core/Include/cmsis_gcc.h" 1
 4524 01e6 88F31188 		MSR basepri, r8
 4525              	@ 0 "" 2
ARM GAS  /tmp/ccTMtxXw.s 			page 81


 4526              	.LVL189:
 4527              		.loc 4 493 3 is_stmt 0 view .LVU1170
 4528              		.thumb
 4529              		.syntax unified
 4530              	.LBE2315:
 4531              	.LBE2314:
 4532              	.LBE2316:
 4533              	.LBE2318:
 4534              	.LBE2321:
 4535              	.LBE2438:
 4536              	.LBE2503:
 4537              		.loc 2 410 35 is_stmt 1 view .LVU1171
 4538              		.loc 2 411 21 view .LVU1172
 4539              	.LBB2504:
 4540              	.LBB2439:
 4541              		.loc 1 150 5 view .LVU1173
 4542 01ea D4E90230 		ldrd	r3, r0, [r4, #8]
 4543 01ee A0EB030C 		sub	ip, r0, r3
 4544 01f2 DCF10000 		rsbs	r0, ip, #0
 4545 01f6 40EB0C00 		adc	r0, r0, ip
 4546 01fa 4C49     		ldr	r1, .L68+44
 4547 01fc FFF7FEFF 		bl	__test_assert
 4548              	.LVL190:
 4549 0200 0028     		cmp	r0, #0
 4550 0202 7FF448AF 		bne	.L67
 4551              		.loc 1 150 5 view .LVU1174
 4552              	.LBB2322:
 4553              	.LBI2322:
 4554              		.loc 6 584 20 view .LVU1175
 4555              	.LBE2322:
 4556              	.LBE2439:
 4557              	.LBE2504:
 4558              		.loc 6 586 3 view .LVU1176
 4559              	.LBB2505:
 4560              	.LBB2440:
 4561              	.LBB2331:
 4562              	.LBB2323:
 4563              	.LBI2323:
 4564              		.loc 2 421 20 view .LVU1177
 4565              	.LBB2324:
 4566              		.loc 2 423 23 view .LVU1178
 4567              		.loc 2 424 34 view .LVU1179
 4568              		.loc 2 430 3 view .LVU1180
 4569              		.loc 2 430 3 view .LVU1181
 4570              		.loc 2 430 3 view .LVU1182
 4571              		.loc 2 434 3 view .LVU1183
 4572              	.LBB2325:
 4573              	.LBI2325:
 4574              		.loc 3 830 27 view .LVU1184
 4575              	.LBE2325:
 4576              	.LBE2324:
 4577              	.LBE2323:
 4578              	.LBE2331:
 4579              	.LBE2440:
 4580              	.LBE2505:
 4581              		.loc 3 833 3 view .LVU1185
 4582              	.LVL191:
ARM GAS  /tmp/ccTMtxXw.s 			page 82


 4583              	.LBB2506:
 4584              	.LBB2441:
 4585              	.LBB2332:
 4586              	.LBB2330:
 4587              	.LBB2329:
 4588              	.LBB2328:
 4589              	.LBB2326:
 4590              	.LBI2326:
 4591              		.loc 4 491 27 view .LVU1186
 4592              	.LBB2327:
 4593              		.loc 4 493 3 view .LVU1187
 4594              		.syntax unified
 4595              	@ 493 "../ChibiOS/os/common/ext/ARM/CMSIS/Core/Include/cmsis_gcc.h" 1
 4596 0206 80F31188 		MSR basepri, r0
 4597              	@ 0 "" 2
 4598              	.LVL192:
 4599              		.loc 4 493 3 is_stmt 0 view .LVU1188
 4600              		.thumb
 4601              		.syntax unified
 4602              	.LBE2327:
 4603              	.LBE2326:
 4604              	.LBE2328:
 4605              	.LBE2329:
 4606              	.LBE2330:
 4607              	.LBE2332:
 4608              		.loc 1 150 69 is_stmt 1 view .LVU1189
 4609              		.loc 1 152 3 view .LVU1190
 4610              		.loc 1 152 19 view .LVU1191
 4611              		.loc 1 156 3 view .LVU1192
 4612 020a 0623     		movs	r3, #6
 4613              		.loc 1 159 14 is_stmt 0 view .LVU1193
 4614 020c DFF8F480 		ldr	r8, .L68+4
 4615              		.loc 1 160 7 view .LVU1194
 4616 0210 434E     		ldr	r6, .L68+32
 4617              		.loc 1 156 3 view .LVU1195
 4618 0212 3B60     		str	r3, [r7]
 4619              		.loc 1 158 5 is_stmt 1 view .LVU1196
 4620              	.LVL193:
 4621              		.loc 1 158 17 view .LVU1197
 4622              		.loc 1 156 3 is_stmt 0 view .LVU1198
 4623 0214 0425     		movs	r5, #4
 4624              	.LVL194:
 4625              	.L59:
 4626              		.loc 1 159 7 is_stmt 1 view .LVU1199
 4627              		.loc 1 159 14 is_stmt 0 view .LVU1200
 4628 0216 01A9     		add	r1, sp, #4
 4629 0218 4FF0FF32 		mov	r2, #-1
 4630 021c 4046     		mov	r0, r8
 4631 021e FFF7FEFF 		bl	chMBFetchTimeout
 4632              	.LVL195:
 4633              		.loc 1 160 7 is_stmt 1 view .LVU1201
 4634 0222 B0FA80F0 		clz	r0, r0
 4635              	.LVL196:
 4636              		.loc 1 160 7 is_stmt 0 view .LVU1202
 4637 0226 3146     		mov	r1, r6
 4638 0228 4009     		lsrs	r0, r0, #5
 4639 022a FFF7FEFF 		bl	__test_assert
ARM GAS  /tmp/ccTMtxXw.s 			page 83


 4640              	.LVL197:
 4641              		.loc 1 160 59 is_stmt 1 view .LVU1203
 4642              		.loc 1 161 7 view .LVU1204
 4643              		.loc 1 160 7 is_stmt 0 view .LVU1205
 4644 022e 0028     		cmp	r0, #0
 4645 0230 7FF402AF 		bne	.L45
 4646              		.loc 1 161 7 view .LVU1206
 4647 0234 9DF80400 		ldrb	r0, [sp, #4]	@ zero_extendqisi2
 4648 0238 FFF7FEFF 		bl	test_emit_token
 4649              	.LVL198:
 4650              		.loc 1 158 30 is_stmt 1 view .LVU1207
 4651              		.loc 1 158 17 view .LVU1208
 4652              		.loc 1 158 5 is_stmt 0 view .LVU1209
 4653 023c 013D     		subs	r5, r5, #1
 4654              	.LVL199:
 4655              		.loc 1 158 5 view .LVU1210
 4656 023e EAD1     		bne	.L59
 4657              		.loc 1 163 5 is_stmt 1 view .LVU1211
 4658 0240 3B49     		ldr	r1, .L68+48
 4659 0242 3C48     		ldr	r0, .L68+52
 4660 0244 FFF7FEFF 		bl	__test_assert_sequence
 4661              	.LVL200:
 4662 0248 0028     		cmp	r0, #0
 4663 024a 7FF4F5AE 		bne	.L45
 4664              		.loc 1 163 55 view .LVU1212
 4665              		.loc 1 165 3 view .LVU1213
 4666              		.loc 1 165 19 view .LVU1214
 4667              		.loc 1 169 3 view .LVU1215
 4668 024e 0723     		movs	r3, #7
 4669              		.loc 1 171 12 is_stmt 0 view .LVU1216
 4670 0250 4621     		movs	r1, #70
 4671 0252 2C48     		ldr	r0, .L68+4
 4672              		.loc 1 169 3 view .LVU1217
 4673 0254 3B60     		str	r3, [r7]
 4674              		.loc 1 171 5 is_stmt 1 view .LVU1218
 4675              		.loc 1 171 12 is_stmt 0 view .LVU1219
 4676 0256 4FF0FF32 		mov	r2, #-1
 4677 025a FFF7FEFF 		bl	chMBPostTimeout
 4678              	.LVL201:
 4679              		.loc 1 172 5 is_stmt 1 view .LVU1220
 4680 025e B0FA80F0 		clz	r0, r0
 4681              	.LVL202:
 4682              		.loc 1 172 5 is_stmt 0 view .LVU1221
 4683 0262 2F49     		ldr	r1, .L68+32
 4684 0264 4009     		lsrs	r0, r0, #5
 4685 0266 FFF7FEFF 		bl	__test_assert
 4686              	.LVL203:
 4687 026a 0028     		cmp	r0, #0
 4688 026c 7FF4E4AE 		bne	.L45
 4689              		.loc 1 172 57 is_stmt 1 view .LVU1222
 4690              		.loc 1 173 5 view .LVU1223
 4691              		.loc 1 173 12 is_stmt 0 view .LVU1224
 4692 0270 01A9     		add	r1, sp, #4
 4693 0272 2448     		ldr	r0, .L68+4
 4694 0274 4FF0FF32 		mov	r2, #-1
 4695 0278 FFF7FEFF 		bl	chMBFetchTimeout
 4696              	.LVL204:
ARM GAS  /tmp/ccTMtxXw.s 			page 84


 4697              		.loc 1 174 5 is_stmt 1 view .LVU1225
 4698 027c B0FA80F0 		clz	r0, r0
 4699              	.LVL205:
 4700              		.loc 1 174 5 is_stmt 0 view .LVU1226
 4701 0280 2749     		ldr	r1, .L68+32
 4702 0282 4009     		lsrs	r0, r0, #5
 4703 0284 FFF7FEFF 		bl	__test_assert
 4704              	.LVL206:
 4705 0288 0028     		cmp	r0, #0
 4706 028a 7FF4D5AE 		bne	.L45
 4707              		.loc 1 174 57 is_stmt 1 view .LVU1227
 4708              		.loc 1 176 3 view .LVU1228
 4709              		.loc 1 176 19 view .LVU1229
 4710              		.loc 1 180 3 view .LVU1230
 4711 028e 0823     		movs	r3, #8
 4712 0290 3B60     		str	r3, [r7]
 4713              		.loc 1 182 5 view .LVU1231
 4714              	.LBB2333:
 4715              	.LBI2333:
 4716              		.loc 6 573 20 view .LVU1232
 4717              	.LBE2333:
 4718              	.LBE2441:
 4719              	.LBE2506:
 4720              		.loc 6 575 3 view .LVU1233
 4721              	.LBB2507:
 4722              	.LBB2442:
 4723              	.LBB2341:
 4724              	.LBB2334:
 4725              	.LBI2334:
 4726              		.loc 2 407 20 view .LVU1234
 4727              	.LBE2334:
 4728              	.LBE2341:
 4729              	.LBE2442:
 4730              	.LBE2507:
 4731              		.loc 2 409 3 view .LVU1235
 4732              	.LBB2508:
 4733              	.LBB2443:
 4734              	.LBB2342:
 4735              	.LBB2339:
 4736              	.LBB2335:
 4737              	.LBI2335:
 4738              		.loc 3 806 27 view .LVU1236
 4739              	.LBE2335:
 4740              	.LBE2339:
 4741              	.LBE2342:
 4742              	.LBE2443:
 4743              	.LBE2508:
 4744              		.loc 3 814 3 view .LVU1237
 4745              	.LVL207:
 4746              	.LBB2509:
 4747              	.LBB2444:
 4748              	.LBB2343:
 4749              	.LBB2340:
 4750              	.LBB2338:
 4751              	.LBB2336:
 4752              	.LBI2336:
 4753              		.loc 4 491 27 view .LVU1238
ARM GAS  /tmp/ccTMtxXw.s 			page 85


 4754              	.LBB2337:
 4755              		.loc 4 493 3 view .LVU1239
 4756 0292 3026     		movs	r6, #48
 4757              		.syntax unified
 4758              	@ 493 "../ChibiOS/os/common/ext/ARM/CMSIS/Core/Include/cmsis_gcc.h" 1
 4759 0294 86F31188 		MSR basepri, r6
 4760              	@ 0 "" 2
 4761              	.LVL208:
 4762              		.loc 4 493 3 is_stmt 0 view .LVU1240
 4763              		.thumb
 4764              		.syntax unified
 4765              	.LBE2337:
 4766              	.LBE2336:
 4767              	.LBE2338:
 4768              	.LBE2340:
 4769              	.LBE2343:
 4770              	.LBE2444:
 4771              	.LBE2509:
 4772              		.loc 2 410 35 is_stmt 1 view .LVU1241
 4773              		.loc 2 411 21 view .LVU1242
 4774              	.LBB2510:
 4775              	.LBB2445:
 4776              		.loc 1 182 5 view .LVU1243
 4777              	.LBB2344:
 4778              	.LBI2344:
 4779              		.loc 5 167 22 view .LVU1244
 4780              	.LBB2345:
 4781              		.loc 5 169 21 view .LVU1245
 4782              		.loc 5 171 3 view .LVU1246
 4783              	.LBB2346:
 4784              	.LBI2346:
 4785              		.loc 5 136 22 view .LVU1247
 4786              	.LBB2347:
 4787              		.loc 5 140 3 view .LVU1248
 4788              		.loc 5 140 3 is_stmt 0 view .LVU1249
 4789              	.LBE2347:
 4790              	.LBE2346:
 4791              	.LBB2349:
 4792              	.LBI2349:
 4793              		.loc 5 152 22 is_stmt 1 view .LVU1250
 4794              	.LBB2350:
 4795              		.loc 5 154 21 view .LVU1251
 4796              		.loc 5 156 3 view .LVU1252
 4797              		.loc 5 156 3 is_stmt 0 view .LVU1253
 4798              	.LBE2350:
 4799              	.LBE2349:
 4800              	.LBB2351:
 4801              	.LBB2348:
 4802              		.loc 5 140 28 view .LVU1254
 4803 0298 D4E90023 		ldrd	r2, r3, [r4]
 4804 029c 9A1A     		subs	r2, r3, r2
 4805              	.LBE2348:
 4806              	.LBE2351:
 4807              		.loc 5 171 28 view .LVU1255
 4808 029e 2369     		ldr	r3, [r4, #16]
 4809              	.LBE2345:
 4810              	.LBE2344:
ARM GAS  /tmp/ccTMtxXw.s 			page 86


 4811              		.loc 1 182 5 view .LVU1256
 4812 02a0 1A49     		ldr	r1, .L68+12
 4813              	.LBB2353:
 4814              	.LBB2352:
 4815              		.loc 5 171 28 view .LVU1257
 4816 02a2 C3EBA203 		rsb	r3, r3, r2, asr #2
 4817              	.LBE2352:
 4818              	.LBE2353:
 4819              		.loc 1 182 5 view .LVU1258
 4820 02a6 1F1F     		subs	r7, r3, #4
 4821 02a8 7842     		rsbs	r0, r7, #0
 4822 02aa 7841     		adcs	r0, r0, r7
 4823 02ac FFF7FEFF 		bl	__test_assert
 4824              	.LVL209:
 4825 02b0 0028     		cmp	r0, #0
 4826 02b2 7FF4F0AE 		bne	.L67
 4827              		.loc 1 182 5 is_stmt 1 view .LVU1259
 4828              	.LBB2354:
 4829              	.LBI2354:
 4830              		.loc 6 584 20 view .LVU1260
 4831              	.LBE2354:
 4832              	.LBE2445:
 4833              	.LBE2510:
 4834              		.loc 6 586 3 view .LVU1261
 4835              	.LBB2511:
 4836              	.LBB2446:
 4837              	.LBB2363:
 4838              	.LBB2355:
 4839              	.LBI2355:
 4840              		.loc 2 421 20 view .LVU1262
 4841              	.LBB2356:
 4842              		.loc 2 423 23 view .LVU1263
 4843              		.loc 2 424 34 view .LVU1264
 4844              		.loc 2 430 3 view .LVU1265
 4845              		.loc 2 430 3 view .LVU1266
 4846              		.loc 2 430 3 view .LVU1267
 4847              		.loc 2 434 3 view .LVU1268
 4848              	.LBB2357:
 4849              	.LBI2357:
 4850              		.loc 3 830 27 view .LVU1269
 4851              	.LBE2357:
 4852              	.LBE2356:
 4853              	.LBE2355:
 4854              	.LBE2363:
 4855              	.LBE2446:
 4856              	.LBE2511:
 4857              		.loc 3 833 3 view .LVU1270
 4858              	.LVL210:
 4859              	.LBB2512:
 4860              	.LBB2447:
 4861              	.LBB2364:
 4862              	.LBB2362:
 4863              	.LBB2361:
 4864              	.LBB2360:
 4865              	.LBB2358:
 4866              	.LBI2358:
 4867              		.loc 4 491 27 view .LVU1271
ARM GAS  /tmp/ccTMtxXw.s 			page 87


 4868              	.LBB2359:
 4869              		.loc 4 493 3 view .LVU1272
 4870              		.syntax unified
 4871              	@ 493 "../ChibiOS/os/common/ext/ARM/CMSIS/Core/Include/cmsis_gcc.h" 1
 4872 02b6 85F31188 		MSR basepri, r5
 4873              	@ 0 "" 2
 4874              	.LVL211:
 4875              		.loc 4 493 3 is_stmt 0 view .LVU1273
 4876              		.thumb
 4877              		.syntax unified
 4878              	.LBE2359:
 4879              	.LBE2358:
 4880              	.LBE2360:
 4881              	.LBE2361:
 4882              	.LBE2362:
 4883              	.LBE2364:
 4884              		.loc 1 182 70 is_stmt 1 view .LVU1274
 4885              		.loc 1 183 5 view .LVU1275
 4886              	.LBB2365:
 4887              	.LBI2365:
 4888              		.loc 6 573 20 view .LVU1276
 4889              	.LBE2365:
 4890              	.LBE2447:
 4891              	.LBE2512:
 4892              		.loc 6 575 3 view .LVU1277
 4893              	.LBB2513:
 4894              	.LBB2448:
 4895              	.LBB2373:
 4896              	.LBB2366:
 4897              	.LBI2366:
 4898              		.loc 2 407 20 view .LVU1278
 4899              	.LBE2366:
 4900              	.LBE2373:
 4901              	.LBE2448:
 4902              	.LBE2513:
 4903              		.loc 2 409 3 view .LVU1279
 4904              	.LBB2514:
 4905              	.LBB2449:
 4906              	.LBB2374:
 4907              	.LBB2371:
 4908              	.LBB2367:
 4909              	.LBI2367:
 4910              		.loc 3 806 27 view .LVU1280
 4911              	.LBE2367:
 4912              	.LBE2371:
 4913              	.LBE2374:
 4914              	.LBE2449:
 4915              	.LBE2514:
 4916              		.loc 3 814 3 view .LVU1281
 4917              	.LBB2515:
 4918              	.LBB2450:
 4919              	.LBB2375:
 4920              	.LBB2372:
 4921              	.LBB2370:
 4922              	.LBB2368:
 4923              	.LBI2368:
 4924              		.loc 4 491 27 view .LVU1282
ARM GAS  /tmp/ccTMtxXw.s 			page 88


 4925              	.LBB2369:
 4926              		.loc 4 493 3 view .LVU1283
 4927              		.syntax unified
 4928              	@ 493 "../ChibiOS/os/common/ext/ARM/CMSIS/Core/Include/cmsis_gcc.h" 1
 4929 02ba 86F31188 		MSR basepri, r6
 4930              	@ 0 "" 2
 4931              	.LVL212:
 4932              		.loc 4 493 3 is_stmt 0 view .LVU1284
 4933              		.thumb
 4934              		.syntax unified
 4935              	.LBE2369:
 4936              	.LBE2368:
 4937              	.LBE2370:
 4938              	.LBE2372:
 4939              	.LBE2375:
 4940              	.LBE2450:
 4941              	.LBE2515:
 4942              		.loc 2 410 35 is_stmt 1 view .LVU1285
 4943              		.loc 2 411 21 view .LVU1286
 4944              	.LBB2516:
 4945              	.LBB2451:
 4946              		.loc 1 183 5 view .LVU1287
 4947              	.LBB2376:
 4948              	.LBI2376:
 4949              		.loc 5 152 22 view .LVU1288
 4950              	.LBB2377:
 4951              		.loc 5 154 21 view .LVU1289
 4952              		.loc 5 156 3 view .LVU1290
 4953              		.loc 5 156 3 is_stmt 0 view .LVU1291
 4954              	.LBE2377:
 4955              	.LBE2376:
 4956              		.loc 1 183 5 view .LVU1292
 4957 02be 2069     		ldr	r0, [r4, #16]
 4958 02c0 1349     		ldr	r1, .L68+16
 4959 02c2 B0FA80F0 		clz	r0, r0
 4960 02c6 4009     		lsrs	r0, r0, #5
 4961 02c8 FFF7FEFF 		bl	__test_assert
 4962              	.LVL213:
 4963 02cc 0028     		cmp	r0, #0
 4964 02ce 7FF4E2AE 		bne	.L67
 4965              		.loc 1 183 5 is_stmt 1 view .LVU1293
 4966              	.LBB2378:
 4967              	.LBI2378:
 4968              		.loc 6 584 20 view .LVU1294
 4969              	.LBE2378:
 4970              	.LBE2451:
 4971              	.LBE2516:
 4972              		.loc 6 586 3 view .LVU1295
 4973              	.LBB2517:
 4974              	.LBB2452:
 4975              	.LBB2387:
 4976              	.LBB2379:
 4977              	.LBI2379:
 4978              		.loc 2 421 20 view .LVU1296
 4979              	.LBB2380:
 4980              		.loc 2 423 23 view .LVU1297
 4981              		.loc 2 424 34 view .LVU1298
ARM GAS  /tmp/ccTMtxXw.s 			page 89


 4982              		.loc 2 430 3 view .LVU1299
 4983              		.loc 2 430 3 view .LVU1300
 4984              		.loc 2 430 3 view .LVU1301
 4985              		.loc 2 434 3 view .LVU1302
 4986              	.LBB2381:
 4987              	.LBI2381:
 4988              		.loc 3 830 27 view .LVU1303
 4989              	.LBE2381:
 4990              	.LBE2380:
 4991              	.LBE2379:
 4992              	.LBE2387:
 4993              	.LBE2452:
 4994              	.LBE2517:
 4995              		.loc 3 833 3 view .LVU1304
 4996              	.LVL214:
 4997              	.LBB2518:
 4998              	.LBB2453:
 4999              	.LBB2388:
 5000              	.LBB2386:
 5001              	.LBB2385:
 5002              	.LBB2384:
 5003              	.LBB2382:
 5004              	.LBI2382:
 5005              		.loc 4 491 27 view .LVU1305
 5006              	.LBB2383:
 5007              		.loc 4 493 3 view .LVU1306
 5008              		.syntax unified
 5009              	@ 493 "../ChibiOS/os/common/ext/ARM/CMSIS/Core/Include/cmsis_gcc.h" 1
 5010 02d2 85F31188 		MSR basepri, r5
 5011              	@ 0 "" 2
 5012              	.LVL215:
 5013              		.loc 4 493 3 is_stmt 0 view .LVU1307
 5014              		.thumb
 5015              		.syntax unified
 5016              	.LBE2383:
 5017              	.LBE2382:
 5018              	.LBE2384:
 5019              	.LBE2385:
 5020              	.LBE2386:
 5021              	.LBE2388:
 5022              		.loc 1 183 65 is_stmt 1 view .LVU1308
 5023              		.loc 1 184 5 view .LVU1309
 5024 02d6 2068     		ldr	r0, [r4]
 5025 02d8 A368     		ldr	r3, [r4, #8]
 5026 02da 0E49     		ldr	r1, .L68+20
 5027 02dc C21A     		subs	r2, r0, r3
 5028 02de 5042     		rsbs	r0, r2, #0
 5029 02e0 5041     		adcs	r0, r0, r2
 5030 02e2 FFF7FEFF 		bl	__test_assert
 5031              	.LVL216:
 5032 02e6 0028     		cmp	r0, #0
 5033 02e8 7FF4A6AE 		bne	.L45
 5034              		.loc 1 184 78 view .LVU1310
 5035              		.loc 1 185 5 view .LVU1311
 5036 02ec 2068     		ldr	r0, [r4]
 5037 02ee E368     		ldr	r3, [r4, #12]
 5038 02f0 0949     		ldr	r1, .L68+24
ARM GAS  /tmp/ccTMtxXw.s 			page 90


 5039 02f2 C31A     		subs	r3, r0, r3
 5040 02f4 5842     		rsbs	r0, r3, #0
 5041 02f6 5841     		adcs	r0, r0, r3
 5042 02f8 FFF7FEFF 		bl	__test_assert
 5043              	.LVL217:
 5044              		.loc 1 185 5 view .LVU1312
 5045              		.loc 1 185 5 is_stmt 0 view .LVU1313
 5046 02fc 9CE6     		b	.L45
 5047              	.L69:
 5048 02fe 00BF     		.align	2
 5049              	.L68:
 5050 0300 00000000 		.word	chtest
 5051 0304 00000000 		.word	.LANCHOR0
 5052 0308 00000000 		.word	.LC1
 5053 030c 0C000000 		.word	.LC2
 5054 0310 18000000 		.word	.LC3
 5055 0314 24000000 		.word	.LC4
 5056 0318 48000000 		.word	.LC5
 5057 031c 00000000 		.word	.LC11
 5058 0320 00000000 		.word	.LC0
 5059 0324 6C000000 		.word	.LC6
 5060 0328 78000000 		.word	.LC7
 5061 032c 84000000 		.word	.LC8
 5062 0330 9C000000 		.word	.LC9
 5063 0334 B0000000 		.word	.LC10
 5064              	.LBE2453:
 5065              	.LBE2518:
 5066              		.cfi_endproc
 5067              	.LFE406:
 5068              		.size	oslib_test_002_001_execute, .-oslib_test_002_001_execute
 5069              		.section	.text.oslib_test_002_003_teardown,"ax",%progbits
 5070              		.align	1
 5071              		.p2align 4,,15
 5072              		.syntax unified
 5073              		.thumb
 5074              		.thumb_func
 5075              		.fpu softvfp
 5076              		.type	oslib_test_002_003_teardown, %function
 5077              	oslib_test_002_003_teardown:
 5078              	.LFB422:
 5079              		.cfi_startproc
 5080              		@ args = 0, pretend = 0, frame = 0
 5081              		@ frame_needed = 0, uses_anonymous_args = 0
 5082              		@ link register save eliminated.
 5083 0000 0148     		ldr	r0, .L71
 5084 0002 FFF7FEBF 		b	chMBReset
 5085              	.L72:
 5086 0006 00BF     		.align	2
 5087              	.L71:
 5088 0008 00000000 		.word	.LANCHOR0
 5089              		.cfi_endproc
 5090              	.LFE422:
 5091              		.size	oslib_test_002_003_teardown, .-oslib_test_002_003_teardown
 5092              		.section	.text.oslib_test_002_002_teardown,"ax",%progbits
 5093              		.align	1
 5094              		.p2align 4,,15
 5095              		.syntax unified
ARM GAS  /tmp/ccTMtxXw.s 			page 91


 5096              		.thumb
 5097              		.thumb_func
 5098              		.fpu softvfp
 5099              		.type	oslib_test_002_002_teardown, %function
 5100              	oslib_test_002_002_teardown:
 5101              	.LFB420:
 5102              		.cfi_startproc
 5103              		@ args = 0, pretend = 0, frame = 0
 5104              		@ frame_needed = 0, uses_anonymous_args = 0
 5105              		@ link register save eliminated.
 5106 0000 0148     		ldr	r0, .L74
 5107 0002 FFF7FEBF 		b	chMBReset
 5108              	.L75:
 5109 0006 00BF     		.align	2
 5110              	.L74:
 5111 0008 00000000 		.word	.LANCHOR0
 5112              		.cfi_endproc
 5113              	.LFE420:
 5114              		.size	oslib_test_002_002_teardown, .-oslib_test_002_002_teardown
 5115              		.section	.text.oslib_test_002_002_setup,"ax",%progbits
 5116              		.align	1
 5117              		.p2align 4,,15
 5118              		.syntax unified
 5119              		.thumb
 5120              		.thumb_func
 5121              		.fpu softvfp
 5122              		.type	oslib_test_002_002_setup, %function
 5123              	oslib_test_002_002_setup:
 5124              	.LFB416:
 5125              		.cfi_startproc
 5126              		@ args = 0, pretend = 0, frame = 0
 5127              		@ frame_needed = 0, uses_anonymous_args = 0
 5128              		@ link register save eliminated.
 5129 0000 0249     		ldr	r1, .L77
 5130 0002 0348     		ldr	r0, .L77+4
 5131 0004 0422     		movs	r2, #4
 5132 0006 FFF7FEBF 		b	chMBObjectInit
 5133              	.L78:
 5134 000a 00BF     		.align	2
 5135              	.L77:
 5136 000c 00000000 		.word	.LANCHOR1
 5137 0010 00000000 		.word	.LANCHOR0
 5138              		.cfi_endproc
 5139              	.LFE416:
 5140              		.size	oslib_test_002_002_setup, .-oslib_test_002_002_setup
 5141              		.section	.text.oslib_test_002_003_setup,"ax",%progbits
 5142              		.align	1
 5143              		.p2align 4,,15
 5144              		.syntax unified
 5145              		.thumb
 5146              		.thumb_func
 5147              		.fpu softvfp
 5148              		.type	oslib_test_002_003_setup, %function
 5149              	oslib_test_002_003_setup:
 5150              	.LFB418:
 5151              		.cfi_startproc
 5152              		@ args = 0, pretend = 0, frame = 0
ARM GAS  /tmp/ccTMtxXw.s 			page 92


 5153              		@ frame_needed = 0, uses_anonymous_args = 0
 5154              		@ link register save eliminated.
 5155 0000 0249     		ldr	r1, .L80
 5156 0002 0348     		ldr	r0, .L80+4
 5157 0004 0422     		movs	r2, #4
 5158 0006 FFF7FEBF 		b	chMBObjectInit
 5159              	.L81:
 5160 000a 00BF     		.align	2
 5161              	.L80:
 5162 000c 00000000 		.word	.LANCHOR1
 5163 0010 00000000 		.word	.LANCHOR0
 5164              		.cfi_endproc
 5165              	.LFE418:
 5166              		.size	oslib_test_002_003_setup, .-oslib_test_002_003_setup
 5167              		.global	oslib_test_sequence_002
 5168              		.section	.rodata.str1.4,"aMS",%progbits,1
 5169              		.align	2
 5170              	.LC12:
 5171 0000 4D61696C 		.ascii	"Mailboxes\000"
 5171      626F7865 
 5171      7300
 5172              		.global	oslib_test_sequence_002_array
 5173 000a 0000     		.align	2
 5174              	.LC13:
 5175 000c 4D61696C 		.ascii	"Mailbox timeouts\000"
 5175      626F7820 
 5175      74696D65 
 5175      6F757473 
 5175      00
 5176 001d 000000   		.align	2
 5177              	.LC14:
 5178 0020 4D61696C 		.ascii	"Mailbox I-Class API, non-blocking tests\000"
 5178      626F7820 
 5178      492D436C 
 5178      61737320 
 5178      4150492C 
 5179              		.align	2
 5180              	.LC15:
 5181 0048 4D61696C 		.ascii	"Mailbox normal API, non-blocking tests\000"
 5181      626F7820 
 5181      6E6F726D 
 5181      616C2041 
 5181      50492C20 
 5182              		.section	.bss.mb_buffer,"aw",%nobits
 5183              		.align	2
 5184              		.set	.LANCHOR1,. + 0
 5185              		.type	mb_buffer, %object
 5186              		.size	mb_buffer, 16
 5187              	mb_buffer:
 5188 0000 00000000 		.space	16
 5188      00000000 
 5188      00000000 
 5188      00000000 
 5189              		.section	.data.mb1,"aw"
 5190              		.align	2
 5191              		.set	.LANCHOR0,. + 0
 5192              		.type	mb1, %object
ARM GAS  /tmp/ccTMtxXw.s 			page 93


 5193              		.size	mb1, 40
 5194              	mb1:
 5195 0000 00000000 		.word	mb_buffer
 5196 0004 10000000 		.word	mb_buffer+16
 5197 0008 00000000 		.word	mb_buffer
 5198 000c 00000000 		.word	mb_buffer
 5199 0010 00000000 		.word	0
 5200 0014 00       		.byte	0
 5201 0015 000000   		.space	3
 5202 0018 18000000 		.word	mb1+24
 5203 001c 18000000 		.word	mb1+24
 5204 0020 20000000 		.word	mb1+32
 5205 0024 20000000 		.word	mb1+32
 5206              		.section	.rodata.oslib_test_002_001,"a"
 5207              		.align	2
 5208              		.type	oslib_test_002_001, %object
 5209              		.size	oslib_test_002_001, 16
 5210              	oslib_test_002_001:
 5211 0000 48000000 		.word	.LC15
 5212 0004 00000000 		.word	oslib_test_002_001_setup
 5213 0008 00000000 		.word	oslib_test_002_001_teardown
 5214 000c 00000000 		.word	oslib_test_002_001_execute
 5215              		.section	.rodata.oslib_test_002_002,"a"
 5216              		.align	2
 5217              		.type	oslib_test_002_002, %object
 5218              		.size	oslib_test_002_002, 16
 5219              	oslib_test_002_002:
 5220 0000 20000000 		.word	.LC14
 5221 0004 00000000 		.word	oslib_test_002_002_setup
 5222 0008 00000000 		.word	oslib_test_002_002_teardown
 5223 000c 00000000 		.word	oslib_test_002_002_execute
 5224              		.section	.rodata.oslib_test_002_003,"a"
 5225              		.align	2
 5226              		.type	oslib_test_002_003, %object
 5227              		.size	oslib_test_002_003, 16
 5228              	oslib_test_002_003:
 5229 0000 0C000000 		.word	.LC13
 5230 0004 00000000 		.word	oslib_test_002_003_setup
 5231 0008 00000000 		.word	oslib_test_002_003_teardown
 5232 000c 00000000 		.word	oslib_test_002_003_execute
 5233              		.section	.rodata.oslib_test_sequence_002,"a"
 5234              		.align	2
 5235              		.type	oslib_test_sequence_002, %object
 5236              		.size	oslib_test_sequence_002, 8
 5237              	oslib_test_sequence_002:
 5238 0000 00000000 		.word	.LC12
 5239 0004 00000000 		.word	oslib_test_sequence_002_array
 5240              		.section	.rodata.oslib_test_sequence_002_array,"a"
 5241              		.align	2
 5242              		.type	oslib_test_sequence_002_array, %object
 5243              		.size	oslib_test_sequence_002_array, 16
 5244              	oslib_test_sequence_002_array:
 5245 0000 00000000 		.word	oslib_test_002_001
 5246 0004 00000000 		.word	oslib_test_002_002
 5247 0008 00000000 		.word	oslib_test_002_003
 5248 000c 00000000 		.word	0
 5249              		.text
ARM GAS  /tmp/ccTMtxXw.s 			page 94


 5250              	.Letext0:
 5251              		.file 7 "/opt/gcc-arm-none-eabi/gcc-arm-none-eabi-10.3-2021.07/lib/gcc/arm-none-eabi/10.3.1/includ
 5252              		.file 8 "/opt/gcc-arm-none-eabi/gcc-arm-none-eabi-10.3-2021.07/arm-none-eabi/include/machine/_defa
 5253              		.file 9 "/opt/gcc-arm-none-eabi/gcc-arm-none-eabi-10.3-2021.07/arm-none-eabi/include/sys/_stdint.h
 5254              		.file 10 "../ChibiOS/os/rt/include/chearly.h"
 5255              		.file 11 "../ChibiOS/os/rt/include/chtime.h"
 5256              		.file 12 "../ChibiOS/os/rt/include/chlists.h"
 5257              		.file 13 "../ChibiOS/os/rt/include/chobjects.h"
 5258              		.file 14 "../ChibiOS/os/hal/include/hal_streams.h"
 5259              		.file 15 "../ChibiOS/os/test/include/ch_test.h"
 5260              		.file 16 "../ChibiOS/test/oslib/source/test/oslib_test_sequence_002.h"