ARM GAS  /tmp/ccIYJ70J.s 			page 1


   1              		.cpu cortex-m4
   2              		.eabi_attribute 20, 1
   3              		.eabi_attribute 21, 1
   4              		.eabi_attribute 23, 3
   5              		.eabi_attribute 24, 1
   6              		.eabi_attribute 25, 1
   7              		.eabi_attribute 26, 1
   8              		.eabi_attribute 30, 2
   9              		.eabi_attribute 34, 1
  10              		.eabi_attribute 18, 4
  11              		.file	"oslib_test_sequence_004.c"
  12              		.text
  13              	.Ltext0:
  14              		.cfi_sections	.debug_frame
  15              		.section	.text.job_slow,"ax",%progbits
  16              		.align	1
  17              		.p2align 4,,15
  18              		.arch armv7e-m
  19              		.syntax unified
  20              		.thumb
  21              		.thumb_func
  22              		.fpu softvfp
  23              		.type	job_slow, %function
  24              	job_slow:
  25              	.LVL0:
  26              	.LFB404:
  27              		.file 1 "../ChibiOS/test/oslib/source/test/oslib_test_sequence_004.c"
  28              		.loc 1 55 33 view -0
  29              		.cfi_startproc
  30              		@ args = 0, pretend = 0, frame = 0
  31              		@ frame_needed = 0, uses_anonymous_args = 0
  32              		.loc 1 57 3 view .LVU1
  33              		.loc 1 55 33 is_stmt 0 view .LVU2
  34 0000 08B5     		push	{r3, lr}
  35              		.cfi_def_cfa_offset 8
  36              		.cfi_offset 3, -8
  37              		.cfi_offset 14, -4
  38              		.loc 1 57 3 view .LVU3
  39 0002 C0B2     		uxtb	r0, r0
  40              	.LVL1:
  41              		.loc 1 57 3 view .LVU4
  42 0004 FFF7FEFF 		bl	test_emit_token
  43              	.LVL2:
  44              		.loc 1 58 3 is_stmt 1 view .LVU5
  45              		.loc 1 59 1 is_stmt 0 view .LVU6
  46 0008 BDE80840 		pop	{r3, lr}
  47              		.cfi_restore 14
  48              		.cfi_restore 3
  49              		.cfi_def_cfa_offset 0
  50              		.loc 1 58 3 view .LVU7
  51 000c 6420     		movs	r0, #100
  52 000e FFF7FEBF 		b	chThdSleep
  53              	.LVL3:
  54              		.cfi_endproc
  55              	.LFE404:
  56              		.size	job_slow, .-job_slow
  57 0012 00BF     		.section	.text.Thread1,"ax",%progbits
ARM GAS  /tmp/ccIYJ70J.s 			page 2


  58              		.align	1
  59              		.p2align 4,,15
  60              		.syntax unified
  61              		.thumb
  62              		.thumb_func
  63              		.fpu softvfp
  64              		.type	Thread1, %function
  65              	Thread1:
  66              	.LVL4:
  67              	.LFB405:
  68              		.loc 1 63 35 is_stmt 1 view -0
  69              		.cfi_startproc
  70              		@ args = 0, pretend = 0, frame = 8
  71              		@ frame_needed = 0, uses_anonymous_args = 0
  72              		.loc 1 63 35 is_stmt 0 view .LVU9
  73 0000 70B5     		push	{r4, r5, r6, lr}
  74              		.cfi_def_cfa_offset 16
  75              		.cfi_offset 4, -16
  76              		.cfi_offset 5, -12
  77              		.cfi_offset 6, -8
  78              		.cfi_offset 14, -4
  79              	.LBB35:
  80              	.LBB36:
  81              		.file 2 "../ChibiOS/os/oslib/include/chjobs.h"
  82              		.loc 2 329 9 view .LVU10
  83 0002 0C4D     		ldr	r5, .L10
  84              	.LBE36:
  85              	.LBE35:
  86              		.loc 1 63 35 view .LVU11
  87 0004 82B0     		sub	sp, sp, #8
  88              		.cfi_def_cfa_offset 24
  89              	.LBB43:
  90              	.LBB40:
  91              	.LBB37:
  92              		.loc 2 341 7 view .LVU12
  93 0006 A5F11C06 		sub	r6, r5, #28
  94              	.LVL5:
  95              	.L7:
  96              		.loc 2 341 7 view .LVU13
  97              	.LBE37:
  98              	.LBE40:
  99              	.LBE43:
 100              		.loc 1 64 3 is_stmt 1 discriminator 1 view .LVU14
 101              		.loc 1 66 3 discriminator 1 view .LVU15
 102              		.loc 1 68 3 discriminator 1 view .LVU16
 103              		.loc 1 69 5 discriminator 1 view .LVU17
 104              	.LBB44:
 105              	.LBI35:
 106              		.loc 2 325 21 discriminator 1 view .LVU18
 107              	.LBB41:
 108              		.loc 2 326 3 discriminator 1 view .LVU19
 109              		.loc 2 329 3 discriminator 1 view .LVU20
 110              		.loc 2 329 9 is_stmt 0 discriminator 1 view .LVU21
 111 000a 4FF0FF32 		mov	r2, #-1
 112 000e 01A9     		add	r1, sp, #4
 113 0010 2846     		mov	r0, r5
 114 0012 FFF7FEFF 		bl	chMBFetchTimeout
ARM GAS  /tmp/ccIYJ70J.s 			page 3


 115              	.LVL6:
 116              	.LBB38:
 117              		.loc 2 331 5 is_stmt 1 discriminator 1 view .LVU22
 118              		.loc 2 338 7 discriminator 1 view .LVU23
 119              		.loc 2 338 7 is_stmt 0 discriminator 1 view .LVU24
 120              	.LBE38:
 121              		.loc 2 330 3 is_stmt 1 discriminator 1 view .LVU25
 122              		.loc 2 330 6 is_stmt 0 discriminator 1 view .LVU26
 123 0016 08B1     		cbz	r0, .L9
 124              	.L4:
 125              	.LBE41:
 126              	.LBE44:
 127              		.loc 1 71 1 view .LVU27
 128 0018 02B0     		add	sp, sp, #8
 129              		.cfi_remember_state
 130              		.cfi_def_cfa_offset 16
 131              		@ sp needed
 132 001a 70BD     		pop	{r4, r5, r6, pc}
 133              	.L9:
 134              		.cfi_restore_state
 135              	.LBB45:
 136              	.LBB42:
 137              	.LBB39:
 138              		.loc 2 331 23 view .LVU28
 139 001c 019C     		ldr	r4, [sp, #4]
 140              	.LVL7:
 141              		.loc 2 333 5 is_stmt 1 view .LVU29
 142              		.loc 2 333 5 view .LVU30
 143              		.loc 2 333 5 view .LVU31
 144              		.loc 2 335 5 view .LVU32
 145              		.loc 2 335 11 is_stmt 0 view .LVU33
 146 001e 2368     		ldr	r3, [r4]
 147              		.loc 2 335 8 view .LVU34
 148 0020 002B     		cmp	r3, #0
 149 0022 F9D0     		beq	.L4
 150              		.loc 2 338 7 view .LVU35
 151 0024 6068     		ldr	r0, [r4, #4]
 152              	.LVL8:
 153              		.loc 2 338 7 view .LVU36
 154 0026 9847     		blx	r3
 155              	.LVL9:
 156              		.loc 2 341 7 is_stmt 1 view .LVU37
 157 0028 2146     		mov	r1, r4
 158 002a 3046     		mov	r0, r6
 159 002c FFF7FEFF 		bl	chGuardedPoolFree
 160              	.LVL10:
 161              		.loc 2 341 7 is_stmt 0 view .LVU38
 162              	.LBE39:
 163              		.loc 2 348 3 is_stmt 1 view .LVU39
 164              		.loc 2 348 3 is_stmt 0 view .LVU40
 165              	.LBE42:
 166              	.LBE45:
 167              		.loc 1 70 11 is_stmt 1 view .LVU41
 168 0030 EBE7     		b	.L7
 169              	.L11:
 170 0032 00BF     		.align	2
 171              	.L10:
ARM GAS  /tmp/ccIYJ70J.s 			page 4


 172 0034 1C000000 		.word	.LANCHOR0+28
 173              		.cfi_endproc
 174              	.LFE405:
 175              		.size	Thread1, .-Thread1
 176              		.section	.rodata.oslib_test_004_001_execute.str1.4,"aMS",%progbits,1
 177              		.align	2
 178              	.LC0:
 179 0000 64697370 		.ascii	"dispatcher1\000"
 179      61746368 
 179      65723100 
 180              		.align	2
 181              	.LC1:
 182 000c 64697370 		.ascii	"dispatcher2\000"
 182      61746368 
 182      65723200 
 183              		.align	2
 184              	.LC2:
 185 0018 756E6578 		.ascii	"unexpected tokens\000"
 185      70656374 
 185      65642074 
 185      6F6B656E 
 185      7300
 186 002a 0000     		.align	2
 187              	.LC3:
 188 002c 61626364 		.ascii	"abcdefgh\000"
 188      65666768 
 188      00
 189              		.section	.text.oslib_test_004_001_execute,"ax",%progbits
 190              		.align	1
 191              		.p2align 4,,15
 192              		.syntax unified
 193              		.thumb
 194              		.thumb_func
 195              		.fpu softvfp
 196              		.type	oslib_test_004_001_execute, %function
 197              	oslib_test_004_001_execute:
 198              	.LFB406:
 199              		.loc 1 91 46 view -0
 200              		.cfi_startproc
 201              		@ args = 0, pretend = 0, frame = 48
 202              		@ frame_needed = 0, uses_anonymous_args = 0
 203              		.loc 1 92 3 view .LVU43
 204              		.loc 1 95 3 view .LVU44
 205              		.loc 1 91 46 is_stmt 0 view .LVU45
 206 0000 2DE9F047 		push	{r4, r5, r6, r7, r8, r9, r10, lr}
 207              		.cfi_def_cfa_offset 32
 208              		.cfi_offset 4, -32
 209              		.cfi_offset 5, -28
 210              		.cfi_offset 6, -24
 211              		.cfi_offset 7, -20
 212              		.cfi_offset 8, -16
 213              		.cfi_offset 9, -12
 214              		.cfi_offset 10, -8
 215              		.cfi_offset 14, -4
 216              		.loc 1 95 3 view .LVU46
 217 0004 DFF8F880 		ldr	r8, .L16
 218              	.LBB73:
ARM GAS  /tmp/ccIYJ70J.s 			page 5


 219              	.LBB74:
 220              	.LBB75:
 221              	.LBB76:
 222              		.file 3 "../ChibiOS/os/oslib/include/chmempools.h"
 223              		.loc 3 248 3 view .LVU47
 224 0008 3E48     		ldr	r0, .L16+4
 225              	.LBE76:
 226              	.LBE75:
 227              	.LBE74:
 228              	.LBE73:
 229              	.LBB83:
 230              	.LBB84:
 231              	.LBB85:
 232              	.LBB86:
 233              	.LBB87:
 234              		.file 4 "../ChibiOS/os/rt/include/chthreads.h"
 235              		.loc 4 343 10 view .LVU48
 236 000a 3F4E     		ldr	r6, .L16+8
 237              	.LBE87:
 238              	.LBE86:
 239              	.LBE85:
 240              	.LBE84:
 241              		.loc 1 104 25 view .LVU49
 242 000c 3F4D     		ldr	r5, .L16+12
 243 000e 404F     		ldr	r7, .L16+16
 244              	.LBE83:
 245              		.loc 1 91 46 view .LVU50
 246 0010 8CB0     		sub	sp, sp, #48
 247              		.cfi_def_cfa_offset 80
 248              		.loc 1 95 3 view .LVU51
 249 0012 0123     		movs	r3, #1
 250              	.LBB96:
 251              	.LBB81:
 252              	.LBB79:
 253              	.LBB77:
 254              		.loc 3 248 3 view .LVU52
 255 0014 0422     		movs	r2, #4
 256 0016 0821     		movs	r1, #8
 257              	.LBE77:
 258              	.LBE79:
 259              	.LBE81:
 260              	.LBE96:
 261              		.loc 1 95 3 view .LVU53
 262 0018 C8F80030 		str	r3, [r8]
 263              		.loc 1 97 5 is_stmt 1 view .LVU54
 264              	.LBB97:
 265              	.LBI73:
 266              		.loc 2 139 20 view .LVU55
 267              	.LVL11:
 268              	.LBB82:
 269              		.loc 2 144 3 view .LVU56
 270              		.loc 2 144 3 view .LVU57
 271              		.loc 2 144 3 view .LVU58
 272              		.loc 2 146 3 view .LVU59
 273              	.LBB80:
 274              	.LBI75:
 275              		.loc 3 245 20 view .LVU60
ARM GAS  /tmp/ccIYJ70J.s 			page 6


 276              	.LBB78:
 277              		.loc 3 248 3 view .LVU61
 278 001c FFF7FEFF 		bl	chGuardedPoolObjectInitAligned
 279              	.LVL12:
 280              		.loc 3 248 3 is_stmt 0 view .LVU62
 281              	.LBE78:
 282              	.LBE80:
 283              		.loc 2 147 3 is_stmt 1 view .LVU63
 284 0020 3C49     		ldr	r1, .L16+20
 285 0022 3848     		ldr	r0, .L16+4
 286 0024 0422     		movs	r2, #4
 287 0026 FFF7FEFF 		bl	chGuardedPoolLoadArray
 288              	.LVL13:
 289              		.loc 2 148 3 view .LVU64
 290 002a 3B49     		ldr	r1, .L16+24
 291 002c 3B48     		ldr	r0, .L16+28
 292 002e 0422     		movs	r2, #4
 293 0030 FFF7FEFF 		bl	chMBObjectInit
 294              	.LVL14:
 295              		.loc 2 148 3 is_stmt 0 view .LVU65
 296              	.LBE82:
 297              	.LBE97:
 298              		.loc 1 99 3 is_stmt 1 view .LVU66
 299              		.loc 1 99 19 view .LVU67
 300              		.loc 1 102 3 view .LVU68
 301              	.LBB98:
 302              	.LBB89:
 303              	.LBB88:
 304              		.loc 4 356 37 is_stmt 0 view .LVU69
 305 0034 F368     		ldr	r3, [r6, #12]
 306              	.LBE88:
 307              	.LBE89:
 308              		.loc 1 104 25 view .LVU70
 309 0036 3A4A     		ldr	r2, .L16+32
 310              		.loc 1 108 36 view .LVU71
 311 0038 9B68     		ldr	r3, [r3, #8]
 312              		.loc 1 104 25 view .LVU72
 313 003a 3A48     		ldr	r0, .L16+36
 314 003c 0090     		str	r0, [sp]
 315              	.LBE98:
 316              		.loc 1 102 3 view .LVU73
 317 003e 0220     		movs	r0, #2
 318              	.LBB99:
 319              		.loc 1 104 25 view .LVU74
 320 0040 02F5F871 		add	r1, r2, #496
 321              		.loc 1 108 36 view .LVU75
 322 0044 013B     		subs	r3, r3, #1
 323              		.loc 1 104 25 view .LVU76
 324 0046 0024     		movs	r4, #0
 325              	.LBE99:
 326              		.loc 1 102 3 view .LVU77
 327 0048 C8F80000 		str	r0, [r8]
 328              	.LBB100:
 329              		.loc 1 104 5 is_stmt 1 view .LVU78
 330              		.loc 1 112 11 is_stmt 0 view .LVU79
 331 004c 6846     		mov	r0, sp
 332              		.loc 1 104 25 view .LVU80
ARM GAS  /tmp/ccIYJ70J.s 			page 7


 333 004e CDE90213 		strd	r1, r3, [sp, #8]
 334 0052 CDE90454 		strd	r5, r4, [sp, #16]
 335              		.loc 1 112 5 is_stmt 1 view .LVU81
 336              		.loc 1 104 25 is_stmt 0 view .LVU82
 337 0056 0192     		str	r2, [sp, #4]
 338              		.loc 1 112 11 view .LVU83
 339 0058 FFF7FEFF 		bl	chThdCreate
 340              	.LVL15:
 341              	.LBB90:
 342              	.LBB91:
 343              		.loc 4 356 37 view .LVU84
 344 005c F368     		ldr	r3, [r6, #12]
 345              	.LBE91:
 346              	.LBE90:
 347              		.loc 1 118 36 view .LVU85
 348 005e 9B68     		ldr	r3, [r3, #8]
 349              		.loc 1 114 25 view .LVU86
 350 0060 0A95     		str	r5, [sp, #40]
 351              		.loc 1 118 36 view .LVU87
 352 0062 023B     		subs	r3, r3, #2
 353              		.loc 1 114 25 view .LVU88
 354 0064 0993     		str	r3, [sp, #36]
 355 0066 304B     		ldr	r3, .L16+40
 356 0068 0793     		str	r3, [sp, #28]
 357 006a 03F5F873 		add	r3, r3, #496
 358 006e 0893     		str	r3, [sp, #32]
 359              		.loc 1 112 11 view .LVU89
 360 0070 8246     		mov	r10, r0
 361              	.LVL16:
 362              		.loc 1 114 5 is_stmt 1 view .LVU90
 363              	.LBB95:
 364              	.LBI90:
 365              		.loc 4 354 23 view .LVU91
 366              	.LBB94:
 367              		.loc 4 356 3 view .LVU92
 368              	.LBB92:
 369              	.LBI92:
 370              		.loc 4 341 25 view .LVU93
 371              	.LBB93:
 372              		.loc 4 343 3 view .LVU94
 373              	.LBE93:
 374              	.LBE92:
 375              	.LBE94:
 376              	.LBE95:
 377              		.loc 1 122 5 view .LVU95
 378              		.loc 1 114 25 is_stmt 0 view .LVU96
 379 0072 2E4B     		ldr	r3, .L16+44
 380 0074 0B94     		str	r4, [sp, #44]
 381              		.loc 1 122 11 view .LVU97
 382 0076 06A8     		add	r0, sp, #24
 383              	.LVL17:
 384              		.loc 1 114 25 view .LVU98
 385 0078 0693     		str	r3, [sp, #24]
 386              		.loc 1 122 11 view .LVU99
 387 007a FFF7FEFF 		bl	chThdCreate
 388              	.LVL18:
 389              	.LBE100:
ARM GAS  /tmp/ccIYJ70J.s 			page 8


 390              	.LBB101:
 391              	.LBB102:
 392              	.LBB103:
 393              		.loc 2 161 30 view .LVU100
 394 007e 214D     		ldr	r5, .L16+4
 395              	.LBE103:
 396              	.LBE102:
 397              	.LBE101:
 398              		.loc 1 127 3 view .LVU101
 399 0080 0323     		movs	r3, #3
 400 0082 6124     		movs	r4, #97
 401              	.LBB116:
 402              		.loc 1 122 11 view .LVU102
 403 0084 8146     		mov	r9, r0
 404              	.LVL19:
 405              		.loc 1 122 11 view .LVU103
 406              	.LBE116:
 407              		.loc 1 124 3 is_stmt 1 view .LVU104
 408              		.loc 1 124 19 view .LVU105
 409              		.loc 1 127 3 view .LVU106
 410 0086 C8F80030 		str	r3, [r8]
 411              	.LBB117:
 412              		.loc 1 129 5 view .LVU107
 413              		.loc 1 130 5 view .LVU108
 414              		.loc 1 132 5 view .LVU109
 415              	.LVL20:
 416              		.loc 1 132 17 view .LVU110
 417              	.LBB106:
 418              	.LBB107:
 419              		.loc 2 264 9 is_stmt 0 view .LVU111
 420 008a 05F11C06 		add	r6, r5, #28
 421              	.LVL21:
 422              	.L13:
 423              		.loc 2 264 9 view .LVU112
 424              	.LBE107:
 425              	.LBE106:
 426              		.loc 1 133 7 is_stmt 1 view .LVU113
 427              	.LBB111:
 428              	.LBI102:
 429              		.loc 2 159 33 view .LVU114
 430              	.LBB104:
 431              		.loc 2 161 3 view .LVU115
 432              		.loc 2 161 30 is_stmt 0 view .LVU116
 433 008e 4FF0FF31 		mov	r1, #-1
 434 0092 2846     		mov	r0, r5
 435 0094 FFF7FEFF 		bl	chGuardedPoolAllocTimeout
 436              	.LVL22:
 437              	.LBE104:
 438              	.LBE111:
 439              	.LBB112:
 440              	.LBB108:
 441              		.loc 2 264 9 view .LVU117
 442 0098 0022     		movs	r2, #0
 443              	.LBE108:
 444              	.LBE112:
 445              		.loc 1 134 20 view .LVU118
 446 009a C0E90074 		strd	r7, r4, [r0]
ARM GAS  /tmp/ccIYJ70J.s 			page 9


 447              	.LBB113:
 448              	.LBB105:
 449              		.loc 2 161 30 view .LVU119
 450 009e 0146     		mov	r1, r0
 451              	.LVL23:
 452              		.loc 2 161 30 view .LVU120
 453              	.LBE105:
 454              	.LBE113:
 455              		.loc 1 134 7 is_stmt 1 view .LVU121
 456              		.loc 1 135 7 view .LVU122
 457              		.loc 1 136 7 view .LVU123
 458              	.LBB114:
 459              	.LBI106:
 460              		.loc 2 261 20 view .LVU124
 461              	.LBB109:
 462              		.loc 2 262 3 view .LVU125
 463              		.loc 2 264 3 view .LVU126
 464              	.LBE109:
 465              	.LBE114:
 466              		.loc 1 132 5 is_stmt 0 view .LVU127
 467 00a0 0134     		adds	r4, r4, #1
 468              	.LVL24:
 469              	.LBB115:
 470              	.LBB110:
 471              		.loc 2 264 9 view .LVU128
 472 00a2 3046     		mov	r0, r6
 473              	.LVL25:
 474              		.loc 2 264 9 view .LVU129
 475 00a4 FFF7FEFF 		bl	chMBPostTimeout
 476              	.LVL26:
 477              		.loc 2 265 3 is_stmt 1 view .LVU130
 478              		.loc 2 265 3 view .LVU131
 479              		.loc 2 265 3 view .LVU132
 480              		.loc 2 265 3 is_stmt 0 view .LVU133
 481              	.LBE110:
 482              	.LBE115:
 483              		.loc 1 132 24 is_stmt 1 view .LVU134
 484              		.loc 1 132 17 view .LVU135
 485              		.loc 1 132 5 is_stmt 0 view .LVU136
 486 00a8 692C     		cmp	r4, #105
 487 00aa F0D1     		bne	.L13
 488              	.LBE117:
 489              		.loc 1 139 3 is_stmt 1 view .LVU137
 490              		.loc 1 139 19 view .LVU138
 491              		.loc 1 142 3 view .LVU139
 492 00ac 0423     		movs	r3, #4
 493              	.LBB118:
 494              	.LBB119:
 495              	.LBB120:
 496              		.loc 2 161 30 is_stmt 0 view .LVU140
 497 00ae 4FF0FF31 		mov	r1, #-1
 498 00b2 1448     		ldr	r0, .L16+4
 499              	.LBE120:
 500              	.LBE119:
 501              	.LBE118:
 502              		.loc 1 142 3 view .LVU141
 503 00b4 C8F80030 		str	r3, [r8]
ARM GAS  /tmp/ccIYJ70J.s 			page 10


 504              	.LBB137:
 505              		.loc 1 144 5 is_stmt 1 view .LVU142
 506              		.loc 1 146 5 view .LVU143
 507              	.LVL27:
 508              	.LBB123:
 509              	.LBI119:
 510              		.loc 2 159 33 view .LVU144
 511              	.LBB121:
 512              		.loc 2 161 3 view .LVU145
 513              		.loc 2 161 30 is_stmt 0 view .LVU146
 514 00b8 FFF7FEFF 		bl	chGuardedPoolAllocTimeout
 515              	.LVL28:
 516              	.LBE121:
 517              	.LBE123:
 518              		.loc 1 147 18 view .LVU147
 519 00bc 0024     		movs	r4, #0
 520              	.LBB124:
 521              	.LBB125:
 522              		.loc 2 264 9 view .LVU148
 523 00be 2246     		mov	r2, r4
 524              	.LBE125:
 525              	.LBE124:
 526              		.loc 1 148 18 view .LVU149
 527 00c0 C0E90044 		strd	r4, r4, [r0]
 528              	.LBB127:
 529              	.LBB122:
 530              		.loc 2 161 30 view .LVU150
 531 00c4 0146     		mov	r1, r0
 532              	.LVL29:
 533              		.loc 2 161 30 view .LVU151
 534              	.LBE122:
 535              	.LBE127:
 536              		.loc 1 147 5 is_stmt 1 view .LVU152
 537              		.loc 1 149 5 view .LVU153
 538              	.LBB128:
 539              	.LBI124:
 540              		.loc 2 261 20 view .LVU154
 541              	.LBB126:
 542              		.loc 2 262 3 view .LVU155
 543              		.loc 2 264 3 view .LVU156
 544              		.loc 2 264 9 is_stmt 0 view .LVU157
 545 00c6 1548     		ldr	r0, .L16+28
 546              	.LVL30:
 547              		.loc 2 264 9 view .LVU158
 548 00c8 FFF7FEFF 		bl	chMBPostTimeout
 549              	.LVL31:
 550              		.loc 2 265 3 is_stmt 1 view .LVU159
 551              		.loc 2 265 3 view .LVU160
 552              		.loc 2 265 3 view .LVU161
 553              		.loc 2 265 3 is_stmt 0 view .LVU162
 554              	.LBE126:
 555              	.LBE128:
 556              		.loc 1 150 5 is_stmt 1 view .LVU163
 557              	.LBB129:
 558              	.LBI129:
 559              		.loc 2 159 33 view .LVU164
 560              	.LBB130:
ARM GAS  /tmp/ccIYJ70J.s 			page 11


 561              		.loc 2 161 3 view .LVU165
 562              		.loc 2 161 30 is_stmt 0 view .LVU166
 563 00cc 4FF0FF31 		mov	r1, #-1
 564 00d0 0C48     		ldr	r0, .L16+4
 565 00d2 FFF7FEFF 		bl	chGuardedPoolAllocTimeout
 566              	.LVL32:
 567              	.LBE130:
 568              	.LBE129:
 569              	.LBB132:
 570              	.LBB133:
 571              		.loc 2 264 9 view .LVU167
 572 00d6 2246     		mov	r2, r4
 573              	.LBE133:
 574              	.LBE132:
 575              	.LBB135:
 576              	.LBB131:
 577              		.loc 2 161 30 view .LVU168
 578 00d8 0146     		mov	r1, r0
 579              	.LVL33:
 580              		.loc 2 161 30 view .LVU169
 581              	.LBE131:
 582              	.LBE135:
 583              		.loc 1 151 5 is_stmt 1 view .LVU170
 584              		.loc 1 152 18 is_stmt 0 view .LVU171
 585 00da C0E90044 		strd	r4, r4, [r0]
 586              		.loc 1 153 5 is_stmt 1 view .LVU172
 587              	.LVL34:
 588              	.LBB136:
 589              	.LBI132:
 590              		.loc 2 261 20 view .LVU173
 591              	.LBB134:
 592              		.loc 2 262 3 view .LVU174
 593              		.loc 2 264 3 view .LVU175
 594              		.loc 2 264 9 is_stmt 0 view .LVU176
 595 00de 0F48     		ldr	r0, .L16+28
 596              	.LVL35:
 597              		.loc 2 264 9 view .LVU177
 598 00e0 FFF7FEFF 		bl	chMBPostTimeout
 599              	.LVL36:
 600              		.loc 2 265 3 is_stmt 1 view .LVU178
 601              		.loc 2 265 3 view .LVU179
 602              		.loc 2 265 3 view .LVU180
 603              		.loc 2 265 3 is_stmt 0 view .LVU181
 604              	.LBE134:
 605              	.LBE136:
 606              		.loc 1 154 5 is_stmt 1 view .LVU182
 607              		.loc 1 154 12 is_stmt 0 view .LVU183
 608 00e4 5046     		mov	r0, r10
 609 00e6 FFF7FEFF 		bl	chThdWait
 610              	.LVL37:
 611              		.loc 1 155 5 is_stmt 1 view .LVU184
 612              		.loc 1 155 12 is_stmt 0 view .LVU185
 613 00ea 4846     		mov	r0, r9
 614 00ec FFF7FEFF 		bl	chThdWait
 615              	.LVL38:
 616              		.loc 1 156 5 is_stmt 1 view .LVU186
 617 00f0 0F49     		ldr	r1, .L16+48
ARM GAS  /tmp/ccIYJ70J.s 			page 12


 618 00f2 1048     		ldr	r0, .L16+52
 619              	.LBE137:
 620              		.loc 1 159 1 is_stmt 0 view .LVU187
 621 00f4 0CB0     		add	sp, sp, #48
 622              		.cfi_def_cfa_offset 32
 623              		@ sp needed
 624 00f6 BDE8F047 		pop	{r4, r5, r6, r7, r8, r9, r10, lr}
 625              		.cfi_restore 14
 626              		.cfi_restore 10
 627              		.cfi_restore 9
 628              		.cfi_restore 8
 629              		.cfi_restore 7
 630              		.cfi_restore 6
 631              		.cfi_restore 5
 632              		.cfi_restore 4
 633              		.cfi_def_cfa_offset 0
 634              	.LVL39:
 635              	.LBB138:
 636              		.loc 1 156 5 view .LVU188
 637 00fa FFF7FEBF 		b	__test_assert_sequence
 638              	.LVL40:
 639              	.L17:
 640 00fe 00BF     		.align	2
 641              	.L16:
 642 0100 00000000 		.word	chtest
 643 0104 00000000 		.word	.LANCHOR0
 644 0108 00000000 		.word	ch0
 645 010c 00000000 		.word	Thread1
 646 0110 00000000 		.word	job_slow
 647 0114 00000000 		.word	.LANCHOR1
 648 0118 00000000 		.word	.LANCHOR2
 649 011c 1C000000 		.word	.LANCHOR0+28
 650 0120 00000000 		.word	.LANCHOR3
 651 0124 00000000 		.word	.LC0
 652 0128 00000000 		.word	.LANCHOR4
 653 012c 0C000000 		.word	.LC1
 654 0130 18000000 		.word	.LC2
 655 0134 2C000000 		.word	.LC3
 656              	.LBE138:
 657              		.cfi_endproc
 658              	.LFE406:
 659              		.size	oslib_test_004_001_execute, .-oslib_test_004_001_execute
 660              		.global	oslib_test_sequence_004
 661              		.section	.rodata.str1.4,"aMS",%progbits,1
 662              		.align	2
 663              	.LC4:
 664 0000 4A6F6273 		.ascii	"Jobs Queues\000"
 664      20517565 
 664      75657300 
 665              		.global	oslib_test_sequence_004_array
 666              		.align	2
 667              	.LC5:
 668 000c 44697370 		.ascii	"Dispatcher test\000"
 668      61746368 
 668      65722074 
 668      65737400 
 669              		.section	.bss.jobs,"aw",%nobits
ARM GAS  /tmp/ccIYJ70J.s 			page 13


 670              		.align	2
 671              		.set	.LANCHOR1,. + 0
 672              		.type	jobs, %object
 673              		.size	jobs, 32
 674              	jobs:
 675 0000 00000000 		.space	32
 675      00000000 
 675      00000000 
 675      00000000 
 675      00000000 
 676              		.section	.bss.jq,"aw",%nobits
 677              		.align	2
 678              		.set	.LANCHOR0,. + 0
 679              		.type	jq, %object
 680              		.size	jq, 68
 681              	jq:
 682 0000 00000000 		.space	68
 682      00000000 
 682      00000000 
 682      00000000 
 682      00000000 
 683              		.section	.bss.msg_queue,"aw",%nobits
 684              		.align	2
 685              		.set	.LANCHOR2,. + 0
 686              		.type	msg_queue, %object
 687              		.size	msg_queue, 16
 688              	msg_queue:
 689 0000 00000000 		.space	16
 689      00000000 
 689      00000000 
 689      00000000 
 690              		.section	.bss.wa1Thread1,"aw",%nobits
 691              		.align	3
 692              		.set	.LANCHOR3,. + 0
 693              		.type	wa1Thread1, %object
 694              		.size	wa1Thread1, 496
 695              	wa1Thread1:
 696 0000 00000000 		.space	496
 696      00000000 
 696      00000000 
 696      00000000 
 696      00000000 
 697              		.section	.bss.wa2Thread1,"aw",%nobits
 698              		.align	3
 699              		.set	.LANCHOR4,. + 0
 700              		.type	wa2Thread1, %object
 701              		.size	wa2Thread1, 496
 702              	wa2Thread1:
 703 0000 00000000 		.space	496
 703      00000000 
 703      00000000 
 703      00000000 
 703      00000000 
 704              		.section	.rodata.oslib_test_004_001,"a"
 705              		.align	2
 706              		.type	oslib_test_004_001, %object
 707              		.size	oslib_test_004_001, 16
ARM GAS  /tmp/ccIYJ70J.s 			page 14


 708              	oslib_test_004_001:
 709 0000 0C000000 		.word	.LC5
 710 0004 00000000 		.word	0
 711 0008 00000000 		.word	0
 712 000c 00000000 		.word	oslib_test_004_001_execute
 713              		.section	.rodata.oslib_test_sequence_004,"a"
 714              		.align	2
 715              		.type	oslib_test_sequence_004, %object
 716              		.size	oslib_test_sequence_004, 8
 717              	oslib_test_sequence_004:
 718 0000 00000000 		.word	.LC4
 719 0004 00000000 		.word	oslib_test_sequence_004_array
 720              		.section	.rodata.oslib_test_sequence_004_array,"a"
 721              		.align	2
 722              		.type	oslib_test_sequence_004_array, %object
 723              		.size	oslib_test_sequence_004_array, 8
 724              	oslib_test_sequence_004_array:
 725 0000 00000000 		.word	oslib_test_004_001
 726 0004 00000000 		.word	0
 727              		.text
 728              	.Letext0:
 729              		.file 5 "/opt/gcc-arm-none-eabi/gcc-arm-none-eabi-10.3-2021.07/lib/gcc/arm-none-eabi/10.3.1/includ
 730              		.file 6 "/opt/gcc-arm-none-eabi/gcc-arm-none-eabi-10.3-2021.07/arm-none-eabi/include/machine/_defa
 731              		.file 7 "/opt/gcc-arm-none-eabi/gcc-arm-none-eabi-10.3-2021.07/arm-none-eabi/include/sys/_stdint.h
 732              		.file 8 "../ChibiOS/os/common/ports/ARM-common/chtypes.h"
 733              		.file 9 "../ChibiOS/os/rt/include/chearly.h"
 734              		.file 10 "../ChibiOS/os/rt/include/chobjects.h"
 735              		.file 11 "../ChibiOS/os/rt/include/chrfcu.h"
 736              		.file 12 "../ChibiOS/os/rt/include/chdebug.h"
 737              		.file 13 "../ChibiOS/os/rt/include/chtime.h"
 738              		.file 14 "../ChibiOS/os/rt/include/chlists.h"
 739              		.file 15 "../ChibiOS/os/common/ports/ARMv7-M/chcore.h"
 740              		.file 16 "../ChibiOS/os/rt/include/chsem.h"
 741              		.file 17 "../ChibiOS/os/rt/include/chmtx.h"
 742              		.file 18 "../ChibiOS/os/oslib/include/chmboxes.h"
 743              		.file 19 "../ChibiOS/os/oslib/include/chmemcore.h"
 744              		.file 20 "../ChibiOS/os/hal/include/hal_streams.h"
 745              		.file 21 "../ChibiOS/os/test/include/ch_test.h"
 746              		.file 22 "../ChibiOS/test/oslib/source/test/oslib_test_sequence_004.h"
 747              		.file 23 "../ChibiOS/os/rt/include/chsys.h"