ARM GAS  /tmp/ccNvHfIQ.s 			page 1


   1              		.cpu cortex-m4
   2              		.eabi_attribute 20, 1
   3              		.eabi_attribute 21, 1
   4              		.eabi_attribute 23, 3
   5              		.eabi_attribute 24, 1
   6              		.eabi_attribute 25, 1
   7              		.eabi_attribute 26, 1
   8              		.eabi_attribute 30, 2
   9              		.eabi_attribute 34, 1
  10              		.eabi_attribute 18, 4
  11              		.file	"oslib_test_sequence_001.c"
  12              		.text
  13              	.Ltext0:
  14              		.cfi_sections	.debug_frame
  15              		.section	.rodata.oslib_test_001_003_execute.str1.4,"aMS",%progbits,1
  16              		.align	2
  17              	.LC0:
  18 0000 2D2D2D20 		.ascii	"--- CH_CFG_USE_MAILBOXES:               \000"
  18      43485F43 
  18      46475F55 
  18      53455F4D 
  18      41494C42 
  19 0029 000000   		.align	2
  20              	.LC1:
  21 002c 257300   		.ascii	"%s\000"
  22 002f 00       		.align	2
  23              	.LC2:
  24 0030 257500   		.ascii	"%u\000"
  25 0033 00       		.align	2
  26              	.LC3:
  27 0034 00       		.ascii	"\000"
  28 0035 000000   		.align	2
  29              	.LC4:
  30 0038 25730D0A 		.ascii	"%s\015\012\000"
  30      00
  31 003d 000000   		.align	2
  32              	.LC5:
  33 0040 2D2D2D20 		.ascii	"--- CH_CFG_USE_MEMCORE:                 \000"
  33      43485F43 
  33      46475F55 
  33      53455F4D 
  33      454D434F 
  34 0069 000000   		.align	2
  35              	.LC6:
  36 006c 2D2D2D20 		.ascii	"--- CH_CFG_USE_HEAP:                    \000"
  36      43485F43 
  36      46475F55 
  36      53455F48 
  36      4541503A 
  37 0095 000000   		.align	2
  38              	.LC7:
  39 0098 2D2D2D20 		.ascii	"--- CH_CFG_USE_MEMPOOLS:                \000"
  39      43485F43 
  39      46475F55 
  39      53455F4D 
  39      454D504F 
  40 00c1 000000   		.align	2
ARM GAS  /tmp/ccNvHfIQ.s 			page 2


  41              	.LC8:
  42 00c4 2D2D2D20 		.ascii	"--- CH_CFG_USE_OBJ_FIFOS:               \000"
  42      43485F43 
  42      46475F55 
  42      53455F4F 
  42      424A5F46 
  43 00ed 000000   		.align	2
  44              	.LC9:
  45 00f0 2D2D2D20 		.ascii	"--- CH_CFG_USE_PIPES:                   \000"
  45      43485F43 
  45      46475F55 
  45      53455F50 
  45      49504553 
  46 0119 000000   		.align	2
  47              	.LC10:
  48 011c 2D2D2D20 		.ascii	"--- CH_CFG_USE_OBJ_CACHES:              \000"
  48      43485F43 
  48      46475F55 
  48      53455F4F 
  48      424A5F43 
  49 0145 000000   		.align	2
  50              	.LC11:
  51 0148 2D2D2D20 		.ascii	"--- CH_CFG_USE_DELEGATES:               \000"
  51      43485F43 
  51      46475F55 
  51      53455F44 
  51      454C4547 
  52 0171 000000   		.align	2
  53              	.LC12:
  54 0174 2D2D2D20 		.ascii	"--- CH_CFG_USE_FACTORY:                 \000"
  54      43485F43 
  54      46475F55 
  54      53455F46 
  54      4143544F 
  55 019d 000000   		.align	2
  56              	.LC13:
  57 01a0 2D2D2D20 		.ascii	"--- CH_CFG_FACTORY_MAX_NAMES_LENGTH:    \000"
  57      43485F43 
  57      46475F46 
  57      4143544F 
  57      52595F4D 
  58 01c9 000000   		.align	2
  59              	.LC14:
  60 01cc 2D2D2D20 		.ascii	"--- CH_CFG_FACTORY_OBJECTS_REGISTRY:    \000"
  60      43485F43 
  60      46475F46 
  60      4143544F 
  60      52595F4F 
  61 01f5 000000   		.align	2
  62              	.LC15:
  63 01f8 2D2D2D20 		.ascii	"--- CH_CFG_FACTORY_GENERIC_BUFFERS:     \000"
  63      43485F43 
  63      46475F46 
  63      4143544F 
  63      52595F47 
  64 0221 000000   		.align	2
  65              	.LC16:
ARM GAS  /tmp/ccNvHfIQ.s 			page 3


  66 0224 2D2D2D20 		.ascii	"--- CH_CFG_FACTORY_SEMAPHORES:          \000"
  66      43485F43 
  66      46475F46 
  66      4143544F 
  66      52595F53 
  67 024d 000000   		.align	2
  68              	.LC17:
  69 0250 2D2D2D20 		.ascii	"--- CH_CFG_FACTORY_MAILBOXES:           \000"
  69      43485F43 
  69      46475F46 
  69      4143544F 
  69      52595F4D 
  70 0279 000000   		.align	2
  71              	.LC18:
  72 027c 2D2D2D20 		.ascii	"--- CH_CFG_FACTORY_OBJ_FIFOS:           \000"
  72      43485F43 
  72      46475F46 
  72      4143544F 
  72      52595F4F 
  73 02a5 000000   		.align	2
  74              	.LC19:
  75 02a8 2D2D2D20 		.ascii	"--- CH_CFG_FACTORY_PIPES:               \000"
  75      43485F43 
  75      46475F46 
  75      4143544F 
  75      52595F50 
  76              		.section	.text.oslib_test_001_003_execute,"ax",%progbits
  77              		.align	1
  78              		.p2align 4,,15
  79              		.arch armv7e-m
  80              		.syntax unified
  81              		.thumb
  82              		.thumb_func
  83              		.fpu softvfp
  84              		.type	oslib_test_001_003_execute, %function
  85              	oslib_test_001_003_execute:
  86              	.LFB406:
  87              		.file 1 "../ChibiOS/test/oslib/source/test/oslib_test_sequence_001.c"
  88              		.loc 1 160 46 view -0
  89              		.cfi_startproc
  90              		@ args = 0, pretend = 0, frame = 0
  91              		@ frame_needed = 0, uses_anonymous_args = 0
  92              		.loc 1 163 3 view .LVU1
  93              		.loc 1 160 46 is_stmt 0 view .LVU2
  94 0000 2DE9F041 		push	{r4, r5, r6, r7, r8, lr}
  95              		.cfi_def_cfa_offset 24
  96              		.cfi_offset 4, -24
  97              		.cfi_offset 5, -20
  98              		.cfi_offset 6, -16
  99              		.cfi_offset 7, -12
 100              		.cfi_offset 8, -8
 101              		.cfi_offset 14, -4
 102              	.LBB162:
 103              	.LBB163:
 104              		.file 2 "../ChibiOS/os/test/include/ch_test.h"
 105              		.loc 2 371 3 view .LVU3
 106 0004 DFF89081 		ldr	r8, .L4
ARM GAS  /tmp/ccNvHfIQ.s 			page 4


 107              	.LBE163:
 108              	.LBE162:
 109              		.loc 1 163 3 view .LVU4
 110 0008 644B     		ldr	r3, .L4+4
 111              	.LBB167:
 112              	.LBB168:
 113              		.loc 2 359 3 view .LVU5
 114 000a 654E     		ldr	r6, .L4+8
 115              	.LBE168:
 116              	.LBE167:
 117              	.LBB170:
 118              	.LBB171:
 119              		.loc 2 383 3 view .LVU6
 120 000c 654D     		ldr	r5, .L4+12
 121 000e 664C     		ldr	r4, .L4+16
 122              	.LBE171:
 123              	.LBE170:
 124              	.LBB173:
 125              	.LBB164:
 126              		.loc 2 371 3 view .LVU7
 127 0010 6649     		ldr	r1, .L4+20
 128              	.LBE164:
 129              	.LBE173:
 130              		.loc 1 163 3 view .LVU8
 131 0012 0127     		movs	r7, #1
 132              	.LBB174:
 133              	.LBB165:
 134              		.loc 2 371 3 view .LVU9
 135 0014 4046     		mov	r0, r8
 136              	.LBE165:
 137              	.LBE174:
 138              		.loc 1 163 3 view .LVU10
 139 0016 1F60     		str	r7, [r3]
 140              		.loc 1 165 5 is_stmt 1 view .LVU11
 141              	.LVL0:
 142              	.LBB175:
 143              	.LBI162:
 144              		.loc 2 369 20 view .LVU12
 145              	.LBB166:
 146              		.loc 2 371 3 view .LVU13
 147 0018 FFF7FEFF 		bl	test_printf
 148              	.LVL1:
 149              		.loc 2 371 3 is_stmt 0 view .LVU14
 150              	.LBE166:
 151              	.LBE175:
 152              		.loc 1 166 5 is_stmt 1 view .LVU15
 153              	.LBB176:
 154              	.LBI167:
 155              		.loc 2 357 20 view .LVU16
 156              	.LBB169:
 157              		.loc 2 359 3 view .LVU17
 158 001c 3946     		mov	r1, r7
 159 001e 3046     		mov	r0, r6
 160 0020 FFF7FEFF 		bl	test_printf
 161              	.LVL2:
 162              		.loc 2 359 3 is_stmt 0 view .LVU18
 163              	.LBE169:
ARM GAS  /tmp/ccNvHfIQ.s 			page 5


 164              	.LBE176:
 165              		.loc 1 167 5 is_stmt 1 view .LVU19
 166              	.LBB177:
 167              	.LBI170:
 168              		.loc 2 381 20 view .LVU20
 169              	.LBB172:
 170              		.loc 2 383 3 view .LVU21
 171 0024 2946     		mov	r1, r5
 172 0026 2046     		mov	r0, r4
 173 0028 FFF7FEFF 		bl	test_printf
 174              	.LVL3:
 175              		.loc 2 383 3 is_stmt 0 view .LVU22
 176              	.LBE172:
 177              	.LBE177:
 178              		.loc 1 168 5 is_stmt 1 view .LVU23
 179              	.LBB178:
 180              	.LBI178:
 181              		.loc 2 369 20 view .LVU24
 182              	.LBB179:
 183              		.loc 2 371 3 view .LVU25
 184 002c 6049     		ldr	r1, .L4+24
 185 002e 4046     		mov	r0, r8
 186 0030 FFF7FEFF 		bl	test_printf
 187              	.LVL4:
 188              		.loc 2 371 3 is_stmt 0 view .LVU26
 189              	.LBE179:
 190              	.LBE178:
 191              		.loc 1 169 5 is_stmt 1 view .LVU27
 192              	.LBB180:
 193              	.LBI180:
 194              		.loc 2 357 20 view .LVU28
 195              	.LBB181:
 196              		.loc 2 359 3 view .LVU29
 197 0034 3946     		mov	r1, r7
 198 0036 3046     		mov	r0, r6
 199 0038 FFF7FEFF 		bl	test_printf
 200              	.LVL5:
 201              		.loc 2 359 3 is_stmt 0 view .LVU30
 202              	.LBE181:
 203              	.LBE180:
 204              		.loc 1 170 5 is_stmt 1 view .LVU31
 205              	.LBB182:
 206              	.LBI182:
 207              		.loc 2 381 20 view .LVU32
 208              	.LBB183:
 209              		.loc 2 383 3 view .LVU33
 210 003c 2946     		mov	r1, r5
 211 003e 2046     		mov	r0, r4
 212 0040 FFF7FEFF 		bl	test_printf
 213              	.LVL6:
 214              		.loc 2 383 3 is_stmt 0 view .LVU34
 215              	.LBE183:
 216              	.LBE182:
 217              		.loc 1 171 5 is_stmt 1 view .LVU35
 218              	.LBB184:
 219              	.LBI184:
 220              		.loc 2 369 20 view .LVU36
ARM GAS  /tmp/ccNvHfIQ.s 			page 6


 221              	.LBB185:
 222              		.loc 2 371 3 view .LVU37
 223 0044 5B49     		ldr	r1, .L4+28
 224 0046 4046     		mov	r0, r8
 225 0048 FFF7FEFF 		bl	test_printf
 226              	.LVL7:
 227              		.loc 2 371 3 is_stmt 0 view .LVU38
 228              	.LBE185:
 229              	.LBE184:
 230              		.loc 1 172 5 is_stmt 1 view .LVU39
 231              	.LBB186:
 232              	.LBI186:
 233              		.loc 2 357 20 view .LVU40
 234              	.LBB187:
 235              		.loc 2 359 3 view .LVU41
 236 004c 3946     		mov	r1, r7
 237 004e 3046     		mov	r0, r6
 238 0050 FFF7FEFF 		bl	test_printf
 239              	.LVL8:
 240              		.loc 2 359 3 is_stmt 0 view .LVU42
 241              	.LBE187:
 242              	.LBE186:
 243              		.loc 1 173 5 is_stmt 1 view .LVU43
 244              	.LBB188:
 245              	.LBI188:
 246              		.loc 2 381 20 view .LVU44
 247              	.LBB189:
 248              		.loc 2 383 3 view .LVU45
 249 0054 2946     		mov	r1, r5
 250 0056 2046     		mov	r0, r4
 251 0058 FFF7FEFF 		bl	test_printf
 252              	.LVL9:
 253              		.loc 2 383 3 is_stmt 0 view .LVU46
 254              	.LBE189:
 255              	.LBE188:
 256              		.loc 1 174 5 is_stmt 1 view .LVU47
 257              	.LBB190:
 258              	.LBI190:
 259              		.loc 2 369 20 view .LVU48
 260              	.LBB191:
 261              		.loc 2 371 3 view .LVU49
 262 005c 5649     		ldr	r1, .L4+32
 263 005e 4046     		mov	r0, r8
 264 0060 FFF7FEFF 		bl	test_printf
 265              	.LVL10:
 266              		.loc 2 371 3 is_stmt 0 view .LVU50
 267              	.LBE191:
 268              	.LBE190:
 269              		.loc 1 175 5 is_stmt 1 view .LVU51
 270              	.LBB192:
 271              	.LBI192:
 272              		.loc 2 357 20 view .LVU52
 273              	.LBB193:
 274              		.loc 2 359 3 view .LVU53
 275 0064 3946     		mov	r1, r7
 276 0066 3046     		mov	r0, r6
 277 0068 FFF7FEFF 		bl	test_printf
ARM GAS  /tmp/ccNvHfIQ.s 			page 7


 278              	.LVL11:
 279              		.loc 2 359 3 is_stmt 0 view .LVU54
 280              	.LBE193:
 281              	.LBE192:
 282              		.loc 1 176 5 is_stmt 1 view .LVU55
 283              	.LBB194:
 284              	.LBI194:
 285              		.loc 2 381 20 view .LVU56
 286              	.LBB195:
 287              		.loc 2 383 3 view .LVU57
 288 006c 2946     		mov	r1, r5
 289 006e 2046     		mov	r0, r4
 290 0070 FFF7FEFF 		bl	test_printf
 291              	.LVL12:
 292              		.loc 2 383 3 is_stmt 0 view .LVU58
 293              	.LBE195:
 294              	.LBE194:
 295              		.loc 1 177 5 is_stmt 1 view .LVU59
 296              	.LBB196:
 297              	.LBI196:
 298              		.loc 2 369 20 view .LVU60
 299              	.LBB197:
 300              		.loc 2 371 3 view .LVU61
 301 0074 5149     		ldr	r1, .L4+36
 302 0076 4046     		mov	r0, r8
 303 0078 FFF7FEFF 		bl	test_printf
 304              	.LVL13:
 305              		.loc 2 371 3 is_stmt 0 view .LVU62
 306              	.LBE197:
 307              	.LBE196:
 308              		.loc 1 178 5 is_stmt 1 view .LVU63
 309              	.LBB198:
 310              	.LBI198:
 311              		.loc 2 357 20 view .LVU64
 312              	.LBB199:
 313              		.loc 2 359 3 view .LVU65
 314 007c 3946     		mov	r1, r7
 315 007e 3046     		mov	r0, r6
 316 0080 FFF7FEFF 		bl	test_printf
 317              	.LVL14:
 318              		.loc 2 359 3 is_stmt 0 view .LVU66
 319              	.LBE199:
 320              	.LBE198:
 321              		.loc 1 179 5 is_stmt 1 view .LVU67
 322              	.LBB200:
 323              	.LBI200:
 324              		.loc 2 381 20 view .LVU68
 325              	.LBB201:
 326              		.loc 2 383 3 view .LVU69
 327 0084 2946     		mov	r1, r5
 328 0086 2046     		mov	r0, r4
 329 0088 FFF7FEFF 		bl	test_printf
 330              	.LVL15:
 331              		.loc 2 383 3 is_stmt 0 view .LVU70
 332              	.LBE201:
 333              	.LBE200:
 334              		.loc 1 180 5 is_stmt 1 view .LVU71
ARM GAS  /tmp/ccNvHfIQ.s 			page 8


 335              	.LBB202:
 336              	.LBI202:
 337              		.loc 2 369 20 view .LVU72
 338              	.LBB203:
 339              		.loc 2 371 3 view .LVU73
 340 008c 4C49     		ldr	r1, .L4+40
 341 008e 4046     		mov	r0, r8
 342 0090 FFF7FEFF 		bl	test_printf
 343              	.LVL16:
 344              		.loc 2 371 3 is_stmt 0 view .LVU74
 345              	.LBE203:
 346              	.LBE202:
 347              		.loc 1 181 5 is_stmt 1 view .LVU75
 348              	.LBB204:
 349              	.LBI204:
 350              		.loc 2 357 20 view .LVU76
 351              	.LBB205:
 352              		.loc 2 359 3 view .LVU77
 353 0094 3946     		mov	r1, r7
 354 0096 3046     		mov	r0, r6
 355 0098 FFF7FEFF 		bl	test_printf
 356              	.LVL17:
 357              		.loc 2 359 3 is_stmt 0 view .LVU78
 358              	.LBE205:
 359              	.LBE204:
 360              		.loc 1 182 5 is_stmt 1 view .LVU79
 361              	.LBB206:
 362              	.LBI206:
 363              		.loc 2 381 20 view .LVU80
 364              	.LBB207:
 365              		.loc 2 383 3 view .LVU81
 366 009c 2946     		mov	r1, r5
 367 009e 2046     		mov	r0, r4
 368 00a0 FFF7FEFF 		bl	test_printf
 369              	.LVL18:
 370              		.loc 2 383 3 is_stmt 0 view .LVU82
 371              	.LBE207:
 372              	.LBE206:
 373              		.loc 1 183 5 is_stmt 1 view .LVU83
 374              	.LBB208:
 375              	.LBI208:
 376              		.loc 2 369 20 view .LVU84
 377              	.LBB209:
 378              		.loc 2 371 3 view .LVU85
 379 00a4 4749     		ldr	r1, .L4+44
 380 00a6 4046     		mov	r0, r8
 381 00a8 FFF7FEFF 		bl	test_printf
 382              	.LVL19:
 383              		.loc 2 371 3 is_stmt 0 view .LVU86
 384              	.LBE209:
 385              	.LBE208:
 386              		.loc 1 184 5 is_stmt 1 view .LVU87
 387              	.LBB210:
 388              	.LBI210:
 389              		.loc 2 357 20 view .LVU88
 390              	.LBB211:
 391              		.loc 2 359 3 view .LVU89
ARM GAS  /tmp/ccNvHfIQ.s 			page 9


 392 00ac 3946     		mov	r1, r7
 393 00ae 3046     		mov	r0, r6
 394 00b0 FFF7FEFF 		bl	test_printf
 395              	.LVL20:
 396              		.loc 2 359 3 is_stmt 0 view .LVU90
 397              	.LBE211:
 398              	.LBE210:
 399              		.loc 1 185 5 is_stmt 1 view .LVU91
 400              	.LBB212:
 401              	.LBI212:
 402              		.loc 2 381 20 view .LVU92
 403              	.LBB213:
 404              		.loc 2 383 3 view .LVU93
 405 00b4 2946     		mov	r1, r5
 406 00b6 2046     		mov	r0, r4
 407 00b8 FFF7FEFF 		bl	test_printf
 408              	.LVL21:
 409              		.loc 2 383 3 is_stmt 0 view .LVU94
 410              	.LBE213:
 411              	.LBE212:
 412              		.loc 1 186 5 is_stmt 1 view .LVU95
 413              	.LBB214:
 414              	.LBI214:
 415              		.loc 2 369 20 view .LVU96
 416              	.LBB215:
 417              		.loc 2 371 3 view .LVU97
 418 00bc 4249     		ldr	r1, .L4+48
 419 00be 4046     		mov	r0, r8
 420 00c0 FFF7FEFF 		bl	test_printf
 421              	.LVL22:
 422              		.loc 2 371 3 is_stmt 0 view .LVU98
 423              	.LBE215:
 424              	.LBE214:
 425              		.loc 1 187 5 is_stmt 1 view .LVU99
 426              	.LBB216:
 427              	.LBI216:
 428              		.loc 2 357 20 view .LVU100
 429              	.LBB217:
 430              		.loc 2 359 3 view .LVU101
 431 00c4 3946     		mov	r1, r7
 432 00c6 3046     		mov	r0, r6
 433 00c8 FFF7FEFF 		bl	test_printf
 434              	.LVL23:
 435              		.loc 2 359 3 is_stmt 0 view .LVU102
 436              	.LBE217:
 437              	.LBE216:
 438              		.loc 1 188 5 is_stmt 1 view .LVU103
 439              	.LBB218:
 440              	.LBI218:
 441              		.loc 2 381 20 view .LVU104
 442              	.LBB219:
 443              		.loc 2 383 3 view .LVU105
 444 00cc 2946     		mov	r1, r5
 445 00ce 2046     		mov	r0, r4
 446 00d0 FFF7FEFF 		bl	test_printf
 447              	.LVL24:
 448              		.loc 2 383 3 is_stmt 0 view .LVU106
ARM GAS  /tmp/ccNvHfIQ.s 			page 10


 449              	.LBE219:
 450              	.LBE218:
 451              		.loc 1 189 5 is_stmt 1 view .LVU107
 452              	.LBB220:
 453              	.LBI220:
 454              		.loc 2 369 20 view .LVU108
 455              	.LBB221:
 456              		.loc 2 371 3 view .LVU109
 457 00d4 3D49     		ldr	r1, .L4+52
 458 00d6 4046     		mov	r0, r8
 459 00d8 FFF7FEFF 		bl	test_printf
 460              	.LVL25:
 461              		.loc 2 371 3 is_stmt 0 view .LVU110
 462              	.LBE221:
 463              	.LBE220:
 464              		.loc 1 190 5 is_stmt 1 view .LVU111
 465              	.LBB222:
 466              	.LBI222:
 467              		.loc 2 357 20 view .LVU112
 468              	.LBB223:
 469              		.loc 2 359 3 view .LVU113
 470 00dc 3946     		mov	r1, r7
 471 00de 3046     		mov	r0, r6
 472 00e0 FFF7FEFF 		bl	test_printf
 473              	.LVL26:
 474              		.loc 2 359 3 is_stmt 0 view .LVU114
 475              	.LBE223:
 476              	.LBE222:
 477              		.loc 1 191 5 is_stmt 1 view .LVU115
 478              	.LBB224:
 479              	.LBI224:
 480              		.loc 2 381 20 view .LVU116
 481              	.LBB225:
 482              		.loc 2 383 3 view .LVU117
 483 00e4 2946     		mov	r1, r5
 484 00e6 2046     		mov	r0, r4
 485 00e8 FFF7FEFF 		bl	test_printf
 486              	.LVL27:
 487              		.loc 2 383 3 is_stmt 0 view .LVU118
 488              	.LBE225:
 489              	.LBE224:
 490              		.loc 1 192 5 is_stmt 1 view .LVU119
 491              	.LBB226:
 492              	.LBI226:
 493              		.loc 2 369 20 view .LVU120
 494              	.LBB227:
 495              		.loc 2 371 3 view .LVU121
 496 00ec 3849     		ldr	r1, .L4+56
 497 00ee 4046     		mov	r0, r8
 498 00f0 FFF7FEFF 		bl	test_printf
 499              	.LVL28:
 500              		.loc 2 371 3 is_stmt 0 view .LVU122
 501              	.LBE227:
 502              	.LBE226:
 503              		.loc 1 193 5 is_stmt 1 view .LVU123
 504              	.LBB228:
 505              	.LBI228:
ARM GAS  /tmp/ccNvHfIQ.s 			page 11


 506              		.loc 2 357 20 view .LVU124
 507              	.LBB229:
 508              		.loc 2 359 3 view .LVU125
 509 00f4 0821     		movs	r1, #8
 510 00f6 3046     		mov	r0, r6
 511 00f8 FFF7FEFF 		bl	test_printf
 512              	.LVL29:
 513              		.loc 2 359 3 is_stmt 0 view .LVU126
 514              	.LBE229:
 515              	.LBE228:
 516              		.loc 1 194 5 is_stmt 1 view .LVU127
 517              	.LBB230:
 518              	.LBI230:
 519              		.loc 2 381 20 view .LVU128
 520              	.LBB231:
 521              		.loc 2 383 3 view .LVU129
 522 00fc 2946     		mov	r1, r5
 523 00fe 2046     		mov	r0, r4
 524 0100 FFF7FEFF 		bl	test_printf
 525              	.LVL30:
 526              		.loc 2 383 3 is_stmt 0 view .LVU130
 527              	.LBE231:
 528              	.LBE230:
 529              		.loc 1 195 5 is_stmt 1 view .LVU131
 530              	.LBB232:
 531              	.LBI232:
 532              		.loc 2 369 20 view .LVU132
 533              	.LBB233:
 534              		.loc 2 371 3 view .LVU133
 535 0104 3349     		ldr	r1, .L4+60
 536 0106 4046     		mov	r0, r8
 537 0108 FFF7FEFF 		bl	test_printf
 538              	.LVL31:
 539              		.loc 2 371 3 is_stmt 0 view .LVU134
 540              	.LBE233:
 541              	.LBE232:
 542              		.loc 1 196 5 is_stmt 1 view .LVU135
 543              	.LBB234:
 544              	.LBI234:
 545              		.loc 2 357 20 view .LVU136
 546              	.LBB235:
 547              		.loc 2 359 3 view .LVU137
 548 010c 3946     		mov	r1, r7
 549 010e 3046     		mov	r0, r6
 550 0110 FFF7FEFF 		bl	test_printf
 551              	.LVL32:
 552              		.loc 2 359 3 is_stmt 0 view .LVU138
 553              	.LBE235:
 554              	.LBE234:
 555              		.loc 1 197 5 is_stmt 1 view .LVU139
 556              	.LBB236:
 557              	.LBI236:
 558              		.loc 2 381 20 view .LVU140
 559              	.LBB237:
 560              		.loc 2 383 3 view .LVU141
 561 0114 2946     		mov	r1, r5
 562 0116 2046     		mov	r0, r4
ARM GAS  /tmp/ccNvHfIQ.s 			page 12


 563 0118 FFF7FEFF 		bl	test_printf
 564              	.LVL33:
 565              		.loc 2 383 3 is_stmt 0 view .LVU142
 566              	.LBE237:
 567              	.LBE236:
 568              		.loc 1 198 5 is_stmt 1 view .LVU143
 569              	.LBB238:
 570              	.LBI238:
 571              		.loc 2 369 20 view .LVU144
 572              	.LBB239:
 573              		.loc 2 371 3 view .LVU145
 574 011c 2E49     		ldr	r1, .L4+64
 575 011e 4046     		mov	r0, r8
 576 0120 FFF7FEFF 		bl	test_printf
 577              	.LVL34:
 578              		.loc 2 371 3 is_stmt 0 view .LVU146
 579              	.LBE239:
 580              	.LBE238:
 581              		.loc 1 199 5 is_stmt 1 view .LVU147
 582              	.LBB240:
 583              	.LBI240:
 584              		.loc 2 357 20 view .LVU148
 585              	.LBB241:
 586              		.loc 2 359 3 view .LVU149
 587 0124 3946     		mov	r1, r7
 588 0126 3046     		mov	r0, r6
 589 0128 FFF7FEFF 		bl	test_printf
 590              	.LVL35:
 591              		.loc 2 359 3 is_stmt 0 view .LVU150
 592              	.LBE241:
 593              	.LBE240:
 594              		.loc 1 200 5 is_stmt 1 view .LVU151
 595              	.LBB242:
 596              	.LBI242:
 597              		.loc 2 381 20 view .LVU152
 598              	.LBB243:
 599              		.loc 2 383 3 view .LVU153
 600 012c 2946     		mov	r1, r5
 601 012e 2046     		mov	r0, r4
 602 0130 FFF7FEFF 		bl	test_printf
 603              	.LVL36:
 604              		.loc 2 383 3 is_stmt 0 view .LVU154
 605              	.LBE243:
 606              	.LBE242:
 607              		.loc 1 201 5 is_stmt 1 view .LVU155
 608              	.LBB244:
 609              	.LBI244:
 610              		.loc 2 369 20 view .LVU156
 611              	.LBB245:
 612              		.loc 2 371 3 view .LVU157
 613 0134 2949     		ldr	r1, .L4+68
 614 0136 4046     		mov	r0, r8
 615 0138 FFF7FEFF 		bl	test_printf
 616              	.LVL37:
 617              		.loc 2 371 3 is_stmt 0 view .LVU158
 618              	.LBE245:
 619              	.LBE244:
ARM GAS  /tmp/ccNvHfIQ.s 			page 13


 620              		.loc 1 202 5 is_stmt 1 view .LVU159
 621              	.LBB246:
 622              	.LBI246:
 623              		.loc 2 357 20 view .LVU160
 624              	.LBB247:
 625              		.loc 2 359 3 view .LVU161
 626 013c 3946     		mov	r1, r7
 627 013e 3046     		mov	r0, r6
 628 0140 FFF7FEFF 		bl	test_printf
 629              	.LVL38:
 630              		.loc 2 359 3 is_stmt 0 view .LVU162
 631              	.LBE247:
 632              	.LBE246:
 633              		.loc 1 203 5 is_stmt 1 view .LVU163
 634              	.LBB248:
 635              	.LBI248:
 636              		.loc 2 381 20 view .LVU164
 637              	.LBB249:
 638              		.loc 2 383 3 view .LVU165
 639 0144 2946     		mov	r1, r5
 640 0146 2046     		mov	r0, r4
 641 0148 FFF7FEFF 		bl	test_printf
 642              	.LVL39:
 643              		.loc 2 383 3 is_stmt 0 view .LVU166
 644              	.LBE249:
 645              	.LBE248:
 646              		.loc 1 204 5 is_stmt 1 view .LVU167
 647              	.LBB250:
 648              	.LBI250:
 649              		.loc 2 369 20 view .LVU168
 650              	.LBB251:
 651              		.loc 2 371 3 view .LVU169
 652 014c 2449     		ldr	r1, .L4+72
 653 014e 4046     		mov	r0, r8
 654 0150 FFF7FEFF 		bl	test_printf
 655              	.LVL40:
 656              		.loc 2 371 3 is_stmt 0 view .LVU170
 657              	.LBE251:
 658              	.LBE250:
 659              		.loc 1 205 5 is_stmt 1 view .LVU171
 660              	.LBB252:
 661              	.LBI252:
 662              		.loc 2 357 20 view .LVU172
 663              	.LBB253:
 664              		.loc 2 359 3 view .LVU173
 665 0154 3946     		mov	r1, r7
 666 0156 3046     		mov	r0, r6
 667 0158 FFF7FEFF 		bl	test_printf
 668              	.LVL41:
 669              		.loc 2 359 3 is_stmt 0 view .LVU174
 670              	.LBE253:
 671              	.LBE252:
 672              		.loc 1 206 5 is_stmt 1 view .LVU175
 673              	.LBB254:
 674              	.LBI254:
 675              		.loc 2 381 20 view .LVU176
 676              	.LBB255:
ARM GAS  /tmp/ccNvHfIQ.s 			page 14


 677              		.loc 2 383 3 view .LVU177
 678 015c 2946     		mov	r1, r5
 679 015e 2046     		mov	r0, r4
 680 0160 FFF7FEFF 		bl	test_printf
 681              	.LVL42:
 682              		.loc 2 383 3 is_stmt 0 view .LVU178
 683              	.LBE255:
 684              	.LBE254:
 685              		.loc 1 207 5 is_stmt 1 view .LVU179
 686              	.LBB256:
 687              	.LBI256:
 688              		.loc 2 369 20 view .LVU180
 689              	.LBB257:
 690              		.loc 2 371 3 view .LVU181
 691 0164 1F49     		ldr	r1, .L4+76
 692 0166 4046     		mov	r0, r8
 693 0168 FFF7FEFF 		bl	test_printf
 694              	.LVL43:
 695              		.loc 2 371 3 is_stmt 0 view .LVU182
 696              	.LBE257:
 697              	.LBE256:
 698              		.loc 1 208 5 is_stmt 1 view .LVU183
 699              	.LBB258:
 700              	.LBI258:
 701              		.loc 2 357 20 view .LVU184
 702              	.LBB259:
 703              		.loc 2 359 3 view .LVU185
 704 016c 3946     		mov	r1, r7
 705 016e 3046     		mov	r0, r6
 706 0170 FFF7FEFF 		bl	test_printf
 707              	.LVL44:
 708              		.loc 2 359 3 is_stmt 0 view .LVU186
 709              	.LBE259:
 710              	.LBE258:
 711              		.loc 1 209 5 is_stmt 1 view .LVU187
 712              	.LBB260:
 713              	.LBI260:
 714              		.loc 2 381 20 view .LVU188
 715              	.LBB261:
 716              		.loc 2 383 3 view .LVU189
 717 0174 2946     		mov	r1, r5
 718 0176 2046     		mov	r0, r4
 719 0178 FFF7FEFF 		bl	test_printf
 720              	.LVL45:
 721              		.loc 2 383 3 is_stmt 0 view .LVU190
 722              	.LBE261:
 723              	.LBE260:
 724              		.loc 1 210 5 is_stmt 1 view .LVU191
 725              	.LBB262:
 726              	.LBI262:
 727              		.loc 2 369 20 view .LVU192
 728              	.LBB263:
 729              		.loc 2 371 3 view .LVU193
 730 017c 1A49     		ldr	r1, .L4+80
 731 017e 4046     		mov	r0, r8
 732 0180 FFF7FEFF 		bl	test_printf
 733              	.LVL46:
ARM GAS  /tmp/ccNvHfIQ.s 			page 15


 734              		.loc 2 371 3 is_stmt 0 view .LVU194
 735              	.LBE263:
 736              	.LBE262:
 737              		.loc 1 211 5 is_stmt 1 view .LVU195
 738              	.LBB264:
 739              	.LBI264:
 740              		.loc 2 357 20 view .LVU196
 741              	.LBB265:
 742              		.loc 2 359 3 view .LVU197
 743 0184 3946     		mov	r1, r7
 744 0186 3046     		mov	r0, r6
 745 0188 FFF7FEFF 		bl	test_printf
 746              	.LVL47:
 747              		.loc 2 359 3 is_stmt 0 view .LVU198
 748              	.LBE265:
 749              	.LBE264:
 750              		.loc 1 212 5 is_stmt 1 view .LVU199
 751              	.LBB266:
 752              	.LBI266:
 753              		.loc 2 381 20 view .LVU200
 754              	.LBB267:
 755              		.loc 2 383 3 view .LVU201
 756 018c 2946     		mov	r1, r5
 757 018e 2046     		mov	r0, r4
 758              	.LBE267:
 759              	.LBE266:
 760              		.loc 1 215 1 is_stmt 0 view .LVU202
 761 0190 BDE8F041 		pop	{r4, r5, r6, r7, r8, lr}
 762              		.cfi_restore 14
 763              		.cfi_restore 8
 764              		.cfi_restore 7
 765              		.cfi_restore 6
 766              		.cfi_restore 5
 767              		.cfi_restore 4
 768              		.cfi_def_cfa_offset 0
 769              	.LBB269:
 770              	.LBB268:
 771              		.loc 2 383 3 view .LVU203
 772 0194 FFF7FEBF 		b	test_printf
 773              	.LVL48:
 774              	.L5:
 775              		.align	2
 776              	.L4:
 777 0198 2C000000 		.word	.LC1
 778 019c 00000000 		.word	chtest
 779 01a0 30000000 		.word	.LC2
 780 01a4 34000000 		.word	.LC3
 781 01a8 38000000 		.word	.LC4
 782 01ac 00000000 		.word	.LC0
 783 01b0 40000000 		.word	.LC5
 784 01b4 6C000000 		.word	.LC6
 785 01b8 98000000 		.word	.LC7
 786 01bc C4000000 		.word	.LC8
 787 01c0 F0000000 		.word	.LC9
 788 01c4 1C010000 		.word	.LC10
 789 01c8 48010000 		.word	.LC11
 790 01cc 74010000 		.word	.LC12
ARM GAS  /tmp/ccNvHfIQ.s 			page 16


 791 01d0 A0010000 		.word	.LC13
 792 01d4 CC010000 		.word	.LC14
 793 01d8 F8010000 		.word	.LC15
 794 01dc 24020000 		.word	.LC16
 795 01e0 50020000 		.word	.LC17
 796 01e4 7C020000 		.word	.LC18
 797 01e8 A8020000 		.word	.LC19
 798              	.LBE268:
 799              	.LBE269:
 800              		.cfi_endproc
 801              	.LFE406:
 802              		.size	oslib_test_001_003_execute, .-oslib_test_001_003_execute
 803              		.section	.rodata.oslib_test_001_002_execute.str1.4,"aMS",%progbits,1
 804              		.align	2
 805              	.LC20:
 806 0000 2D2D2D20 		.ascii	"--- Product:                            ChibiOS/LIB"
 806      50726F64 
 806      7563743A 
 806      20202020 
 806      20202020 
 807 0033 00       		.ascii	"\000"
 808              		.align	2
 809              	.LC21:
 810 0034 2D2D2D20 		.ascii	"--- Stable Flag:                        \000"
 810      53746162 
 810      6C652046 
 810      6C61673A 
 810      20202020 
 811 005d 000000   		.align	2
 812              	.LC22:
 813 0060 2D2D2D20 		.ascii	"--- Version String:                     \000"
 813      56657273 
 813      696F6E20 
 813      53747269 
 813      6E673A20 
 814 0089 000000   		.align	2
 815              	.LC23:
 816 008c 312E332E 		.ascii	"1.3.0\000"
 816      3000
 817 0092 0000     		.align	2
 818              	.LC24:
 819 0094 2D2D2D20 		.ascii	"--- Major Number:                       \000"
 819      4D616A6F 
 819      72204E75 
 819      6D626572 
 819      3A202020 
 820 00bd 000000   		.align	2
 821              	.LC25:
 822 00c0 2D2D2D20 		.ascii	"--- Minor Number:                       \000"
 822      4D696E6F 
 822      72204E75 
 822      6D626572 
 822      3A202020 
 823 00e9 000000   		.align	2
 824              	.LC26:
 825 00ec 2D2D2D20 		.ascii	"--- Patch Number:                       \000"
 825      50617463 
ARM GAS  /tmp/ccNvHfIQ.s 			page 17


 825      68204E75 
 825      6D626572 
 825      3A202020 
 826              		.section	.text.oslib_test_001_002_execute,"ax",%progbits
 827              		.align	1
 828              		.p2align 4,,15
 829              		.syntax unified
 830              		.thumb
 831              		.thumb_func
 832              		.fpu softvfp
 833              		.type	oslib_test_001_002_execute, %function
 834              	oslib_test_001_002_execute:
 835              	.LFB405:
 836              		.loc 1 118 46 is_stmt 1 view -0
 837              		.cfi_startproc
 838              		@ args = 0, pretend = 0, frame = 0
 839              		@ frame_needed = 0, uses_anonymous_args = 0
 840              		.loc 1 121 3 view .LVU205
 841              		.loc 1 118 46 is_stmt 0 view .LVU206
 842 0000 2DE9F041 		push	{r4, r5, r6, r7, r8, lr}
 843              		.cfi_def_cfa_offset 24
 844              		.cfi_offset 4, -24
 845              		.cfi_offset 5, -20
 846              		.cfi_offset 6, -16
 847              		.cfi_offset 7, -12
 848              		.cfi_offset 8, -8
 849              		.cfi_offset 14, -4
 850              	.LBB270:
 851              	.LBB271:
 852              		.loc 2 383 3 view .LVU207
 853 0004 234C     		ldr	r4, .L8
 854              	.LBE271:
 855              	.LBE270:
 856              		.loc 1 121 3 view .LVU208
 857 0006 244B     		ldr	r3, .L8+4
 858              	.LBB275:
 859              	.LBB276:
 860              		.loc 2 371 3 view .LVU209
 861 0008 244D     		ldr	r5, .L8+8
 862              	.LBE276:
 863              	.LBE275:
 864              	.LBB278:
 865              	.LBB279:
 866              		.loc 2 359 3 view .LVU210
 867 000a 254F     		ldr	r7, .L8+12
 868              	.LBE279:
 869              	.LBE278:
 870              	.LBB281:
 871              	.LBB272:
 872              		.loc 2 383 3 view .LVU211
 873 000c 2549     		ldr	r1, .L8+16
 874              	.LBE272:
 875              	.LBE281:
 876              	.LBB282:
 877              	.LBB283:
 878 000e 264E     		ldr	r6, .L8+20
 879              	.LBE283:
ARM GAS  /tmp/ccNvHfIQ.s 			page 18


 880              	.LBE282:
 881              		.loc 1 121 3 view .LVU212
 882 0010 4FF00108 		mov	r8, #1
 883              	.LBB285:
 884              	.LBB273:
 885              		.loc 2 383 3 view .LVU213
 886 0014 2046     		mov	r0, r4
 887              	.LBE273:
 888              	.LBE285:
 889              		.loc 1 121 3 view .LVU214
 890 0016 C3F80080 		str	r8, [r3]
 891              		.loc 1 123 5 is_stmt 1 view .LVU215
 892              	.LVL49:
 893              	.LBB286:
 894              	.LBI270:
 895              		.loc 2 381 20 view .LVU216
 896              	.LBB274:
 897              		.loc 2 383 3 view .LVU217
 898 001a FFF7FEFF 		bl	test_printf
 899              	.LVL50:
 900              		.loc 2 383 3 is_stmt 0 view .LVU218
 901              	.LBE274:
 902              	.LBE286:
 903              		.loc 1 124 5 is_stmt 1 view .LVU219
 904              	.LBB287:
 905              	.LBI275:
 906              		.loc 2 369 20 view .LVU220
 907              	.LBB277:
 908              		.loc 2 371 3 view .LVU221
 909 001e 2349     		ldr	r1, .L8+24
 910 0020 2846     		mov	r0, r5
 911 0022 FFF7FEFF 		bl	test_printf
 912              	.LVL51:
 913              		.loc 2 371 3 is_stmt 0 view .LVU222
 914              	.LBE277:
 915              	.LBE287:
 916              		.loc 1 125 5 is_stmt 1 view .LVU223
 917              	.LBB288:
 918              	.LBI278:
 919              		.loc 2 357 20 view .LVU224
 920              	.LBB280:
 921              		.loc 2 359 3 view .LVU225
 922 0026 0021     		movs	r1, #0
 923 0028 3846     		mov	r0, r7
 924 002a FFF7FEFF 		bl	test_printf
 925              	.LVL52:
 926              		.loc 2 359 3 is_stmt 0 view .LVU226
 927              	.LBE280:
 928              	.LBE288:
 929              		.loc 1 126 5 is_stmt 1 view .LVU227
 930              	.LBB289:
 931              	.LBI282:
 932              		.loc 2 381 20 view .LVU228
 933              	.LBB284:
 934              		.loc 2 383 3 view .LVU229
 935 002e 3146     		mov	r1, r6
 936 0030 2046     		mov	r0, r4
ARM GAS  /tmp/ccNvHfIQ.s 			page 19


 937 0032 FFF7FEFF 		bl	test_printf
 938              	.LVL53:
 939              		.loc 2 383 3 is_stmt 0 view .LVU230
 940              	.LBE284:
 941              	.LBE289:
 942              		.loc 1 127 5 is_stmt 1 view .LVU231
 943              	.LBB290:
 944              	.LBI290:
 945              		.loc 2 369 20 view .LVU232
 946              	.LBB291:
 947              		.loc 2 371 3 view .LVU233
 948 0036 1E49     		ldr	r1, .L8+28
 949 0038 2846     		mov	r0, r5
 950 003a FFF7FEFF 		bl	test_printf
 951              	.LVL54:
 952              		.loc 2 371 3 is_stmt 0 view .LVU234
 953              	.LBE291:
 954              	.LBE290:
 955              		.loc 1 128 5 is_stmt 1 view .LVU235
 956              	.LBB292:
 957              	.LBI292:
 958              		.loc 2 381 20 view .LVU236
 959              	.LBB293:
 960              		.loc 2 383 3 view .LVU237
 961 003e 1D49     		ldr	r1, .L8+32
 962 0040 2046     		mov	r0, r4
 963 0042 FFF7FEFF 		bl	test_printf
 964              	.LVL55:
 965              		.loc 2 383 3 is_stmt 0 view .LVU238
 966              	.LBE293:
 967              	.LBE292:
 968              		.loc 1 129 5 is_stmt 1 view .LVU239
 969              	.LBB294:
 970              	.LBI294:
 971              		.loc 2 369 20 view .LVU240
 972              	.LBB295:
 973              		.loc 2 371 3 view .LVU241
 974 0046 1C49     		ldr	r1, .L8+36
 975 0048 2846     		mov	r0, r5
 976 004a FFF7FEFF 		bl	test_printf
 977              	.LVL56:
 978              		.loc 2 371 3 is_stmt 0 view .LVU242
 979              	.LBE295:
 980              	.LBE294:
 981              		.loc 1 130 5 is_stmt 1 view .LVU243
 982              	.LBB296:
 983              	.LBI296:
 984              		.loc 2 357 20 view .LVU244
 985              	.LBB297:
 986              		.loc 2 359 3 view .LVU245
 987 004e 4146     		mov	r1, r8
 988 0050 3846     		mov	r0, r7
 989 0052 FFF7FEFF 		bl	test_printf
 990              	.LVL57:
 991              		.loc 2 359 3 is_stmt 0 view .LVU246
 992              	.LBE297:
 993              	.LBE296:
ARM GAS  /tmp/ccNvHfIQ.s 			page 20


 994              		.loc 1 131 5 is_stmt 1 view .LVU247
 995              	.LBB298:
 996              	.LBI298:
 997              		.loc 2 381 20 view .LVU248
 998              	.LBB299:
 999              		.loc 2 383 3 view .LVU249
 1000 0056 3146     		mov	r1, r6
 1001 0058 2046     		mov	r0, r4
 1002 005a FFF7FEFF 		bl	test_printf
 1003              	.LVL58:
 1004              		.loc 2 383 3 is_stmt 0 view .LVU250
 1005              	.LBE299:
 1006              	.LBE298:
 1007              		.loc 1 132 5 is_stmt 1 view .LVU251
 1008              	.LBB300:
 1009              	.LBI300:
 1010              		.loc 2 369 20 view .LVU252
 1011              	.LBB301:
 1012              		.loc 2 371 3 view .LVU253
 1013 005e 1749     		ldr	r1, .L8+40
 1014 0060 2846     		mov	r0, r5
 1015 0062 FFF7FEFF 		bl	test_printf
 1016              	.LVL59:
 1017              		.loc 2 371 3 is_stmt 0 view .LVU254
 1018              	.LBE301:
 1019              	.LBE300:
 1020              		.loc 1 133 5 is_stmt 1 view .LVU255
 1021              	.LBB302:
 1022              	.LBI302:
 1023              		.loc 2 357 20 view .LVU256
 1024              	.LBB303:
 1025              		.loc 2 359 3 view .LVU257
 1026 0066 0321     		movs	r1, #3
 1027 0068 3846     		mov	r0, r7
 1028 006a FFF7FEFF 		bl	test_printf
 1029              	.LVL60:
 1030              		.loc 2 359 3 is_stmt 0 view .LVU258
 1031              	.LBE303:
 1032              	.LBE302:
 1033              		.loc 1 134 5 is_stmt 1 view .LVU259
 1034              	.LBB304:
 1035              	.LBI304:
 1036              		.loc 2 381 20 view .LVU260
 1037              	.LBB305:
 1038              		.loc 2 383 3 view .LVU261
 1039 006e 3146     		mov	r1, r6
 1040 0070 2046     		mov	r0, r4
 1041 0072 FFF7FEFF 		bl	test_printf
 1042              	.LVL61:
 1043              		.loc 2 383 3 is_stmt 0 view .LVU262
 1044              	.LBE305:
 1045              	.LBE304:
 1046              		.loc 1 135 5 is_stmt 1 view .LVU263
 1047              	.LBB306:
 1048              	.LBI306:
 1049              		.loc 2 369 20 view .LVU264
 1050              	.LBB307:
ARM GAS  /tmp/ccNvHfIQ.s 			page 21


 1051              		.loc 2 371 3 view .LVU265
 1052 0076 1249     		ldr	r1, .L8+44
 1053 0078 2846     		mov	r0, r5
 1054 007a FFF7FEFF 		bl	test_printf
 1055              	.LVL62:
 1056              		.loc 2 371 3 is_stmt 0 view .LVU266
 1057              	.LBE307:
 1058              	.LBE306:
 1059              		.loc 1 136 5 is_stmt 1 view .LVU267
 1060              	.LBB308:
 1061              	.LBI308:
 1062              		.loc 2 357 20 view .LVU268
 1063              	.LBB309:
 1064              		.loc 2 359 3 view .LVU269
 1065 007e 0021     		movs	r1, #0
 1066 0080 3846     		mov	r0, r7
 1067 0082 FFF7FEFF 		bl	test_printf
 1068              	.LVL63:
 1069              		.loc 2 359 3 is_stmt 0 view .LVU270
 1070              	.LBE309:
 1071              	.LBE308:
 1072              		.loc 1 137 5 is_stmt 1 view .LVU271
 1073              	.LBB310:
 1074              	.LBI310:
 1075              		.loc 2 381 20 view .LVU272
 1076              	.LBB311:
 1077              		.loc 2 383 3 view .LVU273
 1078 0086 3146     		mov	r1, r6
 1079 0088 2046     		mov	r0, r4
 1080              	.LBE311:
 1081              	.LBE310:
 1082              		.loc 1 140 1 is_stmt 0 view .LVU274
 1083 008a BDE8F041 		pop	{r4, r5, r6, r7, r8, lr}
 1084              		.cfi_restore 14
 1085              		.cfi_restore 8
 1086              		.cfi_restore 7
 1087              		.cfi_restore 6
 1088              		.cfi_restore 5
 1089              		.cfi_restore 4
 1090              		.cfi_def_cfa_offset 0
 1091              	.LBB313:
 1092              	.LBB312:
 1093              		.loc 2 383 3 view .LVU275
 1094 008e FFF7FEBF 		b	test_printf
 1095              	.LVL64:
 1096              	.L9:
 1097 0092 00BF     		.align	2
 1098              	.L8:
 1099 0094 38000000 		.word	.LC4
 1100 0098 00000000 		.word	chtest
 1101 009c 2C000000 		.word	.LC1
 1102 00a0 30000000 		.word	.LC2
 1103 00a4 00000000 		.word	.LC20
 1104 00a8 34000000 		.word	.LC3
 1105 00ac 34000000 		.word	.LC21
 1106 00b0 60000000 		.word	.LC22
 1107 00b4 8C000000 		.word	.LC23
ARM GAS  /tmp/ccNvHfIQ.s 			page 22


 1108 00b8 94000000 		.word	.LC24
 1109 00bc C0000000 		.word	.LC25
 1110 00c0 EC000000 		.word	.LC26
 1111              	.LBE312:
 1112              	.LBE313:
 1113              		.cfi_endproc
 1114              	.LFE405:
 1115              		.size	oslib_test_001_002_execute, .-oslib_test_001_002_execute
 1116              		.section	.rodata.oslib_test_001_001_execute.str1.4,"aMS",%progbits,1
 1117              		.align	2
 1118              	.LC27:
 1119 0000 2D2D2D20 		.ascii	"--- Architecture:                       \000"
 1119      41726368 
 1119      69746563 
 1119      74757265 
 1119      3A202020 
 1120 0029 000000   		.align	2
 1121              	.LC28:
 1122 002c 41524D76 		.ascii	"ARMv7E-M\000"
 1122      37452D4D 
 1122      00
 1123 0035 000000   		.align	2
 1124              	.LC29:
 1125 0038 2D2D2D20 		.ascii	"--- Core Variant:                       \000"
 1125      436F7265 
 1125      20566172 
 1125      69616E74 
 1125      3A202020 
 1126 0061 000000   		.align	2
 1127              	.LC30:
 1128 0064 436F7274 		.ascii	"Cortex-M4\000"
 1128      65782D4D 
 1128      3400
 1129 006e 0000     		.align	2
 1130              	.LC31:
 1131 0070 2D2D2D20 		.ascii	"--- Compiler:                           \000"
 1131      436F6D70 
 1131      696C6572 
 1131      3A202020 
 1131      20202020 
 1132 0099 000000   		.align	2
 1133              	.LC32:
 1134 009c 47434320 		.ascii	"GCC 10.3.1 20210621 (release)\000"
 1134      31302E33 
 1134      2E312032 
 1134      30323130 
 1134      36323120 
 1135 00ba 0000     		.align	2
 1136              	.LC33:
 1137 00bc 2D2D2D20 		.ascii	"--- Port Info:                          \000"
 1137      506F7274 
 1137      20496E66 
 1137      6F3A2020 
 1137      20202020 
 1138 00e5 000000   		.align	2
 1139              	.LC34:
 1140 00e8 41647661 		.ascii	"Advanced kernel mode\000"
ARM GAS  /tmp/ccNvHfIQ.s 			page 23


 1140      6E636564 
 1140      206B6572 
 1140      6E656C20 
 1140      6D6F6465 
 1141 00fd 000000   		.align	2
 1142              	.LC35:
 1143 0100 2D2D2D20 		.ascii	"--- Natural alignment:                  \000"
 1143      4E617475 
 1143      72616C20 
 1143      616C6967 
 1143      6E6D656E 
 1144 0129 000000   		.align	2
 1145              	.LC36:
 1146 012c 2D2D2D20 		.ascii	"--- Stack alignment:                    \000"
 1146      53746163 
 1146      6B20616C 
 1146      69676E6D 
 1146      656E743A 
 1147 0155 000000   		.align	2
 1148              	.LC37:
 1149 0158 2D2D2D20 		.ascii	"--- Working area alignment:             \000"
 1149      576F726B 
 1149      696E6720 
 1149      61726561 
 1149      20616C69 
 1150              		.section	.text.oslib_test_001_001_execute,"ax",%progbits
 1151              		.align	1
 1152              		.p2align 4,,15
 1153              		.syntax unified
 1154              		.thumb
 1155              		.thumb_func
 1156              		.fpu softvfp
 1157              		.type	oslib_test_001_001_execute, %function
 1158              	oslib_test_001_001_execute:
 1159              	.LFB404:
 1160              		.loc 1 60 46 is_stmt 1 view -0
 1161              		.cfi_startproc
 1162              		@ args = 0, pretend = 0, frame = 0
 1163              		@ frame_needed = 0, uses_anonymous_args = 0
 1164              		.loc 1 63 3 view .LVU277
 1165              		.loc 1 60 46 is_stmt 0 view .LVU278
 1166 0000 F8B5     		push	{r3, r4, r5, r6, r7, lr}
 1167              		.cfi_def_cfa_offset 24
 1168              		.cfi_offset 3, -24
 1169              		.cfi_offset 4, -20
 1170              		.cfi_offset 5, -16
 1171              		.cfi_offset 6, -12
 1172              		.cfi_offset 7, -8
 1173              		.cfi_offset 14, -4
 1174              	.LBB314:
 1175              	.LBB315:
 1176              		.loc 2 371 3 view .LVU279
 1177 0002 264D     		ldr	r5, .L12
 1178              	.LBE315:
 1179              	.LBE314:
 1180              		.loc 1 63 3 view .LVU280
 1181 0004 264B     		ldr	r3, .L12+4
ARM GAS  /tmp/ccNvHfIQ.s 			page 24


 1182              	.LBB319:
 1183              	.LBB320:
 1184              		.loc 2 383 3 view .LVU281
 1185 0006 274C     		ldr	r4, .L12+8
 1186              	.LBE320:
 1187              	.LBE319:
 1188              	.LBB322:
 1189              	.LBB316:
 1190              		.loc 2 371 3 view .LVU282
 1191 0008 2749     		ldr	r1, .L12+12
 1192              	.LBE316:
 1193              	.LBE322:
 1194              	.LBB323:
 1195              	.LBB324:
 1196              		.loc 2 359 3 view .LVU283
 1197 000a 284F     		ldr	r7, .L12+16
 1198              	.LBE324:
 1199              	.LBE323:
 1200              	.LBB326:
 1201              	.LBB327:
 1202              		.loc 2 383 3 view .LVU284
 1203 000c 284E     		ldr	r6, .L12+20
 1204              	.LBE327:
 1205              	.LBE326:
 1206              		.loc 1 63 3 view .LVU285
 1207 000e 0122     		movs	r2, #1
 1208              	.LBB329:
 1209              	.LBB317:
 1210              		.loc 2 371 3 view .LVU286
 1211 0010 2846     		mov	r0, r5
 1212              	.LBE317:
 1213              	.LBE329:
 1214              		.loc 1 63 3 view .LVU287
 1215 0012 1A60     		str	r2, [r3]
 1216              		.loc 1 66 5 is_stmt 1 view .LVU288
 1217              	.LVL65:
 1218              	.LBB330:
 1219              	.LBI314:
 1220              		.loc 2 369 20 view .LVU289
 1221              	.LBB318:
 1222              		.loc 2 371 3 view .LVU290
 1223 0014 FFF7FEFF 		bl	test_printf
 1224              	.LVL66:
 1225              		.loc 2 371 3 is_stmt 0 view .LVU291
 1226              	.LBE318:
 1227              	.LBE330:
 1228              		.loc 1 67 5 is_stmt 1 view .LVU292
 1229              	.LBB331:
 1230              	.LBI319:
 1231              		.loc 2 381 20 view .LVU293
 1232              	.LBB321:
 1233              		.loc 2 383 3 view .LVU294
 1234 0018 2649     		ldr	r1, .L12+24
 1235 001a 2046     		mov	r0, r4
 1236 001c FFF7FEFF 		bl	test_printf
 1237              	.LVL67:
 1238              		.loc 2 383 3 is_stmt 0 view .LVU295
ARM GAS  /tmp/ccNvHfIQ.s 			page 25


 1239              	.LBE321:
 1240              	.LBE331:
 1241              		.loc 1 70 5 is_stmt 1 view .LVU296
 1242              	.LBB332:
 1243              	.LBI332:
 1244              		.loc 2 369 20 view .LVU297
 1245              	.LBB333:
 1246              		.loc 2 371 3 view .LVU298
 1247 0020 2549     		ldr	r1, .L12+28
 1248 0022 2846     		mov	r0, r5
 1249 0024 FFF7FEFF 		bl	test_printf
 1250              	.LVL68:
 1251              		.loc 2 371 3 is_stmt 0 view .LVU299
 1252              	.LBE333:
 1253              	.LBE332:
 1254              		.loc 1 71 5 is_stmt 1 view .LVU300
 1255              	.LBB334:
 1256              	.LBI334:
 1257              		.loc 2 381 20 view .LVU301
 1258              	.LBB335:
 1259              		.loc 2 383 3 view .LVU302
 1260 0028 2449     		ldr	r1, .L12+32
 1261 002a 2046     		mov	r0, r4
 1262 002c FFF7FEFF 		bl	test_printf
 1263              	.LVL69:
 1264              		.loc 2 383 3 is_stmt 0 view .LVU303
 1265              	.LBE335:
 1266              	.LBE334:
 1267              		.loc 1 74 5 is_stmt 1 view .LVU304
 1268              	.LBB336:
 1269              	.LBI336:
 1270              		.loc 2 369 20 view .LVU305
 1271              	.LBB337:
 1272              		.loc 2 371 3 view .LVU306
 1273 0030 2349     		ldr	r1, .L12+36
 1274 0032 2846     		mov	r0, r5
 1275 0034 FFF7FEFF 		bl	test_printf
 1276              	.LVL70:
 1277              		.loc 2 371 3 is_stmt 0 view .LVU307
 1278              	.LBE337:
 1279              	.LBE336:
 1280              		.loc 1 75 5 is_stmt 1 view .LVU308
 1281              	.LBB338:
 1282              	.LBI338:
 1283              		.loc 2 381 20 view .LVU309
 1284              	.LBB339:
 1285              		.loc 2 383 3 view .LVU310
 1286 0038 2249     		ldr	r1, .L12+40
 1287 003a 2046     		mov	r0, r4
 1288 003c FFF7FEFF 		bl	test_printf
 1289              	.LVL71:
 1290              		.loc 2 383 3 is_stmt 0 view .LVU311
 1291              	.LBE339:
 1292              	.LBE338:
 1293              		.loc 1 78 5 is_stmt 1 view .LVU312
 1294              	.LBB340:
 1295              	.LBI340:
ARM GAS  /tmp/ccNvHfIQ.s 			page 26


 1296              		.loc 2 369 20 view .LVU313
 1297              	.LBB341:
 1298              		.loc 2 371 3 view .LVU314
 1299 0040 2149     		ldr	r1, .L12+44
 1300 0042 2846     		mov	r0, r5
 1301 0044 FFF7FEFF 		bl	test_printf
 1302              	.LVL72:
 1303              		.loc 2 371 3 is_stmt 0 view .LVU315
 1304              	.LBE341:
 1305              	.LBE340:
 1306              		.loc 1 79 5 is_stmt 1 view .LVU316
 1307              	.LBB342:
 1308              	.LBI342:
 1309              		.loc 2 381 20 view .LVU317
 1310              	.LBB343:
 1311              		.loc 2 383 3 view .LVU318
 1312 0048 2049     		ldr	r1, .L12+48
 1313 004a 2046     		mov	r0, r4
 1314 004c FFF7FEFF 		bl	test_printf
 1315              	.LVL73:
 1316              		.loc 2 383 3 is_stmt 0 view .LVU319
 1317              	.LBE343:
 1318              	.LBE342:
 1319              		.loc 1 82 5 is_stmt 1 view .LVU320
 1320              	.LBB344:
 1321              	.LBI344:
 1322              		.loc 2 369 20 view .LVU321
 1323              	.LBB345:
 1324              		.loc 2 371 3 view .LVU322
 1325 0050 1F49     		ldr	r1, .L12+52
 1326 0052 2846     		mov	r0, r5
 1327 0054 FFF7FEFF 		bl	test_printf
 1328              	.LVL74:
 1329              		.loc 2 371 3 is_stmt 0 view .LVU323
 1330              	.LBE345:
 1331              	.LBE344:
 1332              		.loc 1 83 5 is_stmt 1 view .LVU324
 1333              	.LBB346:
 1334              	.LBI323:
 1335              		.loc 2 357 20 view .LVU325
 1336              	.LBB325:
 1337              		.loc 2 359 3 view .LVU326
 1338 0058 0421     		movs	r1, #4
 1339 005a 3846     		mov	r0, r7
 1340 005c FFF7FEFF 		bl	test_printf
 1341              	.LVL75:
 1342              		.loc 2 359 3 is_stmt 0 view .LVU327
 1343              	.LBE325:
 1344              	.LBE346:
 1345              		.loc 1 84 5 is_stmt 1 view .LVU328
 1346              	.LBB347:
 1347              	.LBI326:
 1348              		.loc 2 381 20 view .LVU329
 1349              	.LBB328:
 1350              		.loc 2 383 3 view .LVU330
 1351 0060 3146     		mov	r1, r6
 1352 0062 2046     		mov	r0, r4
ARM GAS  /tmp/ccNvHfIQ.s 			page 27


 1353 0064 FFF7FEFF 		bl	test_printf
 1354              	.LVL76:
 1355              		.loc 2 383 3 is_stmt 0 view .LVU331
 1356              	.LBE328:
 1357              	.LBE347:
 1358              		.loc 1 87 5 is_stmt 1 view .LVU332
 1359              	.LBB348:
 1360              	.LBI348:
 1361              		.loc 2 369 20 view .LVU333
 1362              	.LBB349:
 1363              		.loc 2 371 3 view .LVU334
 1364 0068 1A49     		ldr	r1, .L12+56
 1365 006a 2846     		mov	r0, r5
 1366 006c FFF7FEFF 		bl	test_printf
 1367              	.LVL77:
 1368              		.loc 2 371 3 is_stmt 0 view .LVU335
 1369              	.LBE349:
 1370              	.LBE348:
 1371              		.loc 1 88 5 is_stmt 1 view .LVU336
 1372              	.LBB350:
 1373              	.LBI350:
 1374              		.loc 2 357 20 view .LVU337
 1375              	.LBB351:
 1376              		.loc 2 359 3 view .LVU338
 1377 0070 0821     		movs	r1, #8
 1378 0072 3846     		mov	r0, r7
 1379 0074 FFF7FEFF 		bl	test_printf
 1380              	.LVL78:
 1381              		.loc 2 359 3 is_stmt 0 view .LVU339
 1382              	.LBE351:
 1383              	.LBE350:
 1384              		.loc 1 89 5 is_stmt 1 view .LVU340
 1385              	.LBB352:
 1386              	.LBI352:
 1387              		.loc 2 381 20 view .LVU341
 1388              	.LBB353:
 1389              		.loc 2 383 3 view .LVU342
 1390 0078 3146     		mov	r1, r6
 1391 007a 2046     		mov	r0, r4
 1392 007c FFF7FEFF 		bl	test_printf
 1393              	.LVL79:
 1394              		.loc 2 383 3 is_stmt 0 view .LVU343
 1395              	.LBE353:
 1396              	.LBE352:
 1397              		.loc 1 92 5 is_stmt 1 view .LVU344
 1398              	.LBB354:
 1399              	.LBI354:
 1400              		.loc 2 369 20 view .LVU345
 1401              	.LBB355:
 1402              		.loc 2 371 3 view .LVU346
 1403 0080 1549     		ldr	r1, .L12+60
 1404 0082 2846     		mov	r0, r5
 1405 0084 FFF7FEFF 		bl	test_printf
 1406              	.LVL80:
 1407              		.loc 2 371 3 is_stmt 0 view .LVU347
 1408              	.LBE355:
 1409              	.LBE354:
ARM GAS  /tmp/ccNvHfIQ.s 			page 28


 1410              		.loc 1 93 5 is_stmt 1 view .LVU348
 1411              	.LBB356:
 1412              	.LBI356:
 1413              		.loc 2 357 20 view .LVU349
 1414              	.LBB357:
 1415              		.loc 2 359 3 view .LVU350
 1416 0088 0821     		movs	r1, #8
 1417 008a 3846     		mov	r0, r7
 1418 008c FFF7FEFF 		bl	test_printf
 1419              	.LVL81:
 1420              		.loc 2 359 3 is_stmt 0 view .LVU351
 1421              	.LBE357:
 1422              	.LBE356:
 1423              		.loc 1 94 5 is_stmt 1 view .LVU352
 1424              	.LBB358:
 1425              	.LBI358:
 1426              		.loc 2 381 20 view .LVU353
 1427              	.LBB359:
 1428              		.loc 2 383 3 view .LVU354
 1429 0090 3146     		mov	r1, r6
 1430 0092 2046     		mov	r0, r4
 1431              	.LBE359:
 1432              	.LBE358:
 1433              		.loc 1 98 1 is_stmt 0 view .LVU355
 1434 0094 BDE8F840 		pop	{r3, r4, r5, r6, r7, lr}
 1435              		.cfi_restore 14
 1436              		.cfi_restore 7
 1437              		.cfi_restore 6
 1438              		.cfi_restore 5
 1439              		.cfi_restore 4
 1440              		.cfi_restore 3
 1441              		.cfi_def_cfa_offset 0
 1442              	.LBB361:
 1443              	.LBB360:
 1444              		.loc 2 383 3 view .LVU356
 1445 0098 FFF7FEBF 		b	test_printf
 1446              	.LVL82:
 1447              	.L13:
 1448              		.align	2
 1449              	.L12:
 1450 009c 2C000000 		.word	.LC1
 1451 00a0 00000000 		.word	chtest
 1452 00a4 38000000 		.word	.LC4
 1453 00a8 00000000 		.word	.LC27
 1454 00ac 30000000 		.word	.LC2
 1455 00b0 34000000 		.word	.LC3
 1456 00b4 2C000000 		.word	.LC28
 1457 00b8 38000000 		.word	.LC29
 1458 00bc 64000000 		.word	.LC30
 1459 00c0 70000000 		.word	.LC31
 1460 00c4 9C000000 		.word	.LC32
 1461 00c8 BC000000 		.word	.LC33
 1462 00cc E8000000 		.word	.LC34
 1463 00d0 00010000 		.word	.LC35
 1464 00d4 2C010000 		.word	.LC36
 1465 00d8 58010000 		.word	.LC37
 1466              	.LBE360:
ARM GAS  /tmp/ccNvHfIQ.s 			page 29


 1467              	.LBE361:
 1468              		.cfi_endproc
 1469              	.LFE404:
 1470              		.size	oslib_test_001_001_execute, .-oslib_test_001_001_execute
 1471              		.global	oslib_test_sequence_001
 1472              		.section	.rodata.str1.4,"aMS",%progbits,1
 1473              		.align	2
 1474              	.LC38:
 1475 0000 496E666F 		.ascii	"Information\000"
 1475      726D6174 
 1475      696F6E00 
 1476              		.global	oslib_test_sequence_001_array
 1477              		.align	2
 1478              	.LC39:
 1479 000c 4F53204C 		.ascii	"OS Library Settings\000"
 1479      69627261 
 1479      72792053 
 1479      65747469 
 1479      6E677300 
 1480              		.align	2
 1481              	.LC40:
 1482 0020 4F53204C 		.ascii	"OS Library Info\000"
 1482      69627261 
 1482      72792049 
 1482      6E666F00 
 1483              		.align	2
 1484              	.LC41:
 1485 0030 506F7274 		.ascii	"Port Info\000"
 1485      20496E66 
 1485      6F00
 1486              		.section	.rodata.oslib_test_001_001,"a"
 1487              		.align	2
 1488              		.type	oslib_test_001_001, %object
 1489              		.size	oslib_test_001_001, 16
 1490              	oslib_test_001_001:
 1491 0000 30000000 		.word	.LC41
 1492 0004 00000000 		.word	0
 1493 0008 00000000 		.word	0
 1494 000c 00000000 		.word	oslib_test_001_001_execute
 1495              		.section	.rodata.oslib_test_001_002,"a"
 1496              		.align	2
 1497              		.type	oslib_test_001_002, %object
 1498              		.size	oslib_test_001_002, 16
 1499              	oslib_test_001_002:
 1500 0000 20000000 		.word	.LC40
 1501 0004 00000000 		.word	0
 1502 0008 00000000 		.word	0
 1503 000c 00000000 		.word	oslib_test_001_002_execute
 1504              		.section	.rodata.oslib_test_001_003,"a"
 1505              		.align	2
 1506              		.type	oslib_test_001_003, %object
 1507              		.size	oslib_test_001_003, 16
 1508              	oslib_test_001_003:
 1509 0000 0C000000 		.word	.LC39
 1510 0004 00000000 		.word	0
 1511 0008 00000000 		.word	0
 1512 000c 00000000 		.word	oslib_test_001_003_execute
ARM GAS  /tmp/ccNvHfIQ.s 			page 30


 1513              		.section	.rodata.oslib_test_sequence_001,"a"
 1514              		.align	2
 1515              		.type	oslib_test_sequence_001, %object
 1516              		.size	oslib_test_sequence_001, 8
 1517              	oslib_test_sequence_001:
 1518 0000 00000000 		.word	.LC38
 1519 0004 00000000 		.word	oslib_test_sequence_001_array
 1520              		.section	.rodata.oslib_test_sequence_001_array,"a"
 1521              		.align	2
 1522              		.type	oslib_test_sequence_001_array, %object
 1523              		.size	oslib_test_sequence_001_array, 16
 1524              	oslib_test_sequence_001_array:
 1525 0000 00000000 		.word	oslib_test_001_001
 1526 0004 00000000 		.word	oslib_test_001_002
 1527 0008 00000000 		.word	oslib_test_001_003
 1528 000c 00000000 		.word	0
 1529              		.text
 1530              	.Letext0:
 1531              		.file 3 "/opt/gcc-arm-none-eabi/gcc-arm-none-eabi-10.3-2021.07/lib/gcc/arm-none-eabi/10.3.1/includ
 1532              		.file 4 "/opt/gcc-arm-none-eabi/gcc-arm-none-eabi-10.3-2021.07/arm-none-eabi/include/machine/_defa
 1533              		.file 5 "/opt/gcc-arm-none-eabi/gcc-arm-none-eabi-10.3-2021.07/arm-none-eabi/include/sys/_stdint.h
 1534              		.file 6 "../ChibiOS/os/rt/include/chearly.h"
 1535              		.file 7 "../ChibiOS/os/hal/include/hal_streams.h"
 1536              		.file 8 "../ChibiOS/test/oslib/source/test/oslib_test_sequence_001.h"