ARM GAS  /tmp/ccViN8cm.s 			page 1


   1              		.cpu cortex-m4
   2              		.eabi_attribute 20, 1
   3              		.eabi_attribute 21, 1
   4              		.eabi_attribute 23, 3
   5              		.eabi_attribute 24, 1
   6              		.eabi_attribute 25, 1
   7              		.eabi_attribute 26, 1
   8              		.eabi_attribute 30, 2
   9              		.eabi_attribute 34, 1
  10              		.eabi_attribute 18, 4
  11              		.file	"oslib_test_sequence_005.c"
  12              		.text
  13              	.Ltext0:
  14              		.cfi_sections	.debug_frame
  15              		.section	.text.dis_func_end,"ax",%progbits
  16              		.align	1
  17              		.p2align 4,,15
  18              		.arch armv7e-m
  19              		.syntax unified
  20              		.thumb
  21              		.thumb_func
  22              		.fpu softvfp
  23              		.type	dis_func_end, %function
  24              	dis_func_end:
  25              	.LFB409:
  26              		.file 1 "../ChibiOS/test/oslib/source/test/oslib_test_sequence_005.c"
  27              		.loc 1 92 31 view -0
  28              		.cfi_startproc
  29              		@ args = 0, pretend = 0, frame = 0
  30              		@ frame_needed = 0, uses_anonymous_args = 0
  31              		.loc 1 94 3 view .LVU1
  32              		.loc 1 92 31 is_stmt 0 view .LVU2
  33 0000 08B5     		push	{r3, lr}
  34              		.cfi_def_cfa_offset 8
  35              		.cfi_offset 3, -8
  36              		.cfi_offset 14, -4
  37              		.loc 1 94 3 view .LVU3
  38 0002 5A20     		movs	r0, #90
  39 0004 FFF7FEFF 		bl	test_emit_token
  40              	.LVL0:
  41              		.loc 1 95 3 is_stmt 1 view .LVU4
  42              		.loc 1 95 13 is_stmt 0 view .LVU5
  43 0008 024B     		ldr	r3, .L4
  44 000a 0122     		movs	r2, #1
  45 000c 1A70     		strb	r2, [r3]
  46              		.loc 1 97 3 is_stmt 1 view .LVU6
  47              		.loc 1 98 1 is_stmt 0 view .LVU7
  48 000e 4AF65520 		movw	r0, #43605
  49 0012 08BD     		pop	{r3, pc}
  50              	.L5:
  51              		.align	2
  52              	.L4:
  53 0014 00000000 		.word	.LANCHOR0
  54              		.cfi_endproc
  55              	.LFE409:
  56              		.size	dis_func_end, .-dis_func_end
  57              		.section	.text.dis_func4,"ax",%progbits
ARM GAS  /tmp/ccViN8cm.s 			page 2


  58              		.align	1
  59              		.p2align 4,,15
  60              		.syntax unified
  61              		.thumb
  62              		.thumb_func
  63              		.fpu softvfp
  64              		.type	dis_func4, %function
  65              	dis_func4:
  66              	.LVL1:
  67              	.LFB408:
  68              		.loc 1 82 60 is_stmt 1 view -0
  69              		.cfi_startproc
  70              		@ args = 0, pretend = 0, frame = 0
  71              		@ frame_needed = 0, uses_anonymous_args = 0
  72              		.loc 1 84 3 view .LVU9
  73              		.loc 1 82 60 is_stmt 0 view .LVU10
  74 0000 F8B5     		push	{r3, r4, r5, r6, r7, lr}
  75              		.cfi_def_cfa_offset 24
  76              		.cfi_offset 3, -24
  77              		.cfi_offset 4, -20
  78              		.cfi_offset 5, -16
  79              		.cfi_offset 6, -12
  80              		.cfi_offset 7, -8
  81              		.cfi_offset 14, -4
  82              		.loc 1 82 60 view .LVU11
  83 0002 0F46     		mov	r7, r1
  84 0004 0446     		mov	r4, r0
  85              		.loc 1 84 3 view .LVU12
  86 0006 C0B2     		uxtb	r0, r0
  87              	.LVL2:
  88              		.loc 1 82 60 view .LVU13
  89 0008 1646     		mov	r6, r2
  90 000a 1D46     		mov	r5, r3
  91              		.loc 1 84 3 view .LVU14
  92 000c FFF7FEFF 		bl	test_emit_token
  93              	.LVL3:
  94              		.loc 1 85 3 is_stmt 1 view .LVU15
  95 0010 F8B2     		uxtb	r0, r7
  96 0012 FFF7FEFF 		bl	test_emit_token
  97              	.LVL4:
  98              		.loc 1 86 3 view .LVU16
  99 0016 F0B2     		uxtb	r0, r6
 100 0018 FFF7FEFF 		bl	test_emit_token
 101              	.LVL5:
 102              		.loc 1 87 3 view .LVU17
 103 001c E8B2     		uxtb	r0, r5
 104 001e FFF7FEFF 		bl	test_emit_token
 105              	.LVL6:
 106              		.loc 1 89 3 view .LVU18
 107              		.loc 1 90 1 is_stmt 0 view .LVU19
 108 0022 2046     		mov	r0, r4
 109 0024 F8BD     		pop	{r3, r4, r5, r6, r7, pc}
 110              		.loc 1 90 1 view .LVU20
 111              		.cfi_endproc
 112              	.LFE408:
 113              		.size	dis_func4, .-dis_func4
 114 0026 00BF     		.section	.text.dis_func3,"ax",%progbits
ARM GAS  /tmp/ccViN8cm.s 			page 3


 115              		.align	1
 116              		.p2align 4,,15
 117              		.syntax unified
 118              		.thumb
 119              		.thumb_func
 120              		.fpu softvfp
 121              		.type	dis_func3, %function
 122              	dis_func3:
 123              	.LVL7:
 124              	.LFB407:
 125              		.loc 1 73 51 is_stmt 1 view -0
 126              		.cfi_startproc
 127              		@ args = 0, pretend = 0, frame = 0
 128              		@ frame_needed = 0, uses_anonymous_args = 0
 129              		.loc 1 75 3 view .LVU22
 130              		.loc 1 73 51 is_stmt 0 view .LVU23
 131 0000 70B5     		push	{r4, r5, r6, lr}
 132              		.cfi_def_cfa_offset 16
 133              		.cfi_offset 4, -16
 134              		.cfi_offset 5, -12
 135              		.cfi_offset 6, -8
 136              		.cfi_offset 14, -4
 137              		.loc 1 73 51 view .LVU24
 138 0002 0E46     		mov	r6, r1
 139 0004 0446     		mov	r4, r0
 140              		.loc 1 75 3 view .LVU25
 141 0006 C0B2     		uxtb	r0, r0
 142              	.LVL8:
 143              		.loc 1 73 51 view .LVU26
 144 0008 1546     		mov	r5, r2
 145              		.loc 1 75 3 view .LVU27
 146 000a FFF7FEFF 		bl	test_emit_token
 147              	.LVL9:
 148              		.loc 1 76 3 is_stmt 1 view .LVU28
 149 000e F0B2     		uxtb	r0, r6
 150 0010 FFF7FEFF 		bl	test_emit_token
 151              	.LVL10:
 152              		.loc 1 77 3 view .LVU29
 153 0014 E8B2     		uxtb	r0, r5
 154 0016 FFF7FEFF 		bl	test_emit_token
 155              	.LVL11:
 156              		.loc 1 79 3 view .LVU30
 157              		.loc 1 80 1 is_stmt 0 view .LVU31
 158 001a 2046     		mov	r0, r4
 159 001c 70BD     		pop	{r4, r5, r6, pc}
 160              		.loc 1 80 1 view .LVU32
 161              		.cfi_endproc
 162              	.LFE407:
 163              		.size	dis_func3, .-dis_func3
 164 001e 00BF     		.section	.text.dis_func2,"ax",%progbits
 165              		.align	1
 166              		.p2align 4,,15
 167              		.syntax unified
 168              		.thumb
 169              		.thumb_func
 170              		.fpu softvfp
 171              		.type	dis_func2, %function
ARM GAS  /tmp/ccViN8cm.s 			page 4


 172              	dis_func2:
 173              	.LVL12:
 174              	.LFB406:
 175              		.loc 1 65 42 is_stmt 1 view -0
 176              		.cfi_startproc
 177              		@ args = 0, pretend = 0, frame = 0
 178              		@ frame_needed = 0, uses_anonymous_args = 0
 179              		.loc 1 67 3 view .LVU34
 180              		.loc 1 65 42 is_stmt 0 view .LVU35
 181 0000 38B5     		push	{r3, r4, r5, lr}
 182              		.cfi_def_cfa_offset 16
 183              		.cfi_offset 3, -16
 184              		.cfi_offset 4, -12
 185              		.cfi_offset 5, -8
 186              		.cfi_offset 14, -4
 187              		.loc 1 65 42 view .LVU36
 188 0002 0D46     		mov	r5, r1
 189 0004 0446     		mov	r4, r0
 190              		.loc 1 67 3 view .LVU37
 191 0006 C0B2     		uxtb	r0, r0
 192              	.LVL13:
 193              		.loc 1 67 3 view .LVU38
 194 0008 FFF7FEFF 		bl	test_emit_token
 195              	.LVL14:
 196              		.loc 1 68 3 is_stmt 1 view .LVU39
 197 000c E8B2     		uxtb	r0, r5
 198 000e FFF7FEFF 		bl	test_emit_token
 199              	.LVL15:
 200              		.loc 1 70 3 view .LVU40
 201              		.loc 1 71 1 is_stmt 0 view .LVU41
 202 0012 2046     		mov	r0, r4
 203 0014 38BD     		pop	{r3, r4, r5, pc}
 204              		.loc 1 71 1 view .LVU42
 205              		.cfi_endproc
 206              	.LFE406:
 207              		.size	dis_func2, .-dis_func2
 208 0016 00BF     		.section	.text.dis_func1,"ax",%progbits
 209              		.align	1
 210              		.p2align 4,,15
 211              		.syntax unified
 212              		.thumb
 213              		.thumb_func
 214              		.fpu softvfp
 215              		.type	dis_func1, %function
 216              	dis_func1:
 217              	.LVL16:
 218              	.LFB405:
 219              		.loc 1 58 33 is_stmt 1 view -0
 220              		.cfi_startproc
 221              		@ args = 0, pretend = 0, frame = 0
 222              		@ frame_needed = 0, uses_anonymous_args = 0
 223              		.loc 1 60 3 view .LVU44
 224              		.loc 1 58 33 is_stmt 0 view .LVU45
 225 0000 10B5     		push	{r4, lr}
 226              		.cfi_def_cfa_offset 8
 227              		.cfi_offset 4, -8
 228              		.cfi_offset 14, -4
ARM GAS  /tmp/ccViN8cm.s 			page 5


 229              		.loc 1 58 33 view .LVU46
 230 0002 0446     		mov	r4, r0
 231              		.loc 1 60 3 view .LVU47
 232 0004 C0B2     		uxtb	r0, r0
 233              	.LVL17:
 234              		.loc 1 60 3 view .LVU48
 235 0006 FFF7FEFF 		bl	test_emit_token
 236              	.LVL18:
 237              		.loc 1 62 3 is_stmt 1 view .LVU49
 238              		.loc 1 63 1 is_stmt 0 view .LVU50
 239 000a 2046     		mov	r0, r4
 240 000c 10BD     		pop	{r4, pc}
 241              		.loc 1 63 1 view .LVU51
 242              		.cfi_endproc
 243              	.LFE405:
 244              		.size	dis_func1, .-dis_func1
 245 000e 00BF     		.section	.text.dis_func0,"ax",%progbits
 246              		.align	1
 247              		.p2align 4,,15
 248              		.syntax unified
 249              		.thumb
 250              		.thumb_func
 251              		.fpu softvfp
 252              		.type	dis_func0, %function
 253              	dis_func0:
 254              	.LFB404:
 255              		.loc 1 51 28 is_stmt 1 view -0
 256              		.cfi_startproc
 257              		@ args = 0, pretend = 0, frame = 0
 258              		@ frame_needed = 0, uses_anonymous_args = 0
 259              		.loc 1 53 3 view .LVU53
 260              		.loc 1 51 28 is_stmt 0 view .LVU54
 261 0000 08B5     		push	{r3, lr}
 262              		.cfi_def_cfa_offset 8
 263              		.cfi_offset 3, -8
 264              		.cfi_offset 14, -4
 265              		.loc 1 53 3 view .LVU55
 266 0002 3020     		movs	r0, #48
 267 0004 FFF7FEFF 		bl	test_emit_token
 268              	.LVL19:
 269              		.loc 1 55 3 is_stmt 1 view .LVU56
 270              		.loc 1 56 1 is_stmt 0 view .LVU57
 271 0008 45F2AA50 		movw	r0, #21930
 272 000c 08BD     		pop	{r3, pc}
 273              		.cfi_endproc
 274              	.LFE404:
 275              		.size	dis_func0, .-dis_func0
 276 000e 00BF     		.section	.text.Thread1,"ax",%progbits
 277              		.align	1
 278              		.p2align 4,,15
 279              		.syntax unified
 280              		.thumb
 281              		.thumb_func
 282              		.fpu softvfp
 283              		.type	Thread1, %function
 284              	Thread1:
 285              	.LVL20:
ARM GAS  /tmp/ccViN8cm.s 			page 6


 286              	.LFB410:
 287              		.loc 1 101 35 is_stmt 1 view -0
 288              		.cfi_startproc
 289              		@ args = 0, pretend = 0, frame = 0
 290              		@ frame_needed = 0, uses_anonymous_args = 0
 291              		.loc 1 103 3 view .LVU59
 292              		.loc 1 105 3 view .LVU60
 293              		.loc 1 101 35 is_stmt 0 view .LVU61
 294 0000 10B5     		push	{r4, lr}
 295              		.cfi_def_cfa_offset 8
 296              		.cfi_offset 4, -8
 297              		.cfi_offset 14, -4
 298              		.loc 1 105 13 view .LVU62
 299 0002 074C     		ldr	r4, .L21
 300 0004 0023     		movs	r3, #0
 301 0006 2370     		strb	r3, [r4]
 302              	.LVL21:
 303              	.L17:
 304              		.loc 1 106 3 is_stmt 1 discriminator 1 view .LVU63
 305              		.loc 1 107 5 discriminator 1 view .LVU64
 306 0008 FFF7FEFF 		bl	chDelegateDispatch
 307              	.LVL22:
 308              		.loc 1 108 11 discriminator 1 view .LVU65
 309              		.loc 1 108 3 is_stmt 0 discriminator 1 view .LVU66
 310 000c 2378     		ldrb	r3, [r4]	@ zero_extendqisi2
 311 000e 002B     		cmp	r3, #0
 312 0010 FAD0     		beq	.L17
 313              		.loc 1 110 3 is_stmt 1 view .LVU67
 314              		.loc 1 111 1 is_stmt 0 view .LVU68
 315 0012 BDE81040 		pop	{r4, lr}
 316              		.cfi_restore 14
 317              		.cfi_restore 4
 318              		.cfi_def_cfa_offset 0
 319              		.loc 1 110 3 view .LVU69
 320 0016 40F6A570 		movw	r0, #4005
 321 001a FFF7FEBF 		b	chThdExit
 322              	.LVL23:
 323              	.L22:
 324 001e 00BF     		.align	2
 325              	.L21:
 326 0020 00000000 		.word	.LANCHOR0
 327              		.cfi_endproc
 328              	.LFE410:
 329              		.size	Thread1, .-Thread1
 330              		.section	.rodata.oslib_test_005_001_execute.str1.4,"aMS",%progbits,1
 331              		.align	2
 332              	.LC0:
 333 0000 64697370 		.ascii	"dispatcher\000"
 333      61746368 
 333      657200
 334 000b 00       		.align	2
 335              	.LC1:
 336 000c 696E7661 		.ascii	"invalid return value\000"
 336      6C696420 
 336      72657475 
 336      726E2076 
 336      616C7565 
ARM GAS  /tmp/ccViN8cm.s 			page 7


 337 0021 000000   		.align	2
 338              	.LC2:
 339 0024 756E6578 		.ascii	"unexpected tokens\000"
 339      70656374 
 339      65642074 
 339      6F6B656E 
 339      7300
 340 0036 0000     		.align	2
 341              	.LC3:
 342 0038 30414243 		.ascii	"0ABCDEFGHIJZ\000"
 342      44454647 
 342      48494A5A 
 342      00
 343 0045 000000   		.align	2
 344              	.LC4:
 345 0048 696E7661 		.ascii	"invalid exit code\000"
 345      6C696420 
 345      65786974 
 345      20636F64 
 345      6500
 346              		.section	.text.oslib_test_005_001_execute,"ax",%progbits
 347              		.align	1
 348              		.p2align 4,,15
 349              		.syntax unified
 350              		.thumb
 351              		.thumb_func
 352              		.fpu softvfp
 353              		.type	oslib_test_005_001_execute, %function
 354              	oslib_test_005_001_execute:
 355              	.LFB411:
 356              		.loc 1 131 46 is_stmt 1 view -0
 357              		.cfi_startproc
 358              		@ args = 0, pretend = 0, frame = 24
 359              		@ frame_needed = 0, uses_anonymous_args = 0
 360              		.loc 1 132 3 view .LVU71
 361              		.loc 1 135 3 view .LVU72
 362              		.loc 1 131 46 is_stmt 0 view .LVU73
 363 0000 30B5     		push	{r4, r5, lr}
 364              		.cfi_def_cfa_offset 12
 365              		.cfi_offset 4, -12
 366              		.cfi_offset 5, -8
 367              		.cfi_offset 14, -4
 368              	.LBB23:
 369              	.LBB24:
 370              	.LBB25:
 371              	.LBB26:
 372              	.LBB27:
 373              		.file 2 "../ChibiOS/os/rt/include/chthreads.h"
 374              		.loc 2 343 10 view .LVU74
 375 0002 4E4B     		ldr	r3, .L29
 376              	.LBE27:
 377              	.LBE26:
 378              	.LBE25:
 379              	.LBE24:
 380              		.loc 1 137 25 view .LVU75
 381 0004 4E4A     		ldr	r2, .L29+4
 382              	.LBB32:
ARM GAS  /tmp/ccViN8cm.s 			page 8


 383              	.LBB30:
 384              		.loc 2 356 37 view .LVU76
 385 0006 DB68     		ldr	r3, [r3, #12]
 386              	.LBE30:
 387              	.LBE32:
 388              		.loc 1 137 25 view .LVU77
 389 0008 4E49     		ldr	r1, .L29+8
 390              		.loc 1 141 36 view .LVU78
 391 000a 9B68     		ldr	r3, [r3, #8]
 392              	.LBE23:
 393              		.loc 1 135 3 view .LVU79
 394 000c 4E4C     		ldr	r4, .L29+12
 395              		.loc 1 131 46 view .LVU80
 396 000e 8BB0     		sub	sp, sp, #44
 397              		.cfi_def_cfa_offset 56
 398              	.LBB34:
 399              		.loc 1 137 25 view .LVU81
 400 0010 02F5F870 		add	r0, r2, #496
 401              		.loc 1 141 36 view .LVU82
 402 0014 0133     		adds	r3, r3, #1
 403              		.loc 1 137 25 view .LVU83
 404 0016 0491     		str	r1, [sp, #16]
 405 0018 4C49     		ldr	r1, .L29+16
 406 001a 0793     		str	r3, [sp, #28]
 407 001c CDE90520 		strd	r2, r0, [sp, #20]
 408 0020 0023     		movs	r3, #0
 409              	.LBE34:
 410              		.loc 1 135 3 view .LVU84
 411 0022 0125     		movs	r5, #1
 412              	.LBB35:
 413              		.loc 1 145 10 view .LVU85
 414 0024 04A8     		add	r0, sp, #16
 415              		.loc 1 137 25 view .LVU86
 416 0026 CDE90813 		strd	r1, r3, [sp, #32]
 417              	.LBE35:
 418              		.loc 1 135 3 view .LVU87
 419 002a 2560     		str	r5, [r4]
 420              	.LBB36:
 421              		.loc 1 137 5 is_stmt 1 view .LVU88
 422              	.LBB33:
 423              	.LBI24:
 424              		.loc 2 354 23 view .LVU89
 425              	.LBB31:
 426              		.loc 2 356 3 view .LVU90
 427              	.LBB29:
 428              	.LBI26:
 429              		.loc 2 341 25 view .LVU91
 430              	.LBB28:
 431              		.loc 2 343 3 view .LVU92
 432              	.LBE28:
 433              	.LBE29:
 434              	.LBE31:
 435              	.LBE33:
 436              		.loc 1 145 5 view .LVU93
 437              		.loc 1 145 10 is_stmt 0 view .LVU94
 438 002c FFF7FEFF 		bl	chThdCreate
 439              	.LVL24:
ARM GAS  /tmp/ccViN8cm.s 			page 9


 440              	.LBE36:
 441              		.loc 1 151 3 view .LVU95
 442 0030 0223     		movs	r3, #2
 443              	.LBB37:
 444              	.LBB38:
 445              	.LBB39:
 446              		.file 3 "../ChibiOS/os/oslib/include/chdelegates.h"
 447              		.loc 3 126 10 view .LVU96
 448 0032 4749     		ldr	r1, .L29+20
 449 0034 474A     		ldr	r2, .L29+24
 450              	.LBE39:
 451              	.LBE38:
 452              	.LBE37:
 453              		.loc 1 151 3 view .LVU97
 454 0036 2360     		str	r3, [r4]
 455              	.LBB52:
 456              		.loc 1 145 10 view .LVU98
 457 0038 0546     		mov	r5, r0
 458              	.LVL25:
 459              		.loc 1 145 10 view .LVU99
 460              	.LBE52:
 461              		.loc 1 147 3 is_stmt 1 view .LVU100
 462              		.loc 1 147 19 view .LVU101
 463              		.loc 1 151 3 view .LVU102
 464              	.LBB53:
 465              		.loc 1 153 5 view .LVU103
 466              		.loc 1 155 5 view .LVU104
 467              	.LBB41:
 468              	.LBI38:
 469              		.loc 3 124 21 view .LVU105
 470              	.LBB40:
 471              		.loc 3 126 3 view .LVU106
 472              		.loc 3 126 10 is_stmt 0 view .LVU107
 473 003a FFF7FEFF 		bl	chDelegateCallVeneer
 474              	.LVL26:
 475              		.loc 3 126 10 view .LVU108
 476              	.LBE40:
 477              	.LBE41:
 478              		.loc 1 156 5 is_stmt 1 view .LVU109
 479 003e 45F2AA53 		movw	r3, #21930
 480 0042 C01A     		subs	r0, r0, r3
 481              	.LVL27:
 482              		.loc 1 156 5 is_stmt 0 view .LVU110
 483 0044 B0FA80F0 		clz	r0, r0
 484              	.LVL28:
 485              		.loc 1 156 5 view .LVU111
 486 0048 4349     		ldr	r1, .L29+28
 487 004a 4009     		lsrs	r0, r0, #5
 488 004c FFF7FEFF 		bl	__test_assert
 489              	.LVL29:
 490 0050 08B1     		cbz	r0, .L28
 491              	.L23:
 492              		.loc 1 156 5 view .LVU112
 493              	.LBE53:
 494              		.loc 1 184 1 view .LVU113
 495 0052 0BB0     		add	sp, sp, #44
 496              		.cfi_remember_state
ARM GAS  /tmp/ccViN8cm.s 			page 10


 497              		.cfi_def_cfa_offset 12
 498              		@ sp needed
 499 0054 30BD     		pop	{r4, r5, pc}
 500              	.LVL30:
 501              	.L28:
 502              		.cfi_restore_state
 503              	.LBB54:
 504              		.loc 1 156 58 is_stmt 1 view .LVU114
 505              		.loc 1 158 5 view .LVU115
 506              	.LBB42:
 507              	.LBI42:
 508              		.loc 3 140 21 view .LVU116
 509              	.LBB43:
 510              		.loc 3 143 3 view .LVU117
 511              		.loc 3 143 10 is_stmt 0 view .LVU118
 512 0056 4149     		ldr	r1, .L29+32
 513 0058 414A     		ldr	r2, .L29+36
 514 005a 4123     		movs	r3, #65
 515 005c 2846     		mov	r0, r5
 516 005e FFF7FEFF 		bl	chDelegateCallVeneer
 517              	.LVL31:
 518              		.loc 3 143 10 view .LVU119
 519              	.LBE43:
 520              	.LBE42:
 521              		.loc 1 159 5 is_stmt 1 view .LVU120
 522 0062 A0F14100 		sub	r0, #65
 523              	.LVL32:
 524              		.loc 1 159 5 is_stmt 0 view .LVU121
 525 0066 B0FA80F0 		clz	r0, r0
 526              	.LVL33:
 527              		.loc 1 159 5 view .LVU122
 528 006a 3B49     		ldr	r1, .L29+28
 529 006c 4009     		lsrs	r0, r0, #5
 530 006e FFF7FEFF 		bl	__test_assert
 531              	.LVL34:
 532 0072 0028     		cmp	r0, #0
 533 0074 EDD1     		bne	.L23
 534              		.loc 1 159 60 is_stmt 1 view .LVU123
 535              		.loc 1 161 5 view .LVU124
 536              	.LVL35:
 537              	.LBB44:
 538              	.LBI44:
 539              		.loc 3 158 21 view .LVU125
 540              	.LBB45:
 541              		.loc 3 161 3 view .LVU126
 542              		.loc 3 161 10 is_stmt 0 view .LVU127
 543 0076 4320     		movs	r0, #67
 544 0078 3A49     		ldr	r1, .L29+40
 545 007a 0090     		str	r0, [sp]
 546 007c 3A4A     		ldr	r2, .L29+44
 547 007e 4223     		movs	r3, #66
 548 0080 2846     		mov	r0, r5
 549 0082 FFF7FEFF 		bl	chDelegateCallVeneer
 550              	.LVL36:
 551              		.loc 3 161 10 view .LVU128
 552              	.LBE45:
 553              	.LBE44:
ARM GAS  /tmp/ccViN8cm.s 			page 11


 554              		.loc 1 162 5 is_stmt 1 view .LVU129
 555 0086 A0F14200 		sub	r0, #66
 556              	.LVL37:
 557              		.loc 1 162 5 is_stmt 0 view .LVU130
 558 008a B0FA80F0 		clz	r0, r0
 559              	.LVL38:
 560              		.loc 1 162 5 view .LVU131
 561 008e 3249     		ldr	r1, .L29+28
 562 0090 4009     		lsrs	r0, r0, #5
 563 0092 FFF7FEFF 		bl	__test_assert
 564              	.LVL39:
 565 0096 0028     		cmp	r0, #0
 566 0098 DBD1     		bne	.L23
 567              		.loc 1 162 60 is_stmt 1 view .LVU132
 568              		.loc 1 164 5 view .LVU133
 569              	.LVL40:
 570              	.LBB46:
 571              	.LBI46:
 572              		.loc 3 177 21 view .LVU134
 573              	.LBB47:
 574              		.loc 3 180 3 view .LVU135
 575              		.loc 3 180 10 is_stmt 0 view .LVU136
 576 009a 4620     		movs	r0, #70
 577 009c 4521     		movs	r1, #69
 578 009e CDE90010 		strd	r1, r0, [sp]
 579 00a2 324A     		ldr	r2, .L29+48
 580 00a4 3249     		ldr	r1, .L29+52
 581 00a6 4423     		movs	r3, #68
 582 00a8 2846     		mov	r0, r5
 583 00aa FFF7FEFF 		bl	chDelegateCallVeneer
 584              	.LVL41:
 585              		.loc 3 180 10 view .LVU137
 586              	.LBE47:
 587              	.LBE46:
 588              		.loc 1 165 5 is_stmt 1 view .LVU138
 589 00ae A0F14400 		sub	r0, #68
 590              	.LVL42:
 591              		.loc 1 165 5 is_stmt 0 view .LVU139
 592 00b2 B0FA80F0 		clz	r0, r0
 593              	.LVL43:
 594              		.loc 1 165 5 view .LVU140
 595 00b6 2849     		ldr	r1, .L29+28
 596 00b8 4009     		lsrs	r0, r0, #5
 597 00ba FFF7FEFF 		bl	__test_assert
 598              	.LVL44:
 599 00be 0028     		cmp	r0, #0
 600 00c0 C7D1     		bne	.L23
 601              		.loc 1 165 60 is_stmt 1 view .LVU141
 602              		.loc 1 167 5 view .LVU142
 603              	.LVL45:
 604              	.LBB48:
 605              	.LBI48:
 606              		.loc 3 197 21 view .LVU143
 607              	.LBB49:
 608              		.loc 3 201 3 view .LVU144
 609              		.loc 3 201 10 is_stmt 0 view .LVU145
 610 00c2 4A22     		movs	r2, #74
ARM GAS  /tmp/ccViN8cm.s 			page 12


 611 00c4 4923     		movs	r3, #73
 612 00c6 4820     		movs	r0, #72
 613 00c8 CDE90132 		strd	r3, r2, [sp, #4]
 614 00cc 2949     		ldr	r1, .L29+56
 615 00ce 0090     		str	r0, [sp]
 616 00d0 294A     		ldr	r2, .L29+60
 617 00d2 4723     		movs	r3, #71
 618 00d4 2846     		mov	r0, r5
 619 00d6 FFF7FEFF 		bl	chDelegateCallVeneer
 620              	.LVL46:
 621              		.loc 3 201 10 view .LVU146
 622              	.LBE49:
 623              	.LBE48:
 624              		.loc 1 168 5 is_stmt 1 view .LVU147
 625 00da A0F14700 		sub	r0, #71
 626              	.LVL47:
 627              		.loc 1 168 5 is_stmt 0 view .LVU148
 628 00de B0FA80F0 		clz	r0, r0
 629              	.LVL48:
 630              		.loc 1 168 5 view .LVU149
 631 00e2 1D49     		ldr	r1, .L29+28
 632 00e4 4009     		lsrs	r0, r0, #5
 633 00e6 FFF7FEFF 		bl	__test_assert
 634              	.LVL49:
 635 00ea 0028     		cmp	r0, #0
 636 00ec B1D1     		bne	.L23
 637              		.loc 1 168 60 is_stmt 1 view .LVU150
 638              		.loc 1 170 5 view .LVU151
 639              	.LVL50:
 640              	.LBB50:
 641              	.LBI50:
 642              		.loc 3 124 21 view .LVU152
 643              	.LBB51:
 644              		.loc 3 126 3 view .LVU153
 645              		.loc 3 126 10 is_stmt 0 view .LVU154
 646 00ee 1849     		ldr	r1, .L29+20
 647 00f0 224A     		ldr	r2, .L29+64
 648 00f2 2846     		mov	r0, r5
 649 00f4 FFF7FEFF 		bl	chDelegateCallVeneer
 650              	.LVL51:
 651              		.loc 3 126 10 view .LVU155
 652              	.LBE51:
 653              	.LBE50:
 654              		.loc 1 171 5 is_stmt 1 view .LVU156
 655 00f8 4AF65523 		movw	r3, #43605
 656 00fc C01A     		subs	r0, r0, r3
 657              	.LVL52:
 658              		.loc 1 171 5 is_stmt 0 view .LVU157
 659 00fe B0FA80F0 		clz	r0, r0
 660              	.LVL53:
 661              		.loc 1 171 5 view .LVU158
 662 0102 1549     		ldr	r1, .L29+28
 663 0104 4009     		lsrs	r0, r0, #5
 664 0106 FFF7FEFF 		bl	__test_assert
 665              	.LVL54:
 666 010a 0028     		cmp	r0, #0
 667 010c A1D1     		bne	.L23
ARM GAS  /tmp/ccViN8cm.s 			page 13


 668              		.loc 1 171 58 is_stmt 1 discriminator 2 view .LVU159
 669              		.loc 1 173 5 discriminator 2 view .LVU160
 670 010e 1C49     		ldr	r1, .L29+68
 671 0110 1C48     		ldr	r0, .L29+72
 672 0112 FFF7FEFF 		bl	__test_assert_sequence
 673              	.LVL55:
 674 0116 0028     		cmp	r0, #0
 675 0118 9BD1     		bne	.L23
 676              		.loc 1 173 62 discriminator 2 view .LVU161
 677              	.LBE54:
 678              		.loc 1 175 3 discriminator 2 view .LVU162
 679              		.loc 1 175 19 discriminator 2 view .LVU163
 680              		.loc 1 178 3 discriminator 2 view .LVU164
 681 011a 0323     		movs	r3, #3
 682              	.LBB55:
 683              		.loc 1 180 17 is_stmt 0 discriminator 2 view .LVU165
 684 011c 2846     		mov	r0, r5
 685              	.LBE55:
 686              		.loc 1 178 3 discriminator 2 view .LVU166
 687 011e 2360     		str	r3, [r4]
 688              	.LBB56:
 689              		.loc 1 180 5 is_stmt 1 discriminator 2 view .LVU167
 690              		.loc 1 180 17 is_stmt 0 discriminator 2 view .LVU168
 691 0120 FFF7FEFF 		bl	chThdWait
 692              	.LVL56:
 693              		.loc 1 181 5 is_stmt 1 discriminator 2 view .LVU169
 694 0124 40F6A573 		movw	r3, #4005
 695 0128 C01A     		subs	r0, r0, r3
 696              	.LVL57:
 697              		.loc 1 181 5 is_stmt 0 discriminator 2 view .LVU170
 698 012a 1749     		ldr	r1, .L29+76
 699 012c B0FA80F0 		clz	r0, r0
 700              	.LVL58:
 701              		.loc 1 181 5 discriminator 2 view .LVU171
 702 0130 4009     		lsrs	r0, r0, #5
 703              	.LBE56:
 704              		.loc 1 184 1 discriminator 2 view .LVU172
 705 0132 0BB0     		add	sp, sp, #44
 706              		.cfi_def_cfa_offset 12
 707              		@ sp needed
 708 0134 BDE83040 		pop	{r4, r5, lr}
 709              		.cfi_restore 14
 710              		.cfi_restore 5
 711              		.cfi_restore 4
 712              		.cfi_def_cfa_offset 0
 713              	.LVL59:
 714              	.LBB57:
 715              		.loc 1 181 5 discriminator 2 view .LVU173
 716 0138 FFF7FEBF 		b	__test_assert
 717              	.LVL60:
 718              	.L30:
 719              		.align	2
 720              	.L29:
 721 013c 00000000 		.word	ch0
 722 0140 00000000 		.word	.LANCHOR1
 723 0144 00000000 		.word	.LC0
 724 0148 00000000 		.word	chtest
ARM GAS  /tmp/ccViN8cm.s 			page 14


 725 014c 00000000 		.word	Thread1
 726 0150 00000000 		.word	__ch_delegate_fn0
 727 0154 00000000 		.word	dis_func0
 728 0158 0C000000 		.word	.LC1
 729 015c 00000000 		.word	__ch_delegate_fn1
 730 0160 00000000 		.word	dis_func1
 731 0164 00000000 		.word	__ch_delegate_fn2
 732 0168 00000000 		.word	dis_func2
 733 016c 00000000 		.word	dis_func3
 734 0170 00000000 		.word	__ch_delegate_fn3
 735 0174 00000000 		.word	__ch_delegate_fn4
 736 0178 00000000 		.word	dis_func4
 737 017c 00000000 		.word	dis_func_end
 738 0180 24000000 		.word	.LC2
 739 0184 38000000 		.word	.LC3
 740 0188 48000000 		.word	.LC4
 741              	.LBE57:
 742              		.cfi_endproc
 743              	.LFE411:
 744              		.size	oslib_test_005_001_execute, .-oslib_test_005_001_execute
 745              		.global	oslib_test_sequence_005
 746              		.section	.rodata.str1.4,"aMS",%progbits,1
 747              		.align	2
 748              	.LC5:
 749 0000 54687265 		.ascii	"Thread Delegates\000"
 749      61642044 
 749      656C6567 
 749      61746573 
 749      00
 750              		.global	oslib_test_sequence_005_array
 751 0011 000000   		.align	2
 752              	.LC6:
 753 0014 44697370 		.ascii	"Dispatcher test\000"
 753      61746368 
 753      65722074 
 753      65737400 
 754              		.section	.bss.exit_flag,"aw",%nobits
 755              		.set	.LANCHOR0,. + 0
 756              		.type	exit_flag, %object
 757              		.size	exit_flag, 1
 758              	exit_flag:
 759 0000 00       		.space	1
 760              		.section	.bss.waThread1,"aw",%nobits
 761              		.align	3
 762              		.set	.LANCHOR1,. + 0
 763              		.type	waThread1, %object
 764              		.size	waThread1, 496
 765              	waThread1:
 766 0000 00000000 		.space	496
 766      00000000 
 766      00000000 
 766      00000000 
 766      00000000 
 767              		.section	.rodata.oslib_test_005_001,"a"
 768              		.align	2
 769              		.type	oslib_test_005_001, %object
 770              		.size	oslib_test_005_001, 16
ARM GAS  /tmp/ccViN8cm.s 			page 15


 771              	oslib_test_005_001:
 772 0000 14000000 		.word	.LC6
 773 0004 00000000 		.word	0
 774 0008 00000000 		.word	0
 775 000c 00000000 		.word	oslib_test_005_001_execute
 776              		.section	.rodata.oslib_test_sequence_005,"a"
 777              		.align	2
 778              		.type	oslib_test_sequence_005, %object
 779              		.size	oslib_test_sequence_005, 8
 780              	oslib_test_sequence_005:
 781 0000 00000000 		.word	.LC5
 782 0004 00000000 		.word	oslib_test_sequence_005_array
 783              		.section	.rodata.oslib_test_sequence_005_array,"a"
 784              		.align	2
 785              		.type	oslib_test_sequence_005_array, %object
 786              		.size	oslib_test_sequence_005_array, 8
 787              	oslib_test_sequence_005_array:
 788 0000 00000000 		.word	oslib_test_005_001
 789 0004 00000000 		.word	0
 790              		.text
 791              	.Letext0:
 792              		.file 4 "/opt/gcc-arm-none-eabi/gcc-arm-none-eabi-10.3-2021.07/lib/gcc/arm-none-eabi/10.3.1/includ
 793              		.file 5 "/opt/gcc-arm-none-eabi/gcc-arm-none-eabi-10.3-2021.07/arm-none-eabi/include/machine/_defa
 794              		.file 6 "/opt/gcc-arm-none-eabi/gcc-arm-none-eabi-10.3-2021.07/arm-none-eabi/include/sys/_stdint.h
 795              		.file 7 "../ChibiOS/os/common/ports/ARM-common/chtypes.h"
 796              		.file 8 "../ChibiOS/os/rt/include/chearly.h"
 797              		.file 9 "../ChibiOS/os/rt/include/chobjects.h"
 798              		.file 10 "../ChibiOS/os/rt/include/chrfcu.h"
 799              		.file 11 "../ChibiOS/os/rt/include/chdebug.h"
 800              		.file 12 "../ChibiOS/os/rt/include/chtime.h"
 801              		.file 13 "../ChibiOS/os/rt/include/chlists.h"
 802              		.file 14 "../ChibiOS/os/common/ports/ARMv7-M/chcore.h"
 803              		.file 15 "../ChibiOS/os/rt/include/chsem.h"
 804              		.file 16 "../ChibiOS/os/rt/include/chmtx.h"
 805              		.file 17 "../ChibiOS/os/hal/include/hal_streams.h"
 806              		.file 18 "../ChibiOS/os/test/include/ch_test.h"
 807              		.file 19 "../ChibiOS/test/oslib/source/test/oslib_test_sequence_005.h"
 808              		.file 20 "../ChibiOS/os/rt/include/chsys.h"
 809              		.section	.debug_info,"",%progbits
 810              	.Ldebug_info0:
 811 0000 85130000 		.4byte	0x1385
 812 0004 0400     		.2byte	0x4
 813 0006 00000000 		.4byte	.Ldebug_abbrev0
 814 000a 04       		.byte	0x4
 815 000b 01       		.uleb128 0x1
 816 000c DA070000 		.4byte	.LASF171
 817 0010 0C       		.byte	0xc
 818 0011 8E030000 		.4byte	.LASF172
 819 0015 2A070000 		.4byte	.LASF173
 820 0019 C0000000 		.4byte	.Ldebug_ranges0+0xc0
 821 001d 00000000 		.4byte	0
 822 0021 00000000 		.4byte	.Ldebug_line0
 823 0025 02       		.uleb128 0x2
 824 0026 04       		.byte	0x4
 825 0027 05       		.byte	0x5
 826 0028 696E7400 		.ascii	"int\000"
 827 002c 03       		.uleb128 0x3
ARM GAS  /tmp/ccViN8cm.s 			page 16


 828 002d 27000000 		.4byte	.LASF4
 829 0031 04       		.byte	0x4
 830 0032 D1       		.byte	0xd1
 831 0033 17       		.byte	0x17
 832 0034 38000000 		.4byte	0x38
 833 0038 04       		.uleb128 0x4
 834 0039 04       		.byte	0x4
 835 003a 07       		.byte	0x7
 836 003b 38030000 		.4byte	.LASF0
 837 003f 04       		.uleb128 0x4
 838 0040 08       		.byte	0x8
 839 0041 05       		.byte	0x5
 840 0042 62010000 		.4byte	.LASF1
 841 0046 04       		.uleb128 0x4
 842 0047 08       		.byte	0x8
 843 0048 04       		.byte	0x4
 844 0049 D1040000 		.4byte	.LASF2
 845 004d 04       		.uleb128 0x4
 846 004e 01       		.byte	0x1
 847 004f 06       		.byte	0x6
 848 0050 70010000 		.4byte	.LASF3
 849 0054 03       		.uleb128 0x3
 850 0055 68000000 		.4byte	.LASF5
 851 0059 05       		.byte	0x5
 852 005a 2B       		.byte	0x2b
 853 005b 18       		.byte	0x18
 854 005c 60000000 		.4byte	0x60
 855 0060 04       		.uleb128 0x4
 856 0061 01       		.byte	0x1
 857 0062 08       		.byte	0x8
 858 0063 C2050000 		.4byte	.LASF6
 859 0067 04       		.uleb128 0x4
 860 0068 02       		.byte	0x2
 861 0069 05       		.byte	0x5
 862 006a 50020000 		.4byte	.LASF7
 863 006e 04       		.uleb128 0x4
 864 006f 02       		.byte	0x2
 865 0070 07       		.byte	0x7
 866 0071 CA030000 		.4byte	.LASF8
 867 0075 03       		.uleb128 0x3
 868 0076 CB060000 		.4byte	.LASF9
 869 007a 05       		.byte	0x5
 870 007b 4D       		.byte	0x4d
 871 007c 18       		.byte	0x18
 872 007d 81000000 		.4byte	0x81
 873 0081 04       		.uleb128 0x4
 874 0082 04       		.byte	0x4
 875 0083 05       		.byte	0x5
 876 0084 01020000 		.4byte	.LASF10
 877 0088 03       		.uleb128 0x3
 878 0089 89020000 		.4byte	.LASF11
 879 008d 05       		.byte	0x5
 880 008e 4F       		.byte	0x4f
 881 008f 19       		.byte	0x19
 882 0090 94000000 		.4byte	0x94
 883 0094 04       		.uleb128 0x4
 884 0095 04       		.byte	0x4
ARM GAS  /tmp/ccViN8cm.s 			page 17


 885 0096 07       		.byte	0x7
 886 0097 83060000 		.4byte	.LASF12
 887 009b 03       		.uleb128 0x3
 888 009c 5E050000 		.4byte	.LASF13
 889 00a0 05       		.byte	0x5
 890 00a1 69       		.byte	0x69
 891 00a2 19       		.byte	0x19
 892 00a3 A7000000 		.4byte	0xa7
 893 00a7 04       		.uleb128 0x4
 894 00a8 08       		.byte	0x8
 895 00a9 07       		.byte	0x7
 896 00aa F8000000 		.4byte	.LASF14
 897 00ae 03       		.uleb128 0x3
 898 00af BD070000 		.4byte	.LASF15
 899 00b3 06       		.byte	0x6
 900 00b4 18       		.byte	0x18
 901 00b5 13       		.byte	0x13
 902 00b6 54000000 		.4byte	0x54
 903 00ba 05       		.uleb128 0x5
 904 00bb AE000000 		.4byte	0xae
 905 00bf 03       		.uleb128 0x3
 906 00c0 BA050000 		.4byte	.LASF16
 907 00c4 06       		.byte	0x6
 908 00c5 2C       		.byte	0x2c
 909 00c6 13       		.byte	0x13
 910 00c7 75000000 		.4byte	0x75
 911 00cb 03       		.uleb128 0x3
 912 00cc 53060000 		.4byte	.LASF17
 913 00d0 06       		.byte	0x6
 914 00d1 30       		.byte	0x30
 915 00d2 14       		.byte	0x14
 916 00d3 88000000 		.4byte	0x88
 917 00d7 03       		.uleb128 0x3
 918 00d8 5F000000 		.4byte	.LASF18
 919 00dc 06       		.byte	0x6
 920 00dd 3C       		.byte	0x3c
 921 00de 14       		.byte	0x14
 922 00df 9B000000 		.4byte	0x9b
 923 00e3 06       		.uleb128 0x6
 924 00e4 D7000000 		.4byte	0xd7
 925 00e8 03       		.uleb128 0x3
 926 00e9 63060000 		.4byte	.LASF19
 927 00ed 07       		.byte	0x7
 928 00ee 48       		.byte	0x48
 929 00ef 1D       		.byte	0x1d
 930 00f0 D7000000 		.4byte	0xd7
 931 00f4 03       		.uleb128 0x3
 932 00f5 4D040000 		.4byte	.LASF20
 933 00f9 08       		.byte	0x8
 934 00fa 50       		.byte	0x50
 935 00fb 19       		.byte	0x19
 936 00fc E8000000 		.4byte	0xe8
 937 0100 03       		.uleb128 0x3
 938 0101 23040000 		.4byte	.LASF21
 939 0105 08       		.byte	0x8
 940 0106 53       		.byte	0x53
 941 0107 19       		.byte	0x19
ARM GAS  /tmp/ccViN8cm.s 			page 18


 942 0108 AE000000 		.4byte	0xae
 943 010c 03       		.uleb128 0x3
 944 010d 2E020000 		.4byte	.LASF22
 945 0111 08       		.byte	0x8
 946 0112 54       		.byte	0x54
 947 0113 19       		.byte	0x19
 948 0114 AE000000 		.4byte	0xae
 949 0118 03       		.uleb128 0x3
 950 0119 7D050000 		.4byte	.LASF23
 951 011d 08       		.byte	0x8
 952 011e 55       		.byte	0x55
 953 011f 19       		.byte	0x19
 954 0120 AE000000 		.4byte	0xae
 955 0124 03       		.uleb128 0x3
 956 0125 95050000 		.4byte	.LASF24
 957 0129 08       		.byte	0x8
 958 012a 57       		.byte	0x57
 959 012b 19       		.byte	0x19
 960 012c CB000000 		.4byte	0xcb
 961 0130 03       		.uleb128 0x3
 962 0131 EC030000 		.4byte	.LASF25
 963 0135 08       		.byte	0x8
 964 0136 58       		.byte	0x58
 965 0137 19       		.byte	0x19
 966 0138 BF000000 		.4byte	0xbf
 967 013c 03       		.uleb128 0x3
 968 013d 41040000 		.4byte	.LASF26
 969 0141 08       		.byte	0x8
 970 0142 5A       		.byte	0x5a
 971 0143 19       		.byte	0x19
 972 0144 CB000000 		.4byte	0xcb
 973 0148 03       		.uleb128 0x3
 974 0149 32030000 		.4byte	.LASF27
 975 014d 08       		.byte	0x8
 976 014e 5C       		.byte	0x5c
 977 014f 19       		.byte	0x19
 978 0150 BF000000 		.4byte	0xbf
 979 0154 03       		.uleb128 0x3
 980 0155 73050000 		.4byte	.LASF28
 981 0159 08       		.byte	0x8
 982 015a 80       		.byte	0x80
 983 015b 12       		.byte	0x12
 984 015c 38000000 		.4byte	0x38
 985 0160 03       		.uleb128 0x3
 986 0161 B2060000 		.4byte	.LASF29
 987 0165 08       		.byte	0x8
 988 0166 85       		.byte	0x85
 989 0167 1A       		.byte	0x1a
 990 0168 6C010000 		.4byte	0x16c
 991 016c 07       		.uleb128 0x7
 992 016d DD030000 		.4byte	.LASF44
 993 0171 48       		.byte	0x48
 994 0172 09       		.byte	0x9
 995 0173 9C       		.byte	0x9c
 996 0174 08       		.byte	0x8
 997 0175 4F020000 		.4byte	0x24f
 998 0179 08       		.uleb128 0x8
ARM GAS  /tmp/ccViN8cm.s 			page 19


 999 017a 68647200 		.ascii	"hdr\000"
 1000 017e 09       		.byte	0x9
 1001 017f AD       		.byte	0xad
 1002 0180 05       		.byte	0x5
 1003 0181 7C050000 		.4byte	0x57c
 1004 0185 00       		.byte	0
 1005 0186 08       		.uleb128 0x8
 1006 0187 63747800 		.ascii	"ctx\000"
 1007 018b 09       		.byte	0x9
 1008 018c B1       		.byte	0xb1
 1009 018d 21       		.byte	0x21
 1010 018e DE040000 		.4byte	0x4de
 1011 0192 0C       		.byte	0xc
 1012 0193 09       		.uleb128 0x9
 1013 0194 70030000 		.4byte	.LASF30
 1014 0198 09       		.byte	0x9
 1015 0199 B6       		.byte	0xb6
 1016 019a 21       		.byte	0x21
 1017 019b 90030000 		.4byte	0x390
 1018 019f 10       		.byte	0x10
 1019 01a0 09       		.uleb128 0x9
 1020 01a1 73060000 		.4byte	.LASF31
 1021 01a5 09       		.byte	0x9
 1022 01a6 BB       		.byte	0xbb
 1023 01a7 22       		.byte	0x22
 1024 01a8 89060000 		.4byte	0x689
 1025 01ac 18       		.byte	0x18
 1026 01ad 09       		.uleb128 0x9
 1027 01ae E7030000 		.4byte	.LASF32
 1028 01b2 09       		.byte	0x9
 1029 01b3 C0       		.byte	0xc0
 1030 01b4 22       		.byte	0x22
 1031 01b5 28030000 		.4byte	0x328
 1032 01b9 1C       		.byte	0x1c
 1033 01ba 09       		.uleb128 0x9
 1034 01bb 95060000 		.4byte	.LASF33
 1035 01bf 09       		.byte	0x9
 1036 01c0 C9       		.byte	0xc9
 1037 01c1 22       		.byte	0x22
 1038 01c2 8F060000 		.4byte	0x68f
 1039 01c6 20       		.byte	0x20
 1040 01c7 09       		.uleb128 0x9
 1041 01c8 FB010000 		.4byte	.LASF34
 1042 01cc 09       		.byte	0x9
 1043 01cd CE       		.byte	0xce
 1044 01ce 21       		.byte	0x21
 1045 01cf 0C010000 		.4byte	0x10c
 1046 01d3 24       		.byte	0x24
 1047 01d4 09       		.uleb128 0x9
 1048 01d5 CD070000 		.4byte	.LASF35
 1049 01d9 09       		.byte	0x9
 1050 01da D2       		.byte	0xd2
 1051 01db 21       		.byte	0x21
 1052 01dc 00010000 		.4byte	0x100
 1053 01e0 25       		.byte	0x25
 1054 01e1 09       		.uleb128 0x9
 1055 01e2 4F010000 		.4byte	.LASF36
ARM GAS  /tmp/ccViN8cm.s 			page 20


 1056 01e6 09       		.byte	0x9
 1057 01e7 D7       		.byte	0xd7
 1058 01e8 21       		.byte	0x21
 1059 01e9 18010000 		.4byte	0x118
 1060 01ed 26       		.byte	0x26
 1061 01ee 0A       		.uleb128 0xa
 1062 01ef 7500     		.ascii	"u\000"
 1063 01f1 09       		.byte	0x9
 1064 01f2 2801     		.2byte	0x128
 1065 01f4 21       		.byte	0x21
 1066 01f5 AA050000 		.4byte	0x5aa
 1067 01f9 28       		.byte	0x28
 1068 01fa 0B       		.uleb128 0xb
 1069 01fb 01060000 		.4byte	.LASF37
 1070 01ff 09       		.byte	0x9
 1071 0200 2D01     		.2byte	0x12d
 1072 0202 21       		.byte	0x21
 1073 0203 63030000 		.4byte	0x363
 1074 0207 2C       		.byte	0x2c
 1075 0208 0B       		.uleb128 0xb
 1076 0209 E0010000 		.4byte	.LASF38
 1077 020d 09       		.byte	0x9
 1078 020e 3301     		.2byte	0x133
 1079 0210 21       		.byte	0x21
 1080 0211 90030000 		.4byte	0x390
 1081 0215 30       		.byte	0x30
 1082 0216 0B       		.uleb128 0xb
 1083 0217 F2030000 		.4byte	.LASF39
 1084 021b 09       		.byte	0x9
 1085 021c 3901     		.2byte	0x139
 1086 021e 21       		.byte	0x21
 1087 021f 3C010000 		.4byte	0x13c
 1088 0223 38       		.byte	0x38
 1089 0224 0B       		.uleb128 0xb
 1090 0225 8D050000 		.4byte	.LASF40
 1091 0229 09       		.byte	0x9
 1092 022a 4001     		.2byte	0x140
 1093 022c 22       		.byte	0x22
 1094 022d 83060000 		.4byte	0x683
 1095 0231 3C       		.byte	0x3c
 1096 0232 0B       		.uleb128 0xb
 1097 0233 83040000 		.4byte	.LASF41
 1098 0237 09       		.byte	0x9
 1099 0238 4401     		.2byte	0x144
 1100 023a 21       		.byte	0x21
 1101 023b 24010000 		.4byte	0x124
 1102 023f 40       		.byte	0x40
 1103 0240 0B       		.uleb128 0xb
 1104 0241 88030000 		.4byte	.LASF42
 1105 0245 09       		.byte	0x9
 1106 0246 4B01     		.2byte	0x14b
 1107 0248 22       		.byte	0x22
 1108 0249 00050000 		.4byte	0x500
 1109 024d 44       		.byte	0x44
 1110 024e 00       		.byte	0
 1111 024f 03       		.uleb128 0x3
 1112 0250 F5060000 		.4byte	.LASF43
ARM GAS  /tmp/ccViN8cm.s 			page 21


 1113 0254 08       		.byte	0x8
 1114 0255 8A       		.byte	0x8a
 1115 0256 1F       		.byte	0x1f
 1116 0257 5B020000 		.4byte	0x25b
 1117 025b 0C       		.uleb128 0xc
 1118 025c E6060000 		.4byte	.LASF45
 1119 0260 88       		.byte	0x88
 1120 0261 09       		.byte	0x9
 1121 0262 8A01     		.2byte	0x18a
 1122 0264 08       		.byte	0x8
 1123 0265 DA020000 		.4byte	0x2da
 1124 0269 0B       		.uleb128 0xb
 1125 026a A9070000 		.4byte	.LASF46
 1126 026e 09       		.byte	0x9
 1127 026f 8E01     		.2byte	0x18e
 1128 0271 21       		.byte	0x21
 1129 0272 C0060000 		.4byte	0x6c0
 1130 0276 00       		.byte	0
 1131 0277 0B       		.uleb128 0xb
 1132 0278 C2010000 		.4byte	.LASF47
 1133 027c 09       		.byte	0x9
 1134 027d 9201     		.2byte	0x192
 1135 027f 21       		.byte	0x21
 1136 0280 37050000 		.4byte	0x537
 1137 0284 10       		.byte	0x10
 1138 0285 0B       		.uleb128 0xb
 1139 0286 03070000 		.4byte	.LASF48
 1140 028a 09       		.byte	0x9
 1141 028b 9901     		.2byte	0x199
 1142 028d 21       		.byte	0x21
 1143 028e 5E050000 		.4byte	0x55e
 1144 0292 28       		.byte	0x28
 1145 0293 0B       		.uleb128 0xb
 1146 0294 92000000 		.4byte	.LASF49
 1147 0298 09       		.byte	0x9
 1148 0299 9E01     		.2byte	0x19e
 1149 029b 21       		.byte	0x21
 1150 029c 54010000 		.4byte	0x154
 1151 02a0 30       		.byte	0x30
 1152 02a1 0B       		.uleb128 0xb
 1153 02a2 15000000 		.4byte	.LASF50
 1154 02a6 09       		.byte	0x9
 1155 02a7 A401     		.2byte	0x1a4
 1156 02a9 21       		.byte	0x21
 1157 02aa 01030000 		.4byte	0x301
 1158 02ae 34       		.byte	0x34
 1159 02af 0B       		.uleb128 0xb
 1160 02b0 AB060000 		.4byte	.LASF51
 1161 02b4 09       		.byte	0x9
 1162 02b5 A901     		.2byte	0x1a9
 1163 02b7 22       		.byte	0x22
 1164 02b8 34070000 		.4byte	0x734
 1165 02bc 38       		.byte	0x38
 1166 02bd 0B       		.uleb128 0xb
 1167 02be 18010000 		.4byte	.LASF52
 1168 02c2 09       		.byte	0x9
 1169 02c3 AD01     		.2byte	0x1ad
ARM GAS  /tmp/ccViN8cm.s 			page 22


 1170 02c5 21       		.byte	0x21
 1171 02c6 60010000 		.4byte	0x160
 1172 02ca 3C       		.byte	0x3c
 1173 02cb 0A       		.uleb128 0xa
 1174 02cc 64626700 		.ascii	"dbg\000"
 1175 02d0 09       		.byte	0x9
 1176 02d1 B101     		.2byte	0x1b1
 1177 02d3 21       		.byte	0x21
 1178 02d4 3F030000 		.4byte	0x33f
 1179 02d8 84       		.byte	0x84
 1180 02d9 00       		.byte	0
 1181 02da 03       		.uleb128 0x3
 1182 02db 8C040000 		.4byte	.LASF53
 1183 02df 0A       		.byte	0xa
 1184 02e0 3F       		.byte	0x3f
 1185 02e1 12       		.byte	0x12
 1186 02e2 CB000000 		.4byte	0xcb
 1187 02e6 07       		.uleb128 0x7
 1188 02e7 37020000 		.4byte	.LASF54
 1189 02eb 04       		.byte	0x4
 1190 02ec 0A       		.byte	0xa
 1191 02ed 44       		.byte	0x44
 1192 02ee 10       		.byte	0x10
 1193 02ef 01030000 		.4byte	0x301
 1194 02f3 09       		.uleb128 0x9
 1195 02f4 94020000 		.4byte	.LASF55
 1196 02f8 0A       		.byte	0xa
 1197 02f9 48       		.byte	0x48
 1198 02fa 21       		.byte	0x21
 1199 02fb DA020000 		.4byte	0x2da
 1200 02ff 00       		.byte	0
 1201 0300 00       		.byte	0
 1202 0301 03       		.uleb128 0x3
 1203 0302 E3050000 		.4byte	.LASF56
 1204 0306 0A       		.byte	0xa
 1205 0307 49       		.byte	0x49
 1206 0308 03       		.byte	0x3
 1207 0309 E6020000 		.4byte	0x2e6
 1208 030d 07       		.uleb128 0x7
 1209 030e A4050000 		.4byte	.LASF57
 1210 0312 04       		.byte	0x4
 1211 0313 0B       		.byte	0xb
 1212 0314 3E       		.byte	0x3e
 1213 0315 10       		.byte	0x10
 1214 0316 28030000 		.4byte	0x328
 1215 031a 09       		.uleb128 0x9
 1216 031b D5060000 		.4byte	.LASF58
 1217 031f 0B       		.byte	0xb
 1218 0320 46       		.byte	0x46
 1219 0321 24       		.byte	0x24
 1220 0322 2E030000 		.4byte	0x32e
 1221 0326 00       		.byte	0
 1222 0327 00       		.byte	0
 1223 0328 0D       		.uleb128 0xd
 1224 0329 04       		.byte	0x4
 1225 032a 3A030000 		.4byte	0x33a
 1226 032e 06       		.uleb128 0x6
ARM GAS  /tmp/ccViN8cm.s 			page 23


 1227 032f 28030000 		.4byte	0x328
 1228 0333 04       		.uleb128 0x4
 1229 0334 01       		.byte	0x1
 1230 0335 08       		.byte	0x8
 1231 0336 A1060000 		.4byte	.LASF59
 1232 033a 05       		.uleb128 0x5
 1233 033b 33030000 		.4byte	0x333
 1234 033f 03       		.uleb128 0x3
 1235 0340 83000000 		.4byte	.LASF60
 1236 0344 0B       		.byte	0xb
 1237 0345 51       		.byte	0x51
 1238 0346 03       		.byte	0x3
 1239 0347 0D030000 		.4byte	0x30d
 1240 034b 03       		.uleb128 0x3
 1241 034c C1060000 		.4byte	.LASF61
 1242 0350 0C       		.byte	0xc
 1243 0351 6D       		.byte	0x6d
 1244 0352 12       		.byte	0x12
 1245 0353 CB000000 		.4byte	0xcb
 1246 0357 03       		.uleb128 0x3
 1247 0358 24030000 		.4byte	.LASF62
 1248 035c 0C       		.byte	0xc
 1249 035d 79       		.byte	0x79
 1250 035e 12       		.byte	0x12
 1251 035f CB000000 		.4byte	0xcb
 1252 0363 03       		.uleb128 0x3
 1253 0364 DD040000 		.4byte	.LASF63
 1254 0368 0D       		.byte	0xd
 1255 0369 32       		.byte	0x32
 1256 036a 18       		.byte	0x18
 1257 036b 6F030000 		.4byte	0x36f
 1258 036f 07       		.uleb128 0x7
 1259 0370 2B040000 		.4byte	.LASF64
 1260 0374 04       		.byte	0x4
 1261 0375 0D       		.byte	0xd
 1262 0376 38       		.byte	0x38
 1263 0377 08       		.byte	0x8
 1264 0378 8A030000 		.4byte	0x38a
 1265 037c 09       		.uleb128 0x9
 1266 037d 41010000 		.4byte	.LASF65
 1267 0381 0D       		.byte	0xd
 1268 0382 39       		.byte	0x39
 1269 0383 1A       		.byte	0x1a
 1270 0384 8A030000 		.4byte	0x38a
 1271 0388 00       		.byte	0
 1272 0389 00       		.byte	0
 1273 038a 0D       		.uleb128 0xd
 1274 038b 04       		.byte	0x4
 1275 038c 63030000 		.4byte	0x363
 1276 0390 03       		.uleb128 0x3
 1277 0391 77030000 		.4byte	.LASF66
 1278 0395 0D       		.byte	0xd
 1279 0396 3F       		.byte	0x3f
 1280 0397 19       		.byte	0x19
 1281 0398 9C030000 		.4byte	0x39c
 1282 039c 07       		.uleb128 0x7
 1283 039d 3F020000 		.4byte	.LASF67
ARM GAS  /tmp/ccViN8cm.s 			page 24


 1284 03a1 08       		.byte	0x8
 1285 03a2 0D       		.byte	0xd
 1286 03a3 45       		.byte	0x45
 1287 03a4 08       		.byte	0x8
 1288 03a5 C4030000 		.4byte	0x3c4
 1289 03a9 09       		.uleb128 0x9
 1290 03aa 41010000 		.4byte	.LASF65
 1291 03ae 0D       		.byte	0xd
 1292 03af 46       		.byte	0x46
 1293 03b0 1A       		.byte	0x1a
 1294 03b1 C4030000 		.4byte	0x3c4
 1295 03b5 00       		.byte	0
 1296 03b6 09       		.uleb128 0x9
 1297 03b7 72000000 		.4byte	.LASF68
 1298 03bb 0D       		.byte	0xd
 1299 03bc 47       		.byte	0x47
 1300 03bd 1A       		.byte	0x1a
 1301 03be C4030000 		.4byte	0x3c4
 1302 03c2 04       		.byte	0x4
 1303 03c3 00       		.byte	0
 1304 03c4 0D       		.uleb128 0xd
 1305 03c5 04       		.byte	0x4
 1306 03c6 90030000 		.4byte	0x390
 1307 03ca 03       		.uleb128 0x3
 1308 03cb C9000000 		.4byte	.LASF69
 1309 03cf 0D       		.byte	0xd
 1310 03d0 4E       		.byte	0x4e
 1311 03d1 22       		.byte	0x22
 1312 03d2 D6030000 		.4byte	0x3d6
 1313 03d6 07       		.uleb128 0x7
 1314 03d7 0B070000 		.4byte	.LASF70
 1315 03db 0C       		.byte	0xc
 1316 03dc 0D       		.byte	0xd
 1317 03dd 55       		.byte	0x55
 1318 03de 08       		.byte	0x8
 1319 03df 0B040000 		.4byte	0x40b
 1320 03e3 09       		.uleb128 0x9
 1321 03e4 41010000 		.4byte	.LASF65
 1322 03e8 0D       		.byte	0xd
 1323 03e9 56       		.byte	0x56
 1324 03ea 1A       		.byte	0x1a
 1325 03eb 0B040000 		.4byte	0x40b
 1326 03ef 00       		.byte	0
 1327 03f0 09       		.uleb128 0x9
 1328 03f1 72000000 		.4byte	.LASF68
 1329 03f5 0D       		.byte	0xd
 1330 03f6 57       		.byte	0x57
 1331 03f7 1A       		.byte	0x1a
 1332 03f8 0B040000 		.4byte	0x40b
 1333 03fc 04       		.byte	0x4
 1334 03fd 09       		.uleb128 0x9
 1335 03fe 46050000 		.4byte	.LASF71
 1336 0402 0D       		.byte	0xd
 1337 0403 58       		.byte	0x58
 1338 0404 19       		.byte	0x19
 1339 0405 24010000 		.4byte	0x124
 1340 0409 08       		.byte	0x8
ARM GAS  /tmp/ccViN8cm.s 			page 25


 1341 040a 00       		.byte	0
 1342 040b 0D       		.uleb128 0xd
 1343 040c 04       		.byte	0x4
 1344 040d CA030000 		.4byte	0x3ca
 1345 0411 03       		.uleb128 0x3
 1346 0412 68020000 		.4byte	.LASF72
 1347 0416 0D       		.byte	0xd
 1348 0417 5F       		.byte	0x5f
 1349 0418 1E       		.byte	0x1e
 1350 0419 1D040000 		.4byte	0x41d
 1351 041d 07       		.uleb128 0x7
 1352 041e 95010000 		.4byte	.LASF73
 1353 0422 0C       		.byte	0xc
 1354 0423 0D       		.byte	0xd
 1355 0424 64       		.byte	0x64
 1356 0425 08       		.byte	0x8
 1357 0426 52040000 		.4byte	0x452
 1358 042a 09       		.uleb128 0x9
 1359 042b 41010000 		.4byte	.LASF65
 1360 042f 0D       		.byte	0xd
 1361 0430 65       		.byte	0x65
 1362 0431 1A       		.byte	0x1a
 1363 0432 52040000 		.4byte	0x452
 1364 0436 00       		.byte	0
 1365 0437 09       		.uleb128 0x9
 1366 0438 72000000 		.4byte	.LASF68
 1367 043c 0D       		.byte	0xd
 1368 043d 66       		.byte	0x66
 1369 043e 1A       		.byte	0x1a
 1370 043f 52040000 		.4byte	0x452
 1371 0443 04       		.byte	0x4
 1372 0444 09       		.uleb128 0x9
 1373 0445 2E000000 		.4byte	.LASF74
 1374 0449 0D       		.byte	0xd
 1375 044a 67       		.byte	0x67
 1376 044b 19       		.byte	0x19
 1377 044c 57030000 		.4byte	0x357
 1378 0450 08       		.byte	0x8
 1379 0451 00       		.byte	0
 1380 0452 0D       		.uleb128 0xd
 1381 0453 04       		.byte	0x4
 1382 0454 11040000 		.4byte	0x411
 1383 0458 0C       		.uleb128 0xc
 1384 0459 77000000 		.4byte	.LASF75
 1385 045d 24       		.byte	0x24
 1386 045e 0E       		.byte	0xe
 1387 045f E001     		.2byte	0x1e0
 1388 0461 08       		.byte	0x8
 1389 0462 DE040000 		.4byte	0x4de
 1390 0466 0A       		.uleb128 0xa
 1391 0467 723400   		.ascii	"r4\000"
 1392 046a 0E       		.byte	0xe
 1393 046b F901     		.2byte	0x1f9
 1394 046d 11       		.byte	0x11
 1395 046e CB000000 		.4byte	0xcb
 1396 0472 00       		.byte	0
 1397 0473 0A       		.uleb128 0xa
ARM GAS  /tmp/ccViN8cm.s 			page 26


 1398 0474 723500   		.ascii	"r5\000"
 1399 0477 0E       		.byte	0xe
 1400 0478 FA01     		.2byte	0x1fa
 1401 047a 11       		.byte	0x11
 1402 047b CB000000 		.4byte	0xcb
 1403 047f 04       		.byte	0x4
 1404 0480 0A       		.uleb128 0xa
 1405 0481 723600   		.ascii	"r6\000"
 1406 0484 0E       		.byte	0xe
 1407 0485 FB01     		.2byte	0x1fb
 1408 0487 11       		.byte	0x11
 1409 0488 CB000000 		.4byte	0xcb
 1410 048c 08       		.byte	0x8
 1411 048d 0A       		.uleb128 0xa
 1412 048e 723700   		.ascii	"r7\000"
 1413 0491 0E       		.byte	0xe
 1414 0492 FC01     		.2byte	0x1fc
 1415 0494 11       		.byte	0x11
 1416 0495 CB000000 		.4byte	0xcb
 1417 0499 0C       		.byte	0xc
 1418 049a 0A       		.uleb128 0xa
 1419 049b 723800   		.ascii	"r8\000"
 1420 049e 0E       		.byte	0xe
 1421 049f FD01     		.2byte	0x1fd
 1422 04a1 11       		.byte	0x11
 1423 04a2 CB000000 		.4byte	0xcb
 1424 04a6 10       		.byte	0x10
 1425 04a7 0A       		.uleb128 0xa
 1426 04a8 723900   		.ascii	"r9\000"
 1427 04ab 0E       		.byte	0xe
 1428 04ac FE01     		.2byte	0x1fe
 1429 04ae 11       		.byte	0x11
 1430 04af CB000000 		.4byte	0xcb
 1431 04b3 14       		.byte	0x14
 1432 04b4 0A       		.uleb128 0xa
 1433 04b5 72313000 		.ascii	"r10\000"
 1434 04b9 0E       		.byte	0xe
 1435 04ba FF01     		.2byte	0x1ff
 1436 04bc 11       		.byte	0x11
 1437 04bd CB000000 		.4byte	0xcb
 1438 04c1 18       		.byte	0x18
 1439 04c2 0A       		.uleb128 0xa
 1440 04c3 72313100 		.ascii	"r11\000"
 1441 04c7 0E       		.byte	0xe
 1442 04c8 0002     		.2byte	0x200
 1443 04ca 11       		.byte	0x11
 1444 04cb CB000000 		.4byte	0xcb
 1445 04cf 1C       		.byte	0x1c
 1446 04d0 0A       		.uleb128 0xa
 1447 04d1 6C7200   		.ascii	"lr\000"
 1448 04d4 0E       		.byte	0xe
 1449 04d5 0102     		.2byte	0x201
 1450 04d7 11       		.byte	0x11
 1451 04d8 CB000000 		.4byte	0xcb
 1452 04dc 20       		.byte	0x20
 1453 04dd 00       		.byte	0
 1454 04de 0C       		.uleb128 0xc
ARM GAS  /tmp/ccViN8cm.s 			page 27


 1455 04df 1D070000 		.4byte	.LASF76
 1456 04e3 04       		.byte	0x4
 1457 04e4 0E       		.byte	0xe
 1458 04e5 0A02     		.2byte	0x20a
 1459 04e7 08       		.byte	0x8
 1460 04e8 FA040000 		.4byte	0x4fa
 1461 04ec 0A       		.uleb128 0xa
 1462 04ed 737000   		.ascii	"sp\000"
 1463 04f0 0E       		.byte	0xe
 1464 04f1 0B02     		.2byte	0x20b
 1465 04f3 1A       		.byte	0x1a
 1466 04f4 FA040000 		.4byte	0x4fa
 1467 04f8 00       		.byte	0
 1468 04f9 00       		.byte	0
 1469 04fa 0D       		.uleb128 0xd
 1470 04fb 04       		.byte	0x4
 1471 04fc 58040000 		.4byte	0x458
 1472 0500 0E       		.uleb128 0xe
 1473 0501 04       		.byte	0x4
 1474 0502 07       		.uleb128 0x7
 1475 0503 BA040000 		.4byte	.LASF77
 1476 0507 18       		.byte	0x18
 1477 0508 09       		.byte	0x9
 1478 0509 64       		.byte	0x64
 1479 050a 10       		.byte	0x10
 1480 050b 37050000 		.4byte	0x537
 1481 050f 09       		.uleb128 0x9
 1482 0510 BB060000 		.4byte	.LASF78
 1483 0514 09       		.byte	0x9
 1484 0515 68       		.byte	0x68
 1485 0516 21       		.byte	0x21
 1486 0517 11040000 		.4byte	0x411
 1487 051b 00       		.byte	0
 1488 051c 09       		.uleb128 0x9
 1489 051d F8050000 		.4byte	.LASF79
 1490 0521 09       		.byte	0x9
 1491 0522 73       		.byte	0x73
 1492 0523 21       		.byte	0x21
 1493 0524 4B030000 		.4byte	0x34b
 1494 0528 0C       		.byte	0xc
 1495 0529 09       		.uleb128 0x9
 1496 052a 73040000 		.4byte	.LASF80
 1497 052e 09       		.byte	0x9
 1498 052f 79       		.byte	0x79
 1499 0530 21       		.byte	0x21
 1500 0531 E3000000 		.4byte	0xe3
 1501 0535 10       		.byte	0x10
 1502 0536 00       		.byte	0
 1503 0537 03       		.uleb128 0x3
 1504 0538 2B010000 		.4byte	.LASF81
 1505 053c 09       		.byte	0x9
 1506 053d 7B       		.byte	0x7b
 1507 053e 03       		.byte	0x3
 1508 053f 02050000 		.4byte	0x502
 1509 0543 07       		.uleb128 0x7
 1510 0544 7D020000 		.4byte	.LASF82
 1511 0548 08       		.byte	0x8
ARM GAS  /tmp/ccViN8cm.s 			page 28


 1512 0549 09       		.byte	0x9
 1513 054a 80       		.byte	0x80
 1514 054b 10       		.byte	0x10
 1515 054c 5E050000 		.4byte	0x55e
 1516 0550 09       		.uleb128 0x9
 1517 0551 82030000 		.4byte	.LASF83
 1518 0555 09       		.byte	0x9
 1519 0556 84       		.byte	0x84
 1520 0557 21       		.byte	0x21
 1521 0558 90030000 		.4byte	0x390
 1522 055c 00       		.byte	0
 1523 055d 00       		.byte	0
 1524 055e 03       		.uleb128 0x3
 1525 055f 48060000 		.4byte	.LASF84
 1526 0563 09       		.byte	0x9
 1527 0564 85       		.byte	0x85
 1528 0565 03       		.byte	0x3
 1529 0566 43050000 		.4byte	0x543
 1530 056a 03       		.uleb128 0x3
 1531 056b A7040000 		.4byte	.LASF85
 1532 056f 09       		.byte	0x9
 1533 0570 8A       		.byte	0x8a
 1534 0571 14       		.byte	0x14
 1535 0572 76050000 		.4byte	0x576
 1536 0576 0D       		.uleb128 0xd
 1537 0577 04       		.byte	0x4
 1538 0578 60010000 		.4byte	0x160
 1539 057c 0F       		.uleb128 0xf
 1540 057d 0C       		.byte	0xc
 1541 057e 09       		.byte	0x9
 1542 057f A0       		.byte	0xa0
 1543 0580 03       		.byte	0x3
 1544 0581 AA050000 		.4byte	0x5aa
 1545 0585 10       		.uleb128 0x10
 1546 0586 B5080000 		.4byte	.LASF86
 1547 058a 09       		.byte	0x9
 1548 058b A4       		.byte	0xa4
 1549 058c 21       		.byte	0x21
 1550 058d 63030000 		.4byte	0x363
 1551 0591 10       		.uleb128 0x10
 1552 0592 82030000 		.4byte	.LASF83
 1553 0596 09       		.byte	0x9
 1554 0597 A8       		.byte	0xa8
 1555 0598 21       		.byte	0x21
 1556 0599 90030000 		.4byte	0x390
 1557 059d 10       		.uleb128 0x10
 1558 059e DF060000 		.4byte	.LASF87
 1559 05a2 09       		.byte	0x9
 1560 05a3 AC       		.byte	0xac
 1561 05a4 21       		.byte	0x21
 1562 05a5 CA030000 		.4byte	0x3ca
 1563 05a9 00       		.byte	0
 1564 05aa 0F       		.uleb128 0xf
 1565 05ab 04       		.byte	0x4
 1566 05ac 09       		.byte	0x9
 1567 05ad EB       		.byte	0xeb
 1568 05ae 03       		.byte	0x3
ARM GAS  /tmp/ccViN8cm.s 			page 29


 1569 05af 1A060000 		.4byte	0x61a
 1570 05b3 10       		.uleb128 0x10
 1571 05b4 34000000 		.4byte	.LASF88
 1572 05b8 09       		.byte	0x9
 1573 05b9 F2       		.byte	0xf2
 1574 05ba 21       		.byte	0x21
 1575 05bb 30010000 		.4byte	0x130
 1576 05bf 10       		.uleb128 0x10
 1577 05c0 0F010000 		.4byte	.LASF89
 1578 05c4 09       		.byte	0x9
 1579 05c5 F9       		.byte	0xf9
 1580 05c6 21       		.byte	0x21
 1581 05c7 30010000 		.4byte	0x130
 1582 05cb 11       		.uleb128 0x11
 1583 05cc D3070000 		.4byte	.LASF90
 1584 05d0 09       		.byte	0x9
 1585 05d1 0001     		.2byte	0x100
 1586 05d3 22       		.byte	0x22
 1587 05d4 00050000 		.4byte	0x500
 1588 05d8 11       		.uleb128 0x11
 1589 05d9 6A030000 		.4byte	.LASF91
 1590 05dd 09       		.byte	0x9
 1591 05de 0701     		.2byte	0x107
 1592 05e0 22       		.byte	0x22
 1593 05e1 1A060000 		.4byte	0x61a
 1594 05e5 11       		.uleb128 0x11
 1595 05e6 23010000 		.4byte	.LASF92
 1596 05ea 09       		.byte	0x9
 1597 05eb 0C01     		.2byte	0x10c
 1598 05ed 21       		.byte	0x21
 1599 05ee 30010000 		.4byte	0x130
 1600 05f2 11       		.uleb128 0x11
 1601 05f3 45030000 		.4byte	.LASF93
 1602 05f7 09       		.byte	0x9
 1603 05f8 1501     		.2byte	0x115
 1604 05fa 22       		.byte	0x22
 1605 05fb 48060000 		.4byte	0x648
 1606 05ff 11       		.uleb128 0x11
 1607 0600 5C060000 		.4byte	.LASF94
 1608 0604 09       		.byte	0x9
 1609 0605 1E01     		.2byte	0x11e
 1610 0607 22       		.byte	0x22
 1611 0608 83060000 		.4byte	0x683
 1612 060c 11       		.uleb128 0x11
 1613 060d 09060000 		.4byte	.LASF95
 1614 0611 09       		.byte	0x9
 1615 0612 2601     		.2byte	0x126
 1616 0614 21       		.byte	0x21
 1617 0615 3C010000 		.4byte	0x13c
 1618 0619 00       		.byte	0
 1619 061a 0D       		.uleb128 0xd
 1620 061b 04       		.byte	0x4
 1621 061c 6A050000 		.4byte	0x56a
 1622 0620 07       		.uleb128 0x7
 1623 0621 3B060000 		.4byte	.LASF96
 1624 0625 0C       		.byte	0xc
 1625 0626 0F       		.byte	0xf
ARM GAS  /tmp/ccViN8cm.s 			page 30


 1626 0627 34       		.byte	0x34
 1627 0628 10       		.byte	0x10
 1628 0629 48060000 		.4byte	0x648
 1629 062d 09       		.uleb128 0x9
 1630 062e 82030000 		.4byte	.LASF83
 1631 0632 0F       		.byte	0xf
 1632 0633 35       		.byte	0x35
 1633 0634 19       		.byte	0x19
 1634 0635 90030000 		.4byte	0x390
 1635 0639 00       		.byte	0
 1636 063a 08       		.uleb128 0x8
 1637 063b 636E7400 		.ascii	"cnt\000"
 1638 063f 0F       		.byte	0xf
 1639 0640 37       		.byte	0x37
 1640 0641 19       		.byte	0x19
 1641 0642 48010000 		.4byte	0x148
 1642 0646 08       		.byte	0x8
 1643 0647 00       		.byte	0
 1644 0648 0D       		.uleb128 0xd
 1645 0649 04       		.byte	0x4
 1646 064a 20060000 		.4byte	0x620
 1647 064e 07       		.uleb128 0x7
 1648 064f 87070000 		.4byte	.LASF97
 1649 0653 10       		.byte	0x10
 1650 0654 10       		.byte	0x10
 1651 0655 39       		.byte	0x39
 1652 0656 08       		.byte	0x8
 1653 0657 83060000 		.4byte	0x683
 1654 065b 09       		.uleb128 0x9
 1655 065c 82030000 		.4byte	.LASF83
 1656 0660 10       		.byte	0x10
 1657 0661 3A       		.byte	0x3a
 1658 0662 19       		.byte	0x19
 1659 0663 90030000 		.4byte	0x390
 1660 0667 00       		.byte	0
 1661 0668 09       		.uleb128 0x9
 1662 0669 73060000 		.4byte	.LASF31
 1663 066d 10       		.byte	0x10
 1664 066e 3C       		.byte	0x3c
 1665 066f 1A       		.byte	0x1a
 1666 0670 76050000 		.4byte	0x576
 1667 0674 08       		.byte	0x8
 1668 0675 09       		.uleb128 0x9
 1669 0676 41010000 		.4byte	.LASF65
 1670 067a 10       		.byte	0x10
 1671 067b 3E       		.byte	0x3e
 1672 067c 1A       		.byte	0x1a
 1673 067d D4070000 		.4byte	0x7d4
 1674 0681 0C       		.byte	0xc
 1675 0682 00       		.byte	0
 1676 0683 0D       		.uleb128 0xd
 1677 0684 04       		.byte	0x4
 1678 0685 4E060000 		.4byte	0x64e
 1679 0689 0D       		.uleb128 0xd
 1680 068a 04       		.byte	0x4
 1681 068b 4F020000 		.4byte	0x24f
 1682 068f 0D       		.uleb128 0xd
ARM GAS  /tmp/ccViN8cm.s 			page 31


 1683 0690 04       		.byte	0x4
 1684 0691 F4000000 		.4byte	0xf4
 1685 0695 0C       		.uleb128 0xc
 1686 0696 33040000 		.4byte	.LASF98
 1687 069a 10       		.byte	0x10
 1688 069b 09       		.byte	0x9
 1689 069c 5C01     		.2byte	0x15c
 1690 069e 10       		.byte	0x10
 1691 069f C0060000 		.4byte	0x6c0
 1692 06a3 0B       		.uleb128 0xb
 1693 06a4 DF060000 		.4byte	.LASF87
 1694 06a8 09       		.byte	0x9
 1695 06a9 6101     		.2byte	0x161
 1696 06ab 21       		.byte	0x21
 1697 06ac CA030000 		.4byte	0x3ca
 1698 06b0 00       		.byte	0
 1699 06b1 0B       		.uleb128 0xb
 1700 06b2 4B050000 		.4byte	.LASF99
 1701 06b6 09       		.byte	0x9
 1702 06b7 6501     		.2byte	0x165
 1703 06b9 22       		.byte	0x22
 1704 06ba 76050000 		.4byte	0x576
 1705 06be 0C       		.byte	0xc
 1706 06bf 00       		.byte	0
 1707 06c0 12       		.uleb128 0x12
 1708 06c1 08000000 		.4byte	.LASF100
 1709 06c5 09       		.byte	0x9
 1710 06c6 6601     		.2byte	0x166
 1711 06c8 03       		.byte	0x3
 1712 06c9 95060000 		.4byte	0x695
 1713 06cd 0C       		.uleb128 0xc
 1714 06ce DD000000 		.4byte	.LASF101
 1715 06d2 14       		.byte	0x14
 1716 06d3 09       		.byte	0x9
 1717 06d4 6B01     		.2byte	0x16b
 1718 06d6 10       		.byte	0x10
 1719 06d7 22070000 		.4byte	0x722
 1720 06db 0B       		.uleb128 0xb
 1721 06dc E7030000 		.4byte	.LASF32
 1722 06e0 09       		.byte	0x9
 1723 06e1 6F01     		.2byte	0x16f
 1724 06e3 22       		.byte	0x22
 1725 06e4 28030000 		.4byte	0x328
 1726 06e8 00       		.byte	0
 1727 06e9 0B       		.uleb128 0xb
 1728 06ea 36050000 		.4byte	.LASF102
 1729 06ee 09       		.byte	0x9
 1730 06ef 7501     		.2byte	0x175
 1731 06f1 22       		.byte	0x22
 1732 06f2 8F060000 		.4byte	0x68f
 1733 06f6 04       		.byte	0x4
 1734 06f7 0B       		.uleb128 0xb
 1735 06f8 63070000 		.4byte	.LASF103
 1736 06fc 09       		.byte	0x9
 1737 06fd 7901     		.2byte	0x179
 1738 06ff 22       		.byte	0x22
 1739 0700 8F060000 		.4byte	0x68f
ARM GAS  /tmp/ccViN8cm.s 			page 32


 1740 0704 08       		.byte	0x8
 1741 0705 0B       		.uleb128 0xb
 1742 0706 63040000 		.4byte	.LASF104
 1743 070a 09       		.byte	0x9
 1744 070b 7F01     		.2byte	0x17f
 1745 070d 22       		.byte	0x22
 1746 070e 8F060000 		.4byte	0x68f
 1747 0712 0C       		.byte	0xc
 1748 0713 0B       		.uleb128 0xb
 1749 0714 BA080000 		.4byte	.LASF105
 1750 0718 09       		.byte	0x9
 1751 0719 8301     		.2byte	0x183
 1752 071b 22       		.byte	0x22
 1753 071c 8F060000 		.4byte	0x68f
 1754 0720 10       		.byte	0x10
 1755 0721 00       		.byte	0
 1756 0722 12       		.uleb128 0x12
 1757 0723 72070000 		.4byte	.LASF106
 1758 0727 09       		.byte	0x9
 1759 0728 8501     		.2byte	0x185
 1760 072a 03       		.byte	0x3
 1761 072b CD060000 		.4byte	0x6cd
 1762 072f 05       		.uleb128 0x5
 1763 0730 22070000 		.4byte	0x722
 1764 0734 0D       		.uleb128 0xd
 1765 0735 04       		.byte	0x4
 1766 0736 2F070000 		.4byte	0x72f
 1767 073a 13       		.uleb128 0x13
 1768 073b 63683000 		.ascii	"ch0\000"
 1769 073f 14       		.byte	0x14
 1770 0740 4101     		.2byte	0x141
 1771 0742 16       		.byte	0x16
 1772 0743 4F020000 		.4byte	0x24f
 1773 0747 03       		.uleb128 0x3
 1774 0748 00000000 		.4byte	.LASF107
 1775 074c 02       		.byte	0x2
 1776 074d 34       		.byte	0x34
 1777 074e 10       		.byte	0x10
 1778 074f 53070000 		.4byte	0x753
 1779 0753 0D       		.uleb128 0xd
 1780 0754 04       		.byte	0x4
 1781 0755 59070000 		.4byte	0x759
 1782 0759 14       		.uleb128 0x14
 1783 075a 64070000 		.4byte	0x764
 1784 075e 15       		.uleb128 0x15
 1785 075f 00050000 		.4byte	0x500
 1786 0763 00       		.byte	0
 1787 0764 16       		.uleb128 0x16
 1788 0765 18       		.byte	0x18
 1789 0766 02       		.byte	0x2
 1790 0767 39       		.byte	0x39
 1791 0768 09       		.byte	0x9
 1792 0769 BC070000 		.4byte	0x7bc
 1793 076d 09       		.uleb128 0x9
 1794 076e E7030000 		.4byte	.LASF32
 1795 0772 02       		.byte	0x2
 1796 0773 3D       		.byte	0x3d
ARM GAS  /tmp/ccViN8cm.s 			page 33


 1797 0774 16       		.byte	0x16
 1798 0775 28030000 		.4byte	0x328
 1799 0779 00       		.byte	0
 1800 077a 09       		.uleb128 0x9
 1801 077b 18050000 		.4byte	.LASF108
 1802 077f 02       		.byte	0x2
 1803 0780 41       		.byte	0x41
 1804 0781 16       		.byte	0x16
 1805 0782 8F060000 		.4byte	0x68f
 1806 0786 04       		.byte	0x4
 1807 0787 09       		.uleb128 0x9
 1808 0788 F3000000 		.4byte	.LASF109
 1809 078c 02       		.byte	0x2
 1810 078d 45       		.byte	0x45
 1811 078e 16       		.byte	0x16
 1812 078f 8F060000 		.4byte	0x68f
 1813 0793 08       		.byte	0x8
 1814 0794 09       		.uleb128 0x9
 1815 0795 46050000 		.4byte	.LASF71
 1816 0799 02       		.byte	0x2
 1817 079a 49       		.byte	0x49
 1818 079b 15       		.byte	0x15
 1819 079c 24010000 		.4byte	0x124
 1820 07a0 0C       		.byte	0xc
 1821 07a1 09       		.uleb128 0x9
 1822 07a2 3B000000 		.4byte	.LASF110
 1823 07a6 02       		.byte	0x2
 1824 07a7 4D       		.byte	0x4d
 1825 07a8 15       		.byte	0x15
 1826 07a9 47070000 		.4byte	0x747
 1827 07ad 10       		.byte	0x10
 1828 07ae 08       		.uleb128 0x8
 1829 07af 61726700 		.ascii	"arg\000"
 1830 07b3 02       		.byte	0x2
 1831 07b4 51       		.byte	0x51
 1832 07b5 16       		.byte	0x16
 1833 07b6 00050000 		.4byte	0x500
 1834 07ba 14       		.byte	0x14
 1835 07bb 00       		.byte	0
 1836 07bc 03       		.uleb128 0x3
 1837 07bd 9A000000 		.4byte	.LASF111
 1838 07c1 02       		.byte	0x2
 1839 07c2 58       		.byte	0x58
 1840 07c3 03       		.byte	0x3
 1841 07c4 64070000 		.4byte	0x764
 1842 07c8 03       		.uleb128 0x3
 1843 07c9 07030000 		.4byte	.LASF112
 1844 07cd 10       		.byte	0x10
 1845 07ce 34       		.byte	0x34
 1846 07cf 19       		.byte	0x19
 1847 07d0 4E060000 		.4byte	0x64e
 1848 07d4 0D       		.uleb128 0xd
 1849 07d5 04       		.byte	0x4
 1850 07d6 C8070000 		.4byte	0x7c8
 1851 07da 04       		.uleb128 0x4
 1852 07db 01       		.byte	0x1
 1853 07dc 02       		.byte	0x2
ARM GAS  /tmp/ccViN8cm.s 			page 34


 1854 07dd B4050000 		.4byte	.LASF113
 1855 07e1 0D       		.uleb128 0xd
 1856 07e2 04       		.byte	0x4
 1857 07e3 AE000000 		.4byte	0xae
 1858 07e7 03       		.uleb128 0x3
 1859 07e8 9A070000 		.4byte	.LASF114
 1860 07ec 03       		.byte	0x3
 1861 07ed 41       		.byte	0x41
 1862 07ee 11       		.byte	0x11
 1863 07ef F3070000 		.4byte	0x7f3
 1864 07f3 0D       		.uleb128 0xd
 1865 07f4 04       		.byte	0x4
 1866 07f5 F9070000 		.4byte	0x7f9
 1867 07f9 17       		.uleb128 0x17
 1868 07fa 30010000 		.4byte	0x130
 1869 07fe 03       		.uleb128 0x3
 1870 07ff 5B030000 		.4byte	.LASF115
 1871 0803 03       		.byte	0x3
 1872 0804 46       		.byte	0x46
 1873 0805 11       		.byte	0x11
 1874 0806 0A080000 		.4byte	0x80a
 1875 080a 0D       		.uleb128 0xd
 1876 080b 04       		.byte	0x4
 1877 080c 10080000 		.4byte	0x810
 1878 0810 18       		.uleb128 0x18
 1879 0811 30010000 		.4byte	0x130
 1880 0815 1F080000 		.4byte	0x81f
 1881 0819 15       		.uleb128 0x15
 1882 081a 30010000 		.4byte	0x130
 1883 081e 00       		.byte	0
 1884 081f 03       		.uleb128 0x3
 1885 0820 E7040000 		.4byte	.LASF116
 1886 0824 03       		.byte	0x3
 1887 0825 4B       		.byte	0x4b
 1888 0826 11       		.byte	0x11
 1889 0827 2B080000 		.4byte	0x82b
 1890 082b 0D       		.uleb128 0xd
 1891 082c 04       		.byte	0x4
 1892 082d 31080000 		.4byte	0x831
 1893 0831 18       		.uleb128 0x18
 1894 0832 30010000 		.4byte	0x130
 1895 0836 45080000 		.4byte	0x845
 1896 083a 15       		.uleb128 0x15
 1897 083b 30010000 		.4byte	0x130
 1898 083f 15       		.uleb128 0x15
 1899 0840 30010000 		.4byte	0x130
 1900 0844 00       		.byte	0
 1901 0845 03       		.uleb128 0x3
 1902 0846 4C030000 		.4byte	.LASF117
 1903 084a 03       		.byte	0x3
 1904 084b 50       		.byte	0x50
 1905 084c 11       		.byte	0x11
 1906 084d 51080000 		.4byte	0x851
 1907 0851 0D       		.uleb128 0xd
 1908 0852 04       		.byte	0x4
 1909 0853 57080000 		.4byte	0x857
 1910 0857 18       		.uleb128 0x18
ARM GAS  /tmp/ccViN8cm.s 			page 35


 1911 0858 30010000 		.4byte	0x130
 1912 085c 70080000 		.4byte	0x870
 1913 0860 15       		.uleb128 0x15
 1914 0861 30010000 		.4byte	0x130
 1915 0865 15       		.uleb128 0x15
 1916 0866 30010000 		.4byte	0x130
 1917 086a 15       		.uleb128 0x15
 1918 086b 30010000 		.4byte	0x130
 1919 086f 00       		.byte	0
 1920 0870 03       		.uleb128 0x3
 1921 0871 A3010000 		.4byte	.LASF118
 1922 0875 03       		.byte	0x3
 1923 0876 55       		.byte	0x55
 1924 0877 11       		.byte	0x11
 1925 0878 7C080000 		.4byte	0x87c
 1926 087c 0D       		.uleb128 0xd
 1927 087d 04       		.byte	0x4
 1928 087e 82080000 		.4byte	0x882
 1929 0882 18       		.uleb128 0x18
 1930 0883 30010000 		.4byte	0x130
 1931 0887 A0080000 		.4byte	0x8a0
 1932 088b 15       		.uleb128 0x15
 1933 088c 30010000 		.4byte	0x130
 1934 0890 15       		.uleb128 0x15
 1935 0891 30010000 		.4byte	0x130
 1936 0895 15       		.uleb128 0x15
 1937 0896 30010000 		.4byte	0x130
 1938 089a 15       		.uleb128 0x15
 1939 089b 30010000 		.4byte	0x130
 1940 089f 00       		.byte	0
 1941 08a0 07       		.uleb128 0x7
 1942 08a1 10060000 		.4byte	.LASF119
 1943 08a5 14       		.byte	0x14
 1944 08a6 11       		.byte	0x11
 1945 08a7 48       		.byte	0x48
 1946 08a8 08       		.byte	0x8
 1947 08a9 EF080000 		.4byte	0x8ef
 1948 08ad 09       		.uleb128 0x9
 1949 08ae A5080000 		.4byte	.LASF120
 1950 08b2 11       		.byte	0x11
 1951 08b3 49       		.byte	0x49
 1952 08b4 03       		.byte	0x3
 1953 08b5 2C000000 		.4byte	0x2c
 1954 08b9 00       		.byte	0
 1955 08ba 09       		.uleb128 0x9
 1956 08bb 7D040000 		.4byte	.LASF121
 1957 08bf 11       		.byte	0x11
 1958 08c0 49       		.byte	0x49
 1959 08c1 03       		.byte	0x3
 1960 08c2 13090000 		.4byte	0x913
 1961 08c6 04       		.byte	0x4
 1962 08c7 09       		.uleb128 0x9
 1963 08c8 9C060000 		.4byte	.LASF122
 1964 08cc 11       		.byte	0x11
 1965 08cd 49       		.byte	0x49
 1966 08ce 03       		.byte	0x3
 1967 08cf 32090000 		.4byte	0x932
ARM GAS  /tmp/ccViN8cm.s 			page 36


 1968 08d3 08       		.byte	0x8
 1969 08d4 08       		.uleb128 0x8
 1970 08d5 70757400 		.ascii	"put\000"
 1971 08d9 11       		.byte	0x11
 1972 08da 49       		.byte	0x49
 1973 08db 03       		.byte	0x3
 1974 08dc 4C090000 		.4byte	0x94c
 1975 08e0 0C       		.byte	0xc
 1976 08e1 08       		.uleb128 0x8
 1977 08e2 67657400 		.ascii	"get\000"
 1978 08e6 11       		.byte	0x11
 1979 08e7 49       		.byte	0x49
 1980 08e8 03       		.byte	0x3
 1981 08e9 61090000 		.4byte	0x961
 1982 08ed 10       		.byte	0x10
 1983 08ee 00       		.byte	0
 1984 08ef 05       		.uleb128 0x5
 1985 08f0 A0080000 		.4byte	0x8a0
 1986 08f4 18       		.uleb128 0x18
 1987 08f5 2C000000 		.4byte	0x2c
 1988 08f9 0D090000 		.4byte	0x90d
 1989 08fd 15       		.uleb128 0x15
 1990 08fe 00050000 		.4byte	0x500
 1991 0902 15       		.uleb128 0x15
 1992 0903 0D090000 		.4byte	0x90d
 1993 0907 15       		.uleb128 0x15
 1994 0908 2C000000 		.4byte	0x2c
 1995 090c 00       		.byte	0
 1996 090d 0D       		.uleb128 0xd
 1997 090e 04       		.byte	0x4
 1998 090f BA000000 		.4byte	0xba
 1999 0913 0D       		.uleb128 0xd
 2000 0914 04       		.byte	0x4
 2001 0915 F4080000 		.4byte	0x8f4
 2002 0919 18       		.uleb128 0x18
 2003 091a 2C000000 		.4byte	0x2c
 2004 091e 32090000 		.4byte	0x932
 2005 0922 15       		.uleb128 0x15
 2006 0923 00050000 		.4byte	0x500
 2007 0927 15       		.uleb128 0x15
 2008 0928 E1070000 		.4byte	0x7e1
 2009 092c 15       		.uleb128 0x15
 2010 092d 2C000000 		.4byte	0x2c
 2011 0931 00       		.byte	0
 2012 0932 0D       		.uleb128 0xd
 2013 0933 04       		.byte	0x4
 2014 0934 19090000 		.4byte	0x919
 2015 0938 18       		.uleb128 0x18
 2016 0939 30010000 		.4byte	0x130
 2017 093d 4C090000 		.4byte	0x94c
 2018 0941 15       		.uleb128 0x15
 2019 0942 00050000 		.4byte	0x500
 2020 0946 15       		.uleb128 0x15
 2021 0947 AE000000 		.4byte	0xae
 2022 094b 00       		.byte	0
 2023 094c 0D       		.uleb128 0xd
 2024 094d 04       		.byte	0x4
ARM GAS  /tmp/ccViN8cm.s 			page 37


 2025 094e 38090000 		.4byte	0x938
 2026 0952 18       		.uleb128 0x18
 2027 0953 30010000 		.4byte	0x130
 2028 0957 61090000 		.4byte	0x961
 2029 095b 15       		.uleb128 0x15
 2030 095c 00050000 		.4byte	0x500
 2031 0960 00       		.byte	0
 2032 0961 0D       		.uleb128 0xd
 2033 0962 04       		.byte	0x4
 2034 0963 52090000 		.4byte	0x952
 2035 0967 16       		.uleb128 0x16
 2036 0968 04       		.byte	0x4
 2037 0969 11       		.byte	0x11
 2038 096a 53       		.byte	0x53
 2039 096b 09       		.byte	0x9
 2040 096c 7E090000 		.4byte	0x97e
 2041 0970 08       		.uleb128 0x8
 2042 0971 766D7400 		.ascii	"vmt\000"
 2043 0975 11       		.byte	0x11
 2044 0976 55       		.byte	0x55
 2045 0977 29       		.byte	0x29
 2046 0978 7E090000 		.4byte	0x97e
 2047 097c 00       		.byte	0
 2048 097d 00       		.byte	0
 2049 097e 0D       		.uleb128 0xd
 2050 097f 04       		.byte	0x4
 2051 0980 EF080000 		.4byte	0x8ef
 2052 0984 03       		.uleb128 0x3
 2053 0985 0F030000 		.4byte	.LASF123
 2054 0989 11       		.byte	0x11
 2055 098a 57       		.byte	0x57
 2056 098b 03       		.byte	0x3
 2057 098c 67090000 		.4byte	0x967
 2058 0990 03       		.uleb128 0x3
 2059 0991 98040000 		.4byte	.LASF124
 2060 0995 12       		.byte	0x12
 2061 0996 7D       		.byte	0x7d
 2062 0997 0F       		.byte	0xf
 2063 0998 9C090000 		.4byte	0x99c
 2064 099c 0D       		.uleb128 0xd
 2065 099d 04       		.byte	0x4
 2066 099e A2090000 		.4byte	0x9a2
 2067 09a2 18       		.uleb128 0x18
 2068 09a3 25000000 		.4byte	0x25
 2069 09a7 B1090000 		.4byte	0x9b1
 2070 09ab 15       		.uleb128 0x15
 2071 09ac 25000000 		.4byte	0x25
 2072 09b0 00       		.byte	0
 2073 09b1 16       		.uleb128 0x16
 2074 09b2 28       		.byte	0x28
 2075 09b3 12       		.byte	0x12
 2076 09b4 82       		.byte	0x82
 2077 09b5 09       		.byte	0x9
 2078 09b6 230A0000 		.4byte	0xa23
 2079 09ba 09       		.uleb128 0x9
 2080 09bb F6040000 		.4byte	.LASF125
 2081 09bf 12       		.byte	0x12
ARM GAS  /tmp/ccViN8cm.s 			page 38


 2082 09c0 86       		.byte	0x86
 2083 09c1 15       		.byte	0x15
 2084 09c2 38000000 		.4byte	0x38
 2085 09c6 00       		.byte	0
 2086 09c7 09       		.uleb128 0x9
 2087 09c8 22020000 		.4byte	.LASF126
 2088 09cc 12       		.byte	0x12
 2089 09cd 8A       		.byte	0x8a
 2090 09ce 15       		.byte	0x15
 2091 09cf DA070000 		.4byte	0x7da
 2092 09d3 04       		.byte	0x4
 2093 09d4 09       		.uleb128 0x9
 2094 09d5 53050000 		.4byte	.LASF127
 2095 09d9 12       		.byte	0x12
 2096 09da 8E       		.byte	0x8e
 2097 09db 15       		.byte	0x15
 2098 09dc DA070000 		.4byte	0x7da
 2099 09e0 05       		.byte	0x5
 2100 09e1 09       		.uleb128 0x9
 2101 09e2 C9080000 		.4byte	.LASF128
 2102 09e6 12       		.byte	0x12
 2103 09e7 92       		.byte	0x92
 2104 09e8 16       		.byte	0x16
 2105 09e9 28030000 		.4byte	0x328
 2106 09ed 08       		.byte	0x8
 2107 09ee 09       		.uleb128 0x9
 2108 09ef 78020000 		.4byte	.LASF129
 2109 09f3 12       		.byte	0x12
 2110 09f4 96       		.byte	0x96
 2111 09f5 16       		.byte	0x16
 2112 09f6 230A0000 		.4byte	0xa23
 2113 09fa 0C       		.byte	0xc
 2114 09fb 09       		.uleb128 0x9
 2115 09fc 54010000 		.4byte	.LASF130
 2116 0a00 12       		.byte	0x12
 2117 0a01 9A       		.byte	0x9a
 2118 0a02 15       		.byte	0x15
 2119 0a03 290A0000 		.4byte	0xa29
 2120 0a07 10       		.byte	0x10
 2121 0a08 09       		.uleb128 0x9
 2122 0a09 48020000 		.4byte	.LASF131
 2123 0a0d 12       		.byte	0x12
 2124 0a0e 9E       		.byte	0x9e
 2125 0a0f 15       		.byte	0x15
 2126 0a10 90090000 		.4byte	0x990
 2127 0a14 20       		.byte	0x20
 2128 0a15 09       		.uleb128 0x9
 2129 0a16 9D050000 		.4byte	.LASF132
 2130 0a1a 12       		.byte	0x12
 2131 0a1b A3       		.byte	0xa3
 2132 0a1c 19       		.byte	0x19
 2133 0a1d 390A0000 		.4byte	0xa39
 2134 0a21 24       		.byte	0x24
 2135 0a22 00       		.byte	0
 2136 0a23 0D       		.uleb128 0xd
 2137 0a24 04       		.byte	0x4
 2138 0a25 33030000 		.4byte	0x333
ARM GAS  /tmp/ccViN8cm.s 			page 39


 2139 0a29 19       		.uleb128 0x19
 2140 0a2a 33030000 		.4byte	0x333
 2141 0a2e 390A0000 		.4byte	0xa39
 2142 0a32 1A       		.uleb128 0x1a
 2143 0a33 38000000 		.4byte	0x38
 2144 0a37 0F       		.byte	0xf
 2145 0a38 00       		.byte	0
 2146 0a39 0D       		.uleb128 0xd
 2147 0a3a 04       		.byte	0x4
 2148 0a3b 84090000 		.4byte	0x984
 2149 0a3f 03       		.uleb128 0x3
 2150 0a40 E9010000 		.4byte	.LASF133
 2151 0a44 12       		.byte	0x12
 2152 0a45 A5       		.byte	0xa5
 2153 0a46 03       		.byte	0x3
 2154 0a47 B1090000 		.4byte	0x9b1
 2155 0a4b 16       		.uleb128 0x16
 2156 0a4c 10       		.byte	0x10
 2157 0a4d 12       		.byte	0x12
 2158 0a4e AA       		.byte	0xaa
 2159 0a4f 09       		.byte	0x9
 2160 0a50 890A0000 		.4byte	0xa89
 2161 0a54 09       		.uleb128 0x9
 2162 0a55 E7030000 		.4byte	.LASF32
 2163 0a59 12       		.byte	0x12
 2164 0a5a AB       		.byte	0xab
 2165 0a5b 0F       		.byte	0xf
 2166 0a5c 28030000 		.4byte	0x328
 2167 0a60 00       		.byte	0
 2168 0a61 09       		.uleb128 0x9
 2169 0a62 30050000 		.4byte	.LASF134
 2170 0a66 12       		.byte	0x12
 2171 0a67 AC       		.byte	0xac
 2172 0a68 0A       		.byte	0xa
 2173 0a69 8A0A0000 		.4byte	0xa8a
 2174 0a6d 04       		.byte	0x4
 2175 0a6e 09       		.uleb128 0x9
 2176 0a6f 46010000 		.4byte	.LASF135
 2177 0a73 12       		.byte	0x12
 2178 0a74 AD       		.byte	0xad
 2179 0a75 0A       		.byte	0xa
 2180 0a76 8A0A0000 		.4byte	0xa8a
 2181 0a7a 08       		.byte	0x8
 2182 0a7b 09       		.uleb128 0x9
 2183 0a7c 85050000 		.4byte	.LASF136
 2184 0a80 12       		.byte	0x12
 2185 0a81 AE       		.byte	0xae
 2186 0a82 0A       		.byte	0xa
 2187 0a83 8A0A0000 		.4byte	0xa8a
 2188 0a87 0C       		.byte	0xc
 2189 0a88 00       		.byte	0
 2190 0a89 1B       		.uleb128 0x1b
 2191 0a8a 0D       		.uleb128 0xd
 2192 0a8b 04       		.byte	0x4
 2193 0a8c 890A0000 		.4byte	0xa89
 2194 0a90 03       		.uleb128 0x3
 2195 0a91 58040000 		.4byte	.LASF137
ARM GAS  /tmp/ccViN8cm.s 			page 40


 2196 0a95 12       		.byte	0x12
 2197 0a96 AF       		.byte	0xaf
 2198 0a97 03       		.byte	0x3
 2199 0a98 4B0A0000 		.4byte	0xa4b
 2200 0a9c 05       		.uleb128 0x5
 2201 0a9d 900A0000 		.4byte	0xa90
 2202 0aa1 16       		.uleb128 0x16
 2203 0aa2 08       		.byte	0x8
 2204 0aa3 12       		.byte	0x12
 2205 0aa4 B4       		.byte	0xb4
 2206 0aa5 09       		.byte	0x9
 2207 0aa6 C50A0000 		.4byte	0xac5
 2208 0aaa 09       		.uleb128 0x9
 2209 0aab E7030000 		.4byte	.LASF32
 2210 0aaf 12       		.byte	0x12
 2211 0ab0 B5       		.byte	0xb5
 2212 0ab1 16       		.byte	0x16
 2213 0ab2 28030000 		.4byte	0x328
 2214 0ab6 00       		.byte	0
 2215 0ab7 09       		.uleb128 0x9
 2216 0ab8 D9080000 		.4byte	.LASF138
 2217 0abc 12       		.byte	0x12
 2218 0abd B6       		.byte	0xb6
 2219 0abe 1E       		.byte	0x1e
 2220 0abf C50A0000 		.4byte	0xac5
 2221 0ac3 04       		.byte	0x4
 2222 0ac4 00       		.byte	0
 2223 0ac5 0D       		.uleb128 0xd
 2224 0ac6 04       		.byte	0x4
 2225 0ac7 D10A0000 		.4byte	0xad1
 2226 0acb 0D       		.uleb128 0xd
 2227 0acc 04       		.byte	0x4
 2228 0acd 9C0A0000 		.4byte	0xa9c
 2229 0ad1 05       		.uleb128 0x5
 2230 0ad2 CB0A0000 		.4byte	0xacb
 2231 0ad6 03       		.uleb128 0x3
 2232 0ad7 86010000 		.4byte	.LASF139
 2233 0adb 12       		.byte	0x12
 2234 0adc B7       		.byte	0xb7
 2235 0add 03       		.byte	0x3
 2236 0ade A10A0000 		.4byte	0xaa1
 2237 0ae2 05       		.uleb128 0x5
 2238 0ae3 D60A0000 		.4byte	0xad6
 2239 0ae7 1C       		.uleb128 0x1c
 2240 0ae8 61020000 		.4byte	.LASF140
 2241 0aec 12       		.byte	0x12
 2242 0aed 2901     		.2byte	0x129
 2243 0aef 1A       		.byte	0x1a
 2244 0af0 3F0A0000 		.4byte	0xa3f
 2245 0af4 1D       		.uleb128 0x1d
 2246 0af5 0A020000 		.4byte	.LASF141
 2247 0af9 13       		.byte	0x13
 2248 0afa 19       		.byte	0x19
 2249 0afb 1D       		.byte	0x1d
 2250 0afc E20A0000 		.4byte	0xae2
 2251 0b00 1E       		.uleb128 0x1e
 2252 0b01 90070000 		.4byte	.LASF142
ARM GAS  /tmp/ccViN8cm.s 			page 41


 2253 0b05 01       		.byte	0x1
 2254 0b06 31       		.byte	0x31
 2255 0b07 0D       		.byte	0xd
 2256 0b08 DA070000 		.4byte	0x7da
 2257 0b0c 05       		.uleb128 0x5
 2258 0b0d 03       		.byte	0x3
 2259 0b0e 00000000 		.4byte	exit_flag
 2260 0b12 19       		.uleb128 0x19
 2261 0b13 F4000000 		.4byte	0xf4
 2262 0b17 220B0000 		.4byte	0xb22
 2263 0b1b 1A       		.uleb128 0x1a
 2264 0b1c 38000000 		.4byte	0x38
 2265 0b20 3D       		.byte	0x3d
 2266 0b21 00       		.byte	0
 2267 0b22 1E       		.uleb128 0x1e
 2268 0b23 69050000 		.4byte	.LASF143
 2269 0b27 01       		.byte	0x1
 2270 0b28 64       		.byte	0x64
 2271 0b29 08       		.byte	0x8
 2272 0b2a 120B0000 		.4byte	0xb12
 2273 0b2e 05       		.uleb128 0x5
 2274 0b2f 03       		.byte	0x3
 2275 0b30 00000000 		.4byte	waThread1
 2276 0b34 1E       		.uleb128 0x1e
 2277 0b35 28060000 		.4byte	.LASF144
 2278 0b39 01       		.byte	0x1
 2279 0b3a BA       		.byte	0xba
 2280 0b3b 19       		.byte	0x19
 2281 0b3c 9C0A0000 		.4byte	0xa9c
 2282 0b40 05       		.uleb128 0x5
 2283 0b41 03       		.byte	0x3
 2284 0b42 00000000 		.4byte	oslib_test_005_001
 2285 0b46 19       		.uleb128 0x19
 2286 0b47 D10A0000 		.4byte	0xad1
 2287 0b4b 560B0000 		.4byte	0xb56
 2288 0b4f 1A       		.uleb128 0x1a
 2289 0b50 38000000 		.4byte	0x38
 2290 0b54 01       		.byte	0x1
 2291 0b55 00       		.byte	0
 2292 0b56 05       		.uleb128 0x5
 2293 0b57 460B0000 		.4byte	0xb46
 2294 0b5b 1F       		.uleb128 0x1f
 2295 0b5c 41000000 		.4byte	.LASF145
 2296 0b60 01       		.byte	0x1
 2297 0b61 C8       		.byte	0xc8
 2298 0b62 1A       		.byte	0x1a
 2299 0b63 560B0000 		.4byte	0xb56
 2300 0b67 05       		.uleb128 0x5
 2301 0b68 03       		.byte	0x3
 2302 0b69 00000000 		.4byte	oslib_test_sequence_005_array
 2303 0b6d 20       		.uleb128 0x20
 2304 0b6e F40A0000 		.4byte	0xaf4
 2305 0b72 01       		.byte	0x1
 2306 0b73 D0       		.byte	0xd0
 2307 0b74 16       		.byte	0x16
 2308 0b75 05       		.uleb128 0x5
 2309 0b76 03       		.byte	0x3
ARM GAS  /tmp/ccViN8cm.s 			page 42


 2310 0b77 00000000 		.4byte	oslib_test_sequence_005
 2311 0b7b 21       		.uleb128 0x21
 2312 0b7c AE000000 		.4byte	.LASF147
 2313 0b80 01       		.byte	0x1
 2314 0b81 83       		.byte	0x83
 2315 0b82 0D       		.byte	0xd
 2316 0b83 00000000 		.4byte	.LFB411
 2317 0b87 8C010000 		.4byte	.LFE411-.LFB411
 2318 0b8b 01       		.uleb128 0x1
 2319 0b8c 9C       		.byte	0x9c
 2320 0b8d 580F0000 		.4byte	0xf58
 2321 0b91 22       		.uleb128 0x22
 2322 0b92 747000   		.ascii	"tp\000"
 2323 0b95 01       		.byte	0x1
 2324 0b96 84       		.byte	0x84
 2325 0b97 0D       		.byte	0xd
 2326 0b98 76050000 		.4byte	0x576
 2327 0b9c 04000000 		.4byte	.LLST11
 2328 0ba0 00000000 		.4byte	.LVUS11
 2329 0ba4 23       		.uleb128 0x23
 2330 0ba5 00000000 		.4byte	.Ldebug_ranges0+0
 2331 0ba9 F40B0000 		.4byte	0xbf4
 2332 0bad 24       		.uleb128 0x24
 2333 0bae 746400   		.ascii	"td\000"
 2334 0bb1 01       		.byte	0x1
 2335 0bb2 89       		.byte	0x89
 2336 0bb3 19       		.byte	0x19
 2337 0bb4 BC070000 		.4byte	0x7bc
 2338 0bb8 02       		.uleb128 0x2
 2339 0bb9 91       		.byte	0x91
 2340 0bba 58       		.sleb128 -40
 2341 0bbb 25       		.uleb128 0x25
 2342 0bbc 06130000 		.4byte	0x1306
 2343 0bc0 2C000000 		.4byte	.LBI24
 2344 0bc4 01       		.byte	.LVU89
 2345 0bc5 30000000 		.4byte	.Ldebug_ranges0+0x30
 2346 0bc9 01       		.byte	0x1
 2347 0bca 8D       		.byte	0x8d
 2348 0bcb 10       		.byte	0x10
 2349 0bcc E30B0000 		.4byte	0xbe3
 2350 0bd0 26       		.uleb128 0x26
 2351 0bd1 14130000 		.4byte	0x1314
 2352 0bd5 2C000000 		.4byte	.LBI26
 2353 0bd9 03       		.byte	.LVU91
 2354 0bda 50000000 		.4byte	.Ldebug_ranges0+0x50
 2355 0bde 02       		.byte	0x2
 2356 0bdf 6401     		.2byte	0x164
 2357 0be1 0A       		.byte	0xa
 2358 0be2 00       		.byte	0
 2359 0be3 27       		.uleb128 0x27
 2360 0be4 30000000 		.4byte	.LVL24
 2361 0be8 22130000 		.4byte	0x1322
 2362 0bec 28       		.uleb128 0x28
 2363 0bed 01       		.uleb128 0x1
 2364 0bee 50       		.byte	0x50
 2365 0bef 02       		.uleb128 0x2
 2366 0bf0 91       		.byte	0x91
ARM GAS  /tmp/ccViN8cm.s 			page 43


 2367 0bf1 58       		.sleb128 -40
 2368 0bf2 00       		.byte	0
 2369 0bf3 00       		.byte	0
 2370 0bf4 23       		.uleb128 0x23
 2371 0bf5 68000000 		.4byte	.Ldebug_ranges0+0x68
 2372 0bf9 160F0000 		.4byte	0xf16
 2373 0bfd 29       		.uleb128 0x29
 2374 0bfe 5A020000 		.4byte	.LASF146
 2375 0c02 01       		.byte	0x1
 2376 0c03 99       		.byte	0x99
 2377 0c04 09       		.byte	0x9
 2378 0c05 25000000 		.4byte	0x25
 2379 0c09 3A000000 		.4byte	.LLST12
 2380 0c0d 22000000 		.4byte	.LVUS12
 2381 0c11 25       		.uleb128 0x25
 2382 0c12 DD120000 		.4byte	0x12dd
 2383 0c16 3A000000 		.4byte	.LBI38
 2384 0c1a 06       		.byte	.LVU105
 2385 0c1b 88000000 		.4byte	.Ldebug_ranges0+0x88
 2386 0c1f 01       		.byte	0x1
 2387 0c20 9B       		.byte	0x9b
 2388 0c21 0E       		.byte	0xe
 2389 0c22 520C0000 		.4byte	0xc52
 2390 0c26 2A       		.uleb128 0x2a
 2391 0c27 F9120000 		.4byte	0x12f9
 2392 0c2b 2B       		.uleb128 0x2b
 2393 0c2c EE120000 		.4byte	0x12ee
 2394 0c30 DE000000 		.4byte	.LLST13
 2395 0c34 DA000000 		.4byte	.LVUS13
 2396 0c38 27       		.uleb128 0x27
 2397 0c39 3E000000 		.4byte	.LVL26
 2398 0c3d 2F130000 		.4byte	0x132f
 2399 0c41 28       		.uleb128 0x28
 2400 0c42 01       		.uleb128 0x1
 2401 0c43 50       		.byte	0x50
 2402 0c44 02       		.uleb128 0x2
 2403 0c45 75       		.byte	0x75
 2404 0c46 00       		.sleb128 0
 2405 0c47 28       		.uleb128 0x28
 2406 0c48 01       		.uleb128 0x1
 2407 0c49 52       		.byte	0x52
 2408 0c4a 05       		.uleb128 0x5
 2409 0c4b 03       		.byte	0x3
 2410 0c4c 00000000 		.4byte	dis_func0
 2411 0c50 00       		.byte	0
 2412 0c51 00       		.byte	0
 2413 0c52 2C       		.uleb128 0x2c
 2414 0c53 A9120000 		.4byte	0x12a9
 2415 0c57 56000000 		.4byte	.LBI42
 2416 0c5b 02       		.byte	.LVU116
 2417 0c5c 56000000 		.4byte	.LBB42
 2418 0c60 0C000000 		.4byte	.LBE42-.LBB42
 2419 0c64 01       		.byte	0x1
 2420 0c65 9E       		.byte	0x9e
 2421 0c66 0E       		.byte	0xe
 2422 0c67 AA0C0000 		.4byte	0xcaa
 2423 0c6b 2B       		.uleb128 0x2b
ARM GAS  /tmp/ccViN8cm.s 			page 44


 2424 0c6c D1120000 		.4byte	0x12d1
 2425 0c70 FE000000 		.4byte	.LLST14
 2426 0c74 FC000000 		.4byte	.LVUS14
 2427 0c78 2A       		.uleb128 0x2a
 2428 0c79 C5120000 		.4byte	0x12c5
 2429 0c7d 2B       		.uleb128 0x2b
 2430 0c7e BA120000 		.4byte	0x12ba
 2431 0c82 15010000 		.4byte	.LLST15
 2432 0c86 13010000 		.4byte	.LVUS15
 2433 0c8a 27       		.uleb128 0x27
 2434 0c8b 62000000 		.4byte	.LVL31
 2435 0c8f 2F130000 		.4byte	0x132f
 2436 0c93 28       		.uleb128 0x28
 2437 0c94 01       		.uleb128 0x1
 2438 0c95 50       		.byte	0x50
 2439 0c96 02       		.uleb128 0x2
 2440 0c97 75       		.byte	0x75
 2441 0c98 00       		.sleb128 0
 2442 0c99 28       		.uleb128 0x28
 2443 0c9a 01       		.uleb128 0x1
 2444 0c9b 52       		.byte	0x52
 2445 0c9c 05       		.uleb128 0x5
 2446 0c9d 03       		.byte	0x3
 2447 0c9e 00000000 		.4byte	dis_func1
 2448 0ca2 28       		.uleb128 0x28
 2449 0ca3 01       		.uleb128 0x1
 2450 0ca4 53       		.byte	0x53
 2451 0ca5 02       		.uleb128 0x2
 2452 0ca6 08       		.byte	0x8
 2453 0ca7 41       		.byte	0x41
 2454 0ca8 00       		.byte	0
 2455 0ca9 00       		.byte	0
 2456 0caa 2C       		.uleb128 0x2c
 2457 0cab 6A120000 		.4byte	0x126a
 2458 0caf 76000000 		.4byte	.LBI44
 2459 0cb3 02       		.byte	.LVU125
 2460 0cb4 76000000 		.4byte	.LBB44
 2461 0cb8 10000000 		.4byte	.LBE44-.LBB44
 2462 0cbc 01       		.byte	0x1
 2463 0cbd A1       		.byte	0xa1
 2464 0cbe 0E       		.byte	0xe
 2465 0cbf 160D0000 		.4byte	0xd16
 2466 0cc3 2B       		.uleb128 0x2b
 2467 0cc4 9D120000 		.4byte	0x129d
 2468 0cc8 2A010000 		.4byte	.LLST16
 2469 0ccc 28010000 		.4byte	.LVUS16
 2470 0cd0 2B       		.uleb128 0x2b
 2471 0cd1 92120000 		.4byte	0x1292
 2472 0cd5 41010000 		.4byte	.LLST17
 2473 0cd9 3F010000 		.4byte	.LVUS17
 2474 0cdd 2A       		.uleb128 0x2a
 2475 0cde 86120000 		.4byte	0x1286
 2476 0ce2 2B       		.uleb128 0x2b
 2477 0ce3 7B120000 		.4byte	0x127b
 2478 0ce7 58010000 		.4byte	.LLST18
 2479 0ceb 56010000 		.4byte	.LVUS18
 2480 0cef 27       		.uleb128 0x27
ARM GAS  /tmp/ccViN8cm.s 			page 45


 2481 0cf0 86000000 		.4byte	.LVL36
 2482 0cf4 2F130000 		.4byte	0x132f
 2483 0cf8 28       		.uleb128 0x28
 2484 0cf9 01       		.uleb128 0x1
 2485 0cfa 50       		.byte	0x50
 2486 0cfb 02       		.uleb128 0x2
 2487 0cfc 75       		.byte	0x75
 2488 0cfd 00       		.sleb128 0
 2489 0cfe 28       		.uleb128 0x28
 2490 0cff 01       		.uleb128 0x1
 2491 0d00 52       		.byte	0x52
 2492 0d01 05       		.uleb128 0x5
 2493 0d02 03       		.byte	0x3
 2494 0d03 00000000 		.4byte	dis_func2
 2495 0d07 28       		.uleb128 0x28
 2496 0d08 01       		.uleb128 0x1
 2497 0d09 53       		.byte	0x53
 2498 0d0a 02       		.uleb128 0x2
 2499 0d0b 08       		.byte	0x8
 2500 0d0c 42       		.byte	0x42
 2501 0d0d 28       		.uleb128 0x28
 2502 0d0e 02       		.uleb128 0x2
 2503 0d0f 7D       		.byte	0x7d
 2504 0d10 00       		.sleb128 0
 2505 0d11 02       		.uleb128 0x2
 2506 0d12 08       		.byte	0x8
 2507 0d13 43       		.byte	0x43
 2508 0d14 00       		.byte	0
 2509 0d15 00       		.byte	0
 2510 0d16 2C       		.uleb128 0x2c
 2511 0d17 20120000 		.4byte	0x1220
 2512 0d1b 9A000000 		.4byte	.LBI46
 2513 0d1f 02       		.byte	.LVU134
 2514 0d20 9A000000 		.4byte	.LBB46
 2515 0d24 14000000 		.4byte	.LBE46-.LBB46
 2516 0d28 01       		.byte	0x1
 2517 0d29 A4       		.byte	0xa4
 2518 0d2a 0E       		.byte	0xe
 2519 0d2b 960D0000 		.4byte	0xd96
 2520 0d2f 2B       		.uleb128 0x2b
 2521 0d30 5E120000 		.4byte	0x125e
 2522 0d34 6D010000 		.4byte	.LLST19
 2523 0d38 6B010000 		.4byte	.LVUS19
 2524 0d3c 2B       		.uleb128 0x2b
 2525 0d3d 53120000 		.4byte	0x1253
 2526 0d41 84010000 		.4byte	.LLST20
 2527 0d45 82010000 		.4byte	.LVUS20
 2528 0d49 2B       		.uleb128 0x2b
 2529 0d4a 48120000 		.4byte	0x1248
 2530 0d4e 9B010000 		.4byte	.LLST21
 2531 0d52 99010000 		.4byte	.LVUS21
 2532 0d56 2A       		.uleb128 0x2a
 2533 0d57 3C120000 		.4byte	0x123c
 2534 0d5b 2B       		.uleb128 0x2b
 2535 0d5c 31120000 		.4byte	0x1231
 2536 0d60 B2010000 		.4byte	.LLST22
 2537 0d64 B0010000 		.4byte	.LVUS22
ARM GAS  /tmp/ccViN8cm.s 			page 46


 2538 0d68 27       		.uleb128 0x27
 2539 0d69 AE000000 		.4byte	.LVL41
 2540 0d6d 2F130000 		.4byte	0x132f
 2541 0d71 28       		.uleb128 0x28
 2542 0d72 01       		.uleb128 0x1
 2543 0d73 50       		.byte	0x50
 2544 0d74 02       		.uleb128 0x2
 2545 0d75 75       		.byte	0x75
 2546 0d76 00       		.sleb128 0
 2547 0d77 28       		.uleb128 0x28
 2548 0d78 01       		.uleb128 0x1
 2549 0d79 52       		.byte	0x52
 2550 0d7a 05       		.uleb128 0x5
 2551 0d7b 03       		.byte	0x3
 2552 0d7c 00000000 		.4byte	dis_func3
 2553 0d80 28       		.uleb128 0x28
 2554 0d81 01       		.uleb128 0x1
 2555 0d82 53       		.byte	0x53
 2556 0d83 02       		.uleb128 0x2
 2557 0d84 08       		.byte	0x8
 2558 0d85 44       		.byte	0x44
 2559 0d86 28       		.uleb128 0x28
 2560 0d87 02       		.uleb128 0x2
 2561 0d88 7D       		.byte	0x7d
 2562 0d89 00       		.sleb128 0
 2563 0d8a 02       		.uleb128 0x2
 2564 0d8b 08       		.byte	0x8
 2565 0d8c 45       		.byte	0x45
 2566 0d8d 28       		.uleb128 0x28
 2567 0d8e 02       		.uleb128 0x2
 2568 0d8f 7D       		.byte	0x7d
 2569 0d90 04       		.sleb128 4
 2570 0d91 02       		.uleb128 0x2
 2571 0d92 08       		.byte	0x8
 2572 0d93 46       		.byte	0x46
 2573 0d94 00       		.byte	0
 2574 0d95 00       		.byte	0
 2575 0d96 2C       		.uleb128 0x2c
 2576 0d97 CB110000 		.4byte	0x11cb
 2577 0d9b C2000000 		.4byte	.LBI48
 2578 0d9f 02       		.byte	.LVU143
 2579 0da0 C2000000 		.4byte	.LBB48
 2580 0da4 18000000 		.4byte	.LBE48-.LBB48
 2581 0da8 01       		.byte	0x1
 2582 0da9 A7       		.byte	0xa7
 2583 0daa 0E       		.byte	0xe
 2584 0dab 2A0E0000 		.4byte	0xe2a
 2585 0daf 2B       		.uleb128 0x2b
 2586 0db0 14120000 		.4byte	0x1214
 2587 0db4 C7010000 		.4byte	.LLST23
 2588 0db8 C5010000 		.4byte	.LVUS23
 2589 0dbc 2B       		.uleb128 0x2b
 2590 0dbd 09120000 		.4byte	0x1209
 2591 0dc1 DE010000 		.4byte	.LLST24
 2592 0dc5 DC010000 		.4byte	.LVUS24
 2593 0dc9 2B       		.uleb128 0x2b
 2594 0dca FE110000 		.4byte	0x11fe
ARM GAS  /tmp/ccViN8cm.s 			page 47


 2595 0dce F5010000 		.4byte	.LLST25
 2596 0dd2 F3010000 		.4byte	.LVUS25
 2597 0dd6 2B       		.uleb128 0x2b
 2598 0dd7 F3110000 		.4byte	0x11f3
 2599 0ddb 0C020000 		.4byte	.LLST26
 2600 0ddf 0A020000 		.4byte	.LVUS26
 2601 0de3 2A       		.uleb128 0x2a
 2602 0de4 E7110000 		.4byte	0x11e7
 2603 0de8 2B       		.uleb128 0x2b
 2604 0de9 DC110000 		.4byte	0x11dc
 2605 0ded 23020000 		.4byte	.LLST27
 2606 0df1 21020000 		.4byte	.LVUS27
 2607 0df5 27       		.uleb128 0x27
 2608 0df6 DA000000 		.4byte	.LVL46
 2609 0dfa 2F130000 		.4byte	0x132f
 2610 0dfe 28       		.uleb128 0x28
 2611 0dff 01       		.uleb128 0x1
 2612 0e00 50       		.byte	0x50
 2613 0e01 02       		.uleb128 0x2
 2614 0e02 75       		.byte	0x75
 2615 0e03 00       		.sleb128 0
 2616 0e04 28       		.uleb128 0x28
 2617 0e05 01       		.uleb128 0x1
 2618 0e06 52       		.byte	0x52
 2619 0e07 05       		.uleb128 0x5
 2620 0e08 03       		.byte	0x3
 2621 0e09 00000000 		.4byte	dis_func4
 2622 0e0d 28       		.uleb128 0x28
 2623 0e0e 01       		.uleb128 0x1
 2624 0e0f 53       		.byte	0x53
 2625 0e10 02       		.uleb128 0x2
 2626 0e11 08       		.byte	0x8
 2627 0e12 47       		.byte	0x47
 2628 0e13 28       		.uleb128 0x28
 2629 0e14 02       		.uleb128 0x2
 2630 0e15 7D       		.byte	0x7d
 2631 0e16 00       		.sleb128 0
 2632 0e17 02       		.uleb128 0x2
 2633 0e18 08       		.byte	0x8
 2634 0e19 48       		.byte	0x48
 2635 0e1a 28       		.uleb128 0x28
 2636 0e1b 02       		.uleb128 0x2
 2637 0e1c 7D       		.byte	0x7d
 2638 0e1d 04       		.sleb128 4
 2639 0e1e 02       		.uleb128 0x2
 2640 0e1f 08       		.byte	0x8
 2641 0e20 49       		.byte	0x49
 2642 0e21 28       		.uleb128 0x28
 2643 0e22 02       		.uleb128 0x2
 2644 0e23 7D       		.byte	0x7d
 2645 0e24 08       		.sleb128 8
 2646 0e25 02       		.uleb128 0x2
 2647 0e26 08       		.byte	0x8
 2648 0e27 4A       		.byte	0x4a
 2649 0e28 00       		.byte	0
 2650 0e29 00       		.byte	0
 2651 0e2a 2C       		.uleb128 0x2c
ARM GAS  /tmp/ccViN8cm.s 			page 48


 2652 0e2b DD120000 		.4byte	0x12dd
 2653 0e2f EE000000 		.4byte	.LBI50
 2654 0e33 02       		.byte	.LVU152
 2655 0e34 EE000000 		.4byte	.LBB50
 2656 0e38 0A000000 		.4byte	.LBE50-.LBB50
 2657 0e3c 01       		.byte	0x1
 2658 0e3d AA       		.byte	0xaa
 2659 0e3e 0E       		.byte	0xe
 2660 0e3f 6F0E0000 		.4byte	0xe6f
 2661 0e43 2A       		.uleb128 0x2a
 2662 0e44 F9120000 		.4byte	0x12f9
 2663 0e48 2B       		.uleb128 0x2b
 2664 0e49 EE120000 		.4byte	0x12ee
 2665 0e4d 38020000 		.4byte	.LLST28
 2666 0e51 36020000 		.4byte	.LVUS28
 2667 0e55 27       		.uleb128 0x27
 2668 0e56 F8000000 		.4byte	.LVL51
 2669 0e5a 2F130000 		.4byte	0x132f
 2670 0e5e 28       		.uleb128 0x28
 2671 0e5f 01       		.uleb128 0x1
 2672 0e60 50       		.byte	0x50
 2673 0e61 02       		.uleb128 0x2
 2674 0e62 75       		.byte	0x75
 2675 0e63 00       		.sleb128 0
 2676 0e64 28       		.uleb128 0x28
 2677 0e65 01       		.uleb128 0x1
 2678 0e66 52       		.byte	0x52
 2679 0e67 05       		.uleb128 0x5
 2680 0e68 03       		.byte	0x3
 2681 0e69 00000000 		.4byte	dis_func_end
 2682 0e6d 00       		.byte	0
 2683 0e6e 00       		.byte	0
 2684 0e6f 2D       		.uleb128 0x2d
 2685 0e70 50000000 		.4byte	.LVL29
 2686 0e74 3B130000 		.4byte	0x133b
 2687 0e78 860E0000 		.4byte	0xe86
 2688 0e7c 28       		.uleb128 0x28
 2689 0e7d 01       		.uleb128 0x1
 2690 0e7e 51       		.byte	0x51
 2691 0e7f 05       		.uleb128 0x5
 2692 0e80 03       		.byte	0x3
 2693 0e81 0C000000 		.4byte	.LC1
 2694 0e85 00       		.byte	0
 2695 0e86 2D       		.uleb128 0x2d
 2696 0e87 72000000 		.4byte	.LVL34
 2697 0e8b 3B130000 		.4byte	0x133b
 2698 0e8f 9D0E0000 		.4byte	0xe9d
 2699 0e93 28       		.uleb128 0x28
 2700 0e94 01       		.uleb128 0x1
 2701 0e95 51       		.byte	0x51
 2702 0e96 05       		.uleb128 0x5
 2703 0e97 03       		.byte	0x3
 2704 0e98 0C000000 		.4byte	.LC1
 2705 0e9c 00       		.byte	0
 2706 0e9d 2D       		.uleb128 0x2d
 2707 0e9e 96000000 		.4byte	.LVL39
 2708 0ea2 3B130000 		.4byte	0x133b
ARM GAS  /tmp/ccViN8cm.s 			page 49


 2709 0ea6 B40E0000 		.4byte	0xeb4
 2710 0eaa 28       		.uleb128 0x28
 2711 0eab 01       		.uleb128 0x1
 2712 0eac 51       		.byte	0x51
 2713 0ead 05       		.uleb128 0x5
 2714 0eae 03       		.byte	0x3
 2715 0eaf 0C000000 		.4byte	.LC1
 2716 0eb3 00       		.byte	0
 2717 0eb4 2D       		.uleb128 0x2d
 2718 0eb5 BE000000 		.4byte	.LVL44
 2719 0eb9 3B130000 		.4byte	0x133b
 2720 0ebd CB0E0000 		.4byte	0xecb
 2721 0ec1 28       		.uleb128 0x28
 2722 0ec2 01       		.uleb128 0x1
 2723 0ec3 51       		.byte	0x51
 2724 0ec4 05       		.uleb128 0x5
 2725 0ec5 03       		.byte	0x3
 2726 0ec6 0C000000 		.4byte	.LC1
 2727 0eca 00       		.byte	0
 2728 0ecb 2D       		.uleb128 0x2d
 2729 0ecc EA000000 		.4byte	.LVL49
 2730 0ed0 3B130000 		.4byte	0x133b
 2731 0ed4 E20E0000 		.4byte	0xee2
 2732 0ed8 28       		.uleb128 0x28
 2733 0ed9 01       		.uleb128 0x1
 2734 0eda 51       		.byte	0x51
 2735 0edb 05       		.uleb128 0x5
 2736 0edc 03       		.byte	0x3
 2737 0edd 0C000000 		.4byte	.LC1
 2738 0ee1 00       		.byte	0
 2739 0ee2 2D       		.uleb128 0x2d
 2740 0ee3 0A010000 		.4byte	.LVL54
 2741 0ee7 3B130000 		.4byte	0x133b
 2742 0eeb F90E0000 		.4byte	0xef9
 2743 0eef 28       		.uleb128 0x28
 2744 0ef0 01       		.uleb128 0x1
 2745 0ef1 51       		.byte	0x51
 2746 0ef2 05       		.uleb128 0x5
 2747 0ef3 03       		.byte	0x3
 2748 0ef4 0C000000 		.4byte	.LC1
 2749 0ef8 00       		.byte	0
 2750 0ef9 27       		.uleb128 0x27
 2751 0efa 16010000 		.4byte	.LVL55
 2752 0efe 48130000 		.4byte	0x1348
 2753 0f02 28       		.uleb128 0x28
 2754 0f03 01       		.uleb128 0x1
 2755 0f04 50       		.byte	0x50
 2756 0f05 05       		.uleb128 0x5
 2757 0f06 03       		.byte	0x3
 2758 0f07 38000000 		.4byte	.LC3
 2759 0f0b 28       		.uleb128 0x28
 2760 0f0c 01       		.uleb128 0x1
 2761 0f0d 51       		.byte	0x51
 2762 0f0e 05       		.uleb128 0x5
 2763 0f0f 03       		.byte	0x3
 2764 0f10 24000000 		.4byte	.LC2
 2765 0f14 00       		.byte	0
ARM GAS  /tmp/ccViN8cm.s 			page 50


 2766 0f15 00       		.byte	0
 2767 0f16 2E       		.uleb128 0x2e
 2768 0f17 A0000000 		.4byte	.Ldebug_ranges0+0xa0
 2769 0f1b 22       		.uleb128 0x22
 2770 0f1c 6D736700 		.ascii	"msg\000"
 2771 0f20 01       		.byte	0x1
 2772 0f21 B4       		.byte	0xb4
 2773 0f22 0B       		.byte	0xb
 2774 0f23 30010000 		.4byte	0x130
 2775 0f27 4F020000 		.4byte	.LLST29
 2776 0f2b 4B020000 		.4byte	.LVUS29
 2777 0f2f 2D       		.uleb128 0x2d
 2778 0f30 24010000 		.4byte	.LVL56
 2779 0f34 55130000 		.4byte	0x1355
 2780 0f38 430F0000 		.4byte	0xf43
 2781 0f3c 28       		.uleb128 0x28
 2782 0f3d 01       		.uleb128 0x1
 2783 0f3e 50       		.byte	0x50
 2784 0f3f 02       		.uleb128 0x2
 2785 0f40 75       		.byte	0x75
 2786 0f41 00       		.sleb128 0
 2787 0f42 00       		.byte	0
 2788 0f43 2F       		.uleb128 0x2f
 2789 0f44 3C010000 		.4byte	.LVL60
 2790 0f48 3B130000 		.4byte	0x133b
 2791 0f4c 28       		.uleb128 0x28
 2792 0f4d 01       		.uleb128 0x1
 2793 0f4e 51       		.byte	0x51
 2794 0f4f 05       		.uleb128 0x5
 2795 0f50 03       		.byte	0x3
 2796 0f51 48000000 		.4byte	.LC4
 2797 0f55 00       		.byte	0
 2798 0f56 00       		.byte	0
 2799 0f57 00       		.byte	0
 2800 0f58 21       		.uleb128 0x21
 2801 0f59 C5070000 		.4byte	.LASF148
 2802 0f5d 01       		.byte	0x1
 2803 0f5e 65       		.byte	0x65
 2804 0f5f 08       		.byte	0x8
 2805 0f60 00000000 		.4byte	.LFB410
 2806 0f64 24000000 		.4byte	.LFE410-.LFB410
 2807 0f68 01       		.uleb128 0x1
 2808 0f69 9C       		.byte	0x9c
 2809 0f6a 9D0F0000 		.4byte	0xf9d
 2810 0f6e 30       		.uleb128 0x30
 2811 0f6f 61726700 		.ascii	"arg\000"
 2812 0f73 01       		.byte	0x1
 2813 0f74 65       		.byte	0x65
 2814 0f75 08       		.byte	0x8
 2815 0f76 00050000 		.4byte	0x500
 2816 0f7a 74020000 		.4byte	.LLST10
 2817 0f7e 70020000 		.4byte	.LVUS10
 2818 0f82 31       		.uleb128 0x31
 2819 0f83 0C000000 		.4byte	.LVL22
 2820 0f87 62130000 		.4byte	0x1362
 2821 0f8b 2F       		.uleb128 0x2f
 2822 0f8c 1E000000 		.4byte	.LVL23
ARM GAS  /tmp/ccViN8cm.s 			page 51


 2823 0f90 6E130000 		.4byte	0x136e
 2824 0f94 28       		.uleb128 0x28
 2825 0f95 01       		.uleb128 0x1
 2826 0f96 50       		.byte	0x50
 2827 0f97 03       		.uleb128 0x3
 2828 0f98 0A       		.byte	0xa
 2829 0f99 A50F     		.2byte	0xfa5
 2830 0f9b 00       		.byte	0
 2831 0f9c 00       		.byte	0
 2832 0f9d 32       		.uleb128 0x32
 2833 0f9e 1A000000 		.4byte	.LASF149
 2834 0fa2 01       		.byte	0x1
 2835 0fa3 5C       		.byte	0x5c
 2836 0fa4 0C       		.byte	0xc
 2837 0fa5 25000000 		.4byte	0x25
 2838 0fa9 00000000 		.4byte	.LFB409
 2839 0fad 18000000 		.4byte	.LFE409-.LFB409
 2840 0fb1 01       		.uleb128 0x1
 2841 0fb2 9C       		.byte	0x9c
 2842 0fb3 C80F0000 		.4byte	0xfc8
 2843 0fb7 27       		.uleb128 0x27
 2844 0fb8 08000000 		.4byte	.LVL0
 2845 0fbc 7B130000 		.4byte	0x137b
 2846 0fc0 28       		.uleb128 0x28
 2847 0fc1 01       		.uleb128 0x1
 2848 0fc2 50       		.byte	0x50
 2849 0fc3 02       		.uleb128 0x2
 2850 0fc4 08       		.byte	0x8
 2851 0fc5 5A       		.byte	0x5a
 2852 0fc6 00       		.byte	0
 2853 0fc7 00       		.byte	0
 2854 0fc8 32       		.uleb128 0x32
 2855 0fc9 19040000 		.4byte	.LASF150
 2856 0fcd 01       		.byte	0x1
 2857 0fce 52       		.byte	0x52
 2858 0fcf 0E       		.byte	0xe
 2859 0fd0 30010000 		.4byte	0x130
 2860 0fd4 00000000 		.4byte	.LFB408
 2861 0fd8 26000000 		.4byte	.LFE408-.LFB408
 2862 0fdc 01       		.uleb128 0x1
 2863 0fdd 9C       		.byte	0x9c
 2864 0fde 77100000 		.4byte	0x1077
 2865 0fe2 30       		.uleb128 0x30
 2866 0fe3 6100     		.ascii	"a\000"
 2867 0fe5 01       		.byte	0x1
 2868 0fe6 52       		.byte	0x52
 2869 0fe7 1E       		.byte	0x1e
 2870 0fe8 30010000 		.4byte	0x130
 2871 0fec 99020000 		.4byte	.LLST0
 2872 0ff0 95020000 		.4byte	.LVUS0
 2873 0ff4 30       		.uleb128 0x30
 2874 0ff5 6200     		.ascii	"b\000"
 2875 0ff7 01       		.byte	0x1
 2876 0ff8 52       		.byte	0x52
 2877 0ff9 27       		.byte	0x27
 2878 0ffa 30010000 		.4byte	0x130
 2879 0ffe BB020000 		.4byte	.LLST1
ARM GAS  /tmp/ccViN8cm.s 			page 52


 2880 1002 B7020000 		.4byte	.LVUS1
 2881 1006 30       		.uleb128 0x30
 2882 1007 6300     		.ascii	"c\000"
 2883 1009 01       		.byte	0x1
 2884 100a 52       		.byte	0x52
 2885 100b 30       		.byte	0x30
 2886 100c 30010000 		.4byte	0x130
 2887 1010 DD020000 		.4byte	.LLST2
 2888 1014 D9020000 		.4byte	.LVUS2
 2889 1018 30       		.uleb128 0x30
 2890 1019 6400     		.ascii	"d\000"
 2891 101b 01       		.byte	0x1
 2892 101c 52       		.byte	0x52
 2893 101d 39       		.byte	0x39
 2894 101e 30010000 		.4byte	0x130
 2895 1022 FF020000 		.4byte	.LLST3
 2896 1026 FB020000 		.4byte	.LVUS3
 2897 102a 2D       		.uleb128 0x2d
 2898 102b 10000000 		.4byte	.LVL3
 2899 102f 7B130000 		.4byte	0x137b
 2900 1033 3E100000 		.4byte	0x103e
 2901 1037 28       		.uleb128 0x28
 2902 1038 01       		.uleb128 0x1
 2903 1039 50       		.byte	0x50
 2904 103a 02       		.uleb128 0x2
 2905 103b 74       		.byte	0x74
 2906 103c 00       		.sleb128 0
 2907 103d 00       		.byte	0
 2908 103e 2D       		.uleb128 0x2d
 2909 103f 16000000 		.4byte	.LVL4
 2910 1043 7B130000 		.4byte	0x137b
 2911 1047 52100000 		.4byte	0x1052
 2912 104b 28       		.uleb128 0x28
 2913 104c 01       		.uleb128 0x1
 2914 104d 50       		.byte	0x50
 2915 104e 02       		.uleb128 0x2
 2916 104f 77       		.byte	0x77
 2917 1050 00       		.sleb128 0
 2918 1051 00       		.byte	0
 2919 1052 2D       		.uleb128 0x2d
 2920 1053 1C000000 		.4byte	.LVL5
 2921 1057 7B130000 		.4byte	0x137b
 2922 105b 66100000 		.4byte	0x1066
 2923 105f 28       		.uleb128 0x28
 2924 1060 01       		.uleb128 0x1
 2925 1061 50       		.byte	0x50
 2926 1062 02       		.uleb128 0x2
 2927 1063 76       		.byte	0x76
 2928 1064 00       		.sleb128 0
 2929 1065 00       		.byte	0
 2930 1066 27       		.uleb128 0x27
 2931 1067 22000000 		.4byte	.LVL6
 2932 106b 7B130000 		.4byte	0x137b
 2933 106f 28       		.uleb128 0x28
 2934 1070 01       		.uleb128 0x1
 2935 1071 50       		.byte	0x50
 2936 1072 02       		.uleb128 0x2
ARM GAS  /tmp/ccViN8cm.s 			page 53


 2937 1073 75       		.byte	0x75
 2938 1074 00       		.sleb128 0
 2939 1075 00       		.byte	0
 2940 1076 00       		.byte	0
 2941 1077 32       		.uleb128 0x32
 2942 1078 0F040000 		.4byte	.LASF151
 2943 107c 01       		.byte	0x1
 2944 107d 49       		.byte	0x49
 2945 107e 0E       		.byte	0xe
 2946 107f 30010000 		.4byte	0x130
 2947 1083 00000000 		.4byte	.LFB407
 2948 1087 1E000000 		.4byte	.LFE407-.LFB407
 2949 108b 01       		.uleb128 0x1
 2950 108c 9C       		.byte	0x9c
 2951 108d 00110000 		.4byte	0x1100
 2952 1091 30       		.uleb128 0x30
 2953 1092 6100     		.ascii	"a\000"
 2954 1094 01       		.byte	0x1
 2955 1095 49       		.byte	0x49
 2956 1096 1E       		.byte	0x1e
 2957 1097 30010000 		.4byte	0x130
 2958 109b 21030000 		.4byte	.LLST4
 2959 109f 1D030000 		.4byte	.LVUS4
 2960 10a3 30       		.uleb128 0x30
 2961 10a4 6200     		.ascii	"b\000"
 2962 10a6 01       		.byte	0x1
 2963 10a7 49       		.byte	0x49
 2964 10a8 27       		.byte	0x27
 2965 10a9 30010000 		.4byte	0x130
 2966 10ad 43030000 		.4byte	.LLST5
 2967 10b1 3F030000 		.4byte	.LVUS5
 2968 10b5 30       		.uleb128 0x30
 2969 10b6 6300     		.ascii	"c\000"
 2970 10b8 01       		.byte	0x1
 2971 10b9 49       		.byte	0x49
 2972 10ba 30       		.byte	0x30
 2973 10bb 30010000 		.4byte	0x130
 2974 10bf 65030000 		.4byte	.LLST6
 2975 10c3 61030000 		.4byte	.LVUS6
 2976 10c7 2D       		.uleb128 0x2d
 2977 10c8 0E000000 		.4byte	.LVL9
 2978 10cc 7B130000 		.4byte	0x137b
 2979 10d0 DB100000 		.4byte	0x10db
 2980 10d4 28       		.uleb128 0x28
 2981 10d5 01       		.uleb128 0x1
 2982 10d6 50       		.byte	0x50
 2983 10d7 02       		.uleb128 0x2
 2984 10d8 74       		.byte	0x74
 2985 10d9 00       		.sleb128 0
 2986 10da 00       		.byte	0
 2987 10db 2D       		.uleb128 0x2d
 2988 10dc 14000000 		.4byte	.LVL10
 2989 10e0 7B130000 		.4byte	0x137b
 2990 10e4 EF100000 		.4byte	0x10ef
 2991 10e8 28       		.uleb128 0x28
 2992 10e9 01       		.uleb128 0x1
 2993 10ea 50       		.byte	0x50
ARM GAS  /tmp/ccViN8cm.s 			page 54


 2994 10eb 02       		.uleb128 0x2
 2995 10ec 76       		.byte	0x76
 2996 10ed 00       		.sleb128 0
 2997 10ee 00       		.byte	0
 2998 10ef 27       		.uleb128 0x27
 2999 10f0 1A000000 		.4byte	.LVL11
 3000 10f4 7B130000 		.4byte	0x137b
 3001 10f8 28       		.uleb128 0x28
 3002 10f9 01       		.uleb128 0x1
 3003 10fa 50       		.byte	0x50
 3004 10fb 02       		.uleb128 0x2
 3005 10fc 75       		.byte	0x75
 3006 10fd 00       		.sleb128 0
 3007 10fe 00       		.byte	0
 3008 10ff 00       		.byte	0
 3009 1100 32       		.uleb128 0x32
 3010 1101 05040000 		.4byte	.LASF152
 3011 1105 01       		.byte	0x1
 3012 1106 41       		.byte	0x41
 3013 1107 0E       		.byte	0xe
 3014 1108 30010000 		.4byte	0x130
 3015 110c 00000000 		.4byte	.LFB406
 3016 1110 16000000 		.4byte	.LFE406-.LFB406
 3017 1114 01       		.uleb128 0x1
 3018 1115 9C       		.byte	0x9c
 3019 1116 63110000 		.4byte	0x1163
 3020 111a 30       		.uleb128 0x30
 3021 111b 6100     		.ascii	"a\000"
 3022 111d 01       		.byte	0x1
 3023 111e 41       		.byte	0x41
 3024 111f 1E       		.byte	0x1e
 3025 1120 30010000 		.4byte	0x130
 3026 1124 87030000 		.4byte	.LLST7
 3027 1128 83030000 		.4byte	.LVUS7
 3028 112c 30       		.uleb128 0x30
 3029 112d 6200     		.ascii	"b\000"
 3030 112f 01       		.byte	0x1
 3031 1130 41       		.byte	0x41
 3032 1131 27       		.byte	0x27
 3033 1132 30010000 		.4byte	0x130
 3034 1136 A9030000 		.4byte	.LLST8
 3035 113a A5030000 		.4byte	.LVUS8
 3036 113e 2D       		.uleb128 0x2d
 3037 113f 0C000000 		.4byte	.LVL14
 3038 1143 7B130000 		.4byte	0x137b
 3039 1147 52110000 		.4byte	0x1152
 3040 114b 28       		.uleb128 0x28
 3041 114c 01       		.uleb128 0x1
 3042 114d 50       		.byte	0x50
 3043 114e 02       		.uleb128 0x2
 3044 114f 74       		.byte	0x74
 3045 1150 00       		.sleb128 0
 3046 1151 00       		.byte	0
 3047 1152 27       		.uleb128 0x27
 3048 1153 12000000 		.4byte	.LVL15
 3049 1157 7B130000 		.4byte	0x137b
 3050 115b 28       		.uleb128 0x28
ARM GAS  /tmp/ccViN8cm.s 			page 55


 3051 115c 01       		.uleb128 0x1
 3052 115d 50       		.byte	0x50
 3053 115e 02       		.uleb128 0x2
 3054 115f 75       		.byte	0x75
 3055 1160 00       		.sleb128 0
 3056 1161 00       		.byte	0
 3057 1162 00       		.byte	0
 3058 1163 32       		.uleb128 0x32
 3059 1164 FB030000 		.4byte	.LASF153
 3060 1168 01       		.byte	0x1
 3061 1169 3A       		.byte	0x3a
 3062 116a 0E       		.byte	0xe
 3063 116b 30010000 		.4byte	0x130
 3064 116f 00000000 		.4byte	.LFB405
 3065 1173 0E000000 		.4byte	.LFE405-.LFB405
 3066 1177 01       		.uleb128 0x1
 3067 1178 9C       		.byte	0x9c
 3068 1179 A0110000 		.4byte	0x11a0
 3069 117d 30       		.uleb128 0x30
 3070 117e 6100     		.ascii	"a\000"
 3071 1180 01       		.byte	0x1
 3072 1181 3A       		.byte	0x3a
 3073 1182 1E       		.byte	0x1e
 3074 1183 30010000 		.4byte	0x130
 3075 1187 CB030000 		.4byte	.LLST9
 3076 118b C7030000 		.4byte	.LVUS9
 3077 118f 27       		.uleb128 0x27
 3078 1190 0A000000 		.4byte	.LVL18
 3079 1194 7B130000 		.4byte	0x137b
 3080 1198 28       		.uleb128 0x28
 3081 1199 01       		.uleb128 0x1
 3082 119a 50       		.byte	0x50
 3083 119b 02       		.uleb128 0x2
 3084 119c 74       		.byte	0x74
 3085 119d 00       		.sleb128 0
 3086 119e 00       		.byte	0
 3087 119f 00       		.byte	0
 3088 11a0 32       		.uleb128 0x32
 3089 11a1 79060000 		.4byte	.LASF154
 3090 11a5 01       		.byte	0x1
 3091 11a6 33       		.byte	0x33
 3092 11a7 0C       		.byte	0xc
 3093 11a8 25000000 		.4byte	0x25
 3094 11ac 00000000 		.4byte	.LFB404
 3095 11b0 0E000000 		.4byte	.LFE404-.LFB404
 3096 11b4 01       		.uleb128 0x1
 3097 11b5 9C       		.byte	0x9c
 3098 11b6 CB110000 		.4byte	0x11cb
 3099 11ba 27       		.uleb128 0x27
 3100 11bb 08000000 		.4byte	.LVL19
 3101 11bf 7B130000 		.4byte	0x137b
 3102 11c3 28       		.uleb128 0x28
 3103 11c4 01       		.uleb128 0x1
 3104 11c5 50       		.byte	0x50
 3105 11c6 02       		.uleb128 0x2
 3106 11c7 08       		.byte	0x8
 3107 11c8 30       		.byte	0x30
ARM GAS  /tmp/ccViN8cm.s 			page 56


 3108 11c9 00       		.byte	0
 3109 11ca 00       		.byte	0
 3110 11cb 33       		.uleb128 0x33
 3111 11cc F1020000 		.4byte	.LASF156
 3112 11d0 03       		.byte	0x3
 3113 11d1 C5       		.byte	0xc5
 3114 11d2 15       		.byte	0x15
 3115 11d3 30010000 		.4byte	0x130
 3116 11d7 03       		.byte	0x3
 3117 11d8 20120000 		.4byte	0x1220
 3118 11dc 34       		.uleb128 0x34
 3119 11dd 747000   		.ascii	"tp\000"
 3120 11e0 03       		.byte	0x3
 3121 11e1 C5       		.byte	0xc5
 3122 11e2 35       		.byte	0x35
 3123 11e3 76050000 		.4byte	0x576
 3124 11e7 35       		.uleb128 0x35
 3125 11e8 A6060000 		.4byte	.LASF155
 3126 11ec 03       		.byte	0x3
 3127 11ed C5       		.byte	0xc5
 3128 11ee 48       		.byte	0x48
 3129 11ef 70080000 		.4byte	0x870
 3130 11f3 34       		.uleb128 0x34
 3131 11f4 703100   		.ascii	"p1\000"
 3132 11f7 03       		.byte	0x3
 3133 11f8 C6       		.byte	0xc6
 3134 11f9 31       		.byte	0x31
 3135 11fa 30010000 		.4byte	0x130
 3136 11fe 34       		.uleb128 0x34
 3137 11ff 703200   		.ascii	"p2\000"
 3138 1202 03       		.byte	0x3
 3139 1203 C6       		.byte	0xc6
 3140 1204 3B       		.byte	0x3b
 3141 1205 30010000 		.4byte	0x130
 3142 1209 34       		.uleb128 0x34
 3143 120a 703300   		.ascii	"p3\000"
 3144 120d 03       		.byte	0x3
 3145 120e C6       		.byte	0xc6
 3146 120f 45       		.byte	0x45
 3147 1210 30010000 		.4byte	0x130
 3148 1214 34       		.uleb128 0x34
 3149 1215 703400   		.ascii	"p4\000"
 3150 1218 03       		.byte	0x3
 3151 1219 C7       		.byte	0xc7
 3152 121a 31       		.byte	0x31
 3153 121b 30010000 		.4byte	0x130
 3154 121f 00       		.byte	0
 3155 1220 33       		.uleb128 0x33
 3156 1221 DB020000 		.4byte	.LASF157
 3157 1225 03       		.byte	0x3
 3158 1226 B1       		.byte	0xb1
 3159 1227 15       		.byte	0x15
 3160 1228 30010000 		.4byte	0x130
 3161 122c 03       		.byte	0x3
 3162 122d 6A120000 		.4byte	0x126a
 3163 1231 34       		.uleb128 0x34
 3164 1232 747000   		.ascii	"tp\000"
ARM GAS  /tmp/ccViN8cm.s 			page 57


 3165 1235 03       		.byte	0x3
 3166 1236 B1       		.byte	0xb1
 3167 1237 35       		.byte	0x35
 3168 1238 76050000 		.4byte	0x576
 3169 123c 35       		.uleb128 0x35
 3170 123d A6060000 		.4byte	.LASF155
 3171 1241 03       		.byte	0x3
 3172 1242 B1       		.byte	0xb1
 3173 1243 48       		.byte	0x48
 3174 1244 45080000 		.4byte	0x845
 3175 1248 34       		.uleb128 0x34
 3176 1249 703100   		.ascii	"p1\000"
 3177 124c 03       		.byte	0x3
 3178 124d B2       		.byte	0xb2
 3179 124e 31       		.byte	0x31
 3180 124f 30010000 		.4byte	0x130
 3181 1253 34       		.uleb128 0x34
 3182 1254 703200   		.ascii	"p2\000"
 3183 1257 03       		.byte	0x3
 3184 1258 B2       		.byte	0xb2
 3185 1259 3B       		.byte	0x3b
 3186 125a 30010000 		.4byte	0x130
 3187 125e 34       		.uleb128 0x34
 3188 125f 703300   		.ascii	"p3\000"
 3189 1262 03       		.byte	0x3
 3190 1263 B2       		.byte	0xb2
 3191 1264 45       		.byte	0x45
 3192 1265 30010000 		.4byte	0x130
 3193 1269 00       		.byte	0
 3194 126a 33       		.uleb128 0x33
 3195 126b C5020000 		.4byte	.LASF158
 3196 126f 03       		.byte	0x3
 3197 1270 9E       		.byte	0x9e
 3198 1271 15       		.byte	0x15
 3199 1272 30010000 		.4byte	0x130
 3200 1276 03       		.byte	0x3
 3201 1277 A9120000 		.4byte	0x12a9
 3202 127b 34       		.uleb128 0x34
 3203 127c 747000   		.ascii	"tp\000"
 3204 127f 03       		.byte	0x3
 3205 1280 9E       		.byte	0x9e
 3206 1281 35       		.byte	0x35
 3207 1282 76050000 		.4byte	0x576
 3208 1286 35       		.uleb128 0x35
 3209 1287 A6060000 		.4byte	.LASF155
 3210 128b 03       		.byte	0x3
 3211 128c 9E       		.byte	0x9e
 3212 128d 48       		.byte	0x48
 3213 128e 1F080000 		.4byte	0x81f
 3214 1292 34       		.uleb128 0x34
 3215 1293 703100   		.ascii	"p1\000"
 3216 1296 03       		.byte	0x3
 3217 1297 9F       		.byte	0x9f
 3218 1298 31       		.byte	0x31
 3219 1299 30010000 		.4byte	0x130
 3220 129d 34       		.uleb128 0x34
 3221 129e 703200   		.ascii	"p2\000"
ARM GAS  /tmp/ccViN8cm.s 			page 58


 3222 12a1 03       		.byte	0x3
 3223 12a2 9F       		.byte	0x9f
 3224 12a3 3B       		.byte	0x3b
 3225 12a4 30010000 		.4byte	0x130
 3226 12a8 00       		.byte	0
 3227 12a9 33       		.uleb128 0x33
 3228 12aa AF020000 		.4byte	.LASF159
 3229 12ae 03       		.byte	0x3
 3230 12af 8C       		.byte	0x8c
 3231 12b0 15       		.byte	0x15
 3232 12b1 30010000 		.4byte	0x130
 3233 12b5 03       		.byte	0x3
 3234 12b6 DD120000 		.4byte	0x12dd
 3235 12ba 34       		.uleb128 0x34
 3236 12bb 747000   		.ascii	"tp\000"
 3237 12be 03       		.byte	0x3
 3238 12bf 8C       		.byte	0x8c
 3239 12c0 35       		.byte	0x35
 3240 12c1 76050000 		.4byte	0x576
 3241 12c5 35       		.uleb128 0x35
 3242 12c6 A6060000 		.4byte	.LASF155
 3243 12ca 03       		.byte	0x3
 3244 12cb 8C       		.byte	0x8c
 3245 12cc 48       		.byte	0x48
 3246 12cd FE070000 		.4byte	0x7fe
 3247 12d1 34       		.uleb128 0x34
 3248 12d2 703100   		.ascii	"p1\000"
 3249 12d5 03       		.byte	0x3
 3250 12d6 8D       		.byte	0x8d
 3251 12d7 31       		.byte	0x31
 3252 12d8 30010000 		.4byte	0x130
 3253 12dc 00       		.byte	0
 3254 12dd 33       		.uleb128 0x33
 3255 12de 99020000 		.4byte	.LASF160
 3256 12e2 03       		.byte	0x3
 3257 12e3 7C       		.byte	0x7c
 3258 12e4 15       		.byte	0x15
 3259 12e5 30010000 		.4byte	0x130
 3260 12e9 03       		.byte	0x3
 3261 12ea 06130000 		.4byte	0x1306
 3262 12ee 34       		.uleb128 0x34
 3263 12ef 747000   		.ascii	"tp\000"
 3264 12f2 03       		.byte	0x3
 3265 12f3 7C       		.byte	0x7c
 3266 12f4 35       		.byte	0x35
 3267 12f5 76050000 		.4byte	0x576
 3268 12f9 35       		.uleb128 0x35
 3269 12fa A6060000 		.4byte	.LASF155
 3270 12fe 03       		.byte	0x3
 3271 12ff 7C       		.byte	0x7c
 3272 1300 48       		.byte	0x48
 3273 1301 E7070000 		.4byte	0x7e7
 3274 1305 00       		.byte	0
 3275 1306 36       		.uleb128 0x36
 3276 1307 1E050000 		.4byte	.LASF161
 3277 130b 02       		.byte	0x2
 3278 130c 6201     		.2byte	0x162
ARM GAS  /tmp/ccViN8cm.s 			page 59


 3279 130e 17       		.byte	0x17
 3280 130f 24010000 		.4byte	0x124
 3281 1313 03       		.byte	0x3
 3282 1314 36       		.uleb128 0x36
 3283 1315 AF070000 		.4byte	.LASF162
 3284 1319 02       		.byte	0x2
 3285 131a 5501     		.2byte	0x155
 3286 131c 19       		.byte	0x19
 3287 131d 76050000 		.4byte	0x576
 3288 1321 03       		.byte	0x3
 3289 1322 37       		.uleb128 0x37
 3290 1323 99080000 		.4byte	.LASF163
 3291 1327 99080000 		.4byte	.LASF163
 3292 132b 02       		.byte	0x2
 3293 132c 2B01     		.2byte	0x12b
 3294 132e 0D       		.byte	0xd
 3295 132f 38       		.uleb128 0x38
 3296 1330 03050000 		.4byte	.LASF164
 3297 1334 03050000 		.4byte	.LASF164
 3298 1338 03       		.byte	0x3
 3299 1339 69       		.byte	0x69
 3300 133a 09       		.byte	0x9
 3301 133b 37       		.uleb128 0x37
 3302 133c EA050000 		.4byte	.LASF165
 3303 1340 EA050000 		.4byte	.LASF165
 3304 1344 12       		.byte	0x12
 3305 1345 3001     		.2byte	0x130
 3306 1347 08       		.byte	0x8
 3307 1348 37       		.uleb128 0x37
 3308 1349 C9010000 		.4byte	.LASF166
 3309 134d C9010000 		.4byte	.LASF166
 3310 1351 12       		.byte	0x12
 3311 1352 3101     		.2byte	0x131
 3312 1354 08       		.byte	0x8
 3313 1355 37       		.uleb128 0x37
 3314 1356 59070000 		.4byte	.LASF167
 3315 135a 59070000 		.4byte	.LASF167
 3316 135e 02       		.byte	0x2
 3317 135f 3601     		.2byte	0x136
 3318 1361 09       		.byte	0x9
 3319 1362 38       		.uleb128 0x38
 3320 1363 D0050000 		.4byte	.LASF168
 3321 1367 D0050000 		.4byte	.LASF168
 3322 136b 03       		.byte	0x3
 3323 136c 67       		.byte	0x67
 3324 136d 08       		.byte	0x8
 3325 136e 37       		.uleb128 0x37
 3326 136f 7C010000 		.4byte	.LASF169
 3327 1373 7C010000 		.4byte	.LASF169
 3328 1377 02       		.byte	0x2
 3329 1378 3301     		.2byte	0x133
 3330 137a 08       		.byte	0x8
 3331 137b 37       		.uleb128 0x37
 3332 137c B2010000 		.4byte	.LASF170
 3333 1380 B2010000 		.4byte	.LASF170
 3334 1384 12       		.byte	0x12
 3335 1385 3A01     		.2byte	0x13a
ARM GAS  /tmp/ccViN8cm.s 			page 60


 3336 1387 08       		.byte	0x8
 3337 1388 00       		.byte	0
 3338              		.section	.debug_abbrev,"",%progbits
 3339              	.Ldebug_abbrev0:
 3340 0000 01       		.uleb128 0x1
 3341 0001 11       		.uleb128 0x11
 3342 0002 01       		.byte	0x1
 3343 0003 25       		.uleb128 0x25
 3344 0004 0E       		.uleb128 0xe
 3345 0005 13       		.uleb128 0x13
 3346 0006 0B       		.uleb128 0xb
 3347 0007 03       		.uleb128 0x3
 3348 0008 0E       		.uleb128 0xe
 3349 0009 1B       		.uleb128 0x1b
 3350 000a 0E       		.uleb128 0xe
 3351 000b 55       		.uleb128 0x55
 3352 000c 17       		.uleb128 0x17
 3353 000d 11       		.uleb128 0x11
 3354 000e 01       		.uleb128 0x1
 3355 000f 10       		.uleb128 0x10
 3356 0010 17       		.uleb128 0x17
 3357 0011 00       		.byte	0
 3358 0012 00       		.byte	0
 3359 0013 02       		.uleb128 0x2
 3360 0014 24       		.uleb128 0x24
 3361 0015 00       		.byte	0
 3362 0016 0B       		.uleb128 0xb
 3363 0017 0B       		.uleb128 0xb
 3364 0018 3E       		.uleb128 0x3e
 3365 0019 0B       		.uleb128 0xb
 3366 001a 03       		.uleb128 0x3
 3367 001b 08       		.uleb128 0x8
 3368 001c 00       		.byte	0
 3369 001d 00       		.byte	0
 3370 001e 03       		.uleb128 0x3
 3371 001f 16       		.uleb128 0x16
 3372 0020 00       		.byte	0
 3373 0021 03       		.uleb128 0x3
 3374 0022 0E       		.uleb128 0xe
 3375 0023 3A       		.uleb128 0x3a
 3376 0024 0B       		.uleb128 0xb
 3377 0025 3B       		.uleb128 0x3b
 3378 0026 0B       		.uleb128 0xb
 3379 0027 39       		.uleb128 0x39
 3380 0028 0B       		.uleb128 0xb
 3381 0029 49       		.uleb128 0x49
 3382 002a 13       		.uleb128 0x13
 3383 002b 00       		.byte	0
 3384 002c 00       		.byte	0
 3385 002d 04       		.uleb128 0x4
 3386 002e 24       		.uleb128 0x24
 3387 002f 00       		.byte	0
 3388 0030 0B       		.uleb128 0xb
 3389 0031 0B       		.uleb128 0xb
 3390 0032 3E       		.uleb128 0x3e
 3391 0033 0B       		.uleb128 0xb
 3392 0034 03       		.uleb128 0x3
ARM GAS  /tmp/ccViN8cm.s 			page 61


 3393 0035 0E       		.uleb128 0xe
 3394 0036 00       		.byte	0
 3395 0037 00       		.byte	0
 3396 0038 05       		.uleb128 0x5
 3397 0039 26       		.uleb128 0x26
 3398 003a 00       		.byte	0
 3399 003b 49       		.uleb128 0x49
 3400 003c 13       		.uleb128 0x13
 3401 003d 00       		.byte	0
 3402 003e 00       		.byte	0
 3403 003f 06       		.uleb128 0x6
 3404 0040 35       		.uleb128 0x35
 3405 0041 00       		.byte	0
 3406 0042 49       		.uleb128 0x49
 3407 0043 13       		.uleb128 0x13
 3408 0044 00       		.byte	0
 3409 0045 00       		.byte	0
 3410 0046 07       		.uleb128 0x7
 3411 0047 13       		.uleb128 0x13
 3412 0048 01       		.byte	0x1
 3413 0049 03       		.uleb128 0x3
 3414 004a 0E       		.uleb128 0xe
 3415 004b 0B       		.uleb128 0xb
 3416 004c 0B       		.uleb128 0xb
 3417 004d 3A       		.uleb128 0x3a
 3418 004e 0B       		.uleb128 0xb
 3419 004f 3B       		.uleb128 0x3b
 3420 0050 0B       		.uleb128 0xb
 3421 0051 39       		.uleb128 0x39
 3422 0052 0B       		.uleb128 0xb
 3423 0053 01       		.uleb128 0x1
 3424 0054 13       		.uleb128 0x13
 3425 0055 00       		.byte	0
 3426 0056 00       		.byte	0
 3427 0057 08       		.uleb128 0x8
 3428 0058 0D       		.uleb128 0xd
 3429 0059 00       		.byte	0
 3430 005a 03       		.uleb128 0x3
 3431 005b 08       		.uleb128 0x8
 3432 005c 3A       		.uleb128 0x3a
 3433 005d 0B       		.uleb128 0xb
 3434 005e 3B       		.uleb128 0x3b
 3435 005f 0B       		.uleb128 0xb
 3436 0060 39       		.uleb128 0x39
 3437 0061 0B       		.uleb128 0xb
 3438 0062 49       		.uleb128 0x49
 3439 0063 13       		.uleb128 0x13
 3440 0064 38       		.uleb128 0x38
 3441 0065 0B       		.uleb128 0xb
 3442 0066 00       		.byte	0
 3443 0067 00       		.byte	0
 3444 0068 09       		.uleb128 0x9
 3445 0069 0D       		.uleb128 0xd
 3446 006a 00       		.byte	0
 3447 006b 03       		.uleb128 0x3
 3448 006c 0E       		.uleb128 0xe
 3449 006d 3A       		.uleb128 0x3a
ARM GAS  /tmp/ccViN8cm.s 			page 62


 3450 006e 0B       		.uleb128 0xb
 3451 006f 3B       		.uleb128 0x3b
 3452 0070 0B       		.uleb128 0xb
 3453 0071 39       		.uleb128 0x39
 3454 0072 0B       		.uleb128 0xb
 3455 0073 49       		.uleb128 0x49
 3456 0074 13       		.uleb128 0x13
 3457 0075 38       		.uleb128 0x38
 3458 0076 0B       		.uleb128 0xb
 3459 0077 00       		.byte	0
 3460 0078 00       		.byte	0
 3461 0079 0A       		.uleb128 0xa
 3462 007a 0D       		.uleb128 0xd
 3463 007b 00       		.byte	0
 3464 007c 03       		.uleb128 0x3
 3465 007d 08       		.uleb128 0x8
 3466 007e 3A       		.uleb128 0x3a
 3467 007f 0B       		.uleb128 0xb
 3468 0080 3B       		.uleb128 0x3b
 3469 0081 05       		.uleb128 0x5
 3470 0082 39       		.uleb128 0x39
 3471 0083 0B       		.uleb128 0xb
 3472 0084 49       		.uleb128 0x49
 3473 0085 13       		.uleb128 0x13
 3474 0086 38       		.uleb128 0x38
 3475 0087 0B       		.uleb128 0xb
 3476 0088 00       		.byte	0
 3477 0089 00       		.byte	0
 3478 008a 0B       		.uleb128 0xb
 3479 008b 0D       		.uleb128 0xd
 3480 008c 00       		.byte	0
 3481 008d 03       		.uleb128 0x3
 3482 008e 0E       		.uleb128 0xe
 3483 008f 3A       		.uleb128 0x3a
 3484 0090 0B       		.uleb128 0xb
 3485 0091 3B       		.uleb128 0x3b
 3486 0092 05       		.uleb128 0x5
 3487 0093 39       		.uleb128 0x39
 3488 0094 0B       		.uleb128 0xb
 3489 0095 49       		.uleb128 0x49
 3490 0096 13       		.uleb128 0x13
 3491 0097 38       		.uleb128 0x38
 3492 0098 0B       		.uleb128 0xb
 3493 0099 00       		.byte	0
 3494 009a 00       		.byte	0
 3495 009b 0C       		.uleb128 0xc
 3496 009c 13       		.uleb128 0x13
 3497 009d 01       		.byte	0x1
 3498 009e 03       		.uleb128 0x3
 3499 009f 0E       		.uleb128 0xe
 3500 00a0 0B       		.uleb128 0xb
 3501 00a1 0B       		.uleb128 0xb
 3502 00a2 3A       		.uleb128 0x3a
 3503 00a3 0B       		.uleb128 0xb
 3504 00a4 3B       		.uleb128 0x3b
 3505 00a5 05       		.uleb128 0x5
 3506 00a6 39       		.uleb128 0x39
ARM GAS  /tmp/ccViN8cm.s 			page 63


 3507 00a7 0B       		.uleb128 0xb
 3508 00a8 01       		.uleb128 0x1
 3509 00a9 13       		.uleb128 0x13
 3510 00aa 00       		.byte	0
 3511 00ab 00       		.byte	0
 3512 00ac 0D       		.uleb128 0xd
 3513 00ad 0F       		.uleb128 0xf
 3514 00ae 00       		.byte	0
 3515 00af 0B       		.uleb128 0xb
 3516 00b0 0B       		.uleb128 0xb
 3517 00b1 49       		.uleb128 0x49
 3518 00b2 13       		.uleb128 0x13
 3519 00b3 00       		.byte	0
 3520 00b4 00       		.byte	0
 3521 00b5 0E       		.uleb128 0xe
 3522 00b6 0F       		.uleb128 0xf
 3523 00b7 00       		.byte	0
 3524 00b8 0B       		.uleb128 0xb
 3525 00b9 0B       		.uleb128 0xb
 3526 00ba 00       		.byte	0
 3527 00bb 00       		.byte	0
 3528 00bc 0F       		.uleb128 0xf
 3529 00bd 17       		.uleb128 0x17
 3530 00be 01       		.byte	0x1
 3531 00bf 0B       		.uleb128 0xb
 3532 00c0 0B       		.uleb128 0xb
 3533 00c1 3A       		.uleb128 0x3a
 3534 00c2 0B       		.uleb128 0xb
 3535 00c3 3B       		.uleb128 0x3b
 3536 00c4 0B       		.uleb128 0xb
 3537 00c5 39       		.uleb128 0x39
 3538 00c6 0B       		.uleb128 0xb
 3539 00c7 01       		.uleb128 0x1
 3540 00c8 13       		.uleb128 0x13
 3541 00c9 00       		.byte	0
 3542 00ca 00       		.byte	0
 3543 00cb 10       		.uleb128 0x10
 3544 00cc 0D       		.uleb128 0xd
 3545 00cd 00       		.byte	0
 3546 00ce 03       		.uleb128 0x3
 3547 00cf 0E       		.uleb128 0xe
 3548 00d0 3A       		.uleb128 0x3a
 3549 00d1 0B       		.uleb128 0xb
 3550 00d2 3B       		.uleb128 0x3b
 3551 00d3 0B       		.uleb128 0xb
 3552 00d4 39       		.uleb128 0x39
 3553 00d5 0B       		.uleb128 0xb
 3554 00d6 49       		.uleb128 0x49
 3555 00d7 13       		.uleb128 0x13
 3556 00d8 00       		.byte	0
 3557 00d9 00       		.byte	0
 3558 00da 11       		.uleb128 0x11
 3559 00db 0D       		.uleb128 0xd
 3560 00dc 00       		.byte	0
 3561 00dd 03       		.uleb128 0x3
 3562 00de 0E       		.uleb128 0xe
 3563 00df 3A       		.uleb128 0x3a
ARM GAS  /tmp/ccViN8cm.s 			page 64


 3564 00e0 0B       		.uleb128 0xb
 3565 00e1 3B       		.uleb128 0x3b
 3566 00e2 05       		.uleb128 0x5
 3567 00e3 39       		.uleb128 0x39
 3568 00e4 0B       		.uleb128 0xb
 3569 00e5 49       		.uleb128 0x49
 3570 00e6 13       		.uleb128 0x13
 3571 00e7 00       		.byte	0
 3572 00e8 00       		.byte	0
 3573 00e9 12       		.uleb128 0x12
 3574 00ea 16       		.uleb128 0x16
 3575 00eb 00       		.byte	0
 3576 00ec 03       		.uleb128 0x3
 3577 00ed 0E       		.uleb128 0xe
 3578 00ee 3A       		.uleb128 0x3a
 3579 00ef 0B       		.uleb128 0xb
 3580 00f0 3B       		.uleb128 0x3b
 3581 00f1 05       		.uleb128 0x5
 3582 00f2 39       		.uleb128 0x39
 3583 00f3 0B       		.uleb128 0xb
 3584 00f4 49       		.uleb128 0x49
 3585 00f5 13       		.uleb128 0x13
 3586 00f6 00       		.byte	0
 3587 00f7 00       		.byte	0
 3588 00f8 13       		.uleb128 0x13
 3589 00f9 34       		.uleb128 0x34
 3590 00fa 00       		.byte	0
 3591 00fb 03       		.uleb128 0x3
 3592 00fc 08       		.uleb128 0x8
 3593 00fd 3A       		.uleb128 0x3a
 3594 00fe 0B       		.uleb128 0xb
 3595 00ff 3B       		.uleb128 0x3b
 3596 0100 05       		.uleb128 0x5
 3597 0101 39       		.uleb128 0x39
 3598 0102 0B       		.uleb128 0xb
 3599 0103 49       		.uleb128 0x49
 3600 0104 13       		.uleb128 0x13
 3601 0105 3F       		.uleb128 0x3f
 3602 0106 19       		.uleb128 0x19
 3603 0107 3C       		.uleb128 0x3c
 3604 0108 19       		.uleb128 0x19
 3605 0109 00       		.byte	0
 3606 010a 00       		.byte	0
 3607 010b 14       		.uleb128 0x14
 3608 010c 15       		.uleb128 0x15
 3609 010d 01       		.byte	0x1
 3610 010e 27       		.uleb128 0x27
 3611 010f 19       		.uleb128 0x19
 3612 0110 01       		.uleb128 0x1
 3613 0111 13       		.uleb128 0x13
 3614 0112 00       		.byte	0
 3615 0113 00       		.byte	0
 3616 0114 15       		.uleb128 0x15
 3617 0115 05       		.uleb128 0x5
 3618 0116 00       		.byte	0
 3619 0117 49       		.uleb128 0x49
 3620 0118 13       		.uleb128 0x13
ARM GAS  /tmp/ccViN8cm.s 			page 65


 3621 0119 00       		.byte	0
 3622 011a 00       		.byte	0
 3623 011b 16       		.uleb128 0x16
 3624 011c 13       		.uleb128 0x13
 3625 011d 01       		.byte	0x1
 3626 011e 0B       		.uleb128 0xb
 3627 011f 0B       		.uleb128 0xb
 3628 0120 3A       		.uleb128 0x3a
 3629 0121 0B       		.uleb128 0xb
 3630 0122 3B       		.uleb128 0x3b
 3631 0123 0B       		.uleb128 0xb
 3632 0124 39       		.uleb128 0x39
 3633 0125 0B       		.uleb128 0xb
 3634 0126 01       		.uleb128 0x1
 3635 0127 13       		.uleb128 0x13
 3636 0128 00       		.byte	0
 3637 0129 00       		.byte	0
 3638 012a 17       		.uleb128 0x17
 3639 012b 15       		.uleb128 0x15
 3640 012c 00       		.byte	0
 3641 012d 27       		.uleb128 0x27
 3642 012e 19       		.uleb128 0x19
 3643 012f 49       		.uleb128 0x49
 3644 0130 13       		.uleb128 0x13
 3645 0131 00       		.byte	0
 3646 0132 00       		.byte	0
 3647 0133 18       		.uleb128 0x18
 3648 0134 15       		.uleb128 0x15
 3649 0135 01       		.byte	0x1
 3650 0136 27       		.uleb128 0x27
 3651 0137 19       		.uleb128 0x19
 3652 0138 49       		.uleb128 0x49
 3653 0139 13       		.uleb128 0x13
 3654 013a 01       		.uleb128 0x1
 3655 013b 13       		.uleb128 0x13
 3656 013c 00       		.byte	0
 3657 013d 00       		.byte	0
 3658 013e 19       		.uleb128 0x19
 3659 013f 01       		.uleb128 0x1
 3660 0140 01       		.byte	0x1
 3661 0141 49       		.uleb128 0x49
 3662 0142 13       		.uleb128 0x13
 3663 0143 01       		.uleb128 0x1
 3664 0144 13       		.uleb128 0x13
 3665 0145 00       		.byte	0
 3666 0146 00       		.byte	0
 3667 0147 1A       		.uleb128 0x1a
 3668 0148 21       		.uleb128 0x21
 3669 0149 00       		.byte	0
 3670 014a 49       		.uleb128 0x49
 3671 014b 13       		.uleb128 0x13
 3672 014c 2F       		.uleb128 0x2f
 3673 014d 0B       		.uleb128 0xb
 3674 014e 00       		.byte	0
 3675 014f 00       		.byte	0
 3676 0150 1B       		.uleb128 0x1b
 3677 0151 15       		.uleb128 0x15
ARM GAS  /tmp/ccViN8cm.s 			page 66


 3678 0152 00       		.byte	0
 3679 0153 27       		.uleb128 0x27
 3680 0154 19       		.uleb128 0x19
 3681 0155 00       		.byte	0
 3682 0156 00       		.byte	0
 3683 0157 1C       		.uleb128 0x1c
 3684 0158 34       		.uleb128 0x34
 3685 0159 00       		.byte	0
 3686 015a 03       		.uleb128 0x3
 3687 015b 0E       		.uleb128 0xe
 3688 015c 3A       		.uleb128 0x3a
 3689 015d 0B       		.uleb128 0xb
 3690 015e 3B       		.uleb128 0x3b
 3691 015f 05       		.uleb128 0x5
 3692 0160 39       		.uleb128 0x39
 3693 0161 0B       		.uleb128 0xb
 3694 0162 49       		.uleb128 0x49
 3695 0163 13       		.uleb128 0x13
 3696 0164 3F       		.uleb128 0x3f
 3697 0165 19       		.uleb128 0x19
 3698 0166 3C       		.uleb128 0x3c
 3699 0167 19       		.uleb128 0x19
 3700 0168 00       		.byte	0
 3701 0169 00       		.byte	0
 3702 016a 1D       		.uleb128 0x1d
 3703 016b 34       		.uleb128 0x34
 3704 016c 00       		.byte	0
 3705 016d 03       		.uleb128 0x3
 3706 016e 0E       		.uleb128 0xe
 3707 016f 3A       		.uleb128 0x3a
 3708 0170 0B       		.uleb128 0xb
 3709 0171 3B       		.uleb128 0x3b
 3710 0172 0B       		.uleb128 0xb
 3711 0173 39       		.uleb128 0x39
 3712 0174 0B       		.uleb128 0xb
 3713 0175 49       		.uleb128 0x49
 3714 0176 13       		.uleb128 0x13
 3715 0177 3F       		.uleb128 0x3f
 3716 0178 19       		.uleb128 0x19
 3717 0179 3C       		.uleb128 0x3c
 3718 017a 19       		.uleb128 0x19
 3719 017b 00       		.byte	0
 3720 017c 00       		.byte	0
 3721 017d 1E       		.uleb128 0x1e
 3722 017e 34       		.uleb128 0x34
 3723 017f 00       		.byte	0
 3724 0180 03       		.uleb128 0x3
 3725 0181 0E       		.uleb128 0xe
 3726 0182 3A       		.uleb128 0x3a
 3727 0183 0B       		.uleb128 0xb
 3728 0184 3B       		.uleb128 0x3b
 3729 0185 0B       		.uleb128 0xb
 3730 0186 39       		.uleb128 0x39
 3731 0187 0B       		.uleb128 0xb
 3732 0188 49       		.uleb128 0x49
 3733 0189 13       		.uleb128 0x13
 3734 018a 02       		.uleb128 0x2
ARM GAS  /tmp/ccViN8cm.s 			page 67


 3735 018b 18       		.uleb128 0x18
 3736 018c 00       		.byte	0
 3737 018d 00       		.byte	0
 3738 018e 1F       		.uleb128 0x1f
 3739 018f 34       		.uleb128 0x34
 3740 0190 00       		.byte	0
 3741 0191 03       		.uleb128 0x3
 3742 0192 0E       		.uleb128 0xe
 3743 0193 3A       		.uleb128 0x3a
 3744 0194 0B       		.uleb128 0xb
 3745 0195 3B       		.uleb128 0x3b
 3746 0196 0B       		.uleb128 0xb
 3747 0197 39       		.uleb128 0x39
 3748 0198 0B       		.uleb128 0xb
 3749 0199 49       		.uleb128 0x49
 3750 019a 13       		.uleb128 0x13
 3751 019b 3F       		.uleb128 0x3f
 3752 019c 19       		.uleb128 0x19
 3753 019d 02       		.uleb128 0x2
 3754 019e 18       		.uleb128 0x18
 3755 019f 00       		.byte	0
 3756 01a0 00       		.byte	0
 3757 01a1 20       		.uleb128 0x20
 3758 01a2 34       		.uleb128 0x34
 3759 01a3 00       		.byte	0
 3760 01a4 47       		.uleb128 0x47
 3761 01a5 13       		.uleb128 0x13
 3762 01a6 3A       		.uleb128 0x3a
 3763 01a7 0B       		.uleb128 0xb
 3764 01a8 3B       		.uleb128 0x3b
 3765 01a9 0B       		.uleb128 0xb
 3766 01aa 39       		.uleb128 0x39
 3767 01ab 0B       		.uleb128 0xb
 3768 01ac 02       		.uleb128 0x2
 3769 01ad 18       		.uleb128 0x18
 3770 01ae 00       		.byte	0
 3771 01af 00       		.byte	0
 3772 01b0 21       		.uleb128 0x21
 3773 01b1 2E       		.uleb128 0x2e
 3774 01b2 01       		.byte	0x1
 3775 01b3 03       		.uleb128 0x3
 3776 01b4 0E       		.uleb128 0xe
 3777 01b5 3A       		.uleb128 0x3a
 3778 01b6 0B       		.uleb128 0xb
 3779 01b7 3B       		.uleb128 0x3b
 3780 01b8 0B       		.uleb128 0xb
 3781 01b9 39       		.uleb128 0x39
 3782 01ba 0B       		.uleb128 0xb
 3783 01bb 27       		.uleb128 0x27
 3784 01bc 19       		.uleb128 0x19
 3785 01bd 11       		.uleb128 0x11
 3786 01be 01       		.uleb128 0x1
 3787 01bf 12       		.uleb128 0x12
 3788 01c0 06       		.uleb128 0x6
 3789 01c1 40       		.uleb128 0x40
 3790 01c2 18       		.uleb128 0x18
 3791 01c3 9742     		.uleb128 0x2117
ARM GAS  /tmp/ccViN8cm.s 			page 68


 3792 01c5 19       		.uleb128 0x19
 3793 01c6 01       		.uleb128 0x1
 3794 01c7 13       		.uleb128 0x13
 3795 01c8 00       		.byte	0
 3796 01c9 00       		.byte	0
 3797 01ca 22       		.uleb128 0x22
 3798 01cb 34       		.uleb128 0x34
 3799 01cc 00       		.byte	0
 3800 01cd 03       		.uleb128 0x3
 3801 01ce 08       		.uleb128 0x8
 3802 01cf 3A       		.uleb128 0x3a
 3803 01d0 0B       		.uleb128 0xb
 3804 01d1 3B       		.uleb128 0x3b
 3805 01d2 0B       		.uleb128 0xb
 3806 01d3 39       		.uleb128 0x39
 3807 01d4 0B       		.uleb128 0xb
 3808 01d5 49       		.uleb128 0x49
 3809 01d6 13       		.uleb128 0x13
 3810 01d7 02       		.uleb128 0x2
 3811 01d8 17       		.uleb128 0x17
 3812 01d9 B742     		.uleb128 0x2137
 3813 01db 17       		.uleb128 0x17
 3814 01dc 00       		.byte	0
 3815 01dd 00       		.byte	0
 3816 01de 23       		.uleb128 0x23
 3817 01df 0B       		.uleb128 0xb
 3818 01e0 01       		.byte	0x1
 3819 01e1 55       		.uleb128 0x55
 3820 01e2 17       		.uleb128 0x17
 3821 01e3 01       		.uleb128 0x1
 3822 01e4 13       		.uleb128 0x13
 3823 01e5 00       		.byte	0
 3824 01e6 00       		.byte	0
 3825 01e7 24       		.uleb128 0x24
 3826 01e8 34       		.uleb128 0x34
 3827 01e9 00       		.byte	0
 3828 01ea 03       		.uleb128 0x3
 3829 01eb 08       		.uleb128 0x8
 3830 01ec 3A       		.uleb128 0x3a
 3831 01ed 0B       		.uleb128 0xb
 3832 01ee 3B       		.uleb128 0x3b
 3833 01ef 0B       		.uleb128 0xb
 3834 01f0 39       		.uleb128 0x39
 3835 01f1 0B       		.uleb128 0xb
 3836 01f2 49       		.uleb128 0x49
 3837 01f3 13       		.uleb128 0x13
 3838 01f4 02       		.uleb128 0x2
 3839 01f5 18       		.uleb128 0x18
 3840 01f6 00       		.byte	0
 3841 01f7 00       		.byte	0
 3842 01f8 25       		.uleb128 0x25
 3843 01f9 1D       		.uleb128 0x1d
 3844 01fa 01       		.byte	0x1
 3845 01fb 31       		.uleb128 0x31
 3846 01fc 13       		.uleb128 0x13
 3847 01fd 52       		.uleb128 0x52
 3848 01fe 01       		.uleb128 0x1
ARM GAS  /tmp/ccViN8cm.s 			page 69


 3849 01ff B842     		.uleb128 0x2138
 3850 0201 0B       		.uleb128 0xb
 3851 0202 55       		.uleb128 0x55
 3852 0203 17       		.uleb128 0x17
 3853 0204 58       		.uleb128 0x58
 3854 0205 0B       		.uleb128 0xb
 3855 0206 59       		.uleb128 0x59
 3856 0207 0B       		.uleb128 0xb
 3857 0208 57       		.uleb128 0x57
 3858 0209 0B       		.uleb128 0xb
 3859 020a 01       		.uleb128 0x1
 3860 020b 13       		.uleb128 0x13
 3861 020c 00       		.byte	0
 3862 020d 00       		.byte	0
 3863 020e 26       		.uleb128 0x26
 3864 020f 1D       		.uleb128 0x1d
 3865 0210 00       		.byte	0
 3866 0211 31       		.uleb128 0x31
 3867 0212 13       		.uleb128 0x13
 3868 0213 52       		.uleb128 0x52
 3869 0214 01       		.uleb128 0x1
 3870 0215 B842     		.uleb128 0x2138
 3871 0217 0B       		.uleb128 0xb
 3872 0218 55       		.uleb128 0x55
 3873 0219 17       		.uleb128 0x17
 3874 021a 58       		.uleb128 0x58
 3875 021b 0B       		.uleb128 0xb
 3876 021c 59       		.uleb128 0x59
 3877 021d 05       		.uleb128 0x5
 3878 021e 57       		.uleb128 0x57
 3879 021f 0B       		.uleb128 0xb
 3880 0220 00       		.byte	0
 3881 0221 00       		.byte	0
 3882 0222 27       		.uleb128 0x27
 3883 0223 898201   		.uleb128 0x4109
 3884 0226 01       		.byte	0x1
 3885 0227 11       		.uleb128 0x11
 3886 0228 01       		.uleb128 0x1
 3887 0229 31       		.uleb128 0x31
 3888 022a 13       		.uleb128 0x13
 3889 022b 00       		.byte	0
 3890 022c 00       		.byte	0
 3891 022d 28       		.uleb128 0x28
 3892 022e 8A8201   		.uleb128 0x410a
 3893 0231 00       		.byte	0
 3894 0232 02       		.uleb128 0x2
 3895 0233 18       		.uleb128 0x18
 3896 0234 9142     		.uleb128 0x2111
 3897 0236 18       		.uleb128 0x18
 3898 0237 00       		.byte	0
 3899 0238 00       		.byte	0
 3900 0239 29       		.uleb128 0x29
 3901 023a 34       		.uleb128 0x34
 3902 023b 00       		.byte	0
 3903 023c 03       		.uleb128 0x3
 3904 023d 0E       		.uleb128 0xe
 3905 023e 3A       		.uleb128 0x3a
ARM GAS  /tmp/ccViN8cm.s 			page 70


 3906 023f 0B       		.uleb128 0xb
 3907 0240 3B       		.uleb128 0x3b
 3908 0241 0B       		.uleb128 0xb
 3909 0242 39       		.uleb128 0x39
 3910 0243 0B       		.uleb128 0xb
 3911 0244 49       		.uleb128 0x49
 3912 0245 13       		.uleb128 0x13
 3913 0246 02       		.uleb128 0x2
 3914 0247 17       		.uleb128 0x17
 3915 0248 B742     		.uleb128 0x2137
 3916 024a 17       		.uleb128 0x17
 3917 024b 00       		.byte	0
 3918 024c 00       		.byte	0
 3919 024d 2A       		.uleb128 0x2a
 3920 024e 05       		.uleb128 0x5
 3921 024f 00       		.byte	0
 3922 0250 31       		.uleb128 0x31
 3923 0251 13       		.uleb128 0x13
 3924 0252 00       		.byte	0
 3925 0253 00       		.byte	0
 3926 0254 2B       		.uleb128 0x2b
 3927 0255 05       		.uleb128 0x5
 3928 0256 00       		.byte	0
 3929 0257 31       		.uleb128 0x31
 3930 0258 13       		.uleb128 0x13
 3931 0259 02       		.uleb128 0x2
 3932 025a 17       		.uleb128 0x17
 3933 025b B742     		.uleb128 0x2137
 3934 025d 17       		.uleb128 0x17
 3935 025e 00       		.byte	0
 3936 025f 00       		.byte	0
 3937 0260 2C       		.uleb128 0x2c
 3938 0261 1D       		.uleb128 0x1d
 3939 0262 01       		.byte	0x1
 3940 0263 31       		.uleb128 0x31
 3941 0264 13       		.uleb128 0x13
 3942 0265 52       		.uleb128 0x52
 3943 0266 01       		.uleb128 0x1
 3944 0267 B842     		.uleb128 0x2138
 3945 0269 0B       		.uleb128 0xb
 3946 026a 11       		.uleb128 0x11
 3947 026b 01       		.uleb128 0x1
 3948 026c 12       		.uleb128 0x12
 3949 026d 06       		.uleb128 0x6
 3950 026e 58       		.uleb128 0x58
 3951 026f 0B       		.uleb128 0xb
 3952 0270 59       		.uleb128 0x59
 3953 0271 0B       		.uleb128 0xb
 3954 0272 57       		.uleb128 0x57
 3955 0273 0B       		.uleb128 0xb
 3956 0274 01       		.uleb128 0x1
 3957 0275 13       		.uleb128 0x13
 3958 0276 00       		.byte	0
 3959 0277 00       		.byte	0
 3960 0278 2D       		.uleb128 0x2d
 3961 0279 898201   		.uleb128 0x4109
 3962 027c 01       		.byte	0x1
ARM GAS  /tmp/ccViN8cm.s 			page 71


 3963 027d 11       		.uleb128 0x11
 3964 027e 01       		.uleb128 0x1
 3965 027f 31       		.uleb128 0x31
 3966 0280 13       		.uleb128 0x13
 3967 0281 01       		.uleb128 0x1
 3968 0282 13       		.uleb128 0x13
 3969 0283 00       		.byte	0
 3970 0284 00       		.byte	0
 3971 0285 2E       		.uleb128 0x2e
 3972 0286 0B       		.uleb128 0xb
 3973 0287 01       		.byte	0x1
 3974 0288 55       		.uleb128 0x55
 3975 0289 17       		.uleb128 0x17
 3976 028a 00       		.byte	0
 3977 028b 00       		.byte	0
 3978 028c 2F       		.uleb128 0x2f
 3979 028d 898201   		.uleb128 0x4109
 3980 0290 01       		.byte	0x1
 3981 0291 11       		.uleb128 0x11
 3982 0292 01       		.uleb128 0x1
 3983 0293 9542     		.uleb128 0x2115
 3984 0295 19       		.uleb128 0x19
 3985 0296 31       		.uleb128 0x31
 3986 0297 13       		.uleb128 0x13
 3987 0298 00       		.byte	0
 3988 0299 00       		.byte	0
 3989 029a 30       		.uleb128 0x30
 3990 029b 05       		.uleb128 0x5
 3991 029c 00       		.byte	0
 3992 029d 03       		.uleb128 0x3
 3993 029e 08       		.uleb128 0x8
 3994 029f 3A       		.uleb128 0x3a
 3995 02a0 0B       		.uleb128 0xb
 3996 02a1 3B       		.uleb128 0x3b
 3997 02a2 0B       		.uleb128 0xb
 3998 02a3 39       		.uleb128 0x39
 3999 02a4 0B       		.uleb128 0xb
 4000 02a5 49       		.uleb128 0x49
 4001 02a6 13       		.uleb128 0x13
 4002 02a7 02       		.uleb128 0x2
 4003 02a8 17       		.uleb128 0x17
 4004 02a9 B742     		.uleb128 0x2137
 4005 02ab 17       		.uleb128 0x17
 4006 02ac 00       		.byte	0
 4007 02ad 00       		.byte	0
 4008 02ae 31       		.uleb128 0x31
 4009 02af 898201   		.uleb128 0x4109
 4010 02b2 00       		.byte	0
 4011 02b3 11       		.uleb128 0x11
 4012 02b4 01       		.uleb128 0x1
 4013 02b5 31       		.uleb128 0x31
 4014 02b6 13       		.uleb128 0x13
 4015 02b7 00       		.byte	0
 4016 02b8 00       		.byte	0
 4017 02b9 32       		.uleb128 0x32
 4018 02ba 2E       		.uleb128 0x2e
 4019 02bb 01       		.byte	0x1
ARM GAS  /tmp/ccViN8cm.s 			page 72


 4020 02bc 03       		.uleb128 0x3
 4021 02bd 0E       		.uleb128 0xe
 4022 02be 3A       		.uleb128 0x3a
 4023 02bf 0B       		.uleb128 0xb
 4024 02c0 3B       		.uleb128 0x3b
 4025 02c1 0B       		.uleb128 0xb
 4026 02c2 39       		.uleb128 0x39
 4027 02c3 0B       		.uleb128 0xb
 4028 02c4 27       		.uleb128 0x27
 4029 02c5 19       		.uleb128 0x19
 4030 02c6 49       		.uleb128 0x49
 4031 02c7 13       		.uleb128 0x13
 4032 02c8 11       		.uleb128 0x11
 4033 02c9 01       		.uleb128 0x1
 4034 02ca 12       		.uleb128 0x12
 4035 02cb 06       		.uleb128 0x6
 4036 02cc 40       		.uleb128 0x40
 4037 02cd 18       		.uleb128 0x18
 4038 02ce 9742     		.uleb128 0x2117
 4039 02d0 19       		.uleb128 0x19
 4040 02d1 01       		.uleb128 0x1
 4041 02d2 13       		.uleb128 0x13
 4042 02d3 00       		.byte	0
 4043 02d4 00       		.byte	0
 4044 02d5 33       		.uleb128 0x33
 4045 02d6 2E       		.uleb128 0x2e
 4046 02d7 01       		.byte	0x1
 4047 02d8 03       		.uleb128 0x3
 4048 02d9 0E       		.uleb128 0xe
 4049 02da 3A       		.uleb128 0x3a
 4050 02db 0B       		.uleb128 0xb
 4051 02dc 3B       		.uleb128 0x3b
 4052 02dd 0B       		.uleb128 0xb
 4053 02de 39       		.uleb128 0x39
 4054 02df 0B       		.uleb128 0xb
 4055 02e0 27       		.uleb128 0x27
 4056 02e1 19       		.uleb128 0x19
 4057 02e2 49       		.uleb128 0x49
 4058 02e3 13       		.uleb128 0x13
 4059 02e4 20       		.uleb128 0x20
 4060 02e5 0B       		.uleb128 0xb
 4061 02e6 01       		.uleb128 0x1
 4062 02e7 13       		.uleb128 0x13
 4063 02e8 00       		.byte	0
 4064 02e9 00       		.byte	0
 4065 02ea 34       		.uleb128 0x34
 4066 02eb 05       		.uleb128 0x5
 4067 02ec 00       		.byte	0
 4068 02ed 03       		.uleb128 0x3
 4069 02ee 08       		.uleb128 0x8
 4070 02ef 3A       		.uleb128 0x3a
 4071 02f0 0B       		.uleb128 0xb
 4072 02f1 3B       		.uleb128 0x3b
 4073 02f2 0B       		.uleb128 0xb
 4074 02f3 39       		.uleb128 0x39
 4075 02f4 0B       		.uleb128 0xb
 4076 02f5 49       		.uleb128 0x49
ARM GAS  /tmp/ccViN8cm.s 			page 73


 4077 02f6 13       		.uleb128 0x13
 4078 02f7 00       		.byte	0
 4079 02f8 00       		.byte	0
 4080 02f9 35       		.uleb128 0x35
 4081 02fa 05       		.uleb128 0x5
 4082 02fb 00       		.byte	0
 4083 02fc 03       		.uleb128 0x3
 4084 02fd 0E       		.uleb128 0xe
 4085 02fe 3A       		.uleb128 0x3a
 4086 02ff 0B       		.uleb128 0xb
 4087 0300 3B       		.uleb128 0x3b
 4088 0301 0B       		.uleb128 0xb
 4089 0302 39       		.uleb128 0x39
 4090 0303 0B       		.uleb128 0xb
 4091 0304 49       		.uleb128 0x49
 4092 0305 13       		.uleb128 0x13
 4093 0306 00       		.byte	0
 4094 0307 00       		.byte	0
 4095 0308 36       		.uleb128 0x36
 4096 0309 2E       		.uleb128 0x2e
 4097 030a 00       		.byte	0
 4098 030b 03       		.uleb128 0x3
 4099 030c 0E       		.uleb128 0xe
 4100 030d 3A       		.uleb128 0x3a
 4101 030e 0B       		.uleb128 0xb
 4102 030f 3B       		.uleb128 0x3b
 4103 0310 05       		.uleb128 0x5
 4104 0311 39       		.uleb128 0x39
 4105 0312 0B       		.uleb128 0xb
 4106 0313 27       		.uleb128 0x27
 4107 0314 19       		.uleb128 0x19
 4108 0315 49       		.uleb128 0x49
 4109 0316 13       		.uleb128 0x13
 4110 0317 20       		.uleb128 0x20
 4111 0318 0B       		.uleb128 0xb
 4112 0319 00       		.byte	0
 4113 031a 00       		.byte	0
 4114 031b 37       		.uleb128 0x37
 4115 031c 2E       		.uleb128 0x2e
 4116 031d 00       		.byte	0
 4117 031e 3F       		.uleb128 0x3f
 4118 031f 19       		.uleb128 0x19
 4119 0320 3C       		.uleb128 0x3c
 4120 0321 19       		.uleb128 0x19
 4121 0322 6E       		.uleb128 0x6e
 4122 0323 0E       		.uleb128 0xe
 4123 0324 03       		.uleb128 0x3
 4124 0325 0E       		.uleb128 0xe
 4125 0326 3A       		.uleb128 0x3a
 4126 0327 0B       		.uleb128 0xb
 4127 0328 3B       		.uleb128 0x3b
 4128 0329 05       		.uleb128 0x5
 4129 032a 39       		.uleb128 0x39
 4130 032b 0B       		.uleb128 0xb
 4131 032c 00       		.byte	0
 4132 032d 00       		.byte	0
 4133 032e 38       		.uleb128 0x38
ARM GAS  /tmp/ccViN8cm.s 			page 74


 4134 032f 2E       		.uleb128 0x2e
 4135 0330 00       		.byte	0
 4136 0331 3F       		.uleb128 0x3f
 4137 0332 19       		.uleb128 0x19
 4138 0333 3C       		.uleb128 0x3c
 4139 0334 19       		.uleb128 0x19
 4140 0335 6E       		.uleb128 0x6e
 4141 0336 0E       		.uleb128 0xe
 4142 0337 03       		.uleb128 0x3
 4143 0338 0E       		.uleb128 0xe
 4144 0339 3A       		.uleb128 0x3a
 4145 033a 0B       		.uleb128 0xb
 4146 033b 3B       		.uleb128 0x3b
 4147 033c 0B       		.uleb128 0xb
 4148 033d 39       		.uleb128 0x39
 4149 033e 0B       		.uleb128 0xb
 4150 033f 00       		.byte	0
 4151 0340 00       		.byte	0
 4152 0341 00       		.byte	0
 4153              		.section	.debug_loc,"",%progbits
 4154              	.Ldebug_loc0:
 4155              	.LVUS11:
 4156 0000 00       		.uleb128 .LVU99
 4157 0001 00       		.uleb128 .LVU108
 4158 0002 00       		.uleb128 .LVU108
 4159 0003 00       		.uleb128 .LVU173
 4160              	.LLST11:
 4161 0004 3A000000 		.4byte	.LVL25
 4162 0008 3D000000 		.4byte	.LVL26-1
 4163 000c 0100     		.2byte	0x1
 4164 000e 50       		.byte	0x50
 4165 000f 3D000000 		.4byte	.LVL26-1
 4166 0013 38010000 		.4byte	.LVL59
 4167 0017 0100     		.2byte	0x1
 4168 0019 55       		.byte	0x55
 4169 001a 00000000 		.4byte	0
 4170 001e 00000000 		.4byte	0
 4171              	.LVUS12:
 4172 0022 00       		.uleb128 .LVU108
 4173 0023 00       		.uleb128 .LVU110
 4174 0024 00       		.uleb128 .LVU110
 4175 0025 00       		.uleb128 .LVU111
 4176 0026 00       		.uleb128 .LVU119
 4177 0027 00       		.uleb128 .LVU121
 4178 0028 00       		.uleb128 .LVU121
 4179 0029 00       		.uleb128 .LVU122
 4180 002a 00       		.uleb128 .LVU128
 4181 002b 00       		.uleb128 .LVU130
 4182 002c 00       		.uleb128 .LVU130
 4183 002d 00       		.uleb128 .LVU131
 4184 002e 00       		.uleb128 .LVU137
 4185 002f 00       		.uleb128 .LVU139
 4186 0030 00       		.uleb128 .LVU139
 4187 0031 00       		.uleb128 .LVU140
 4188 0032 00       		.uleb128 .LVU146
 4189 0033 00       		.uleb128 .LVU148
 4190 0034 00       		.uleb128 .LVU148
ARM GAS  /tmp/ccViN8cm.s 			page 75


 4191 0035 00       		.uleb128 .LVU149
 4192 0036 00       		.uleb128 .LVU155
 4193 0037 00       		.uleb128 .LVU157
 4194 0038 00       		.uleb128 .LVU157
 4195 0039 00       		.uleb128 .LVU158
 4196              	.LLST12:
 4197 003a 3E000000 		.4byte	.LVL26
 4198 003e 44000000 		.4byte	.LVL27
 4199 0042 0100     		.2byte	0x1
 4200 0044 50       		.byte	0x50
 4201 0045 44000000 		.4byte	.LVL27
 4202 0049 48000000 		.4byte	.LVL28
 4203 004d 0500     		.2byte	0x5
 4204 004f 70       		.byte	0x70
 4205 0050 AAAB01   		.sleb128 21930
 4206 0053 9F       		.byte	0x9f
 4207 0054 62000000 		.4byte	.LVL31
 4208 0058 66000000 		.4byte	.LVL32
 4209 005c 0100     		.2byte	0x1
 4210 005e 50       		.byte	0x50
 4211 005f 66000000 		.4byte	.LVL32
 4212 0063 6A000000 		.4byte	.LVL33
 4213 0067 0400     		.2byte	0x4
 4214 0069 70       		.byte	0x70
 4215 006a C100     		.sleb128 65
 4216 006c 9F       		.byte	0x9f
 4217 006d 86000000 		.4byte	.LVL36
 4218 0071 8A000000 		.4byte	.LVL37
 4219 0075 0100     		.2byte	0x1
 4220 0077 50       		.byte	0x50
 4221 0078 8A000000 		.4byte	.LVL37
 4222 007c 8E000000 		.4byte	.LVL38
 4223 0080 0400     		.2byte	0x4
 4224 0082 70       		.byte	0x70
 4225 0083 C200     		.sleb128 66
 4226 0085 9F       		.byte	0x9f
 4227 0086 AE000000 		.4byte	.LVL41
 4228 008a B2000000 		.4byte	.LVL42
 4229 008e 0100     		.2byte	0x1
 4230 0090 50       		.byte	0x50
 4231 0091 B2000000 		.4byte	.LVL42
 4232 0095 B6000000 		.4byte	.LVL43
 4233 0099 0400     		.2byte	0x4
 4234 009b 70       		.byte	0x70
 4235 009c C400     		.sleb128 68
 4236 009e 9F       		.byte	0x9f
 4237 009f DA000000 		.4byte	.LVL46
 4238 00a3 DE000000 		.4byte	.LVL47
 4239 00a7 0100     		.2byte	0x1
 4240 00a9 50       		.byte	0x50
 4241 00aa DE000000 		.4byte	.LVL47
 4242 00ae E2000000 		.4byte	.LVL48
 4243 00b2 0400     		.2byte	0x4
 4244 00b4 70       		.byte	0x70
 4245 00b5 C700     		.sleb128 71
 4246 00b7 9F       		.byte	0x9f
 4247 00b8 F8000000 		.4byte	.LVL51
ARM GAS  /tmp/ccViN8cm.s 			page 76


 4248 00bc FE000000 		.4byte	.LVL52
 4249 00c0 0100     		.2byte	0x1
 4250 00c2 50       		.byte	0x50
 4251 00c3 FE000000 		.4byte	.LVL52
 4252 00c7 02010000 		.4byte	.LVL53
 4253 00cb 0500     		.2byte	0x5
 4254 00cd 70       		.byte	0x70
 4255 00ce D5D402   		.sleb128 43605
 4256 00d1 9F       		.byte	0x9f
 4257 00d2 00000000 		.4byte	0
 4258 00d6 00000000 		.4byte	0
 4259              	.LVUS13:
 4260 00da 06       		.uleb128 .LVU105
 4261 00db 00       		.uleb128 .LVU108
 4262 00dc 00       		.uleb128 .LVU108
 4263 00dd 00       		.uleb128 .LVU108
 4264              	.LLST13:
 4265 00de 3A000000 		.4byte	.LVL25
 4266 00e2 3D000000 		.4byte	.LVL26-1
 4267 00e6 0100     		.2byte	0x1
 4268 00e8 50       		.byte	0x50
 4269 00e9 3D000000 		.4byte	.LVL26-1
 4270 00ed 3E000000 		.4byte	.LVL26
 4271 00f1 0100     		.2byte	0x1
 4272 00f3 55       		.byte	0x55
 4273 00f4 00000000 		.4byte	0
 4274 00f8 00000000 		.4byte	0
 4275              	.LVUS14:
 4276 00fc 02       		.uleb128 .LVU116
 4277 00fd 00       		.uleb128 .LVU119
 4278              	.LLST14:
 4279 00fe 56000000 		.4byte	.LVL30
 4280 0102 62000000 		.4byte	.LVL31
 4281 0106 0300     		.2byte	0x3
 4282 0108 08       		.byte	0x8
 4283 0109 41       		.byte	0x41
 4284 010a 9F       		.byte	0x9f
 4285 010b 00000000 		.4byte	0
 4286 010f 00000000 		.4byte	0
 4287              	.LVUS15:
 4288 0113 02       		.uleb128 .LVU116
 4289 0114 00       		.uleb128 .LVU119
 4290              	.LLST15:
 4291 0115 56000000 		.4byte	.LVL30
 4292 0119 62000000 		.4byte	.LVL31
 4293 011d 0100     		.2byte	0x1
 4294 011f 55       		.byte	0x55
 4295 0120 00000000 		.4byte	0
 4296 0124 00000000 		.4byte	0
 4297              	.LVUS16:
 4298 0128 02       		.uleb128 .LVU125
 4299 0129 00       		.uleb128 .LVU128
 4300              	.LLST16:
 4301 012a 76000000 		.4byte	.LVL35
 4302 012e 86000000 		.4byte	.LVL36
 4303 0132 0300     		.2byte	0x3
 4304 0134 08       		.byte	0x8
ARM GAS  /tmp/ccViN8cm.s 			page 77


 4305 0135 43       		.byte	0x43
 4306 0136 9F       		.byte	0x9f
 4307 0137 00000000 		.4byte	0
 4308 013b 00000000 		.4byte	0
 4309              	.LVUS17:
 4310 013f 02       		.uleb128 .LVU125
 4311 0140 00       		.uleb128 .LVU128
 4312              	.LLST17:
 4313 0141 76000000 		.4byte	.LVL35
 4314 0145 86000000 		.4byte	.LVL36
 4315 0149 0300     		.2byte	0x3
 4316 014b 08       		.byte	0x8
 4317 014c 42       		.byte	0x42
 4318 014d 9F       		.byte	0x9f
 4319 014e 00000000 		.4byte	0
 4320 0152 00000000 		.4byte	0
 4321              	.LVUS18:
 4322 0156 02       		.uleb128 .LVU125
 4323 0157 00       		.uleb128 .LVU128
 4324              	.LLST18:
 4325 0158 76000000 		.4byte	.LVL35
 4326 015c 86000000 		.4byte	.LVL36
 4327 0160 0100     		.2byte	0x1
 4328 0162 55       		.byte	0x55
 4329 0163 00000000 		.4byte	0
 4330 0167 00000000 		.4byte	0
 4331              	.LVUS19:
 4332 016b 02       		.uleb128 .LVU134
 4333 016c 00       		.uleb128 .LVU137
 4334              	.LLST19:
 4335 016d 9A000000 		.4byte	.LVL40
 4336 0171 AE000000 		.4byte	.LVL41
 4337 0175 0300     		.2byte	0x3
 4338 0177 08       		.byte	0x8
 4339 0178 46       		.byte	0x46
 4340 0179 9F       		.byte	0x9f
 4341 017a 00000000 		.4byte	0
 4342 017e 00000000 		.4byte	0
 4343              	.LVUS20:
 4344 0182 02       		.uleb128 .LVU134
 4345 0183 00       		.uleb128 .LVU137
 4346              	.LLST20:
 4347 0184 9A000000 		.4byte	.LVL40
 4348 0188 AE000000 		.4byte	.LVL41
 4349 018c 0300     		.2byte	0x3
 4350 018e 08       		.byte	0x8
 4351 018f 45       		.byte	0x45
 4352 0190 9F       		.byte	0x9f
 4353 0191 00000000 		.4byte	0
 4354 0195 00000000 		.4byte	0
 4355              	.LVUS21:
 4356 0199 02       		.uleb128 .LVU134
 4357 019a 00       		.uleb128 .LVU137
 4358              	.LLST21:
 4359 019b 9A000000 		.4byte	.LVL40
 4360 019f AE000000 		.4byte	.LVL41
 4361 01a3 0300     		.2byte	0x3
ARM GAS  /tmp/ccViN8cm.s 			page 78


 4362 01a5 08       		.byte	0x8
 4363 01a6 44       		.byte	0x44
 4364 01a7 9F       		.byte	0x9f
 4365 01a8 00000000 		.4byte	0
 4366 01ac 00000000 		.4byte	0
 4367              	.LVUS22:
 4368 01b0 02       		.uleb128 .LVU134
 4369 01b1 00       		.uleb128 .LVU137
 4370              	.LLST22:
 4371 01b2 9A000000 		.4byte	.LVL40
 4372 01b6 AE000000 		.4byte	.LVL41
 4373 01ba 0100     		.2byte	0x1
 4374 01bc 55       		.byte	0x55
 4375 01bd 00000000 		.4byte	0
 4376 01c1 00000000 		.4byte	0
 4377              	.LVUS23:
 4378 01c5 02       		.uleb128 .LVU143
 4379 01c6 00       		.uleb128 .LVU146
 4380              	.LLST23:
 4381 01c7 C2000000 		.4byte	.LVL45
 4382 01cb DA000000 		.4byte	.LVL46
 4383 01cf 0300     		.2byte	0x3
 4384 01d1 08       		.byte	0x8
 4385 01d2 4A       		.byte	0x4a
 4386 01d3 9F       		.byte	0x9f
 4387 01d4 00000000 		.4byte	0
 4388 01d8 00000000 		.4byte	0
 4389              	.LVUS24:
 4390 01dc 02       		.uleb128 .LVU143
 4391 01dd 00       		.uleb128 .LVU146
 4392              	.LLST24:
 4393 01de C2000000 		.4byte	.LVL45
 4394 01e2 DA000000 		.4byte	.LVL46
 4395 01e6 0300     		.2byte	0x3
 4396 01e8 08       		.byte	0x8
 4397 01e9 49       		.byte	0x49
 4398 01ea 9F       		.byte	0x9f
 4399 01eb 00000000 		.4byte	0
 4400 01ef 00000000 		.4byte	0
 4401              	.LVUS25:
 4402 01f3 02       		.uleb128 .LVU143
 4403 01f4 00       		.uleb128 .LVU146
 4404              	.LLST25:
 4405 01f5 C2000000 		.4byte	.LVL45
 4406 01f9 DA000000 		.4byte	.LVL46
 4407 01fd 0300     		.2byte	0x3
 4408 01ff 08       		.byte	0x8
 4409 0200 48       		.byte	0x48
 4410 0201 9F       		.byte	0x9f
 4411 0202 00000000 		.4byte	0
 4412 0206 00000000 		.4byte	0
 4413              	.LVUS26:
 4414 020a 02       		.uleb128 .LVU143
 4415 020b 00       		.uleb128 .LVU146
 4416              	.LLST26:
 4417 020c C2000000 		.4byte	.LVL45
 4418 0210 DA000000 		.4byte	.LVL46
ARM GAS  /tmp/ccViN8cm.s 			page 79


 4419 0214 0300     		.2byte	0x3
 4420 0216 08       		.byte	0x8
 4421 0217 47       		.byte	0x47
 4422 0218 9F       		.byte	0x9f
 4423 0219 00000000 		.4byte	0
 4424 021d 00000000 		.4byte	0
 4425              	.LVUS27:
 4426 0221 02       		.uleb128 .LVU143
 4427 0222 00       		.uleb128 .LVU146
 4428              	.LLST27:
 4429 0223 C2000000 		.4byte	.LVL45
 4430 0227 DA000000 		.4byte	.LVL46
 4431 022b 0100     		.2byte	0x1
 4432 022d 55       		.byte	0x55
 4433 022e 00000000 		.4byte	0
 4434 0232 00000000 		.4byte	0
 4435              	.LVUS28:
 4436 0236 02       		.uleb128 .LVU152
 4437 0237 00       		.uleb128 .LVU155
 4438              	.LLST28:
 4439 0238 EE000000 		.4byte	.LVL50
 4440 023c F8000000 		.4byte	.LVL51
 4441 0240 0100     		.2byte	0x1
 4442 0242 55       		.byte	0x55
 4443 0243 00000000 		.4byte	0
 4444 0247 00000000 		.4byte	0
 4445              	.LVUS29:
 4446 024b 00       		.uleb128 .LVU169
 4447 024c 00       		.uleb128 .LVU170
 4448 024d 00       		.uleb128 .LVU170
 4449 024e 00       		.uleb128 .LVU171
 4450              	.LLST29:
 4451 024f 24010000 		.4byte	.LVL56
 4452 0253 2A010000 		.4byte	.LVL57
 4453 0257 0100     		.2byte	0x1
 4454 0259 50       		.byte	0x50
 4455 025a 2A010000 		.4byte	.LVL57
 4456 025e 30010000 		.4byte	.LVL58
 4457 0262 0400     		.2byte	0x4
 4458 0264 70       		.byte	0x70
 4459 0265 A51F     		.sleb128 4005
 4460 0267 9F       		.byte	0x9f
 4461 0268 00000000 		.4byte	0
 4462 026c 00000000 		.4byte	0
 4463              	.LVUS10:
 4464 0270 00       		.uleb128 0
 4465 0271 00       		.uleb128 .LVU63
 4466 0272 00       		.uleb128 .LVU63
 4467 0273 00       		.uleb128 0
 4468              	.LLST10:
 4469 0274 00000000 		.4byte	.LVL20
 4470 0278 08000000 		.4byte	.LVL21
 4471 027c 0100     		.2byte	0x1
 4472 027e 50       		.byte	0x50
 4473 027f 08000000 		.4byte	.LVL21
 4474 0283 24000000 		.4byte	.LFE410
 4475 0287 0400     		.2byte	0x4
ARM GAS  /tmp/ccViN8cm.s 			page 80


 4476 0289 F3       		.byte	0xf3
 4477 028a 01       		.uleb128 0x1
 4478 028b 50       		.byte	0x50
 4479 028c 9F       		.byte	0x9f
 4480 028d 00000000 		.4byte	0
 4481 0291 00000000 		.4byte	0
 4482              	.LVUS0:
 4483 0295 00       		.uleb128 0
 4484 0296 00       		.uleb128 .LVU13
 4485 0297 00       		.uleb128 .LVU13
 4486 0298 00       		.uleb128 0
 4487              	.LLST0:
 4488 0299 00000000 		.4byte	.LVL1
 4489 029d 08000000 		.4byte	.LVL2
 4490 02a1 0100     		.2byte	0x1
 4491 02a3 50       		.byte	0x50
 4492 02a4 08000000 		.4byte	.LVL2
 4493 02a8 26000000 		.4byte	.LFE408
 4494 02ac 0100     		.2byte	0x1
 4495 02ae 54       		.byte	0x54
 4496 02af 00000000 		.4byte	0
 4497 02b3 00000000 		.4byte	0
 4498              	.LVUS1:
 4499 02b7 00       		.uleb128 0
 4500 02b8 00       		.uleb128 .LVU15
 4501 02b9 00       		.uleb128 .LVU15
 4502 02ba 00       		.uleb128 0
 4503              	.LLST1:
 4504 02bb 00000000 		.4byte	.LVL1
 4505 02bf 0F000000 		.4byte	.LVL3-1
 4506 02c3 0100     		.2byte	0x1
 4507 02c5 51       		.byte	0x51
 4508 02c6 0F000000 		.4byte	.LVL3-1
 4509 02ca 26000000 		.4byte	.LFE408
 4510 02ce 0100     		.2byte	0x1
 4511 02d0 57       		.byte	0x57
 4512 02d1 00000000 		.4byte	0
 4513 02d5 00000000 		.4byte	0
 4514              	.LVUS2:
 4515 02d9 00       		.uleb128 0
 4516 02da 00       		.uleb128 .LVU15
 4517 02db 00       		.uleb128 .LVU15
 4518 02dc 00       		.uleb128 0
 4519              	.LLST2:
 4520 02dd 00000000 		.4byte	.LVL1
 4521 02e1 0F000000 		.4byte	.LVL3-1
 4522 02e5 0100     		.2byte	0x1
 4523 02e7 52       		.byte	0x52
 4524 02e8 0F000000 		.4byte	.LVL3-1
 4525 02ec 26000000 		.4byte	.LFE408
 4526 02f0 0100     		.2byte	0x1
 4527 02f2 56       		.byte	0x56
 4528 02f3 00000000 		.4byte	0
 4529 02f7 00000000 		.4byte	0
 4530              	.LVUS3:
 4531 02fb 00       		.uleb128 0
 4532 02fc 00       		.uleb128 .LVU15
ARM GAS  /tmp/ccViN8cm.s 			page 81


 4533 02fd 00       		.uleb128 .LVU15
 4534 02fe 00       		.uleb128 0
 4535              	.LLST3:
 4536 02ff 00000000 		.4byte	.LVL1
 4537 0303 0F000000 		.4byte	.LVL3-1
 4538 0307 0100     		.2byte	0x1
 4539 0309 53       		.byte	0x53
 4540 030a 0F000000 		.4byte	.LVL3-1
 4541 030e 26000000 		.4byte	.LFE408
 4542 0312 0100     		.2byte	0x1
 4543 0314 55       		.byte	0x55
 4544 0315 00000000 		.4byte	0
 4545 0319 00000000 		.4byte	0
 4546              	.LVUS4:
 4547 031d 00       		.uleb128 0
 4548 031e 00       		.uleb128 .LVU26
 4549 031f 00       		.uleb128 .LVU26
 4550 0320 00       		.uleb128 0
 4551              	.LLST4:
 4552 0321 00000000 		.4byte	.LVL7
 4553 0325 08000000 		.4byte	.LVL8
 4554 0329 0100     		.2byte	0x1
 4555 032b 50       		.byte	0x50
 4556 032c 08000000 		.4byte	.LVL8
 4557 0330 1E000000 		.4byte	.LFE407
 4558 0334 0100     		.2byte	0x1
 4559 0336 54       		.byte	0x54
 4560 0337 00000000 		.4byte	0
 4561 033b 00000000 		.4byte	0
 4562              	.LVUS5:
 4563 033f 00       		.uleb128 0
 4564 0340 00       		.uleb128 .LVU28
 4565 0341 00       		.uleb128 .LVU28
 4566 0342 00       		.uleb128 0
 4567              	.LLST5:
 4568 0343 00000000 		.4byte	.LVL7
 4569 0347 0D000000 		.4byte	.LVL9-1
 4570 034b 0100     		.2byte	0x1
 4571 034d 51       		.byte	0x51
 4572 034e 0D000000 		.4byte	.LVL9-1
 4573 0352 1E000000 		.4byte	.LFE407
 4574 0356 0100     		.2byte	0x1
 4575 0358 56       		.byte	0x56
 4576 0359 00000000 		.4byte	0
 4577 035d 00000000 		.4byte	0
 4578              	.LVUS6:
 4579 0361 00       		.uleb128 0
 4580 0362 00       		.uleb128 .LVU28
 4581 0363 00       		.uleb128 .LVU28
 4582 0364 00       		.uleb128 0
 4583              	.LLST6:
 4584 0365 00000000 		.4byte	.LVL7
 4585 0369 0D000000 		.4byte	.LVL9-1
 4586 036d 0100     		.2byte	0x1
 4587 036f 52       		.byte	0x52
 4588 0370 0D000000 		.4byte	.LVL9-1
 4589 0374 1E000000 		.4byte	.LFE407
ARM GAS  /tmp/ccViN8cm.s 			page 82


 4590 0378 0100     		.2byte	0x1
 4591 037a 55       		.byte	0x55
 4592 037b 00000000 		.4byte	0
 4593 037f 00000000 		.4byte	0
 4594              	.LVUS7:
 4595 0383 00       		.uleb128 0
 4596 0384 00       		.uleb128 .LVU38
 4597 0385 00       		.uleb128 .LVU38
 4598 0386 00       		.uleb128 0
 4599              	.LLST7:
 4600 0387 00000000 		.4byte	.LVL12
 4601 038b 08000000 		.4byte	.LVL13
 4602 038f 0100     		.2byte	0x1
 4603 0391 50       		.byte	0x50
 4604 0392 08000000 		.4byte	.LVL13
 4605 0396 16000000 		.4byte	.LFE406
 4606 039a 0100     		.2byte	0x1
 4607 039c 54       		.byte	0x54
 4608 039d 00000000 		.4byte	0
 4609 03a1 00000000 		.4byte	0
 4610              	.LVUS8:
 4611 03a5 00       		.uleb128 0
 4612 03a6 00       		.uleb128 .LVU39
 4613 03a7 00       		.uleb128 .LVU39
 4614 03a8 00       		.uleb128 0
 4615              	.LLST8:
 4616 03a9 00000000 		.4byte	.LVL12
 4617 03ad 0B000000 		.4byte	.LVL14-1
 4618 03b1 0100     		.2byte	0x1
 4619 03b3 51       		.byte	0x51
 4620 03b4 0B000000 		.4byte	.LVL14-1
 4621 03b8 16000000 		.4byte	.LFE406
 4622 03bc 0100     		.2byte	0x1
 4623 03be 55       		.byte	0x55
 4624 03bf 00000000 		.4byte	0
 4625 03c3 00000000 		.4byte	0
 4626              	.LVUS9:
 4627 03c7 00       		.uleb128 0
 4628 03c8 00       		.uleb128 .LVU48
 4629 03c9 00       		.uleb128 .LVU48
 4630 03ca 00       		.uleb128 0
 4631              	.LLST9:
 4632 03cb 00000000 		.4byte	.LVL16
 4633 03cf 06000000 		.4byte	.LVL17
 4634 03d3 0100     		.2byte	0x1
 4635 03d5 50       		.byte	0x50
 4636 03d6 06000000 		.4byte	.LVL17
 4637 03da 0E000000 		.4byte	.LFE405
 4638 03de 0100     		.2byte	0x1
 4639 03e0 54       		.byte	0x54
 4640 03e1 00000000 		.4byte	0
 4641 03e5 00000000 		.4byte	0
 4642              		.section	.debug_aranges,"",%progbits
 4643 0000 54000000 		.4byte	0x54
 4644 0004 0200     		.2byte	0x2
 4645 0006 00000000 		.4byte	.Ldebug_info0
 4646 000a 04       		.byte	0x4
ARM GAS  /tmp/ccViN8cm.s 			page 83


 4647 000b 00       		.byte	0
 4648 000c 0000     		.2byte	0
 4649 000e 0000     		.2byte	0
 4650 0010 00000000 		.4byte	.LFB409
 4651 0014 18000000 		.4byte	.LFE409-.LFB409
 4652 0018 00000000 		.4byte	.LFB408
 4653 001c 26000000 		.4byte	.LFE408-.LFB408
 4654 0020 00000000 		.4byte	.LFB407
 4655 0024 1E000000 		.4byte	.LFE407-.LFB407
 4656 0028 00000000 		.4byte	.LFB406
 4657 002c 16000000 		.4byte	.LFE406-.LFB406
 4658 0030 00000000 		.4byte	.LFB405
 4659 0034 0E000000 		.4byte	.LFE405-.LFB405
 4660 0038 00000000 		.4byte	.LFB404
 4661 003c 0E000000 		.4byte	.LFE404-.LFB404
 4662 0040 00000000 		.4byte	.LFB410
 4663 0044 24000000 		.4byte	.LFE410-.LFB410
 4664 0048 00000000 		.4byte	.LFB411
 4665 004c 8C010000 		.4byte	.LFE411-.LFB411
 4666 0050 00000000 		.4byte	0
 4667 0054 00000000 		.4byte	0
 4668              		.section	.debug_ranges,"",%progbits
 4669              	.Ldebug_ranges0:
 4670 0000 02000000 		.4byte	.LBB23
 4671 0004 0C000000 		.4byte	.LBE23
 4672 0008 10000000 		.4byte	.LBB34
 4673 000c 22000000 		.4byte	.LBE34
 4674 0010 24000000 		.4byte	.LBB35
 4675 0014 2A000000 		.4byte	.LBE35
 4676 0018 2C000000 		.4byte	.LBB36
 4677 001c 30000000 		.4byte	.LBE36
 4678 0020 38000000 		.4byte	.LBB52
 4679 0024 3A000000 		.4byte	.LBE52
 4680 0028 00000000 		.4byte	0
 4681 002c 00000000 		.4byte	0
 4682 0030 02000000 		.4byte	.LBB24
 4683 0034 04000000 		.4byte	.LBE24
 4684 0038 06000000 		.4byte	.LBB32
 4685 003c 08000000 		.4byte	.LBE32
 4686 0040 2C000000 		.4byte	.LBB33
 4687 0044 2C000000 		.4byte	.LBE33
 4688 0048 00000000 		.4byte	0
 4689 004c 00000000 		.4byte	0
 4690 0050 02000000 		.4byte	.LBB26
 4691 0054 04000000 		.4byte	.LBE26
 4692 0058 2C000000 		.4byte	.LBB29
 4693 005c 2C000000 		.4byte	.LBE29
 4694 0060 00000000 		.4byte	0
 4695 0064 00000000 		.4byte	0
 4696 0068 32000000 		.4byte	.LBB37
 4697 006c 36000000 		.4byte	.LBE37
 4698 0070 3A000000 		.4byte	.LBB53
 4699 0074 52000000 		.4byte	.LBE53
 4700 0078 56000000 		.4byte	.LBB54
 4701 007c 1A010000 		.4byte	.LBE54
 4702 0080 00000000 		.4byte	0
 4703 0084 00000000 		.4byte	0
ARM GAS  /tmp/ccViN8cm.s 			page 84


 4704 0088 32000000 		.4byte	.LBB38
 4705 008c 36000000 		.4byte	.LBE38
 4706 0090 3A000000 		.4byte	.LBB41
 4707 0094 3E000000 		.4byte	.LBE41
 4708 0098 00000000 		.4byte	0
 4709 009c 00000000 		.4byte	0
 4710 00a0 1C010000 		.4byte	.LBB55
 4711 00a4 1E010000 		.4byte	.LBE55
 4712 00a8 20010000 		.4byte	.LBB56
 4713 00ac 32010000 		.4byte	.LBE56
 4714 00b0 38010000 		.4byte	.LBB57
 4715 00b4 8C010000 		.4byte	.LBE57
 4716 00b8 00000000 		.4byte	0
 4717 00bc 00000000 		.4byte	0
 4718 00c0 00000000 		.4byte	.LFB409
 4719 00c4 18000000 		.4byte	.LFE409
 4720 00c8 00000000 		.4byte	.LFB408
 4721 00cc 26000000 		.4byte	.LFE408
 4722 00d0 00000000 		.4byte	.LFB407
 4723 00d4 1E000000 		.4byte	.LFE407
 4724 00d8 00000000 		.4byte	.LFB406
 4725 00dc 16000000 		.4byte	.LFE406
 4726 00e0 00000000 		.4byte	.LFB405
 4727 00e4 0E000000 		.4byte	.LFE405
 4728 00e8 00000000 		.4byte	.LFB404
 4729 00ec 0E000000 		.4byte	.LFE404
 4730 00f0 00000000 		.4byte	.LFB410
 4731 00f4 24000000 		.4byte	.LFE410
 4732 00f8 00000000 		.4byte	.LFB411
 4733 00fc 8C010000 		.4byte	.LFE411
 4734 0100 00000000 		.4byte	0
 4735 0104 00000000 		.4byte	0
 4736              		.section	.debug_line,"",%progbits
 4737              	.Ldebug_line0:
 4738 0000 18060000 		.section	.debug_str,"MS",%progbits,1
 4738      03001403 
 4738      00000201 
 4738      FB0E0D00 
 4738      01010101 
 4739              	.LASF107:
 4740 0000 7466756E 		.ascii	"tfunc_t\000"
 4740      635F7400 
 4741              	.LASF100:
 4742 0008 72656164 		.ascii	"ready_list_t\000"
 4742      795F6C69 
 4742      73745F74 
 4742      00
 4743              	.LASF50:
 4744 0015 72666375 		.ascii	"rfcu\000"
 4744      00
 4745              	.LASF149:
 4746 001a 6469735F 		.ascii	"dis_func_end\000"
 4746      66756E63 
 4746      5F656E64 
 4746      00
 4747              	.LASF4:
 4748 0027 73697A65 		.ascii	"size_t\000"
ARM GAS  /tmp/ccViN8cm.s 			page 85


 4748      5F7400
 4749              	.LASF74:
 4750 002e 64656C74 		.ascii	"delta\000"
 4750      6100
 4751              	.LASF88:
 4752 0034 7264796D 		.ascii	"rdymsg\000"
 4752      736700
 4753              	.LASF110:
 4754 003b 66756E63 		.ascii	"funcp\000"
 4754      7000
 4755              	.LASF145:
 4756 0041 6F736C69 		.ascii	"oslib_test_sequence_005_array\000"
 4756      625F7465 
 4756      73745F73 
 4756      65717565 
 4756      6E63655F 
 4757              	.LASF18:
 4758 005f 75696E74 		.ascii	"uint64_t\000"
 4758      36345F74 
 4758      00
 4759              	.LASF5:
 4760 0068 5F5F7569 		.ascii	"__uint8_t\000"
 4760      6E74385F 
 4760      7400
 4761              	.LASF68:
 4762 0072 70726576 		.ascii	"prev\000"
 4762      00
 4763              	.LASF75:
 4764 0077 706F7274 		.ascii	"port_intctx\000"
 4764      5F696E74 
 4764      63747800 
 4765              	.LASF60:
 4766 0083 73797374 		.ascii	"system_debug_t\000"
 4766      656D5F64 
 4766      65627567 
 4766      5F7400
 4767              	.LASF49:
 4768 0092 636F7265 		.ascii	"core_id\000"
 4768      5F696400 
 4769              	.LASF111:
 4770 009a 74687265 		.ascii	"thread_descriptor_t\000"
 4770      61645F64 
 4770      65736372 
 4770      6970746F 
 4770      725F7400 
 4771              	.LASF147:
 4772 00ae 6F736C69 		.ascii	"oslib_test_005_001_execute\000"
 4772      625F7465 
 4772      73745F30 
 4772      30355F30 
 4772      30315F65 
 4773              	.LASF69:
 4774 00c9 63685F70 		.ascii	"ch_priority_queue_t\000"
 4774      72696F72 
 4774      6974795F 
 4774      71756575 
 4774      655F7400 
ARM GAS  /tmp/ccViN8cm.s 			page 86


 4775              	.LASF101:
 4776 00dd 63685F6F 		.ascii	"ch_os_instance_config\000"
 4776      735F696E 
 4776      7374616E 
 4776      63655F63 
 4776      6F6E6669 
 4777              	.LASF109:
 4778 00f3 77656E64 		.ascii	"wend\000"
 4778      00
 4779              	.LASF14:
 4780 00f8 6C6F6E67 		.ascii	"long long unsigned int\000"
 4780      206C6F6E 
 4780      6720756E 
 4780      7369676E 
 4780      65642069 
 4781              	.LASF89:
 4782 010f 65786974 		.ascii	"exitcode\000"
 4782      636F6465 
 4782      00
 4783              	.LASF52:
 4784 0118 6D61696E 		.ascii	"mainthread\000"
 4784      74687265 
 4784      616400
 4785              	.LASF92:
 4786 0123 73656E74 		.ascii	"sentmsg\000"
 4786      6D736700 
 4787              	.LASF81:
 4788 012b 76697274 		.ascii	"virtual_timers_list_t\000"
 4788      75616C5F 
 4788      74696D65 
 4788      72735F6C 
 4788      6973745F 
 4789              	.LASF65:
 4790 0141 6E657874 		.ascii	"next\000"
 4790      00
 4791              	.LASF135:
 4792 0146 74656172 		.ascii	"teardown\000"
 4792      646F776E 
 4792      00
 4793              	.LASF36:
 4794 014f 72656673 		.ascii	"refs\000"
 4794      00
 4795              	.LASF130:
 4796 0154 746F6B65 		.ascii	"tokens_buffer\000"
 4796      6E735F62 
 4796      75666665 
 4796      7200
 4797              	.LASF1:
 4798 0162 6C6F6E67 		.ascii	"long long int\000"
 4798      206C6F6E 
 4798      6720696E 
 4798      7400
 4799              	.LASF3:
 4800 0170 7369676E 		.ascii	"signed char\000"
 4800      65642063 
 4800      68617200 
 4801              	.LASF169:
ARM GAS  /tmp/ccViN8cm.s 			page 87


 4802 017c 63685468 		.ascii	"chThdExit\000"
 4802      64457869 
 4802      7400
 4803              	.LASF139:
 4804 0186 74657374 		.ascii	"testsequence_t\000"
 4804      73657175 
 4804      656E6365 
 4804      5F7400
 4805              	.LASF73:
 4806 0195 63685F64 		.ascii	"ch_delta_list\000"
 4806      656C7461 
 4806      5F6C6973 
 4806      7400
 4807              	.LASF118:
 4808 01a3 64656C65 		.ascii	"delegate_fn4_t\000"
 4808      67617465 
 4808      5F666E34 
 4808      5F7400
 4809              	.LASF170:
 4810 01b2 74657374 		.ascii	"test_emit_token\000"
 4810      5F656D69 
 4810      745F746F 
 4810      6B656E00 
 4811              	.LASF47:
 4812 01c2 76746C69 		.ascii	"vtlist\000"
 4812      737400
 4813              	.LASF166:
 4814 01c9 5F5F7465 		.ascii	"__test_assert_sequence\000"
 4814      73745F61 
 4814      73736572 
 4814      745F7365 
 4814      7175656E 
 4815              	.LASF38:
 4816 01e0 6D736771 		.ascii	"msgqueue\000"
 4816      75657565 
 4816      00
 4817              	.LASF133:
 4818 01e9 63685F74 		.ascii	"ch_test_context_t\000"
 4818      6573745F 
 4818      636F6E74 
 4818      6578745F 
 4818      7400
 4819              	.LASF34:
 4820 01fb 73746174 		.ascii	"state\000"
 4820      6500
 4821              	.LASF10:
 4822 0201 6C6F6E67 		.ascii	"long int\000"
 4822      20696E74 
 4822      00
 4823              	.LASF141:
 4824 020a 6F736C69 		.ascii	"oslib_test_sequence_005\000"
 4824      625F7465 
 4824      73745F73 
 4824      65717565 
 4824      6E63655F 
 4825              	.LASF126:
 4826 0222 676C6F62 		.ascii	"global_fail\000"
ARM GAS  /tmp/ccViN8cm.s 			page 88


 4826      616C5F66 
 4826      61696C00 
 4827              	.LASF22:
 4828 022e 74737461 		.ascii	"tstate_t\000"
 4828      74655F74 
 4828      00
 4829              	.LASF54:
 4830 0237 63685F72 		.ascii	"ch_rfcu\000"
 4830      66637500 
 4831              	.LASF67:
 4832 023f 63685F71 		.ascii	"ch_queue\000"
 4832      75657565 
 4832      00
 4833              	.LASF131:
 4834 0248 70757463 		.ascii	"putchar\000"
 4834      68617200 
 4835              	.LASF7:
 4836 0250 73686F72 		.ascii	"short int\000"
 4836      7420696E 
 4836      7400
 4837              	.LASF146:
 4838 025a 72657476 		.ascii	"retval\000"
 4838      616C00
 4839              	.LASF140:
 4840 0261 63687465 		.ascii	"chtest\000"
 4840      737400
 4841              	.LASF72:
 4842 0268 63685F64 		.ascii	"ch_delta_list_t\000"
 4842      656C7461 
 4842      5F6C6973 
 4842      745F7400 
 4843              	.LASF129:
 4844 0278 746F6B70 		.ascii	"tokp\000"
 4844      00
 4845              	.LASF82:
 4846 027d 63685F72 		.ascii	"ch_registry\000"
 4846      65676973 
 4846      74727900 
 4847              	.LASF11:
 4848 0289 5F5F7569 		.ascii	"__uint32_t\000"
 4848      6E743332 
 4848      5F7400
 4849              	.LASF55:
 4850 0294 6D61736B 		.ascii	"mask\000"
 4850      00
 4851              	.LASF160:
 4852 0299 63684465 		.ascii	"chDelegateCallDirect0\000"
 4852      6C656761 
 4852      74654361 
 4852      6C6C4469 
 4852      72656374 
 4853              	.LASF159:
 4854 02af 63684465 		.ascii	"chDelegateCallDirect1\000"
 4854      6C656761 
 4854      74654361 
 4854      6C6C4469 
 4854      72656374 
ARM GAS  /tmp/ccViN8cm.s 			page 89


 4855              	.LASF158:
 4856 02c5 63684465 		.ascii	"chDelegateCallDirect2\000"
 4856      6C656761 
 4856      74654361 
 4856      6C6C4469 
 4856      72656374 
 4857              	.LASF157:
 4858 02db 63684465 		.ascii	"chDelegateCallDirect3\000"
 4858      6C656761 
 4858      74654361 
 4858      6C6C4469 
 4858      72656374 
 4859              	.LASF156:
 4860 02f1 63684465 		.ascii	"chDelegateCallDirect4\000"
 4860      6C656761 
 4860      74654361 
 4860      6C6C4469 
 4860      72656374 
 4861              	.LASF112:
 4862 0307 6D757465 		.ascii	"mutex_t\000"
 4862      785F7400 
 4863              	.LASF123:
 4864 030f 42617365 		.ascii	"BaseSequentialStream\000"
 4864      53657175 
 4864      656E7469 
 4864      616C5374 
 4864      7265616D 
 4865              	.LASF62:
 4866 0324 73797369 		.ascii	"sysinterval_t\000"
 4866      6E746572 
 4866      76616C5F 
 4866      7400
 4867              	.LASF27:
 4868 0332 636E745F 		.ascii	"cnt_t\000"
 4868      7400
 4869              	.LASF0:
 4870 0338 756E7369 		.ascii	"unsigned int\000"
 4870      676E6564 
 4870      20696E74 
 4870      00
 4871              	.LASF93:
 4872 0345 77747365 		.ascii	"wtsemp\000"
 4872      6D7000
 4873              	.LASF117:
 4874 034c 64656C65 		.ascii	"delegate_fn3_t\000"
 4874      67617465 
 4874      5F666E33 
 4874      5F7400
 4875              	.LASF115:
 4876 035b 64656C65 		.ascii	"delegate_fn1_t\000"
 4876      67617465 
 4876      5F666E31 
 4876      5F7400
 4877              	.LASF91:
 4878 036a 77747472 		.ascii	"wttrp\000"
 4878      7000
 4879              	.LASF30:
ARM GAS  /tmp/ccViN8cm.s 			page 90


 4880 0370 72717565 		.ascii	"rqueue\000"
 4880      756500
 4881              	.LASF66:
 4882 0377 63685F71 		.ascii	"ch_queue_t\000"
 4882      75657565 
 4882      5F7400
 4883              	.LASF83:
 4884 0382 71756575 		.ascii	"queue\000"
 4884      6500
 4885              	.LASF42:
 4886 0388 6D706F6F 		.ascii	"mpool\000"
 4886      6C00
 4887              	.LASF172:
 4888 038e 2E2E2F43 		.ascii	"../ChibiOS/test/oslib/source/test/oslib_test_sequen"
 4888      68696269 
 4888      4F532F74 
 4888      6573742F 
 4888      6F736C69 
 4889 03c1 63655F30 		.ascii	"ce_005.c\000"
 4889      30352E63 
 4889      00
 4890              	.LASF8:
 4891 03ca 73686F72 		.ascii	"short unsigned int\000"
 4891      7420756E 
 4891      7369676E 
 4891      65642069 
 4891      6E7400
 4892              	.LASF44:
 4893 03dd 63685F74 		.ascii	"ch_thread\000"
 4893      68726561 
 4893      6400
 4894              	.LASF32:
 4895 03e7 6E616D65 		.ascii	"name\000"
 4895      00
 4896              	.LASF25:
 4897 03ec 6D73675F 		.ascii	"msg_t\000"
 4897      7400
 4898              	.LASF39:
 4899 03f2 6570656E 		.ascii	"epending\000"
 4899      64696E67 
 4899      00
 4900              	.LASF153:
 4901 03fb 6469735F 		.ascii	"dis_func1\000"
 4901      66756E63 
 4901      3100
 4902              	.LASF152:
 4903 0405 6469735F 		.ascii	"dis_func2\000"
 4903      66756E63 
 4903      3200
 4904              	.LASF151:
 4905 040f 6469735F 		.ascii	"dis_func3\000"
 4905      66756E63 
 4905      3300
 4906              	.LASF150:
 4907 0419 6469735F 		.ascii	"dis_func4\000"
 4907      66756E63 
 4907      3400
ARM GAS  /tmp/ccViN8cm.s 			page 91


 4908              	.LASF21:
 4909 0423 746D6F64 		.ascii	"tmode_t\000"
 4909      655F7400 
 4910              	.LASF64:
 4911 042b 63685F6C 		.ascii	"ch_list\000"
 4911      69737400 
 4912              	.LASF98:
 4913 0433 63685F72 		.ascii	"ch_ready_list\000"
 4913      65616479 
 4913      5F6C6973 
 4913      7400
 4914              	.LASF26:
 4915 0441 6576656E 		.ascii	"eventmask_t\000"
 4915      746D6173 
 4915      6B5F7400 
 4916              	.LASF20:
 4917 044d 73746B61 		.ascii	"stkalign_t\000"
 4917      6C69676E 
 4917      5F7400
 4918              	.LASF137:
 4919 0458 74657374 		.ascii	"testcase_t\000"
 4919      63617365 
 4919      5F7400
 4920              	.LASF104:
 4921 0463 69646C65 		.ascii	"idlethread_base\000"
 4921      74687265 
 4921      61645F62 
 4921      61736500 
 4922              	.LASF80:
 4923 0473 6C617374 		.ascii	"laststamp\000"
 4923      7374616D 
 4923      7000
 4924              	.LASF121:
 4925 047d 77726974 		.ascii	"write\000"
 4925      6500
 4926              	.LASF41:
 4927 0483 7265616C 		.ascii	"realprio\000"
 4927      7072696F 
 4927      00
 4928              	.LASF53:
 4929 048c 72666375 		.ascii	"rfcu_mask_t\000"
 4929      5F6D6173 
 4929      6B5F7400 
 4930              	.LASF124:
 4931 0498 74657374 		.ascii	"test_putchar_t\000"
 4931      5F707574 
 4931      63686172 
 4931      5F7400
 4932              	.LASF85:
 4933 04a7 74687265 		.ascii	"thread_reference_t\000"
 4933      61645F72 
 4933      65666572 
 4933      656E6365 
 4933      5F7400
 4934              	.LASF77:
 4935 04ba 63685F76 		.ascii	"ch_virtual_timers_list\000"
 4935      69727475 
ARM GAS  /tmp/ccViN8cm.s 			page 92


 4935      616C5F74 
 4935      696D6572 
 4935      735F6C69 
 4936              	.LASF2:
 4937 04d1 6C6F6E67 		.ascii	"long double\000"
 4937      20646F75 
 4937      626C6500 
 4938              	.LASF63:
 4939 04dd 63685F6C 		.ascii	"ch_list_t\000"
 4939      6973745F 
 4939      7400
 4940              	.LASF116:
 4941 04e7 64656C65 		.ascii	"delegate_fn2_t\000"
 4941      67617465 
 4941      5F666E32 
 4941      5F7400
 4942              	.LASF125:
 4943 04f6 63757272 		.ascii	"current_step\000"
 4943      656E745F 
 4943      73746570 
 4943      00
 4944              	.LASF164:
 4945 0503 63684465 		.ascii	"chDelegateCallVeneer\000"
 4945      6C656761 
 4945      74654361 
 4945      6C6C5665 
 4945      6E656572 
 4946              	.LASF108:
 4947 0518 77626173 		.ascii	"wbase\000"
 4947      6500
 4948              	.LASF161:
 4949 051e 63685468 		.ascii	"chThdGetPriorityX\000"
 4949      64476574 
 4949      5072696F 
 4949      72697479 
 4949      5800
 4950              	.LASF134:
 4951 0530 73657475 		.ascii	"setup\000"
 4951      7000
 4952              	.LASF102:
 4953 0536 6D61696E 		.ascii	"mainthread_base\000"
 4953      74687265 
 4953      61645F62 
 4953      61736500 
 4954              	.LASF71:
 4955 0546 7072696F 		.ascii	"prio\000"
 4955      00
 4956              	.LASF99:
 4957 054b 63757272 		.ascii	"current\000"
 4957      656E7400 
 4958              	.LASF127:
 4959 0553 6C6F6361 		.ascii	"local_fail\000"
 4959      6C5F6661 
 4959      696C00
 4960              	.LASF13:
 4961 055e 5F5F7569 		.ascii	"__uint64_t\000"
 4961      6E743634 
ARM GAS  /tmp/ccViN8cm.s 			page 93


 4961      5F7400
 4962              	.LASF143:
 4963 0569 77615468 		.ascii	"waThread1\000"
 4963      72656164 
 4963      3100
 4964              	.LASF28:
 4965 0573 636F7265 		.ascii	"core_id_t\000"
 4965      5F69645F 
 4965      7400
 4966              	.LASF23:
 4967 057d 74726566 		.ascii	"trefs_t\000"
 4967      735F7400 
 4968              	.LASF136:
 4969 0585 65786563 		.ascii	"execute\000"
 4969      75746500 
 4970              	.LASF40:
 4971 058d 6D74786C 		.ascii	"mtxlist\000"
 4971      69737400 
 4972              	.LASF24:
 4973 0595 74707269 		.ascii	"tprio_t\000"
 4973      6F5F7400 
 4974              	.LASF132:
 4975 059d 73747265 		.ascii	"stream\000"
 4975      616D00
 4976              	.LASF57:
 4977 05a4 63685F73 		.ascii	"ch_system_debug\000"
 4977      79737465 
 4977      6D5F6465 
 4977      62756700 
 4978              	.LASF113:
 4979 05b4 5F426F6F 		.ascii	"_Bool\000"
 4979      6C00
 4980              	.LASF16:
 4981 05ba 696E7433 		.ascii	"int32_t\000"
 4981      325F7400 
 4982              	.LASF6:
 4983 05c2 756E7369 		.ascii	"unsigned char\000"
 4983      676E6564 
 4983      20636861 
 4983      7200
 4984              	.LASF168:
 4985 05d0 63684465 		.ascii	"chDelegateDispatch\000"
 4985      6C656761 
 4985      74654469 
 4985      73706174 
 4985      636800
 4986              	.LASF56:
 4987 05e3 72666375 		.ascii	"rfcu_t\000"
 4987      5F7400
 4988              	.LASF165:
 4989 05ea 5F5F7465 		.ascii	"__test_assert\000"
 4989      73745F61 
 4989      73736572 
 4989      7400
 4990              	.LASF79:
 4991 05f8 6C617374 		.ascii	"lasttime\000"
 4991      74696D65 
ARM GAS  /tmp/ccViN8cm.s 			page 94


 4991      00
 4992              	.LASF37:
 4993 0601 77616974 		.ascii	"waiting\000"
 4993      696E6700 
 4994              	.LASF95:
 4995 0609 65776D61 		.ascii	"ewmask\000"
 4995      736B00
 4996              	.LASF119:
 4997 0610 42617365 		.ascii	"BaseSequentialStreamVMT\000"
 4997      53657175 
 4997      656E7469 
 4997      616C5374 
 4997      7265616D 
 4998              	.LASF144:
 4999 0628 6F736C69 		.ascii	"oslib_test_005_001\000"
 4999      625F7465 
 4999      73745F30 
 4999      30355F30 
 4999      303100
 5000              	.LASF96:
 5001 063b 63685F73 		.ascii	"ch_semaphore\000"
 5001      656D6170 
 5001      686F7265 
 5001      00
 5002              	.LASF84:
 5003 0648 72656769 		.ascii	"registry_t\000"
 5003      73747279 
 5003      5F7400
 5004              	.LASF17:
 5005 0653 75696E74 		.ascii	"uint32_t\000"
 5005      33325F74 
 5005      00
 5006              	.LASF94:
 5007 065c 77746D74 		.ascii	"wtmtxp\000"
 5007      787000
 5008              	.LASF19:
 5009 0663 706F7274 		.ascii	"port_stkalign_t\000"
 5009      5F73746B 
 5009      616C6967 
 5009      6E5F7400 
 5010              	.LASF31:
 5011 0673 6F776E65 		.ascii	"owner\000"
 5011      7200
 5012              	.LASF154:
 5013 0679 6469735F 		.ascii	"dis_func0\000"
 5013      66756E63 
 5013      3000
 5014              	.LASF12:
 5015 0683 6C6F6E67 		.ascii	"long unsigned int\000"
 5015      20756E73 
 5015      69676E65 
 5015      6420696E 
 5015      7400
 5016              	.LASF33:
 5017 0695 77616261 		.ascii	"wabase\000"
 5017      736500
 5018              	.LASF122:
ARM GAS  /tmp/ccViN8cm.s 			page 95


 5019 069c 72656164 		.ascii	"read\000"
 5019      00
 5020              	.LASF59:
 5021 06a1 63686172 		.ascii	"char\000"
 5021      00
 5022              	.LASF155:
 5023 06a6 66756E63 		.ascii	"func\000"
 5023      00
 5024              	.LASF51:
 5025 06ab 636F6E66 		.ascii	"config\000"
 5025      696700
 5026              	.LASF29:
 5027 06b2 74687265 		.ascii	"thread_t\000"
 5027      61645F74 
 5027      00
 5028              	.LASF78:
 5029 06bb 646C6973 		.ascii	"dlist\000"
 5029      7400
 5030              	.LASF61:
 5031 06c1 73797374 		.ascii	"systime_t\000"
 5031      696D655F 
 5031      7400
 5032              	.LASF9:
 5033 06cb 5F5F696E 		.ascii	"__int32_t\000"
 5033      7433325F 
 5033      7400
 5034              	.LASF58:
 5035 06d5 70616E69 		.ascii	"panic_msg\000"
 5035      635F6D73 
 5035      6700
 5036              	.LASF87:
 5037 06df 70717565 		.ascii	"pqueue\000"
 5037      756500
 5038              	.LASF45:
 5039 06e6 63685F6F 		.ascii	"ch_os_instance\000"
 5039      735F696E 
 5039      7374616E 
 5039      636500
 5040              	.LASF43:
 5041 06f5 6F735F69 		.ascii	"os_instance_t\000"
 5041      6E737461 
 5041      6E63655F 
 5041      7400
 5042              	.LASF48:
 5043 0703 7265676C 		.ascii	"reglist\000"
 5043      69737400 
 5044              	.LASF70:
 5045 070b 63685F70 		.ascii	"ch_priority_queue\000"
 5045      72696F72 
 5045      6974795F 
 5045      71756575 
 5045      6500
 5046              	.LASF76:
 5047 071d 706F7274 		.ascii	"port_context\000"
 5047      5F636F6E 
 5047      74657874 
 5047      00
ARM GAS  /tmp/ccViN8cm.s 			page 96


 5048              	.LASF173:
 5049 072a 2F686F6D 		.ascii	"/home/bhimebau/forge/analog_in_out/application\000"
 5049      652F6268 
 5049      696D6562 
 5049      61752F66 
 5049      6F726765 
 5050              	.LASF167:
 5051 0759 63685468 		.ascii	"chThdWait\000"
 5051      64576169 
 5051      7400
 5052              	.LASF103:
 5053 0763 6D61696E 		.ascii	"mainthread_end\000"
 5053      74687265 
 5053      61645F65 
 5053      6E6400
 5054              	.LASF106:
 5055 0772 6F735F69 		.ascii	"os_instance_config_t\000"
 5055      6E737461 
 5055      6E63655F 
 5055      636F6E66 
 5055      69675F74 
 5056              	.LASF97:
 5057 0787 63685F6D 		.ascii	"ch_mutex\000"
 5057      75746578 
 5057      00
 5058              	.LASF142:
 5059 0790 65786974 		.ascii	"exit_flag\000"
 5059      5F666C61 
 5059      6700
 5060              	.LASF114:
 5061 079a 64656C65 		.ascii	"delegate_fn0_t\000"
 5061      67617465 
 5061      5F666E30 
 5061      5F7400
 5062              	.LASF46:
 5063 07a9 726C6973 		.ascii	"rlist\000"
 5063      7400
 5064              	.LASF162:
 5065 07af 63685468 		.ascii	"chThdGetSelfX\000"
 5065      64476574 
 5065      53656C66 
 5065      5800
 5066              	.LASF15:
 5067 07bd 75696E74 		.ascii	"uint8_t\000"
 5067      385F7400 
 5068              	.LASF148:
 5069 07c5 54687265 		.ascii	"Thread1\000"
 5069      61643100 
 5070              	.LASF35:
 5071 07cd 666C6167 		.ascii	"flags\000"
 5071      7300
 5072              	.LASF90:
 5073 07d3 77746F62 		.ascii	"wtobjp\000"
 5073      6A7000
 5074              	.LASF171:
 5075 07da 474E5520 		.ascii	"GNU C17 10.3.1 20210621 (release) -mcpu=cortex-m4 -"
 5075      43313720 
ARM GAS  /tmp/ccViN8cm.s 			page 97


 5075      31302E33 
 5075      2E312032 
 5075      30323130 
 5076 080d 6D746875 		.ascii	"mthumb -mfloat-abi=soft -march=armv7e-m -ggdb -O2 -"
 5076      6D62202D 
 5076      6D666C6F 
 5076      61742D61 
 5076      62693D73 
 5077 0840 666F6D69 		.ascii	"fomit-frame-pointer -falign-functions=16 -ffunction"
 5077      742D6672 
 5077      616D652D 
 5077      706F696E 
 5077      74657220 
 5078 0873 2D736563 		.ascii	"-sections -fdata-sections -fno-common\000"
 5078      74696F6E 
 5078      73202D66 
 5078      64617461 
 5078      2D736563 
 5079              	.LASF163:
 5080 0899 63685468 		.ascii	"chThdCreate\000"
 5080      64437265 
 5080      61746500 
 5081              	.LASF120:
 5082 08a5 696E7374 		.ascii	"instance_offset\000"
 5082      616E6365 
 5082      5F6F6666 
 5082      73657400 
 5083              	.LASF86:
 5084 08b5 6C697374 		.ascii	"list\000"
 5084      00
 5085              	.LASF105:
 5086 08ba 69646C65 		.ascii	"idlethread_end\000"
 5086      74687265 
 5086      61645F65 
 5086      6E6400
 5087              	.LASF128:
 5088 08c9 6661696C 		.ascii	"failure_message\000"
 5088      7572655F 
 5088      6D657373 
 5088      61676500 
 5089              	.LASF138:
 5090 08d9 63617365 		.ascii	"cases\000"
 5090      7300
 5091              		.ident	"GCC: (GNU Arm Embedded Toolchain 10.3-2021.07) 10.3.1 20210621 (release)"
ARM GAS  /tmp/ccViN8cm.s 			page 98


DEFINED SYMBOLS
                            *ABS*:0000000000000000 oslib_test_sequence_005.c
     /tmp/ccViN8cm.s:16     .text.dis_func_end:0000000000000000 $t
     /tmp/ccViN8cm.s:24     .text.dis_func_end:0000000000000000 dis_func_end
     /tmp/ccViN8cm.s:53     .text.dis_func_end:0000000000000014 $d
     /tmp/ccViN8cm.s:58     .text.dis_func4:0000000000000000 $t
     /tmp/ccViN8cm.s:65     .text.dis_func4:0000000000000000 dis_func4
     /tmp/ccViN8cm.s:115    .text.dis_func3:0000000000000000 $t
     /tmp/ccViN8cm.s:122    .text.dis_func3:0000000000000000 dis_func3
     /tmp/ccViN8cm.s:165    .text.dis_func2:0000000000000000 $t
     /tmp/ccViN8cm.s:172    .text.dis_func2:0000000000000000 dis_func2
     /tmp/ccViN8cm.s:209    .text.dis_func1:0000000000000000 $t
     /tmp/ccViN8cm.s:216    .text.dis_func1:0000000000000000 dis_func1
     /tmp/ccViN8cm.s:246    .text.dis_func0:0000000000000000 $t
     /tmp/ccViN8cm.s:253    .text.dis_func0:0000000000000000 dis_func0
     /tmp/ccViN8cm.s:277    .text.Thread1:0000000000000000 $t
     /tmp/ccViN8cm.s:284    .text.Thread1:0000000000000000 Thread1
     /tmp/ccViN8cm.s:326    .text.Thread1:0000000000000020 $d
     /tmp/ccViN8cm.s:331    .rodata.oslib_test_005_001_execute.str1.4:0000000000000000 $d
     /tmp/ccViN8cm.s:347    .text.oslib_test_005_001_execute:0000000000000000 $t
     /tmp/ccViN8cm.s:354    .text.oslib_test_005_001_execute:0000000000000000 oslib_test_005_001_execute
     /tmp/ccViN8cm.s:721    .text.oslib_test_005_001_execute:000000000000013c $d
     /tmp/ccViN8cm.s:780    .rodata.oslib_test_sequence_005:0000000000000000 oslib_test_sequence_005
     /tmp/ccViN8cm.s:747    .rodata.str1.4:0000000000000000 $d
     /tmp/ccViN8cm.s:787    .rodata.oslib_test_sequence_005_array:0000000000000000 oslib_test_sequence_005_array
     /tmp/ccViN8cm.s:758    .bss.exit_flag:0000000000000000 exit_flag
     /tmp/ccViN8cm.s:759    .bss.exit_flag:0000000000000000 $d
     /tmp/ccViN8cm.s:761    .bss.waThread1:0000000000000000 $d
     /tmp/ccViN8cm.s:765    .bss.waThread1:0000000000000000 waThread1
     /tmp/ccViN8cm.s:768    .rodata.oslib_test_005_001:0000000000000000 $d
     /tmp/ccViN8cm.s:771    .rodata.oslib_test_005_001:0000000000000000 oslib_test_005_001
     /tmp/ccViN8cm.s:777    .rodata.oslib_test_sequence_005:0000000000000000 $d
     /tmp/ccViN8cm.s:784    .rodata.oslib_test_sequence_005_array:0000000000000000 $d

UNDEFINED SYMBOLS
test_emit_token
chDelegateDispatch
chThdExit
chThdCreate
chDelegateCallVeneer
__test_assert
__test_assert_sequence
chThdWait
ch0
chtest
__ch_delegate_fn0
__ch_delegate_fn1
__ch_delegate_fn2
__ch_delegate_fn3
__ch_delegate_fn4
