ARM GAS  /tmp/ccyTxgmW.s 			page 1


   1              		.cpu cortex-m4
   2              		.eabi_attribute 20, 1
   3              		.eabi_attribute 21, 1
   4              		.eabi_attribute 23, 3
   5              		.eabi_attribute 24, 1
   6              		.eabi_attribute 25, 1
   7              		.eabi_attribute 26, 1
   8              		.eabi_attribute 30, 2
   9              		.eabi_attribute 34, 1
  10              		.eabi_attribute 18, 4
  11              		.file	"oslib_test_sequence_009.c"
  12              		.text
  13              	.Ltext0:
  14              		.cfi_sections	.debug_frame
  15              		.section	.rodata.oslib_test_009_006_teardown.str1.4,"aMS",%progbits,1
  16              		.align	2
  17              	.LC0:
  18 0000 6D797069 		.ascii	"mypipe\000"
  18      706500
  19              		.section	.text.oslib_test_009_006_teardown,"ax",%progbits
  20              		.align	1
  21              		.p2align 4,,15
  22              		.arch armv7e-m
  23              		.syntax unified
  24              		.thumb
  25              		.thumb_func
  26              		.fpu softvfp
  27              		.type	oslib_test_009_006_teardown, %function
  28              	oslib_test_009_006_teardown:
  29              	.LFB414:
  30              		.file 1 "../ChibiOS/test/oslib/source/test/oslib_test_sequence_009.c"
  31              		.loc 1 689 47 view -0
  32              		.cfi_startproc
  33              		@ args = 0, pretend = 0, frame = 0
  34              		@ frame_needed = 0, uses_anonymous_args = 0
  35              		.loc 1 690 3 view .LVU1
  36              		.loc 1 692 3 view .LVU2
  37              		.loc 1 689 47 is_stmt 0 view .LVU3
  38 0000 10B5     		push	{r4, lr}
  39              		.cfi_def_cfa_offset 8
  40              		.cfi_offset 4, -8
  41              		.cfi_offset 14, -4
  42              		.loc 1 692 9 view .LVU4
  43 0002 0748     		ldr	r0, .L13
  44 0004 FFF7FEFF 		bl	chFactoryFindPipe
  45              	.LVL0:
  46              		.loc 1 693 3 is_stmt 1 view .LVU5
  47              		.loc 1 693 6 is_stmt 0 view .LVU6
  48 0008 40B1     		cbz	r0, .L1
  49              		.loc 1 694 11 is_stmt 1 view .LVU7
  50 000a 4368     		ldr	r3, [r0, #4]
  51 000c 0446     		mov	r4, r0
  52 000e 2BB1     		cbz	r3, .L1
  53              	.LVL1:
  54              	.L3:
  55              		.loc 1 695 7 view .LVU8
  56 0010 2046     		mov	r0, r4
ARM GAS  /tmp/ccyTxgmW.s 			page 2


  57 0012 FFF7FEFF 		bl	chFactoryReleasePipe
  58              	.LVL2:
  59              		.loc 1 694 11 view .LVU9
  60 0016 6368     		ldr	r3, [r4, #4]
  61 0018 002B     		cmp	r3, #0
  62 001a F9D1     		bne	.L3
  63              	.LVL3:
  64              	.L1:
  65              		.loc 1 698 1 is_stmt 0 view .LVU10
  66 001c 10BD     		pop	{r4, pc}
  67              	.L14:
  68 001e 00BF     		.align	2
  69              	.L13:
  70 0020 00000000 		.word	.LC0
  71              		.cfi_endproc
  72              	.LFE414:
  73              		.size	oslib_test_009_006_teardown, .-oslib_test_009_006_teardown
  74              		.section	.rodata.oslib_test_009_005_teardown.str1.4,"aMS",%progbits,1
  75              		.align	2
  76              	.LC1:
  77 0000 6D796669 		.ascii	"myfifo\000"
  77      666F00
  78              		.section	.text.oslib_test_009_005_teardown,"ax",%progbits
  79              		.align	1
  80              		.p2align 4,,15
  81              		.syntax unified
  82              		.thumb
  83              		.thumb_func
  84              		.fpu softvfp
  85              		.type	oslib_test_009_005_teardown, %function
  86              	oslib_test_009_005_teardown:
  87              	.LFB412:
  88              		.loc 1 570 47 is_stmt 1 view -0
  89              		.cfi_startproc
  90              		@ args = 0, pretend = 0, frame = 0
  91              		@ frame_needed = 0, uses_anonymous_args = 0
  92              		.loc 1 571 3 view .LVU12
  93              		.loc 1 573 3 view .LVU13
  94              		.loc 1 570 47 is_stmt 0 view .LVU14
  95 0000 10B5     		push	{r4, lr}
  96              		.cfi_def_cfa_offset 8
  97              		.cfi_offset 4, -8
  98              		.cfi_offset 14, -4
  99              		.loc 1 573 10 view .LVU15
 100 0002 0748     		ldr	r0, .L26
 101 0004 FFF7FEFF 		bl	chFactoryFindObjectsFIFO
 102              	.LVL4:
 103              		.loc 1 574 3 is_stmt 1 view .LVU16
 104              		.loc 1 574 6 is_stmt 0 view .LVU17
 105 0008 40B1     		cbz	r0, .L15
 106              		.loc 1 575 11 is_stmt 1 view .LVU18
 107 000a 4368     		ldr	r3, [r0, #4]
 108 000c 0446     		mov	r4, r0
 109 000e 2BB1     		cbz	r3, .L15
 110              	.LVL5:
 111              	.L17:
 112              		.loc 1 576 7 view .LVU19
ARM GAS  /tmp/ccyTxgmW.s 			page 3


 113 0010 2046     		mov	r0, r4
 114 0012 FFF7FEFF 		bl	chFactoryReleaseObjectsFIFO
 115              	.LVL6:
 116              		.loc 1 575 11 view .LVU20
 117 0016 6368     		ldr	r3, [r4, #4]
 118 0018 002B     		cmp	r3, #0
 119 001a F9D1     		bne	.L17
 120              	.LVL7:
 121              	.L15:
 122              		.loc 1 579 1 is_stmt 0 view .LVU21
 123 001c 10BD     		pop	{r4, pc}
 124              	.L27:
 125 001e 00BF     		.align	2
 126              	.L26:
 127 0020 00000000 		.word	.LC1
 128              		.cfi_endproc
 129              	.LFE412:
 130              		.size	oslib_test_009_005_teardown, .-oslib_test_009_005_teardown
 131              		.section	.rodata.oslib_test_009_004_teardown.str1.4,"aMS",%progbits,1
 132              		.align	2
 133              	.LC2:
 134 0000 6D796D62 		.ascii	"mymbx\000"
 134      7800
 135              		.section	.text.oslib_test_009_004_teardown,"ax",%progbits
 136              		.align	1
 137              		.p2align 4,,15
 138              		.syntax unified
 139              		.thumb
 140              		.thumb_func
 141              		.fpu softvfp
 142              		.type	oslib_test_009_004_teardown, %function
 143              	oslib_test_009_004_teardown:
 144              	.LFB410:
 145              		.loc 1 449 47 is_stmt 1 view -0
 146              		.cfi_startproc
 147              		@ args = 0, pretend = 0, frame = 0
 148              		@ frame_needed = 0, uses_anonymous_args = 0
 149              		.loc 1 450 3 view .LVU23
 150              		.loc 1 452 3 view .LVU24
 151              		.loc 1 449 47 is_stmt 0 view .LVU25
 152 0000 10B5     		push	{r4, lr}
 153              		.cfi_def_cfa_offset 8
 154              		.cfi_offset 4, -8
 155              		.cfi_offset 14, -4
 156              		.loc 1 452 9 view .LVU26
 157 0002 0748     		ldr	r0, .L39
 158 0004 FFF7FEFF 		bl	chFactoryFindMailbox
 159              	.LVL8:
 160              		.loc 1 453 3 is_stmt 1 view .LVU27
 161              		.loc 1 453 6 is_stmt 0 view .LVU28
 162 0008 40B1     		cbz	r0, .L28
 163              		.loc 1 454 11 is_stmt 1 view .LVU29
 164 000a 4368     		ldr	r3, [r0, #4]
 165 000c 0446     		mov	r4, r0
 166 000e 2BB1     		cbz	r3, .L28
 167              	.LVL9:
 168              	.L30:
ARM GAS  /tmp/ccyTxgmW.s 			page 4


 169              		.loc 1 455 7 view .LVU30
 170 0010 2046     		mov	r0, r4
 171 0012 FFF7FEFF 		bl	chFactoryReleaseMailbox
 172              	.LVL10:
 173              		.loc 1 454 11 view .LVU31
 174 0016 6368     		ldr	r3, [r4, #4]
 175 0018 002B     		cmp	r3, #0
 176 001a F9D1     		bne	.L30
 177              	.LVL11:
 178              	.L28:
 179              		.loc 1 458 1 is_stmt 0 view .LVU32
 180 001c 10BD     		pop	{r4, pc}
 181              	.L40:
 182 001e 00BF     		.align	2
 183              	.L39:
 184 0020 00000000 		.word	.LC2
 185              		.cfi_endproc
 186              	.LFE410:
 187              		.size	oslib_test_009_004_teardown, .-oslib_test_009_004_teardown
 188              		.section	.rodata.oslib_test_009_003_teardown.str1.4,"aMS",%progbits,1
 189              		.align	2
 190              	.LC3:
 191 0000 6D797365 		.ascii	"mysem\000"
 191      6D00
 192              		.section	.text.oslib_test_009_003_teardown,"ax",%progbits
 193              		.align	1
 194              		.p2align 4,,15
 195              		.syntax unified
 196              		.thumb
 197              		.thumb_func
 198              		.fpu softvfp
 199              		.type	oslib_test_009_003_teardown, %function
 200              	oslib_test_009_003_teardown:
 201              	.LFB408:
 202              		.loc 1 329 47 is_stmt 1 view -0
 203              		.cfi_startproc
 204              		@ args = 0, pretend = 0, frame = 0
 205              		@ frame_needed = 0, uses_anonymous_args = 0
 206              		.loc 1 330 3 view .LVU34
 207              		.loc 1 332 3 view .LVU35
 208              		.loc 1 329 47 is_stmt 0 view .LVU36
 209 0000 10B5     		push	{r4, lr}
 210              		.cfi_def_cfa_offset 8
 211              		.cfi_offset 4, -8
 212              		.cfi_offset 14, -4
 213              		.loc 1 332 9 view .LVU37
 214 0002 0748     		ldr	r0, .L52
 215 0004 FFF7FEFF 		bl	chFactoryFindSemaphore
 216              	.LVL12:
 217              		.loc 1 333 3 is_stmt 1 view .LVU38
 218              		.loc 1 333 6 is_stmt 0 view .LVU39
 219 0008 40B1     		cbz	r0, .L41
 220              		.loc 1 334 11 is_stmt 1 view .LVU40
 221 000a 4368     		ldr	r3, [r0, #4]
 222 000c 0446     		mov	r4, r0
 223 000e 2BB1     		cbz	r3, .L41
 224              	.LVL13:
ARM GAS  /tmp/ccyTxgmW.s 			page 5


 225              	.L43:
 226              		.loc 1 335 7 view .LVU41
 227 0010 2046     		mov	r0, r4
 228 0012 FFF7FEFF 		bl	chFactoryReleaseSemaphore
 229              	.LVL14:
 230              		.loc 1 334 11 view .LVU42
 231 0016 6368     		ldr	r3, [r4, #4]
 232 0018 002B     		cmp	r3, #0
 233 001a F9D1     		bne	.L43
 234              	.LVL15:
 235              	.L41:
 236              		.loc 1 338 1 is_stmt 0 view .LVU43
 237 001c 10BD     		pop	{r4, pc}
 238              	.L53:
 239 001e 00BF     		.align	2
 240              	.L52:
 241 0020 00000000 		.word	.LC3
 242              		.cfi_endproc
 243              	.LFE408:
 244              		.size	oslib_test_009_003_teardown, .-oslib_test_009_003_teardown
 245              		.section	.rodata.oslib_test_009_002_teardown.str1.4,"aMS",%progbits,1
 246              		.align	2
 247              	.LC4:
 248 0000 6D796275 		.ascii	"mybuf\000"
 248      6600
 249              		.section	.text.oslib_test_009_002_teardown,"ax",%progbits
 250              		.align	1
 251              		.p2align 4,,15
 252              		.syntax unified
 253              		.thumb
 254              		.thumb_func
 255              		.fpu softvfp
 256              		.type	oslib_test_009_002_teardown, %function
 257              	oslib_test_009_002_teardown:
 258              	.LFB406:
 259              		.loc 1 209 47 is_stmt 1 view -0
 260              		.cfi_startproc
 261              		@ args = 0, pretend = 0, frame = 0
 262              		@ frame_needed = 0, uses_anonymous_args = 0
 263              		.loc 1 210 3 view .LVU45
 264              		.loc 1 212 3 view .LVU46
 265              		.loc 1 209 47 is_stmt 0 view .LVU47
 266 0000 10B5     		push	{r4, lr}
 267              		.cfi_def_cfa_offset 8
 268              		.cfi_offset 4, -8
 269              		.cfi_offset 14, -4
 270              		.loc 1 212 9 view .LVU48
 271 0002 0748     		ldr	r0, .L65
 272 0004 FFF7FEFF 		bl	chFactoryFindBuffer
 273              	.LVL16:
 274              		.loc 1 213 3 is_stmt 1 view .LVU49
 275              		.loc 1 213 6 is_stmt 0 view .LVU50
 276 0008 40B1     		cbz	r0, .L54
 277              		.loc 1 214 11 is_stmt 1 view .LVU51
 278 000a 4368     		ldr	r3, [r0, #4]
 279 000c 0446     		mov	r4, r0
 280 000e 2BB1     		cbz	r3, .L54
ARM GAS  /tmp/ccyTxgmW.s 			page 6


 281              	.LVL17:
 282              	.L56:
 283              		.loc 1 215 7 view .LVU52
 284 0010 2046     		mov	r0, r4
 285 0012 FFF7FEFF 		bl	chFactoryReleaseBuffer
 286              	.LVL18:
 287              		.loc 1 214 11 view .LVU53
 288 0016 6368     		ldr	r3, [r4, #4]
 289 0018 002B     		cmp	r3, #0
 290 001a F9D1     		bne	.L56
 291              	.LVL19:
 292              	.L54:
 293              		.loc 1 218 1 is_stmt 0 view .LVU54
 294 001c 10BD     		pop	{r4, pc}
 295              	.L66:
 296 001e 00BF     		.align	2
 297              	.L65:
 298 0020 00000000 		.word	.LC4
 299              		.cfi_endproc
 300              	.LFE406:
 301              		.size	oslib_test_009_002_teardown, .-oslib_test_009_002_teardown
 302              		.section	.rodata.oslib_test_009_001_teardown.str1.4,"aMS",%progbits,1
 303              		.align	2
 304              	.LC5:
 305 0000 6D796F62 		.ascii	"myobj\000"
 305      6A00
 306              		.section	.text.oslib_test_009_001_teardown,"ax",%progbits
 307              		.align	1
 308              		.p2align 4,,15
 309              		.syntax unified
 310              		.thumb
 311              		.thumb_func
 312              		.fpu softvfp
 313              		.type	oslib_test_009_001_teardown, %function
 314              	oslib_test_009_001_teardown:
 315              	.LFB404:
 316              		.loc 1 86 47 is_stmt 1 view -0
 317              		.cfi_startproc
 318              		@ args = 0, pretend = 0, frame = 0
 319              		@ frame_needed = 0, uses_anonymous_args = 0
 320              		.loc 1 87 3 view .LVU56
 321              		.loc 1 89 3 view .LVU57
 322              		.loc 1 86 47 is_stmt 0 view .LVU58
 323 0000 10B5     		push	{r4, lr}
 324              		.cfi_def_cfa_offset 8
 325              		.cfi_offset 4, -8
 326              		.cfi_offset 14, -4
 327              		.loc 1 89 9 view .LVU59
 328 0002 0748     		ldr	r0, .L78
 329 0004 FFF7FEFF 		bl	chFactoryFindObject
 330              	.LVL20:
 331              		.loc 1 90 3 is_stmt 1 view .LVU60
 332              		.loc 1 90 6 is_stmt 0 view .LVU61
 333 0008 40B1     		cbz	r0, .L67
 334              		.loc 1 91 11 is_stmt 1 view .LVU62
 335 000a 4368     		ldr	r3, [r0, #4]
 336 000c 0446     		mov	r4, r0
ARM GAS  /tmp/ccyTxgmW.s 			page 7


 337 000e 2BB1     		cbz	r3, .L67
 338              	.LVL21:
 339              	.L69:
 340              		.loc 1 92 7 view .LVU63
 341 0010 2046     		mov	r0, r4
 342 0012 FFF7FEFF 		bl	chFactoryReleaseObject
 343              	.LVL22:
 344              		.loc 1 91 11 view .LVU64
 345 0016 6368     		ldr	r3, [r4, #4]
 346 0018 002B     		cmp	r3, #0
 347 001a F9D1     		bne	.L69
 348              	.LVL23:
 349              	.L67:
 350              		.loc 1 95 1 is_stmt 0 view .LVU65
 351 001c 10BD     		pop	{r4, pc}
 352              	.L79:
 353 001e 00BF     		.align	2
 354              	.L78:
 355 0020 00000000 		.word	.LC5
 356              		.cfi_endproc
 357              	.LFE404:
 358              		.size	oslib_test_009_001_teardown, .-oslib_test_009_001_teardown
 359              		.section	.rodata.oslib_test_009_006_execute.str1.4,"aMS",%progbits,1
 360              		.align	2
 361              	.LC6:
 362 0000 666F756E 		.ascii	"found\000"
 362      6400
 363 0006 0000     		.align	2
 364              	.LC7:
 365 0008 63616E6E 		.ascii	"cannot create\000"
 365      6F742063 
 365      72656174 
 365      6500
 366 0016 0000     		.align	2
 367              	.LC8:
 368 0018 63616E20 		.ascii	"can create\000"
 368      63726561 
 368      746500
 369 0023 00       		.align	2
 370              	.LC9:
 371 0024 6E6F7420 		.ascii	"not found\000"
 371      666F756E 
 371      6400
 372 002e 0000     		.align	2
 373              	.LC10:
 374 0030 6F626A65 		.ascii	"object reference mismatch\000"
 374      63742072 
 374      65666572 
 374      656E6365 
 374      206D6973 
 375 004a 0000     		.align	2
 376              	.LC11:
 377 004c 72656665 		.ascii	"references mismatch\000"
 377      72656E63 
 377      6573206D 
 377      69736D61 
 377      74636800 
ARM GAS  /tmp/ccyTxgmW.s 			page 8


 378              		.section	.text.oslib_test_009_006_execute,"ax",%progbits
 379              		.align	1
 380              		.p2align 4,,15
 381              		.syntax unified
 382              		.thumb
 383              		.thumb_func
 384              		.fpu softvfp
 385              		.type	oslib_test_009_006_execute, %function
 386              	oslib_test_009_006_execute:
 387              	.LFB415:
 388              		.loc 1 700 46 is_stmt 1 view -0
 389              		.cfi_startproc
 390              		@ args = 0, pretend = 0, frame = 0
 391              		@ frame_needed = 0, uses_anonymous_args = 0
 392              		.loc 1 701 3 view .LVU67
 393              		.loc 1 704 3 view .LVU68
 394              		.loc 1 700 46 is_stmt 0 view .LVU69
 395 0000 F8B5     		push	{r3, r4, r5, r6, r7, lr}
 396              		.cfi_def_cfa_offset 24
 397              		.cfi_offset 3, -24
 398              		.cfi_offset 4, -20
 399              		.cfi_offset 5, -16
 400              		.cfi_offset 6, -12
 401              		.cfi_offset 7, -8
 402              		.cfi_offset 14, -4
 403              		.loc 1 704 3 view .LVU70
 404 0002 474C     		ldr	r4, .L86
 405              		.loc 1 706 11 view .LVU71
 406 0004 4748     		ldr	r0, .L86+4
 407              		.loc 1 704 3 view .LVU72
 408 0006 0125     		movs	r5, #1
 409 0008 2560     		str	r5, [r4]
 410              		.loc 1 706 5 is_stmt 1 view .LVU73
 411              		.loc 1 706 11 is_stmt 0 view .LVU74
 412 000a FFF7FEFF 		bl	chFactoryFindPipe
 413              	.LVL24:
 414              		.loc 1 707 5 is_stmt 1 view .LVU75
 415 000e B0FA80F0 		clz	r0, r0
 416              	.LVL25:
 417              		.loc 1 707 5 is_stmt 0 view .LVU76
 418 0012 4549     		ldr	r1, .L86+8
 419 0014 4009     		lsrs	r0, r0, #5
 420 0016 FFF7FEFF 		bl	__test_assert
 421              	.LVL26:
 422 001a 00B1     		cbz	r0, .L85
 423              	.L80:
 424              		.loc 1 770 1 view .LVU77
 425 001c F8BD     		pop	{r3, r4, r5, r6, r7, pc}
 426              	.L85:
 427              	.LBB58:
 428              	.LBI58:
 429              		.loc 1 700 13 is_stmt 1 view .LVU78
 430              	.LBB59:
 431              		.loc 1 707 38 view .LVU79
 432              		.loc 1 709 3 view .LVU80
 433              		.loc 1 709 19 view .LVU81
 434              		.loc 1 713 3 view .LVU82
ARM GAS  /tmp/ccyTxgmW.s 			page 9


 435              		.loc 1 715 11 is_stmt 0 view .LVU83
 436 001e 1021     		movs	r1, #16
 437              		.loc 1 713 3 view .LVU84
 438 0020 0223     		movs	r3, #2
 439              		.loc 1 715 11 view .LVU85
 440 0022 4048     		ldr	r0, .L86+4
 441              		.loc 1 713 3 view .LVU86
 442 0024 2360     		str	r3, [r4]
 443              		.loc 1 715 5 is_stmt 1 view .LVU87
 444              		.loc 1 715 11 is_stmt 0 view .LVU88
 445 0026 FFF7FEFF 		bl	chFactoryCreatePipe
 446              	.LVL27:
 447 002a 0646     		mov	r6, r0
 448              	.LVL28:
 449              		.loc 1 716 5 is_stmt 1 view .LVU89
 450 002c 0038     		subs	r0, r0, #0
 451              	.LVL29:
 452              		.loc 1 716 5 is_stmt 0 view .LVU90
 453 002e 18BF     		it	ne
 454 0030 0120     		movne	r0, #1
 455 0032 3E49     		ldr	r1, .L86+12
 456 0034 FFF7FEFF 		bl	__test_assert
 457              	.LVL30:
 458 0038 0028     		cmp	r0, #0
 459 003a EFD1     		bne	.L80
 460              		.loc 1 716 46 is_stmt 1 view .LVU91
 461              		.loc 1 718 3 view .LVU92
 462              		.loc 1 718 19 view .LVU93
 463              		.loc 1 721 3 view .LVU94
 464              	.LBB60:
 465              		.loc 1 725 12 is_stmt 0 view .LVU95
 466 003c 1021     		movs	r1, #16
 467              	.LBE60:
 468              		.loc 1 721 3 view .LVU96
 469 003e 0323     		movs	r3, #3
 470              	.LBB61:
 471              		.loc 1 725 12 view .LVU97
 472 0040 3848     		ldr	r0, .L86+4
 473              	.LBE61:
 474              		.loc 1 721 3 view .LVU98
 475 0042 2360     		str	r3, [r4]
 476              	.LBB62:
 477              		.loc 1 723 5 is_stmt 1 view .LVU99
 478              		.loc 1 725 5 view .LVU100
 479              		.loc 1 725 12 is_stmt 0 view .LVU101
 480 0044 FFF7FEFF 		bl	chFactoryCreatePipe
 481              	.LVL31:
 482              		.loc 1 726 5 is_stmt 1 view .LVU102
 483 0048 B0FA80F0 		clz	r0, r0
 484              	.LVL32:
 485              		.loc 1 726 5 is_stmt 0 view .LVU103
 486 004c 3849     		ldr	r1, .L86+16
 487 004e 4009     		lsrs	r0, r0, #5
 488 0050 FFF7FEFF 		bl	__test_assert
 489              	.LVL33:
 490 0054 0028     		cmp	r0, #0
 491 0056 E1D1     		bne	.L80
ARM GAS  /tmp/ccyTxgmW.s 			page 10


 492              		.loc 1 726 44 is_stmt 1 view .LVU104
 493              	.LBE62:
 494              		.loc 1 728 3 view .LVU105
 495              		.loc 1 728 19 view .LVU106
 496              		.loc 1 733 3 view .LVU107
 497 0058 0423     		movs	r3, #4
 498              	.LBB63:
 499              		.loc 1 737 12 is_stmt 0 view .LVU108
 500 005a 3248     		ldr	r0, .L86+4
 501              	.LBE63:
 502              		.loc 1 733 3 view .LVU109
 503 005c 2360     		str	r3, [r4]
 504              	.LBB70:
 505              		.loc 1 735 5 is_stmt 1 view .LVU110
 506              		.loc 1 737 5 view .LVU111
 507              		.loc 1 737 12 is_stmt 0 view .LVU112
 508 005e FFF7FEFF 		bl	chFactoryFindPipe
 509              	.LVL34:
 510              		.loc 1 738 5 is_stmt 1 view .LVU113
 511 0062 0746     		mov	r7, r0
 512 0064 0038     		subs	r0, r0, #0
 513              	.LVL35:
 514              		.loc 1 738 5 is_stmt 0 view .LVU114
 515 0066 18BF     		it	ne
 516 0068 0120     		movne	r0, #1
 517 006a 3249     		ldr	r1, .L86+20
 518 006c FFF7FEFF 		bl	__test_assert
 519              	.LVL36:
 520 0070 0028     		cmp	r0, #0
 521 0072 D3D1     		bne	.L80
 522              		.loc 1 738 43 is_stmt 1 view .LVU115
 523              		.loc 1 739 5 view .LVU116
 524 0074 F01B     		subs	r0, r6, r7
 525 0076 B0FA80F0 		clz	r0, r0
 526 007a 2F49     		ldr	r1, .L86+24
 527 007c 4009     		lsrs	r0, r0, #5
 528 007e FFF7FEFF 		bl	__test_assert
 529              	.LVL37:
 530 0082 0028     		cmp	r0, #0
 531 0084 CAD1     		bne	.L80
 532              		.loc 1 739 58 view .LVU117
 533              		.loc 1 740 5 view .LVU118
 534 0086 7868     		ldr	r0, [r7, #4]
 535 0088 2B49     		ldr	r1, .L86+24
 536 008a A0F10200 		sub	r0, #2
 537 008e B0FA80F0 		clz	r0, r0
 538 0092 4009     		lsrs	r0, r0, #5
 539 0094 FFF7FEFF 		bl	__test_assert
 540              	.LVL38:
 541 0098 0028     		cmp	r0, #0
 542 009a BFD1     		bne	.L80
 543              		.loc 1 740 70 view .LVU119
 544              		.loc 1 742 5 view .LVU120
 545              	.LVL39:
 546              	.LBB64:
 547              	.LBI64:
 548              		.file 2 "../ChibiOS/os/oslib/include/chfactory.h"
ARM GAS  /tmp/ccyTxgmW.s 			page 11


 549              		.loc 2 409 30 view .LVU121
 550              	.LBB65:
 551              		.loc 2 411 3 view .LVU122
 552              		.loc 2 411 12 is_stmt 0 view .LVU123
 553 009c 7B68     		ldr	r3, [r7, #4]
 554              	.LBE65:
 555              	.LBE64:
 556              		.loc 1 743 5 view .LVU124
 557 009e 2649     		ldr	r1, .L86+24
 558              	.LBB68:
 559              	.LBB66:
 560              		.loc 2 411 12 view .LVU125
 561 00a0 2B44     		add	r3, r3, r5
 562              	.LBE66:
 563              	.LBE68:
 564              		.loc 1 743 5 view .LVU126
 565 00a2 2846     		mov	r0, r5
 566              	.LBB69:
 567              	.LBB67:
 568              		.loc 2 411 12 view .LVU127
 569 00a4 7B60     		str	r3, [r7, #4]
 570              		.loc 2 413 3 is_stmt 1 view .LVU128
 571              	.LVL40:
 572              		.loc 2 413 3 is_stmt 0 view .LVU129
 573              	.LBE67:
 574              	.LBE69:
 575              		.loc 1 743 5 is_stmt 1 view .LVU130
 576 00a6 FFF7FEFF 		bl	__test_assert
 577              	.LVL41:
 578 00aa 0028     		cmp	r0, #0
 579 00ac B6D1     		bne	.L80
 580              		.loc 1 743 59 view .LVU131
 581              		.loc 1 744 5 view .LVU132
 582 00ae 7868     		ldr	r0, [r7, #4]
 583 00b0 2149     		ldr	r1, .L86+24
 584 00b2 A0F10300 		sub	r0, #3
 585 00b6 B0FA80F0 		clz	r0, r0
 586 00ba 4009     		lsrs	r0, r0, #5
 587 00bc FFF7FEFF 		bl	__test_assert
 588              	.LVL42:
 589 00c0 0028     		cmp	r0, #0
 590 00c2 ABD1     		bne	.L80
 591              		.loc 1 744 70 view .LVU133
 592              		.loc 1 746 5 view .LVU134
 593 00c4 3846     		mov	r0, r7
 594 00c6 FFF7FEFF 		bl	chFactoryReleasePipe
 595              	.LVL43:
 596              		.loc 1 747 5 view .LVU135
 597 00ca 7868     		ldr	r0, [r7, #4]
 598 00cc 1B49     		ldr	r1, .L86+28
 599 00ce A0F10200 		sub	r0, #2
 600 00d2 B0FA80F0 		clz	r0, r0
 601 00d6 4009     		lsrs	r0, r0, #5
 602 00d8 FFF7FEFF 		bl	__test_assert
 603              	.LVL44:
 604 00dc 0028     		cmp	r0, #0
 605 00de 9DD1     		bne	.L80
ARM GAS  /tmp/ccyTxgmW.s 			page 12


 606              		.loc 1 747 64 view .LVU136
 607              		.loc 1 749 5 view .LVU137
 608 00e0 3846     		mov	r0, r7
 609 00e2 FFF7FEFF 		bl	chFactoryReleasePipe
 610              	.LVL45:
 611              		.loc 1 750 5 view .LVU138
 612 00e6 7068     		ldr	r0, [r6, #4]
 613 00e8 1449     		ldr	r1, .L86+28
 614 00ea 401B     		subs	r0, r0, r5
 615 00ec B0FA80F0 		clz	r0, r0
 616 00f0 4009     		lsrs	r0, r0, #5
 617 00f2 FFF7FEFF 		bl	__test_assert
 618              	.LVL46:
 619 00f6 0028     		cmp	r0, #0
 620 00f8 90D1     		bne	.L80
 621              		.loc 1 750 63 view .LVU139
 622              	.LBE70:
 623              		.loc 1 752 3 view .LVU140
 624              		.loc 1 752 19 view .LVU141
 625              		.loc 1 756 3 view .LVU142
 626              		.loc 1 758 5 is_stmt 0 view .LVU143
 627 00fa 3046     		mov	r0, r6
 628              		.loc 1 756 3 view .LVU144
 629 00fc 0523     		movs	r3, #5
 630 00fe 2360     		str	r3, [r4]
 631              		.loc 1 758 5 is_stmt 1 view .LVU145
 632 0100 FFF7FEFF 		bl	chFactoryReleasePipe
 633              	.LVL47:
 634              		.loc 1 760 3 view .LVU146
 635              		.loc 1 760 19 view .LVU147
 636              		.loc 1 764 3 view .LVU148
 637 0104 0623     		movs	r3, #6
 638              		.loc 1 766 11 is_stmt 0 view .LVU149
 639 0106 0748     		ldr	r0, .L86+4
 640              		.loc 1 764 3 view .LVU150
 641 0108 2360     		str	r3, [r4]
 642              		.loc 1 766 5 is_stmt 1 view .LVU151
 643              		.loc 1 766 11 is_stmt 0 view .LVU152
 644 010a FFF7FEFF 		bl	chFactoryFindPipe
 645              	.LVL48:
 646              		.loc 1 767 5 is_stmt 1 view .LVU153
 647 010e B0FA80F0 		clz	r0, r0
 648              	.LVL49:
 649              		.loc 1 767 5 is_stmt 0 view .LVU154
 650              	.LBE59:
 651              	.LBE58:
 652              		.loc 1 770 1 view .LVU155
 653 0112 BDE8F840 		pop	{r3, r4, r5, r6, r7, lr}
 654              		.cfi_restore 14
 655              		.cfi_restore 7
 656              		.cfi_restore 6
 657              		.cfi_restore 5
 658              		.cfi_restore 4
 659              		.cfi_restore 3
 660              		.cfi_def_cfa_offset 0
 661              	.LVL50:
 662              	.LBB72:
ARM GAS  /tmp/ccyTxgmW.s 			page 13


 663              	.LBB71:
 664              		.loc 1 767 5 view .LVU156
 665 0116 0449     		ldr	r1, .L86+8
 666 0118 4009     		lsrs	r0, r0, #5
 667 011a FFF7FEBF 		b	__test_assert
 668              	.LVL51:
 669              	.L87:
 670 011e 00BF     		.align	2
 671              	.L86:
 672 0120 00000000 		.word	chtest
 673 0124 00000000 		.word	.LC0
 674 0128 00000000 		.word	.LC6
 675 012c 08000000 		.word	.LC7
 676 0130 18000000 		.word	.LC8
 677 0134 24000000 		.word	.LC9
 678 0138 30000000 		.word	.LC10
 679 013c 4C000000 		.word	.LC11
 680              	.LBE71:
 681              	.LBE72:
 682              		.cfi_endproc
 683              	.LFE415:
 684              		.size	oslib_test_009_006_execute, .-oslib_test_009_006_execute
 685              		.section	.text.oslib_test_009_005_execute,"ax",%progbits
 686              		.align	1
 687              		.p2align 4,,15
 688              		.syntax unified
 689              		.thumb
 690              		.thumb_func
 691              		.fpu softvfp
 692              		.type	oslib_test_009_005_execute, %function
 693              	oslib_test_009_005_execute:
 694              	.LFB413:
 695              		.loc 1 581 46 is_stmt 1 view -0
 696              		.cfi_startproc
 697              		@ args = 0, pretend = 0, frame = 0
 698              		@ frame_needed = 0, uses_anonymous_args = 0
 699              		.loc 1 582 3 view .LVU158
 700              		.loc 1 586 3 view .LVU159
 701              		.loc 1 581 46 is_stmt 0 view .LVU160
 702 0000 F8B5     		push	{r3, r4, r5, r6, r7, lr}
 703              		.cfi_def_cfa_offset 24
 704              		.cfi_offset 3, -24
 705              		.cfi_offset 4, -20
 706              		.cfi_offset 5, -16
 707              		.cfi_offset 6, -12
 708              		.cfi_offset 7, -8
 709              		.cfi_offset 14, -4
 710              		.loc 1 586 3 view .LVU161
 711 0002 494C     		ldr	r4, .L94
 712              		.loc 1 588 12 view .LVU162
 713 0004 4948     		ldr	r0, .L94+4
 714              		.loc 1 586 3 view .LVU163
 715 0006 0125     		movs	r5, #1
 716 0008 2560     		str	r5, [r4]
 717              		.loc 1 588 5 is_stmt 1 view .LVU164
 718              		.loc 1 588 12 is_stmt 0 view .LVU165
 719 000a FFF7FEFF 		bl	chFactoryFindObjectsFIFO
ARM GAS  /tmp/ccyTxgmW.s 			page 14


 720              	.LVL52:
 721              		.loc 1 589 5 is_stmt 1 view .LVU166
 722 000e B0FA80F0 		clz	r0, r0
 723              	.LVL53:
 724              		.loc 1 589 5 is_stmt 0 view .LVU167
 725 0012 4749     		ldr	r1, .L94+8
 726 0014 4009     		lsrs	r0, r0, #5
 727 0016 FFF7FEFF 		bl	__test_assert
 728              	.LVL54:
 729 001a 00B1     		cbz	r0, .L93
 730              	.L88:
 731              		.loc 1 653 1 view .LVU168
 732 001c F8BD     		pop	{r3, r4, r5, r6, r7, pc}
 733              	.L93:
 734              	.LBB79:
 735              	.LBI79:
 736              		.loc 1 581 13 is_stmt 1 view .LVU169
 737              	.LBB80:
 738              		.loc 1 589 39 view .LVU170
 739              		.loc 1 591 3 view .LVU171
 740              		.loc 1 591 19 view .LVU172
 741              		.loc 1 595 3 view .LVU173
 742              		.loc 1 597 12 is_stmt 0 view .LVU174
 743 001e 1022     		movs	r2, #16
 744              		.loc 1 595 3 view .LVU175
 745 0020 0220     		movs	r0, #2
 746              		.loc 1 597 12 view .LVU176
 747 0022 1146     		mov	r1, r2
 748              		.loc 1 595 3 view .LVU177
 749 0024 2060     		str	r0, [r4]
 750              		.loc 1 597 5 is_stmt 1 view .LVU178
 751              		.loc 1 597 12 is_stmt 0 view .LVU179
 752 0026 0423     		movs	r3, #4
 753 0028 4048     		ldr	r0, .L94+4
 754 002a FFF7FEFF 		bl	chFactoryCreateObjectsFIFO
 755              	.LVL55:
 756 002e 0646     		mov	r6, r0
 757              	.LVL56:
 758              		.loc 1 598 5 is_stmt 1 view .LVU180
 759 0030 0038     		subs	r0, r0, #0
 760              	.LVL57:
 761              		.loc 1 598 5 is_stmt 0 view .LVU181
 762 0032 18BF     		it	ne
 763 0034 0120     		movne	r0, #1
 764 0036 3F49     		ldr	r1, .L94+12
 765 0038 FFF7FEFF 		bl	__test_assert
 766              	.LVL58:
 767 003c 0028     		cmp	r0, #0
 768 003e EDD1     		bne	.L88
 769              		.loc 1 598 47 is_stmt 1 view .LVU182
 770              		.loc 1 600 3 view .LVU183
 771              		.loc 1 600 19 view .LVU184
 772              		.loc 1 604 3 view .LVU185
 773              	.LBB81:
 774              		.loc 1 608 13 is_stmt 0 view .LVU186
 775 0040 1022     		movs	r2, #16
 776              	.LBE81:
ARM GAS  /tmp/ccyTxgmW.s 			page 15


 777              		.loc 1 604 3 view .LVU187
 778 0042 0320     		movs	r0, #3
 779              	.LBB82:
 780              		.loc 1 608 13 view .LVU188
 781 0044 1146     		mov	r1, r2
 782              	.LBE82:
 783              		.loc 1 604 3 view .LVU189
 784 0046 2060     		str	r0, [r4]
 785              	.LBB83:
 786              		.loc 1 606 5 is_stmt 1 view .LVU190
 787              		.loc 1 608 5 view .LVU191
 788              		.loc 1 608 13 is_stmt 0 view .LVU192
 789 0048 0423     		movs	r3, #4
 790 004a 3848     		ldr	r0, .L94+4
 791 004c FFF7FEFF 		bl	chFactoryCreateObjectsFIFO
 792              	.LVL59:
 793              		.loc 1 609 5 is_stmt 1 view .LVU193
 794 0050 B0FA80F0 		clz	r0, r0
 795              	.LVL60:
 796              		.loc 1 609 5 is_stmt 0 view .LVU194
 797 0054 3849     		ldr	r1, .L94+16
 798 0056 4009     		lsrs	r0, r0, #5
 799 0058 FFF7FEFF 		bl	__test_assert
 800              	.LVL61:
 801 005c 0028     		cmp	r0, #0
 802 005e DDD1     		bne	.L88
 803              		.loc 1 609 45 is_stmt 1 view .LVU195
 804              	.LBE83:
 805              		.loc 1 611 3 view .LVU196
 806              		.loc 1 611 19 view .LVU197
 807              		.loc 1 616 3 view .LVU198
 808 0060 0423     		movs	r3, #4
 809              	.LBB84:
 810              		.loc 1 620 13 is_stmt 0 view .LVU199
 811 0062 3248     		ldr	r0, .L94+4
 812              	.LBE84:
 813              		.loc 1 616 3 view .LVU200
 814 0064 2360     		str	r3, [r4]
 815              	.LBB91:
 816              		.loc 1 618 5 is_stmt 1 view .LVU201
 817              		.loc 1 620 5 view .LVU202
 818              		.loc 1 620 13 is_stmt 0 view .LVU203
 819 0066 FFF7FEFF 		bl	chFactoryFindObjectsFIFO
 820              	.LVL62:
 821              		.loc 1 621 5 is_stmt 1 view .LVU204
 822 006a 0746     		mov	r7, r0
 823 006c 0038     		subs	r0, r0, #0
 824              	.LVL63:
 825              		.loc 1 621 5 is_stmt 0 view .LVU205
 826 006e 18BF     		it	ne
 827 0070 0120     		movne	r0, #1
 828 0072 3249     		ldr	r1, .L94+20
 829 0074 FFF7FEFF 		bl	__test_assert
 830              	.LVL64:
 831 0078 0028     		cmp	r0, #0
 832 007a CFD1     		bne	.L88
 833              		.loc 1 621 44 is_stmt 1 view .LVU206
ARM GAS  /tmp/ccyTxgmW.s 			page 16


 834              		.loc 1 622 5 view .LVU207
 835 007c F01B     		subs	r0, r6, r7
 836 007e B0FA80F0 		clz	r0, r0
 837 0082 2F49     		ldr	r1, .L94+24
 838 0084 4009     		lsrs	r0, r0, #5
 839 0086 FFF7FEFF 		bl	__test_assert
 840              	.LVL65:
 841 008a 0028     		cmp	r0, #0
 842 008c C6D1     		bne	.L88
 843              		.loc 1 622 60 view .LVU208
 844              		.loc 1 623 5 view .LVU209
 845 008e 7868     		ldr	r0, [r7, #4]
 846 0090 2B49     		ldr	r1, .L94+24
 847 0092 A0F10200 		sub	r0, #2
 848 0096 B0FA80F0 		clz	r0, r0
 849 009a 4009     		lsrs	r0, r0, #5
 850 009c FFF7FEFF 		bl	__test_assert
 851              	.LVL66:
 852 00a0 0028     		cmp	r0, #0
 853 00a2 BBD1     		bne	.L88
 854              		.loc 1 623 71 view .LVU210
 855              		.loc 1 625 5 view .LVU211
 856              	.LVL67:
 857              	.LBB85:
 858              	.LBI85:
 859              		.loc 2 409 30 view .LVU212
 860              	.LBB86:
 861              		.loc 2 411 3 view .LVU213
 862              		.loc 2 411 12 is_stmt 0 view .LVU214
 863 00a4 7B68     		ldr	r3, [r7, #4]
 864              	.LBE86:
 865              	.LBE85:
 866              		.loc 1 626 5 view .LVU215
 867 00a6 2649     		ldr	r1, .L94+24
 868              	.LBB89:
 869              	.LBB87:
 870              		.loc 2 411 12 view .LVU216
 871 00a8 2B44     		add	r3, r3, r5
 872              	.LBE87:
 873              	.LBE89:
 874              		.loc 1 626 5 view .LVU217
 875 00aa 2846     		mov	r0, r5
 876              	.LBB90:
 877              	.LBB88:
 878              		.loc 2 411 12 view .LVU218
 879 00ac 7B60     		str	r3, [r7, #4]
 880              		.loc 2 413 3 is_stmt 1 view .LVU219
 881              	.LVL68:
 882              		.loc 2 413 3 is_stmt 0 view .LVU220
 883              	.LBE88:
 884              	.LBE90:
 885              		.loc 1 626 5 is_stmt 1 view .LVU221
 886 00ae FFF7FEFF 		bl	__test_assert
 887              	.LVL69:
 888 00b2 0028     		cmp	r0, #0
 889 00b4 B2D1     		bne	.L88
 890              		.loc 1 626 61 view .LVU222
ARM GAS  /tmp/ccyTxgmW.s 			page 17


 891              		.loc 1 627 5 view .LVU223
 892 00b6 7868     		ldr	r0, [r7, #4]
 893 00b8 2149     		ldr	r1, .L94+24
 894 00ba A0F10300 		sub	r0, #3
 895 00be B0FA80F0 		clz	r0, r0
 896 00c2 4009     		lsrs	r0, r0, #5
 897 00c4 FFF7FEFF 		bl	__test_assert
 898              	.LVL70:
 899 00c8 0028     		cmp	r0, #0
 900 00ca A7D1     		bne	.L88
 901              		.loc 1 627 71 view .LVU224
 902              		.loc 1 629 5 view .LVU225
 903 00cc 3846     		mov	r0, r7
 904 00ce FFF7FEFF 		bl	chFactoryReleaseObjectsFIFO
 905              	.LVL71:
 906              		.loc 1 630 5 view .LVU226
 907 00d2 7868     		ldr	r0, [r7, #4]
 908 00d4 1B49     		ldr	r1, .L94+28
 909 00d6 A0F10200 		sub	r0, #2
 910 00da B0FA80F0 		clz	r0, r0
 911 00de 4009     		lsrs	r0, r0, #5
 912 00e0 FFF7FEFF 		bl	__test_assert
 913              	.LVL72:
 914 00e4 0028     		cmp	r0, #0
 915 00e6 99D1     		bne	.L88
 916              		.loc 1 630 65 view .LVU227
 917              		.loc 1 632 5 view .LVU228
 918 00e8 3846     		mov	r0, r7
 919 00ea FFF7FEFF 		bl	chFactoryReleaseObjectsFIFO
 920              	.LVL73:
 921              		.loc 1 633 5 view .LVU229
 922 00ee 7068     		ldr	r0, [r6, #4]
 923 00f0 1449     		ldr	r1, .L94+28
 924 00f2 401B     		subs	r0, r0, r5
 925 00f4 B0FA80F0 		clz	r0, r0
 926 00f8 4009     		lsrs	r0, r0, #5
 927 00fa FFF7FEFF 		bl	__test_assert
 928              	.LVL74:
 929 00fe 0028     		cmp	r0, #0
 930 0100 8CD1     		bne	.L88
 931              		.loc 1 633 64 view .LVU230
 932              	.LBE91:
 933              		.loc 1 635 3 view .LVU231
 934              		.loc 1 635 19 view .LVU232
 935              		.loc 1 639 3 view .LVU233
 936              		.loc 1 641 5 is_stmt 0 view .LVU234
 937 0102 3046     		mov	r0, r6
 938              		.loc 1 639 3 view .LVU235
 939 0104 0523     		movs	r3, #5
 940 0106 2360     		str	r3, [r4]
 941              		.loc 1 641 5 is_stmt 1 view .LVU236
 942 0108 FFF7FEFF 		bl	chFactoryReleaseObjectsFIFO
 943              	.LVL75:
 944              		.loc 1 643 3 view .LVU237
 945              		.loc 1 643 19 view .LVU238
 946              		.loc 1 647 3 view .LVU239
 947 010c 0623     		movs	r3, #6
ARM GAS  /tmp/ccyTxgmW.s 			page 18


 948              		.loc 1 649 12 is_stmt 0 view .LVU240
 949 010e 0748     		ldr	r0, .L94+4
 950              		.loc 1 647 3 view .LVU241
 951 0110 2360     		str	r3, [r4]
 952              		.loc 1 649 5 is_stmt 1 view .LVU242
 953              		.loc 1 649 12 is_stmt 0 view .LVU243
 954 0112 FFF7FEFF 		bl	chFactoryFindObjectsFIFO
 955              	.LVL76:
 956              		.loc 1 650 5 is_stmt 1 view .LVU244
 957 0116 B0FA80F0 		clz	r0, r0
 958              	.LVL77:
 959              		.loc 1 650 5 is_stmt 0 view .LVU245
 960              	.LBE80:
 961              	.LBE79:
 962              		.loc 1 653 1 view .LVU246
 963 011a BDE8F840 		pop	{r3, r4, r5, r6, r7, lr}
 964              		.cfi_restore 14
 965              		.cfi_restore 7
 966              		.cfi_restore 6
 967              		.cfi_restore 5
 968              		.cfi_restore 4
 969              		.cfi_restore 3
 970              		.cfi_def_cfa_offset 0
 971              	.LVL78:
 972              	.LBB93:
 973              	.LBB92:
 974              		.loc 1 650 5 view .LVU247
 975 011e 0449     		ldr	r1, .L94+8
 976 0120 4009     		lsrs	r0, r0, #5
 977 0122 FFF7FEBF 		b	__test_assert
 978              	.LVL79:
 979              	.L95:
 980 0126 00BF     		.align	2
 981              	.L94:
 982 0128 00000000 		.word	chtest
 983 012c 00000000 		.word	.LC1
 984 0130 00000000 		.word	.LC6
 985 0134 08000000 		.word	.LC7
 986 0138 18000000 		.word	.LC8
 987 013c 24000000 		.word	.LC9
 988 0140 30000000 		.word	.LC10
 989 0144 4C000000 		.word	.LC11
 990              	.LBE92:
 991              	.LBE93:
 992              		.cfi_endproc
 993              	.LFE413:
 994              		.size	oslib_test_009_005_execute, .-oslib_test_009_005_execute
 995              		.section	.text.oslib_test_009_004_execute,"ax",%progbits
 996              		.align	1
 997              		.p2align 4,,15
 998              		.syntax unified
 999              		.thumb
 1000              		.thumb_func
 1001              		.fpu softvfp
 1002              		.type	oslib_test_009_004_execute, %function
 1003              	oslib_test_009_004_execute:
 1004              	.LFB411:
ARM GAS  /tmp/ccyTxgmW.s 			page 19


 1005              		.loc 1 460 46 is_stmt 1 view -0
 1006              		.cfi_startproc
 1007              		@ args = 0, pretend = 0, frame = 0
 1008              		@ frame_needed = 0, uses_anonymous_args = 0
 1009              		.loc 1 461 3 view .LVU249
 1010              		.loc 1 464 3 view .LVU250
 1011              		.loc 1 460 46 is_stmt 0 view .LVU251
 1012 0000 F8B5     		push	{r3, r4, r5, r6, r7, lr}
 1013              		.cfi_def_cfa_offset 24
 1014              		.cfi_offset 3, -24
 1015              		.cfi_offset 4, -20
 1016              		.cfi_offset 5, -16
 1017              		.cfi_offset 6, -12
 1018              		.cfi_offset 7, -8
 1019              		.cfi_offset 14, -4
 1020              		.loc 1 464 3 view .LVU252
 1021 0002 474C     		ldr	r4, .L102
 1022              		.loc 1 466 11 view .LVU253
 1023 0004 4748     		ldr	r0, .L102+4
 1024              		.loc 1 464 3 view .LVU254
 1025 0006 0125     		movs	r5, #1
 1026 0008 2560     		str	r5, [r4]
 1027              		.loc 1 466 5 is_stmt 1 view .LVU255
 1028              		.loc 1 466 11 is_stmt 0 view .LVU256
 1029 000a FFF7FEFF 		bl	chFactoryFindMailbox
 1030              	.LVL80:
 1031              		.loc 1 467 5 is_stmt 1 view .LVU257
 1032 000e B0FA80F0 		clz	r0, r0
 1033              	.LVL81:
 1034              		.loc 1 467 5 is_stmt 0 view .LVU258
 1035 0012 4549     		ldr	r1, .L102+8
 1036 0014 4009     		lsrs	r0, r0, #5
 1037 0016 FFF7FEFF 		bl	__test_assert
 1038              	.LVL82:
 1039 001a 00B1     		cbz	r0, .L101
 1040              	.L96:
 1041              		.loc 1 531 1 view .LVU259
 1042 001c F8BD     		pop	{r3, r4, r5, r6, r7, pc}
 1043              	.L101:
 1044              	.LBB100:
 1045              	.LBI100:
 1046              		.loc 1 460 13 is_stmt 1 view .LVU260
 1047              	.LBB101:
 1048              		.loc 1 467 38 view .LVU261
 1049              		.loc 1 469 3 view .LVU262
 1050              		.loc 1 469 19 view .LVU263
 1051              		.loc 1 473 3 view .LVU264
 1052              		.loc 1 475 11 is_stmt 0 view .LVU265
 1053 001e 1021     		movs	r1, #16
 1054              		.loc 1 473 3 view .LVU266
 1055 0020 0223     		movs	r3, #2
 1056              		.loc 1 475 11 view .LVU267
 1057 0022 4048     		ldr	r0, .L102+4
 1058              		.loc 1 473 3 view .LVU268
 1059 0024 2360     		str	r3, [r4]
 1060              		.loc 1 475 5 is_stmt 1 view .LVU269
 1061              		.loc 1 475 11 is_stmt 0 view .LVU270
ARM GAS  /tmp/ccyTxgmW.s 			page 20


 1062 0026 FFF7FEFF 		bl	chFactoryCreateMailbox
 1063              	.LVL83:
 1064 002a 0646     		mov	r6, r0
 1065              	.LVL84:
 1066              		.loc 1 476 5 is_stmt 1 view .LVU271
 1067 002c 0038     		subs	r0, r0, #0
 1068              	.LVL85:
 1069              		.loc 1 476 5 is_stmt 0 view .LVU272
 1070 002e 18BF     		it	ne
 1071 0030 0120     		movne	r0, #1
 1072 0032 3E49     		ldr	r1, .L102+12
 1073 0034 FFF7FEFF 		bl	__test_assert
 1074              	.LVL86:
 1075 0038 0028     		cmp	r0, #0
 1076 003a EFD1     		bne	.L96
 1077              		.loc 1 476 46 is_stmt 1 view .LVU273
 1078              		.loc 1 478 3 view .LVU274
 1079              		.loc 1 478 19 view .LVU275
 1080              		.loc 1 482 3 view .LVU276
 1081              	.LBB102:
 1082              		.loc 1 486 12 is_stmt 0 view .LVU277
 1083 003c 1021     		movs	r1, #16
 1084              	.LBE102:
 1085              		.loc 1 482 3 view .LVU278
 1086 003e 0323     		movs	r3, #3
 1087              	.LBB103:
 1088              		.loc 1 486 12 view .LVU279
 1089 0040 3848     		ldr	r0, .L102+4
 1090              	.LBE103:
 1091              		.loc 1 482 3 view .LVU280
 1092 0042 2360     		str	r3, [r4]
 1093              	.LBB104:
 1094              		.loc 1 484 5 is_stmt 1 view .LVU281
 1095              		.loc 1 486 5 view .LVU282
 1096              		.loc 1 486 12 is_stmt 0 view .LVU283
 1097 0044 FFF7FEFF 		bl	chFactoryCreateMailbox
 1098              	.LVL87:
 1099              		.loc 1 487 5 is_stmt 1 view .LVU284
 1100 0048 B0FA80F0 		clz	r0, r0
 1101              	.LVL88:
 1102              		.loc 1 487 5 is_stmt 0 view .LVU285
 1103 004c 3849     		ldr	r1, .L102+16
 1104 004e 4009     		lsrs	r0, r0, #5
 1105 0050 FFF7FEFF 		bl	__test_assert
 1106              	.LVL89:
 1107 0054 0028     		cmp	r0, #0
 1108 0056 E1D1     		bne	.L96
 1109              		.loc 1 487 44 is_stmt 1 view .LVU286
 1110              	.LBE104:
 1111              		.loc 1 489 3 view .LVU287
 1112              		.loc 1 489 19 view .LVU288
 1113              		.loc 1 494 3 view .LVU289
 1114 0058 0423     		movs	r3, #4
 1115              	.LBB105:
 1116              		.loc 1 498 12 is_stmt 0 view .LVU290
 1117 005a 3248     		ldr	r0, .L102+4
 1118              	.LBE105:
ARM GAS  /tmp/ccyTxgmW.s 			page 21


 1119              		.loc 1 494 3 view .LVU291
 1120 005c 2360     		str	r3, [r4]
 1121              	.LBB112:
 1122              		.loc 1 496 5 is_stmt 1 view .LVU292
 1123              		.loc 1 498 5 view .LVU293
 1124              		.loc 1 498 12 is_stmt 0 view .LVU294
 1125 005e FFF7FEFF 		bl	chFactoryFindMailbox
 1126              	.LVL90:
 1127              		.loc 1 499 5 is_stmt 1 view .LVU295
 1128 0062 0746     		mov	r7, r0
 1129 0064 0038     		subs	r0, r0, #0
 1130              	.LVL91:
 1131              		.loc 1 499 5 is_stmt 0 view .LVU296
 1132 0066 18BF     		it	ne
 1133 0068 0120     		movne	r0, #1
 1134 006a 3249     		ldr	r1, .L102+20
 1135 006c FFF7FEFF 		bl	__test_assert
 1136              	.LVL92:
 1137 0070 0028     		cmp	r0, #0
 1138 0072 D3D1     		bne	.L96
 1139              		.loc 1 499 43 is_stmt 1 view .LVU297
 1140              		.loc 1 500 5 view .LVU298
 1141 0074 F01B     		subs	r0, r6, r7
 1142 0076 B0FA80F0 		clz	r0, r0
 1143 007a 2F49     		ldr	r1, .L102+24
 1144 007c 4009     		lsrs	r0, r0, #5
 1145 007e FFF7FEFF 		bl	__test_assert
 1146              	.LVL93:
 1147 0082 0028     		cmp	r0, #0
 1148 0084 CAD1     		bne	.L96
 1149              		.loc 1 500 58 view .LVU299
 1150              		.loc 1 501 5 view .LVU300
 1151 0086 7868     		ldr	r0, [r7, #4]
 1152 0088 2B49     		ldr	r1, .L102+24
 1153 008a A0F10200 		sub	r0, #2
 1154 008e B0FA80F0 		clz	r0, r0
 1155 0092 4009     		lsrs	r0, r0, #5
 1156 0094 FFF7FEFF 		bl	__test_assert
 1157              	.LVL94:
 1158 0098 0028     		cmp	r0, #0
 1159 009a BFD1     		bne	.L96
 1160              		.loc 1 501 70 view .LVU301
 1161              		.loc 1 503 5 view .LVU302
 1162              	.LVL95:
 1163              	.LBB106:
 1164              	.LBI106:
 1165              		.loc 2 409 30 view .LVU303
 1166              	.LBB107:
 1167              		.loc 2 411 3 view .LVU304
 1168              		.loc 2 411 12 is_stmt 0 view .LVU305
 1169 009c 7B68     		ldr	r3, [r7, #4]
 1170              	.LBE107:
 1171              	.LBE106:
 1172              		.loc 1 504 5 view .LVU306
 1173 009e 2649     		ldr	r1, .L102+24
 1174              	.LBB110:
 1175              	.LBB108:
ARM GAS  /tmp/ccyTxgmW.s 			page 22


 1176              		.loc 2 411 12 view .LVU307
 1177 00a0 2B44     		add	r3, r3, r5
 1178              	.LBE108:
 1179              	.LBE110:
 1180              		.loc 1 504 5 view .LVU308
 1181 00a2 2846     		mov	r0, r5
 1182              	.LBB111:
 1183              	.LBB109:
 1184              		.loc 2 411 12 view .LVU309
 1185 00a4 7B60     		str	r3, [r7, #4]
 1186              		.loc 2 413 3 is_stmt 1 view .LVU310
 1187              	.LVL96:
 1188              		.loc 2 413 3 is_stmt 0 view .LVU311
 1189              	.LBE109:
 1190              	.LBE111:
 1191              		.loc 1 504 5 is_stmt 1 view .LVU312
 1192 00a6 FFF7FEFF 		bl	__test_assert
 1193              	.LVL97:
 1194 00aa 0028     		cmp	r0, #0
 1195 00ac B6D1     		bne	.L96
 1196              		.loc 1 504 59 view .LVU313
 1197              		.loc 1 505 5 view .LVU314
 1198 00ae 7868     		ldr	r0, [r7, #4]
 1199 00b0 2149     		ldr	r1, .L102+24
 1200 00b2 A0F10300 		sub	r0, #3
 1201 00b6 B0FA80F0 		clz	r0, r0
 1202 00ba 4009     		lsrs	r0, r0, #5
 1203 00bc FFF7FEFF 		bl	__test_assert
 1204              	.LVL98:
 1205 00c0 0028     		cmp	r0, #0
 1206 00c2 ABD1     		bne	.L96
 1207              		.loc 1 505 70 view .LVU315
 1208              		.loc 1 507 5 view .LVU316
 1209 00c4 3846     		mov	r0, r7
 1210 00c6 FFF7FEFF 		bl	chFactoryReleaseMailbox
 1211              	.LVL99:
 1212              		.loc 1 508 5 view .LVU317
 1213 00ca 7868     		ldr	r0, [r7, #4]
 1214 00cc 1B49     		ldr	r1, .L102+28
 1215 00ce A0F10200 		sub	r0, #2
 1216 00d2 B0FA80F0 		clz	r0, r0
 1217 00d6 4009     		lsrs	r0, r0, #5
 1218 00d8 FFF7FEFF 		bl	__test_assert
 1219              	.LVL100:
 1220 00dc 0028     		cmp	r0, #0
 1221 00de 9DD1     		bne	.L96
 1222              		.loc 1 508 64 view .LVU318
 1223              		.loc 1 510 5 view .LVU319
 1224 00e0 3846     		mov	r0, r7
 1225 00e2 FFF7FEFF 		bl	chFactoryReleaseMailbox
 1226              	.LVL101:
 1227              		.loc 1 511 5 view .LVU320
 1228 00e6 7068     		ldr	r0, [r6, #4]
 1229 00e8 1449     		ldr	r1, .L102+28
 1230 00ea 401B     		subs	r0, r0, r5
 1231 00ec B0FA80F0 		clz	r0, r0
 1232 00f0 4009     		lsrs	r0, r0, #5
ARM GAS  /tmp/ccyTxgmW.s 			page 23


 1233 00f2 FFF7FEFF 		bl	__test_assert
 1234              	.LVL102:
 1235 00f6 0028     		cmp	r0, #0
 1236 00f8 90D1     		bne	.L96
 1237              		.loc 1 511 63 view .LVU321
 1238              	.LBE112:
 1239              		.loc 1 513 3 view .LVU322
 1240              		.loc 1 513 19 view .LVU323
 1241              		.loc 1 517 3 view .LVU324
 1242              		.loc 1 519 5 is_stmt 0 view .LVU325
 1243 00fa 3046     		mov	r0, r6
 1244              		.loc 1 517 3 view .LVU326
 1245 00fc 0523     		movs	r3, #5
 1246 00fe 2360     		str	r3, [r4]
 1247              		.loc 1 519 5 is_stmt 1 view .LVU327
 1248 0100 FFF7FEFF 		bl	chFactoryReleaseMailbox
 1249              	.LVL103:
 1250              		.loc 1 521 3 view .LVU328
 1251              		.loc 1 521 19 view .LVU329
 1252              		.loc 1 525 3 view .LVU330
 1253 0104 0623     		movs	r3, #6
 1254              		.loc 1 527 11 is_stmt 0 view .LVU331
 1255 0106 0748     		ldr	r0, .L102+4
 1256              		.loc 1 525 3 view .LVU332
 1257 0108 2360     		str	r3, [r4]
 1258              		.loc 1 527 5 is_stmt 1 view .LVU333
 1259              		.loc 1 527 11 is_stmt 0 view .LVU334
 1260 010a FFF7FEFF 		bl	chFactoryFindMailbox
 1261              	.LVL104:
 1262              		.loc 1 528 5 is_stmt 1 view .LVU335
 1263 010e B0FA80F0 		clz	r0, r0
 1264              	.LVL105:
 1265              		.loc 1 528 5 is_stmt 0 view .LVU336
 1266              	.LBE101:
 1267              	.LBE100:
 1268              		.loc 1 531 1 view .LVU337
 1269 0112 BDE8F840 		pop	{r3, r4, r5, r6, r7, lr}
 1270              		.cfi_restore 14
 1271              		.cfi_restore 7
 1272              		.cfi_restore 6
 1273              		.cfi_restore 5
 1274              		.cfi_restore 4
 1275              		.cfi_restore 3
 1276              		.cfi_def_cfa_offset 0
 1277              	.LVL106:
 1278              	.LBB114:
 1279              	.LBB113:
 1280              		.loc 1 528 5 view .LVU338
 1281 0116 0449     		ldr	r1, .L102+8
 1282 0118 4009     		lsrs	r0, r0, #5
 1283 011a FFF7FEBF 		b	__test_assert
 1284              	.LVL107:
 1285              	.L103:
 1286 011e 00BF     		.align	2
 1287              	.L102:
 1288 0120 00000000 		.word	chtest
 1289 0124 00000000 		.word	.LC2
ARM GAS  /tmp/ccyTxgmW.s 			page 24


 1290 0128 00000000 		.word	.LC6
 1291 012c 08000000 		.word	.LC7
 1292 0130 18000000 		.word	.LC8
 1293 0134 24000000 		.word	.LC9
 1294 0138 30000000 		.word	.LC10
 1295 013c 4C000000 		.word	.LC11
 1296              	.LBE113:
 1297              	.LBE114:
 1298              		.cfi_endproc
 1299              	.LFE411:
 1300              		.size	oslib_test_009_004_execute, .-oslib_test_009_004_execute
 1301              		.section	.text.oslib_test_009_003_execute,"ax",%progbits
 1302              		.align	1
 1303              		.p2align 4,,15
 1304              		.syntax unified
 1305              		.thumb
 1306              		.thumb_func
 1307              		.fpu softvfp
 1308              		.type	oslib_test_009_003_execute, %function
 1309              	oslib_test_009_003_execute:
 1310              	.LFB409:
 1311              		.loc 1 340 46 is_stmt 1 view -0
 1312              		.cfi_startproc
 1313              		@ args = 0, pretend = 0, frame = 0
 1314              		@ frame_needed = 0, uses_anonymous_args = 0
 1315              		.loc 1 341 3 view .LVU340
 1316              		.loc 1 344 3 view .LVU341
 1317              		.loc 1 340 46 is_stmt 0 view .LVU342
 1318 0000 F8B5     		push	{r3, r4, r5, r6, r7, lr}
 1319              		.cfi_def_cfa_offset 24
 1320              		.cfi_offset 3, -24
 1321              		.cfi_offset 4, -20
 1322              		.cfi_offset 5, -16
 1323              		.cfi_offset 6, -12
 1324              		.cfi_offset 7, -8
 1325              		.cfi_offset 14, -4
 1326              		.loc 1 344 3 view .LVU343
 1327 0002 474C     		ldr	r4, .L110
 1328              		.loc 1 346 11 view .LVU344
 1329 0004 4748     		ldr	r0, .L110+4
 1330              		.loc 1 344 3 view .LVU345
 1331 0006 0125     		movs	r5, #1
 1332 0008 2560     		str	r5, [r4]
 1333              		.loc 1 346 5 is_stmt 1 view .LVU346
 1334              		.loc 1 346 11 is_stmt 0 view .LVU347
 1335 000a FFF7FEFF 		bl	chFactoryFindSemaphore
 1336              	.LVL108:
 1337              		.loc 1 347 5 is_stmt 1 view .LVU348
 1338 000e B0FA80F0 		clz	r0, r0
 1339              	.LVL109:
 1340              		.loc 1 347 5 is_stmt 0 view .LVU349
 1341 0012 4549     		ldr	r1, .L110+8
 1342 0014 4009     		lsrs	r0, r0, #5
 1343 0016 FFF7FEFF 		bl	__test_assert
 1344              	.LVL110:
 1345 001a 00B1     		cbz	r0, .L109
 1346              	.L104:
ARM GAS  /tmp/ccyTxgmW.s 			page 25


 1347              		.loc 1 411 1 view .LVU350
 1348 001c F8BD     		pop	{r3, r4, r5, r6, r7, pc}
 1349              	.L109:
 1350              	.LBB121:
 1351              	.LBI121:
 1352              		.loc 1 340 13 is_stmt 1 view .LVU351
 1353              	.LBB122:
 1354              		.loc 1 347 38 view .LVU352
 1355              		.loc 1 349 3 view .LVU353
 1356              		.loc 1 349 19 view .LVU354
 1357              		.loc 1 353 3 view .LVU355
 1358              		.loc 1 355 11 is_stmt 0 view .LVU356
 1359 001e 0146     		mov	r1, r0
 1360              		.loc 1 353 3 view .LVU357
 1361 0020 0223     		movs	r3, #2
 1362              		.loc 1 355 11 view .LVU358
 1363 0022 4048     		ldr	r0, .L110+4
 1364              		.loc 1 353 3 view .LVU359
 1365 0024 2360     		str	r3, [r4]
 1366              		.loc 1 355 5 is_stmt 1 view .LVU360
 1367              		.loc 1 355 11 is_stmt 0 view .LVU361
 1368 0026 FFF7FEFF 		bl	chFactoryCreateSemaphore
 1369              	.LVL111:
 1370 002a 0646     		mov	r6, r0
 1371              	.LVL112:
 1372              		.loc 1 356 5 is_stmt 1 view .LVU362
 1373 002c 0038     		subs	r0, r0, #0
 1374              	.LVL113:
 1375              		.loc 1 356 5 is_stmt 0 view .LVU363
 1376 002e 18BF     		it	ne
 1377 0030 0120     		movne	r0, #1
 1378 0032 3E49     		ldr	r1, .L110+12
 1379 0034 FFF7FEFF 		bl	__test_assert
 1380              	.LVL114:
 1381 0038 0028     		cmp	r0, #0
 1382 003a EFD1     		bne	.L104
 1383              		.loc 1 356 46 is_stmt 1 view .LVU364
 1384              		.loc 1 358 3 view .LVU365
 1385              		.loc 1 358 19 view .LVU366
 1386              		.loc 1 362 3 view .LVU367
 1387              	.LBB123:
 1388              		.loc 1 366 12 is_stmt 0 view .LVU368
 1389 003c 0146     		mov	r1, r0
 1390              	.LBE123:
 1391              		.loc 1 362 3 view .LVU369
 1392 003e 0323     		movs	r3, #3
 1393              	.LBB124:
 1394              		.loc 1 366 12 view .LVU370
 1395 0040 3848     		ldr	r0, .L110+4
 1396              	.LBE124:
 1397              		.loc 1 362 3 view .LVU371
 1398 0042 2360     		str	r3, [r4]
 1399              	.LBB125:
 1400              		.loc 1 364 5 is_stmt 1 view .LVU372
 1401              		.loc 1 366 5 view .LVU373
 1402              		.loc 1 366 12 is_stmt 0 view .LVU374
 1403 0044 FFF7FEFF 		bl	chFactoryCreateSemaphore
ARM GAS  /tmp/ccyTxgmW.s 			page 26


 1404              	.LVL115:
 1405              		.loc 1 367 5 is_stmt 1 view .LVU375
 1406 0048 B0FA80F0 		clz	r0, r0
 1407              	.LVL116:
 1408              		.loc 1 367 5 is_stmt 0 view .LVU376
 1409 004c 3849     		ldr	r1, .L110+16
 1410 004e 4009     		lsrs	r0, r0, #5
 1411 0050 FFF7FEFF 		bl	__test_assert
 1412              	.LVL117:
 1413 0054 0028     		cmp	r0, #0
 1414 0056 E1D1     		bne	.L104
 1415              		.loc 1 367 44 is_stmt 1 view .LVU377
 1416              	.LBE125:
 1417              		.loc 1 369 3 view .LVU378
 1418              		.loc 1 369 19 view .LVU379
 1419              		.loc 1 374 3 view .LVU380
 1420 0058 0423     		movs	r3, #4
 1421              	.LBB126:
 1422              		.loc 1 378 12 is_stmt 0 view .LVU381
 1423 005a 3248     		ldr	r0, .L110+4
 1424              	.LBE126:
 1425              		.loc 1 374 3 view .LVU382
 1426 005c 2360     		str	r3, [r4]
 1427              	.LBB133:
 1428              		.loc 1 376 5 is_stmt 1 view .LVU383
 1429              		.loc 1 378 5 view .LVU384
 1430              		.loc 1 378 12 is_stmt 0 view .LVU385
 1431 005e FFF7FEFF 		bl	chFactoryFindSemaphore
 1432              	.LVL118:
 1433              		.loc 1 379 5 is_stmt 1 view .LVU386
 1434 0062 0746     		mov	r7, r0
 1435 0064 0038     		subs	r0, r0, #0
 1436              	.LVL119:
 1437              		.loc 1 379 5 is_stmt 0 view .LVU387
 1438 0066 18BF     		it	ne
 1439 0068 0120     		movne	r0, #1
 1440 006a 3249     		ldr	r1, .L110+20
 1441 006c FFF7FEFF 		bl	__test_assert
 1442              	.LVL120:
 1443 0070 0028     		cmp	r0, #0
 1444 0072 D3D1     		bne	.L104
 1445              		.loc 1 379 43 is_stmt 1 view .LVU388
 1446              		.loc 1 380 5 view .LVU389
 1447 0074 F01B     		subs	r0, r6, r7
 1448 0076 B0FA80F0 		clz	r0, r0
 1449 007a 2F49     		ldr	r1, .L110+24
 1450 007c 4009     		lsrs	r0, r0, #5
 1451 007e FFF7FEFF 		bl	__test_assert
 1452              	.LVL121:
 1453 0082 0028     		cmp	r0, #0
 1454 0084 CAD1     		bne	.L104
 1455              		.loc 1 380 58 view .LVU390
 1456              		.loc 1 381 5 view .LVU391
 1457 0086 7868     		ldr	r0, [r7, #4]
 1458 0088 2B49     		ldr	r1, .L110+24
 1459 008a A0F10200 		sub	r0, #2
 1460 008e B0FA80F0 		clz	r0, r0
ARM GAS  /tmp/ccyTxgmW.s 			page 27


 1461 0092 4009     		lsrs	r0, r0, #5
 1462 0094 FFF7FEFF 		bl	__test_assert
 1463              	.LVL122:
 1464 0098 0028     		cmp	r0, #0
 1465 009a BFD1     		bne	.L104
 1466              		.loc 1 381 70 view .LVU392
 1467              		.loc 1 383 5 view .LVU393
 1468              	.LVL123:
 1469              	.LBB127:
 1470              	.LBI127:
 1471              		.loc 2 409 30 view .LVU394
 1472              	.LBB128:
 1473              		.loc 2 411 3 view .LVU395
 1474              		.loc 2 411 12 is_stmt 0 view .LVU396
 1475 009c 7B68     		ldr	r3, [r7, #4]
 1476              	.LBE128:
 1477              	.LBE127:
 1478              		.loc 1 384 5 view .LVU397
 1479 009e 2649     		ldr	r1, .L110+24
 1480              	.LBB131:
 1481              	.LBB129:
 1482              		.loc 2 411 12 view .LVU398
 1483 00a0 2B44     		add	r3, r3, r5
 1484              	.LBE129:
 1485              	.LBE131:
 1486              		.loc 1 384 5 view .LVU399
 1487 00a2 2846     		mov	r0, r5
 1488              	.LBB132:
 1489              	.LBB130:
 1490              		.loc 2 411 12 view .LVU400
 1491 00a4 7B60     		str	r3, [r7, #4]
 1492              		.loc 2 413 3 is_stmt 1 view .LVU401
 1493              	.LVL124:
 1494              		.loc 2 413 3 is_stmt 0 view .LVU402
 1495              	.LBE130:
 1496              	.LBE132:
 1497              		.loc 1 384 5 is_stmt 1 view .LVU403
 1498 00a6 FFF7FEFF 		bl	__test_assert
 1499              	.LVL125:
 1500 00aa 0028     		cmp	r0, #0
 1501 00ac B6D1     		bne	.L104
 1502              		.loc 1 384 59 view .LVU404
 1503              		.loc 1 385 5 view .LVU405
 1504 00ae 7868     		ldr	r0, [r7, #4]
 1505 00b0 2149     		ldr	r1, .L110+24
 1506 00b2 A0F10300 		sub	r0, #3
 1507 00b6 B0FA80F0 		clz	r0, r0
 1508 00ba 4009     		lsrs	r0, r0, #5
 1509 00bc FFF7FEFF 		bl	__test_assert
 1510              	.LVL126:
 1511 00c0 0028     		cmp	r0, #0
 1512 00c2 ABD1     		bne	.L104
 1513              		.loc 1 385 70 view .LVU406
 1514              		.loc 1 387 5 view .LVU407
 1515 00c4 3846     		mov	r0, r7
 1516 00c6 FFF7FEFF 		bl	chFactoryReleaseSemaphore
 1517              	.LVL127:
ARM GAS  /tmp/ccyTxgmW.s 			page 28


 1518              		.loc 1 388 5 view .LVU408
 1519 00ca 7868     		ldr	r0, [r7, #4]
 1520 00cc 1B49     		ldr	r1, .L110+28
 1521 00ce A0F10200 		sub	r0, #2
 1522 00d2 B0FA80F0 		clz	r0, r0
 1523 00d6 4009     		lsrs	r0, r0, #5
 1524 00d8 FFF7FEFF 		bl	__test_assert
 1525              	.LVL128:
 1526 00dc 0028     		cmp	r0, #0
 1527 00de 9DD1     		bne	.L104
 1528              		.loc 1 388 64 view .LVU409
 1529              		.loc 1 390 5 view .LVU410
 1530 00e0 3846     		mov	r0, r7
 1531 00e2 FFF7FEFF 		bl	chFactoryReleaseSemaphore
 1532              	.LVL129:
 1533              		.loc 1 391 5 view .LVU411
 1534 00e6 7068     		ldr	r0, [r6, #4]
 1535 00e8 1449     		ldr	r1, .L110+28
 1536 00ea 401B     		subs	r0, r0, r5
 1537 00ec B0FA80F0 		clz	r0, r0
 1538 00f0 4009     		lsrs	r0, r0, #5
 1539 00f2 FFF7FEFF 		bl	__test_assert
 1540              	.LVL130:
 1541 00f6 0028     		cmp	r0, #0
 1542 00f8 90D1     		bne	.L104
 1543              		.loc 1 391 63 view .LVU412
 1544              	.LBE133:
 1545              		.loc 1 393 3 view .LVU413
 1546              		.loc 1 393 19 view .LVU414
 1547              		.loc 1 397 3 view .LVU415
 1548              		.loc 1 399 5 is_stmt 0 view .LVU416
 1549 00fa 3046     		mov	r0, r6
 1550              		.loc 1 397 3 view .LVU417
 1551 00fc 0523     		movs	r3, #5
 1552 00fe 2360     		str	r3, [r4]
 1553              		.loc 1 399 5 is_stmt 1 view .LVU418
 1554 0100 FFF7FEFF 		bl	chFactoryReleaseSemaphore
 1555              	.LVL131:
 1556              		.loc 1 401 3 view .LVU419
 1557              		.loc 1 401 19 view .LVU420
 1558              		.loc 1 405 3 view .LVU421
 1559 0104 0623     		movs	r3, #6
 1560              		.loc 1 407 11 is_stmt 0 view .LVU422
 1561 0106 0748     		ldr	r0, .L110+4
 1562              		.loc 1 405 3 view .LVU423
 1563 0108 2360     		str	r3, [r4]
 1564              		.loc 1 407 5 is_stmt 1 view .LVU424
 1565              		.loc 1 407 11 is_stmt 0 view .LVU425
 1566 010a FFF7FEFF 		bl	chFactoryFindSemaphore
 1567              	.LVL132:
 1568              		.loc 1 408 5 is_stmt 1 view .LVU426
 1569 010e B0FA80F0 		clz	r0, r0
 1570              	.LVL133:
 1571              		.loc 1 408 5 is_stmt 0 view .LVU427
 1572              	.LBE122:
 1573              	.LBE121:
 1574              		.loc 1 411 1 view .LVU428
ARM GAS  /tmp/ccyTxgmW.s 			page 29


 1575 0112 BDE8F840 		pop	{r3, r4, r5, r6, r7, lr}
 1576              		.cfi_restore 14
 1577              		.cfi_restore 7
 1578              		.cfi_restore 6
 1579              		.cfi_restore 5
 1580              		.cfi_restore 4
 1581              		.cfi_restore 3
 1582              		.cfi_def_cfa_offset 0
 1583              	.LVL134:
 1584              	.LBB135:
 1585              	.LBB134:
 1586              		.loc 1 408 5 view .LVU429
 1587 0116 0449     		ldr	r1, .L110+8
 1588 0118 4009     		lsrs	r0, r0, #5
 1589 011a FFF7FEBF 		b	__test_assert
 1590              	.LVL135:
 1591              	.L111:
 1592 011e 00BF     		.align	2
 1593              	.L110:
 1594 0120 00000000 		.word	chtest
 1595 0124 00000000 		.word	.LC3
 1596 0128 00000000 		.word	.LC6
 1597 012c 08000000 		.word	.LC7
 1598 0130 18000000 		.word	.LC8
 1599 0134 24000000 		.word	.LC9
 1600 0138 30000000 		.word	.LC10
 1601 013c 4C000000 		.word	.LC11
 1602              	.LBE134:
 1603              	.LBE135:
 1604              		.cfi_endproc
 1605              	.LFE409:
 1606              		.size	oslib_test_009_003_execute, .-oslib_test_009_003_execute
 1607              		.section	.text.oslib_test_009_002_execute,"ax",%progbits
 1608              		.align	1
 1609              		.p2align 4,,15
 1610              		.syntax unified
 1611              		.thumb
 1612              		.thumb_func
 1613              		.fpu softvfp
 1614              		.type	oslib_test_009_002_execute, %function
 1615              	oslib_test_009_002_execute:
 1616              	.LFB407:
 1617              		.loc 1 220 46 is_stmt 1 view -0
 1618              		.cfi_startproc
 1619              		@ args = 0, pretend = 0, frame = 0
 1620              		@ frame_needed = 0, uses_anonymous_args = 0
 1621              		.loc 1 221 3 view .LVU431
 1622              		.loc 1 224 3 view .LVU432
 1623              		.loc 1 220 46 is_stmt 0 view .LVU433
 1624 0000 F8B5     		push	{r3, r4, r5, r6, r7, lr}
 1625              		.cfi_def_cfa_offset 24
 1626              		.cfi_offset 3, -24
 1627              		.cfi_offset 4, -20
 1628              		.cfi_offset 5, -16
 1629              		.cfi_offset 6, -12
 1630              		.cfi_offset 7, -8
 1631              		.cfi_offset 14, -4
ARM GAS  /tmp/ccyTxgmW.s 			page 30


 1632              		.loc 1 224 3 view .LVU434
 1633 0002 474C     		ldr	r4, .L118
 1634              		.loc 1 226 11 view .LVU435
 1635 0004 4748     		ldr	r0, .L118+4
 1636              		.loc 1 224 3 view .LVU436
 1637 0006 0125     		movs	r5, #1
 1638 0008 2560     		str	r5, [r4]
 1639              		.loc 1 226 5 is_stmt 1 view .LVU437
 1640              		.loc 1 226 11 is_stmt 0 view .LVU438
 1641 000a FFF7FEFF 		bl	chFactoryFindBuffer
 1642              	.LVL136:
 1643              		.loc 1 227 5 is_stmt 1 view .LVU439
 1644 000e B0FA80F0 		clz	r0, r0
 1645              	.LVL137:
 1646              		.loc 1 227 5 is_stmt 0 view .LVU440
 1647 0012 4549     		ldr	r1, .L118+8
 1648 0014 4009     		lsrs	r0, r0, #5
 1649 0016 FFF7FEFF 		bl	__test_assert
 1650              	.LVL138:
 1651 001a 00B1     		cbz	r0, .L117
 1652              	.L112:
 1653              		.loc 1 290 1 view .LVU441
 1654 001c F8BD     		pop	{r3, r4, r5, r6, r7, pc}
 1655              	.L117:
 1656              	.LBB142:
 1657              	.LBI142:
 1658              		.loc 1 220 13 is_stmt 1 view .LVU442
 1659              	.LBB143:
 1660              		.loc 1 227 38 view .LVU443
 1661              		.loc 1 229 3 view .LVU444
 1662              		.loc 1 229 19 view .LVU445
 1663              		.loc 1 233 3 view .LVU446
 1664              		.loc 1 235 11 is_stmt 0 view .LVU447
 1665 001e 8021     		movs	r1, #128
 1666              		.loc 1 233 3 view .LVU448
 1667 0020 0223     		movs	r3, #2
 1668              		.loc 1 235 11 view .LVU449
 1669 0022 4048     		ldr	r0, .L118+4
 1670              		.loc 1 233 3 view .LVU450
 1671 0024 2360     		str	r3, [r4]
 1672              		.loc 1 235 5 is_stmt 1 view .LVU451
 1673              		.loc 1 235 11 is_stmt 0 view .LVU452
 1674 0026 FFF7FEFF 		bl	chFactoryCreateBuffer
 1675              	.LVL139:
 1676 002a 0646     		mov	r6, r0
 1677              	.LVL140:
 1678              		.loc 1 236 5 is_stmt 1 view .LVU453
 1679 002c 0038     		subs	r0, r0, #0
 1680              	.LVL141:
 1681              		.loc 1 236 5 is_stmt 0 view .LVU454
 1682 002e 18BF     		it	ne
 1683 0030 0120     		movne	r0, #1
 1684 0032 3E49     		ldr	r1, .L118+12
 1685 0034 FFF7FEFF 		bl	__test_assert
 1686              	.LVL142:
 1687 0038 0028     		cmp	r0, #0
 1688 003a EFD1     		bne	.L112
ARM GAS  /tmp/ccyTxgmW.s 			page 31


 1689              		.loc 1 236 46 is_stmt 1 view .LVU455
 1690              		.loc 1 238 3 view .LVU456
 1691              		.loc 1 238 19 view .LVU457
 1692              		.loc 1 241 3 view .LVU458
 1693              	.LBB144:
 1694              		.loc 1 245 12 is_stmt 0 view .LVU459
 1695 003c 8021     		movs	r1, #128
 1696              	.LBE144:
 1697              		.loc 1 241 3 view .LVU460
 1698 003e 0323     		movs	r3, #3
 1699              	.LBB145:
 1700              		.loc 1 245 12 view .LVU461
 1701 0040 3848     		ldr	r0, .L118+4
 1702              	.LBE145:
 1703              		.loc 1 241 3 view .LVU462
 1704 0042 2360     		str	r3, [r4]
 1705              	.LBB146:
 1706              		.loc 1 243 5 is_stmt 1 view .LVU463
 1707              		.loc 1 245 5 view .LVU464
 1708              		.loc 1 245 12 is_stmt 0 view .LVU465
 1709 0044 FFF7FEFF 		bl	chFactoryCreateBuffer
 1710              	.LVL143:
 1711              		.loc 1 246 5 is_stmt 1 view .LVU466
 1712 0048 B0FA80F0 		clz	r0, r0
 1713              	.LVL144:
 1714              		.loc 1 246 5 is_stmt 0 view .LVU467
 1715 004c 3849     		ldr	r1, .L118+16
 1716 004e 4009     		lsrs	r0, r0, #5
 1717 0050 FFF7FEFF 		bl	__test_assert
 1718              	.LVL145:
 1719 0054 0028     		cmp	r0, #0
 1720 0056 E1D1     		bne	.L112
 1721              		.loc 1 246 44 is_stmt 1 view .LVU468
 1722              	.LBE146:
 1723              		.loc 1 248 3 view .LVU469
 1724              		.loc 1 248 19 view .LVU470
 1725              		.loc 1 253 3 view .LVU471
 1726 0058 0423     		movs	r3, #4
 1727              	.LBB147:
 1728              		.loc 1 257 12 is_stmt 0 view .LVU472
 1729 005a 3248     		ldr	r0, .L118+4
 1730              	.LBE147:
 1731              		.loc 1 253 3 view .LVU473
 1732 005c 2360     		str	r3, [r4]
 1733              	.LBB154:
 1734              		.loc 1 255 5 is_stmt 1 view .LVU474
 1735              		.loc 1 257 5 view .LVU475
 1736              		.loc 1 257 12 is_stmt 0 view .LVU476
 1737 005e FFF7FEFF 		bl	chFactoryFindBuffer
 1738              	.LVL146:
 1739              		.loc 1 258 5 is_stmt 1 view .LVU477
 1740 0062 0746     		mov	r7, r0
 1741 0064 0038     		subs	r0, r0, #0
 1742              	.LVL147:
 1743              		.loc 1 258 5 is_stmt 0 view .LVU478
 1744 0066 18BF     		it	ne
 1745 0068 0120     		movne	r0, #1
ARM GAS  /tmp/ccyTxgmW.s 			page 32


 1746 006a 3249     		ldr	r1, .L118+20
 1747 006c FFF7FEFF 		bl	__test_assert
 1748              	.LVL148:
 1749 0070 0028     		cmp	r0, #0
 1750 0072 D3D1     		bne	.L112
 1751              		.loc 1 258 43 is_stmt 1 view .LVU479
 1752              		.loc 1 259 5 view .LVU480
 1753 0074 F01B     		subs	r0, r6, r7
 1754 0076 B0FA80F0 		clz	r0, r0
 1755 007a 2F49     		ldr	r1, .L118+24
 1756 007c 4009     		lsrs	r0, r0, #5
 1757 007e FFF7FEFF 		bl	__test_assert
 1758              	.LVL149:
 1759 0082 0028     		cmp	r0, #0
 1760 0084 CAD1     		bne	.L112
 1761              		.loc 1 259 58 view .LVU481
 1762              		.loc 1 260 5 view .LVU482
 1763 0086 7868     		ldr	r0, [r7, #4]
 1764 0088 2B49     		ldr	r1, .L118+24
 1765 008a A0F10200 		sub	r0, #2
 1766 008e B0FA80F0 		clz	r0, r0
 1767 0092 4009     		lsrs	r0, r0, #5
 1768 0094 FFF7FEFF 		bl	__test_assert
 1769              	.LVL150:
 1770 0098 0028     		cmp	r0, #0
 1771 009a BFD1     		bne	.L112
 1772              		.loc 1 260 70 view .LVU483
 1773              		.loc 1 262 5 view .LVU484
 1774              	.LVL151:
 1775              	.LBB148:
 1776              	.LBI148:
 1777              		.loc 2 409 30 view .LVU485
 1778              	.LBB149:
 1779              		.loc 2 411 3 view .LVU486
 1780              		.loc 2 411 12 is_stmt 0 view .LVU487
 1781 009c 7B68     		ldr	r3, [r7, #4]
 1782              	.LBE149:
 1783              	.LBE148:
 1784              		.loc 1 263 5 view .LVU488
 1785 009e 2649     		ldr	r1, .L118+24
 1786              	.LBB152:
 1787              	.LBB150:
 1788              		.loc 2 411 12 view .LVU489
 1789 00a0 2B44     		add	r3, r3, r5
 1790              	.LBE150:
 1791              	.LBE152:
 1792              		.loc 1 263 5 view .LVU490
 1793 00a2 2846     		mov	r0, r5
 1794              	.LBB153:
 1795              	.LBB151:
 1796              		.loc 2 411 12 view .LVU491
 1797 00a4 7B60     		str	r3, [r7, #4]
 1798              		.loc 2 413 3 is_stmt 1 view .LVU492
 1799              	.LVL152:
 1800              		.loc 2 413 3 is_stmt 0 view .LVU493
 1801              	.LBE151:
 1802              	.LBE153:
ARM GAS  /tmp/ccyTxgmW.s 			page 33


 1803              		.loc 1 263 5 is_stmt 1 view .LVU494
 1804 00a6 FFF7FEFF 		bl	__test_assert
 1805              	.LVL153:
 1806 00aa 0028     		cmp	r0, #0
 1807 00ac B6D1     		bne	.L112
 1808              		.loc 1 263 59 view .LVU495
 1809              		.loc 1 264 5 view .LVU496
 1810 00ae 7868     		ldr	r0, [r7, #4]
 1811 00b0 2149     		ldr	r1, .L118+24
 1812 00b2 A0F10300 		sub	r0, #3
 1813 00b6 B0FA80F0 		clz	r0, r0
 1814 00ba 4009     		lsrs	r0, r0, #5
 1815 00bc FFF7FEFF 		bl	__test_assert
 1816              	.LVL154:
 1817 00c0 0028     		cmp	r0, #0
 1818 00c2 ABD1     		bne	.L112
 1819              		.loc 1 264 70 view .LVU497
 1820              		.loc 1 266 5 view .LVU498
 1821 00c4 3846     		mov	r0, r7
 1822 00c6 FFF7FEFF 		bl	chFactoryReleaseBuffer
 1823              	.LVL155:
 1824              		.loc 1 267 5 view .LVU499
 1825 00ca 7868     		ldr	r0, [r7, #4]
 1826 00cc 1B49     		ldr	r1, .L118+28
 1827 00ce A0F10200 		sub	r0, #2
 1828 00d2 B0FA80F0 		clz	r0, r0
 1829 00d6 4009     		lsrs	r0, r0, #5
 1830 00d8 FFF7FEFF 		bl	__test_assert
 1831              	.LVL156:
 1832 00dc 0028     		cmp	r0, #0
 1833 00de 9DD1     		bne	.L112
 1834              		.loc 1 267 64 view .LVU500
 1835              		.loc 1 269 5 view .LVU501
 1836 00e0 3846     		mov	r0, r7
 1837 00e2 FFF7FEFF 		bl	chFactoryReleaseBuffer
 1838              	.LVL157:
 1839              		.loc 1 270 5 view .LVU502
 1840 00e6 7068     		ldr	r0, [r6, #4]
 1841 00e8 1449     		ldr	r1, .L118+28
 1842 00ea 401B     		subs	r0, r0, r5
 1843 00ec B0FA80F0 		clz	r0, r0
 1844 00f0 4009     		lsrs	r0, r0, #5
 1845 00f2 FFF7FEFF 		bl	__test_assert
 1846              	.LVL158:
 1847 00f6 0028     		cmp	r0, #0
 1848 00f8 90D1     		bne	.L112
 1849              		.loc 1 270 63 view .LVU503
 1850              	.LBE154:
 1851              		.loc 1 272 3 view .LVU504
 1852              		.loc 1 272 19 view .LVU505
 1853              		.loc 1 276 3 view .LVU506
 1854              		.loc 1 278 5 is_stmt 0 view .LVU507
 1855 00fa 3046     		mov	r0, r6
 1856              		.loc 1 276 3 view .LVU508
 1857 00fc 0523     		movs	r3, #5
 1858 00fe 2360     		str	r3, [r4]
 1859              		.loc 1 278 5 is_stmt 1 view .LVU509
ARM GAS  /tmp/ccyTxgmW.s 			page 34


 1860 0100 FFF7FEFF 		bl	chFactoryReleaseBuffer
 1861              	.LVL159:
 1862              		.loc 1 280 3 view .LVU510
 1863              		.loc 1 280 19 view .LVU511
 1864              		.loc 1 284 3 view .LVU512
 1865 0104 0623     		movs	r3, #6
 1866              		.loc 1 286 11 is_stmt 0 view .LVU513
 1867 0106 0748     		ldr	r0, .L118+4
 1868              		.loc 1 284 3 view .LVU514
 1869 0108 2360     		str	r3, [r4]
 1870              		.loc 1 286 5 is_stmt 1 view .LVU515
 1871              		.loc 1 286 11 is_stmt 0 view .LVU516
 1872 010a FFF7FEFF 		bl	chFactoryFindBuffer
 1873              	.LVL160:
 1874              		.loc 1 287 5 is_stmt 1 view .LVU517
 1875 010e B0FA80F0 		clz	r0, r0
 1876              	.LVL161:
 1877              		.loc 1 287 5 is_stmt 0 view .LVU518
 1878              	.LBE143:
 1879              	.LBE142:
 1880              		.loc 1 290 1 view .LVU519
 1881 0112 BDE8F840 		pop	{r3, r4, r5, r6, r7, lr}
 1882              		.cfi_restore 14
 1883              		.cfi_restore 7
 1884              		.cfi_restore 6
 1885              		.cfi_restore 5
 1886              		.cfi_restore 4
 1887              		.cfi_restore 3
 1888              		.cfi_def_cfa_offset 0
 1889              	.LVL162:
 1890              	.LBB156:
 1891              	.LBB155:
 1892              		.loc 1 287 5 view .LVU520
 1893 0116 0449     		ldr	r1, .L118+8
 1894 0118 4009     		lsrs	r0, r0, #5
 1895 011a FFF7FEBF 		b	__test_assert
 1896              	.LVL163:
 1897              	.L119:
 1898 011e 00BF     		.align	2
 1899              	.L118:
 1900 0120 00000000 		.word	chtest
 1901 0124 00000000 		.word	.LC4
 1902 0128 00000000 		.word	.LC6
 1903 012c 08000000 		.word	.LC7
 1904 0130 18000000 		.word	.LC8
 1905 0134 24000000 		.word	.LC9
 1906 0138 30000000 		.word	.LC10
 1907 013c 4C000000 		.word	.LC11
 1908              	.LBE155:
 1909              	.LBE156:
 1910              		.cfi_endproc
 1911              	.LFE407:
 1912              		.size	oslib_test_009_002_execute, .-oslib_test_009_002_execute
 1913              		.section	.rodata.oslib_test_009_001_execute.str1.4,"aMS",%progbits,1
 1914              		.align	2
 1915              	.LC12:
 1916 0000 63616E6E 		.ascii	"cannot register\000"
ARM GAS  /tmp/ccyTxgmW.s 			page 35


 1916      6F742072 
 1916      65676973 
 1916      74657200 
 1917              		.align	2
 1918              	.LC13:
 1919 0010 63616E20 		.ascii	"can register\000"
 1919      72656769 
 1919      73746572 
 1919      00
 1920 001d 000000   		.align	2
 1921              	.LC14:
 1922 0020 6F626A65 		.ascii	"object mismatch\000"
 1922      6374206D 
 1922      69736D61 
 1922      74636800 
 1923              		.section	.text.oslib_test_009_001_execute,"ax",%progbits
 1924              		.align	1
 1925              		.p2align 4,,15
 1926              		.syntax unified
 1927              		.thumb
 1928              		.thumb_func
 1929              		.fpu softvfp
 1930              		.type	oslib_test_009_001_execute, %function
 1931              	oslib_test_009_001_execute:
 1932              	.LFB405:
 1933              		.loc 1 97 46 is_stmt 1 view -0
 1934              		.cfi_startproc
 1935              		@ args = 0, pretend = 0, frame = 0
 1936              		@ frame_needed = 0, uses_anonymous_args = 0
 1937              		.loc 1 98 3 view .LVU522
 1938              		.loc 1 101 3 view .LVU523
 1939              		.loc 1 97 46 is_stmt 0 view .LVU524
 1940 0000 2DE9F041 		push	{r4, r5, r6, r7, r8, lr}
 1941              		.cfi_def_cfa_offset 24
 1942              		.cfi_offset 4, -24
 1943              		.cfi_offset 5, -20
 1944              		.cfi_offset 6, -16
 1945              		.cfi_offset 7, -12
 1946              		.cfi_offset 8, -8
 1947              		.cfi_offset 14, -4
 1948              		.loc 1 101 3 view .LVU525
 1949 0004 534C     		ldr	r4, .L126
 1950              		.loc 1 103 11 view .LVU526
 1951 0006 5448     		ldr	r0, .L126+4
 1952              		.loc 1 101 3 view .LVU527
 1953 0008 0125     		movs	r5, #1
 1954 000a 2560     		str	r5, [r4]
 1955              		.loc 1 103 5 is_stmt 1 view .LVU528
 1956              		.loc 1 103 11 is_stmt 0 view .LVU529
 1957 000c FFF7FEFF 		bl	chFactoryFindObject
 1958              	.LVL164:
 1959              		.loc 1 104 5 is_stmt 1 view .LVU530
 1960 0010 B0FA80F0 		clz	r0, r0
 1961              	.LVL165:
 1962              		.loc 1 104 5 is_stmt 0 view .LVU531
 1963 0014 5149     		ldr	r1, .L126+8
 1964 0016 4009     		lsrs	r0, r0, #5
ARM GAS  /tmp/ccyTxgmW.s 			page 36


 1965 0018 FFF7FEFF 		bl	__test_assert
 1966              	.LVL166:
 1967 001c 08B1     		cbz	r0, .L125
 1968              	.L120:
 1969              		.loc 1 171 1 view .LVU532
 1970 001e BDE8F081 		pop	{r4, r5, r6, r7, r8, pc}
 1971              	.L125:
 1972              	.LBB164:
 1973              	.LBI164:
 1974              		.loc 1 97 13 is_stmt 1 view .LVU533
 1975              	.LBB165:
 1976              		.loc 1 104 38 view .LVU534
 1977              		.loc 1 106 3 view .LVU535
 1978              		.loc 1 106 19 view .LVU536
 1979              		.loc 1 109 3 view .LVU537
 1980              	.LBB166:
 1981              		.loc 1 113 11 is_stmt 0 view .LVU538
 1982 0022 4F49     		ldr	r1, .L126+12
 1983 0024 4C48     		ldr	r0, .L126+4
 1984              	.LBE166:
 1985              		.loc 1 109 3 view .LVU539
 1986 0026 0223     		movs	r3, #2
 1987 0028 2360     		str	r3, [r4]
 1988              	.LBB167:
 1989              		.loc 1 111 5 is_stmt 1 view .LVU540
 1990              		.loc 1 113 5 view .LVU541
 1991              		.loc 1 113 11 is_stmt 0 view .LVU542
 1992 002a FFF7FEFF 		bl	chFactoryRegisterObject
 1993              	.LVL167:
 1994 002e 0646     		mov	r6, r0
 1995              	.LVL168:
 1996              		.loc 1 114 5 is_stmt 1 view .LVU543
 1997 0030 0038     		subs	r0, r0, #0
 1998              	.LVL169:
 1999              		.loc 1 114 5 is_stmt 0 view .LVU544
 2000 0032 18BF     		it	ne
 2001 0034 0120     		movne	r0, #1
 2002 0036 4B49     		ldr	r1, .L126+16
 2003 0038 FFF7FEFF 		bl	__test_assert
 2004              	.LVL170:
 2005 003c 0028     		cmp	r0, #0
 2006 003e EED1     		bne	.L120
 2007              		.loc 1 114 48 is_stmt 1 view .LVU545
 2008              	.LBE167:
 2009              		.loc 1 116 3 view .LVU546
 2010              		.loc 1 116 19 view .LVU547
 2011              		.loc 1 119 3 view .LVU548
 2012              	.LBB168:
 2013              		.loc 1 124 12 is_stmt 0 view .LVU549
 2014 0040 4949     		ldr	r1, .L126+20
 2015 0042 4548     		ldr	r0, .L126+4
 2016              	.LBE168:
 2017              		.loc 1 119 3 view .LVU550
 2018 0044 0323     		movs	r3, #3
 2019 0046 2360     		str	r3, [r4]
 2020              	.LBB169:
 2021              		.loc 1 121 5 is_stmt 1 view .LVU551
ARM GAS  /tmp/ccyTxgmW.s 			page 37


 2022              		.loc 1 122 5 view .LVU552
 2023              		.loc 1 124 5 view .LVU553
 2024              		.loc 1 124 12 is_stmt 0 view .LVU554
 2025 0048 FFF7FEFF 		bl	chFactoryRegisterObject
 2026              	.LVL171:
 2027              		.loc 1 125 5 is_stmt 1 view .LVU555
 2028 004c B0FA80F0 		clz	r0, r0
 2029              	.LVL172:
 2030              		.loc 1 125 5 is_stmt 0 view .LVU556
 2031 0050 4649     		ldr	r1, .L126+24
 2032 0052 4009     		lsrs	r0, r0, #5
 2033 0054 FFF7FEFF 		bl	__test_assert
 2034              	.LVL173:
 2035 0058 0028     		cmp	r0, #0
 2036 005a E0D1     		bne	.L120
 2037              		.loc 1 125 46 is_stmt 1 view .LVU557
 2038              	.LBE169:
 2039              		.loc 1 127 3 view .LVU558
 2040              		.loc 1 127 19 view .LVU559
 2041              		.loc 1 132 3 view .LVU560
 2042 005c 0423     		movs	r3, #4
 2043              	.LBB170:
 2044              		.loc 1 136 12 is_stmt 0 view .LVU561
 2045 005e 3E48     		ldr	r0, .L126+4
 2046              	.LBE170:
 2047              		.loc 1 132 3 view .LVU562
 2048 0060 2360     		str	r3, [r4]
 2049              	.LBB177:
 2050              		.loc 1 134 5 is_stmt 1 view .LVU563
 2051              		.loc 1 136 5 view .LVU564
 2052              		.loc 1 136 12 is_stmt 0 view .LVU565
 2053 0062 FFF7FEFF 		bl	chFactoryFindObject
 2054              	.LVL174:
 2055              		.loc 1 137 5 is_stmt 1 view .LVU566
 2056 0066 0746     		mov	r7, r0
 2057 0068 0038     		subs	r0, r0, #0
 2058              	.LVL175:
 2059              		.loc 1 137 5 is_stmt 0 view .LVU567
 2060 006a 18BF     		it	ne
 2061 006c 0120     		movne	r0, #1
 2062 006e 4049     		ldr	r1, .L126+28
 2063 0070 FFF7FEFF 		bl	__test_assert
 2064              	.LVL176:
 2065 0074 0028     		cmp	r0, #0
 2066 0076 D2D1     		bne	.L120
 2067              		.loc 1 137 43 is_stmt 1 view .LVU568
 2068              		.loc 1 138 5 view .LVU569
 2069 0078 3B69     		ldr	r3, [r7, #16]
 2070 007a 3E49     		ldr	r1, .L126+32
 2071 007c 1868     		ldr	r0, [r3]
 2072 007e 45F2AA58 		movw	r8, #21930
 2073 0082 A0EB0800 		sub	r0, r0, r8
 2074 0086 B0FA80F0 		clz	r0, r0
 2075 008a 4009     		lsrs	r0, r0, #5
 2076 008c FFF7FEFF 		bl	__test_assert
 2077              	.LVL177:
 2078 0090 0028     		cmp	r0, #0
ARM GAS  /tmp/ccyTxgmW.s 			page 38


 2079 0092 C4D1     		bne	.L120
 2080              		.loc 1 138 72 view .LVU570
 2081              		.loc 1 139 5 view .LVU571
 2082 0094 F01B     		subs	r0, r6, r7
 2083 0096 B0FA80F0 		clz	r0, r0
 2084 009a 3749     		ldr	r1, .L126+36
 2085 009c 4009     		lsrs	r0, r0, #5
 2086 009e FFF7FEFF 		bl	__test_assert
 2087              	.LVL178:
 2088 00a2 0028     		cmp	r0, #0
 2089 00a4 BBD1     		bne	.L120
 2090              		.loc 1 139 58 view .LVU572
 2091              		.loc 1 140 5 view .LVU573
 2092 00a6 7868     		ldr	r0, [r7, #4]
 2093 00a8 3349     		ldr	r1, .L126+36
 2094 00aa A0F10200 		sub	r0, #2
 2095 00ae B0FA80F0 		clz	r0, r0
 2096 00b2 4009     		lsrs	r0, r0, #5
 2097 00b4 FFF7FEFF 		bl	__test_assert
 2098              	.LVL179:
 2099 00b8 0028     		cmp	r0, #0
 2100 00ba B0D1     		bne	.L120
 2101              		.loc 1 140 70 view .LVU574
 2102              		.loc 1 142 5 view .LVU575
 2103              	.LVL180:
 2104              	.LBB171:
 2105              	.LBI171:
 2106              		.loc 2 409 30 view .LVU576
 2107              	.LBB172:
 2108              		.loc 2 411 3 view .LVU577
 2109              		.loc 2 411 12 is_stmt 0 view .LVU578
 2110 00bc 7B68     		ldr	r3, [r7, #4]
 2111              	.LBE172:
 2112              	.LBE171:
 2113              		.loc 1 143 5 view .LVU579
 2114 00be 2E49     		ldr	r1, .L126+36
 2115              	.LBB175:
 2116              	.LBB173:
 2117              		.loc 2 411 12 view .LVU580
 2118 00c0 2B44     		add	r3, r3, r5
 2119              	.LBE173:
 2120              	.LBE175:
 2121              		.loc 1 143 5 view .LVU581
 2122 00c2 2846     		mov	r0, r5
 2123              	.LBB176:
 2124              	.LBB174:
 2125              		.loc 2 411 12 view .LVU582
 2126 00c4 7B60     		str	r3, [r7, #4]
 2127              		.loc 2 413 3 is_stmt 1 view .LVU583
 2128              	.LVL181:
 2129              		.loc 2 413 3 is_stmt 0 view .LVU584
 2130              	.LBE174:
 2131              	.LBE176:
 2132              		.loc 1 143 5 is_stmt 1 view .LVU585
 2133 00c6 FFF7FEFF 		bl	__test_assert
 2134              	.LVL182:
 2135 00ca 0028     		cmp	r0, #0
ARM GAS  /tmp/ccyTxgmW.s 			page 39


 2136 00cc A7D1     		bne	.L120
 2137              		.loc 1 143 59 view .LVU586
 2138              		.loc 1 144 5 view .LVU587
 2139 00ce 3B69     		ldr	r3, [r7, #16]
 2140 00d0 2849     		ldr	r1, .L126+32
 2141 00d2 1868     		ldr	r0, [r3]
 2142 00d4 A0EB0800 		sub	r0, r0, r8
 2143 00d8 B0FA80F0 		clz	r0, r0
 2144 00dc 4009     		lsrs	r0, r0, #5
 2145 00de FFF7FEFF 		bl	__test_assert
 2146              	.LVL183:
 2147 00e2 0028     		cmp	r0, #0
 2148 00e4 9BD1     		bne	.L120
 2149              		.loc 1 144 72 view .LVU588
 2150              		.loc 1 145 5 view .LVU589
 2151 00e6 7868     		ldr	r0, [r7, #4]
 2152 00e8 2349     		ldr	r1, .L126+36
 2153 00ea A0F10300 		sub	r0, #3
 2154 00ee B0FA80F0 		clz	r0, r0
 2155 00f2 4009     		lsrs	r0, r0, #5
 2156 00f4 FFF7FEFF 		bl	__test_assert
 2157              	.LVL184:
 2158 00f8 0028     		cmp	r0, #0
 2159 00fa 90D1     		bne	.L120
 2160              		.loc 1 145 70 view .LVU590
 2161              		.loc 1 147 5 view .LVU591
 2162 00fc 3846     		mov	r0, r7
 2163 00fe FFF7FEFF 		bl	chFactoryReleaseObject
 2164              	.LVL185:
 2165              		.loc 1 148 5 view .LVU592
 2166 0102 7868     		ldr	r0, [r7, #4]
 2167 0104 1D49     		ldr	r1, .L126+40
 2168 0106 821E     		subs	r2, r0, #2
 2169 0108 5042     		rsbs	r0, r2, #0
 2170 010a 5041     		adcs	r0, r0, r2
 2171 010c FFF7FEFF 		bl	__test_assert
 2172              	.LVL186:
 2173 0110 0028     		cmp	r0, #0
 2174 0112 84D1     		bne	.L120
 2175              		.loc 1 148 64 view .LVU593
 2176              		.loc 1 150 5 view .LVU594
 2177 0114 3846     		mov	r0, r7
 2178 0116 FFF7FEFF 		bl	chFactoryReleaseObject
 2179              	.LVL187:
 2180              		.loc 1 151 5 view .LVU595
 2181 011a 7068     		ldr	r0, [r6, #4]
 2182 011c 1749     		ldr	r1, .L126+40
 2183 011e 431B     		subs	r3, r0, r5
 2184 0120 5842     		rsbs	r0, r3, #0
 2185 0122 5841     		adcs	r0, r0, r3
 2186 0124 FFF7FEFF 		bl	__test_assert
 2187              	.LVL188:
 2188 0128 0028     		cmp	r0, #0
 2189 012a 7FF478AF 		bne	.L120
 2190              		.loc 1 151 63 view .LVU596
 2191              	.LBE177:
 2192              		.loc 1 153 3 view .LVU597
ARM GAS  /tmp/ccyTxgmW.s 			page 40


 2193              		.loc 1 153 19 view .LVU598
 2194              		.loc 1 157 3 view .LVU599
 2195              		.loc 1 159 5 is_stmt 0 view .LVU600
 2196 012e 3046     		mov	r0, r6
 2197              		.loc 1 157 3 view .LVU601
 2198 0130 0523     		movs	r3, #5
 2199 0132 2360     		str	r3, [r4]
 2200              		.loc 1 159 5 is_stmt 1 view .LVU602
 2201 0134 FFF7FEFF 		bl	chFactoryReleaseObject
 2202              	.LVL189:
 2203              		.loc 1 161 3 view .LVU603
 2204              		.loc 1 161 19 view .LVU604
 2205              		.loc 1 165 3 view .LVU605
 2206 0138 0623     		movs	r3, #6
 2207              		.loc 1 167 11 is_stmt 0 view .LVU606
 2208 013a 0748     		ldr	r0, .L126+4
 2209              		.loc 1 165 3 view .LVU607
 2210 013c 2360     		str	r3, [r4]
 2211              		.loc 1 167 5 is_stmt 1 view .LVU608
 2212              		.loc 1 167 11 is_stmt 0 view .LVU609
 2213 013e FFF7FEFF 		bl	chFactoryFindObject
 2214              	.LVL190:
 2215              		.loc 1 168 5 is_stmt 1 view .LVU610
 2216 0142 B0FA80F0 		clz	r0, r0
 2217              	.LVL191:
 2218              		.loc 1 168 5 is_stmt 0 view .LVU611
 2219              	.LBE165:
 2220              	.LBE164:
 2221              		.loc 1 171 1 view .LVU612
 2222 0146 BDE8F041 		pop	{r4, r5, r6, r7, r8, lr}
 2223              		.cfi_restore 14
 2224              		.cfi_restore 8
 2225              		.cfi_restore 7
 2226              		.cfi_restore 6
 2227              		.cfi_restore 5
 2228              		.cfi_restore 4
 2229              		.cfi_def_cfa_offset 0
 2230              	.LVL192:
 2231              	.LBB179:
 2232              	.LBB178:
 2233              		.loc 1 168 5 view .LVU613
 2234 014a 0449     		ldr	r1, .L126+8
 2235 014c 4009     		lsrs	r0, r0, #5
 2236 014e FFF7FEBF 		b	__test_assert
 2237              	.LVL193:
 2238              	.L127:
 2239 0152 00BF     		.align	2
 2240              	.L126:
 2241 0154 00000000 		.word	chtest
 2242 0158 00000000 		.word	.LC5
 2243 015c 00000000 		.word	.LC6
 2244 0160 00000000 		.word	.LANCHOR0
 2245 0164 00000000 		.word	.LC12
 2246 0168 00000000 		.word	.LANCHOR1
 2247 016c 10000000 		.word	.LC13
 2248 0170 24000000 		.word	.LC9
 2249 0174 20000000 		.word	.LC14
ARM GAS  /tmp/ccyTxgmW.s 			page 41


 2250 0178 30000000 		.word	.LC10
 2251 017c 4C000000 		.word	.LC11
 2252              	.LBE178:
 2253              	.LBE179:
 2254              		.cfi_endproc
 2255              	.LFE405:
 2256              		.size	oslib_test_009_001_execute, .-oslib_test_009_001_execute
 2257              		.global	oslib_test_sequence_009
 2258              		.section	.rodata.str1.4,"aMS",%progbits,1
 2259              		.align	2
 2260              	.LC15:
 2261 0000 4F626A65 		.ascii	"Objects Factory\000"
 2261      63747320 
 2261      46616374 
 2261      6F727900 
 2262              		.global	oslib_test_sequence_009_array
 2263              		.align	2
 2264              	.LC16:
 2265 0010 44796E61 		.ascii	"Dynamic Pipes Factory\000"
 2265      6D696320 
 2265      50697065 
 2265      73204661 
 2265      63746F72 
 2266 0026 0000     		.align	2
 2267              	.LC17:
 2268 0028 44796E61 		.ascii	"Dynamic Objects FIFOs Factory\000"
 2268      6D696320 
 2268      4F626A65 
 2268      63747320 
 2268      4649464F 
 2269 0046 0000     		.align	2
 2270              	.LC18:
 2271 0048 44796E61 		.ascii	"Dynamic Mailboxes Factory\000"
 2271      6D696320 
 2271      4D61696C 
 2271      626F7865 
 2271      73204661 
 2272 0062 0000     		.align	2
 2273              	.LC19:
 2274 0064 44796E61 		.ascii	"Dynamic Semaphores Factory\000"
 2274      6D696320 
 2274      53656D61 
 2274      70686F72 
 2274      65732046 
 2275 007f 00       		.align	2
 2276              	.LC20:
 2277 0080 44796E61 		.ascii	"Dynamic Buffers Factory\000"
 2277      6D696320 
 2277      42756666 
 2277      65727320 
 2277      46616374 
 2278              		.align	2
 2279              	.LC21:
 2280 0098 4F626A65 		.ascii	"Objects Registry\000"
 2280      63747320 
 2280      52656769 
 2280      73747279 
ARM GAS  /tmp/ccyTxgmW.s 			page 42


 2280      00
 2281              		.section	.data.myobj.0,"aw"
 2282              		.align	2
 2283              		.set	.LANCHOR1,. + 0
 2284              		.type	myobj.0, %object
 2285              		.size	myobj.0, 4
 2286              	myobj.0:
 2287 0000 AA550000 		.word	21930
 2288              		.section	.data.myobj.1,"aw"
 2289              		.align	2
 2290              		.set	.LANCHOR0,. + 0
 2291              		.type	myobj.1, %object
 2292              		.size	myobj.1, 4
 2293              	myobj.1:
 2294 0000 AA550000 		.word	21930
 2295              		.section	.rodata.oslib_test_009_001,"a"
 2296              		.align	2
 2297              		.type	oslib_test_009_001, %object
 2298              		.size	oslib_test_009_001, 16
 2299              	oslib_test_009_001:
 2300 0000 98000000 		.word	.LC21
 2301 0004 00000000 		.word	0
 2302 0008 00000000 		.word	oslib_test_009_001_teardown
 2303 000c 00000000 		.word	oslib_test_009_001_execute
 2304              		.section	.rodata.oslib_test_009_002,"a"
 2305              		.align	2
 2306              		.type	oslib_test_009_002, %object
 2307              		.size	oslib_test_009_002, 16
 2308              	oslib_test_009_002:
 2309 0000 80000000 		.word	.LC20
 2310 0004 00000000 		.word	0
 2311 0008 00000000 		.word	oslib_test_009_002_teardown
 2312 000c 00000000 		.word	oslib_test_009_002_execute
 2313              		.section	.rodata.oslib_test_009_003,"a"
 2314              		.align	2
 2315              		.type	oslib_test_009_003, %object
 2316              		.size	oslib_test_009_003, 16
 2317              	oslib_test_009_003:
 2318 0000 64000000 		.word	.LC19
 2319 0004 00000000 		.word	0
 2320 0008 00000000 		.word	oslib_test_009_003_teardown
 2321 000c 00000000 		.word	oslib_test_009_003_execute
 2322              		.section	.rodata.oslib_test_009_004,"a"
 2323              		.align	2
 2324              		.type	oslib_test_009_004, %object
 2325              		.size	oslib_test_009_004, 16
 2326              	oslib_test_009_004:
 2327 0000 48000000 		.word	.LC18
 2328 0004 00000000 		.word	0
 2329 0008 00000000 		.word	oslib_test_009_004_teardown
 2330 000c 00000000 		.word	oslib_test_009_004_execute
 2331              		.section	.rodata.oslib_test_009_005,"a"
 2332              		.align	2
 2333              		.type	oslib_test_009_005, %object
 2334              		.size	oslib_test_009_005, 16
 2335              	oslib_test_009_005:
 2336 0000 28000000 		.word	.LC17
ARM GAS  /tmp/ccyTxgmW.s 			page 43


 2337 0004 00000000 		.word	0
 2338 0008 00000000 		.word	oslib_test_009_005_teardown
 2339 000c 00000000 		.word	oslib_test_009_005_execute
 2340              		.section	.rodata.oslib_test_009_006,"a"
 2341              		.align	2
 2342              		.type	oslib_test_009_006, %object
 2343              		.size	oslib_test_009_006, 16
 2344              	oslib_test_009_006:
 2345 0000 10000000 		.word	.LC16
 2346 0004 00000000 		.word	0
 2347 0008 00000000 		.word	oslib_test_009_006_teardown
 2348 000c 00000000 		.word	oslib_test_009_006_execute
 2349              		.section	.rodata.oslib_test_sequence_009,"a"
 2350              		.align	2
 2351              		.type	oslib_test_sequence_009, %object
 2352              		.size	oslib_test_sequence_009, 8
 2353              	oslib_test_sequence_009:
 2354 0000 00000000 		.word	.LC15
 2355 0004 00000000 		.word	oslib_test_sequence_009_array
 2356              		.section	.rodata.oslib_test_sequence_009_array,"a"
 2357              		.align	2
 2358              		.type	oslib_test_sequence_009_array, %object
 2359              		.size	oslib_test_sequence_009_array, 28
 2360              	oslib_test_sequence_009_array:
 2361 0000 00000000 		.word	oslib_test_009_001
 2362 0004 00000000 		.word	oslib_test_009_002
 2363 0008 00000000 		.word	oslib_test_009_003
 2364 000c 00000000 		.word	oslib_test_009_004
 2365 0010 00000000 		.word	oslib_test_009_005
 2366 0014 00000000 		.word	oslib_test_009_006
 2367 0018 00000000 		.word	0
 2368              		.text
 2369              	.Letext0:
 2370              		.file 3 "/opt/gcc-arm-none-eabi/gcc-arm-none-eabi-10.3-2021.07/lib/gcc/arm-none-eabi/10.3.1/includ
 2371              		.file 4 "/opt/gcc-arm-none-eabi/gcc-arm-none-eabi-10.3-2021.07/arm-none-eabi/include/machine/_defa
 2372              		.file 5 "/opt/gcc-arm-none-eabi/gcc-arm-none-eabi-10.3-2021.07/arm-none-eabi/include/sys/_stdint.h
 2373              		.file 6 "../ChibiOS/os/common/ports/ARM-common/chtypes.h"
 2374              		.file 7 "../ChibiOS/os/rt/include/chearly.h"
 2375              		.file 8 "../ChibiOS/os/rt/include/chobjects.h"
 2376              		.file 9 "../ChibiOS/os/rt/include/chrfcu.h"
 2377              		.file 10 "../ChibiOS/os/rt/include/chdebug.h"
 2378              		.file 11 "../ChibiOS/os/rt/include/chtime.h"
 2379              		.file 12 "../ChibiOS/os/rt/include/chlists.h"
 2380              		.file 13 "../ChibiOS/os/common/ports/ARMv7-M/chcore.h"
 2381              		.file 14 "../ChibiOS/os/rt/include/chsem.h"
 2382              		.file 15 "../ChibiOS/os/rt/include/chmtx.h"
 2383              		.file 16 "../ChibiOS/os/oslib/include/chmboxes.h"
 2384              		.file 17 "../ChibiOS/os/oslib/include/chmemcore.h"
 2385              		.file 18 "../ChibiOS/os/oslib/include/chmempools.h"
 2386              		.file 19 "../ChibiOS/os/oslib/include/chobjfifos.h"
 2387              		.file 20 "../ChibiOS/os/oslib/include/chpipes.h"
 2388              		.file 21 "../ChibiOS/os/hal/include/hal_streams.h"
 2389              		.file 22 "../ChibiOS/os/test/include/ch_test.h"
 2390              		.file 23 "../ChibiOS/test/oslib/source/test/oslib_test_sequence_009.h"