ARM GAS  /tmp/ccObSWMJ.s 			page 1


   1              		.cpu cortex-m4
   2              		.eabi_attribute 20, 1
   3              		.eabi_attribute 21, 1
   4              		.eabi_attribute 23, 3
   5              		.eabi_attribute 24, 1
   6              		.eabi_attribute 25, 1
   7              		.eabi_attribute 26, 1
   8              		.eabi_attribute 30, 2
   9              		.eabi_attribute 34, 1
  10              		.eabi_attribute 18, 4
  11              		.file	"oslib_test_sequence_006.c"
  12              		.text
  13              	.Ltext0:
  14              		.cfi_sections	.debug_frame
  15              		.section	.text.obj_write,"ax",%progbits
  16              		.align	1
  17              		.p2align 4,,15
  18              		.arch armv7e-m
  19              		.syntax unified
  20              		.thumb
  21              		.thumb_func
  22              		.fpu softvfp
  23              		.type	obj_write, %function
  24              	obj_write:
  25              	.LVL0:
  26              	.LFB405:
  27              		.file 1 "../ChibiOS/test/oslib/source/test/oslib_test_sequence_006.c"
  28              		.loc 1 82 35 view -0
  29              		.cfi_startproc
  30              		@ args = 0, pretend = 0, frame = 0
  31              		@ frame_needed = 0, uses_anonymous_args = 0
  32              		.loc 1 83 3 view .LVU1
  33              		.loc 1 84 3 view .LVU2
  34              		.loc 1 86 3 view .LVU3
  35              		.loc 1 82 35 is_stmt 0 view .LVU4
  36 0000 08B5     		push	{r3, lr}
  37              		.cfi_def_cfa_offset 8
  38              		.cfi_offset 3, -8
  39              		.cfi_offset 14, -4
  40              		.loc 1 86 3 view .LVU5
  41 0002 4869     		ldr	r0, [r1, #20]
  42              	.LVL1:
  43              		.loc 1 86 3 view .LVU6
  44 0004 4130     		adds	r0, r0, #65
  45 0006 C0B2     		uxtb	r0, r0
  46 0008 FFF7FEFF 		bl	test_emit_token
  47              	.LVL2:
  48              		.loc 1 88 3 is_stmt 1 view .LVU7
  49              		.loc 1 89 1 is_stmt 0 view .LVU8
  50 000c 0020     		movs	r0, #0
  51 000e 08BD     		pop	{r3, pc}
  52              		.cfi_endproc
  53              	.LFE405:
  54              		.size	obj_write, .-obj_write
  55              		.section	.text.obj_read,"ax",%progbits
  56              		.align	1
  57              		.p2align 4,,15
ARM GAS  /tmp/ccObSWMJ.s 			page 2


  58              		.syntax unified
  59              		.thumb
  60              		.thumb_func
  61              		.fpu softvfp
  62              		.type	obj_read, %function
  63              	obj_read:
  64              	.LVL3:
  65              	.LFB404:
  66              		.loc 1 67 34 is_stmt 1 view -0
  67              		.cfi_startproc
  68              		@ args = 0, pretend = 0, frame = 0
  69              		@ frame_needed = 0, uses_anonymous_args = 0
  70              		.loc 1 69 3 view .LVU10
  71 0000 4B69     		ldr	r3, [r1, #20]
  72              		.loc 1 67 34 is_stmt 0 view .LVU11
  73 0002 70B5     		push	{r4, r5, r6, lr}
  74              		.cfi_def_cfa_offset 16
  75              		.cfi_offset 4, -16
  76              		.cfi_offset 5, -12
  77              		.cfi_offset 6, -8
  78              		.cfi_offset 14, -4
  79              		.loc 1 69 3 view .LVU12
  80 0004 6133     		adds	r3, r3, #97
  81              		.loc 1 67 34 view .LVU13
  82 0006 0C46     		mov	r4, r1
  83 0008 0646     		mov	r6, r0
  84              		.loc 1 69 3 view .LVU14
  85 000a D8B2     		uxtb	r0, r3
  86              	.LVL4:
  87              		.loc 1 67 34 view .LVU15
  88 000c 1546     		mov	r5, r2
  89              		.loc 1 69 3 view .LVU16
  90 000e FFF7FEFF 		bl	test_emit_token
  91              	.LVL5:
  92              		.loc 1 71 3 is_stmt 1 view .LVU17
  93              		.loc 1 71 19 is_stmt 0 view .LVU18
  94 0012 636A     		ldr	r3, [r4, #36]
  95 0014 23F00803 		bic	r3, r3, #8
  96 0018 6362     		str	r3, [r4, #36]
  97              		.loc 1 73 3 is_stmt 1 view .LVU19
  98              		.loc 1 73 6 is_stmt 0 view .LVU20
  99 001a 0DB9     		cbnz	r5, .L10
 100              		.loc 1 77 3 is_stmt 1 view .LVU21
 101              		.loc 1 78 1 is_stmt 0 view .LVU22
 102 001c 0020     		movs	r0, #0
 103 001e 70BD     		pop	{r4, r5, r6, pc}
 104              	.LVL6:
 105              	.L10:
 106              		.loc 1 74 5 is_stmt 1 view .LVU23
 107              	.LBB35:
 108              	.LBI35:
 109              		.file 2 "../ChibiOS/os/oslib/include/chobjcaches.h"
 110              		.loc 2 291 20 view .LVU24
 111              	.LBB36:
 112              		.loc 2 294 3 view .LVU25
 113              	.LBB37:
 114              	.LBI37:
ARM GAS  /tmp/ccObSWMJ.s 			page 3


 115              		.file 3 "../ChibiOS/os/rt/include/chsys.h"
 116              		.loc 3 407 20 view .LVU26
 117              	.LBE37:
 118              	.LBE36:
 119              	.LBE35:
 120              		.loc 3 409 3 view .LVU27
 121              	.LBB56:
 122              	.LBB52:
 123              	.LBB42:
 124              	.LBB38:
 125              	.LBI38:
 126              		.file 4 "../ChibiOS/os/common/ports/ARMv7-M/chcore.h"
 127              		.loc 4 806 27 view .LVU28
 128              	.LBE38:
 129              	.LBE42:
 130              	.LBE52:
 131              	.LBE56:
 132              		.loc 4 814 3 view .LVU29
 133              	.LBB57:
 134              	.LBB53:
 135              	.LBB43:
 136              	.LBB41:
 137              	.LBB39:
 138              	.LBI39:
 139              		.file 5 "../ChibiOS/os/common/ext/ARM/CMSIS/Core/Include/cmsis_gcc.h"
 140              		.loc 5 491 27 view .LVU30
 141              	.LBB40:
 142              		.loc 5 493 3 view .LVU31
 143 0020 3023     		movs	r3, #48
 144              		.syntax unified
 145              	@ 493 "../ChibiOS/os/common/ext/ARM/CMSIS/Core/Include/cmsis_gcc.h" 1
 146 0022 83F31188 		MSR basepri, r3
 147              	@ 0 "" 2
 148              	.LVL7:
 149              		.loc 5 493 3 is_stmt 0 view .LVU32
 150              		.thumb
 151              		.syntax unified
 152              	.LBE40:
 153              	.LBE39:
 154              	.LBE41:
 155              	.LBE43:
 156              	.LBE53:
 157              	.LBE57:
 158              		.loc 3 410 35 is_stmt 1 view .LVU33
 159              		.loc 3 411 21 view .LVU34
 160              	.LBB58:
 161              	.LBB54:
 162              		.loc 2 295 3 view .LVU35
 163 0026 2146     		mov	r1, r4
 164 0028 3046     		mov	r0, r6
 165 002a FFF7FEFF 		bl	chCacheReleaseObjectI
 166              	.LVL8:
 167              		.loc 2 296 3 view .LVU36
 168 002e FFF7FEFF 		bl	chSchRescheduleS
 169              	.LVL9:
 170              		.loc 2 297 3 view .LVU37
 171              	.LBB44:
ARM GAS  /tmp/ccObSWMJ.s 			page 4


 172              	.LBI44:
 173              		.loc 3 421 20 view .LVU38
 174              	.LBB45:
 175              		.loc 3 423 23 view .LVU39
 176              		.loc 3 424 34 view .LVU40
 177              		.loc 3 430 3 view .LVU41
 178              		.loc 3 430 3 view .LVU42
 179              		.loc 3 430 3 view .LVU43
 180              		.loc 3 434 3 view .LVU44
 181              	.LBB46:
 182              	.LBI46:
 183              		.loc 4 830 27 view .LVU45
 184              	.LBE46:
 185              	.LBE45:
 186              	.LBE44:
 187              	.LBE54:
 188              	.LBE58:
 189              		.loc 4 833 3 view .LVU46
 190              	.LBB59:
 191              	.LBB55:
 192              	.LBB51:
 193              	.LBB50:
 194              	.LBB49:
 195              	.LBB47:
 196              	.LBI47:
 197              		.loc 5 491 27 view .LVU47
 198              	.LBB48:
 199              		.loc 5 493 3 view .LVU48
 200 0032 0023     		movs	r3, #0
 201              		.syntax unified
 202              	@ 493 "../ChibiOS/os/common/ext/ARM/CMSIS/Core/Include/cmsis_gcc.h" 1
 203 0034 83F31188 		MSR basepri, r3
 204              	@ 0 "" 2
 205              	.LVL10:
 206              		.loc 5 493 3 is_stmt 0 view .LVU49
 207              		.thumb
 208              		.syntax unified
 209              	.LBE48:
 210              	.LBE47:
 211              	.LBE49:
 212              	.LBE50:
 213              	.LBE51:
 214              	.LBE55:
 215              	.LBE59:
 216              		.loc 1 77 3 is_stmt 1 view .LVU50
 217              		.loc 1 78 1 is_stmt 0 view .LVU51
 218 0038 0020     		movs	r0, #0
 219 003a 70BD     		pop	{r4, r5, r6, pc}
 220              		.loc 1 78 1 view .LVU52
 221              		.cfi_endproc
 222              	.LFE404:
 223              		.size	obj_read, .-obj_read
 224              		.section	.rodata.oslib_test_006_001_execute.str1.4,"aMS",%progbits,1
 225              		.align	2
 226              	.LC0:
 227 0000 6E6F7420 		.ascii	"not in hash\000"
 227      696E2068 
ARM GAS  /tmp/ccObSWMJ.s 			page 5


 227      61736800 
 228              		.align	2
 229              	.LC1:
 230 000c 73686F75 		.ascii	"should not be in sync\000"
 230      6C64206E 
 230      6F742062 
 230      6520696E 
 230      2073796E 
 231 0022 0000     		.align	2
 232              	.LC2:
 233 0024 756E6578 		.ascii	"unexpected tokens\000"
 233      70656374 
 233      65642074 
 233      6F6B656E 
 233      7300
 234 0036 0000     		.align	2
 235              	.LC3:
 236 0038 00       		.ascii	"\000"
 237 0039 000000   		.align	2
 238              	.LC4:
 239 003c 696E2073 		.ascii	"in sync\000"
 239      796E6300 
 240              		.align	2
 241              	.LC5:
 242 0044 72657475 		.ascii	"returned error\000"
 242      726E6564 
 242      20657272 
 242      6F7200
 243 0053 00       		.align	2
 244              	.LC6:
 245 0054 6E6F7420 		.ascii	"not in sync\000"
 245      696E2073 
 245      796E6300 
 246              		.align	2
 247              	.LC7:
 248 0060 61626364 		.ascii	"abcdefgh\000"
 248      65666768 
 248      00
 249              		.section	.text.oslib_test_006_001_execute,"ax",%progbits
 250              		.align	1
 251              		.p2align 4,,15
 252              		.syntax unified
 253              		.thumb
 254              		.thumb_func
 255              		.fpu softvfp
 256              		.type	oslib_test_006_001_execute, %function
 257              	oslib_test_006_001_execute:
 258              	.LFB406:
 259              		.loc 1 113 46 is_stmt 1 view -0
 260              		.cfi_startproc
 261              		@ args = 0, pretend = 0, frame = 0
 262              		@ frame_needed = 0, uses_anonymous_args = 0
 263              		.loc 1 116 3 view .LVU54
 264              		.loc 1 113 46 is_stmt 0 view .LVU55
 265 0000 2DE9F047 		push	{r4, r5, r6, r7, r8, r9, r10, lr}
 266              		.cfi_def_cfa_offset 32
 267              		.cfi_offset 4, -32
ARM GAS  /tmp/ccObSWMJ.s 			page 6


 268              		.cfi_offset 5, -28
 269              		.cfi_offset 6, -24
 270              		.cfi_offset 7, -20
 271              		.cfi_offset 8, -16
 272              		.cfi_offset 9, -12
 273              		.cfi_offset 10, -8
 274              		.cfi_offset 14, -4
 275              		.loc 1 118 5 view .LVU56
 276 0004 B549     		ldr	r1, .L26
 277              		.loc 1 116 3 view .LVU57
 278 0006 DFF8D882 		ldr	r8, .L26+4
 279              		.loc 1 118 5 view .LVU58
 280 000a B64A     		ldr	r2, .L26+8
 281 000c B64C     		ldr	r4, .L26+12
 282              	.LBB125:
 283              	.LBB126:
 284              		.loc 1 135 28 view .LVU59
 285 000e B74F     		ldr	r7, .L26+16
 286              		.loc 1 137 7 view .LVU60
 287 0010 DFF8DCA2 		ldr	r10, .L26+20
 288              		.loc 1 138 7 view .LVU61
 289 0014 DFF8DC92 		ldr	r9, .L26+24
 290              	.LBE126:
 291              	.LBE125:
 292              		.loc 1 113 46 view .LVU62
 293 0018 84B0     		sub	sp, sp, #16
 294              		.cfi_def_cfa_offset 48
 295              		.loc 1 118 5 view .LVU63
 296 001a 3C23     		movs	r3, #60
 297              		.loc 1 116 3 view .LVU64
 298 001c 0120     		movs	r0, #1
 299              		.loc 1 118 5 view .LVU65
 300 001e 0394     		str	r4, [sp, #12]
 301              		.loc 1 116 3 view .LVU66
 302 0020 C8F80000 		str	r0, [r8]
 303              		.loc 1 118 5 is_stmt 1 view .LVU67
 304 0024 CDE90031 		strd	r3, r1, [sp]
 305 0028 0292     		str	r2, [sp, #8]
 306 002a 0423     		movs	r3, #4
 307 002c B24A     		ldr	r2, .L26+28
 308 002e AF48     		ldr	r0, .L26+16
 309 0030 0821     		movs	r1, #8
 310 0032 FFF7FEFF 		bl	chCacheObjectInit
 311              	.LVL11:
 312              		.loc 1 127 3 view .LVU68
 313              		.loc 1 127 19 view .LVU69
 314              		.loc 1 130 3 view .LVU70
 315 0036 0223     		movs	r3, #2
 316 0038 C8F80030 		str	r3, [r8]
 317              	.LBB163:
 318              		.loc 1 132 5 view .LVU71
 319              		.loc 1 134 5 view .LVU72
 320              	.LVL12:
 321              		.loc 1 134 17 view .LVU73
 322              		.loc 1 134 12 is_stmt 0 view .LVU74
 323 003c 0026     		movs	r6, #0
 324              	.LVL13:
ARM GAS  /tmp/ccObSWMJ.s 			page 7


 325              	.L15:
 326              	.LBB158:
 327              		.loc 1 135 7 is_stmt 1 view .LVU75
 328              		.loc 1 135 28 is_stmt 0 view .LVU76
 329 003e 3246     		mov	r2, r6
 330 0040 0021     		movs	r1, #0
 331 0042 3846     		mov	r0, r7
 332 0044 FFF7FEFF 		bl	chCacheGetObject
 333              	.LVL14:
 334 0048 0446     		mov	r4, r0
 335              	.LVL15:
 336              		.loc 1 137 7 is_stmt 1 view .LVU77
 337 004a 406A     		ldr	r0, [r0, #36]
 338              	.LVL16:
 339              		.loc 1 137 7 is_stmt 0 view .LVU78
 340 004c 5146     		mov	r1, r10
 341 004e C0F34000 		ubfx	r0, r0, #1, #1
 342 0052 FFF7FEFF 		bl	__test_assert
 343              	.LVL17:
 344              		.loc 1 137 75 is_stmt 1 view .LVU79
 345              		.loc 1 138 7 view .LVU80
 346 0056 4946     		mov	r1, r9
 347              		.loc 1 137 7 is_stmt 0 view .LVU81
 348 0058 0028     		cmp	r0, #0
 349 005a 40F03B81 		bne	.L11
 350              		.loc 1 138 7 discriminator 2 view .LVU82
 351 005e 606A     		ldr	r0, [r4, #36]
 352 0060 C0F3C000 		ubfx	r0, r0, #3, #1
 353 0064 FFF7FEFF 		bl	__test_assert
 354              	.LVL18:
 355              		.loc 1 138 86 is_stmt 1 discriminator 2 view .LVU83
 356              		.loc 1 140 7 discriminator 2 view .LVU84
 357              	.LBB127:
 358              	.LBI127:
 359              		.loc 2 291 20 discriminator 2 view .LVU85
 360              	.LBB128:
 361              		.loc 2 294 3 discriminator 2 view .LVU86
 362              	.LBB129:
 363              	.LBI129:
 364              		.loc 3 407 20 discriminator 2 view .LVU87
 365              	.LBE129:
 366              	.LBE128:
 367              	.LBE127:
 368              	.LBE158:
 369              	.LBE163:
 370              		.loc 3 409 3 discriminator 2 view .LVU88
 371              	.LBB164:
 372              	.LBB159:
 373              	.LBB153:
 374              	.LBB148:
 375              	.LBB137:
 376              	.LBB130:
 377              	.LBI130:
 378              		.loc 4 806 27 discriminator 2 view .LVU89
 379              	.LBE130:
 380              	.LBE137:
 381              	.LBE148:
ARM GAS  /tmp/ccObSWMJ.s 			page 8


 382              	.LBE153:
 383              	.LBE159:
 384              	.LBE164:
 385              		.loc 4 814 3 discriminator 2 view .LVU90
 386              	.LBB165:
 387              	.LBB160:
 388              	.LBB154:
 389              	.LBB149:
 390              	.LBB138:
 391              	.LBB135:
 392              	.LBB131:
 393              	.LBI131:
 394              		.loc 5 491 27 discriminator 2 view .LVU91
 395              	.LBB132:
 396              		.loc 5 493 3 discriminator 2 view .LVU92
 397 0068 3023     		movs	r3, #48
 398              	.LBE132:
 399              	.LBE131:
 400              	.LBE135:
 401              	.LBE138:
 402              	.LBE149:
 403              	.LBE154:
 404              		.loc 1 138 7 is_stmt 0 discriminator 2 view .LVU93
 405 006a 0546     		mov	r5, r0
 406 006c 0028     		cmp	r0, #0
 407 006e 40F03181 		bne	.L11
 408              	.LBB155:
 409              	.LBB150:
 410              	.LBB139:
 411              	.LBB136:
 412              	.LBB134:
 413              	.LBB133:
 414              		.loc 5 493 3 view .LVU94
 415              		.syntax unified
 416              	@ 493 "../ChibiOS/os/common/ext/ARM/CMSIS/Core/Include/cmsis_gcc.h" 1
 417 0072 83F31188 		MSR basepri, r3
 418              	@ 0 "" 2
 419              	.LVL19:
 420              		.loc 5 493 3 view .LVU95
 421              		.thumb
 422              		.syntax unified
 423              	.LBE133:
 424              	.LBE134:
 425              	.LBE136:
 426              	.LBE139:
 427              	.LBE150:
 428              	.LBE155:
 429              	.LBE160:
 430              	.LBE165:
 431              		.loc 3 410 35 is_stmt 1 view .LVU96
 432              		.loc 3 411 21 view .LVU97
 433              	.LBB166:
 434              	.LBB161:
 435              	.LBB156:
 436              	.LBB151:
 437              		.loc 2 295 3 view .LVU98
 438 0076 2146     		mov	r1, r4
ARM GAS  /tmp/ccObSWMJ.s 			page 9


 439 0078 3846     		mov	r0, r7
 440 007a FFF7FEFF 		bl	chCacheReleaseObjectI
 441              	.LVL20:
 442              		.loc 2 296 3 view .LVU99
 443 007e FFF7FEFF 		bl	chSchRescheduleS
 444              	.LVL21:
 445              		.loc 2 297 3 view .LVU100
 446              	.LBB140:
 447              	.LBI140:
 448              		.loc 3 421 20 view .LVU101
 449              	.LBB141:
 450              		.loc 3 423 23 view .LVU102
 451              		.loc 3 424 34 view .LVU103
 452              		.loc 3 430 3 view .LVU104
 453              		.loc 3 430 3 view .LVU105
 454              		.loc 3 430 3 view .LVU106
 455              		.loc 3 434 3 view .LVU107
 456              	.LBB142:
 457              	.LBI142:
 458              		.loc 4 830 27 view .LVU108
 459              	.LBE142:
 460              	.LBE141:
 461              	.LBE140:
 462              	.LBE151:
 463              	.LBE156:
 464              	.LBE161:
 465              	.LBE166:
 466              		.loc 4 833 3 view .LVU109
 467              	.LBB167:
 468              	.LBB162:
 469              	.LBB157:
 470              	.LBB152:
 471              	.LBB147:
 472              	.LBB146:
 473              	.LBB145:
 474              	.LBB143:
 475              	.LBI143:
 476              		.loc 5 491 27 view .LVU110
 477              	.LBB144:
 478              		.loc 5 493 3 view .LVU111
 479              		.syntax unified
 480              	@ 493 "../ChibiOS/os/common/ext/ARM/CMSIS/Core/Include/cmsis_gcc.h" 1
 481 0082 85F31188 		MSR basepri, r5
 482              	@ 0 "" 2
 483              	.LVL22:
 484              		.loc 5 493 3 is_stmt 0 view .LVU112
 485              		.thumb
 486              		.syntax unified
 487              	.LBE144:
 488              	.LBE143:
 489              	.LBE145:
 490              	.LBE146:
 491              	.LBE147:
 492              	.LBE152:
 493              	.LBE157:
 494              	.LBE162:
 495              		.loc 1 134 40 is_stmt 1 view .LVU113
ARM GAS  /tmp/ccObSWMJ.s 			page 10


 496              		.loc 1 134 41 is_stmt 0 view .LVU114
 497 0086 0136     		adds	r6, r6, #1
 498              	.LVL23:
 499              		.loc 1 134 17 is_stmt 1 view .LVU115
 500              		.loc 1 134 5 is_stmt 0 view .LVU116
 501 0088 082E     		cmp	r6, #8
 502 008a D8D1     		bne	.L15
 503              		.loc 1 143 5 is_stmt 1 view .LVU117
 504 008c 9B49     		ldr	r1, .L26+32
 505 008e 9C48     		ldr	r0, .L26+36
 506 0090 FFF7FEFF 		bl	__test_assert_sequence
 507              	.LVL24:
 508 0094 0546     		mov	r5, r0
 509 0096 0028     		cmp	r0, #0
 510 0098 40F01C81 		bne	.L11
 511              		.loc 1 143 50 discriminator 2 view .LVU118
 512              	.LBE167:
 513              		.loc 1 145 3 discriminator 2 view .LVU119
 514              		.loc 1 145 19 discriminator 2 view .LVU120
 515              		.loc 1 149 3 discriminator 2 view .LVU121
 516 009c 0323     		movs	r3, #3
 517              	.LBB168:
 518              	.LBB169:
 519              		.loc 1 155 27 is_stmt 0 discriminator 2 view .LVU122
 520 009e 934F     		ldr	r7, .L26+16
 521              		.loc 1 157 7 discriminator 2 view .LVU123
 522 00a0 DFF84C92 		ldr	r9, .L26+20
 523              		.loc 1 158 7 discriminator 2 view .LVU124
 524 00a4 DFF85CA2 		ldr	r10, .L26+40
 525              	.LBE169:
 526              	.LBE168:
 527              		.loc 1 149 3 discriminator 2 view .LVU125
 528 00a8 C8F80030 		str	r3, [r8]
 529              	.LBB206:
 530              		.loc 1 151 5 is_stmt 1 discriminator 2 view .LVU126
 531              		.loc 1 152 5 discriminator 2 view .LVU127
 532              		.loc 1 154 5 discriminator 2 view .LVU128
 533              	.LVL25:
 534              		.loc 1 154 17 discriminator 2 view .LVU129
 535              	.L16:
 536              	.LBB201:
 537              		.loc 1 155 7 view .LVU130
 538              		.loc 1 155 27 is_stmt 0 view .LVU131
 539 00ac 2A46     		mov	r2, r5
 540 00ae 0021     		movs	r1, #0
 541 00b0 3846     		mov	r0, r7
 542 00b2 FFF7FEFF 		bl	chCacheGetObject
 543              	.LVL26:
 544 00b6 0446     		mov	r4, r0
 545              	.LVL27:
 546              		.loc 1 157 7 is_stmt 1 view .LVU132
 547 00b8 406A     		ldr	r0, [r0, #36]
 548              	.LVL28:
 549              		.loc 1 157 7 is_stmt 0 view .LVU133
 550 00ba 4946     		mov	r1, r9
 551 00bc C0F34000 		ubfx	r0, r0, #1, #1
 552 00c0 FFF7FEFF 		bl	__test_assert
ARM GAS  /tmp/ccObSWMJ.s 			page 11


 553              	.LVL29:
 554              		.loc 1 157 75 is_stmt 1 view .LVU134
 555              		.loc 1 158 7 view .LVU135
 556 00c4 5146     		mov	r1, r10
 557              		.loc 1 157 7 is_stmt 0 view .LVU136
 558 00c6 0028     		cmp	r0, #0
 559 00c8 40F00481 		bne	.L11
 560              		.loc 1 158 7 discriminator 2 view .LVU137
 561 00cc 606A     		ldr	r0, [r4, #36]
 562 00ce C0F3C000 		ubfx	r0, r0, #3, #1
 563 00d2 FFF7FEFF 		bl	__test_assert
 564              	.LVL30:
 565              		.loc 1 158 72 is_stmt 1 discriminator 2 view .LVU138
 566              		.loc 1 160 7 discriminator 2 view .LVU139
 567              		.loc 1 158 7 is_stmt 0 discriminator 2 view .LVU140
 568 00d6 0246     		mov	r2, r0
 569              		.loc 1 160 15 discriminator 2 view .LVU141
 570 00d8 2146     		mov	r1, r4
 571 00da 3846     		mov	r0, r7
 572              		.loc 1 158 7 discriminator 2 view .LVU142
 573 00dc 002A     		cmp	r2, #0
 574 00de 40F0F980 		bne	.L11
 575              		.loc 1 160 15 discriminator 2 view .LVU143
 576 00e2 FFF7FEFF 		bl	chCacheReadObject
 577              	.LVL31:
 578              		.loc 1 162 7 is_stmt 1 discriminator 2 view .LVU144
 579 00e6 80F00100 		eor	r0, r0, #1
 580              	.LVL32:
 581              		.loc 1 162 7 is_stmt 0 discriminator 2 view .LVU145
 582 00ea 8749     		ldr	r1, .L26+44
 583 00ec C0B2     		uxtb	r0, r0
 584 00ee FFF7FEFF 		bl	__test_assert
 585              	.LVL33:
 586              		.loc 1 162 52 is_stmt 1 discriminator 2 view .LVU146
 587              		.loc 1 163 7 discriminator 2 view .LVU147
 588 00f2 4946     		mov	r1, r9
 589              		.loc 1 162 7 is_stmt 0 discriminator 2 view .LVU148
 590 00f4 0028     		cmp	r0, #0
 591 00f6 40F0ED80 		bne	.L11
 592              		.loc 1 163 7 discriminator 2 view .LVU149
 593 00fa 606A     		ldr	r0, [r4, #36]
 594 00fc C0F34000 		ubfx	r0, r0, #1, #1
 595 0100 FFF7FEFF 		bl	__test_assert
 596              	.LVL34:
 597              		.loc 1 163 75 is_stmt 1 discriminator 2 view .LVU150
 598              		.loc 1 164 7 discriminator 2 view .LVU151
 599 0104 8149     		ldr	r1, .L26+48
 600              		.loc 1 163 7 is_stmt 0 discriminator 2 view .LVU152
 601 0106 0028     		cmp	r0, #0
 602 0108 40F0E480 		bne	.L11
 603              		.loc 1 164 7 discriminator 2 view .LVU153
 604 010c 606A     		ldr	r0, [r4, #36]
 605 010e 80F00800 		eor	r0, r0, #8
 606 0112 C0F3C000 		ubfx	r0, r0, #3, #1
 607 0116 FFF7FEFF 		bl	__test_assert
 608              	.LVL35:
 609              		.loc 1 164 76 is_stmt 1 discriminator 2 view .LVU154
ARM GAS  /tmp/ccObSWMJ.s 			page 12


 610              		.loc 1 166 7 discriminator 2 view .LVU155
 611              	.LBB170:
 612              	.LBI170:
 613              		.loc 2 291 20 discriminator 2 view .LVU156
 614              	.LBB171:
 615              		.loc 2 294 3 discriminator 2 view .LVU157
 616              	.LBB172:
 617              	.LBI172:
 618              		.loc 3 407 20 discriminator 2 view .LVU158
 619              	.LBE172:
 620              	.LBE171:
 621              	.LBE170:
 622              	.LBE201:
 623              	.LBE206:
 624              		.loc 3 409 3 discriminator 2 view .LVU159
 625              	.LBB207:
 626              	.LBB202:
 627              	.LBB196:
 628              	.LBB191:
 629              	.LBB180:
 630              	.LBB173:
 631              	.LBI173:
 632              		.loc 4 806 27 discriminator 2 view .LVU160
 633              	.LBE173:
 634              	.LBE180:
 635              	.LBE191:
 636              	.LBE196:
 637              	.LBE202:
 638              	.LBE207:
 639              		.loc 4 814 3 discriminator 2 view .LVU161
 640              	.LBB208:
 641              	.LBB203:
 642              	.LBB197:
 643              	.LBB192:
 644              	.LBB181:
 645              	.LBB178:
 646              	.LBB174:
 647              	.LBI174:
 648              		.loc 5 491 27 discriminator 2 view .LVU162
 649              	.LBB175:
 650              		.loc 5 493 3 discriminator 2 view .LVU163
 651 011a 3023     		movs	r3, #48
 652              	.LBE175:
 653              	.LBE174:
 654              	.LBE178:
 655              	.LBE181:
 656              	.LBE192:
 657              	.LBE197:
 658              		.loc 1 164 7 is_stmt 0 discriminator 2 view .LVU164
 659 011c 0646     		mov	r6, r0
 660 011e 0028     		cmp	r0, #0
 661 0120 40F0D880 		bne	.L11
 662              	.LBB198:
 663              	.LBB193:
 664              	.LBB182:
 665              	.LBB179:
 666              	.LBB177:
ARM GAS  /tmp/ccObSWMJ.s 			page 13


 667              	.LBB176:
 668              		.loc 5 493 3 view .LVU165
 669              		.syntax unified
 670              	@ 493 "../ChibiOS/os/common/ext/ARM/CMSIS/Core/Include/cmsis_gcc.h" 1
 671 0124 83F31188 		MSR basepri, r3
 672              	@ 0 "" 2
 673              	.LVL36:
 674              		.loc 5 493 3 view .LVU166
 675              		.thumb
 676              		.syntax unified
 677              	.LBE176:
 678              	.LBE177:
 679              	.LBE179:
 680              	.LBE182:
 681              	.LBE193:
 682              	.LBE198:
 683              	.LBE203:
 684              	.LBE208:
 685              		.loc 3 410 35 is_stmt 1 view .LVU167
 686              		.loc 3 411 21 view .LVU168
 687              	.LBB209:
 688              	.LBB204:
 689              	.LBB199:
 690              	.LBB194:
 691              		.loc 2 295 3 view .LVU169
 692 0128 2146     		mov	r1, r4
 693 012a 3846     		mov	r0, r7
 694 012c FFF7FEFF 		bl	chCacheReleaseObjectI
 695              	.LVL37:
 696              		.loc 2 296 3 view .LVU170
 697 0130 FFF7FEFF 		bl	chSchRescheduleS
 698              	.LVL38:
 699              		.loc 2 297 3 view .LVU171
 700              	.LBB183:
 701              	.LBI183:
 702              		.loc 3 421 20 view .LVU172
 703              	.LBB184:
 704              		.loc 3 423 23 view .LVU173
 705              		.loc 3 424 34 view .LVU174
 706              		.loc 3 430 3 view .LVU175
 707              		.loc 3 430 3 view .LVU176
 708              		.loc 3 430 3 view .LVU177
 709              		.loc 3 434 3 view .LVU178
 710              	.LBB185:
 711              	.LBI185:
 712              		.loc 4 830 27 view .LVU179
 713              	.LBE185:
 714              	.LBE184:
 715              	.LBE183:
 716              	.LBE194:
 717              	.LBE199:
 718              	.LBE204:
 719              	.LBE209:
 720              		.loc 4 833 3 view .LVU180
 721              	.LBB210:
 722              	.LBB205:
 723              	.LBB200:
ARM GAS  /tmp/ccObSWMJ.s 			page 14


 724              	.LBB195:
 725              	.LBB190:
 726              	.LBB189:
 727              	.LBB188:
 728              	.LBB186:
 729              	.LBI186:
 730              		.loc 5 491 27 view .LVU181
 731              	.LBB187:
 732              		.loc 5 493 3 view .LVU182
 733              		.syntax unified
 734              	@ 493 "../ChibiOS/os/common/ext/ARM/CMSIS/Core/Include/cmsis_gcc.h" 1
 735 0134 86F31188 		MSR basepri, r6
 736              	@ 0 "" 2
 737              	.LVL39:
 738              		.loc 5 493 3 is_stmt 0 view .LVU183
 739              		.thumb
 740              		.syntax unified
 741              	.LBE187:
 742              	.LBE186:
 743              	.LBE188:
 744              	.LBE189:
 745              	.LBE190:
 746              	.LBE195:
 747              	.LBE200:
 748              	.LBE205:
 749              		.loc 1 154 40 is_stmt 1 view .LVU184
 750              		.loc 1 154 41 is_stmt 0 view .LVU185
 751 0138 0135     		adds	r5, r5, #1
 752              	.LVL40:
 753              		.loc 1 154 17 is_stmt 1 view .LVU186
 754              		.loc 1 154 5 is_stmt 0 view .LVU187
 755 013a 082D     		cmp	r5, #8
 756 013c B6D1     		bne	.L16
 757              		.loc 1 169 5 is_stmt 1 view .LVU188
 758 013e 6F49     		ldr	r1, .L26+32
 759 0140 7348     		ldr	r0, .L26+52
 760 0142 FFF7FEFF 		bl	__test_assert_sequence
 761              	.LVL41:
 762 0146 0446     		mov	r4, r0
 763              	.LVL42:
 764              		.loc 1 169 5 is_stmt 0 view .LVU189
 765 0148 0028     		cmp	r0, #0
 766 014a 40F0C380 		bne	.L11
 767              		.loc 1 169 58 is_stmt 1 discriminator 2 view .LVU190
 768              	.LBE210:
 769              		.loc 1 171 3 discriminator 2 view .LVU191
 770              		.loc 1 171 19 discriminator 2 view .LVU192
 771              		.loc 1 175 3 discriminator 2 view .LVU193
 772 014e 0423     		movs	r3, #4
 773              	.LBB211:
 774              	.LBB212:
 775              		.loc 1 181 27 is_stmt 0 discriminator 2 view .LVU194
 776 0150 664E     		ldr	r6, .L26+16
 777              		.loc 1 183 7 discriminator 2 view .LVU195
 778 0152 674F     		ldr	r7, .L26+20
 779              		.loc 1 184 7 discriminator 2 view .LVU196
 780 0154 DFF8AC91 		ldr	r9, .L26+40
ARM GAS  /tmp/ccObSWMJ.s 			page 15


 781              	.LBE212:
 782              	.LBE211:
 783              		.loc 1 175 3 discriminator 2 view .LVU197
 784 0158 C8F80030 		str	r3, [r8]
 785              	.LBB249:
 786              		.loc 1 177 5 is_stmt 1 discriminator 2 view .LVU198
 787              		.loc 1 178 5 discriminator 2 view .LVU199
 788              		.loc 1 180 5 discriminator 2 view .LVU200
 789              	.LVL43:
 790              		.loc 1 180 17 discriminator 2 view .LVU201
 791              	.L17:
 792              	.LBB244:
 793              		.loc 1 181 7 view .LVU202
 794              		.loc 1 181 27 is_stmt 0 view .LVU203
 795 015c 0021     		movs	r1, #0
 796 015e 2246     		mov	r2, r4
 797 0160 3046     		mov	r0, r6
 798 0162 FFF7FEFF 		bl	chCacheGetObject
 799              	.LVL44:
 800 0166 0546     		mov	r5, r0
 801              	.LVL45:
 802              		.loc 1 183 7 is_stmt 1 view .LVU204
 803 0168 406A     		ldr	r0, [r0, #36]
 804              	.LVL46:
 805              		.loc 1 183 7 is_stmt 0 view .LVU205
 806 016a 3946     		mov	r1, r7
 807 016c C0F34000 		ubfx	r0, r0, #1, #1
 808 0170 FFF7FEFF 		bl	__test_assert
 809              	.LVL47:
 810              		.loc 1 183 75 is_stmt 1 view .LVU206
 811              		.loc 1 184 7 view .LVU207
 812              		.loc 1 183 7 is_stmt 0 view .LVU208
 813 0174 0028     		cmp	r0, #0
 814 0176 40F0AD80 		bne	.L11
 815              		.loc 1 184 7 discriminator 2 view .LVU209
 816 017a 686A     		ldr	r0, [r5, #36]
 817 017c 4946     		mov	r1, r9
 818 017e C0F3C000 		ubfx	r0, r0, #3, #1
 819 0182 FFF7FEFF 		bl	__test_assert
 820              	.LVL48:
 821              		.loc 1 184 72 is_stmt 1 discriminator 2 view .LVU210
 822              		.loc 1 186 7 discriminator 2 view .LVU211
 823              		.loc 1 184 7 is_stmt 0 discriminator 2 view .LVU212
 824 0186 0028     		cmp	r0, #0
 825 0188 40F0A480 		bne	.L11
 826              		.loc 1 186 15 discriminator 2 view .LVU213
 827 018c 0122     		movs	r2, #1
 828 018e 2946     		mov	r1, r5
 829 0190 3046     		mov	r0, r6
 830 0192 FFF7FEFF 		bl	chCacheReadObject
 831              	.LVL49:
 832              		.loc 1 188 7 is_stmt 1 discriminator 2 view .LVU214
 833 0196 80F00100 		eor	r0, r0, #1
 834              	.LVL50:
 835              		.loc 1 188 7 is_stmt 0 discriminator 2 view .LVU215
 836 019a 5B49     		ldr	r1, .L26+44
 837 019c C0B2     		uxtb	r0, r0
ARM GAS  /tmp/ccObSWMJ.s 			page 16


 838 019e FFF7FEFF 		bl	__test_assert
 839              	.LVL51:
 840              		.loc 1 188 52 is_stmt 1 discriminator 2 view .LVU216
 841              		.loc 1 190 7 discriminator 2 view .LVU217
 842              		.loc 1 188 7 is_stmt 0 discriminator 2 view .LVU218
 843 01a2 0146     		mov	r1, r0
 844              		.loc 1 190 14 discriminator 2 view .LVU219
 845 01a4 2246     		mov	r2, r4
 846 01a6 3046     		mov	r0, r6
 847              		.loc 1 188 7 discriminator 2 view .LVU220
 848 01a8 0029     		cmp	r1, #0
 849 01aa 40F09380 		bne	.L11
 850              		.loc 1 190 14 discriminator 2 view .LVU221
 851 01ae FFF7FEFF 		bl	chCacheGetObject
 852              	.LVL52:
 853 01b2 0546     		mov	r5, r0
 854              	.LVL53:
 855              		.loc 1 192 7 is_stmt 1 discriminator 2 view .LVU222
 856 01b4 406A     		ldr	r0, [r0, #36]
 857              	.LVL54:
 858              		.loc 1 192 7 is_stmt 0 discriminator 2 view .LVU223
 859 01b6 3946     		mov	r1, r7
 860 01b8 C0F34000 		ubfx	r0, r0, #1, #1
 861 01bc FFF7FEFF 		bl	__test_assert
 862              	.LVL55:
 863              		.loc 1 192 75 is_stmt 1 discriminator 2 view .LVU224
 864              		.loc 1 193 7 discriminator 2 view .LVU225
 865              		.loc 1 192 7 is_stmt 0 discriminator 2 view .LVU226
 866 01c0 0028     		cmp	r0, #0
 867 01c2 40F08780 		bne	.L11
 868              		.loc 1 193 7 discriminator 2 view .LVU227
 869 01c6 686A     		ldr	r0, [r5, #36]
 870 01c8 5049     		ldr	r1, .L26+48
 871 01ca 80F00800 		eor	r0, r0, #8
 872 01ce C0F3C000 		ubfx	r0, r0, #3, #1
 873 01d2 FFF7FEFF 		bl	__test_assert
 874              	.LVL56:
 875              		.loc 1 193 76 is_stmt 1 discriminator 2 view .LVU228
 876              		.loc 1 195 7 discriminator 2 view .LVU229
 877              	.LBB213:
 878              	.LBI213:
 879              		.loc 2 291 20 discriminator 2 view .LVU230
 880              	.LBB214:
 881              		.loc 2 294 3 discriminator 2 view .LVU231
 882              	.LBB215:
 883              	.LBI215:
 884              		.loc 3 407 20 discriminator 2 view .LVU232
 885              	.LBE215:
 886              	.LBE214:
 887              	.LBE213:
 888              	.LBE244:
 889              	.LBE249:
 890              		.loc 3 409 3 discriminator 2 view .LVU233
 891              	.LBB250:
 892              	.LBB245:
 893              	.LBB239:
 894              	.LBB234:
ARM GAS  /tmp/ccObSWMJ.s 			page 17


 895              	.LBB223:
 896              	.LBB216:
 897              	.LBI216:
 898              		.loc 4 806 27 discriminator 2 view .LVU234
 899              	.LBE216:
 900              	.LBE223:
 901              	.LBE234:
 902              	.LBE239:
 903              	.LBE245:
 904              	.LBE250:
 905              		.loc 4 814 3 discriminator 2 view .LVU235
 906              	.LBB251:
 907              	.LBB246:
 908              	.LBB240:
 909              	.LBB235:
 910              	.LBB224:
 911              	.LBB221:
 912              	.LBB217:
 913              	.LBI217:
 914              		.loc 5 491 27 discriminator 2 view .LVU236
 915              	.LBB218:
 916              		.loc 5 493 3 discriminator 2 view .LVU237
 917 01d6 3023     		movs	r3, #48
 918              	.LBE218:
 919              	.LBE217:
 920              	.LBE221:
 921              	.LBE224:
 922              	.LBE235:
 923              	.LBE240:
 924              		.loc 1 193 7 is_stmt 0 discriminator 2 view .LVU238
 925 01d8 8246     		mov	r10, r0
 926 01da 0028     		cmp	r0, #0
 927 01dc 7AD1     		bne	.L11
 928              	.LBB241:
 929              	.LBB236:
 930              	.LBB225:
 931              	.LBB222:
 932              	.LBB220:
 933              	.LBB219:
 934              		.loc 5 493 3 view .LVU239
 935              		.syntax unified
 936              	@ 493 "../ChibiOS/os/common/ext/ARM/CMSIS/Core/Include/cmsis_gcc.h" 1
 937 01de 83F31188 		MSR basepri, r3
 938              	@ 0 "" 2
 939              	.LVL57:
 940              		.loc 5 493 3 view .LVU240
 941              		.thumb
 942              		.syntax unified
 943              	.LBE219:
 944              	.LBE220:
 945              	.LBE222:
 946              	.LBE225:
 947              	.LBE236:
 948              	.LBE241:
 949              	.LBE246:
 950              	.LBE251:
 951              		.loc 3 410 35 is_stmt 1 view .LVU241
ARM GAS  /tmp/ccObSWMJ.s 			page 18


 952              		.loc 3 411 21 view .LVU242
 953              	.LBB252:
 954              	.LBB247:
 955              	.LBB242:
 956              	.LBB237:
 957              		.loc 2 295 3 view .LVU243
 958 01e2 2946     		mov	r1, r5
 959 01e4 3046     		mov	r0, r6
 960 01e6 FFF7FEFF 		bl	chCacheReleaseObjectI
 961              	.LVL58:
 962              		.loc 2 296 3 view .LVU244
 963 01ea FFF7FEFF 		bl	chSchRescheduleS
 964              	.LVL59:
 965              		.loc 2 297 3 view .LVU245
 966              	.LBB226:
 967              	.LBI226:
 968              		.loc 3 421 20 view .LVU246
 969              	.LBB227:
 970              		.loc 3 423 23 view .LVU247
 971              		.loc 3 424 34 view .LVU248
 972              		.loc 3 430 3 view .LVU249
 973              		.loc 3 430 3 view .LVU250
 974              		.loc 3 430 3 view .LVU251
 975              		.loc 3 434 3 view .LVU252
 976              	.LBB228:
 977              	.LBI228:
 978              		.loc 4 830 27 view .LVU253
 979              	.LBE228:
 980              	.LBE227:
 981              	.LBE226:
 982              	.LBE237:
 983              	.LBE242:
 984              	.LBE247:
 985              	.LBE252:
 986              		.loc 4 833 3 view .LVU254
 987              	.LBB253:
 988              	.LBB248:
 989              	.LBB243:
 990              	.LBB238:
 991              	.LBB233:
 992              	.LBB232:
 993              	.LBB231:
 994              	.LBB229:
 995              	.LBI229:
 996              		.loc 5 491 27 view .LVU255
 997              	.LBB230:
 998              		.loc 5 493 3 view .LVU256
 999              		.syntax unified
 1000              	@ 493 "../ChibiOS/os/common/ext/ARM/CMSIS/Core/Include/cmsis_gcc.h" 1
 1001 01ee 8AF31188 		MSR basepri, r10
 1002              	@ 0 "" 2
 1003              	.LVL60:
 1004              		.loc 5 493 3 is_stmt 0 view .LVU257
 1005              		.thumb
 1006              		.syntax unified
 1007              	.LBE230:
 1008              	.LBE229:
ARM GAS  /tmp/ccObSWMJ.s 			page 19


 1009              	.LBE231:
 1010              	.LBE232:
 1011              	.LBE233:
 1012              	.LBE238:
 1013              	.LBE243:
 1014              	.LBE248:
 1015              		.loc 1 180 40 is_stmt 1 view .LVU258
 1016              		.loc 1 180 41 is_stmt 0 view .LVU259
 1017 01f2 0134     		adds	r4, r4, #1
 1018              	.LVL61:
 1019              		.loc 1 180 17 is_stmt 1 view .LVU260
 1020              		.loc 1 180 5 is_stmt 0 view .LVU261
 1021 01f4 082C     		cmp	r4, #8
 1022 01f6 B1D1     		bne	.L17
 1023              		.loc 1 198 5 is_stmt 1 view .LVU262
 1024 01f8 4049     		ldr	r1, .L26+32
 1025 01fa 4548     		ldr	r0, .L26+52
 1026 01fc FFF7FEFF 		bl	__test_assert_sequence
 1027              	.LVL62:
 1028 0200 0028     		cmp	r0, #0
 1029 0202 67D1     		bne	.L11
 1030              		.loc 1 198 58 discriminator 2 view .LVU263
 1031              	.LBE253:
 1032              		.loc 1 200 3 discriminator 2 view .LVU264
 1033              		.loc 1 200 19 discriminator 2 view .LVU265
 1034              		.loc 1 203 3 discriminator 2 view .LVU266
 1035 0204 0523     		movs	r3, #5
 1036              	.LBB254:
 1037              	.LBB255:
 1038              		.loc 1 208 27 is_stmt 0 discriminator 2 view .LVU267
 1039 0206 394F     		ldr	r7, .L26+16
 1040              		.loc 1 210 7 discriminator 2 view .LVU268
 1041 0208 DFF8E490 		ldr	r9, .L26+20
 1042              		.loc 1 211 7 discriminator 2 view .LVU269
 1043 020c DFF8FCA0 		ldr	r10, .L26+48
 1044              	.LBE255:
 1045              	.LBE254:
 1046              		.loc 1 203 3 discriminator 2 view .LVU270
 1047 0210 C8F80030 		str	r3, [r8]
 1048              	.LBB292:
 1049              		.loc 1 205 5 is_stmt 1 discriminator 2 view .LVU271
 1050              		.loc 1 207 5 discriminator 2 view .LVU272
 1051              	.LVL63:
 1052              		.loc 1 207 27 discriminator 2 view .LVU273
 1053              		.loc 1 207 12 is_stmt 0 discriminator 2 view .LVU274
 1054 0214 0426     		movs	r6, #4
 1055              	.LVL64:
 1056              	.L18:
 1057              	.LBB287:
 1058              		.loc 1 208 7 is_stmt 1 view .LVU275
 1059              		.loc 1 208 27 is_stmt 0 view .LVU276
 1060 0216 0021     		movs	r1, #0
 1061 0218 3246     		mov	r2, r6
 1062 021a 3846     		mov	r0, r7
 1063 021c FFF7FEFF 		bl	chCacheGetObject
 1064              	.LVL65:
 1065 0220 0446     		mov	r4, r0
ARM GAS  /tmp/ccObSWMJ.s 			page 20


 1066              	.LVL66:
 1067              		.loc 1 210 7 is_stmt 1 view .LVU277
 1068 0222 406A     		ldr	r0, [r0, #36]
 1069              	.LVL67:
 1070              		.loc 1 210 7 is_stmt 0 view .LVU278
 1071 0224 4946     		mov	r1, r9
 1072 0226 C0F34000 		ubfx	r0, r0, #1, #1
 1073 022a FFF7FEFF 		bl	__test_assert
 1074              	.LVL68:
 1075              		.loc 1 210 75 is_stmt 1 view .LVU279
 1076              		.loc 1 211 7 view .LVU280
 1077              		.loc 1 210 7 is_stmt 0 view .LVU281
 1078 022e 0028     		cmp	r0, #0
 1079 0230 50D1     		bne	.L11
 1080              		.loc 1 211 7 discriminator 2 view .LVU282
 1081 0232 606A     		ldr	r0, [r4, #36]
 1082 0234 80F00800 		eor	r0, r0, #8
 1083 0238 C0F3C000 		ubfx	r0, r0, #3, #1
 1084 023c 5146     		mov	r1, r10
 1085 023e FFF7FEFF 		bl	__test_assert
 1086              	.LVL69:
 1087              		.loc 1 211 76 is_stmt 1 discriminator 2 view .LVU283
 1088              		.loc 1 213 7 discriminator 2 view .LVU284
 1089              	.LBB256:
 1090              	.LBI256:
 1091              		.loc 2 291 20 discriminator 2 view .LVU285
 1092              	.LBB257:
 1093              		.loc 2 294 3 discriminator 2 view .LVU286
 1094              	.LBB258:
 1095              	.LBI258:
 1096              		.loc 3 407 20 discriminator 2 view .LVU287
 1097              	.LBE258:
 1098              	.LBE257:
 1099              	.LBE256:
 1100              	.LBE287:
 1101              	.LBE292:
 1102              		.loc 3 409 3 discriminator 2 view .LVU288
 1103              	.LBB293:
 1104              	.LBB288:
 1105              	.LBB282:
 1106              	.LBB277:
 1107              	.LBB266:
 1108              	.LBB259:
 1109              	.LBI259:
 1110              		.loc 4 806 27 discriminator 2 view .LVU289
 1111              	.LBE259:
 1112              	.LBE266:
 1113              	.LBE277:
 1114              	.LBE282:
 1115              	.LBE288:
 1116              	.LBE293:
 1117              		.loc 4 814 3 discriminator 2 view .LVU290
 1118              	.LBB294:
 1119              	.LBB289:
 1120              	.LBB283:
 1121              	.LBB278:
 1122              	.LBB267:
ARM GAS  /tmp/ccObSWMJ.s 			page 21


 1123              	.LBB264:
 1124              	.LBB260:
 1125              	.LBI260:
 1126              		.loc 5 491 27 discriminator 2 view .LVU291
 1127              	.LBB261:
 1128              		.loc 5 493 3 discriminator 2 view .LVU292
 1129 0242 3023     		movs	r3, #48
 1130              	.LBE261:
 1131              	.LBE260:
 1132              	.LBE264:
 1133              	.LBE267:
 1134              	.LBE278:
 1135              	.LBE283:
 1136              		.loc 1 211 7 is_stmt 0 discriminator 2 view .LVU293
 1137 0244 0546     		mov	r5, r0
 1138 0246 0028     		cmp	r0, #0
 1139 0248 44D1     		bne	.L11
 1140              	.LBB284:
 1141              	.LBB279:
 1142              	.LBB268:
 1143              	.LBB265:
 1144              	.LBB263:
 1145              	.LBB262:
 1146              		.loc 5 493 3 view .LVU294
 1147              		.syntax unified
 1148              	@ 493 "../ChibiOS/os/common/ext/ARM/CMSIS/Core/Include/cmsis_gcc.h" 1
 1149 024a 83F31188 		MSR basepri, r3
 1150              	@ 0 "" 2
 1151              	.LVL70:
 1152              		.loc 5 493 3 view .LVU295
 1153              		.thumb
 1154              		.syntax unified
 1155              	.LBE262:
 1156              	.LBE263:
 1157              	.LBE265:
 1158              	.LBE268:
 1159              	.LBE279:
 1160              	.LBE284:
 1161              	.LBE289:
 1162              	.LBE294:
 1163              		.loc 3 410 35 is_stmt 1 view .LVU296
 1164              		.loc 3 411 21 view .LVU297
 1165              	.LBB295:
 1166              	.LBB290:
 1167              	.LBB285:
 1168              	.LBB280:
 1169              		.loc 2 295 3 view .LVU298
 1170 024e 2146     		mov	r1, r4
 1171 0250 3846     		mov	r0, r7
 1172 0252 FFF7FEFF 		bl	chCacheReleaseObjectI
 1173              	.LVL71:
 1174              		.loc 2 296 3 view .LVU299
 1175 0256 FFF7FEFF 		bl	chSchRescheduleS
 1176              	.LVL72:
 1177              		.loc 2 297 3 view .LVU300
 1178              	.LBB269:
 1179              	.LBI269:
ARM GAS  /tmp/ccObSWMJ.s 			page 22


 1180              		.loc 3 421 20 view .LVU301
 1181              	.LBB270:
 1182              		.loc 3 423 23 view .LVU302
 1183              		.loc 3 424 34 view .LVU303
 1184              		.loc 3 430 3 view .LVU304
 1185              		.loc 3 430 3 view .LVU305
 1186              		.loc 3 430 3 view .LVU306
 1187              		.loc 3 434 3 view .LVU307
 1188              	.LBB271:
 1189              	.LBI271:
 1190              		.loc 4 830 27 view .LVU308
 1191              	.LBE271:
 1192              	.LBE270:
 1193              	.LBE269:
 1194              	.LBE280:
 1195              	.LBE285:
 1196              	.LBE290:
 1197              	.LBE295:
 1198              		.loc 4 833 3 view .LVU309
 1199              	.LBB296:
 1200              	.LBB291:
 1201              	.LBB286:
 1202              	.LBB281:
 1203              	.LBB276:
 1204              	.LBB275:
 1205              	.LBB274:
 1206              	.LBB272:
 1207              	.LBI272:
 1208              		.loc 5 491 27 view .LVU310
 1209              	.LBB273:
 1210              		.loc 5 493 3 view .LVU311
 1211              		.syntax unified
 1212              	@ 493 "../ChibiOS/os/common/ext/ARM/CMSIS/Core/Include/cmsis_gcc.h" 1
 1213 025a 85F31188 		MSR basepri, r5
 1214              	@ 0 "" 2
 1215              	.LVL73:
 1216              		.loc 5 493 3 is_stmt 0 view .LVU312
 1217              		.thumb
 1218              		.syntax unified
 1219              	.LBE273:
 1220              	.LBE272:
 1221              	.LBE274:
 1222              	.LBE275:
 1223              	.LBE276:
 1224              	.LBE281:
 1225              	.LBE286:
 1226              	.LBE291:
 1227              		.loc 1 207 50 is_stmt 1 view .LVU313
 1228              		.loc 1 207 51 is_stmt 0 view .LVU314
 1229 025e 0136     		adds	r6, r6, #1
 1230              	.LVL74:
 1231              		.loc 1 207 27 is_stmt 1 view .LVU315
 1232              		.loc 1 207 5 is_stmt 0 view .LVU316
 1233 0260 082E     		cmp	r6, #8
 1234 0262 D8D1     		bne	.L18
 1235              		.loc 1 216 5 is_stmt 1 view .LVU317
 1236 0264 2549     		ldr	r1, .L26+32
ARM GAS  /tmp/ccObSWMJ.s 			page 23


 1237 0266 2648     		ldr	r0, .L26+36
 1238 0268 FFF7FEFF 		bl	__test_assert_sequence
 1239              	.LVL75:
 1240 026c 0446     		mov	r4, r0
 1241              	.LVL76:
 1242              		.loc 1 216 5 is_stmt 0 view .LVU318
 1243 026e 88BB     		cbnz	r0, .L11
 1244              		.loc 1 216 50 is_stmt 1 discriminator 2 view .LVU319
 1245              	.LBE296:
 1246              		.loc 1 218 3 discriminator 2 view .LVU320
 1247              		.loc 1 218 19 discriminator 2 view .LVU321
 1248              		.loc 1 221 3 discriminator 2 view .LVU322
 1249 0270 0623     		movs	r3, #6
 1250 0272 C8F80030 		str	r3, [r8]
 1251              	.LBB297:
 1252              		.loc 1 223 5 discriminator 2 view .LVU323
 1253              		.loc 1 225 5 discriminator 2 view .LVU324
 1254              	.LVL77:
 1255              		.loc 1 225 17 discriminator 2 view .LVU325
 1256              	.LBB298:
 1257              		.loc 1 226 27 is_stmt 0 discriminator 2 view .LVU326
 1258 0276 1D4F     		ldr	r7, .L26+16
 1259              		.loc 1 228 7 discriminator 2 view .LVU327
 1260 0278 DFF87490 		ldr	r9, .L26+20
 1261              		.loc 1 229 7 discriminator 2 view .LVU328
 1262 027c DFF88480 		ldr	r8, .L26+40
 1263              	.LVL78:
 1264              	.L19:
 1265              		.loc 1 226 7 is_stmt 1 view .LVU329
 1266              		.loc 1 226 27 is_stmt 0 view .LVU330
 1267 0280 0021     		movs	r1, #0
 1268 0282 2246     		mov	r2, r4
 1269 0284 3846     		mov	r0, r7
 1270 0286 FFF7FEFF 		bl	chCacheGetObject
 1271              	.LVL79:
 1272 028a 0546     		mov	r5, r0
 1273              	.LVL80:
 1274              		.loc 1 228 7 is_stmt 1 view .LVU331
 1275 028c 406A     		ldr	r0, [r0, #36]
 1276              	.LVL81:
 1277              		.loc 1 228 7 is_stmt 0 view .LVU332
 1278 028e 4946     		mov	r1, r9
 1279 0290 C0F34000 		ubfx	r0, r0, #1, #1
 1280 0294 FFF7FEFF 		bl	__test_assert
 1281              	.LVL82:
 1282              		.loc 1 228 75 is_stmt 1 view .LVU333
 1283              		.loc 1 229 7 view .LVU334
 1284              		.loc 1 228 7 is_stmt 0 view .LVU335
 1285 0298 E0B9     		cbnz	r0, .L11
 1286              		.loc 1 229 7 discriminator 2 view .LVU336
 1287 029a 686A     		ldr	r0, [r5, #36]
 1288 029c 4146     		mov	r1, r8
 1289 029e C0F3C000 		ubfx	r0, r0, #3, #1
 1290 02a2 FFF7FEFF 		bl	__test_assert
 1291              	.LVL83:
 1292              		.loc 1 229 72 is_stmt 1 discriminator 2 view .LVU337
 1293              		.loc 1 231 7 discriminator 2 view .LVU338
ARM GAS  /tmp/ccObSWMJ.s 			page 24


 1294              	.LBB299:
 1295              	.LBI299:
 1296              		.loc 2 291 20 discriminator 2 view .LVU339
 1297              	.LBB300:
 1298              		.loc 2 294 3 discriminator 2 view .LVU340
 1299              	.LBB301:
 1300              	.LBI301:
 1301              		.loc 3 407 20 discriminator 2 view .LVU341
 1302              	.LBE301:
 1303              	.LBE300:
 1304              	.LBE299:
 1305              	.LBE298:
 1306              	.LBE297:
 1307              		.loc 3 409 3 discriminator 2 view .LVU342
 1308              	.LBB334:
 1309              	.LBB330:
 1310              	.LBB325:
 1311              	.LBB320:
 1312              	.LBB309:
 1313              	.LBB302:
 1314              	.LBI302:
 1315              		.loc 4 806 27 discriminator 2 view .LVU343
 1316              	.LBE302:
 1317              	.LBE309:
 1318              	.LBE320:
 1319              	.LBE325:
 1320              	.LBE330:
 1321              	.LBE334:
 1322              		.loc 4 814 3 discriminator 2 view .LVU344
 1323              	.LBB335:
 1324              	.LBB331:
 1325              	.LBB326:
 1326              	.LBB321:
 1327              	.LBB310:
 1328              	.LBB307:
 1329              	.LBB303:
 1330              	.LBI303:
 1331              		.loc 5 491 27 discriminator 2 view .LVU345
 1332              	.LBB304:
 1333              		.loc 5 493 3 discriminator 2 view .LVU346
 1334 02a6 3023     		movs	r3, #48
 1335              	.LBE304:
 1336              	.LBE303:
 1337              	.LBE307:
 1338              	.LBE310:
 1339              	.LBE321:
 1340              	.LBE326:
 1341              		.loc 1 229 7 is_stmt 0 discriminator 2 view .LVU347
 1342 02a8 0646     		mov	r6, r0
 1343 02aa 98B9     		cbnz	r0, .L11
 1344              	.LBB327:
 1345              	.LBB322:
 1346              	.LBB311:
 1347              	.LBB308:
 1348              	.LBB306:
 1349              	.LBB305:
 1350              		.loc 5 493 3 view .LVU348
ARM GAS  /tmp/ccObSWMJ.s 			page 25


 1351              		.syntax unified
 1352              	@ 493 "../ChibiOS/os/common/ext/ARM/CMSIS/Core/Include/cmsis_gcc.h" 1
 1353 02ac 83F31188 		MSR basepri, r3
 1354              	@ 0 "" 2
 1355              	.LVL84:
 1356              		.loc 5 493 3 view .LVU349
 1357              		.thumb
 1358              		.syntax unified
 1359              	.LBE305:
 1360              	.LBE306:
 1361              	.LBE308:
 1362              	.LBE311:
 1363              	.LBE322:
 1364              	.LBE327:
 1365              	.LBE331:
 1366              	.LBE335:
 1367              		.loc 3 410 35 is_stmt 1 view .LVU350
 1368              		.loc 3 411 21 view .LVU351
 1369              	.LBB336:
 1370              	.LBB332:
 1371              	.LBB328:
 1372              	.LBB323:
 1373              		.loc 2 295 3 view .LVU352
 1374 02b0 2946     		mov	r1, r5
 1375 02b2 3846     		mov	r0, r7
 1376 02b4 FFF7FEFF 		bl	chCacheReleaseObjectI
 1377              	.LVL85:
 1378              		.loc 2 296 3 view .LVU353
 1379 02b8 FFF7FEFF 		bl	chSchRescheduleS
 1380              	.LVL86:
 1381              		.loc 2 297 3 view .LVU354
 1382              	.LBB312:
 1383              	.LBI312:
 1384              		.loc 3 421 20 view .LVU355
 1385              	.LBB313:
 1386              		.loc 3 423 23 view .LVU356
 1387              		.loc 3 424 34 view .LVU357
 1388              		.loc 3 430 3 view .LVU358
 1389              		.loc 3 430 3 view .LVU359
 1390              		.loc 3 430 3 view .LVU360
 1391              		.loc 3 434 3 view .LVU361
 1392              	.LBB314:
 1393              	.LBI314:
 1394              		.loc 4 830 27 view .LVU362
 1395              	.LBE314:
 1396              	.LBE313:
 1397              	.LBE312:
 1398              	.LBE323:
 1399              	.LBE328:
 1400              	.LBE332:
 1401              	.LBE336:
 1402              		.loc 4 833 3 view .LVU363
 1403              	.LBB337:
 1404              	.LBB333:
 1405              	.LBB329:
 1406              	.LBB324:
 1407              	.LBB319:
ARM GAS  /tmp/ccObSWMJ.s 			page 26


 1408              	.LBB318:
 1409              	.LBB317:
 1410              	.LBB315:
 1411              	.LBI315:
 1412              		.loc 5 491 27 view .LVU364
 1413              	.LBB316:
 1414              		.loc 5 493 3 view .LVU365
 1415              		.syntax unified
 1416              	@ 493 "../ChibiOS/os/common/ext/ARM/CMSIS/Core/Include/cmsis_gcc.h" 1
 1417 02bc 86F31188 		MSR basepri, r6
 1418              	@ 0 "" 2
 1419              	.LVL87:
 1420              		.loc 5 493 3 is_stmt 0 view .LVU366
 1421              		.thumb
 1422              		.syntax unified
 1423              	.LBE316:
 1424              	.LBE315:
 1425              	.LBE317:
 1426              	.LBE318:
 1427              	.LBE319:
 1428              	.LBE324:
 1429              	.LBE329:
 1430              	.LBE333:
 1431              		.loc 1 225 34 is_stmt 1 view .LVU367
 1432              		.loc 1 225 35 is_stmt 0 view .LVU368
 1433 02c0 0134     		adds	r4, r4, #1
 1434              	.LVL88:
 1435              		.loc 1 225 17 is_stmt 1 view .LVU369
 1436              		.loc 1 225 5 is_stmt 0 view .LVU370
 1437 02c2 042C     		cmp	r4, #4
 1438 02c4 DCD1     		bne	.L19
 1439              		.loc 1 234 5 is_stmt 1 view .LVU371
 1440 02c6 0D49     		ldr	r1, .L26+32
 1441 02c8 0D48     		ldr	r0, .L26+36
 1442              	.LBE337:
 1443              		.loc 1 237 1 is_stmt 0 view .LVU372
 1444 02ca 04B0     		add	sp, sp, #16
 1445              		.cfi_remember_state
 1446              		.cfi_def_cfa_offset 32
 1447              		@ sp needed
 1448 02cc BDE8F047 		pop	{r4, r5, r6, r7, r8, r9, r10, lr}
 1449              		.cfi_restore 14
 1450              		.cfi_restore 10
 1451              		.cfi_restore 9
 1452              		.cfi_restore 8
 1453              		.cfi_restore 7
 1454              		.cfi_restore 6
 1455              		.cfi_restore 5
 1456              		.cfi_restore 4
 1457              		.cfi_def_cfa_offset 0
 1458              	.LVL89:
 1459              	.LBB338:
 1460              		.loc 1 234 5 view .LVU373
 1461 02d0 FFF7FEBF 		b	__test_assert_sequence
 1462              	.LVL90:
 1463              	.L11:
 1464              		.cfi_restore_state
ARM GAS  /tmp/ccObSWMJ.s 			page 27


 1465              		.loc 1 234 5 view .LVU374
 1466              	.LBE338:
 1467              		.loc 1 237 1 view .LVU375
 1468 02d4 04B0     		add	sp, sp, #16
 1469              		.cfi_def_cfa_offset 32
 1470              		@ sp needed
 1471 02d6 BDE8F087 		pop	{r4, r5, r6, r7, r8, r9, r10, pc}
 1472              	.L27:
 1473 02da 00BF     		.align	2
 1474              	.L26:
 1475 02dc 00000000 		.word	.LANCHOR2
 1476 02e0 00000000 		.word	chtest
 1477 02e4 00000000 		.word	obj_read
 1478 02e8 00000000 		.word	obj_write
 1479 02ec 00000000 		.word	.LANCHOR1
 1480 02f0 00000000 		.word	.LC0
 1481 02f4 0C000000 		.word	.LC1
 1482 02f8 00000000 		.word	.LANCHOR0
 1483 02fc 24000000 		.word	.LC2
 1484 0300 38000000 		.word	.LC3
 1485 0304 3C000000 		.word	.LC4
 1486 0308 44000000 		.word	.LC5
 1487 030c 54000000 		.word	.LC6
 1488 0310 60000000 		.word	.LC7
 1489              		.cfi_endproc
 1490              	.LFE406:
 1491              		.size	oslib_test_006_001_execute, .-oslib_test_006_001_execute
 1492              		.global	oslib_test_sequence_006
 1493              		.section	.rodata.str1.4,"aMS",%progbits,1
 1494              		.align	2
 1495              	.LC8:
 1496 0000 4F626A65 		.ascii	"Objects Caches\000"
 1496      63747320 
 1496      43616368 
 1496      657300
 1497              		.global	oslib_test_sequence_006_array
 1498 000f 00       		.align	2
 1499              	.LC9:
 1500 0010 43616368 		.ascii	"Cache initialization\000"
 1500      6520696E 
 1500      69746961 
 1500      6C697A61 
 1500      74696F6E 
 1501              		.section	.bss.cache1,"aw",%nobits
 1502              		.align	2
 1503              		.set	.LANCHOR1,. + 0
 1504              		.type	cache1, %object
 1505              		.size	cache1, 68
 1506              	cache1:
 1507 0000 00000000 		.space	68
 1507      00000000 
 1507      00000000 
 1507      00000000 
 1507      00000000 
 1508              		.section	.bss.hash_headers,"aw",%nobits
 1509              		.align	2
 1510              		.set	.LANCHOR0,. + 0
ARM GAS  /tmp/ccObSWMJ.s 			page 28


 1511              		.type	hash_headers, %object
 1512              		.size	hash_headers, 64
 1513              	hash_headers:
 1514 0000 00000000 		.space	64
 1514      00000000 
 1514      00000000 
 1514      00000000 
 1514      00000000 
 1515              		.section	.bss.objects,"aw",%nobits
 1516              		.align	2
 1517              		.set	.LANCHOR2,. + 0
 1518              		.type	objects, %object
 1519              		.size	objects, 240
 1520              	objects:
 1521 0000 00000000 		.space	240
 1521      00000000 
 1521      00000000 
 1521      00000000 
 1521      00000000 
 1522              		.section	.rodata.oslib_test_006_001,"a"
 1523              		.align	2
 1524              		.type	oslib_test_006_001, %object
 1525              		.size	oslib_test_006_001, 16
 1526              	oslib_test_006_001:
 1527 0000 10000000 		.word	.LC9
 1528 0004 00000000 		.word	0
 1529 0008 00000000 		.word	0
 1530 000c 00000000 		.word	oslib_test_006_001_execute
 1531              		.section	.rodata.oslib_test_sequence_006,"a"
 1532              		.align	2
 1533              		.type	oslib_test_sequence_006, %object
 1534              		.size	oslib_test_sequence_006, 8
 1535              	oslib_test_sequence_006:
 1536 0000 00000000 		.word	.LC8
 1537 0004 00000000 		.word	oslib_test_sequence_006_array
 1538              		.section	.rodata.oslib_test_sequence_006_array,"a"
 1539              		.align	2
 1540              		.type	oslib_test_sequence_006_array, %object
 1541              		.size	oslib_test_sequence_006_array, 8
 1542              	oslib_test_sequence_006_array:
 1543 0000 00000000 		.word	oslib_test_006_001
 1544 0004 00000000 		.word	0
 1545              		.text
 1546              	.Letext0:
 1547              		.file 6 "/opt/gcc-arm-none-eabi/gcc-arm-none-eabi-10.3-2021.07/lib/gcc/arm-none-eabi/10.3.1/includ
 1548              		.file 7 "/opt/gcc-arm-none-eabi/gcc-arm-none-eabi-10.3-2021.07/arm-none-eabi/include/machine/_defa
 1549              		.file 8 "/opt/gcc-arm-none-eabi/gcc-arm-none-eabi-10.3-2021.07/arm-none-eabi/include/sys/_stdint.h
 1550              		.file 9 "../ChibiOS/os/rt/include/chearly.h"
 1551              		.file 10 "../ChibiOS/os/rt/include/chlists.h"
 1552              		.file 11 "../ChibiOS/os/rt/include/chsem.h"
 1553              		.file 12 "../ChibiOS/os/hal/include/hal_streams.h"
 1554              		.file 13 "../ChibiOS/os/test/include/ch_test.h"
 1555              		.file 14 "../ChibiOS/test/oslib/source/test/oslib_test_sequence_006.h"
 1556              		.file 15 "../ChibiOS/os/rt/include/chschd.h"