ARM GAS  /tmp/ccTMtxXw.s 			page 1


   1              		.cpu cortex-m4
   2              		.eabi_attribute 20, 1
   3              		.eabi_attribute 21, 1
   4              		.eabi_attribute 23, 3
   5              		.eabi_attribute 24, 1
   6              		.eabi_attribute 25, 1
   7              		.eabi_attribute 26, 1
   8              		.eabi_attribute 30, 2
   9              		.eabi_attribute 34, 1
  10              		.eabi_attribute 18, 4
  11              		.file	"oslib_test_sequence_002.c"
  12              		.text
  13              	.Ltext0:
  14              		.cfi_sections	.debug_frame
  15              		.section	.text.oslib_test_002_001_teardown,"ax",%progbits
  16              		.align	1
  17              		.p2align 4,,15
  18              		.arch armv7e-m
  19              		.syntax unified
  20              		.thumb
  21              		.thumb_func
  22              		.fpu softvfp
  23              		.type	oslib_test_002_001_teardown, %function
  24              	oslib_test_002_001_teardown:
  25              	.LFB405:
  26              		.file 1 "../ChibiOS/test/oslib/source/test/oslib_test_sequence_002.c"
  27              		.loc 1 90 47 view -0
  28              		.cfi_startproc
  29              		@ args = 0, pretend = 0, frame = 0
  30              		@ frame_needed = 0, uses_anonymous_args = 0
  31              		@ link register save eliminated.
  32              		.loc 1 91 3 view .LVU1
  33 0000 0148     		ldr	r0, .L3
  34 0002 FFF7FEBF 		b	chMBReset
  35              	.LVL0:
  36              	.L4:
  37 0006 00BF     		.align	2
  38              	.L3:
  39 0008 00000000 		.word	.LANCHOR0
  40              		.cfi_endproc
  41              	.LFE405:
  42              		.size	oslib_test_002_001_teardown, .-oslib_test_002_001_teardown
  43              		.section	.rodata.oslib_test_002_003_execute.str1.4,"aMS",%progbits,1
  44              		.align	2
  45              	.LC0:
  46 0000 77726F6E 		.ascii	"wrong wake-up message\000"
  46      67207761 
  46      6B652D75 
  46      70206D65 
  46      73736167 
  47              		.section	.text.oslib_test_002_003_execute,"ax",%progbits
  48              		.align	1
  49              		.p2align 4,,15
  50              		.syntax unified
  51              		.thumb
  52              		.thumb_func
  53              		.fpu softvfp
ARM GAS  /tmp/ccTMtxXw.s 			page 2


  54              		.type	oslib_test_002_003_execute, %function
  55              	oslib_test_002_003_execute:
  56              	.LFB412:
  57              		.loc 1 351 46 view -0
  58              		.cfi_startproc
  59              		@ args = 0, pretend = 0, frame = 8
  60              		@ frame_needed = 0, uses_anonymous_args = 0
  61              		.loc 1 352 3 view .LVU3
  62              		.loc 1 353 3 view .LVU4
  63              		.loc 1 356 3 view .LVU5
  64              		.loc 1 351 46 is_stmt 0 view .LVU6
  65 0000 F0B5     		push	{r4, r5, r6, r7, lr}
  66              		.cfi_def_cfa_offset 20
  67              		.cfi_offset 4, -20
  68              		.cfi_offset 5, -16
  69              		.cfi_offset 6, -12
  70              		.cfi_offset 7, -8
  71              		.cfi_offset 14, -4
  72              		.loc 1 356 3 view .LVU7
  73 0002 454F     		ldr	r7, .L13
  74 0004 454D     		ldr	r5, .L13+4
  75              		.loc 1 360 7 view .LVU8
  76 0006 464E     		ldr	r6, .L13+8
  77              		.loc 1 356 3 view .LVU9
  78 0008 0123     		movs	r3, #1
  79              		.loc 1 351 46 view .LVU10
  80 000a 83B0     		sub	sp, sp, #12
  81              		.cfi_def_cfa_offset 32
  82              		.loc 1 356 3 view .LVU11
  83 000c 3B60     		str	r3, [r7]
  84              		.loc 1 358 5 is_stmt 1 view .LVU12
  85              	.LVL1:
  86              		.loc 1 358 17 view .LVU13
  87              		.loc 1 356 3 is_stmt 0 view .LVU14
  88 000e 4224     		movs	r4, #66
  89              	.LVL2:
  90              	.L8:
  91              		.loc 1 359 7 is_stmt 1 view .LVU15
  92              		.loc 1 359 14 is_stmt 0 view .LVU16
  93 0010 2146     		mov	r1, r4
  94 0012 4FF0FF32 		mov	r2, #-1
  95 0016 2846     		mov	r0, r5
  96 0018 FFF7FEFF 		bl	chMBPostTimeout
  97              	.LVL3:
  98              		.loc 1 360 7 is_stmt 1 view .LVU17
  99 001c B0FA80F0 		clz	r0, r0
 100              	.LVL4:
 101              		.loc 1 360 7 is_stmt 0 view .LVU18
 102 0020 3146     		mov	r1, r6
 103 0022 4009     		lsrs	r0, r0, #5
 104              		.loc 1 358 5 view .LVU19
 105 0024 0134     		adds	r4, r4, #1
 106              	.LVL5:
 107              		.loc 1 360 7 view .LVU20
 108 0026 FFF7FEFF 		bl	__test_assert
 109              	.LVL6:
 110              		.loc 1 360 59 is_stmt 1 view .LVU21
ARM GAS  /tmp/ccTMtxXw.s 			page 3


 111              		.loc 1 358 30 view .LVU22
 112              		.loc 1 358 17 view .LVU23
 113              		.loc 1 360 7 is_stmt 0 view .LVU24
 114 002a 90B9     		cbnz	r0, .L5
 115              		.loc 1 358 5 discriminator 2 view .LVU25
 116 002c 462C     		cmp	r4, #70
 117 002e EFD1     		bne	.L8
 118              		.loc 1 363 3 is_stmt 1 view .LVU26
 119              		.loc 1 363 19 view .LVU27
 120              		.loc 1 367 3 view .LVU28
 121 0030 0223     		movs	r3, #2
 122              		.loc 1 369 12 is_stmt 0 view .LVU29
 123 0032 0122     		movs	r2, #1
 124 0034 5821     		movs	r1, #88
 125 0036 3948     		ldr	r0, .L13+4
 126              		.loc 1 367 3 view .LVU30
 127 0038 3B60     		str	r3, [r7]
 128              		.loc 1 369 5 is_stmt 1 view .LVU31
 129              		.loc 1 369 12 is_stmt 0 view .LVU32
 130 003a FFF7FEFF 		bl	chMBPostTimeout
 131              	.LVL7:
 132              		.loc 1 370 5 is_stmt 1 view .LVU33
 133 003e A0F1FF30 		sub	r0, r0, #-1
 134              	.LVL8:
 135              		.loc 1 370 5 is_stmt 0 view .LVU34
 136 0042 B0FA80F0 		clz	r0, r0
 137              	.LVL9:
 138              		.loc 1 370 5 view .LVU35
 139 0046 3649     		ldr	r1, .L13+8
 140 0048 4009     		lsrs	r0, r0, #5
 141 004a FFF7FEFF 		bl	__test_assert
 142              	.LVL10:
 143 004e 0446     		mov	r4, r0
 144 0050 08B1     		cbz	r0, .L12
 145              	.L5:
 146              		.loc 1 404 1 view .LVU36
 147 0052 03B0     		add	sp, sp, #12
 148              		.cfi_remember_state
 149              		.cfi_def_cfa_offset 20
 150              		@ sp needed
 151 0054 F0BD     		pop	{r4, r5, r6, r7, pc}
 152              	.L12:
 153              		.cfi_restore_state
 154              		.loc 1 370 62 is_stmt 1 view .LVU37
 155              		.loc 1 371 5 view .LVU38
 156              	.LBB1004:
 157              	.LBI1004:
 158              		.file 2 "../ChibiOS/os/rt/include/chsys.h"
 159              		.loc 2 407 20 view .LVU39
 160              	.LBE1004:
 161              		.loc 2 409 3 view .LVU40
 162              	.LBB1009:
 163              	.LBB1005:
 164              	.LBI1005:
 165              		.file 3 "../ChibiOS/os/common/ports/ARMv7-M/chcore.h"
 166              		.loc 3 806 27 view .LVU41
 167              	.LBE1005:
ARM GAS  /tmp/ccTMtxXw.s 			page 4


 168              	.LBE1009:
 169              		.loc 3 814 3 view .LVU42
 170              	.LVL11:
 171              	.LBB1010:
 172              	.LBB1008:
 173              	.LBB1006:
 174              	.LBI1006:
 175              		.file 4 "../ChibiOS/os/common/ext/ARM/CMSIS/Core/Include/cmsis_gcc.h"
 176              		.loc 4 491 27 view .LVU43
 177              	.LBB1007:
 178              		.loc 4 493 3 view .LVU44
 179 0056 3026     		movs	r6, #48
 180              		.syntax unified
 181              	@ 493 "../ChibiOS/os/common/ext/ARM/CMSIS/Core/Include/cmsis_gcc.h" 1
 182 0058 86F31188 		MSR basepri, r6
 183              	@ 0 "" 2
 184              	.LVL12:
 185              		.loc 4 493 3 is_stmt 0 view .LVU45
 186              		.thumb
 187              		.syntax unified
 188              	.LBE1007:
 189              	.LBE1006:
 190              	.LBE1008:
 191              	.LBE1010:
 192              		.loc 2 410 35 is_stmt 1 view .LVU46
 193              		.loc 2 411 21 view .LVU47
 194              		.loc 1 372 5 view .LVU48
 195              		.loc 1 372 12 is_stmt 0 view .LVU49
 196 005c 5821     		movs	r1, #88
 197 005e 2F48     		ldr	r0, .L13+4
 198 0060 FFF7FEFF 		bl	chMBPostI
 199              	.LVL13:
 200              		.loc 1 373 5 is_stmt 1 view .LVU50
 201              	.LBB1011:
 202              	.LBI1011:
 203              		.loc 2 421 20 view .LVU51
 204              	.LBB1012:
 205              		.loc 2 423 23 view .LVU52
 206              		.loc 2 424 34 view .LVU53
 207              		.loc 2 430 3 view .LVU54
 208              		.loc 2 430 3 view .LVU55
 209              		.loc 2 430 3 view .LVU56
 210              		.loc 2 434 3 view .LVU57
 211              	.LBB1013:
 212              	.LBI1013:
 213              		.loc 3 830 27 view .LVU58
 214              	.LBE1013:
 215              	.LBE1012:
 216              	.LBE1011:
 217              		.loc 3 833 3 view .LVU59
 218              	.LBB1018:
 219              	.LBB1017:
 220              	.LBB1016:
 221              	.LBB1014:
 222              	.LBI1014:
 223              		.loc 4 491 27 view .LVU60
 224              	.LBB1015:
ARM GAS  /tmp/ccTMtxXw.s 			page 5


 225              		.loc 4 493 3 view .LVU61
 226              		.syntax unified
 227              	@ 493 "../ChibiOS/os/common/ext/ARM/CMSIS/Core/Include/cmsis_gcc.h" 1
 228 0064 84F31188 		MSR basepri, r4
 229              	@ 0 "" 2
 230              	.LVL14:
 231              		.loc 4 493 3 is_stmt 0 view .LVU62
 232              		.thumb
 233              		.syntax unified
 234              	.LBE1015:
 235              	.LBE1014:
 236              	.LBE1016:
 237              	.LBE1017:
 238              	.LBE1018:
 239              		.loc 1 374 5 is_stmt 1 view .LVU63
 240 0068 A0F1FF30 		sub	r0, r0, #-1
 241              	.LVL15:
 242              		.loc 1 374 5 is_stmt 0 view .LVU64
 243 006c B0FA80F0 		clz	r0, r0
 244              	.LVL16:
 245              		.loc 1 374 5 view .LVU65
 246 0070 2B49     		ldr	r1, .L13+8
 247 0072 4009     		lsrs	r0, r0, #5
 248 0074 FFF7FEFF 		bl	__test_assert
 249              	.LVL17:
 250 0078 0028     		cmp	r0, #0
 251 007a EAD1     		bne	.L5
 252              		.loc 1 374 62 is_stmt 1 discriminator 2 view .LVU66
 253              		.loc 1 375 5 discriminator 2 view .LVU67
 254              		.loc 1 375 12 is_stmt 0 discriminator 2 view .LVU68
 255 007c 0122     		movs	r2, #1
 256 007e 5821     		movs	r1, #88
 257 0080 2648     		ldr	r0, .L13+4
 258 0082 FFF7FEFF 		bl	chMBPostAheadTimeout
 259              	.LVL18:
 260              		.loc 1 376 5 is_stmt 1 discriminator 2 view .LVU69
 261 0086 A0F1FF30 		sub	r0, r0, #-1
 262              	.LVL19:
 263              		.loc 1 376 5 is_stmt 0 discriminator 2 view .LVU70
 264 008a B0FA80F0 		clz	r0, r0
 265              	.LVL20:
 266              		.loc 1 376 5 discriminator 2 view .LVU71
 267 008e 2449     		ldr	r1, .L13+8
 268 0090 4009     		lsrs	r0, r0, #5
 269 0092 FFF7FEFF 		bl	__test_assert
 270              	.LVL21:
 271 0096 0446     		mov	r4, r0
 272 0098 0028     		cmp	r0, #0
 273 009a DAD1     		bne	.L5
 274              		.loc 1 376 62 is_stmt 1 view .LVU72
 275              		.loc 1 377 5 view .LVU73
 276              	.LBB1019:
 277              	.LBI1019:
 278              		.loc 2 407 20 view .LVU74
 279              	.LBE1019:
 280              		.loc 2 409 3 view .LVU75
 281              	.LBB1024:
ARM GAS  /tmp/ccTMtxXw.s 			page 6


 282              	.LBB1020:
 283              	.LBI1020:
 284              		.loc 3 806 27 view .LVU76
 285              	.LBE1020:
 286              	.LBE1024:
 287              		.loc 3 814 3 view .LVU77
 288              	.LVL22:
 289              	.LBB1025:
 290              	.LBB1023:
 291              	.LBB1021:
 292              	.LBI1021:
 293              		.loc 4 491 27 view .LVU78
 294              	.LBB1022:
 295              		.loc 4 493 3 view .LVU79
 296              		.syntax unified
 297              	@ 493 "../ChibiOS/os/common/ext/ARM/CMSIS/Core/Include/cmsis_gcc.h" 1
 298 009c 86F31188 		MSR basepri, r6
 299              	@ 0 "" 2
 300              	.LVL23:
 301              		.loc 4 493 3 is_stmt 0 view .LVU80
 302              		.thumb
 303              		.syntax unified
 304              	.LBE1022:
 305              	.LBE1021:
 306              	.LBE1023:
 307              	.LBE1025:
 308              		.loc 2 410 35 is_stmt 1 view .LVU81
 309              		.loc 2 411 21 view .LVU82
 310              		.loc 1 378 5 view .LVU83
 311              		.loc 1 378 12 is_stmt 0 view .LVU84
 312 00a0 5821     		movs	r1, #88
 313 00a2 1E48     		ldr	r0, .L13+4
 314 00a4 FFF7FEFF 		bl	chMBPostAheadI
 315              	.LVL24:
 316              		.loc 1 379 5 is_stmt 1 view .LVU85
 317              	.LBB1026:
 318              	.LBI1026:
 319              		.loc 2 421 20 view .LVU86
 320              	.LBB1027:
 321              		.loc 2 423 23 view .LVU87
 322              		.loc 2 424 34 view .LVU88
 323              		.loc 2 430 3 view .LVU89
 324              		.loc 2 430 3 view .LVU90
 325              		.loc 2 430 3 view .LVU91
 326              		.loc 2 434 3 view .LVU92
 327              	.LBB1028:
 328              	.LBI1028:
 329              		.loc 3 830 27 view .LVU93
 330              	.LBE1028:
 331              	.LBE1027:
 332              	.LBE1026:
 333              		.loc 3 833 3 view .LVU94
 334              	.LBB1033:
 335              	.LBB1032:
 336              	.LBB1031:
 337              	.LBB1029:
 338              	.LBI1029:
ARM GAS  /tmp/ccTMtxXw.s 			page 7


 339              		.loc 4 491 27 view .LVU95
 340              	.LBB1030:
 341              		.loc 4 493 3 view .LVU96
 342              		.syntax unified
 343              	@ 493 "../ChibiOS/os/common/ext/ARM/CMSIS/Core/Include/cmsis_gcc.h" 1
 344 00a8 84F31188 		MSR basepri, r4
 345              	@ 0 "" 2
 346              	.LVL25:
 347              		.loc 4 493 3 is_stmt 0 view .LVU97
 348              		.thumb
 349              		.syntax unified
 350              	.LBE1030:
 351              	.LBE1029:
 352              	.LBE1031:
 353              	.LBE1032:
 354              	.LBE1033:
 355              		.loc 1 380 5 is_stmt 1 view .LVU98
 356 00ac A0F1FF30 		sub	r0, r0, #-1
 357              	.LVL26:
 358              		.loc 1 380 5 is_stmt 0 view .LVU99
 359 00b0 B0FA80F0 		clz	r0, r0
 360              	.LVL27:
 361              		.loc 1 380 5 view .LVU100
 362 00b4 1A49     		ldr	r1, .L13+8
 363 00b6 4009     		lsrs	r0, r0, #5
 364 00b8 FFF7FEFF 		bl	__test_assert
 365              	.LVL28:
 366 00bc 0446     		mov	r4, r0
 367 00be 0028     		cmp	r0, #0
 368 00c0 C7D1     		bne	.L5
 369              		.loc 1 380 62 is_stmt 1 discriminator 2 view .LVU101
 370              		.loc 1 382 3 discriminator 2 view .LVU102
 371              		.loc 1 382 19 discriminator 2 view .LVU103
 372              		.loc 1 386 3 discriminator 2 view .LVU104
 373 00c2 0323     		movs	r3, #3
 374              		.loc 1 388 5 is_stmt 0 discriminator 2 view .LVU105
 375 00c4 1548     		ldr	r0, .L13+4
 376              		.loc 1 386 3 discriminator 2 view .LVU106
 377 00c6 3B60     		str	r3, [r7]
 378              		.loc 1 388 5 is_stmt 1 discriminator 2 view .LVU107
 379 00c8 FFF7FEFF 		bl	chMBReset
 380              	.LVL29:
 381              		.loc 1 389 5 discriminator 2 view .LVU108
 382              	.LBB1034:
 383              	.LBI1034:
 384              		.file 5 "../ChibiOS/os/oslib/include/chmboxes.h"
 385              		.loc 5 200 20 discriminator 2 view .LVU109
 386              	.LBB1035:
 387              		.loc 5 202 3 discriminator 2 view .LVU110
 388              	.LBE1035:
 389              	.LBE1034:
 390              		.loc 1 394 3 is_stmt 0 discriminator 2 view .LVU111
 391 00cc 0423     		movs	r3, #4
 392              		.loc 1 396 12 discriminator 2 view .LVU112
 393 00ce 0DEB0301 		add	r1, sp, r3
 394 00d2 0122     		movs	r2, #1
 395 00d4 1148     		ldr	r0, .L13+4
ARM GAS  /tmp/ccTMtxXw.s 			page 8


 396              		.loc 1 394 3 discriminator 2 view .LVU113
 397 00d6 3B60     		str	r3, [r7]
 398              	.LBB1037:
 399              	.LBB1036:
 400              		.loc 5 202 14 discriminator 2 view .LVU114
 401 00d8 2C75     		strb	r4, [r5, #20]
 402              	.LVL30:
 403              		.loc 5 202 14 discriminator 2 view .LVU115
 404              	.LBE1036:
 405              	.LBE1037:
 406              		.loc 1 391 3 is_stmt 1 discriminator 2 view .LVU116
 407              		.loc 1 391 19 discriminator 2 view .LVU117
 408              		.loc 1 394 3 discriminator 2 view .LVU118
 409              		.loc 1 396 5 discriminator 2 view .LVU119
 410              		.loc 1 396 12 is_stmt 0 discriminator 2 view .LVU120
 411 00da FFF7FEFF 		bl	chMBFetchTimeout
 412              	.LVL31:
 413              		.loc 1 397 5 is_stmt 1 discriminator 2 view .LVU121
 414 00de A0F1FF30 		sub	r0, r0, #-1
 415              	.LVL32:
 416              		.loc 1 397 5 is_stmt 0 discriminator 2 view .LVU122
 417 00e2 B0FA80F0 		clz	r0, r0
 418              	.LVL33:
 419              		.loc 1 397 5 discriminator 2 view .LVU123
 420 00e6 0E49     		ldr	r1, .L13+8
 421 00e8 4009     		lsrs	r0, r0, #5
 422 00ea FFF7FEFF 		bl	__test_assert
 423              	.LVL34:
 424 00ee 0446     		mov	r4, r0
 425 00f0 0028     		cmp	r0, #0
 426 00f2 AED1     		bne	.L5
 427              		.loc 1 397 62 is_stmt 1 view .LVU124
 428              		.loc 1 398 5 view .LVU125
 429              	.LBB1038:
 430              	.LBI1038:
 431              		.loc 2 407 20 view .LVU126
 432              	.LBE1038:
 433              		.loc 2 409 3 view .LVU127
 434              	.LBB1043:
 435              	.LBB1039:
 436              	.LBI1039:
 437              		.loc 3 806 27 view .LVU128
 438              	.LBE1039:
 439              	.LBE1043:
 440              		.loc 3 814 3 view .LVU129
 441              	.LVL35:
 442              	.LBB1044:
 443              	.LBB1042:
 444              	.LBB1040:
 445              	.LBI1040:
 446              		.loc 4 491 27 view .LVU130
 447              	.LBB1041:
 448              		.loc 4 493 3 view .LVU131
 449              		.syntax unified
 450              	@ 493 "../ChibiOS/os/common/ext/ARM/CMSIS/Core/Include/cmsis_gcc.h" 1
 451 00f4 86F31188 		MSR basepri, r6
 452              	@ 0 "" 2
ARM GAS  /tmp/ccTMtxXw.s 			page 9


 453              	.LVL36:
 454              		.loc 4 493 3 is_stmt 0 view .LVU132
 455              		.thumb
 456              		.syntax unified
 457              	.LBE1041:
 458              	.LBE1040:
 459              	.LBE1042:
 460              	.LBE1044:
 461              		.loc 2 410 35 is_stmt 1 view .LVU133
 462              		.loc 2 411 21 view .LVU134
 463              		.loc 1 399 5 view .LVU135
 464              		.loc 1 399 12 is_stmt 0 view .LVU136
 465 00f8 0848     		ldr	r0, .L13+4
 466 00fa 01A9     		add	r1, sp, #4
 467 00fc FFF7FEFF 		bl	chMBFetchI
 468              	.LVL37:
 469              		.loc 1 400 5 is_stmt 1 view .LVU137
 470              	.LBB1045:
 471              	.LBI1045:
 472              		.loc 2 421 20 view .LVU138
 473              	.LBB1046:
 474              		.loc 2 423 23 view .LVU139
 475              		.loc 2 424 34 view .LVU140
 476              		.loc 2 430 3 view .LVU141
 477              		.loc 2 430 3 view .LVU142
 478              		.loc 2 430 3 view .LVU143
 479              		.loc 2 434 3 view .LVU144
 480              	.LBB1047:
 481              	.LBI1047:
 482              		.loc 3 830 27 view .LVU145
 483              	.LBE1047:
 484              	.LBE1046:
 485              	.LBE1045:
 486              		.loc 3 833 3 view .LVU146
 487              	.LBB1052:
 488              	.LBB1051:
 489              	.LBB1050:
 490              	.LBB1048:
 491              	.LBI1048:
 492              		.loc 4 491 27 view .LVU147
 493              	.LBB1049:
 494              		.loc 4 493 3 view .LVU148
 495              		.syntax unified
 496              	@ 493 "../ChibiOS/os/common/ext/ARM/CMSIS/Core/Include/cmsis_gcc.h" 1
 497 0100 84F31188 		MSR basepri, r4
 498              	@ 0 "" 2
 499              	.LVL38:
 500              		.loc 4 493 3 is_stmt 0 view .LVU149
 501              		.thumb
 502              		.syntax unified
 503              	.LBE1049:
 504              	.LBE1048:
 505              	.LBE1050:
 506              	.LBE1051:
 507              	.LBE1052:
 508              		.loc 1 401 5 is_stmt 1 view .LVU150
 509 0104 A0F1FF30 		sub	r0, r0, #-1
ARM GAS  /tmp/ccTMtxXw.s 			page 10


 510              	.LVL39:
 511              		.loc 1 401 5 is_stmt 0 view .LVU151
 512 0108 B0FA80F0 		clz	r0, r0
 513              	.LVL40:
 514              		.loc 1 401 5 view .LVU152
 515 010c 0449     		ldr	r1, .L13+8
 516 010e 4009     		lsrs	r0, r0, #5
 517 0110 FFF7FEFF 		bl	__test_assert
 518              	.LVL41:
 519              		.loc 1 401 5 is_stmt 1 view .LVU153
 520 0114 9DE7     		b	.L5
 521              	.L14:
 522 0116 00BF     		.align	2
 523              	.L13:
 524 0118 00000000 		.word	chtest
 525 011c 00000000 		.word	.LANCHOR0
 526 0120 00000000 		.word	.LC0
 527              		.cfi_endproc
 528              	.LFE412:
 529              		.size	oslib_test_002_003_execute, .-oslib_test_002_003_execute
 530              		.section	.text.oslib_test_002_001_setup,"ax",%progbits
 531              		.align	1
 532              		.p2align 4,,15
 533              		.syntax unified
 534              		.thumb
 535              		.thumb_func
 536              		.fpu softvfp
 537              		.type	oslib_test_002_001_setup, %function
 538              	oslib_test_002_001_setup:
 539              	.LFB404:
 540              		.loc 1 86 44 view -0
 541              		.cfi_startproc
 542              		@ args = 0, pretend = 0, frame = 0
 543              		@ frame_needed = 0, uses_anonymous_args = 0
 544              		@ link register save eliminated.
 545              		.loc 1 87 3 view .LVU155
 546 0000 0249     		ldr	r1, .L16
 547 0002 0348     		ldr	r0, .L16+4
 548 0004 0422     		movs	r2, #4
 549 0006 FFF7FEBF 		b	chMBObjectInit
 550              	.LVL42:
 551              	.L17:
 552 000a 00BF     		.align	2
 553              	.L16:
 554 000c 00000000 		.word	.LANCHOR1
 555 0010 00000000 		.word	.LANCHOR0
 556              		.cfi_endproc
 557              	.LFE404:
 558              		.size	oslib_test_002_001_setup, .-oslib_test_002_001_setup
 559              		.section	.rodata.oslib_test_002_002_execute.str1.4,"aMS",%progbits,1
 560              		.align	2
 561              	.LC1:
 562 0000 77726F6E 		.ascii	"wrong size\000"
 562      67207369 
 562      7A6500
 563 000b 00       		.align	2
 564              	.LC2:
ARM GAS  /tmp/ccTMtxXw.s 			page 11


 565 000c 6E6F7420 		.ascii	"not empty\000"
 565      656D7074 
 565      7900
 566 0016 0000     		.align	2
 567              	.LC3:
 568 0018 7374696C 		.ascii	"still full\000"
 568      6C206675 
 568      6C6C00
 569 0023 00       		.align	2
 570              	.LC4:
 571 0024 77726974 		.ascii	"write pointer not aligned to base\000"
 571      6520706F 
 571      696E7465 
 571      72206E6F 
 571      7420616C 
 572 0046 0000     		.align	2
 573              	.LC5:
 574 0048 72656164 		.ascii	"read pointer not aligned to base\000"
 574      20706F69 
 574      6E746572 
 574      206E6F74 
 574      20616C69 
 575 0069 000000   		.align	2
 576              	.LC6:
 577 006c 7374696C 		.ascii	"still empty\000"
 577      6C20656D 
 577      70747900 
 578              		.align	2
 579              	.LC7:
 580 0078 6E6F7420 		.ascii	"not full\000"
 580      66756C6C 
 580      00
 581 0081 000000   		.align	2
 582              	.LC8:
 583 0084 706F696E 		.ascii	"pointers not aligned\000"
 583      74657273 
 583      206E6F74 
 583      20616C69 
 583      676E6564 
 584 0099 000000   		.align	2
 585              	.LC9:
 586 009c 77726F6E 		.ascii	"wrong get sequence\000"
 586      67206765 
 586      74207365 
 586      7175656E 
 586      636500
 587 00af 00       		.align	2
 588              	.LC10:
 589 00b0 41424344 		.ascii	"ABCD\000"
 589      00
 590              		.section	.text.oslib_test_002_002_execute,"ax",%progbits
 591              		.align	1
 592              		.p2align 4,,15
 593              		.syntax unified
 594              		.thumb
 595              		.thumb_func
 596              		.fpu softvfp
ARM GAS  /tmp/ccTMtxXw.s 			page 12


 597              		.type	oslib_test_002_002_execute, %function
 598              	oslib_test_002_002_execute:
 599              	.LFB409:
 600              		.loc 1 229 46 view -0
 601              		.cfi_startproc
 602              		@ args = 0, pretend = 0, frame = 8
 603              		@ frame_needed = 0, uses_anonymous_args = 0
 604              		.loc 1 230 3 view .LVU157
 605              		.loc 1 231 3 view .LVU158
 606              		.loc 1 234 3 view .LVU159
 607              		.loc 1 229 46 is_stmt 0 view .LVU160
 608 0000 2DE9F043 		push	{r4, r5, r6, r7, r8, r9, lr}
 609              		.cfi_def_cfa_offset 28
 610              		.cfi_offset 4, -28
 611              		.cfi_offset 5, -24
 612              		.cfi_offset 6, -20
 613              		.cfi_offset 7, -16
 614              		.cfi_offset 8, -12
 615              		.cfi_offset 9, -8
 616              		.cfi_offset 14, -4
 617              		.loc 1 234 3 view .LVU161
 618 0004 AB4F     		ldr	r7, .L43
 619 0006 0123     		movs	r3, #1
 620              		.loc 1 229 46 view .LVU162
 621 0008 83B0     		sub	sp, sp, #12
 622              		.cfi_def_cfa_offset 40
 623              		.loc 1 234 3 view .LVU163
 624 000a 3B60     		str	r3, [r7]
 625              		.loc 1 236 5 is_stmt 1 view .LVU164
 626              	.LBB1310:
 627              	.LBI1310:
 628              		.file 6 "../ChibiOS/os/hal/osal/rt-nil/osal.h"
 629              		.loc 6 573 20 view .LVU165
 630              	.LBE1310:
 631              		.loc 6 575 3 view .LVU166
 632              	.LBB1318:
 633              	.LBB1311:
 634              	.LBI1311:
 635              		.loc 2 407 20 view .LVU167
 636              	.LBE1311:
 637              	.LBE1318:
 638              		.loc 2 409 3 view .LVU168
 639              	.LBB1319:
 640              	.LBB1316:
 641              	.LBB1312:
 642              	.LBI1312:
 643              		.loc 3 806 27 view .LVU169
 644              	.LBE1312:
 645              	.LBE1316:
 646              	.LBE1319:
 647              		.loc 3 814 3 view .LVU170
 648              	.LVL43:
 649              	.LBB1320:
 650              	.LBB1317:
 651              	.LBB1315:
 652              	.LBB1313:
 653              	.LBI1313:
ARM GAS  /tmp/ccTMtxXw.s 			page 13


 654              		.loc 4 491 27 view .LVU171
 655              	.LBB1314:
 656              		.loc 4 493 3 view .LVU172
 657 000c 3026     		movs	r6, #48
 658              		.syntax unified
 659              	@ 493 "../ChibiOS/os/common/ext/ARM/CMSIS/Core/Include/cmsis_gcc.h" 1
 660 000e 86F31188 		MSR basepri, r6
 661              	@ 0 "" 2
 662              	.LVL44:
 663              		.loc 4 493 3 is_stmt 0 view .LVU173
 664              		.thumb
 665              		.syntax unified
 666              	.LBE1314:
 667              	.LBE1313:
 668              	.LBE1315:
 669              	.LBE1317:
 670              	.LBE1320:
 671              		.loc 2 410 35 is_stmt 1 view .LVU174
 672              		.loc 2 411 21 view .LVU175
 673              		.loc 1 236 5 view .LVU176
 674              	.LBB1321:
 675              	.LBI1321:
 676              		.loc 5 167 22 view .LVU177
 677              	.LBB1322:
 678              		.loc 5 169 21 view .LVU178
 679              		.loc 5 171 3 view .LVU179
 680              	.LBB1323:
 681              	.LBI1323:
 682              		.loc 5 136 22 view .LVU180
 683              	.LBB1324:
 684              		.loc 5 140 3 view .LVU181
 685              		.loc 5 140 3 is_stmt 0 view .LVU182
 686              	.LBE1324:
 687              	.LBE1323:
 688              	.LBB1327:
 689              	.LBI1327:
 690              		.loc 5 152 22 is_stmt 1 view .LVU183
 691              	.LBB1328:
 692              		.loc 5 154 21 view .LVU184
 693              		.loc 5 156 3 view .LVU185
 694              		.loc 5 156 3 is_stmt 0 view .LVU186
 695              	.LBE1328:
 696              	.LBE1327:
 697              	.LBB1329:
 698              	.LBB1325:
 699              		.loc 5 140 22 view .LVU187
 700 0012 A94C     		ldr	r4, .L43+4
 701              	.LBE1325:
 702              	.LBE1329:
 703              	.LBE1322:
 704              	.LBE1321:
 705              		.loc 1 236 5 view .LVU188
 706 0014 A949     		ldr	r1, .L43+8
 707              	.LBB1332:
 708              	.LBB1331:
 709              	.LBB1330:
 710              	.LBB1326:
ARM GAS  /tmp/ccTMtxXw.s 			page 14


 711              		.loc 5 140 28 view .LVU189
 712 0016 D4E90030 		ldrd	r3, r0, [r4]
 713 001a C31A     		subs	r3, r0, r3
 714              	.LBE1326:
 715              	.LBE1330:
 716              		.loc 5 171 28 view .LVU190
 717 001c 2069     		ldr	r0, [r4, #16]
 718 001e C0EBA300 		rsb	r0, r0, r3, asr #2
 719              	.LBE1331:
 720              	.LBE1332:
 721              		.loc 1 236 5 view .LVU191
 722 0022 A0F10400 		sub	r0, #4
 723 0026 B0FA80F0 		clz	r0, r0
 724 002a 4009     		lsrs	r0, r0, #5
 725 002c FFF7FEFF 		bl	__test_assert
 726              	.LVL45:
 727 0030 28B1     		cbz	r0, .L19
 728              		.loc 1 236 5 is_stmt 1 view .LVU192
 729              	.LBB1333:
 730              	.LBI1333:
 731              		.loc 6 584 20 view .LVU193
 732              	.LBE1333:
 733              		.loc 6 586 3 view .LVU194
 734              	.LBB1342:
 735              	.LBB1334:
 736              	.LBI1334:
 737              		.loc 2 421 20 view .LVU195
 738              	.LBB1335:
 739              		.loc 2 423 23 view .LVU196
 740              		.loc 2 424 34 view .LVU197
 741              		.loc 2 430 3 view .LVU198
 742              		.loc 2 430 3 view .LVU199
 743              		.loc 2 430 3 view .LVU200
 744              		.loc 2 434 3 view .LVU201
 745              	.LBB1336:
 746              	.LBI1336:
 747              		.loc 3 830 27 view .LVU202
 748              	.LBE1336:
 749              	.LBE1335:
 750              	.LBE1334:
 751              	.LBE1342:
 752              		.loc 3 833 3 view .LVU203
 753              	.LVL46:
 754              	.LBB1343:
 755              	.LBB1341:
 756              	.LBB1340:
 757              	.LBB1339:
 758              	.LBB1337:
 759              	.LBI1337:
 760              		.loc 4 491 27 view .LVU204
 761              	.LBB1338:
 762              		.loc 4 493 3 view .LVU205
 763 0032 0023     		movs	r3, #0
 764              		.syntax unified
 765              	@ 493 "../ChibiOS/os/common/ext/ARM/CMSIS/Core/Include/cmsis_gcc.h" 1
 766 0034 83F31188 		MSR basepri, r3
 767              	@ 0 "" 2
ARM GAS  /tmp/ccTMtxXw.s 			page 15


 768              	.LVL47:
 769              		.loc 4 493 3 is_stmt 0 view .LVU206
 770              		.thumb
 771              		.syntax unified
 772              	.LBE1338:
 773              	.LBE1337:
 774              	.LBE1339:
 775              	.LBE1340:
 776              	.LBE1341:
 777              	.LBE1343:
 778              		.loc 1 236 5 is_stmt 1 view .LVU207
 779              	.L18:
 780              		.loc 1 318 1 is_stmt 0 view .LVU208
 781 0038 03B0     		add	sp, sp, #12
 782              		.cfi_remember_state
 783              		.cfi_def_cfa_offset 28
 784              		@ sp needed
 785 003a BDE8F083 		pop	{r4, r5, r6, r7, r8, r9, pc}
 786              	.L19:
 787              		.cfi_restore_state
 788              	.LBB1344:
 789              	.LBI1344:
 790              		.loc 1 229 13 is_stmt 1 view .LVU209
 791              	.LBB1345:
 792              		.loc 1 236 5 view .LVU210
 793              	.LBB1346:
 794              	.LBI1346:
 795              		.loc 6 584 20 view .LVU211
 796              	.LBE1346:
 797              	.LBE1345:
 798              	.LBE1344:
 799              		.loc 6 586 3 view .LVU212
 800              	.LBB1771:
 801              	.LBB1690:
 802              	.LBB1355:
 803              	.LBB1347:
 804              	.LBI1347:
 805              		.loc 2 421 20 view .LVU213
 806              	.LBB1348:
 807              		.loc 2 423 23 view .LVU214
 808              		.loc 2 424 34 view .LVU215
 809              		.loc 2 430 3 view .LVU216
 810              		.loc 2 430 3 view .LVU217
 811              		.loc 2 430 3 view .LVU218
 812              		.loc 2 434 3 view .LVU219
 813              	.LBB1349:
 814              	.LBI1349:
 815              		.loc 3 830 27 view .LVU220
 816              	.LBE1349:
 817              	.LBE1348:
 818              	.LBE1347:
 819              	.LBE1355:
 820              	.LBE1690:
 821              	.LBE1771:
 822              		.loc 3 833 3 view .LVU221
 823              	.LVL48:
 824              	.LBB1772:
ARM GAS  /tmp/ccTMtxXw.s 			page 16


 825              	.LBB1691:
 826              	.LBB1356:
 827              	.LBB1354:
 828              	.LBB1353:
 829              	.LBB1352:
 830              	.LBB1350:
 831              	.LBI1350:
 832              		.loc 4 491 27 view .LVU222
 833              	.LBB1351:
 834              		.loc 4 493 3 view .LVU223
 835 003e 0546     		mov	r5, r0
 836              		.syntax unified
 837              	@ 493 "../ChibiOS/os/common/ext/ARM/CMSIS/Core/Include/cmsis_gcc.h" 1
 838 0040 80F31188 		MSR basepri, r0
 839              	@ 0 "" 2
 840              	.LVL49:
 841              		.loc 4 493 3 is_stmt 0 view .LVU224
 842              		.thumb
 843              		.syntax unified
 844              	.LBE1351:
 845              	.LBE1350:
 846              	.LBE1352:
 847              	.LBE1353:
 848              	.LBE1354:
 849              	.LBE1356:
 850              		.loc 1 236 71 is_stmt 1 view .LVU225
 851              		.loc 1 238 3 view .LVU226
 852              		.loc 1 238 19 view .LVU227
 853              		.loc 1 242 3 view .LVU228
 854 0044 0223     		movs	r3, #2
 855 0046 3B60     		str	r3, [r7]
 856              		.loc 1 244 5 view .LVU229
 857              	.LBB1357:
 858              	.LBI1357:
 859              		.loc 2 407 20 view .LVU230
 860              	.LBE1357:
 861              	.LBE1691:
 862              	.LBE1772:
 863              		.loc 2 409 3 view .LVU231
 864              	.LBB1773:
 865              	.LBB1692:
 866              	.LBB1362:
 867              	.LBB1358:
 868              	.LBI1358:
 869              		.loc 3 806 27 view .LVU232
 870              	.LBE1358:
 871              	.LBE1362:
 872              	.LBE1692:
 873              	.LBE1773:
 874              		.loc 3 814 3 view .LVU233
 875              	.LVL50:
 876              	.LBB1774:
 877              	.LBB1693:
 878              	.LBB1363:
 879              	.LBB1361:
 880              	.LBB1359:
 881              	.LBI1359:
ARM GAS  /tmp/ccTMtxXw.s 			page 17


 882              		.loc 4 491 27 view .LVU234
 883              	.LBB1360:
 884              		.loc 4 493 3 view .LVU235
 885              		.syntax unified
 886              	@ 493 "../ChibiOS/os/common/ext/ARM/CMSIS/Core/Include/cmsis_gcc.h" 1
 887 0048 86F31188 		MSR basepri, r6
 888              	@ 0 "" 2
 889              	.LVL51:
 890              		.loc 4 493 3 is_stmt 0 view .LVU236
 891              		.thumb
 892              		.syntax unified
 893              	.LBE1360:
 894              	.LBE1359:
 895              	.LBE1361:
 896              	.LBE1363:
 897              	.LBE1693:
 898              	.LBE1774:
 899              		.loc 2 410 35 is_stmt 1 view .LVU237
 900              		.loc 2 411 21 view .LVU238
 901              	.LBB1775:
 902              	.LBB1694:
 903              		.loc 1 245 5 view .LVU239
 904 004c 2046     		mov	r0, r4
 905 004e FFF7FEFF 		bl	chMBResetI
 906              	.LVL52:
 907              		.loc 1 246 5 view .LVU240
 908              	.LBB1364:
 909              	.LBI1364:
 910              		.loc 2 421 20 view .LVU241
 911              	.LBB1365:
 912              		.loc 2 423 23 view .LVU242
 913              		.loc 2 424 34 view .LVU243
 914              		.loc 2 430 3 view .LVU244
 915              		.loc 2 430 3 view .LVU245
 916              		.loc 2 430 3 view .LVU246
 917              		.loc 2 434 3 view .LVU247
 918              	.LBB1366:
 919              	.LBI1366:
 920              		.loc 3 830 27 view .LVU248
 921              	.LBE1366:
 922              	.LBE1365:
 923              	.LBE1364:
 924              	.LBE1694:
 925              	.LBE1775:
 926              		.loc 3 833 3 view .LVU249
 927              	.LBB1776:
 928              	.LBB1695:
 929              	.LBB1371:
 930              	.LBB1370:
 931              	.LBB1369:
 932              	.LBB1367:
 933              	.LBI1367:
 934              		.loc 4 491 27 view .LVU250
 935              	.LBB1368:
 936              		.loc 4 493 3 view .LVU251
 937              		.syntax unified
 938              	@ 493 "../ChibiOS/os/common/ext/ARM/CMSIS/Core/Include/cmsis_gcc.h" 1
ARM GAS  /tmp/ccTMtxXw.s 			page 18


 939 0052 85F31188 		MSR basepri, r5
 940              	@ 0 "" 2
 941              	.LVL53:
 942              		.loc 4 493 3 is_stmt 0 view .LVU252
 943              		.thumb
 944              		.syntax unified
 945              	.LBE1368:
 946              	.LBE1367:
 947              	.LBE1369:
 948              	.LBE1370:
 949              	.LBE1371:
 950              		.loc 1 247 5 is_stmt 1 view .LVU253
 951              	.LBB1372:
 952              	.LBI1372:
 953              		.loc 6 573 20 view .LVU254
 954              	.LBE1372:
 955              	.LBE1695:
 956              	.LBE1776:
 957              		.loc 6 575 3 view .LVU255
 958              	.LBB1777:
 959              	.LBB1696:
 960              	.LBB1380:
 961              	.LBB1373:
 962              	.LBI1373:
 963              		.loc 2 407 20 view .LVU256
 964              	.LBE1373:
 965              	.LBE1380:
 966              	.LBE1696:
 967              	.LBE1777:
 968              		.loc 2 409 3 view .LVU257
 969              	.LBB1778:
 970              	.LBB1697:
 971              	.LBB1381:
 972              	.LBB1378:
 973              	.LBB1374:
 974              	.LBI1374:
 975              		.loc 3 806 27 view .LVU258
 976              	.LBE1374:
 977              	.LBE1378:
 978              	.LBE1381:
 979              	.LBE1697:
 980              	.LBE1778:
 981              		.loc 3 814 3 view .LVU259
 982              	.LBB1779:
 983              	.LBB1698:
 984              	.LBB1382:
 985              	.LBB1379:
 986              	.LBB1377:
 987              	.LBB1375:
 988              	.LBI1375:
 989              		.loc 4 491 27 view .LVU260
 990              	.LBB1376:
 991              		.loc 4 493 3 view .LVU261
 992              		.syntax unified
 993              	@ 493 "../ChibiOS/os/common/ext/ARM/CMSIS/Core/Include/cmsis_gcc.h" 1
 994 0056 86F31188 		MSR basepri, r6
 995              	@ 0 "" 2
ARM GAS  /tmp/ccTMtxXw.s 			page 19


 996              	.LVL54:
 997              		.loc 4 493 3 is_stmt 0 view .LVU262
 998              		.thumb
 999              		.syntax unified
 1000              	.LBE1376:
 1001              	.LBE1375:
 1002              	.LBE1377:
 1003              	.LBE1379:
 1004              	.LBE1382:
 1005              	.LBE1698:
 1006              	.LBE1779:
 1007              		.loc 2 410 35 is_stmt 1 view .LVU263
 1008              		.loc 2 411 21 view .LVU264
 1009              	.LBB1780:
 1010              	.LBB1699:
 1011              		.loc 1 247 5 view .LVU265
 1012              	.LBB1383:
 1013              	.LBI1383:
 1014              		.loc 5 167 22 view .LVU266
 1015              	.LBB1384:
 1016              		.loc 5 169 21 view .LVU267
 1017              		.loc 5 171 3 view .LVU268
 1018              	.LBB1385:
 1019              	.LBI1385:
 1020              		.loc 5 136 22 view .LVU269
 1021              	.LBB1386:
 1022              		.loc 5 140 3 view .LVU270
 1023              		.loc 5 140 3 is_stmt 0 view .LVU271
 1024              	.LBE1386:
 1025              	.LBE1385:
 1026              	.LBB1388:
 1027              	.LBI1388:
 1028              		.loc 5 152 22 is_stmt 1 view .LVU272
 1029              	.LBB1389:
 1030              		.loc 5 154 21 view .LVU273
 1031              		.loc 5 156 3 view .LVU274
 1032              		.loc 5 156 3 is_stmt 0 view .LVU275
 1033              	.LBE1389:
 1034              	.LBE1388:
 1035              	.LBB1390:
 1036              	.LBB1387:
 1037              		.loc 5 140 28 view .LVU276
 1038 005a D4E90030 		ldrd	r3, r0, [r4]
 1039 005e C31A     		subs	r3, r0, r3
 1040              	.LBE1387:
 1041              	.LBE1390:
 1042              		.loc 5 171 28 view .LVU277
 1043 0060 2069     		ldr	r0, [r4, #16]
 1044              	.LBE1384:
 1045              	.LBE1383:
 1046              		.loc 1 247 5 view .LVU278
 1047 0062 9749     		ldr	r1, .L43+12
 1048              	.LBB1392:
 1049              	.LBB1391:
 1050              		.loc 5 171 28 view .LVU279
 1051 0064 C0EBA300 		rsb	r0, r0, r3, asr #2
 1052              	.LBE1391:
ARM GAS  /tmp/ccTMtxXw.s 			page 20


 1053              	.LBE1392:
 1054              		.loc 1 247 5 view .LVU280
 1055 0068 A0F10400 		sub	r0, #4
 1056 006c B0FA80F0 		clz	r0, r0
 1057 0070 4009     		lsrs	r0, r0, #5
 1058 0072 FFF7FEFF 		bl	__test_assert
 1059              	.LVL55:
 1060 0076 8046     		mov	r8, r0
 1061 0078 88B9     		cbnz	r0, .L41
 1062              		.loc 1 247 5 is_stmt 1 view .LVU281
 1063              	.LBB1393:
 1064              	.LBI1393:
 1065              		.loc 6 584 20 view .LVU282
 1066              	.LBE1393:
 1067              	.LBE1699:
 1068              	.LBE1780:
 1069              		.loc 6 586 3 view .LVU283
 1070              	.LBB1781:
 1071              	.LBB1700:
 1072              	.LBB1402:
 1073              	.LBB1394:
 1074              	.LBI1394:
 1075              		.loc 2 421 20 view .LVU284
 1076              	.LBB1395:
 1077              		.loc 2 423 23 view .LVU285
 1078              		.loc 2 424 34 view .LVU286
 1079              		.loc 2 430 3 view .LVU287
 1080              		.loc 2 430 3 view .LVU288
 1081              		.loc 2 430 3 view .LVU289
 1082              		.loc 2 434 3 view .LVU290
 1083              	.LBB1396:
 1084              	.LBI1396:
 1085              		.loc 3 830 27 view .LVU291
 1086              	.LBE1396:
 1087              	.LBE1395:
 1088              	.LBE1394:
 1089              	.LBE1402:
 1090              	.LBE1700:
 1091              	.LBE1781:
 1092              		.loc 3 833 3 view .LVU292
 1093              	.LVL56:
 1094              	.LBB1782:
 1095              	.LBB1701:
 1096              	.LBB1403:
 1097              	.LBB1401:
 1098              	.LBB1400:
 1099              	.LBB1399:
 1100              	.LBB1397:
 1101              	.LBI1397:
 1102              		.loc 4 491 27 view .LVU293
 1103              	.LBB1398:
 1104              		.loc 4 493 3 view .LVU294
 1105              		.syntax unified
 1106              	@ 493 "../ChibiOS/os/common/ext/ARM/CMSIS/Core/Include/cmsis_gcc.h" 1
 1107 007a 80F31188 		MSR basepri, r0
 1108              	@ 0 "" 2
 1109              	.LVL57:
ARM GAS  /tmp/ccTMtxXw.s 			page 21


 1110              		.loc 4 493 3 is_stmt 0 view .LVU295
 1111              		.thumb
 1112              		.syntax unified
 1113              	.LBE1398:
 1114              	.LBE1397:
 1115              	.LBE1399:
 1116              	.LBE1400:
 1117              	.LBE1401:
 1118              	.LBE1403:
 1119              		.loc 1 247 70 is_stmt 1 view .LVU296
 1120              		.loc 1 248 5 view .LVU297
 1121              	.LBB1404:
 1122              	.LBI1404:
 1123              		.loc 6 573 20 view .LVU298
 1124              	.LBE1404:
 1125              	.LBE1701:
 1126              	.LBE1782:
 1127              		.loc 6 575 3 view .LVU299
 1128              	.LBB1783:
 1129              	.LBB1702:
 1130              	.LBB1412:
 1131              	.LBB1405:
 1132              	.LBI1405:
 1133              		.loc 2 407 20 view .LVU300
 1134              	.LBE1405:
 1135              	.LBE1412:
 1136              	.LBE1702:
 1137              	.LBE1783:
 1138              		.loc 2 409 3 view .LVU301
 1139              	.LBB1784:
 1140              	.LBB1703:
 1141              	.LBB1413:
 1142              	.LBB1410:
 1143              	.LBB1406:
 1144              	.LBI1406:
 1145              		.loc 3 806 27 view .LVU302
 1146              	.LBE1406:
 1147              	.LBE1410:
 1148              	.LBE1413:
 1149              	.LBE1703:
 1150              	.LBE1784:
 1151              		.loc 3 814 3 view .LVU303
 1152              	.LBB1785:
 1153              	.LBB1704:
 1154              	.LBB1414:
 1155              	.LBB1411:
 1156              	.LBB1409:
 1157              	.LBB1407:
 1158              	.LBI1407:
 1159              		.loc 4 491 27 view .LVU304
 1160              	.LBB1408:
 1161              		.loc 4 493 3 view .LVU305
 1162              		.syntax unified
 1163              	@ 493 "../ChibiOS/os/common/ext/ARM/CMSIS/Core/Include/cmsis_gcc.h" 1
 1164 007e 86F31188 		MSR basepri, r6
 1165              	@ 0 "" 2
 1166              	.LVL58:
ARM GAS  /tmp/ccTMtxXw.s 			page 22


 1167              		.loc 4 493 3 is_stmt 0 view .LVU306
 1168              		.thumb
 1169              		.syntax unified
 1170              	.LBE1408:
 1171              	.LBE1407:
 1172              	.LBE1409:
 1173              	.LBE1411:
 1174              	.LBE1414:
 1175              	.LBE1704:
 1176              	.LBE1785:
 1177              		.loc 2 410 35 is_stmt 1 view .LVU307
 1178              		.loc 2 411 21 view .LVU308
 1179              	.LBB1786:
 1180              	.LBB1705:
 1181              		.loc 1 248 5 view .LVU309
 1182              	.LBB1415:
 1183              	.LBI1415:
 1184              		.loc 5 152 22 view .LVU310
 1185              	.LBB1416:
 1186              		.loc 5 154 21 view .LVU311
 1187              		.loc 5 156 3 view .LVU312
 1188              		.loc 5 156 3 is_stmt 0 view .LVU313
 1189              	.LBE1416:
 1190              	.LBE1415:
 1191              		.loc 1 248 5 view .LVU314
 1192 0082 2069     		ldr	r0, [r4, #16]
 1193 0084 8F49     		ldr	r1, .L43+16
 1194 0086 B0FA80F0 		clz	r0, r0
 1195 008a 4009     		lsrs	r0, r0, #5
 1196 008c FFF7FEFF 		bl	__test_assert
 1197              	.LVL59:
 1198 0090 0546     		mov	r5, r0
 1199 0092 48B1     		cbz	r0, .L23
 1200              	.L42:
 1201              		.loc 1 277 5 is_stmt 1 view .LVU315
 1202              	.LBB1417:
 1203              	.LBI1417:
 1204              		.loc 6 584 20 view .LVU316
 1205              	.LBE1417:
 1206              	.LBE1705:
 1207              	.LBE1786:
 1208              		.loc 6 586 3 view .LVU317
 1209              	.LBB1787:
 1210              	.LBB1706:
 1211              	.LBB1426:
 1212              	.LBB1418:
 1213              	.LBI1418:
 1214              		.loc 2 421 20 view .LVU318
 1215              	.LBB1419:
 1216              		.loc 2 423 23 view .LVU319
 1217              		.loc 2 424 34 view .LVU320
 1218              		.loc 2 430 3 view .LVU321
 1219              		.loc 2 430 3 view .LVU322
 1220              		.loc 2 430 3 view .LVU323
 1221              		.loc 2 434 3 view .LVU324
 1222              	.LBB1420:
 1223              	.LBI1420:
ARM GAS  /tmp/ccTMtxXw.s 			page 23


 1224              		.loc 3 830 27 view .LVU325
 1225              	.LBE1420:
 1226              	.LBE1419:
 1227              	.LBE1418:
 1228              	.LBE1426:
 1229              	.LBE1706:
 1230              	.LBE1787:
 1231              		.loc 3 833 3 view .LVU326
 1232              	.LVL60:
 1233              	.LBB1788:
 1234              	.LBB1707:
 1235              	.LBB1427:
 1236              	.LBB1425:
 1237              	.LBB1424:
 1238              	.LBB1423:
 1239              	.LBB1421:
 1240              	.LBI1421:
 1241              		.loc 4 491 27 view .LVU327
 1242              	.LBB1422:
 1243              		.loc 4 493 3 view .LVU328
 1244              		.syntax unified
 1245              	@ 493 "../ChibiOS/os/common/ext/ARM/CMSIS/Core/Include/cmsis_gcc.h" 1
 1246 0094 88F31188 		MSR basepri, r8
 1247              	@ 0 "" 2
 1248              	.LVL61:
 1249              		.loc 4 493 3 is_stmt 0 view .LVU329
 1250              		.thumb
 1251              		.syntax unified
 1252              	.LBE1422:
 1253              	.LBE1421:
 1254              	.LBE1423:
 1255              	.LBE1424:
 1256              	.LBE1425:
 1257              	.LBE1427:
 1258              		.loc 1 277 5 is_stmt 1 view .LVU330
 1259              	.LBE1707:
 1260              	.LBE1788:
 1261              		.loc 1 318 1 is_stmt 0 view .LVU331
 1262 0098 03B0     		add	sp, sp, #12
 1263              		.cfi_remember_state
 1264              		.cfi_def_cfa_offset 28
 1265              		@ sp needed
 1266 009a BDE8F083 		pop	{r4, r5, r6, r7, r8, r9, pc}
 1267              	.L41:
 1268              		.cfi_restore_state
 1269              	.LBB1789:
 1270              	.LBB1708:
 1271              		.loc 1 278 5 is_stmt 1 view .LVU332
 1272              	.LBB1428:
 1273              	.LBI1428:
 1274              		.loc 6 584 20 view .LVU333
 1275              	.LBE1428:
 1276              	.LBE1708:
 1277              	.LBE1789:
 1278              		.loc 6 586 3 view .LVU334
 1279              	.LBB1790:
 1280              	.LBB1709:
ARM GAS  /tmp/ccTMtxXw.s 			page 24


 1281              	.LBB1437:
 1282              	.LBB1429:
 1283              	.LBI1429:
 1284              		.loc 2 421 20 view .LVU335
 1285              	.LBB1430:
 1286              		.loc 2 423 23 view .LVU336
 1287              		.loc 2 424 34 view .LVU337
 1288              		.loc 2 430 3 view .LVU338
 1289              		.loc 2 430 3 view .LVU339
 1290              		.loc 2 430 3 view .LVU340
 1291              		.loc 2 434 3 view .LVU341
 1292              	.LBB1431:
 1293              	.LBI1431:
 1294              		.loc 3 830 27 view .LVU342
 1295              	.LBE1431:
 1296              	.LBE1430:
 1297              	.LBE1429:
 1298              	.LBE1437:
 1299              	.LBE1709:
 1300              	.LBE1790:
 1301              		.loc 3 833 3 view .LVU343
 1302              	.LVL62:
 1303              	.LBB1791:
 1304              	.LBB1710:
 1305              	.LBB1438:
 1306              	.LBB1436:
 1307              	.LBB1435:
 1308              	.LBB1434:
 1309              	.LBB1432:
 1310              	.LBI1432:
 1311              		.loc 4 491 27 view .LVU344
 1312              	.LBB1433:
 1313              		.loc 4 493 3 view .LVU345
 1314              		.syntax unified
 1315              	@ 493 "../ChibiOS/os/common/ext/ARM/CMSIS/Core/Include/cmsis_gcc.h" 1
 1316 009e 85F31188 		MSR basepri, r5
 1317              	@ 0 "" 2
 1318              	.LVL63:
 1319              		.loc 4 493 3 is_stmt 0 view .LVU346
 1320              		.thumb
 1321              		.syntax unified
 1322              	.LBE1433:
 1323              	.LBE1432:
 1324              	.LBE1434:
 1325              	.LBE1435:
 1326              	.LBE1436:
 1327              	.LBE1438:
 1328              		.loc 1 278 5 is_stmt 1 view .LVU347
 1329              	.LBE1710:
 1330              	.LBE1791:
 1331              		.loc 1 318 1 is_stmt 0 view .LVU348
 1332 00a2 03B0     		add	sp, sp, #12
 1333              		.cfi_remember_state
 1334              		.cfi_def_cfa_offset 28
 1335              		@ sp needed
 1336 00a4 BDE8F083 		pop	{r4, r5, r6, r7, r8, r9, pc}
 1337              	.L23:
ARM GAS  /tmp/ccTMtxXw.s 			page 25


 1338              		.cfi_restore_state
 1339              	.LBB1792:
 1340              	.LBB1711:
 1341              		.loc 1 248 5 is_stmt 1 view .LVU349
 1342              	.LBB1439:
 1343              	.LBI1439:
 1344              		.loc 6 584 20 view .LVU350
 1345              	.LBE1439:
 1346              	.LBE1711:
 1347              	.LBE1792:
 1348              		.loc 6 586 3 view .LVU351
 1349              	.LBB1793:
 1350              	.LBB1712:
 1351              	.LBB1448:
 1352              	.LBB1440:
 1353              	.LBI1440:
 1354              		.loc 2 421 20 view .LVU352
 1355              	.LBB1441:
 1356              		.loc 2 423 23 view .LVU353
 1357              		.loc 2 424 34 view .LVU354
 1358              		.loc 2 430 3 view .LVU355
 1359              		.loc 2 430 3 view .LVU356
 1360              		.loc 2 430 3 view .LVU357
 1361              		.loc 2 434 3 view .LVU358
 1362              	.LBB1442:
 1363              	.LBI1442:
 1364              		.loc 3 830 27 view .LVU359
 1365              	.LBE1442:
 1366              	.LBE1441:
 1367              	.LBE1440:
 1368              	.LBE1448:
 1369              	.LBE1712:
 1370              	.LBE1793:
 1371              		.loc 3 833 3 view .LVU360
 1372              	.LVL64:
 1373              	.LBB1794:
 1374              	.LBB1713:
 1375              	.LBB1449:
 1376              	.LBB1447:
 1377              	.LBB1446:
 1378              	.LBB1445:
 1379              	.LBB1443:
 1380              	.LBI1443:
 1381              		.loc 4 491 27 view .LVU361
 1382              	.LBB1444:
 1383              		.loc 4 493 3 view .LVU362
 1384              		.syntax unified
 1385              	@ 493 "../ChibiOS/os/common/ext/ARM/CMSIS/Core/Include/cmsis_gcc.h" 1
 1386 00a8 80F31188 		MSR basepri, r0
 1387              	@ 0 "" 2
 1388              	.LVL65:
 1389              		.loc 4 493 3 is_stmt 0 view .LVU363
 1390              		.thumb
 1391              		.syntax unified
 1392              	.LBE1444:
 1393              	.LBE1443:
 1394              	.LBE1445:
ARM GAS  /tmp/ccTMtxXw.s 			page 26


 1395              	.LBE1446:
 1396              	.LBE1447:
 1397              	.LBE1449:
 1398              		.loc 1 248 65 is_stmt 1 view .LVU364
 1399              		.loc 1 249 5 view .LVU365
 1400              	.LBB1450:
 1401              	.LBI1450:
 1402              		.loc 6 573 20 view .LVU366
 1403              	.LBE1450:
 1404              	.LBE1713:
 1405              	.LBE1794:
 1406              		.loc 6 575 3 view .LVU367
 1407              	.LBB1795:
 1408              	.LBB1714:
 1409              	.LBB1458:
 1410              	.LBB1451:
 1411              	.LBI1451:
 1412              		.loc 2 407 20 view .LVU368
 1413              	.LBE1451:
 1414              	.LBE1458:
 1415              	.LBE1714:
 1416              	.LBE1795:
 1417              		.loc 2 409 3 view .LVU369
 1418              	.LBB1796:
 1419              	.LBB1715:
 1420              	.LBB1459:
 1421              	.LBB1456:
 1422              	.LBB1452:
 1423              	.LBI1452:
 1424              		.loc 3 806 27 view .LVU370
 1425              	.LBE1452:
 1426              	.LBE1456:
 1427              	.LBE1459:
 1428              	.LBE1715:
 1429              	.LBE1796:
 1430              		.loc 3 814 3 view .LVU371
 1431              	.LBB1797:
 1432              	.LBB1716:
 1433              	.LBB1460:
 1434              	.LBB1457:
 1435              	.LBB1455:
 1436              	.LBB1453:
 1437              	.LBI1453:
 1438              		.loc 4 491 27 view .LVU372
 1439              	.LBB1454:
 1440              		.loc 4 493 3 view .LVU373
 1441              		.syntax unified
 1442              	@ 493 "../ChibiOS/os/common/ext/ARM/CMSIS/Core/Include/cmsis_gcc.h" 1
 1443 00ac 86F31188 		MSR basepri, r6
 1444              	@ 0 "" 2
 1445              	.LVL66:
 1446              		.loc 4 493 3 is_stmt 0 view .LVU374
 1447              		.thumb
 1448              		.syntax unified
 1449              	.LBE1454:
 1450              	.LBE1453:
 1451              	.LBE1455:
ARM GAS  /tmp/ccTMtxXw.s 			page 27


 1452              	.LBE1457:
 1453              	.LBE1460:
 1454              	.LBE1716:
 1455              	.LBE1797:
 1456              		.loc 2 410 35 is_stmt 1 view .LVU375
 1457              		.loc 2 411 21 view .LVU376
 1458              	.LBB1798:
 1459              	.LBB1717:
 1460              		.loc 1 249 5 view .LVU377
 1461 00b0 2068     		ldr	r0, [r4]
 1462 00b2 A368     		ldr	r3, [r4, #8]
 1463 00b4 8449     		ldr	r1, .L43+20
 1464 00b6 C01A     		subs	r0, r0, r3
 1465 00b8 B0FA80F0 		clz	r0, r0
 1466 00bc 4009     		lsrs	r0, r0, #5
 1467 00be FFF7FEFF 		bl	__test_assert
 1468              	.LVL67:
 1469 00c2 8046     		mov	r8, r0
 1470 00c4 0028     		cmp	r0, #0
 1471 00c6 EAD1     		bne	.L41
 1472              		.loc 1 249 5 view .LVU378
 1473              	.LBB1461:
 1474              	.LBI1461:
 1475              		.loc 6 584 20 view .LVU379
 1476              	.LBE1461:
 1477              	.LBE1717:
 1478              	.LBE1798:
 1479              		.loc 6 586 3 view .LVU380
 1480              	.LBB1799:
 1481              	.LBB1718:
 1482              	.LBB1470:
 1483              	.LBB1462:
 1484              	.LBI1462:
 1485              		.loc 2 421 20 view .LVU381
 1486              	.LBB1463:
 1487              		.loc 2 423 23 view .LVU382
 1488              		.loc 2 424 34 view .LVU383
 1489              		.loc 2 430 3 view .LVU384
 1490              		.loc 2 430 3 view .LVU385
 1491              		.loc 2 430 3 view .LVU386
 1492              		.loc 2 434 3 view .LVU387
 1493              	.LBB1464:
 1494              	.LBI1464:
 1495              		.loc 3 830 27 view .LVU388
 1496              	.LBE1464:
 1497              	.LBE1463:
 1498              	.LBE1462:
 1499              	.LBE1470:
 1500              	.LBE1718:
 1501              	.LBE1799:
 1502              		.loc 3 833 3 view .LVU389
 1503              	.LVL68:
 1504              	.LBB1800:
 1505              	.LBB1719:
 1506              	.LBB1471:
 1507              	.LBB1469:
 1508              	.LBB1468:
ARM GAS  /tmp/ccTMtxXw.s 			page 28


 1509              	.LBB1467:
 1510              	.LBB1465:
 1511              	.LBI1465:
 1512              		.loc 4 491 27 view .LVU390
 1513              	.LBB1466:
 1514              		.loc 4 493 3 view .LVU391
 1515              		.syntax unified
 1516              	@ 493 "../ChibiOS/os/common/ext/ARM/CMSIS/Core/Include/cmsis_gcc.h" 1
 1517 00c8 80F31188 		MSR basepri, r0
 1518              	@ 0 "" 2
 1519              	.LVL69:
 1520              		.loc 4 493 3 is_stmt 0 view .LVU392
 1521              		.thumb
 1522              		.syntax unified
 1523              	.LBE1466:
 1524              	.LBE1465:
 1525              	.LBE1467:
 1526              	.LBE1468:
 1527              	.LBE1469:
 1528              	.LBE1471:
 1529              		.loc 1 249 83 is_stmt 1 view .LVU393
 1530              		.loc 1 250 5 view .LVU394
 1531              	.LBB1472:
 1532              	.LBI1472:
 1533              		.loc 6 573 20 view .LVU395
 1534              	.LBE1472:
 1535              	.LBE1719:
 1536              	.LBE1800:
 1537              		.loc 6 575 3 view .LVU396
 1538              	.LBB1801:
 1539              	.LBB1720:
 1540              	.LBB1480:
 1541              	.LBB1473:
 1542              	.LBI1473:
 1543              		.loc 2 407 20 view .LVU397
 1544              	.LBE1473:
 1545              	.LBE1480:
 1546              	.LBE1720:
 1547              	.LBE1801:
 1548              		.loc 2 409 3 view .LVU398
 1549              	.LBB1802:
 1550              	.LBB1721:
 1551              	.LBB1481:
 1552              	.LBB1478:
 1553              	.LBB1474:
 1554              	.LBI1474:
 1555              		.loc 3 806 27 view .LVU399
 1556              	.LBE1474:
 1557              	.LBE1478:
 1558              	.LBE1481:
 1559              	.LBE1721:
 1560              	.LBE1802:
 1561              		.loc 3 814 3 view .LVU400
 1562              	.LBB1803:
 1563              	.LBB1722:
 1564              	.LBB1482:
 1565              	.LBB1479:
ARM GAS  /tmp/ccTMtxXw.s 			page 29


 1566              	.LBB1477:
 1567              	.LBB1475:
 1568              	.LBI1475:
 1569              		.loc 4 491 27 view .LVU401
 1570              	.LBB1476:
 1571              		.loc 4 493 3 view .LVU402
 1572              		.syntax unified
 1573              	@ 493 "../ChibiOS/os/common/ext/ARM/CMSIS/Core/Include/cmsis_gcc.h" 1
 1574 00cc 86F31188 		MSR basepri, r6
 1575              	@ 0 "" 2
 1576              	.LVL70:
 1577              		.loc 4 493 3 is_stmt 0 view .LVU403
 1578              		.thumb
 1579              		.syntax unified
 1580              	.LBE1476:
 1581              	.LBE1475:
 1582              	.LBE1477:
 1583              	.LBE1479:
 1584              	.LBE1482:
 1585              	.LBE1722:
 1586              	.LBE1803:
 1587              		.loc 2 410 35 is_stmt 1 view .LVU404
 1588              		.loc 2 411 21 view .LVU405
 1589              	.LBB1804:
 1590              	.LBB1723:
 1591              		.loc 1 250 5 view .LVU406
 1592 00d0 2068     		ldr	r0, [r4]
 1593 00d2 E368     		ldr	r3, [r4, #12]
 1594 00d4 7D49     		ldr	r1, .L43+24
 1595 00d6 C01A     		subs	r0, r0, r3
 1596 00d8 B0FA80F0 		clz	r0, r0
 1597 00dc 4009     		lsrs	r0, r0, #5
 1598 00de FFF7FEFF 		bl	__test_assert
 1599              	.LVL71:
 1600 00e2 0028     		cmp	r0, #0
 1601 00e4 D6D1     		bne	.L42
 1602              		.loc 1 250 5 view .LVU407
 1603              	.LBB1483:
 1604              	.LBI1483:
 1605              		.loc 6 584 20 view .LVU408
 1606              	.LBE1483:
 1607              	.LBE1723:
 1608              	.LBE1804:
 1609              		.loc 6 586 3 view .LVU409
 1610              	.LBB1805:
 1611              	.LBB1724:
 1612              	.LBB1492:
 1613              	.LBB1484:
 1614              	.LBI1484:
 1615              		.loc 2 421 20 view .LVU410
 1616              	.LBB1485:
 1617              		.loc 2 423 23 view .LVU411
 1618              		.loc 2 424 34 view .LVU412
 1619              		.loc 2 430 3 view .LVU413
 1620              		.loc 2 430 3 view .LVU414
 1621              		.loc 2 430 3 view .LVU415
 1622              		.loc 2 434 3 view .LVU416
ARM GAS  /tmp/ccTMtxXw.s 			page 30


 1623              	.LBB1486:
 1624              	.LBI1486:
 1625              		.loc 3 830 27 view .LVU417
 1626              	.LBE1486:
 1627              	.LBE1485:
 1628              	.LBE1484:
 1629              	.LBE1492:
 1630              	.LBE1724:
 1631              	.LBE1805:
 1632              		.loc 3 833 3 view .LVU418
 1633              	.LVL72:
 1634              	.LBB1806:
 1635              	.LBB1725:
 1636              	.LBB1493:
 1637              	.LBB1491:
 1638              	.LBB1490:
 1639              	.LBB1489:
 1640              	.LBB1487:
 1641              	.LBI1487:
 1642              		.loc 4 491 27 view .LVU419
 1643              	.LBB1488:
 1644              		.loc 4 493 3 view .LVU420
 1645              		.syntax unified
 1646              	@ 493 "../ChibiOS/os/common/ext/ARM/CMSIS/Core/Include/cmsis_gcc.h" 1
 1647 00e6 80F31188 		MSR basepri, r0
 1648              	@ 0 "" 2
 1649              	.LVL73:
 1650              		.loc 4 493 3 is_stmt 0 view .LVU421
 1651              		.thumb
 1652              		.syntax unified
 1653              	.LBE1488:
 1654              	.LBE1487:
 1655              	.LBE1489:
 1656              	.LBE1490:
 1657              	.LBE1491:
 1658              	.LBE1493:
 1659              		.loc 1 250 82 is_stmt 1 view .LVU422
 1660              		.loc 1 251 5 view .LVU423
 1661              	.LBB1494:
 1662              	.LBI1494:
 1663              		.loc 5 200 20 view .LVU424
 1664              	.LBB1495:
 1665              		.loc 5 202 3 view .LVU425
 1666              	.LBE1495:
 1667              	.LBE1494:
 1668              		.loc 1 257 3 is_stmt 0 view .LVU426
 1669 00ea 0323     		movs	r3, #3
 1670              		.loc 1 263 7 view .LVU427
 1671 00ec DFF8E091 		ldr	r9, .L43+28
 1672              	.LBB1497:
 1673              	.LBB1496:
 1674              		.loc 5 202 14 view .LVU428
 1675 00f0 2075     		strb	r0, [r4, #20]
 1676              	.LVL74:
 1677              		.loc 5 202 14 view .LVU429
 1678              	.LBE1496:
 1679              	.LBE1497:
ARM GAS  /tmp/ccTMtxXw.s 			page 31


 1680              		.loc 1 253 3 is_stmt 1 view .LVU430
 1681              		.loc 1 253 19 view .LVU431
 1682              		.loc 1 257 3 view .LVU432
 1683 00f2 3B60     		str	r3, [r7]
 1684              		.loc 1 259 5 view .LVU433
 1685              	.LVL75:
 1686              		.loc 1 259 17 view .LVU434
 1687              		.loc 1 257 3 is_stmt 0 view .LVU435
 1688 00f4 4FF04208 		mov	r8, #66
 1689              	.LVL76:
 1690              	.L27:
 1691              		.loc 1 260 7 is_stmt 1 view .LVU436
 1692              	.LBB1498:
 1693              	.LBI1498:
 1694              		.loc 2 407 20 view .LVU437
 1695              	.LBE1498:
 1696              	.LBE1725:
 1697              	.LBE1806:
 1698              		.loc 2 409 3 view .LVU438
 1699              	.LBB1807:
 1700              	.LBB1726:
 1701              	.LBB1503:
 1702              	.LBB1499:
 1703              	.LBI1499:
 1704              		.loc 3 806 27 view .LVU439
 1705              	.LBE1499:
 1706              	.LBE1503:
 1707              	.LBE1726:
 1708              	.LBE1807:
 1709              		.loc 3 814 3 view .LVU440
 1710              	.LBB1808:
 1711              	.LBB1727:
 1712              	.LBB1504:
 1713              	.LBB1502:
 1714              	.LBB1500:
 1715              	.LBI1500:
 1716              		.loc 4 491 27 view .LVU441
 1717              	.LBB1501:
 1718              		.loc 4 493 3 view .LVU442
 1719              		.syntax unified
 1720              	@ 493 "../ChibiOS/os/common/ext/ARM/CMSIS/Core/Include/cmsis_gcc.h" 1
 1721 00f8 86F31188 		MSR basepri, r6
 1722              	@ 0 "" 2
 1723              	.LVL77:
 1724              		.loc 4 493 3 is_stmt 0 view .LVU443
 1725              		.thumb
 1726              		.syntax unified
 1727              	.LBE1501:
 1728              	.LBE1500:
 1729              	.LBE1502:
 1730              	.LBE1504:
 1731              	.LBE1727:
 1732              	.LBE1808:
 1733              		.loc 2 410 35 is_stmt 1 view .LVU444
 1734              		.loc 2 411 21 view .LVU445
 1735              	.LBB1809:
 1736              	.LBB1728:
ARM GAS  /tmp/ccTMtxXw.s 			page 32


 1737              		.loc 1 261 7 view .LVU446
 1738              		.loc 1 261 14 is_stmt 0 view .LVU447
 1739 00fc 4146     		mov	r1, r8
 1740 00fe 2046     		mov	r0, r4
 1741 0100 FFF7FEFF 		bl	chMBPostI
 1742              	.LVL78:
 1743              		.loc 1 262 7 is_stmt 1 view .LVU448
 1744              	.LBB1505:
 1745              	.LBI1505:
 1746              		.loc 2 421 20 view .LVU449
 1747              	.LBB1506:
 1748              		.loc 2 423 23 view .LVU450
 1749              		.loc 2 424 34 view .LVU451
 1750              		.loc 2 430 3 view .LVU452
 1751              		.loc 2 430 3 view .LVU453
 1752              		.loc 2 430 3 view .LVU454
 1753              		.loc 2 434 3 view .LVU455
 1754              	.LBB1507:
 1755              	.LBI1507:
 1756              		.loc 3 830 27 view .LVU456
 1757              	.LBE1507:
 1758              	.LBE1506:
 1759              	.LBE1505:
 1760              	.LBE1728:
 1761              	.LBE1809:
 1762              		.loc 3 833 3 view .LVU457
 1763              	.LBB1810:
 1764              	.LBB1729:
 1765              	.LBB1512:
 1766              	.LBB1511:
 1767              	.LBB1510:
 1768              	.LBB1508:
 1769              	.LBI1508:
 1770              		.loc 4 491 27 view .LVU458
 1771              	.LBB1509:
 1772              		.loc 4 493 3 view .LVU459
 1773 0104 0023     		movs	r3, #0
 1774              		.syntax unified
 1775              	@ 493 "../ChibiOS/os/common/ext/ARM/CMSIS/Core/Include/cmsis_gcc.h" 1
 1776 0106 83F31188 		MSR basepri, r3
 1777              	@ 0 "" 2
 1778              	.LVL79:
 1779              		.loc 4 493 3 is_stmt 0 view .LVU460
 1780              		.thumb
 1781              		.syntax unified
 1782              	.LBE1509:
 1783              	.LBE1508:
 1784              	.LBE1510:
 1785              	.LBE1511:
 1786              	.LBE1512:
 1787              		.loc 1 263 7 is_stmt 1 view .LVU461
 1788 010a B0FA80F0 		clz	r0, r0
 1789              	.LVL80:
 1790              		.loc 1 263 7 is_stmt 0 view .LVU462
 1791 010e 4009     		lsrs	r0, r0, #5
 1792 0110 4946     		mov	r1, r9
 1793 0112 FFF7FEFF 		bl	__test_assert
ARM GAS  /tmp/ccTMtxXw.s 			page 33


 1794              	.LVL81:
 1795              		.loc 1 263 59 is_stmt 1 view .LVU463
 1796              		.loc 1 259 34 view .LVU464
 1797              		.loc 1 259 17 view .LVU465
 1798              		.loc 1 259 5 is_stmt 0 view .LVU466
 1799 0116 08F10108 		add	r8, r8, #1
 1800              		.loc 1 263 7 view .LVU467
 1801 011a 0546     		mov	r5, r0
 1802 011c 0028     		cmp	r0, #0
 1803 011e 8BD1     		bne	.L18
 1804              		.loc 1 259 5 view .LVU468
 1805 0120 B8F1450F 		cmp	r8, #69
 1806 0124 E8D1     		bne	.L27
 1807              		.loc 1 265 5 is_stmt 1 view .LVU469
 1808              	.LBB1513:
 1809              	.LBI1513:
 1810              		.loc 2 407 20 view .LVU470
 1811              	.LBE1513:
 1812              	.LBE1729:
 1813              	.LBE1810:
 1814              		.loc 2 409 3 view .LVU471
 1815              	.LBB1811:
 1816              	.LBB1730:
 1817              	.LBB1518:
 1818              	.LBB1514:
 1819              	.LBI1514:
 1820              		.loc 3 806 27 view .LVU472
 1821              	.LBE1514:
 1822              	.LBE1518:
 1823              	.LBE1730:
 1824              	.LBE1811:
 1825              		.loc 3 814 3 view .LVU473
 1826              	.LVL82:
 1827              	.LBB1812:
 1828              	.LBB1731:
 1829              	.LBB1519:
 1830              	.LBB1517:
 1831              	.LBB1515:
 1832              	.LBI1515:
 1833              		.loc 4 491 27 view .LVU474
 1834              	.LBB1516:
 1835              		.loc 4 493 3 view .LVU475
 1836              		.syntax unified
 1837              	@ 493 "../ChibiOS/os/common/ext/ARM/CMSIS/Core/Include/cmsis_gcc.h" 1
 1838 0126 86F31188 		MSR basepri, r6
 1839              	@ 0 "" 2
 1840              	.LVL83:
 1841              		.loc 4 493 3 is_stmt 0 view .LVU476
 1842              		.thumb
 1843              		.syntax unified
 1844              	.LBE1516:
 1845              	.LBE1515:
 1846              	.LBE1517:
 1847              	.LBE1519:
 1848              	.LBE1731:
 1849              	.LBE1812:
 1850              		.loc 2 410 35 is_stmt 1 view .LVU477
ARM GAS  /tmp/ccTMtxXw.s 			page 34


 1851              		.loc 2 411 21 view .LVU478
 1852              	.LBB1813:
 1853              	.LBB1732:
 1854              		.loc 1 266 5 view .LVU479
 1855              		.loc 1 266 12 is_stmt 0 view .LVU480
 1856 012a 4121     		movs	r1, #65
 1857 012c 6248     		ldr	r0, .L43+4
 1858 012e FFF7FEFF 		bl	chMBPostAheadI
 1859              	.LVL84:
 1860              		.loc 1 267 5 is_stmt 1 view .LVU481
 1861              	.LBB1520:
 1862              	.LBI1520:
 1863              		.loc 2 421 20 view .LVU482
 1864              	.LBB1521:
 1865              		.loc 2 423 23 view .LVU483
 1866              		.loc 2 424 34 view .LVU484
 1867              		.loc 2 430 3 view .LVU485
 1868              		.loc 2 430 3 view .LVU486
 1869              		.loc 2 430 3 view .LVU487
 1870              		.loc 2 434 3 view .LVU488
 1871              	.LBB1522:
 1872              	.LBI1522:
 1873              		.loc 3 830 27 view .LVU489
 1874              	.LBE1522:
 1875              	.LBE1521:
 1876              	.LBE1520:
 1877              	.LBE1732:
 1878              	.LBE1813:
 1879              		.loc 3 833 3 view .LVU490
 1880              	.LBB1814:
 1881              	.LBB1733:
 1882              	.LBB1527:
 1883              	.LBB1526:
 1884              	.LBB1525:
 1885              	.LBB1523:
 1886              	.LBI1523:
 1887              		.loc 4 491 27 view .LVU491
 1888              	.LBB1524:
 1889              		.loc 4 493 3 view .LVU492
 1890              		.syntax unified
 1891              	@ 493 "../ChibiOS/os/common/ext/ARM/CMSIS/Core/Include/cmsis_gcc.h" 1
 1892 0132 85F31188 		MSR basepri, r5
 1893              	@ 0 "" 2
 1894              	.LVL85:
 1895              		.loc 4 493 3 is_stmt 0 view .LVU493
 1896              		.thumb
 1897              		.syntax unified
 1898              	.LBE1524:
 1899              	.LBE1523:
 1900              	.LBE1525:
 1901              	.LBE1526:
 1902              	.LBE1527:
 1903              		.loc 1 268 5 is_stmt 1 view .LVU494
 1904 0136 B0FA80F0 		clz	r0, r0
 1905              	.LVL86:
 1906              		.loc 1 268 5 is_stmt 0 view .LVU495
 1907 013a 6549     		ldr	r1, .L43+28
ARM GAS  /tmp/ccTMtxXw.s 			page 35


 1908 013c 4009     		lsrs	r0, r0, #5
 1909 013e FFF7FEFF 		bl	__test_assert
 1910              	.LVL87:
 1911 0142 0546     		mov	r5, r0
 1912 0144 0028     		cmp	r0, #0
 1913 0146 7FF477AF 		bne	.L18
 1914              		.loc 1 268 57 is_stmt 1 view .LVU496
 1915              		.loc 1 270 3 view .LVU497
 1916              		.loc 1 270 19 view .LVU498
 1917              		.loc 1 274 3 view .LVU499
 1918 014a 4FF00409 		mov	r9, #4
 1919 014e C7F80090 		str	r9, [r7]
 1920              		.loc 1 276 5 view .LVU500
 1921              	.LBB1528:
 1922              	.LBI1528:
 1923              		.loc 6 573 20 view .LVU501
 1924              	.LBE1528:
 1925              	.LBE1733:
 1926              	.LBE1814:
 1927              		.loc 6 575 3 view .LVU502
 1928              	.LBB1815:
 1929              	.LBB1734:
 1930              	.LBB1536:
 1931              	.LBB1529:
 1932              	.LBI1529:
 1933              		.loc 2 407 20 view .LVU503
 1934              	.LBE1529:
 1935              	.LBE1536:
 1936              	.LBE1734:
 1937              	.LBE1815:
 1938              		.loc 2 409 3 view .LVU504
 1939              	.LBB1816:
 1940              	.LBB1735:
 1941              	.LBB1537:
 1942              	.LBB1534:
 1943              	.LBB1530:
 1944              	.LBI1530:
 1945              		.loc 3 806 27 view .LVU505
 1946              	.LBE1530:
 1947              	.LBE1534:
 1948              	.LBE1537:
 1949              	.LBE1735:
 1950              	.LBE1816:
 1951              		.loc 3 814 3 view .LVU506
 1952              	.LVL88:
 1953              	.LBB1817:
 1954              	.LBB1736:
 1955              	.LBB1538:
 1956              	.LBB1535:
 1957              	.LBB1533:
 1958              	.LBB1531:
 1959              	.LBI1531:
 1960              		.loc 4 491 27 view .LVU507
 1961              	.LBB1532:
 1962              		.loc 4 493 3 view .LVU508
 1963              		.syntax unified
 1964              	@ 493 "../ChibiOS/os/common/ext/ARM/CMSIS/Core/Include/cmsis_gcc.h" 1
ARM GAS  /tmp/ccTMtxXw.s 			page 36


 1965 0152 86F31188 		MSR basepri, r6
 1966              	@ 0 "" 2
 1967              	.LVL89:
 1968              		.loc 4 493 3 is_stmt 0 view .LVU509
 1969              		.thumb
 1970              		.syntax unified
 1971              	.LBE1532:
 1972              	.LBE1531:
 1973              	.LBE1533:
 1974              	.LBE1535:
 1975              	.LBE1538:
 1976              	.LBE1736:
 1977              	.LBE1817:
 1978              		.loc 2 410 35 is_stmt 1 view .LVU510
 1979              		.loc 2 411 21 view .LVU511
 1980              	.LBB1818:
 1981              	.LBB1737:
 1982              		.loc 1 276 5 view .LVU512
 1983              	.LBB1539:
 1984              	.LBI1539:
 1985              		.loc 5 167 22 view .LVU513
 1986              	.LBE1539:
 1987              	.LBE1737:
 1988              	.LBE1818:
 1989              		.loc 5 169 21 view .LVU514
 1990              		.loc 5 171 3 view .LVU515
 1991              	.LBB1819:
 1992              	.LBB1738:
 1993              	.LBB1546:
 1994              	.LBB1540:
 1995              	.LBI1540:
 1996              		.loc 5 136 22 view .LVU516
 1997              	.LBB1541:
 1998              		.loc 5 140 3 view .LVU517
 1999              		.loc 5 140 3 is_stmt 0 view .LVU518
 2000              	.LBE1541:
 2001              	.LBE1540:
 2002              	.LBB1543:
 2003              	.LBI1543:
 2004              		.loc 5 152 22 is_stmt 1 view .LVU519
 2005              	.LBB1544:
 2006              		.loc 5 154 21 view .LVU520
 2007              		.loc 5 156 3 view .LVU521
 2008              		.loc 5 156 3 is_stmt 0 view .LVU522
 2009              	.LBE1544:
 2010              	.LBE1543:
 2011              	.LBB1545:
 2012              	.LBB1542:
 2013              		.loc 5 140 28 view .LVU523
 2014 0156 D4E90023 		ldrd	r2, r3, [r4]
 2015 015a 9B1A     		subs	r3, r3, r2
 2016              	.LBE1542:
 2017              	.LBE1545:
 2018              	.LBE1546:
 2019              		.loc 1 276 5 view .LVU524
 2020 015c 2269     		ldr	r2, [r4, #16]
 2021 015e 5D49     		ldr	r1, .L43+32
ARM GAS  /tmp/ccTMtxXw.s 			page 37


 2022 0160 B2EBA30F 		cmp	r2, r3, asr #2
 2023 0164 0CBF     		ite	eq
 2024 0166 0120     		moveq	r0, #1
 2025 0168 0020     		movne	r0, #0
 2026 016a FFF7FEFF 		bl	__test_assert
 2027              	.LVL90:
 2028 016e 8046     		mov	r8, r0
 2029 0170 0028     		cmp	r0, #0
 2030 0172 94D1     		bne	.L41
 2031              		.loc 1 276 5 is_stmt 1 view .LVU525
 2032              	.LBB1547:
 2033              	.LBI1547:
 2034              		.loc 6 584 20 view .LVU526
 2035              	.LBE1547:
 2036              	.LBE1738:
 2037              	.LBE1819:
 2038              		.loc 6 586 3 view .LVU527
 2039              	.LBB1820:
 2040              	.LBB1739:
 2041              	.LBB1556:
 2042              	.LBB1548:
 2043              	.LBI1548:
 2044              		.loc 2 421 20 view .LVU528
 2045              	.LBB1549:
 2046              		.loc 2 423 23 view .LVU529
 2047              		.loc 2 424 34 view .LVU530
 2048              		.loc 2 430 3 view .LVU531
 2049              		.loc 2 430 3 view .LVU532
 2050              		.loc 2 430 3 view .LVU533
 2051              		.loc 2 434 3 view .LVU534
 2052              	.LBB1550:
 2053              	.LBI1550:
 2054              		.loc 3 830 27 view .LVU535
 2055              	.LBE1550:
 2056              	.LBE1549:
 2057              	.LBE1548:
 2058              	.LBE1556:
 2059              	.LBE1739:
 2060              	.LBE1820:
 2061              		.loc 3 833 3 view .LVU536
 2062              	.LVL91:
 2063              	.LBB1821:
 2064              	.LBB1740:
 2065              	.LBB1557:
 2066              	.LBB1555:
 2067              	.LBB1554:
 2068              	.LBB1553:
 2069              	.LBB1551:
 2070              	.LBI1551:
 2071              		.loc 4 491 27 view .LVU537
 2072              	.LBB1552:
 2073              		.loc 4 493 3 view .LVU538
 2074              		.syntax unified
 2075              	@ 493 "../ChibiOS/os/common/ext/ARM/CMSIS/Core/Include/cmsis_gcc.h" 1
 2076 0174 80F31188 		MSR basepri, r0
 2077              	@ 0 "" 2
 2078              	.LVL92:
ARM GAS  /tmp/ccTMtxXw.s 			page 38


 2079              		.loc 4 493 3 is_stmt 0 view .LVU539
 2080              		.thumb
 2081              		.syntax unified
 2082              	.LBE1552:
 2083              	.LBE1551:
 2084              	.LBE1553:
 2085              	.LBE1554:
 2086              	.LBE1555:
 2087              	.LBE1557:
 2088              		.loc 1 276 66 is_stmt 1 view .LVU540
 2089              		.loc 1 277 5 view .LVU541
 2090              	.LBB1558:
 2091              	.LBI1558:
 2092              		.loc 6 573 20 view .LVU542
 2093              	.LBE1558:
 2094              	.LBE1740:
 2095              	.LBE1821:
 2096              		.loc 6 575 3 view .LVU543
 2097              	.LBB1822:
 2098              	.LBB1741:
 2099              	.LBB1566:
 2100              	.LBB1559:
 2101              	.LBI1559:
 2102              		.loc 2 407 20 view .LVU544
 2103              	.LBE1559:
 2104              	.LBE1566:
 2105              	.LBE1741:
 2106              	.LBE1822:
 2107              		.loc 2 409 3 view .LVU545
 2108              	.LBB1823:
 2109              	.LBB1742:
 2110              	.LBB1567:
 2111              	.LBB1564:
 2112              	.LBB1560:
 2113              	.LBI1560:
 2114              		.loc 3 806 27 view .LVU546
 2115              	.LBE1560:
 2116              	.LBE1564:
 2117              	.LBE1567:
 2118              	.LBE1742:
 2119              	.LBE1823:
 2120              		.loc 3 814 3 view .LVU547
 2121              	.LBB1824:
 2122              	.LBB1743:
 2123              	.LBB1568:
 2124              	.LBB1565:
 2125              	.LBB1563:
 2126              	.LBB1561:
 2127              	.LBI1561:
 2128              		.loc 4 491 27 view .LVU548
 2129              	.LBB1562:
 2130              		.loc 4 493 3 view .LVU549
 2131              		.syntax unified
 2132              	@ 493 "../ChibiOS/os/common/ext/ARM/CMSIS/Core/Include/cmsis_gcc.h" 1
 2133 0178 86F31188 		MSR basepri, r6
 2134              	@ 0 "" 2
 2135              	.LVL93:
ARM GAS  /tmp/ccTMtxXw.s 			page 39


 2136              		.loc 4 493 3 is_stmt 0 view .LVU550
 2137              		.thumb
 2138              		.syntax unified
 2139              	.LBE1562:
 2140              	.LBE1561:
 2141              	.LBE1563:
 2142              	.LBE1565:
 2143              	.LBE1568:
 2144              	.LBE1743:
 2145              	.LBE1824:
 2146              		.loc 2 410 35 is_stmt 1 view .LVU551
 2147              		.loc 2 411 21 view .LVU552
 2148              	.LBB1825:
 2149              	.LBB1744:
 2150              		.loc 1 277 5 view .LVU553
 2151              	.LBB1569:
 2152              	.LBI1569:
 2153              		.loc 5 152 22 view .LVU554
 2154              	.LBB1570:
 2155              		.loc 5 154 21 view .LVU555
 2156              		.loc 5 156 3 view .LVU556
 2157              		.loc 5 156 3 is_stmt 0 view .LVU557
 2158              	.LBE1570:
 2159              	.LBE1569:
 2160              		.loc 1 277 5 view .LVU558
 2161 017c 2069     		ldr	r0, [r4, #16]
 2162 017e 5649     		ldr	r1, .L43+36
 2163 0180 A0F10400 		sub	r0, #4
 2164 0184 B0FA80F0 		clz	r0, r0
 2165 0188 4009     		lsrs	r0, r0, #5
 2166 018a FFF7FEFF 		bl	__test_assert
 2167              	.LVL94:
 2168 018e 0546     		mov	r5, r0
 2169 0190 0028     		cmp	r0, #0
 2170 0192 7FF47FAF 		bne	.L42
 2171              		.loc 1 277 5 is_stmt 1 view .LVU559
 2172              	.LBB1571:
 2173              	.LBI1571:
 2174              		.loc 6 584 20 view .LVU560
 2175              	.LBE1571:
 2176              	.LBE1744:
 2177              	.LBE1825:
 2178              		.loc 6 586 3 view .LVU561
 2179              	.LBB1826:
 2180              	.LBB1745:
 2181              	.LBB1580:
 2182              	.LBB1572:
 2183              	.LBI1572:
 2184              		.loc 2 421 20 view .LVU562
 2185              	.LBB1573:
 2186              		.loc 2 423 23 view .LVU563
 2187              		.loc 2 424 34 view .LVU564
 2188              		.loc 2 430 3 view .LVU565
 2189              		.loc 2 430 3 view .LVU566
 2190              		.loc 2 430 3 view .LVU567
 2191              		.loc 2 434 3 view .LVU568
 2192              	.LBB1574:
ARM GAS  /tmp/ccTMtxXw.s 			page 40


 2193              	.LBI1574:
 2194              		.loc 3 830 27 view .LVU569
 2195              	.LBE1574:
 2196              	.LBE1573:
 2197              	.LBE1572:
 2198              	.LBE1580:
 2199              	.LBE1745:
 2200              	.LBE1826:
 2201              		.loc 3 833 3 view .LVU570
 2202              	.LVL95:
 2203              	.LBB1827:
 2204              	.LBB1746:
 2205              	.LBB1581:
 2206              	.LBB1579:
 2207              	.LBB1578:
 2208              	.LBB1577:
 2209              	.LBB1575:
 2210              	.LBI1575:
 2211              		.loc 4 491 27 view .LVU571
 2212              	.LBB1576:
 2213              		.loc 4 493 3 view .LVU572
 2214              		.syntax unified
 2215              	@ 493 "../ChibiOS/os/common/ext/ARM/CMSIS/Core/Include/cmsis_gcc.h" 1
 2216 0196 80F31188 		MSR basepri, r0
 2217              	@ 0 "" 2
 2218              	.LVL96:
 2219              		.loc 4 493 3 is_stmt 0 view .LVU573
 2220              		.thumb
 2221              		.syntax unified
 2222              	.LBE1576:
 2223              	.LBE1575:
 2224              	.LBE1577:
 2225              	.LBE1578:
 2226              	.LBE1579:
 2227              	.LBE1581:
 2228              		.loc 1 277 69 is_stmt 1 view .LVU574
 2229              		.loc 1 278 5 view .LVU575
 2230              	.LBB1582:
 2231              	.LBI1582:
 2232              		.loc 6 573 20 view .LVU576
 2233              	.LBE1582:
 2234              	.LBE1746:
 2235              	.LBE1827:
 2236              		.loc 6 575 3 view .LVU577
 2237              	.LBB1828:
 2238              	.LBB1747:
 2239              	.LBB1590:
 2240              	.LBB1583:
 2241              	.LBI1583:
 2242              		.loc 2 407 20 view .LVU578
 2243              	.LBE1583:
 2244              	.LBE1590:
 2245              	.LBE1747:
 2246              	.LBE1828:
 2247              		.loc 2 409 3 view .LVU579
 2248              	.LBB1829:
 2249              	.LBB1748:
ARM GAS  /tmp/ccTMtxXw.s 			page 41


 2250              	.LBB1591:
 2251              	.LBB1588:
 2252              	.LBB1584:
 2253              	.LBI1584:
 2254              		.loc 3 806 27 view .LVU580
 2255              	.LBE1584:
 2256              	.LBE1588:
 2257              	.LBE1591:
 2258              	.LBE1748:
 2259              	.LBE1829:
 2260              		.loc 3 814 3 view .LVU581
 2261              	.LBB1830:
 2262              	.LBB1749:
 2263              	.LBB1592:
 2264              	.LBB1589:
 2265              	.LBB1587:
 2266              	.LBB1585:
 2267              	.LBI1585:
 2268              		.loc 4 491 27 view .LVU582
 2269              	.LBB1586:
 2270              		.loc 4 493 3 view .LVU583
 2271              		.syntax unified
 2272              	@ 493 "../ChibiOS/os/common/ext/ARM/CMSIS/Core/Include/cmsis_gcc.h" 1
 2273 019a 86F31188 		MSR basepri, r6
 2274              	@ 0 "" 2
 2275              	.LVL97:
 2276              		.loc 4 493 3 is_stmt 0 view .LVU584
 2277              		.thumb
 2278              		.syntax unified
 2279              	.LBE1586:
 2280              	.LBE1585:
 2281              	.LBE1587:
 2282              	.LBE1589:
 2283              	.LBE1592:
 2284              	.LBE1749:
 2285              	.LBE1830:
 2286              		.loc 2 410 35 is_stmt 1 view .LVU585
 2287              		.loc 2 411 21 view .LVU586
 2288              	.LBB1831:
 2289              	.LBB1750:
 2290              		.loc 1 278 5 view .LVU587
 2291 019e D4E90230 		ldrd	r3, r0, [r4, #8]
 2292 01a2 C01A     		subs	r0, r0, r3
 2293 01a4 B0FA80F0 		clz	r0, r0
 2294 01a8 4C49     		ldr	r1, .L43+40
 2295 01aa 4009     		lsrs	r0, r0, #5
 2296 01ac FFF7FEFF 		bl	__test_assert
 2297              	.LVL98:
 2298 01b0 0028     		cmp	r0, #0
 2299 01b2 7FF474AF 		bne	.L41
 2300              		.loc 1 278 5 view .LVU588
 2301              	.LBB1593:
 2302              	.LBI1593:
 2303              		.loc 6 584 20 view .LVU589
 2304              	.LBE1593:
 2305              	.LBE1750:
 2306              	.LBE1831:
ARM GAS  /tmp/ccTMtxXw.s 			page 42


 2307              		.loc 6 586 3 view .LVU590
 2308              	.LBB1832:
 2309              	.LBB1751:
 2310              	.LBB1602:
 2311              	.LBB1594:
 2312              	.LBI1594:
 2313              		.loc 2 421 20 view .LVU591
 2314              	.LBB1595:
 2315              		.loc 2 423 23 view .LVU592
 2316              		.loc 2 424 34 view .LVU593
 2317              		.loc 2 430 3 view .LVU594
 2318              		.loc 2 430 3 view .LVU595
 2319              		.loc 2 430 3 view .LVU596
 2320              		.loc 2 434 3 view .LVU597
 2321              	.LBB1596:
 2322              	.LBI1596:
 2323              		.loc 3 830 27 view .LVU598
 2324              	.LBE1596:
 2325              	.LBE1595:
 2326              	.LBE1594:
 2327              	.LBE1602:
 2328              	.LBE1751:
 2329              	.LBE1832:
 2330              		.loc 3 833 3 view .LVU599
 2331              	.LVL99:
 2332              	.LBB1833:
 2333              	.LBB1752:
 2334              	.LBB1603:
 2335              	.LBB1601:
 2336              	.LBB1600:
 2337              	.LBB1599:
 2338              	.LBB1597:
 2339              	.LBI1597:
 2340              		.loc 4 491 27 view .LVU600
 2341              	.LBB1598:
 2342              		.loc 4 493 3 view .LVU601
 2343              		.syntax unified
 2344              	@ 493 "../ChibiOS/os/common/ext/ARM/CMSIS/Core/Include/cmsis_gcc.h" 1
 2345 01b6 80F31188 		MSR basepri, r0
 2346              	@ 0 "" 2
 2347              	.LVL100:
 2348              		.loc 4 493 3 is_stmt 0 view .LVU602
 2349              		.thumb
 2350              		.syntax unified
 2351              	.LBE1598:
 2352              	.LBE1597:
 2353              	.LBE1599:
 2354              	.LBE1600:
 2355              	.LBE1601:
 2356              	.LBE1603:
 2357              		.loc 1 278 69 is_stmt 1 view .LVU603
 2358              		.loc 1 280 3 view .LVU604
 2359              		.loc 1 280 19 view .LVU605
 2360              		.loc 1 284 3 view .LVU606
 2361 01ba 0523     		movs	r3, #5
 2362              		.loc 1 288 14 is_stmt 0 view .LVU607
 2363 01bc DFF8F880 		ldr	r8, .L43+4
ARM GAS  /tmp/ccTMtxXw.s 			page 43


 2364              		.loc 1 290 7 view .LVU608
 2365 01c0 434E     		ldr	r6, .L43+28
 2366              		.loc 1 284 3 view .LVU609
 2367 01c2 3B60     		str	r3, [r7]
 2368              		.loc 1 286 5 is_stmt 1 view .LVU610
 2369              	.LVL101:
 2370              		.loc 1 286 17 view .LVU611
 2371              	.LBB1604:
 2372              	.LBB1605:
 2373              	.LBB1606:
 2374              	.LBB1607:
 2375              		.loc 4 493 3 is_stmt 0 view .LVU612
 2376 01c4 3025     		movs	r5, #48
 2377              	.LVL102:
 2378              	.L32:
 2379              		.loc 4 493 3 view .LVU613
 2380              	.LBE1607:
 2381              	.LBE1606:
 2382              	.LBE1605:
 2383              	.LBE1604:
 2384              		.loc 1 287 7 is_stmt 1 view .LVU614
 2385              	.LBB1612:
 2386              	.LBI1604:
 2387              		.loc 2 407 20 view .LVU615
 2388              	.LBE1612:
 2389              	.LBE1752:
 2390              	.LBE1833:
 2391              		.loc 2 409 3 view .LVU616
 2392              	.LBB1834:
 2393              	.LBB1753:
 2394              	.LBB1613:
 2395              	.LBB1610:
 2396              	.LBI1605:
 2397              		.loc 3 806 27 view .LVU617
 2398              	.LBE1610:
 2399              	.LBE1613:
 2400              	.LBE1753:
 2401              	.LBE1834:
 2402              		.loc 3 814 3 view .LVU618
 2403              	.LBB1835:
 2404              	.LBB1754:
 2405              	.LBB1614:
 2406              	.LBB1611:
 2407              	.LBB1609:
 2408              	.LBI1606:
 2409              		.loc 4 491 27 view .LVU619
 2410              	.LBB1608:
 2411              		.loc 4 493 3 view .LVU620
 2412              		.syntax unified
 2413              	@ 493 "../ChibiOS/os/common/ext/ARM/CMSIS/Core/Include/cmsis_gcc.h" 1
 2414 01c6 85F31188 		MSR basepri, r5
 2415              	@ 0 "" 2
 2416              	.LVL103:
 2417              		.loc 4 493 3 is_stmt 0 view .LVU621
 2418              		.thumb
 2419              		.syntax unified
 2420              	.LBE1608:
ARM GAS  /tmp/ccTMtxXw.s 			page 44


 2421              	.LBE1609:
 2422              	.LBE1611:
 2423              	.LBE1614:
 2424              	.LBE1754:
 2425              	.LBE1835:
 2426              		.loc 2 410 35 is_stmt 1 view .LVU622
 2427              		.loc 2 411 21 view .LVU623
 2428              	.LBB1836:
 2429              	.LBB1755:
 2430              		.loc 1 288 7 view .LVU624
 2431              		.loc 1 288 14 is_stmt 0 view .LVU625
 2432 01ca 01A9     		add	r1, sp, #4
 2433 01cc 4046     		mov	r0, r8
 2434 01ce FFF7FEFF 		bl	chMBFetchI
 2435              	.LVL104:
 2436              		.loc 1 289 7 is_stmt 1 view .LVU626
 2437              	.LBB1615:
 2438              	.LBI1615:
 2439              		.loc 2 421 20 view .LVU627
 2440              	.LBB1616:
 2441              		.loc 2 423 23 view .LVU628
 2442              		.loc 2 424 34 view .LVU629
 2443              		.loc 2 430 3 view .LVU630
 2444              		.loc 2 430 3 view .LVU631
 2445              		.loc 2 430 3 view .LVU632
 2446              		.loc 2 434 3 view .LVU633
 2447              	.LBB1617:
 2448              	.LBI1617:
 2449              		.loc 3 830 27 view .LVU634
 2450              	.LBE1617:
 2451              	.LBE1616:
 2452              	.LBE1615:
 2453              	.LBE1755:
 2454              	.LBE1836:
 2455              		.loc 3 833 3 view .LVU635
 2456              	.LBB1837:
 2457              	.LBB1756:
 2458              	.LBB1622:
 2459              	.LBB1621:
 2460              	.LBB1620:
 2461              	.LBB1618:
 2462              	.LBI1618:
 2463              		.loc 4 491 27 view .LVU636
 2464              	.LBB1619:
 2465              		.loc 4 493 3 view .LVU637
 2466 01d2 0023     		movs	r3, #0
 2467              		.syntax unified
 2468              	@ 493 "../ChibiOS/os/common/ext/ARM/CMSIS/Core/Include/cmsis_gcc.h" 1
 2469 01d4 83F31188 		MSR basepri, r3
 2470              	@ 0 "" 2
 2471              	.LVL105:
 2472              		.loc 4 493 3 is_stmt 0 view .LVU638
 2473              		.thumb
 2474              		.syntax unified
 2475              	.LBE1619:
 2476              	.LBE1618:
 2477              	.LBE1620:
ARM GAS  /tmp/ccTMtxXw.s 			page 45


 2478              	.LBE1621:
 2479              	.LBE1622:
 2480              		.loc 1 290 7 is_stmt 1 view .LVU639
 2481 01d8 B0FA80F0 		clz	r0, r0
 2482              	.LVL106:
 2483              		.loc 1 290 7 is_stmt 0 view .LVU640
 2484 01dc 4009     		lsrs	r0, r0, #5
 2485 01de 3146     		mov	r1, r6
 2486 01e0 FFF7FEFF 		bl	__test_assert
 2487              	.LVL107:
 2488              		.loc 1 290 59 is_stmt 1 view .LVU641
 2489              		.loc 1 291 7 view .LVU642
 2490              		.loc 1 290 7 is_stmt 0 view .LVU643
 2491 01e4 0028     		cmp	r0, #0
 2492 01e6 7FF427AF 		bne	.L18
 2493              		.loc 1 291 7 view .LVU644
 2494 01ea 9DF80400 		ldrb	r0, [sp, #4]	@ zero_extendqisi2
 2495 01ee FFF7FEFF 		bl	test_emit_token
 2496              	.LVL108:
 2497              		.loc 1 286 30 is_stmt 1 view .LVU645
 2498              		.loc 1 286 17 view .LVU646
 2499              		.loc 1 286 5 is_stmt 0 view .LVU647
 2500 01f2 B9F10109 		subs	r9, r9, #1
 2501              	.LVL109:
 2502              		.loc 1 286 5 view .LVU648
 2503 01f6 E6D1     		bne	.L32
 2504              		.loc 1 293 5 is_stmt 1 view .LVU649
 2505 01f8 3949     		ldr	r1, .L43+44
 2506 01fa 3A48     		ldr	r0, .L43+48
 2507 01fc FFF7FEFF 		bl	__test_assert_sequence
 2508              	.LVL110:
 2509 0200 0028     		cmp	r0, #0
 2510 0202 7FF419AF 		bne	.L18
 2511              		.loc 1 293 55 view .LVU650
 2512              		.loc 1 295 3 view .LVU651
 2513              		.loc 1 295 19 view .LVU652
 2514              		.loc 1 299 3 view .LVU653
 2515              		.loc 1 301 12 is_stmt 0 view .LVU654
 2516 0206 4621     		movs	r1, #70
 2517              		.loc 1 299 3 view .LVU655
 2518 0208 0623     		movs	r3, #6
 2519              		.loc 1 301 12 view .LVU656
 2520 020a 2B48     		ldr	r0, .L43+4
 2521              		.loc 1 299 3 view .LVU657
 2522 020c 3B60     		str	r3, [r7]
 2523              		.loc 1 301 5 is_stmt 1 view .LVU658
 2524              		.loc 1 301 12 is_stmt 0 view .LVU659
 2525 020e 4FF0FF32 		mov	r2, #-1
 2526 0212 FFF7FEFF 		bl	chMBPostTimeout
 2527              	.LVL111:
 2528              		.loc 1 302 5 is_stmt 1 view .LVU660
 2529 0216 B0FA80F0 		clz	r0, r0
 2530              	.LVL112:
 2531              		.loc 1 302 5 is_stmt 0 view .LVU661
 2532 021a 2D49     		ldr	r1, .L43+28
 2533 021c 4009     		lsrs	r0, r0, #5
 2534 021e FFF7FEFF 		bl	__test_assert
ARM GAS  /tmp/ccTMtxXw.s 			page 46


 2535              	.LVL113:
 2536 0222 0028     		cmp	r0, #0
 2537 0224 7FF408AF 		bne	.L18
 2538              		.loc 1 302 57 is_stmt 1 view .LVU662
 2539              		.loc 1 303 5 view .LVU663
 2540              		.loc 1 303 12 is_stmt 0 view .LVU664
 2541 0228 01A9     		add	r1, sp, #4
 2542 022a 2348     		ldr	r0, .L43+4
 2543 022c 4FF0FF32 		mov	r2, #-1
 2544 0230 FFF7FEFF 		bl	chMBFetchTimeout
 2545              	.LVL114:
 2546              		.loc 1 304 5 is_stmt 1 view .LVU665
 2547 0234 B0FA80F0 		clz	r0, r0
 2548              	.LVL115:
 2549              		.loc 1 304 5 is_stmt 0 view .LVU666
 2550 0238 2549     		ldr	r1, .L43+28
 2551 023a 4009     		lsrs	r0, r0, #5
 2552 023c FFF7FEFF 		bl	__test_assert
 2553              	.LVL116:
 2554 0240 0028     		cmp	r0, #0
 2555 0242 7FF4F9AE 		bne	.L18
 2556              		.loc 1 304 57 is_stmt 1 view .LVU667
 2557              		.loc 1 306 3 view .LVU668
 2558              		.loc 1 306 19 view .LVU669
 2559              		.loc 1 310 3 view .LVU670
 2560 0246 0723     		movs	r3, #7
 2561 0248 3B60     		str	r3, [r7]
 2562              		.loc 1 312 5 view .LVU671
 2563              	.LBB1623:
 2564              	.LBI1623:
 2565              		.loc 6 573 20 view .LVU672
 2566              	.LBE1623:
 2567              	.LBE1756:
 2568              	.LBE1837:
 2569              		.loc 6 575 3 view .LVU673
 2570              	.LBB1838:
 2571              	.LBB1757:
 2572              	.LBB1631:
 2573              	.LBB1624:
 2574              	.LBI1624:
 2575              		.loc 2 407 20 view .LVU674
 2576              	.LBE1624:
 2577              	.LBE1631:
 2578              	.LBE1757:
 2579              	.LBE1838:
 2580              		.loc 2 409 3 view .LVU675
 2581              	.LBB1839:
 2582              	.LBB1758:
 2583              	.LBB1632:
 2584              	.LBB1629:
 2585              	.LBB1625:
 2586              	.LBI1625:
 2587              		.loc 3 806 27 view .LVU676
 2588              	.LBE1625:
 2589              	.LBE1629:
 2590              	.LBE1632:
 2591              	.LBE1758:
ARM GAS  /tmp/ccTMtxXw.s 			page 47


 2592              	.LBE1839:
 2593              		.loc 3 814 3 view .LVU677
 2594              	.LVL117:
 2595              	.LBB1840:
 2596              	.LBB1759:
 2597              	.LBB1633:
 2598              	.LBB1630:
 2599              	.LBB1628:
 2600              	.LBB1626:
 2601              	.LBI1626:
 2602              		.loc 4 491 27 view .LVU678
 2603              	.LBB1627:
 2604              		.loc 4 493 3 view .LVU679
 2605              		.syntax unified
 2606              	@ 493 "../ChibiOS/os/common/ext/ARM/CMSIS/Core/Include/cmsis_gcc.h" 1
 2607 024a 85F31188 		MSR basepri, r5
 2608              	@ 0 "" 2
 2609              	.LVL118:
 2610              		.loc 4 493 3 is_stmt 0 view .LVU680
 2611              		.thumb
 2612              		.syntax unified
 2613              	.LBE1627:
 2614              	.LBE1626:
 2615              	.LBE1628:
 2616              	.LBE1630:
 2617              	.LBE1633:
 2618              	.LBE1759:
 2619              	.LBE1840:
 2620              		.loc 2 410 35 is_stmt 1 view .LVU681
 2621              		.loc 2 411 21 view .LVU682
 2622              	.LBB1841:
 2623              	.LBB1760:
 2624              		.loc 1 312 5 view .LVU683
 2625              	.LBB1634:
 2626              	.LBI1634:
 2627              		.loc 5 167 22 view .LVU684
 2628              	.LBB1635:
 2629              		.loc 5 169 21 view .LVU685
 2630              		.loc 5 171 3 view .LVU686
 2631              	.LBB1636:
 2632              	.LBI1636:
 2633              		.loc 5 136 22 view .LVU687
 2634              	.LBB1637:
 2635              		.loc 5 140 3 view .LVU688
 2636              		.loc 5 140 3 is_stmt 0 view .LVU689
 2637              	.LBE1637:
 2638              	.LBE1636:
 2639              	.LBB1639:
 2640              	.LBI1639:
 2641              		.loc 5 152 22 is_stmt 1 view .LVU690
 2642              	.LBB1640:
 2643              		.loc 5 154 21 view .LVU691
 2644              		.loc 5 156 3 view .LVU692
 2645              		.loc 5 156 3 is_stmt 0 view .LVU693
 2646              	.LBE1640:
 2647              	.LBE1639:
 2648              	.LBB1641:
ARM GAS  /tmp/ccTMtxXw.s 			page 48


 2649              	.LBB1638:
 2650              		.loc 5 140 28 view .LVU694
 2651 024e D4E90023 		ldrd	r2, r3, [r4]
 2652 0252 9A1A     		subs	r2, r3, r2
 2653              	.LBE1638:
 2654              	.LBE1641:
 2655              		.loc 5 171 28 view .LVU695
 2656 0254 2369     		ldr	r3, [r4, #16]
 2657              	.LBE1635:
 2658              	.LBE1634:
 2659              		.loc 1 312 5 view .LVU696
 2660 0256 1A49     		ldr	r1, .L43+12
 2661              	.LBB1643:
 2662              	.LBB1642:
 2663              		.loc 5 171 28 view .LVU697
 2664 0258 C3EBA203 		rsb	r3, r3, r2, asr #2
 2665              	.LBE1642:
 2666              	.LBE1643:
 2667              		.loc 1 312 5 view .LVU698
 2668 025c 1E1F     		subs	r6, r3, #4
 2669 025e 7042     		rsbs	r0, r6, #0
 2670 0260 7041     		adcs	r0, r0, r6
 2671 0262 FFF7FEFF 		bl	__test_assert
 2672              	.LVL119:
 2673 0266 08BB     		cbnz	r0, .L40
 2674              		.loc 1 312 5 is_stmt 1 view .LVU699
 2675              	.LBB1644:
 2676              	.LBI1644:
 2677              		.loc 6 584 20 view .LVU700
 2678              	.LBE1644:
 2679              	.LBE1760:
 2680              	.LBE1841:
 2681              		.loc 6 586 3 view .LVU701
 2682              	.LBB1842:
 2683              	.LBB1761:
 2684              	.LBB1653:
 2685              	.LBB1645:
 2686              	.LBI1645:
 2687              		.loc 2 421 20 view .LVU702
 2688              	.LBB1646:
 2689              		.loc 2 423 23 view .LVU703
 2690              		.loc 2 424 34 view .LVU704
 2691              		.loc 2 430 3 view .LVU705
 2692              		.loc 2 430 3 view .LVU706
 2693              		.loc 2 430 3 view .LVU707
 2694              		.loc 2 434 3 view .LVU708
 2695              	.LBB1647:
 2696              	.LBI1647:
 2697              		.loc 3 830 27 view .LVU709
 2698              	.LBE1647:
 2699              	.LBE1646:
 2700              	.LBE1645:
 2701              	.LBE1653:
 2702              	.LBE1761:
 2703              	.LBE1842:
 2704              		.loc 3 833 3 view .LVU710
 2705              	.LVL120:
ARM GAS  /tmp/ccTMtxXw.s 			page 49


 2706              	.LBB1843:
 2707              	.LBB1762:
 2708              	.LBB1654:
 2709              	.LBB1652:
 2710              	.LBB1651:
 2711              	.LBB1650:
 2712              	.LBB1648:
 2713              	.LBI1648:
 2714              		.loc 4 491 27 view .LVU711
 2715              	.LBB1649:
 2716              		.loc 4 493 3 view .LVU712
 2717              		.syntax unified
 2718              	@ 493 "../ChibiOS/os/common/ext/ARM/CMSIS/Core/Include/cmsis_gcc.h" 1
 2719 0268 89F31188 		MSR basepri, r9
 2720              	@ 0 "" 2
 2721              	.LVL121:
 2722              		.loc 4 493 3 is_stmt 0 view .LVU713
 2723              		.thumb
 2724              		.syntax unified
 2725              	.LBE1649:
 2726              	.LBE1648:
 2727              	.LBE1650:
 2728              	.LBE1651:
 2729              	.LBE1652:
 2730              	.LBE1654:
 2731              		.loc 1 312 70 is_stmt 1 view .LVU714
 2732              		.loc 1 313 5 view .LVU715
 2733              	.LBB1655:
 2734              	.LBI1655:
 2735              		.loc 6 573 20 view .LVU716
 2736              	.LBE1655:
 2737              	.LBE1762:
 2738              	.LBE1843:
 2739              		.loc 6 575 3 view .LVU717
 2740              	.LBB1844:
 2741              	.LBB1763:
 2742              	.LBB1663:
 2743              	.LBB1656:
 2744              	.LBI1656:
 2745              		.loc 2 407 20 view .LVU718
 2746              	.LBE1656:
 2747              	.LBE1663:
 2748              	.LBE1763:
 2749              	.LBE1844:
 2750              		.loc 2 409 3 view .LVU719
 2751              	.LBB1845:
 2752              	.LBB1764:
 2753              	.LBB1664:
 2754              	.LBB1661:
 2755              	.LBB1657:
 2756              	.LBI1657:
 2757              		.loc 3 806 27 view .LVU720
 2758              	.LBE1657:
 2759              	.LBE1661:
 2760              	.LBE1664:
 2761              	.LBE1764:
 2762              	.LBE1845:
ARM GAS  /tmp/ccTMtxXw.s 			page 50


 2763              		.loc 3 814 3 view .LVU721
 2764              	.LBB1846:
 2765              	.LBB1765:
 2766              	.LBB1665:
 2767              	.LBB1662:
 2768              	.LBB1660:
 2769              	.LBB1658:
 2770              	.LBI1658:
 2771              		.loc 4 491 27 view .LVU722
 2772              	.LBB1659:
 2773              		.loc 4 493 3 view .LVU723
 2774              		.syntax unified
 2775              	@ 493 "../ChibiOS/os/common/ext/ARM/CMSIS/Core/Include/cmsis_gcc.h" 1
 2776 026c 85F31188 		MSR basepri, r5
 2777              	@ 0 "" 2
 2778              	.LVL122:
 2779              		.loc 4 493 3 is_stmt 0 view .LVU724
 2780              		.thumb
 2781              		.syntax unified
 2782              	.LBE1659:
 2783              	.LBE1658:
 2784              	.LBE1660:
 2785              	.LBE1662:
 2786              	.LBE1665:
 2787              	.LBE1765:
 2788              	.LBE1846:
 2789              		.loc 2 410 35 is_stmt 1 view .LVU725
 2790              		.loc 2 411 21 view .LVU726
 2791              	.LBB1847:
 2792              	.LBB1766:
 2793              		.loc 1 313 5 view .LVU727
 2794              	.LBB1666:
 2795              	.LBI1666:
 2796              		.loc 5 152 22 view .LVU728
 2797              	.LBB1667:
 2798              		.loc 5 154 21 view .LVU729
 2799              		.loc 5 156 3 view .LVU730
 2800              		.loc 5 156 3 is_stmt 0 view .LVU731
 2801              	.LBE1667:
 2802              	.LBE1666:
 2803              		.loc 1 313 5 view .LVU732
 2804 0270 2069     		ldr	r0, [r4, #16]
 2805 0272 1449     		ldr	r1, .L43+16
 2806 0274 B0FA80F0 		clz	r0, r0
 2807 0278 4009     		lsrs	r0, r0, #5
 2808 027a FFF7FEFF 		bl	__test_assert
 2809              	.LVL123:
 2810 027e A8B9     		cbnz	r0, .L40
 2811              		.loc 1 313 5 is_stmt 1 view .LVU733
 2812              	.LBB1668:
 2813              	.LBI1668:
 2814              		.loc 6 584 20 view .LVU734
 2815              	.LBE1668:
 2816              	.LBE1766:
 2817              	.LBE1847:
 2818              		.loc 6 586 3 view .LVU735
 2819              	.LBB1848:
ARM GAS  /tmp/ccTMtxXw.s 			page 51


 2820              	.LBB1767:
 2821              	.LBB1677:
 2822              	.LBB1669:
 2823              	.LBI1669:
 2824              		.loc 2 421 20 view .LVU736
 2825              	.LBB1670:
 2826              		.loc 2 423 23 view .LVU737
 2827              		.loc 2 424 34 view .LVU738
 2828              		.loc 2 430 3 view .LVU739
 2829              		.loc 2 430 3 view .LVU740
 2830              		.loc 2 430 3 view .LVU741
 2831              		.loc 2 434 3 view .LVU742
 2832              	.LBB1671:
 2833              	.LBI1671:
 2834              		.loc 3 830 27 view .LVU743
 2835              	.LBE1671:
 2836              	.LBE1670:
 2837              	.LBE1669:
 2838              	.LBE1677:
 2839              	.LBE1767:
 2840              	.LBE1848:
 2841              		.loc 3 833 3 view .LVU744
 2842              	.LVL124:
 2843              	.LBB1849:
 2844              	.LBB1768:
 2845              	.LBB1678:
 2846              	.LBB1676:
 2847              	.LBB1675:
 2848              	.LBB1674:
 2849              	.LBB1672:
 2850              	.LBI1672:
 2851              		.loc 4 491 27 view .LVU745
 2852              	.LBB1673:
 2853              		.loc 4 493 3 view .LVU746
 2854              		.syntax unified
 2855              	@ 493 "../ChibiOS/os/common/ext/ARM/CMSIS/Core/Include/cmsis_gcc.h" 1
 2856 0280 89F31188 		MSR basepri, r9
 2857              	@ 0 "" 2
 2858              	.LVL125:
 2859              		.loc 4 493 3 is_stmt 0 view .LVU747
 2860              		.thumb
 2861              		.syntax unified
 2862              	.LBE1673:
 2863              	.LBE1672:
 2864              	.LBE1674:
 2865              	.LBE1675:
 2866              	.LBE1676:
 2867              	.LBE1678:
 2868              		.loc 1 313 65 is_stmt 1 view .LVU748
 2869              		.loc 1 314 5 view .LVU749
 2870 0284 2068     		ldr	r0, [r4]
 2871 0286 A368     		ldr	r3, [r4, #8]
 2872 0288 0F49     		ldr	r1, .L43+20
 2873 028a C21A     		subs	r2, r0, r3
 2874 028c 5042     		rsbs	r0, r2, #0
 2875 028e 5041     		adcs	r0, r0, r2
 2876 0290 FFF7FEFF 		bl	__test_assert
ARM GAS  /tmp/ccTMtxXw.s 			page 52


 2877              	.LVL126:
 2878 0294 0028     		cmp	r0, #0
 2879 0296 7FF4CFAE 		bne	.L18
 2880              		.loc 1 314 78 view .LVU750
 2881              		.loc 1 315 5 view .LVU751
 2882 029a 2068     		ldr	r0, [r4]
 2883 029c E368     		ldr	r3, [r4, #12]
 2884 029e 0B49     		ldr	r1, .L43+24
 2885 02a0 C31A     		subs	r3, r0, r3
 2886 02a2 5842     		rsbs	r0, r3, #0
 2887 02a4 5841     		adcs	r0, r0, r3
 2888 02a6 FFF7FEFF 		bl	__test_assert
 2889              	.LVL127:
 2890              		.loc 1 315 5 view .LVU752
 2891              		.loc 1 315 5 is_stmt 0 view .LVU753
 2892 02aa C5E6     		b	.L18
 2893              	.LVL128:
 2894              	.L40:
 2895              		.loc 1 313 5 is_stmt 1 view .LVU754
 2896              	.LBB1679:
 2897              	.LBI1679:
 2898              		.loc 6 584 20 view .LVU755
 2899              	.LBE1679:
 2900              	.LBE1768:
 2901              	.LBE1849:
 2902              		.loc 6 586 3 view .LVU756
 2903              	.LBB1850:
 2904              	.LBB1769:
 2905              	.LBB1688:
 2906              	.LBB1680:
 2907              	.LBI1680:
 2908              		.loc 2 421 20 view .LVU757
 2909              	.LBB1681:
 2910              		.loc 2 423 23 view .LVU758
 2911              		.loc 2 424 34 view .LVU759
 2912              		.loc 2 430 3 view .LVU760
 2913              		.loc 2 430 3 view .LVU761
 2914              		.loc 2 430 3 view .LVU762
 2915              		.loc 2 434 3 view .LVU763
 2916              	.LBB1682:
 2917              	.LBI1682:
 2918              		.loc 3 830 27 view .LVU764
 2919              	.LBE1682:
 2920              	.LBE1681:
 2921              	.LBE1680:
 2922              	.LBE1688:
 2923              	.LBE1769:
 2924              	.LBE1850:
 2925              		.loc 3 833 3 view .LVU765
 2926              	.LBB1851:
 2927              	.LBB1770:
 2928              	.LBB1689:
 2929              	.LBB1687:
 2930              	.LBB1686:
 2931              	.LBB1685:
 2932              	.LBB1683:
 2933              	.LBI1683:
ARM GAS  /tmp/ccTMtxXw.s 			page 53


 2934              		.loc 4 491 27 view .LVU766
 2935              	.LBB1684:
 2936              		.loc 4 493 3 view .LVU767
 2937              		.syntax unified
 2938              	@ 493 "../ChibiOS/os/common/ext/ARM/CMSIS/Core/Include/cmsis_gcc.h" 1
 2939 02ac 89F31188 		MSR basepri, r9
 2940              	@ 0 "" 2
 2941              	.LVL129:
 2942              		.loc 4 493 3 is_stmt 0 view .LVU768
 2943              		.thumb
 2944              		.syntax unified
 2945              	.LBE1684:
 2946              	.LBE1683:
 2947              	.LBE1685:
 2948              	.LBE1686:
 2949              	.LBE1687:
 2950              	.LBE1689:
 2951              		.loc 1 313 5 is_stmt 1 view .LVU769
 2952 02b0 C2E6     		b	.L18
 2953              	.L44:
 2954 02b2 00BF     		.align	2
 2955              	.L43:
 2956 02b4 00000000 		.word	chtest
 2957 02b8 00000000 		.word	.LANCHOR0
 2958 02bc 00000000 		.word	.LC1
 2959 02c0 0C000000 		.word	.LC2
 2960 02c4 18000000 		.word	.LC3
 2961 02c8 24000000 		.word	.LC4
 2962 02cc 48000000 		.word	.LC5
 2963 02d0 00000000 		.word	.LC0
 2964 02d4 6C000000 		.word	.LC6
 2965 02d8 78000000 		.word	.LC7
 2966 02dc 84000000 		.word	.LC8
 2967 02e0 9C000000 		.word	.LC9
 2968 02e4 B0000000 		.word	.LC10
 2969              	.LBE1770:
 2970              	.LBE1851:
 2971              		.cfi_endproc
 2972              	.LFE409:
 2973              		.size	oslib_test_002_002_execute, .-oslib_test_002_002_execute
 2974              		.section	.rodata.oslib_test_002_001_execute.str1.4,"aMS",%progbits,1
 2975              		.align	2
 2976              	.LC11:
 2977 0000 6E6F7420 		.ascii	"not in reset state\000"
 2977      696E2072 
 2977      65736574 
 2977      20737461 
 2977      746500
 2978              		.section	.text.oslib_test_002_001_execute,"ax",%progbits
 2979              		.align	1
 2980              		.p2align 4,,15
 2981              		.syntax unified
 2982              		.thumb
 2983              		.thumb_func
 2984              		.fpu softvfp
 2985              		.type	oslib_test_002_001_execute, %function
 2986              	oslib_test_002_001_execute:
ARM GAS  /tmp/ccTMtxXw.s 			page 54


 2987              	.LFB406:
 2988              		.loc 1 94 46 view -0
 2989              		.cfi_startproc
 2990              		@ args = 0, pretend = 0, frame = 8
 2991              		@ frame_needed = 0, uses_anonymous_args = 0
 2992              		.loc 1 95 3 view .LVU771
 2993              		.loc 1 96 3 view .LVU772
 2994              		.loc 1 99 3 view .LVU773
 2995              		.loc 1 94 46 is_stmt 0 view .LVU774
 2996 0000 2DE9F041 		push	{r4, r5, r6, r7, r8, lr}
 2997              		.cfi_def_cfa_offset 24
 2998              		.cfi_offset 4, -24
 2999              		.cfi_offset 5, -20
 3000              		.cfi_offset 6, -16
 3001              		.cfi_offset 7, -12
 3002              		.cfi_offset 8, -8
 3003              		.cfi_offset 14, -4
 3004              		.loc 1 99 3 view .LVU775
 3005 0004 BE4F     		ldr	r7, .L68
 3006 0006 0123     		movs	r3, #1
 3007              		.loc 1 94 46 view .LVU776
 3008 0008 82B0     		sub	sp, sp, #8
 3009              		.cfi_def_cfa_offset 32
 3010              		.loc 1 99 3 view .LVU777
 3011 000a 3B60     		str	r3, [r7]
 3012              		.loc 1 101 5 is_stmt 1 view .LVU778
 3013              	.LBB2073:
 3014              	.LBI2073:
 3015              		.loc 6 573 20 view .LVU779
 3016              	.LBE2073:
 3017              		.loc 6 575 3 view .LVU780
 3018              	.LBB2081:
 3019              	.LBB2074:
 3020              	.LBI2074:
 3021              		.loc 2 407 20 view .LVU781
 3022              	.LBE2074:
 3023              	.LBE2081:
 3024              		.loc 2 409 3 view .LVU782
 3025              	.LBB2082:
 3026              	.LBB2079:
 3027              	.LBB2075:
 3028              	.LBI2075:
 3029              		.loc 3 806 27 view .LVU783
 3030              	.LBE2075:
 3031              	.LBE2079:
 3032              	.LBE2082:
 3033              		.loc 3 814 3 view .LVU784
 3034              	.LVL130:
 3035              	.LBB2083:
 3036              	.LBB2080:
 3037              	.LBB2078:
 3038              	.LBB2076:
 3039              	.LBI2076:
 3040              		.loc 4 491 27 view .LVU785
 3041              	.LBB2077:
 3042              		.loc 4 493 3 view .LVU786
 3043 000c 3026     		movs	r6, #48
ARM GAS  /tmp/ccTMtxXw.s 			page 55


 3044              		.syntax unified
 3045              	@ 493 "../ChibiOS/os/common/ext/ARM/CMSIS/Core/Include/cmsis_gcc.h" 1
 3046 000e 86F31188 		MSR basepri, r6
 3047              	@ 0 "" 2
 3048              	.LVL131:
 3049              		.loc 4 493 3 is_stmt 0 view .LVU787
 3050              		.thumb
 3051              		.syntax unified
 3052              	.LBE2077:
 3053              	.LBE2076:
 3054              	.LBE2078:
 3055              	.LBE2080:
 3056              	.LBE2083:
 3057              		.loc 2 410 35 is_stmt 1 view .LVU788
 3058              		.loc 2 411 21 view .LVU789
 3059              		.loc 1 101 5 view .LVU790
 3060              	.LBB2084:
 3061              	.LBI2084:
 3062              		.loc 5 167 22 view .LVU791
 3063              	.LBB2085:
 3064              		.loc 5 169 21 view .LVU792
 3065              		.loc 5 171 3 view .LVU793
 3066              	.LBB2086:
 3067              	.LBI2086:
 3068              		.loc 5 136 22 view .LVU794
 3069              	.LBB2087:
 3070              		.loc 5 140 3 view .LVU795
 3071              		.loc 5 140 3 is_stmt 0 view .LVU796
 3072              	.LBE2087:
 3073              	.LBE2086:
 3074              	.LBB2090:
 3075              	.LBI2090:
 3076              		.loc 5 152 22 is_stmt 1 view .LVU797
 3077              	.LBB2091:
 3078              		.loc 5 154 21 view .LVU798
 3079              		.loc 5 156 3 view .LVU799
 3080              		.loc 5 156 3 is_stmt 0 view .LVU800
 3081              	.LBE2091:
 3082              	.LBE2090:
 3083              	.LBB2092:
 3084              	.LBB2088:
 3085              		.loc 5 140 22 view .LVU801
 3086 0012 BC4C     		ldr	r4, .L68+4
 3087              	.LBE2088:
 3088              	.LBE2092:
 3089              	.LBE2085:
 3090              	.LBE2084:
 3091              		.loc 1 101 5 view .LVU802
 3092 0014 BC49     		ldr	r1, .L68+8
 3093              	.LBB2095:
 3094              	.LBB2094:
 3095              	.LBB2093:
 3096              	.LBB2089:
 3097              		.loc 5 140 28 view .LVU803
 3098 0016 D4E90030 		ldrd	r3, r0, [r4]
 3099 001a C31A     		subs	r3, r0, r3
 3100              	.LBE2089:
ARM GAS  /tmp/ccTMtxXw.s 			page 56


 3101              	.LBE2093:
 3102              		.loc 5 171 28 view .LVU804
 3103 001c 2069     		ldr	r0, [r4, #16]
 3104 001e C0EBA300 		rsb	r0, r0, r3, asr #2
 3105              	.LBE2094:
 3106              	.LBE2095:
 3107              		.loc 1 101 5 view .LVU805
 3108 0022 A0F10400 		sub	r0, #4
 3109 0026 B0FA80F0 		clz	r0, r0
 3110 002a 4009     		lsrs	r0, r0, #5
 3111 002c FFF7FEFF 		bl	__test_assert
 3112              	.LVL132:
 3113 0030 28B1     		cbz	r0, .L46
 3114              		.loc 1 101 5 is_stmt 1 view .LVU806
 3115              	.LBB2096:
 3116              	.LBI2096:
 3117              		.loc 6 584 20 view .LVU807
 3118              	.LBE2096:
 3119              		.loc 6 586 3 view .LVU808
 3120              	.LBB2105:
 3121              	.LBB2097:
 3122              	.LBI2097:
 3123              		.loc 2 421 20 view .LVU809
 3124              	.LBB2098:
 3125              		.loc 2 423 23 view .LVU810
 3126              		.loc 2 424 34 view .LVU811
 3127              		.loc 2 430 3 view .LVU812
 3128              		.loc 2 430 3 view .LVU813
 3129              		.loc 2 430 3 view .LVU814
 3130              		.loc 2 434 3 view .LVU815
 3131              	.LBB2099:
 3132              	.LBI2099:
 3133              		.loc 3 830 27 view .LVU816
 3134              	.LBE2099:
 3135              	.LBE2098:
 3136              	.LBE2097:
 3137              	.LBE2105:
 3138              		.loc 3 833 3 view .LVU817
 3139              	.LVL133:
 3140              	.LBB2106:
 3141              	.LBB2104:
 3142              	.LBB2103:
 3143              	.LBB2102:
 3144              	.LBB2100:
 3145              	.LBI2100:
 3146              		.loc 4 491 27 view .LVU818
 3147              	.LBB2101:
 3148              		.loc 4 493 3 view .LVU819
 3149 0032 0023     		movs	r3, #0
 3150              		.syntax unified
 3151              	@ 493 "../ChibiOS/os/common/ext/ARM/CMSIS/Core/Include/cmsis_gcc.h" 1
 3152 0034 83F31188 		MSR basepri, r3
 3153              	@ 0 "" 2
 3154              	.LVL134:
 3155              		.loc 4 493 3 is_stmt 0 view .LVU820
 3156              		.thumb
 3157              		.syntax unified
ARM GAS  /tmp/ccTMtxXw.s 			page 57


 3158              	.LBE2101:
 3159              	.LBE2100:
 3160              	.LBE2102:
 3161              	.LBE2103:
 3162              	.LBE2104:
 3163              	.LBE2106:
 3164              		.loc 1 101 5 is_stmt 1 view .LVU821
 3165              	.L45:
 3166              		.loc 1 188 1 is_stmt 0 view .LVU822
 3167 0038 02B0     		add	sp, sp, #8
 3168              		.cfi_remember_state
 3169              		.cfi_def_cfa_offset 24
 3170              		@ sp needed
 3171 003a BDE8F081 		pop	{r4, r5, r6, r7, r8, pc}
 3172              	.L46:
 3173              		.cfi_restore_state
 3174              	.LBB2107:
 3175              	.LBI2107:
 3176              		.loc 1 94 13 is_stmt 1 view .LVU823
 3177              	.LBB2108:
 3178              		.loc 1 101 5 view .LVU824
 3179              	.LBB2109:
 3180              	.LBI2109:
 3181              		.loc 6 584 20 view .LVU825
 3182              	.LBE2109:
 3183              	.LBE2108:
 3184              	.LBE2107:
 3185              		.loc 6 586 3 view .LVU826
 3186              	.LBB2454:
 3187              	.LBB2389:
 3188              	.LBB2118:
 3189              	.LBB2110:
 3190              	.LBI2110:
 3191              		.loc 2 421 20 view .LVU827
 3192              	.LBB2111:
 3193              		.loc 2 423 23 view .LVU828
 3194              		.loc 2 424 34 view .LVU829
 3195              		.loc 2 430 3 view .LVU830
 3196              		.loc 2 430 3 view .LVU831
 3197              		.loc 2 430 3 view .LVU832
 3198              		.loc 2 434 3 view .LVU833
 3199              	.LBB2112:
 3200              	.LBI2112:
 3201              		.loc 3 830 27 view .LVU834
 3202              	.LBE2112:
 3203              	.LBE2111:
 3204              	.LBE2110:
 3205              	.LBE2118:
 3206              	.LBE2389:
 3207              	.LBE2454:
 3208              		.loc 3 833 3 view .LVU835
 3209              	.LVL135:
 3210              	.LBB2455:
 3211              	.LBB2390:
 3212              	.LBB2119:
 3213              	.LBB2117:
 3214              	.LBB2116:
ARM GAS  /tmp/ccTMtxXw.s 			page 58


 3215              	.LBB2115:
 3216              	.LBB2113:
 3217              	.LBI2113:
 3218              		.loc 4 491 27 view .LVU836
 3219              	.LBB2114:
 3220              		.loc 4 493 3 view .LVU837
 3221 003e 0546     		mov	r5, r0
 3222              		.syntax unified
 3223              	@ 493 "../ChibiOS/os/common/ext/ARM/CMSIS/Core/Include/cmsis_gcc.h" 1
 3224 0040 80F31188 		MSR basepri, r0
 3225              	@ 0 "" 2
 3226              	.LVL136:
 3227              		.loc 4 493 3 is_stmt 0 view .LVU838
 3228              		.thumb
 3229              		.syntax unified
 3230              	.LBE2114:
 3231              	.LBE2113:
 3232              	.LBE2115:
 3233              	.LBE2116:
 3234              	.LBE2117:
 3235              	.LBE2119:
 3236              		.loc 1 101 71 is_stmt 1 view .LVU839
 3237              		.loc 1 103 3 view .LVU840
 3238              		.loc 1 103 19 view .LVU841
 3239              		.loc 1 107 3 view .LVU842
 3240 0044 0223     		movs	r3, #2
 3241              		.loc 1 109 5 is_stmt 0 view .LVU843
 3242 0046 2046     		mov	r0, r4
 3243              		.loc 1 107 3 view .LVU844
 3244 0048 3B60     		str	r3, [r7]
 3245              		.loc 1 109 5 is_stmt 1 view .LVU845
 3246 004a FFF7FEFF 		bl	chMBReset
 3247              	.LVL137:
 3248              		.loc 1 110 5 view .LVU846
 3249              	.LBB2120:
 3250              	.LBI2120:
 3251              		.loc 6 573 20 view .LVU847
 3252              	.LBE2120:
 3253              	.LBE2390:
 3254              	.LBE2455:
 3255              		.loc 6 575 3 view .LVU848
 3256              	.LBB2456:
 3257              	.LBB2391:
 3258              	.LBB2128:
 3259              	.LBB2121:
 3260              	.LBI2121:
 3261              		.loc 2 407 20 view .LVU849
 3262              	.LBE2121:
 3263              	.LBE2128:
 3264              	.LBE2391:
 3265              	.LBE2456:
 3266              		.loc 2 409 3 view .LVU850
 3267              	.LBB2457:
 3268              	.LBB2392:
 3269              	.LBB2129:
 3270              	.LBB2126:
 3271              	.LBB2122:
ARM GAS  /tmp/ccTMtxXw.s 			page 59


 3272              	.LBI2122:
 3273              		.loc 3 806 27 view .LVU851
 3274              	.LBE2122:
 3275              	.LBE2126:
 3276              	.LBE2129:
 3277              	.LBE2392:
 3278              	.LBE2457:
 3279              		.loc 3 814 3 view .LVU852
 3280              	.LBB2458:
 3281              	.LBB2393:
 3282              	.LBB2130:
 3283              	.LBB2127:
 3284              	.LBB2125:
 3285              	.LBB2123:
 3286              	.LBI2123:
 3287              		.loc 4 491 27 view .LVU853
 3288              	.LBB2124:
 3289              		.loc 4 493 3 view .LVU854
 3290              		.syntax unified
 3291              	@ 493 "../ChibiOS/os/common/ext/ARM/CMSIS/Core/Include/cmsis_gcc.h" 1
 3292 004e 86F31188 		MSR basepri, r6
 3293              	@ 0 "" 2
 3294              	.LVL138:
 3295              		.loc 4 493 3 is_stmt 0 view .LVU855
 3296              		.thumb
 3297              		.syntax unified
 3298              	.LBE2124:
 3299              	.LBE2123:
 3300              	.LBE2125:
 3301              	.LBE2127:
 3302              	.LBE2130:
 3303              	.LBE2393:
 3304              	.LBE2458:
 3305              		.loc 2 410 35 is_stmt 1 view .LVU856
 3306              		.loc 2 411 21 view .LVU857
 3307              	.LBB2459:
 3308              	.LBB2394:
 3309              		.loc 1 110 5 view .LVU858
 3310              	.LBB2131:
 3311              	.LBI2131:
 3312              		.loc 5 167 22 view .LVU859
 3313              	.LBB2132:
 3314              		.loc 5 169 21 view .LVU860
 3315              		.loc 5 171 3 view .LVU861
 3316              	.LBB2133:
 3317              	.LBI2133:
 3318              		.loc 5 136 22 view .LVU862
 3319              	.LBB2134:
 3320              		.loc 5 140 3 view .LVU863
 3321              		.loc 5 140 3 is_stmt 0 view .LVU864
 3322              	.LBE2134:
 3323              	.LBE2133:
 3324              	.LBB2136:
 3325              	.LBI2136:
 3326              		.loc 5 152 22 is_stmt 1 view .LVU865
 3327              	.LBB2137:
 3328              		.loc 5 154 21 view .LVU866
ARM GAS  /tmp/ccTMtxXw.s 			page 60


 3329              		.loc 5 156 3 view .LVU867
 3330              		.loc 5 156 3 is_stmt 0 view .LVU868
 3331              	.LBE2137:
 3332              	.LBE2136:
 3333              	.LBB2138:
 3334              	.LBB2135:
 3335              		.loc 5 140 28 view .LVU869
 3336 0052 D4E90030 		ldrd	r3, r0, [r4]
 3337 0056 C31A     		subs	r3, r0, r3
 3338              	.LBE2135:
 3339              	.LBE2138:
 3340              		.loc 5 171 28 view .LVU870
 3341 0058 2069     		ldr	r0, [r4, #16]
 3342              	.LBE2132:
 3343              	.LBE2131:
 3344              		.loc 1 110 5 view .LVU871
 3345 005a AC49     		ldr	r1, .L68+12
 3346              	.LBB2140:
 3347              	.LBB2139:
 3348              		.loc 5 171 28 view .LVU872
 3349 005c C0EBA300 		rsb	r0, r0, r3, asr #2
 3350              	.LBE2139:
 3351              	.LBE2140:
 3352              		.loc 1 110 5 view .LVU873
 3353 0060 A0F10400 		sub	r0, #4
 3354 0064 B0FA80F0 		clz	r0, r0
 3355 0068 4009     		lsrs	r0, r0, #5
 3356 006a FFF7FEFF 		bl	__test_assert
 3357              	.LVL139:
 3358 006e 8046     		mov	r8, r0
 3359 0070 88B9     		cbnz	r0, .L67
 3360              		.loc 1 110 5 is_stmt 1 view .LVU874
 3361              	.LBB2141:
 3362              	.LBI2141:
 3363              		.loc 6 584 20 view .LVU875
 3364              	.LBE2141:
 3365              	.LBE2394:
 3366              	.LBE2459:
 3367              		.loc 6 586 3 view .LVU876
 3368              	.LBB2460:
 3369              	.LBB2395:
 3370              	.LBB2150:
 3371              	.LBB2142:
 3372              	.LBI2142:
 3373              		.loc 2 421 20 view .LVU877
 3374              	.LBB2143:
 3375              		.loc 2 423 23 view .LVU878
 3376              		.loc 2 424 34 view .LVU879
 3377              		.loc 2 430 3 view .LVU880
 3378              		.loc 2 430 3 view .LVU881
 3379              		.loc 2 430 3 view .LVU882
 3380              		.loc 2 434 3 view .LVU883
 3381              	.LBB2144:
 3382              	.LBI2144:
 3383              		.loc 3 830 27 view .LVU884
 3384              	.LBE2144:
 3385              	.LBE2143:
ARM GAS  /tmp/ccTMtxXw.s 			page 61


 3386              	.LBE2142:
 3387              	.LBE2150:
 3388              	.LBE2395:
 3389              	.LBE2460:
 3390              		.loc 3 833 3 view .LVU885
 3391              	.LVL140:
 3392              	.LBB2461:
 3393              	.LBB2396:
 3394              	.LBB2151:
 3395              	.LBB2149:
 3396              	.LBB2148:
 3397              	.LBB2147:
 3398              	.LBB2145:
 3399              	.LBI2145:
 3400              		.loc 4 491 27 view .LVU886
 3401              	.LBB2146:
 3402              		.loc 4 493 3 view .LVU887
 3403              		.syntax unified
 3404              	@ 493 "../ChibiOS/os/common/ext/ARM/CMSIS/Core/Include/cmsis_gcc.h" 1
 3405 0072 80F31188 		MSR basepri, r0
 3406              	@ 0 "" 2
 3407              	.LVL141:
 3408              		.loc 4 493 3 is_stmt 0 view .LVU888
 3409              		.thumb
 3410              		.syntax unified
 3411              	.LBE2146:
 3412              	.LBE2145:
 3413              	.LBE2147:
 3414              	.LBE2148:
 3415              	.LBE2149:
 3416              	.LBE2151:
 3417              		.loc 1 110 70 is_stmt 1 view .LVU889
 3418              		.loc 1 111 5 view .LVU890
 3419              	.LBB2152:
 3420              	.LBI2152:
 3421              		.loc 6 573 20 view .LVU891
 3422              	.LBE2152:
 3423              	.LBE2396:
 3424              	.LBE2461:
 3425              		.loc 6 575 3 view .LVU892
 3426              	.LBB2462:
 3427              	.LBB2397:
 3428              	.LBB2160:
 3429              	.LBB2153:
 3430              	.LBI2153:
 3431              		.loc 2 407 20 view .LVU893
 3432              	.LBE2153:
 3433              	.LBE2160:
 3434              	.LBE2397:
 3435              	.LBE2462:
 3436              		.loc 2 409 3 view .LVU894
 3437              	.LBB2463:
 3438              	.LBB2398:
 3439              	.LBB2161:
 3440              	.LBB2158:
 3441              	.LBB2154:
 3442              	.LBI2154:
ARM GAS  /tmp/ccTMtxXw.s 			page 62


 3443              		.loc 3 806 27 view .LVU895
 3444              	.LBE2154:
 3445              	.LBE2158:
 3446              	.LBE2161:
 3447              	.LBE2398:
 3448              	.LBE2463:
 3449              		.loc 3 814 3 view .LVU896
 3450              	.LBB2464:
 3451              	.LBB2399:
 3452              	.LBB2162:
 3453              	.LBB2159:
 3454              	.LBB2157:
 3455              	.LBB2155:
 3456              	.LBI2155:
 3457              		.loc 4 491 27 view .LVU897
 3458              	.LBB2156:
 3459              		.loc 4 493 3 view .LVU898
 3460              		.syntax unified
 3461              	@ 493 "../ChibiOS/os/common/ext/ARM/CMSIS/Core/Include/cmsis_gcc.h" 1
 3462 0076 86F31188 		MSR basepri, r6
 3463              	@ 0 "" 2
 3464              	.LVL142:
 3465              		.loc 4 493 3 is_stmt 0 view .LVU899
 3466              		.thumb
 3467              		.syntax unified
 3468              	.LBE2156:
 3469              	.LBE2155:
 3470              	.LBE2157:
 3471              	.LBE2159:
 3472              	.LBE2162:
 3473              	.LBE2399:
 3474              	.LBE2464:
 3475              		.loc 2 410 35 is_stmt 1 view .LVU900
 3476              		.loc 2 411 21 view .LVU901
 3477              	.LBB2465:
 3478              	.LBB2400:
 3479              		.loc 1 111 5 view .LVU902
 3480              	.LBB2163:
 3481              	.LBI2163:
 3482              		.loc 5 152 22 view .LVU903
 3483              	.LBB2164:
 3484              		.loc 5 154 21 view .LVU904
 3485              		.loc 5 156 3 view .LVU905
 3486              		.loc 5 156 3 is_stmt 0 view .LVU906
 3487              	.LBE2164:
 3488              	.LBE2163:
 3489              		.loc 1 111 5 view .LVU907
 3490 007a 2069     		ldr	r0, [r4, #16]
 3491 007c A449     		ldr	r1, .L68+16
 3492 007e B0FA80F0 		clz	r0, r0
 3493 0082 4009     		lsrs	r0, r0, #5
 3494 0084 FFF7FEFF 		bl	__test_assert
 3495              	.LVL143:
 3496 0088 0546     		mov	r5, r0
 3497 008a 48B1     		cbz	r0, .L50
 3498              	.L66:
 3499              		.loc 1 113 5 is_stmt 1 view .LVU908
ARM GAS  /tmp/ccTMtxXw.s 			page 63


 3500              	.LBB2165:
 3501              	.LBI2165:
 3502              		.loc 6 584 20 view .LVU909
 3503              	.LBE2165:
 3504              	.LBE2400:
 3505              	.LBE2465:
 3506              		.loc 6 586 3 view .LVU910
 3507              	.LBB2466:
 3508              	.LBB2401:
 3509              	.LBB2174:
 3510              	.LBB2166:
 3511              	.LBI2166:
 3512              		.loc 2 421 20 view .LVU911
 3513              	.LBB2167:
 3514              		.loc 2 423 23 view .LVU912
 3515              		.loc 2 424 34 view .LVU913
 3516              		.loc 2 430 3 view .LVU914
 3517              		.loc 2 430 3 view .LVU915
 3518              		.loc 2 430 3 view .LVU916
 3519              		.loc 2 434 3 view .LVU917
 3520              	.LBB2168:
 3521              	.LBI2168:
 3522              		.loc 3 830 27 view .LVU918
 3523              	.LBE2168:
 3524              	.LBE2167:
 3525              	.LBE2166:
 3526              	.LBE2174:
 3527              	.LBE2401:
 3528              	.LBE2466:
 3529              		.loc 3 833 3 view .LVU919
 3530              	.LVL144:
 3531              	.LBB2467:
 3532              	.LBB2402:
 3533              	.LBB2175:
 3534              	.LBB2173:
 3535              	.LBB2172:
 3536              	.LBB2171:
 3537              	.LBB2169:
 3538              	.LBI2169:
 3539              		.loc 4 491 27 view .LVU920
 3540              	.LBB2170:
 3541              		.loc 4 493 3 view .LVU921
 3542              		.syntax unified
 3543              	@ 493 "../ChibiOS/os/common/ext/ARM/CMSIS/Core/Include/cmsis_gcc.h" 1
 3544 008c 88F31188 		MSR basepri, r8
 3545              	@ 0 "" 2
 3546              	.LVL145:
 3547              		.loc 4 493 3 is_stmt 0 view .LVU922
 3548              		.thumb
 3549              		.syntax unified
 3550              	.LBE2170:
 3551              	.LBE2169:
 3552              	.LBE2171:
 3553              	.LBE2172:
 3554              	.LBE2173:
 3555              	.LBE2175:
 3556              		.loc 1 113 5 is_stmt 1 view .LVU923
ARM GAS  /tmp/ccTMtxXw.s 			page 64


 3557              	.LBE2402:
 3558              	.LBE2467:
 3559              		.loc 1 188 1 is_stmt 0 view .LVU924
 3560 0090 02B0     		add	sp, sp, #8
 3561              		.cfi_remember_state
 3562              		.cfi_def_cfa_offset 24
 3563              		@ sp needed
 3564 0092 BDE8F081 		pop	{r4, r5, r6, r7, r8, pc}
 3565              	.L67:
 3566              		.cfi_restore_state
 3567              	.LBB2468:
 3568              	.LBB2403:
 3569              		.loc 1 183 5 is_stmt 1 view .LVU925
 3570              	.LBB2176:
 3571              	.LBI2176:
 3572              		.loc 6 584 20 view .LVU926
 3573              	.LBE2176:
 3574              	.LBE2403:
 3575              	.LBE2468:
 3576              		.loc 6 586 3 view .LVU927
 3577              	.LBB2469:
 3578              	.LBB2404:
 3579              	.LBB2185:
 3580              	.LBB2177:
 3581              	.LBI2177:
 3582              		.loc 2 421 20 view .LVU928
 3583              	.LBB2178:
 3584              		.loc 2 423 23 view .LVU929
 3585              		.loc 2 424 34 view .LVU930
 3586              		.loc 2 430 3 view .LVU931
 3587              		.loc 2 430 3 view .LVU932
 3588              		.loc 2 430 3 view .LVU933
 3589              		.loc 2 434 3 view .LVU934
 3590              	.LBB2179:
 3591              	.LBI2179:
 3592              		.loc 3 830 27 view .LVU935
 3593              	.LBE2179:
 3594              	.LBE2178:
 3595              	.LBE2177:
 3596              	.LBE2185:
 3597              	.LBE2404:
 3598              	.LBE2469:
 3599              		.loc 3 833 3 view .LVU936
 3600              	.LVL146:
 3601              	.LBB2470:
 3602              	.LBB2405:
 3603              	.LBB2186:
 3604              	.LBB2184:
 3605              	.LBB2183:
 3606              	.LBB2182:
 3607              	.LBB2180:
 3608              	.LBI2180:
 3609              		.loc 4 491 27 view .LVU937
 3610              	.LBB2181:
 3611              		.loc 4 493 3 view .LVU938
 3612              		.syntax unified
 3613              	@ 493 "../ChibiOS/os/common/ext/ARM/CMSIS/Core/Include/cmsis_gcc.h" 1
ARM GAS  /tmp/ccTMtxXw.s 			page 65


 3614 0096 85F31188 		MSR basepri, r5
 3615              	@ 0 "" 2
 3616              	.LVL147:
 3617              		.loc 4 493 3 is_stmt 0 view .LVU939
 3618              		.thumb
 3619              		.syntax unified
 3620              	.LBE2181:
 3621              	.LBE2180:
 3622              	.LBE2182:
 3623              	.LBE2183:
 3624              	.LBE2184:
 3625              	.LBE2186:
 3626              		.loc 1 183 5 is_stmt 1 view .LVU940
 3627              	.LBE2405:
 3628              	.LBE2470:
 3629              		.loc 1 188 1 is_stmt 0 view .LVU941
 3630 009a 02B0     		add	sp, sp, #8
 3631              		.cfi_remember_state
 3632              		.cfi_def_cfa_offset 24
 3633              		@ sp needed
 3634 009c BDE8F081 		pop	{r4, r5, r6, r7, r8, pc}
 3635              	.L50:
 3636              		.cfi_restore_state
 3637              	.LBB2471:
 3638              	.LBB2406:
 3639              		.loc 1 111 5 is_stmt 1 view .LVU942
 3640              	.LBB2187:
 3641              	.LBI2187:
 3642              		.loc 6 584 20 view .LVU943
 3643              	.LBE2187:
 3644              	.LBE2406:
 3645              	.LBE2471:
 3646              		.loc 6 586 3 view .LVU944
 3647              	.LBB2472:
 3648              	.LBB2407:
 3649              	.LBB2196:
 3650              	.LBB2188:
 3651              	.LBI2188:
 3652              		.loc 2 421 20 view .LVU945
 3653              	.LBB2189:
 3654              		.loc 2 423 23 view .LVU946
 3655              		.loc 2 424 34 view .LVU947
 3656              		.loc 2 430 3 view .LVU948
 3657              		.loc 2 430 3 view .LVU949
 3658              		.loc 2 430 3 view .LVU950
 3659              		.loc 2 434 3 view .LVU951
 3660              	.LBB2190:
 3661              	.LBI2190:
 3662              		.loc 3 830 27 view .LVU952
 3663              	.LBE2190:
 3664              	.LBE2189:
 3665              	.LBE2188:
 3666              	.LBE2196:
 3667              	.LBE2407:
 3668              	.LBE2472:
 3669              		.loc 3 833 3 view .LVU953
 3670              	.LVL148:
ARM GAS  /tmp/ccTMtxXw.s 			page 66


 3671              	.LBB2473:
 3672              	.LBB2408:
 3673              	.LBB2197:
 3674              	.LBB2195:
 3675              	.LBB2194:
 3676              	.LBB2193:
 3677              	.LBB2191:
 3678              	.LBI2191:
 3679              		.loc 4 491 27 view .LVU954
 3680              	.LBB2192:
 3681              		.loc 4 493 3 view .LVU955
 3682              		.syntax unified
 3683              	@ 493 "../ChibiOS/os/common/ext/ARM/CMSIS/Core/Include/cmsis_gcc.h" 1
 3684 00a0 80F31188 		MSR basepri, r0
 3685              	@ 0 "" 2
 3686              	.LVL149:
 3687              		.loc 4 493 3 is_stmt 0 view .LVU956
 3688              		.thumb
 3689              		.syntax unified
 3690              	.LBE2192:
 3691              	.LBE2191:
 3692              	.LBE2193:
 3693              	.LBE2194:
 3694              	.LBE2195:
 3695              	.LBE2197:
 3696              		.loc 1 111 65 is_stmt 1 view .LVU957
 3697              		.loc 1 112 5 view .LVU958
 3698              	.LBB2198:
 3699              	.LBI2198:
 3700              		.loc 6 573 20 view .LVU959
 3701              	.LBE2198:
 3702              	.LBE2408:
 3703              	.LBE2473:
 3704              		.loc 6 575 3 view .LVU960
 3705              	.LBB2474:
 3706              	.LBB2409:
 3707              	.LBB2206:
 3708              	.LBB2199:
 3709              	.LBI2199:
 3710              		.loc 2 407 20 view .LVU961
 3711              	.LBE2199:
 3712              	.LBE2206:
 3713              	.LBE2409:
 3714              	.LBE2474:
 3715              		.loc 2 409 3 view .LVU962
 3716              	.LBB2475:
 3717              	.LBB2410:
 3718              	.LBB2207:
 3719              	.LBB2204:
 3720              	.LBB2200:
 3721              	.LBI2200:
 3722              		.loc 3 806 27 view .LVU963
 3723              	.LBE2200:
 3724              	.LBE2204:
 3725              	.LBE2207:
 3726              	.LBE2410:
 3727              	.LBE2475:
ARM GAS  /tmp/ccTMtxXw.s 			page 67


 3728              		.loc 3 814 3 view .LVU964
 3729              	.LBB2476:
 3730              	.LBB2411:
 3731              	.LBB2208:
 3732              	.LBB2205:
 3733              	.LBB2203:
 3734              	.LBB2201:
 3735              	.LBI2201:
 3736              		.loc 4 491 27 view .LVU965
 3737              	.LBB2202:
 3738              		.loc 4 493 3 view .LVU966
 3739              		.syntax unified
 3740              	@ 493 "../ChibiOS/os/common/ext/ARM/CMSIS/Core/Include/cmsis_gcc.h" 1
 3741 00a4 86F31188 		MSR basepri, r6
 3742              	@ 0 "" 2
 3743              	.LVL150:
 3744              		.loc 4 493 3 is_stmt 0 view .LVU967
 3745              		.thumb
 3746              		.syntax unified
 3747              	.LBE2202:
 3748              	.LBE2201:
 3749              	.LBE2203:
 3750              	.LBE2205:
 3751              	.LBE2208:
 3752              	.LBE2411:
 3753              	.LBE2476:
 3754              		.loc 2 410 35 is_stmt 1 view .LVU968
 3755              		.loc 2 411 21 view .LVU969
 3756              	.LBB2477:
 3757              	.LBB2412:
 3758              		.loc 1 112 5 view .LVU970
 3759 00a8 2068     		ldr	r0, [r4]
 3760 00aa A368     		ldr	r3, [r4, #8]
 3761 00ac 9949     		ldr	r1, .L68+20
 3762 00ae C01A     		subs	r0, r0, r3
 3763 00b0 B0FA80F0 		clz	r0, r0
 3764 00b4 4009     		lsrs	r0, r0, #5
 3765 00b6 FFF7FEFF 		bl	__test_assert
 3766              	.LVL151:
 3767 00ba 8046     		mov	r8, r0
 3768 00bc 0028     		cmp	r0, #0
 3769 00be EAD1     		bne	.L67
 3770              		.loc 1 112 5 view .LVU971
 3771              	.LBB2209:
 3772              	.LBI2209:
 3773              		.loc 6 584 20 view .LVU972
 3774              	.LBE2209:
 3775              	.LBE2412:
 3776              	.LBE2477:
 3777              		.loc 6 586 3 view .LVU973
 3778              	.LBB2478:
 3779              	.LBB2413:
 3780              	.LBB2218:
 3781              	.LBB2210:
 3782              	.LBI2210:
 3783              		.loc 2 421 20 view .LVU974
 3784              	.LBB2211:
ARM GAS  /tmp/ccTMtxXw.s 			page 68


 3785              		.loc 2 423 23 view .LVU975
 3786              		.loc 2 424 34 view .LVU976
 3787              		.loc 2 430 3 view .LVU977
 3788              		.loc 2 430 3 view .LVU978
 3789              		.loc 2 430 3 view .LVU979
 3790              		.loc 2 434 3 view .LVU980
 3791              	.LBB2212:
 3792              	.LBI2212:
 3793              		.loc 3 830 27 view .LVU981
 3794              	.LBE2212:
 3795              	.LBE2211:
 3796              	.LBE2210:
 3797              	.LBE2218:
 3798              	.LBE2413:
 3799              	.LBE2478:
 3800              		.loc 3 833 3 view .LVU982
 3801              	.LVL152:
 3802              	.LBB2479:
 3803              	.LBB2414:
 3804              	.LBB2219:
 3805              	.LBB2217:
 3806              	.LBB2216:
 3807              	.LBB2215:
 3808              	.LBB2213:
 3809              	.LBI2213:
 3810              		.loc 4 491 27 view .LVU983
 3811              	.LBB2214:
 3812              		.loc 4 493 3 view .LVU984
 3813              		.syntax unified
 3814              	@ 493 "../ChibiOS/os/common/ext/ARM/CMSIS/Core/Include/cmsis_gcc.h" 1
 3815 00c0 80F31188 		MSR basepri, r0
 3816              	@ 0 "" 2
 3817              	.LVL153:
 3818              		.loc 4 493 3 is_stmt 0 view .LVU985
 3819              		.thumb
 3820              		.syntax unified
 3821              	.LBE2214:
 3822              	.LBE2213:
 3823              	.LBE2215:
 3824              	.LBE2216:
 3825              	.LBE2217:
 3826              	.LBE2219:
 3827              		.loc 1 112 83 is_stmt 1 view .LVU986
 3828              		.loc 1 113 5 view .LVU987
 3829              	.LBB2220:
 3830              	.LBI2220:
 3831              		.loc 6 573 20 view .LVU988
 3832              	.LBE2220:
 3833              	.LBE2414:
 3834              	.LBE2479:
 3835              		.loc 6 575 3 view .LVU989
 3836              	.LBB2480:
 3837              	.LBB2415:
 3838              	.LBB2228:
 3839              	.LBB2221:
 3840              	.LBI2221:
 3841              		.loc 2 407 20 view .LVU990
ARM GAS  /tmp/ccTMtxXw.s 			page 69


 3842              	.LBE2221:
 3843              	.LBE2228:
 3844              	.LBE2415:
 3845              	.LBE2480:
 3846              		.loc 2 409 3 view .LVU991
 3847              	.LBB2481:
 3848              	.LBB2416:
 3849              	.LBB2229:
 3850              	.LBB2226:
 3851              	.LBB2222:
 3852              	.LBI2222:
 3853              		.loc 3 806 27 view .LVU992
 3854              	.LBE2222:
 3855              	.LBE2226:
 3856              	.LBE2229:
 3857              	.LBE2416:
 3858              	.LBE2481:
 3859              		.loc 3 814 3 view .LVU993
 3860              	.LBB2482:
 3861              	.LBB2417:
 3862              	.LBB2230:
 3863              	.LBB2227:
 3864              	.LBB2225:
 3865              	.LBB2223:
 3866              	.LBI2223:
 3867              		.loc 4 491 27 view .LVU994
 3868              	.LBB2224:
 3869              		.loc 4 493 3 view .LVU995
 3870              		.syntax unified
 3871              	@ 493 "../ChibiOS/os/common/ext/ARM/CMSIS/Core/Include/cmsis_gcc.h" 1
 3872 00c4 86F31188 		MSR basepri, r6
 3873              	@ 0 "" 2
 3874              	.LVL154:
 3875              		.loc 4 493 3 is_stmt 0 view .LVU996
 3876              		.thumb
 3877              		.syntax unified
 3878              	.LBE2224:
 3879              	.LBE2223:
 3880              	.LBE2225:
 3881              	.LBE2227:
 3882              	.LBE2230:
 3883              	.LBE2417:
 3884              	.LBE2482:
 3885              		.loc 2 410 35 is_stmt 1 view .LVU997
 3886              		.loc 2 411 21 view .LVU998
 3887              	.LBB2483:
 3888              	.LBB2418:
 3889              		.loc 1 113 5 view .LVU999
 3890 00c8 2068     		ldr	r0, [r4]
 3891 00ca E368     		ldr	r3, [r4, #12]
 3892 00cc 9249     		ldr	r1, .L68+24
 3893 00ce C01A     		subs	r0, r0, r3
 3894 00d0 B0FA80F0 		clz	r0, r0
 3895 00d4 4009     		lsrs	r0, r0, #5
 3896 00d6 FFF7FEFF 		bl	__test_assert
 3897              	.LVL155:
 3898 00da 0028     		cmp	r0, #0
ARM GAS  /tmp/ccTMtxXw.s 			page 70


 3899 00dc D6D1     		bne	.L66
 3900              		.loc 1 113 5 view .LVU1000
 3901              	.LBB2231:
 3902              	.LBI2231:
 3903              		.loc 6 584 20 view .LVU1001
 3904              	.LBE2231:
 3905              	.LBE2418:
 3906              	.LBE2483:
 3907              		.loc 6 586 3 view .LVU1002
 3908              	.LBB2484:
 3909              	.LBB2419:
 3910              	.LBB2240:
 3911              	.LBB2232:
 3912              	.LBI2232:
 3913              		.loc 2 421 20 view .LVU1003
 3914              	.LBB2233:
 3915              		.loc 2 423 23 view .LVU1004
 3916              		.loc 2 424 34 view .LVU1005
 3917              		.loc 2 430 3 view .LVU1006
 3918              		.loc 2 430 3 view .LVU1007
 3919              		.loc 2 430 3 view .LVU1008
 3920              		.loc 2 434 3 view .LVU1009
 3921              	.LBB2234:
 3922              	.LBI2234:
 3923              		.loc 3 830 27 view .LVU1010
 3924              	.LBE2234:
 3925              	.LBE2233:
 3926              	.LBE2232:
 3927              	.LBE2240:
 3928              	.LBE2419:
 3929              	.LBE2484:
 3930              		.loc 3 833 3 view .LVU1011
 3931              	.LVL156:
 3932              	.LBB2485:
 3933              	.LBB2420:
 3934              	.LBB2241:
 3935              	.LBB2239:
 3936              	.LBB2238:
 3937              	.LBB2237:
 3938              	.LBB2235:
 3939              	.LBI2235:
 3940              		.loc 4 491 27 view .LVU1012
 3941              	.LBB2236:
 3942              		.loc 4 493 3 view .LVU1013
 3943              		.syntax unified
 3944              	@ 493 "../ChibiOS/os/common/ext/ARM/CMSIS/Core/Include/cmsis_gcc.h" 1
 3945 00de 80F31188 		MSR basepri, r0
 3946              	@ 0 "" 2
 3947              	.LVL157:
 3948              		.loc 4 493 3 is_stmt 0 view .LVU1014
 3949              		.thumb
 3950              		.syntax unified
 3951              	.LBE2236:
 3952              	.LBE2235:
 3953              	.LBE2237:
 3954              	.LBE2238:
 3955              	.LBE2239:
ARM GAS  /tmp/ccTMtxXw.s 			page 71


 3956              	.LBE2241:
 3957              		.loc 1 113 82 is_stmt 1 view .LVU1015
 3958              		.loc 1 115 3 view .LVU1016
 3959              		.loc 1 115 19 view .LVU1017
 3960              		.loc 1 119 3 view .LVU1018
 3961 00e2 0323     		movs	r3, #3
 3962              		.loc 1 121 12 is_stmt 0 view .LVU1019
 3963 00e4 0146     		mov	r1, r0
 3964 00e6 4FF0FF32 		mov	r2, #-1
 3965 00ea 2046     		mov	r0, r4
 3966              		.loc 1 119 3 view .LVU1020
 3967 00ec 3B60     		str	r3, [r7]
 3968              		.loc 1 121 5 is_stmt 1 view .LVU1021
 3969              		.loc 1 121 12 is_stmt 0 view .LVU1022
 3970 00ee FFF7FEFF 		bl	chMBPostTimeout
 3971              	.LVL158:
 3972              		.loc 1 122 5 is_stmt 1 view .LVU1023
 3973 00f2 851C     		adds	r5, r0, #2
 3974 00f4 14BF     		ite	ne
 3975 00f6 0020     		movne	r0, #0
 3976              	.LVL159:
 3977              		.loc 1 122 5 is_stmt 0 view .LVU1024
 3978 00f8 0120     		moveq	r0, #1
 3979 00fa 8849     		ldr	r1, .L68+28
 3980 00fc FFF7FEFF 		bl	__test_assert
 3981              	.LVL160:
 3982 0100 0028     		cmp	r0, #0
 3983 0102 99D1     		bne	.L45
 3984              		.loc 1 122 57 is_stmt 1 view .LVU1025
 3985              		.loc 1 123 5 view .LVU1026
 3986              		.loc 1 123 12 is_stmt 0 view .LVU1027
 3987 0104 0146     		mov	r1, r0
 3988 0106 4FF0FF32 		mov	r2, #-1
 3989 010a 2046     		mov	r0, r4
 3990 010c FFF7FEFF 		bl	chMBPostAheadTimeout
 3991              	.LVL161:
 3992              		.loc 1 124 5 is_stmt 1 view .LVU1028
 3993 0110 821C     		adds	r2, r0, #2
 3994 0112 14BF     		ite	ne
 3995 0114 0020     		movne	r0, #0
 3996              	.LVL162:
 3997              		.loc 1 124 5 is_stmt 0 view .LVU1029
 3998 0116 0120     		moveq	r0, #1
 3999 0118 8049     		ldr	r1, .L68+28
 4000 011a FFF7FEFF 		bl	__test_assert
 4001              	.LVL163:
 4002              		.loc 1 124 5 view .LVU1030
 4003 011e 0028     		cmp	r0, #0
 4004 0120 8AD1     		bne	.L45
 4005              		.loc 1 124 57 is_stmt 1 view .LVU1031
 4006              		.loc 1 125 5 view .LVU1032
 4007              		.loc 1 125 12 is_stmt 0 view .LVU1033
 4008 0122 01A9     		add	r1, sp, #4
 4009 0124 4FF0FF32 		mov	r2, #-1
 4010 0128 2046     		mov	r0, r4
 4011 012a FFF7FEFF 		bl	chMBFetchTimeout
 4012              	.LVL164:
ARM GAS  /tmp/ccTMtxXw.s 			page 72


 4013              		.loc 1 126 5 is_stmt 1 view .LVU1034
 4014 012e 831C     		adds	r3, r0, #2
 4015 0130 14BF     		ite	ne
 4016 0132 0020     		movne	r0, #0
 4017              	.LVL165:
 4018              		.loc 1 126 5 is_stmt 0 view .LVU1035
 4019 0134 0120     		moveq	r0, #1
 4020 0136 7949     		ldr	r1, .L68+28
 4021 0138 FFF7FEFF 		bl	__test_assert
 4022              	.LVL166:
 4023              		.loc 1 126 5 view .LVU1036
 4024 013c 0028     		cmp	r0, #0
 4025 013e 7FF47BAF 		bne	.L45
 4026              		.loc 1 126 57 is_stmt 1 view .LVU1037
 4027              		.loc 1 127 5 view .LVU1038
 4028              	.LVL167:
 4029              	.LBB2242:
 4030              	.LBI2242:
 4031              		.loc 5 200 20 view .LVU1039
 4032              	.LBB2243:
 4033              		.loc 5 202 3 view .LVU1040
 4034              	.LBE2243:
 4035              	.LBE2242:
 4036              		.loc 1 133 3 is_stmt 0 view .LVU1041
 4037 0142 0423     		movs	r3, #4
 4038              		.loc 1 137 7 view .LVU1042
 4039 0144 764E     		ldr	r6, .L68+32
 4040              	.LBB2245:
 4041              	.LBB2244:
 4042              		.loc 5 202 14 view .LVU1043
 4043 0146 2075     		strb	r0, [r4, #20]
 4044              	.LVL168:
 4045              		.loc 5 202 14 view .LVU1044
 4046              	.LBE2244:
 4047              	.LBE2245:
 4048              		.loc 1 129 3 is_stmt 1 view .LVU1045
 4049              		.loc 1 129 19 view .LVU1046
 4050              		.loc 1 133 3 view .LVU1047
 4051 0148 3B60     		str	r3, [r7]
 4052              		.loc 1 135 5 view .LVU1048
 4053              	.LVL169:
 4054              		.loc 1 135 17 view .LVU1049
 4055              		.loc 1 133 3 is_stmt 0 view .LVU1050
 4056 014a 4225     		movs	r5, #66
 4057              	.LVL170:
 4058              	.L55:
 4059              		.loc 1 136 7 is_stmt 1 view .LVU1051
 4060              		.loc 1 136 14 is_stmt 0 view .LVU1052
 4061 014c 2946     		mov	r1, r5
 4062 014e 4FF0FF32 		mov	r2, #-1
 4063 0152 2046     		mov	r0, r4
 4064 0154 FFF7FEFF 		bl	chMBPostTimeout
 4065              	.LVL171:
 4066              		.loc 1 137 7 is_stmt 1 view .LVU1053
 4067 0158 B0FA80F0 		clz	r0, r0
 4068              	.LVL172:
 4069              		.loc 1 137 7 is_stmt 0 view .LVU1054
ARM GAS  /tmp/ccTMtxXw.s 			page 73


 4070 015c 3146     		mov	r1, r6
 4071 015e 4009     		lsrs	r0, r0, #5
 4072              		.loc 1 135 5 view .LVU1055
 4073 0160 0135     		adds	r5, r5, #1
 4074              	.LVL173:
 4075              		.loc 1 137 7 view .LVU1056
 4076 0162 FFF7FEFF 		bl	__test_assert
 4077              	.LVL174:
 4078              		.loc 1 137 59 is_stmt 1 view .LVU1057
 4079              		.loc 1 135 34 view .LVU1058
 4080              		.loc 1 135 17 view .LVU1059
 4081              		.loc 1 137 7 is_stmt 0 view .LVU1060
 4082 0166 0028     		cmp	r0, #0
 4083 0168 7FF466AF 		bne	.L45
 4084              		.loc 1 135 5 view .LVU1061
 4085 016c 452D     		cmp	r5, #69
 4086 016e EDD1     		bne	.L55
 4087              		.loc 1 139 5 is_stmt 1 view .LVU1062
 4088              		.loc 1 139 12 is_stmt 0 view .LVU1063
 4089 0170 4FF0FF32 		mov	r2, #-1
 4090 0174 4121     		movs	r1, #65
 4091 0176 6348     		ldr	r0, .L68+4
 4092 0178 FFF7FEFF 		bl	chMBPostAheadTimeout
 4093              	.LVL175:
 4094              		.loc 1 140 5 is_stmt 1 view .LVU1064
 4095 017c B0FA80F0 		clz	r0, r0
 4096              	.LVL176:
 4097              		.loc 1 140 5 is_stmt 0 view .LVU1065
 4098 0180 6749     		ldr	r1, .L68+32
 4099 0182 4009     		lsrs	r0, r0, #5
 4100 0184 FFF7FEFF 		bl	__test_assert
 4101              	.LVL177:
 4102 0188 0546     		mov	r5, r0
 4103 018a 0028     		cmp	r0, #0
 4104 018c 7FF454AF 		bne	.L45
 4105              		.loc 1 140 57 is_stmt 1 view .LVU1066
 4106              		.loc 1 142 3 view .LVU1067
 4107              		.loc 1 142 19 view .LVU1068
 4108              		.loc 1 146 3 view .LVU1069
 4109 0190 0523     		movs	r3, #5
 4110 0192 3B60     		str	r3, [r7]
 4111              		.loc 1 148 5 view .LVU1070
 4112              	.LBB2246:
 4113              	.LBI2246:
 4114              		.loc 6 573 20 view .LVU1071
 4115              	.LBE2246:
 4116              	.LBE2420:
 4117              	.LBE2485:
 4118              		.loc 6 575 3 view .LVU1072
 4119              	.LBB2486:
 4120              	.LBB2421:
 4121              	.LBB2254:
 4122              	.LBB2247:
 4123              	.LBI2247:
 4124              		.loc 2 407 20 view .LVU1073
 4125              	.LBE2247:
 4126              	.LBE2254:
ARM GAS  /tmp/ccTMtxXw.s 			page 74


 4127              	.LBE2421:
 4128              	.LBE2486:
 4129              		.loc 2 409 3 view .LVU1074
 4130              	.LBB2487:
 4131              	.LBB2422:
 4132              	.LBB2255:
 4133              	.LBB2252:
 4134              	.LBB2248:
 4135              	.LBI2248:
 4136              		.loc 3 806 27 view .LVU1075
 4137              	.LBE2248:
 4138              	.LBE2252:
 4139              	.LBE2255:
 4140              	.LBE2422:
 4141              	.LBE2487:
 4142              		.loc 3 814 3 view .LVU1076
 4143              	.LVL178:
 4144              	.LBB2488:
 4145              	.LBB2423:
 4146              	.LBB2256:
 4147              	.LBB2253:
 4148              	.LBB2251:
 4149              	.LBB2249:
 4150              	.LBI2249:
 4151              		.loc 4 491 27 view .LVU1077
 4152              	.LBB2250:
 4153              		.loc 4 493 3 view .LVU1078
 4154 0194 4FF03008 		mov	r8, #48
 4155              		.syntax unified
 4156              	@ 493 "../ChibiOS/os/common/ext/ARM/CMSIS/Core/Include/cmsis_gcc.h" 1
 4157 0198 88F31188 		MSR basepri, r8
 4158              	@ 0 "" 2
 4159              	.LVL179:
 4160              		.loc 4 493 3 is_stmt 0 view .LVU1079
 4161              		.thumb
 4162              		.syntax unified
 4163              	.LBE2250:
 4164              	.LBE2249:
 4165              	.LBE2251:
 4166              	.LBE2253:
 4167              	.LBE2256:
 4168              	.LBE2423:
 4169              	.LBE2488:
 4170              		.loc 2 410 35 is_stmt 1 view .LVU1080
 4171              		.loc 2 411 21 view .LVU1081
 4172              	.LBB2489:
 4173              	.LBB2424:
 4174              		.loc 1 148 5 view .LVU1082
 4175              	.LBB2257:
 4176              	.LBI2257:
 4177              		.loc 5 167 22 view .LVU1083
 4178              	.LBE2257:
 4179              	.LBE2424:
 4180              	.LBE2489:
 4181              		.loc 5 169 21 view .LVU1084
 4182              		.loc 5 171 3 view .LVU1085
 4183              	.LBB2490:
ARM GAS  /tmp/ccTMtxXw.s 			page 75


 4184              	.LBB2425:
 4185              	.LBB2264:
 4186              	.LBB2258:
 4187              	.LBI2258:
 4188              		.loc 5 136 22 view .LVU1086
 4189              	.LBB2259:
 4190              		.loc 5 140 3 view .LVU1087
 4191              		.loc 5 140 3 is_stmt 0 view .LVU1088
 4192              	.LBE2259:
 4193              	.LBE2258:
 4194              	.LBB2261:
 4195              	.LBI2261:
 4196              		.loc 5 152 22 is_stmt 1 view .LVU1089
 4197              	.LBB2262:
 4198              		.loc 5 154 21 view .LVU1090
 4199              		.loc 5 156 3 view .LVU1091
 4200              		.loc 5 156 3 is_stmt 0 view .LVU1092
 4201              	.LBE2262:
 4202              	.LBE2261:
 4203              	.LBB2263:
 4204              	.LBB2260:
 4205              		.loc 5 140 28 view .LVU1093
 4206 019c D4E90023 		ldrd	r2, r3, [r4]
 4207 01a0 9B1A     		subs	r3, r3, r2
 4208              	.LBE2260:
 4209              	.LBE2263:
 4210              	.LBE2264:
 4211              		.loc 1 148 5 view .LVU1094
 4212 01a2 2269     		ldr	r2, [r4, #16]
 4213 01a4 5F49     		ldr	r1, .L68+36
 4214 01a6 B2EBA30F 		cmp	r2, r3, asr #2
 4215 01aa 0CBF     		ite	eq
 4216 01ac 0120     		moveq	r0, #1
 4217 01ae 0020     		movne	r0, #0
 4218 01b0 FFF7FEFF 		bl	__test_assert
 4219              	.LVL180:
 4220 01b4 0646     		mov	r6, r0
 4221 01b6 0028     		cmp	r0, #0
 4222 01b8 7FF46DAF 		bne	.L67
 4223              		.loc 1 148 5 is_stmt 1 view .LVU1095
 4224              	.LBB2265:
 4225              	.LBI2265:
 4226              		.loc 6 584 20 view .LVU1096
 4227              	.LBE2265:
 4228              	.LBE2425:
 4229              	.LBE2490:
 4230              		.loc 6 586 3 view .LVU1097
 4231              	.LBB2491:
 4232              	.LBB2426:
 4233              	.LBB2274:
 4234              	.LBB2266:
 4235              	.LBI2266:
 4236              		.loc 2 421 20 view .LVU1098
 4237              	.LBB2267:
 4238              		.loc 2 423 23 view .LVU1099
 4239              		.loc 2 424 34 view .LVU1100
 4240              		.loc 2 430 3 view .LVU1101
ARM GAS  /tmp/ccTMtxXw.s 			page 76


 4241              		.loc 2 430 3 view .LVU1102
 4242              		.loc 2 430 3 view .LVU1103
 4243              		.loc 2 434 3 view .LVU1104
 4244              	.LBB2268:
 4245              	.LBI2268:
 4246              		.loc 3 830 27 view .LVU1105
 4247              	.LBE2268:
 4248              	.LBE2267:
 4249              	.LBE2266:
 4250              	.LBE2274:
 4251              	.LBE2426:
 4252              	.LBE2491:
 4253              		.loc 3 833 3 view .LVU1106
 4254              	.LVL181:
 4255              	.LBB2492:
 4256              	.LBB2427:
 4257              	.LBB2275:
 4258              	.LBB2273:
 4259              	.LBB2272:
 4260              	.LBB2271:
 4261              	.LBB2269:
 4262              	.LBI2269:
 4263              		.loc 4 491 27 view .LVU1107
 4264              	.LBB2270:
 4265              		.loc 4 493 3 view .LVU1108
 4266              		.syntax unified
 4267              	@ 493 "../ChibiOS/os/common/ext/ARM/CMSIS/Core/Include/cmsis_gcc.h" 1
 4268 01bc 80F31188 		MSR basepri, r0
 4269              	@ 0 "" 2
 4270              	.LVL182:
 4271              		.loc 4 493 3 is_stmt 0 view .LVU1109
 4272              		.thumb
 4273              		.syntax unified
 4274              	.LBE2270:
 4275              	.LBE2269:
 4276              	.LBE2271:
 4277              	.LBE2272:
 4278              	.LBE2273:
 4279              	.LBE2275:
 4280              		.loc 1 148 66 is_stmt 1 view .LVU1110
 4281              		.loc 1 149 5 view .LVU1111
 4282              	.LBB2276:
 4283              	.LBI2276:
 4284              		.loc 6 573 20 view .LVU1112
 4285              	.LBE2276:
 4286              	.LBE2427:
 4287              	.LBE2492:
 4288              		.loc 6 575 3 view .LVU1113
 4289              	.LBB2493:
 4290              	.LBB2428:
 4291              	.LBB2284:
 4292              	.LBB2277:
 4293              	.LBI2277:
 4294              		.loc 2 407 20 view .LVU1114
 4295              	.LBE2277:
 4296              	.LBE2284:
 4297              	.LBE2428:
ARM GAS  /tmp/ccTMtxXw.s 			page 77


 4298              	.LBE2493:
 4299              		.loc 2 409 3 view .LVU1115
 4300              	.LBB2494:
 4301              	.LBB2429:
 4302              	.LBB2285:
 4303              	.LBB2282:
 4304              	.LBB2278:
 4305              	.LBI2278:
 4306              		.loc 3 806 27 view .LVU1116
 4307              	.LBE2278:
 4308              	.LBE2282:
 4309              	.LBE2285:
 4310              	.LBE2429:
 4311              	.LBE2494:
 4312              		.loc 3 814 3 view .LVU1117
 4313              	.LBB2495:
 4314              	.LBB2430:
 4315              	.LBB2286:
 4316              	.LBB2283:
 4317              	.LBB2281:
 4318              	.LBB2279:
 4319              	.LBI2279:
 4320              		.loc 4 491 27 view .LVU1118
 4321              	.LBB2280:
 4322              		.loc 4 493 3 view .LVU1119
 4323              		.syntax unified
 4324              	@ 493 "../ChibiOS/os/common/ext/ARM/CMSIS/Core/Include/cmsis_gcc.h" 1
 4325 01c0 88F31188 		MSR basepri, r8
 4326              	@ 0 "" 2
 4327              	.LVL183:
 4328              		.loc 4 493 3 is_stmt 0 view .LVU1120
 4329              		.thumb
 4330              		.syntax unified
 4331              	.LBE2280:
 4332              	.LBE2279:
 4333              	.LBE2281:
 4334              	.LBE2283:
 4335              	.LBE2286:
 4336              	.LBE2430:
 4337              	.LBE2495:
 4338              		.loc 2 410 35 is_stmt 1 view .LVU1121
 4339              		.loc 2 411 21 view .LVU1122
 4340              	.LBB2496:
 4341              	.LBB2431:
 4342              		.loc 1 149 5 view .LVU1123
 4343              	.LBB2287:
 4344              	.LBI2287:
 4345              		.loc 5 152 22 view .LVU1124
 4346              	.LBB2288:
 4347              		.loc 5 154 21 view .LVU1125
 4348              		.loc 5 156 3 view .LVU1126
 4349              		.loc 5 156 3 is_stmt 0 view .LVU1127
 4350              	.LBE2288:
 4351              	.LBE2287:
 4352              		.loc 1 149 5 view .LVU1128
 4353 01c4 2069     		ldr	r0, [r4, #16]
 4354 01c6 5849     		ldr	r1, .L68+40
ARM GAS  /tmp/ccTMtxXw.s 			page 78


 4355 01c8 A0F1040E 		sub	lr, r0, #4
 4356 01cc DEF10000 		rsbs	r0, lr, #0
 4357 01d0 40EB0E00 		adc	r0, r0, lr
 4358 01d4 FFF7FEFF 		bl	__test_assert
 4359              	.LVL184:
 4360 01d8 0546     		mov	r5, r0
 4361 01da 10B1     		cbz	r0, .L57
 4362              		.loc 1 149 5 is_stmt 1 view .LVU1129
 4363              	.LBB2289:
 4364              	.LBI2289:
 4365              		.loc 6 584 20 view .LVU1130
 4366              	.LBE2289:
 4367              	.LBE2431:
 4368              	.LBE2496:
 4369              		.loc 6 586 3 view .LVU1131
 4370              	.LBB2497:
 4371              	.LBB2432:
 4372              	.LBB2298:
 4373              	.LBB2290:
 4374              	.LBI2290:
 4375              		.loc 2 421 20 view .LVU1132
 4376              	.LBB2291:
 4377              		.loc 2 423 23 view .LVU1133
 4378              		.loc 2 424 34 view .LVU1134
 4379              		.loc 2 430 3 view .LVU1135
 4380              		.loc 2 430 3 view .LVU1136
 4381              		.loc 2 430 3 view .LVU1137
 4382              		.loc 2 434 3 view .LVU1138
 4383              	.LBB2292:
 4384              	.LBI2292:
 4385              		.loc 3 830 27 view .LVU1139
 4386              	.LBE2292:
 4387              	.LBE2291:
 4388              	.LBE2290:
 4389              	.LBE2298:
 4390              	.LBE2432:
 4391              	.LBE2497:
 4392              		.loc 3 833 3 view .LVU1140
 4393              	.LVL185:
 4394              	.LBB2498:
 4395              	.LBB2433:
 4396              	.LBB2299:
 4397              	.LBB2297:
 4398              	.LBB2296:
 4399              	.LBB2295:
 4400              	.LBB2293:
 4401              	.LBI2293:
 4402              		.loc 4 491 27 view .LVU1141
 4403              	.LBB2294:
 4404              		.loc 4 493 3 view .LVU1142
 4405              		.syntax unified
 4406              	@ 493 "../ChibiOS/os/common/ext/ARM/CMSIS/Core/Include/cmsis_gcc.h" 1
 4407 01dc 86F31188 		MSR basepri, r6
 4408              	@ 0 "" 2
 4409              	.LVL186:
 4410              		.loc 4 493 3 is_stmt 0 view .LVU1143
 4411              		.thumb
ARM GAS  /tmp/ccTMtxXw.s 			page 79


 4412              		.syntax unified
 4413              	.LBE2294:
 4414              	.LBE2293:
 4415              	.LBE2295:
 4416              	.LBE2296:
 4417              	.LBE2297:
 4418              	.LBE2299:
 4419              		.loc 1 149 5 is_stmt 1 view .LVU1144
 4420 01e0 2AE7     		b	.L45
 4421              	.L57:
 4422              		.loc 1 149 5 view .LVU1145
 4423              	.LBB2300:
 4424              	.LBI2300:
 4425              		.loc 6 584 20 view .LVU1146
 4426              	.LBE2300:
 4427              	.LBE2433:
 4428              	.LBE2498:
 4429              		.loc 6 586 3 view .LVU1147
 4430              	.LBB2499:
 4431              	.LBB2434:
 4432              	.LBB2309:
 4433              	.LBB2301:
 4434              	.LBI2301:
 4435              		.loc 2 421 20 view .LVU1148
 4436              	.LBB2302:
 4437              		.loc 2 423 23 view .LVU1149
 4438              		.loc 2 424 34 view .LVU1150
 4439              		.loc 2 430 3 view .LVU1151
 4440              		.loc 2 430 3 view .LVU1152
 4441              		.loc 2 430 3 view .LVU1153
 4442              		.loc 2 434 3 view .LVU1154
 4443              	.LBB2303:
 4444              	.LBI2303:
 4445              		.loc 3 830 27 view .LVU1155
 4446              	.LBE2303:
 4447              	.LBE2302:
 4448              	.LBE2301:
 4449              	.LBE2309:
 4450              	.LBE2434:
 4451              	.LBE2499:
 4452              		.loc 3 833 3 view .LVU1156
 4453              	.LVL187:
 4454              	.LBB2500:
 4455              	.LBB2435:
 4456              	.LBB2310:
 4457              	.LBB2308:
 4458              	.LBB2307:
 4459              	.LBB2306:
 4460              	.LBB2304:
 4461              	.LBI2304:
 4462              		.loc 4 491 27 view .LVU1157
 4463              	.LBB2305:
 4464              		.loc 4 493 3 view .LVU1158
 4465              		.syntax unified
 4466              	@ 493 "../ChibiOS/os/common/ext/ARM/CMSIS/Core/Include/cmsis_gcc.h" 1
 4467 01e2 80F31188 		MSR basepri, r0
 4468              	@ 0 "" 2
ARM GAS  /tmp/ccTMtxXw.s 			page 80


 4469              	.LVL188:
 4470              		.loc 4 493 3 is_stmt 0 view .LVU1159
 4471              		.thumb
 4472              		.syntax unified
 4473              	.LBE2305:
 4474              	.LBE2304:
 4475              	.LBE2306:
 4476              	.LBE2307:
 4477              	.LBE2308:
 4478              	.LBE2310:
 4479              		.loc 1 149 69 is_stmt 1 view .LVU1160
 4480              		.loc 1 150 5 view .LVU1161
 4481              	.LBB2311:
 4482              	.LBI2311:
 4483              		.loc 6 573 20 view .LVU1162
 4484              	.LBE2311:
 4485              	.LBE2435:
 4486              	.LBE2500:
 4487              		.loc 6 575 3 view .LVU1163
 4488              	.LBB2501:
 4489              	.LBB2436:
 4490              	.LBB2319:
 4491              	.LBB2312:
 4492              	.LBI2312:
 4493              		.loc 2 407 20 view .LVU1164
 4494              	.LBE2312:
 4495              	.LBE2319:
 4496              	.LBE2436:
 4497              	.LBE2501:
 4498              		.loc 2 409 3 view .LVU1165
 4499              	.LBB2502:
 4500              	.LBB2437:
 4501              	.LBB2320:
 4502              	.LBB2317:
 4503              	.LBB2313:
 4504              	.LBI2313:
 4505              		.loc 3 806 27 view .LVU1166
 4506              	.LBE2313:
 4507              	.LBE2317:
 4508              	.LBE2320:
 4509              	.LBE2437:
 4510              	.LBE2502:
 4511              		.loc 3 814 3 view .LVU1167
 4512              	.LBB2503:
 4513              	.LBB2438:
 4514              	.LBB2321:
 4515              	.LBB2318:
 4516              	.LBB2316:
 4517              	.LBB2314:
 4518              	.LBI2314:
 4519              		.loc 4 491 27 view .LVU1168
 4520              	.LBB2315:
 4521              		.loc 4 493 3 view .LVU1169
 4522              		.syntax unified
 4523              	@ 493 "../ChibiOS/os/common/ext/ARM/CMSIS/Core/Include/cmsis_gcc.h" 1
 4524 01e6 88F31188 		MSR basepri, r8
 4525              	@ 0 "" 2
ARM GAS  /tmp/ccTMtxXw.s 			page 81


 4526              	.LVL189:
 4527              		.loc 4 493 3 is_stmt 0 view .LVU1170
 4528              		.thumb
 4529              		.syntax unified
 4530              	.LBE2315:
 4531              	.LBE2314:
 4532              	.LBE2316:
 4533              	.LBE2318:
 4534              	.LBE2321:
 4535              	.LBE2438:
 4536              	.LBE2503:
 4537              		.loc 2 410 35 is_stmt 1 view .LVU1171
 4538              		.loc 2 411 21 view .LVU1172
 4539              	.LBB2504:
 4540              	.LBB2439:
 4541              		.loc 1 150 5 view .LVU1173
 4542 01ea D4E90230 		ldrd	r3, r0, [r4, #8]
 4543 01ee A0EB030C 		sub	ip, r0, r3
 4544 01f2 DCF10000 		rsbs	r0, ip, #0
 4545 01f6 40EB0C00 		adc	r0, r0, ip
 4546 01fa 4C49     		ldr	r1, .L68+44
 4547 01fc FFF7FEFF 		bl	__test_assert
 4548              	.LVL190:
 4549 0200 0028     		cmp	r0, #0
 4550 0202 7FF448AF 		bne	.L67
 4551              		.loc 1 150 5 view .LVU1174
 4552              	.LBB2322:
 4553              	.LBI2322:
 4554              		.loc 6 584 20 view .LVU1175
 4555              	.LBE2322:
 4556              	.LBE2439:
 4557              	.LBE2504:
 4558              		.loc 6 586 3 view .LVU1176
 4559              	.LBB2505:
 4560              	.LBB2440:
 4561              	.LBB2331:
 4562              	.LBB2323:
 4563              	.LBI2323:
 4564              		.loc 2 421 20 view .LVU1177
 4565              	.LBB2324:
 4566              		.loc 2 423 23 view .LVU1178
 4567              		.loc 2 424 34 view .LVU1179
 4568              		.loc 2 430 3 view .LVU1180
 4569              		.loc 2 430 3 view .LVU1181
 4570              		.loc 2 430 3 view .LVU1182
 4571              		.loc 2 434 3 view .LVU1183
 4572              	.LBB2325:
 4573              	.LBI2325:
 4574              		.loc 3 830 27 view .LVU1184
 4575              	.LBE2325:
 4576              	.LBE2324:
 4577              	.LBE2323:
 4578              	.LBE2331:
 4579              	.LBE2440:
 4580              	.LBE2505:
 4581              		.loc 3 833 3 view .LVU1185
 4582              	.LVL191:
ARM GAS  /tmp/ccTMtxXw.s 			page 82


 4583              	.LBB2506:
 4584              	.LBB2441:
 4585              	.LBB2332:
 4586              	.LBB2330:
 4587              	.LBB2329:
 4588              	.LBB2328:
 4589              	.LBB2326:
 4590              	.LBI2326:
 4591              		.loc 4 491 27 view .LVU1186
 4592              	.LBB2327:
 4593              		.loc 4 493 3 view .LVU1187
 4594              		.syntax unified
 4595              	@ 493 "../ChibiOS/os/common/ext/ARM/CMSIS/Core/Include/cmsis_gcc.h" 1
 4596 0206 80F31188 		MSR basepri, r0
 4597              	@ 0 "" 2
 4598              	.LVL192:
 4599              		.loc 4 493 3 is_stmt 0 view .LVU1188
 4600              		.thumb
 4601              		.syntax unified
 4602              	.LBE2327:
 4603              	.LBE2326:
 4604              	.LBE2328:
 4605              	.LBE2329:
 4606              	.LBE2330:
 4607              	.LBE2332:
 4608              		.loc 1 150 69 is_stmt 1 view .LVU1189
 4609              		.loc 1 152 3 view .LVU1190
 4610              		.loc 1 152 19 view .LVU1191
 4611              		.loc 1 156 3 view .LVU1192
 4612 020a 0623     		movs	r3, #6
 4613              		.loc 1 159 14 is_stmt 0 view .LVU1193
 4614 020c DFF8F480 		ldr	r8, .L68+4
 4615              		.loc 1 160 7 view .LVU1194
 4616 0210 434E     		ldr	r6, .L68+32
 4617              		.loc 1 156 3 view .LVU1195
 4618 0212 3B60     		str	r3, [r7]
 4619              		.loc 1 158 5 is_stmt 1 view .LVU1196
 4620              	.LVL193:
 4621              		.loc 1 158 17 view .LVU1197
 4622              		.loc 1 156 3 is_stmt 0 view .LVU1198
 4623 0214 0425     		movs	r5, #4
 4624              	.LVL194:
 4625              	.L59:
 4626              		.loc 1 159 7 is_stmt 1 view .LVU1199
 4627              		.loc 1 159 14 is_stmt 0 view .LVU1200
 4628 0216 01A9     		add	r1, sp, #4
 4629 0218 4FF0FF32 		mov	r2, #-1
 4630 021c 4046     		mov	r0, r8
 4631 021e FFF7FEFF 		bl	chMBFetchTimeout
 4632              	.LVL195:
 4633              		.loc 1 160 7 is_stmt 1 view .LVU1201
 4634 0222 B0FA80F0 		clz	r0, r0
 4635              	.LVL196:
 4636              		.loc 1 160 7 is_stmt 0 view .LVU1202
 4637 0226 3146     		mov	r1, r6
 4638 0228 4009     		lsrs	r0, r0, #5
 4639 022a FFF7FEFF 		bl	__test_assert
ARM GAS  /tmp/ccTMtxXw.s 			page 83


 4640              	.LVL197:
 4641              		.loc 1 160 59 is_stmt 1 view .LVU1203
 4642              		.loc 1 161 7 view .LVU1204
 4643              		.loc 1 160 7 is_stmt 0 view .LVU1205
 4644 022e 0028     		cmp	r0, #0
 4645 0230 7FF402AF 		bne	.L45
 4646              		.loc 1 161 7 view .LVU1206
 4647 0234 9DF80400 		ldrb	r0, [sp, #4]	@ zero_extendqisi2
 4648 0238 FFF7FEFF 		bl	test_emit_token
 4649              	.LVL198:
 4650              		.loc 1 158 30 is_stmt 1 view .LVU1207
 4651              		.loc 1 158 17 view .LVU1208
 4652              		.loc 1 158 5 is_stmt 0 view .LVU1209
 4653 023c 013D     		subs	r5, r5, #1
 4654              	.LVL199:
 4655              		.loc 1 158 5 view .LVU1210
 4656 023e EAD1     		bne	.L59
 4657              		.loc 1 163 5 is_stmt 1 view .LVU1211
 4658 0240 3B49     		ldr	r1, .L68+48
 4659 0242 3C48     		ldr	r0, .L68+52
 4660 0244 FFF7FEFF 		bl	__test_assert_sequence
 4661              	.LVL200:
 4662 0248 0028     		cmp	r0, #0
 4663 024a 7FF4F5AE 		bne	.L45
 4664              		.loc 1 163 55 view .LVU1212
 4665              		.loc 1 165 3 view .LVU1213
 4666              		.loc 1 165 19 view .LVU1214
 4667              		.loc 1 169 3 view .LVU1215
 4668 024e 0723     		movs	r3, #7
 4669              		.loc 1 171 12 is_stmt 0 view .LVU1216
 4670 0250 4621     		movs	r1, #70
 4671 0252 2C48     		ldr	r0, .L68+4
 4672              		.loc 1 169 3 view .LVU1217
 4673 0254 3B60     		str	r3, [r7]
 4674              		.loc 1 171 5 is_stmt 1 view .LVU1218
 4675              		.loc 1 171 12 is_stmt 0 view .LVU1219
 4676 0256 4FF0FF32 		mov	r2, #-1
 4677 025a FFF7FEFF 		bl	chMBPostTimeout
 4678              	.LVL201:
 4679              		.loc 1 172 5 is_stmt 1 view .LVU1220
 4680 025e B0FA80F0 		clz	r0, r0
 4681              	.LVL202:
 4682              		.loc 1 172 5 is_stmt 0 view .LVU1221
 4683 0262 2F49     		ldr	r1, .L68+32
 4684 0264 4009     		lsrs	r0, r0, #5
 4685 0266 FFF7FEFF 		bl	__test_assert
 4686              	.LVL203:
 4687 026a 0028     		cmp	r0, #0
 4688 026c 7FF4E4AE 		bne	.L45
 4689              		.loc 1 172 57 is_stmt 1 view .LVU1222
 4690              		.loc 1 173 5 view .LVU1223
 4691              		.loc 1 173 12 is_stmt 0 view .LVU1224
 4692 0270 01A9     		add	r1, sp, #4
 4693 0272 2448     		ldr	r0, .L68+4
 4694 0274 4FF0FF32 		mov	r2, #-1
 4695 0278 FFF7FEFF 		bl	chMBFetchTimeout
 4696              	.LVL204:
ARM GAS  /tmp/ccTMtxXw.s 			page 84


 4697              		.loc 1 174 5 is_stmt 1 view .LVU1225
 4698 027c B0FA80F0 		clz	r0, r0
 4699              	.LVL205:
 4700              		.loc 1 174 5 is_stmt 0 view .LVU1226
 4701 0280 2749     		ldr	r1, .L68+32
 4702 0282 4009     		lsrs	r0, r0, #5
 4703 0284 FFF7FEFF 		bl	__test_assert
 4704              	.LVL206:
 4705 0288 0028     		cmp	r0, #0
 4706 028a 7FF4D5AE 		bne	.L45
 4707              		.loc 1 174 57 is_stmt 1 view .LVU1227
 4708              		.loc 1 176 3 view .LVU1228
 4709              		.loc 1 176 19 view .LVU1229
 4710              		.loc 1 180 3 view .LVU1230
 4711 028e 0823     		movs	r3, #8
 4712 0290 3B60     		str	r3, [r7]
 4713              		.loc 1 182 5 view .LVU1231
 4714              	.LBB2333:
 4715              	.LBI2333:
 4716              		.loc 6 573 20 view .LVU1232
 4717              	.LBE2333:
 4718              	.LBE2441:
 4719              	.LBE2506:
 4720              		.loc 6 575 3 view .LVU1233
 4721              	.LBB2507:
 4722              	.LBB2442:
 4723              	.LBB2341:
 4724              	.LBB2334:
 4725              	.LBI2334:
 4726              		.loc 2 407 20 view .LVU1234
 4727              	.LBE2334:
 4728              	.LBE2341:
 4729              	.LBE2442:
 4730              	.LBE2507:
 4731              		.loc 2 409 3 view .LVU1235
 4732              	.LBB2508:
 4733              	.LBB2443:
 4734              	.LBB2342:
 4735              	.LBB2339:
 4736              	.LBB2335:
 4737              	.LBI2335:
 4738              		.loc 3 806 27 view .LVU1236
 4739              	.LBE2335:
 4740              	.LBE2339:
 4741              	.LBE2342:
 4742              	.LBE2443:
 4743              	.LBE2508:
 4744              		.loc 3 814 3 view .LVU1237
 4745              	.LVL207:
 4746              	.LBB2509:
 4747              	.LBB2444:
 4748              	.LBB2343:
 4749              	.LBB2340:
 4750              	.LBB2338:
 4751              	.LBB2336:
 4752              	.LBI2336:
 4753              		.loc 4 491 27 view .LVU1238
ARM GAS  /tmp/ccTMtxXw.s 			page 85


 4754              	.LBB2337:
 4755              		.loc 4 493 3 view .LVU1239
 4756 0292 3026     		movs	r6, #48
 4757              		.syntax unified
 4758              	@ 493 "../ChibiOS/os/common/ext/ARM/CMSIS/Core/Include/cmsis_gcc.h" 1
 4759 0294 86F31188 		MSR basepri, r6
 4760              	@ 0 "" 2
 4761              	.LVL208:
 4762              		.loc 4 493 3 is_stmt 0 view .LVU1240
 4763              		.thumb
 4764              		.syntax unified
 4765              	.LBE2337:
 4766              	.LBE2336:
 4767              	.LBE2338:
 4768              	.LBE2340:
 4769              	.LBE2343:
 4770              	.LBE2444:
 4771              	.LBE2509:
 4772              		.loc 2 410 35 is_stmt 1 view .LVU1241
 4773              		.loc 2 411 21 view .LVU1242
 4774              	.LBB2510:
 4775              	.LBB2445:
 4776              		.loc 1 182 5 view .LVU1243
 4777              	.LBB2344:
 4778              	.LBI2344:
 4779              		.loc 5 167 22 view .LVU1244
 4780              	.LBB2345:
 4781              		.loc 5 169 21 view .LVU1245
 4782              		.loc 5 171 3 view .LVU1246
 4783              	.LBB2346:
 4784              	.LBI2346:
 4785              		.loc 5 136 22 view .LVU1247
 4786              	.LBB2347:
 4787              		.loc 5 140 3 view .LVU1248
 4788              		.loc 5 140 3 is_stmt 0 view .LVU1249
 4789              	.LBE2347:
 4790              	.LBE2346:
 4791              	.LBB2349:
 4792              	.LBI2349:
 4793              		.loc 5 152 22 is_stmt 1 view .LVU1250
 4794              	.LBB2350:
 4795              		.loc 5 154 21 view .LVU1251
 4796              		.loc 5 156 3 view .LVU1252
 4797              		.loc 5 156 3 is_stmt 0 view .LVU1253
 4798              	.LBE2350:
 4799              	.LBE2349:
 4800              	.LBB2351:
 4801              	.LBB2348:
 4802              		.loc 5 140 28 view .LVU1254
 4803 0298 D4E90023 		ldrd	r2, r3, [r4]
 4804 029c 9A1A     		subs	r2, r3, r2
 4805              	.LBE2348:
 4806              	.LBE2351:
 4807              		.loc 5 171 28 view .LVU1255
 4808 029e 2369     		ldr	r3, [r4, #16]
 4809              	.LBE2345:
 4810              	.LBE2344:
ARM GAS  /tmp/ccTMtxXw.s 			page 86


 4811              		.loc 1 182 5 view .LVU1256
 4812 02a0 1A49     		ldr	r1, .L68+12
 4813              	.LBB2353:
 4814              	.LBB2352:
 4815              		.loc 5 171 28 view .LVU1257
 4816 02a2 C3EBA203 		rsb	r3, r3, r2, asr #2
 4817              	.LBE2352:
 4818              	.LBE2353:
 4819              		.loc 1 182 5 view .LVU1258
 4820 02a6 1F1F     		subs	r7, r3, #4
 4821 02a8 7842     		rsbs	r0, r7, #0
 4822 02aa 7841     		adcs	r0, r0, r7
 4823 02ac FFF7FEFF 		bl	__test_assert
 4824              	.LVL209:
 4825 02b0 0028     		cmp	r0, #0
 4826 02b2 7FF4F0AE 		bne	.L67
 4827              		.loc 1 182 5 is_stmt 1 view .LVU1259
 4828              	.LBB2354:
 4829              	.LBI2354:
 4830              		.loc 6 584 20 view .LVU1260
 4831              	.LBE2354:
 4832              	.LBE2445:
 4833              	.LBE2510:
 4834              		.loc 6 586 3 view .LVU1261
 4835              	.LBB2511:
 4836              	.LBB2446:
 4837              	.LBB2363:
 4838              	.LBB2355:
 4839              	.LBI2355:
 4840              		.loc 2 421 20 view .LVU1262
 4841              	.LBB2356:
 4842              		.loc 2 423 23 view .LVU1263
 4843              		.loc 2 424 34 view .LVU1264
 4844              		.loc 2 430 3 view .LVU1265
 4845              		.loc 2 430 3 view .LVU1266
 4846              		.loc 2 430 3 view .LVU1267
 4847              		.loc 2 434 3 view .LVU1268
 4848              	.LBB2357:
 4849              	.LBI2357:
 4850              		.loc 3 830 27 view .LVU1269
 4851              	.LBE2357:
 4852              	.LBE2356:
 4853              	.LBE2355:
 4854              	.LBE2363:
 4855              	.LBE2446:
 4856              	.LBE2511:
 4857              		.loc 3 833 3 view .LVU1270
 4858              	.LVL210:
 4859              	.LBB2512:
 4860              	.LBB2447:
 4861              	.LBB2364:
 4862              	.LBB2362:
 4863              	.LBB2361:
 4864              	.LBB2360:
 4865              	.LBB2358:
 4866              	.LBI2358:
 4867              		.loc 4 491 27 view .LVU1271
ARM GAS  /tmp/ccTMtxXw.s 			page 87


 4868              	.LBB2359:
 4869              		.loc 4 493 3 view .LVU1272
 4870              		.syntax unified
 4871              	@ 493 "../ChibiOS/os/common/ext/ARM/CMSIS/Core/Include/cmsis_gcc.h" 1
 4872 02b6 85F31188 		MSR basepri, r5
 4873              	@ 0 "" 2
 4874              	.LVL211:
 4875              		.loc 4 493 3 is_stmt 0 view .LVU1273
 4876              		.thumb
 4877              		.syntax unified
 4878              	.LBE2359:
 4879              	.LBE2358:
 4880              	.LBE2360:
 4881              	.LBE2361:
 4882              	.LBE2362:
 4883              	.LBE2364:
 4884              		.loc 1 182 70 is_stmt 1 view .LVU1274
 4885              		.loc 1 183 5 view .LVU1275
 4886              	.LBB2365:
 4887              	.LBI2365:
 4888              		.loc 6 573 20 view .LVU1276
 4889              	.LBE2365:
 4890              	.LBE2447:
 4891              	.LBE2512:
 4892              		.loc 6 575 3 view .LVU1277
 4893              	.LBB2513:
 4894              	.LBB2448:
 4895              	.LBB2373:
 4896              	.LBB2366:
 4897              	.LBI2366:
 4898              		.loc 2 407 20 view .LVU1278
 4899              	.LBE2366:
 4900              	.LBE2373:
 4901              	.LBE2448:
 4902              	.LBE2513:
 4903              		.loc 2 409 3 view .LVU1279
 4904              	.LBB2514:
 4905              	.LBB2449:
 4906              	.LBB2374:
 4907              	.LBB2371:
 4908              	.LBB2367:
 4909              	.LBI2367:
 4910              		.loc 3 806 27 view .LVU1280
 4911              	.LBE2367:
 4912              	.LBE2371:
 4913              	.LBE2374:
 4914              	.LBE2449:
 4915              	.LBE2514:
 4916              		.loc 3 814 3 view .LVU1281
 4917              	.LBB2515:
 4918              	.LBB2450:
 4919              	.LBB2375:
 4920              	.LBB2372:
 4921              	.LBB2370:
 4922              	.LBB2368:
 4923              	.LBI2368:
 4924              		.loc 4 491 27 view .LVU1282
ARM GAS  /tmp/ccTMtxXw.s 			page 88


 4925              	.LBB2369:
 4926              		.loc 4 493 3 view .LVU1283
 4927              		.syntax unified
 4928              	@ 493 "../ChibiOS/os/common/ext/ARM/CMSIS/Core/Include/cmsis_gcc.h" 1
 4929 02ba 86F31188 		MSR basepri, r6
 4930              	@ 0 "" 2
 4931              	.LVL212:
 4932              		.loc 4 493 3 is_stmt 0 view .LVU1284
 4933              		.thumb
 4934              		.syntax unified
 4935              	.LBE2369:
 4936              	.LBE2368:
 4937              	.LBE2370:
 4938              	.LBE2372:
 4939              	.LBE2375:
 4940              	.LBE2450:
 4941              	.LBE2515:
 4942              		.loc 2 410 35 is_stmt 1 view .LVU1285
 4943              		.loc 2 411 21 view .LVU1286
 4944              	.LBB2516:
 4945              	.LBB2451:
 4946              		.loc 1 183 5 view .LVU1287
 4947              	.LBB2376:
 4948              	.LBI2376:
 4949              		.loc 5 152 22 view .LVU1288
 4950              	.LBB2377:
 4951              		.loc 5 154 21 view .LVU1289
 4952              		.loc 5 156 3 view .LVU1290
 4953              		.loc 5 156 3 is_stmt 0 view .LVU1291
 4954              	.LBE2377:
 4955              	.LBE2376:
 4956              		.loc 1 183 5 view .LVU1292
 4957 02be 2069     		ldr	r0, [r4, #16]
 4958 02c0 1349     		ldr	r1, .L68+16
 4959 02c2 B0FA80F0 		clz	r0, r0
 4960 02c6 4009     		lsrs	r0, r0, #5
 4961 02c8 FFF7FEFF 		bl	__test_assert
 4962              	.LVL213:
 4963 02cc 0028     		cmp	r0, #0
 4964 02ce 7FF4E2AE 		bne	.L67
 4965              		.loc 1 183 5 is_stmt 1 view .LVU1293
 4966              	.LBB2378:
 4967              	.LBI2378:
 4968              		.loc 6 584 20 view .LVU1294
 4969              	.LBE2378:
 4970              	.LBE2451:
 4971              	.LBE2516:
 4972              		.loc 6 586 3 view .LVU1295
 4973              	.LBB2517:
 4974              	.LBB2452:
 4975              	.LBB2387:
 4976              	.LBB2379:
 4977              	.LBI2379:
 4978              		.loc 2 421 20 view .LVU1296
 4979              	.LBB2380:
 4980              		.loc 2 423 23 view .LVU1297
 4981              		.loc 2 424 34 view .LVU1298
ARM GAS  /tmp/ccTMtxXw.s 			page 89


 4982              		.loc 2 430 3 view .LVU1299
 4983              		.loc 2 430 3 view .LVU1300
 4984              		.loc 2 430 3 view .LVU1301
 4985              		.loc 2 434 3 view .LVU1302
 4986              	.LBB2381:
 4987              	.LBI2381:
 4988              		.loc 3 830 27 view .LVU1303
 4989              	.LBE2381:
 4990              	.LBE2380:
 4991              	.LBE2379:
 4992              	.LBE2387:
 4993              	.LBE2452:
 4994              	.LBE2517:
 4995              		.loc 3 833 3 view .LVU1304
 4996              	.LVL214:
 4997              	.LBB2518:
 4998              	.LBB2453:
 4999              	.LBB2388:
 5000              	.LBB2386:
 5001              	.LBB2385:
 5002              	.LBB2384:
 5003              	.LBB2382:
 5004              	.LBI2382:
 5005              		.loc 4 491 27 view .LVU1305
 5006              	.LBB2383:
 5007              		.loc 4 493 3 view .LVU1306
 5008              		.syntax unified
 5009              	@ 493 "../ChibiOS/os/common/ext/ARM/CMSIS/Core/Include/cmsis_gcc.h" 1
 5010 02d2 85F31188 		MSR basepri, r5
 5011              	@ 0 "" 2
 5012              	.LVL215:
 5013              		.loc 4 493 3 is_stmt 0 view .LVU1307
 5014              		.thumb
 5015              		.syntax unified
 5016              	.LBE2383:
 5017              	.LBE2382:
 5018              	.LBE2384:
 5019              	.LBE2385:
 5020              	.LBE2386:
 5021              	.LBE2388:
 5022              		.loc 1 183 65 is_stmt 1 view .LVU1308
 5023              		.loc 1 184 5 view .LVU1309
 5024 02d6 2068     		ldr	r0, [r4]
 5025 02d8 A368     		ldr	r3, [r4, #8]
 5026 02da 0E49     		ldr	r1, .L68+20
 5027 02dc C21A     		subs	r2, r0, r3
 5028 02de 5042     		rsbs	r0, r2, #0
 5029 02e0 5041     		adcs	r0, r0, r2
 5030 02e2 FFF7FEFF 		bl	__test_assert
 5031              	.LVL216:
 5032 02e6 0028     		cmp	r0, #0
 5033 02e8 7FF4A6AE 		bne	.L45
 5034              		.loc 1 184 78 view .LVU1310
 5035              		.loc 1 185 5 view .LVU1311
 5036 02ec 2068     		ldr	r0, [r4]
 5037 02ee E368     		ldr	r3, [r4, #12]
 5038 02f0 0949     		ldr	r1, .L68+24
ARM GAS  /tmp/ccTMtxXw.s 			page 90


 5039 02f2 C31A     		subs	r3, r0, r3
 5040 02f4 5842     		rsbs	r0, r3, #0
 5041 02f6 5841     		adcs	r0, r0, r3
 5042 02f8 FFF7FEFF 		bl	__test_assert
 5043              	.LVL217:
 5044              		.loc 1 185 5 view .LVU1312
 5045              		.loc 1 185 5 is_stmt 0 view .LVU1313
 5046 02fc 9CE6     		b	.L45
 5047              	.L69:
 5048 02fe 00BF     		.align	2
 5049              	.L68:
 5050 0300 00000000 		.word	chtest
 5051 0304 00000000 		.word	.LANCHOR0
 5052 0308 00000000 		.word	.LC1
 5053 030c 0C000000 		.word	.LC2
 5054 0310 18000000 		.word	.LC3
 5055 0314 24000000 		.word	.LC4
 5056 0318 48000000 		.word	.LC5
 5057 031c 00000000 		.word	.LC11
 5058 0320 00000000 		.word	.LC0
 5059 0324 6C000000 		.word	.LC6
 5060 0328 78000000 		.word	.LC7
 5061 032c 84000000 		.word	.LC8
 5062 0330 9C000000 		.word	.LC9
 5063 0334 B0000000 		.word	.LC10
 5064              	.LBE2453:
 5065              	.LBE2518:
 5066              		.cfi_endproc
 5067              	.LFE406:
 5068              		.size	oslib_test_002_001_execute, .-oslib_test_002_001_execute
 5069              		.section	.text.oslib_test_002_003_teardown,"ax",%progbits
 5070              		.align	1
 5071              		.p2align 4,,15
 5072              		.syntax unified
 5073              		.thumb
 5074              		.thumb_func
 5075              		.fpu softvfp
 5076              		.type	oslib_test_002_003_teardown, %function
 5077              	oslib_test_002_003_teardown:
 5078              	.LFB422:
 5079              		.cfi_startproc
 5080              		@ args = 0, pretend = 0, frame = 0
 5081              		@ frame_needed = 0, uses_anonymous_args = 0
 5082              		@ link register save eliminated.
 5083 0000 0148     		ldr	r0, .L71
 5084 0002 FFF7FEBF 		b	chMBReset
 5085              	.L72:
 5086 0006 00BF     		.align	2
 5087              	.L71:
 5088 0008 00000000 		.word	.LANCHOR0
 5089              		.cfi_endproc
 5090              	.LFE422:
 5091              		.size	oslib_test_002_003_teardown, .-oslib_test_002_003_teardown
 5092              		.section	.text.oslib_test_002_002_teardown,"ax",%progbits
 5093              		.align	1
 5094              		.p2align 4,,15
 5095              		.syntax unified
ARM GAS  /tmp/ccTMtxXw.s 			page 91


 5096              		.thumb
 5097              		.thumb_func
 5098              		.fpu softvfp
 5099              		.type	oslib_test_002_002_teardown, %function
 5100              	oslib_test_002_002_teardown:
 5101              	.LFB420:
 5102              		.cfi_startproc
 5103              		@ args = 0, pretend = 0, frame = 0
 5104              		@ frame_needed = 0, uses_anonymous_args = 0
 5105              		@ link register save eliminated.
 5106 0000 0148     		ldr	r0, .L74
 5107 0002 FFF7FEBF 		b	chMBReset
 5108              	.L75:
 5109 0006 00BF     		.align	2
 5110              	.L74:
 5111 0008 00000000 		.word	.LANCHOR0
 5112              		.cfi_endproc
 5113              	.LFE420:
 5114              		.size	oslib_test_002_002_teardown, .-oslib_test_002_002_teardown
 5115              		.section	.text.oslib_test_002_002_setup,"ax",%progbits
 5116              		.align	1
 5117              		.p2align 4,,15
 5118              		.syntax unified
 5119              		.thumb
 5120              		.thumb_func
 5121              		.fpu softvfp
 5122              		.type	oslib_test_002_002_setup, %function
 5123              	oslib_test_002_002_setup:
 5124              	.LFB416:
 5125              		.cfi_startproc
 5126              		@ args = 0, pretend = 0, frame = 0
 5127              		@ frame_needed = 0, uses_anonymous_args = 0
 5128              		@ link register save eliminated.
 5129 0000 0249     		ldr	r1, .L77
 5130 0002 0348     		ldr	r0, .L77+4
 5131 0004 0422     		movs	r2, #4
 5132 0006 FFF7FEBF 		b	chMBObjectInit
 5133              	.L78:
 5134 000a 00BF     		.align	2
 5135              	.L77:
 5136 000c 00000000 		.word	.LANCHOR1
 5137 0010 00000000 		.word	.LANCHOR0
 5138              		.cfi_endproc
 5139              	.LFE416:
 5140              		.size	oslib_test_002_002_setup, .-oslib_test_002_002_setup
 5141              		.section	.text.oslib_test_002_003_setup,"ax",%progbits
 5142              		.align	1
 5143              		.p2align 4,,15
 5144              		.syntax unified
 5145              		.thumb
 5146              		.thumb_func
 5147              		.fpu softvfp
 5148              		.type	oslib_test_002_003_setup, %function
 5149              	oslib_test_002_003_setup:
 5150              	.LFB418:
 5151              		.cfi_startproc
 5152              		@ args = 0, pretend = 0, frame = 0
ARM GAS  /tmp/ccTMtxXw.s 			page 92


 5153              		@ frame_needed = 0, uses_anonymous_args = 0
 5154              		@ link register save eliminated.
 5155 0000 0249     		ldr	r1, .L80
 5156 0002 0348     		ldr	r0, .L80+4
 5157 0004 0422     		movs	r2, #4
 5158 0006 FFF7FEBF 		b	chMBObjectInit
 5159              	.L81:
 5160 000a 00BF     		.align	2
 5161              	.L80:
 5162 000c 00000000 		.word	.LANCHOR1
 5163 0010 00000000 		.word	.LANCHOR0
 5164              		.cfi_endproc
 5165              	.LFE418:
 5166              		.size	oslib_test_002_003_setup, .-oslib_test_002_003_setup
 5167              		.global	oslib_test_sequence_002
 5168              		.section	.rodata.str1.4,"aMS",%progbits,1
 5169              		.align	2
 5170              	.LC12:
 5171 0000 4D61696C 		.ascii	"Mailboxes\000"
 5171      626F7865 
 5171      7300
 5172              		.global	oslib_test_sequence_002_array
 5173 000a 0000     		.align	2
 5174              	.LC13:
 5175 000c 4D61696C 		.ascii	"Mailbox timeouts\000"
 5175      626F7820 
 5175      74696D65 
 5175      6F757473 
 5175      00
 5176 001d 000000   		.align	2
 5177              	.LC14:
 5178 0020 4D61696C 		.ascii	"Mailbox I-Class API, non-blocking tests\000"
 5178      626F7820 
 5178      492D436C 
 5178      61737320 
 5178      4150492C 
 5179              		.align	2
 5180              	.LC15:
 5181 0048 4D61696C 		.ascii	"Mailbox normal API, non-blocking tests\000"
 5181      626F7820 
 5181      6E6F726D 
 5181      616C2041 
 5181      50492C20 
 5182              		.section	.bss.mb_buffer,"aw",%nobits
 5183              		.align	2
 5184              		.set	.LANCHOR1,. + 0
 5185              		.type	mb_buffer, %object
 5186              		.size	mb_buffer, 16
 5187              	mb_buffer:
 5188 0000 00000000 		.space	16
 5188      00000000 
 5188      00000000 
 5188      00000000 
 5189              		.section	.data.mb1,"aw"
 5190              		.align	2
 5191              		.set	.LANCHOR0,. + 0
 5192              		.type	mb1, %object
ARM GAS  /tmp/ccTMtxXw.s 			page 93


 5193              		.size	mb1, 40
 5194              	mb1:
 5195 0000 00000000 		.word	mb_buffer
 5196 0004 10000000 		.word	mb_buffer+16
 5197 0008 00000000 		.word	mb_buffer
 5198 000c 00000000 		.word	mb_buffer
 5199 0010 00000000 		.word	0
 5200 0014 00       		.byte	0
 5201 0015 000000   		.space	3
 5202 0018 18000000 		.word	mb1+24
 5203 001c 18000000 		.word	mb1+24
 5204 0020 20000000 		.word	mb1+32
 5205 0024 20000000 		.word	mb1+32
 5206              		.section	.rodata.oslib_test_002_001,"a"
 5207              		.align	2
 5208              		.type	oslib_test_002_001, %object
 5209              		.size	oslib_test_002_001, 16
 5210              	oslib_test_002_001:
 5211 0000 48000000 		.word	.LC15
 5212 0004 00000000 		.word	oslib_test_002_001_setup
 5213 0008 00000000 		.word	oslib_test_002_001_teardown
 5214 000c 00000000 		.word	oslib_test_002_001_execute
 5215              		.section	.rodata.oslib_test_002_002,"a"
 5216              		.align	2
 5217              		.type	oslib_test_002_002, %object
 5218              		.size	oslib_test_002_002, 16
 5219              	oslib_test_002_002:
 5220 0000 20000000 		.word	.LC14
 5221 0004 00000000 		.word	oslib_test_002_002_setup
 5222 0008 00000000 		.word	oslib_test_002_002_teardown
 5223 000c 00000000 		.word	oslib_test_002_002_execute
 5224              		.section	.rodata.oslib_test_002_003,"a"
 5225              		.align	2
 5226              		.type	oslib_test_002_003, %object
 5227              		.size	oslib_test_002_003, 16
 5228              	oslib_test_002_003:
 5229 0000 0C000000 		.word	.LC13
 5230 0004 00000000 		.word	oslib_test_002_003_setup
 5231 0008 00000000 		.word	oslib_test_002_003_teardown
 5232 000c 00000000 		.word	oslib_test_002_003_execute
 5233              		.section	.rodata.oslib_test_sequence_002,"a"
 5234              		.align	2
 5235              		.type	oslib_test_sequence_002, %object
 5236              		.size	oslib_test_sequence_002, 8
 5237              	oslib_test_sequence_002:
 5238 0000 00000000 		.word	.LC12
 5239 0004 00000000 		.word	oslib_test_sequence_002_array
 5240              		.section	.rodata.oslib_test_sequence_002_array,"a"
 5241              		.align	2
 5242              		.type	oslib_test_sequence_002_array, %object
 5243              		.size	oslib_test_sequence_002_array, 16
 5244              	oslib_test_sequence_002_array:
 5245 0000 00000000 		.word	oslib_test_002_001
 5246 0004 00000000 		.word	oslib_test_002_002
 5247 0008 00000000 		.word	oslib_test_002_003
 5248 000c 00000000 		.word	0
 5249              		.text
ARM GAS  /tmp/ccTMtxXw.s 			page 94


 5250              	.Letext0:
 5251              		.file 7 "/opt/gcc-arm-none-eabi/gcc-arm-none-eabi-10.3-2021.07/lib/gcc/arm-none-eabi/10.3.1/includ
 5252              		.file 8 "/opt/gcc-arm-none-eabi/gcc-arm-none-eabi-10.3-2021.07/arm-none-eabi/include/machine/_defa
 5253              		.file 9 "/opt/gcc-arm-none-eabi/gcc-arm-none-eabi-10.3-2021.07/arm-none-eabi/include/sys/_stdint.h
 5254              		.file 10 "../ChibiOS/os/rt/include/chearly.h"
 5255              		.file 11 "../ChibiOS/os/rt/include/chtime.h"
 5256              		.file 12 "../ChibiOS/os/rt/include/chlists.h"
 5257              		.file 13 "../ChibiOS/os/rt/include/chobjects.h"
 5258              		.file 14 "../ChibiOS/os/hal/include/hal_streams.h"
 5259              		.file 15 "../ChibiOS/os/test/include/ch_test.h"
 5260              		.file 16 "../ChibiOS/test/oslib/source/test/oslib_test_sequence_002.h"
 5261              		.section	.debug_info,"",%progbits
 5262              	.Ldebug_info0:
 5263 0000 072C0000 		.4byte	0x2c07
 5264 0004 0400     		.2byte	0x4
 5265 0006 00000000 		.4byte	.Ldebug_abbrev0
 5266 000a 04       		.byte	0x4
 5267 000b 01       		.uleb128 0x1
 5268 000c 94020000 		.4byte	.LASF96
 5269 0010 0C       		.byte	0xc
 5270 0011 72050000 		.4byte	.LASF97
 5271 0015 11040000 		.4byte	.LASF98
 5272 0019 F00E0000 		.4byte	.Ldebug_ranges0+0xef0
 5273 001d 00000000 		.4byte	0
 5274 0021 00000000 		.4byte	.Ldebug_line0
 5275 0025 02       		.uleb128 0x2
 5276 0026 04       		.byte	0x4
 5277 0027 05       		.byte	0x5
 5278 0028 696E7400 		.ascii	"int\000"
 5279 002c 03       		.uleb128 0x3
 5280 002d BA000000 		.4byte	.LASF4
 5281 0031 07       		.byte	0x7
 5282 0032 D1       		.byte	0xd1
 5283 0033 17       		.byte	0x17
 5284 0034 38000000 		.4byte	0x38
 5285 0038 04       		.uleb128 0x4
 5286 0039 04       		.byte	0x4
 5287 003a 07       		.byte	0x7
 5288 003b E9030000 		.4byte	.LASF0
 5289 003f 04       		.uleb128 0x4
 5290 0040 08       		.byte	0x8
 5291 0041 05       		.byte	0x5
 5292 0042 14020000 		.4byte	.LASF1
 5293 0046 04       		.uleb128 0x4
 5294 0047 08       		.byte	0x8
 5295 0048 04       		.byte	0x4
 5296 0049 00000000 		.4byte	.LASF2
 5297 004d 04       		.uleb128 0x4
 5298 004e 01       		.byte	0x1
 5299 004f 06       		.byte	0x6
 5300 0050 AB030000 		.4byte	.LASF3
 5301 0054 03       		.uleb128 0x3
 5302 0055 4F020000 		.4byte	.LASF5
 5303 0059 08       		.byte	0x8
 5304 005a 2B       		.byte	0x2b
 5305 005b 18       		.byte	0x18
 5306 005c 60000000 		.4byte	0x60
ARM GAS  /tmp/ccTMtxXw.s 			page 95


 5307 0060 04       		.uleb128 0x4
 5308 0061 01       		.byte	0x1
 5309 0062 08       		.byte	0x8
 5310 0063 5F030000 		.4byte	.LASF6
 5311 0067 04       		.uleb128 0x4
 5312 0068 02       		.byte	0x2
 5313 0069 05       		.byte	0x5
 5314 006a B0000000 		.4byte	.LASF7
 5315 006e 04       		.uleb128 0x4
 5316 006f 02       		.byte	0x2
 5317 0070 07       		.byte	0x7
 5318 0071 BB040000 		.4byte	.LASF8
 5319 0075 03       		.uleb128 0x3
 5320 0076 46050000 		.4byte	.LASF9
 5321 007a 08       		.byte	0x8
 5322 007b 4D       		.byte	0x4d
 5323 007c 18       		.byte	0x18
 5324 007d 81000000 		.4byte	0x81
 5325 0081 04       		.uleb128 0x4
 5326 0082 04       		.byte	0x4
 5327 0083 05       		.byte	0x5
 5328 0084 2A020000 		.4byte	.LASF10
 5329 0088 03       		.uleb128 0x3
 5330 0089 75020000 		.4byte	.LASF11
 5331 008d 08       		.byte	0x8
 5332 008e 4F       		.byte	0x4f
 5333 008f 19       		.byte	0x19
 5334 0090 94000000 		.4byte	0x94
 5335 0094 04       		.uleb128 0x4
 5336 0095 04       		.byte	0x4
 5337 0096 07       		.byte	0x7
 5338 0097 00050000 		.4byte	.LASF12
 5339 009b 04       		.uleb128 0x4
 5340 009c 08       		.byte	0x8
 5341 009d 07       		.byte	0x7
 5342 009e B7030000 		.4byte	.LASF13
 5343 00a2 03       		.uleb128 0x3
 5344 00a3 71010000 		.4byte	.LASF14
 5345 00a7 09       		.byte	0x9
 5346 00a8 18       		.byte	0x18
 5347 00a9 13       		.byte	0x13
 5348 00aa 54000000 		.4byte	0x54
 5349 00ae 05       		.uleb128 0x5
 5350 00af A2000000 		.4byte	0xa2
 5351 00b3 03       		.uleb128 0x3
 5352 00b4 A9040000 		.4byte	.LASF15
 5353 00b8 09       		.byte	0x9
 5354 00b9 2C       		.byte	0x2c
 5355 00ba 13       		.byte	0x13
 5356 00bb 75000000 		.4byte	0x75
 5357 00bf 03       		.uleb128 0x3
 5358 00c0 C2010000 		.4byte	.LASF16
 5359 00c4 09       		.byte	0x9
 5360 00c5 30       		.byte	0x30
 5361 00c6 14       		.byte	0x14
 5362 00c7 88000000 		.4byte	0x88
 5363 00cb 03       		.uleb128 0x3
ARM GAS  /tmp/ccTMtxXw.s 			page 96


 5364 00cc 27060000 		.4byte	.LASF17
 5365 00d0 0A       		.byte	0xa
 5366 00d1 58       		.byte	0x58
 5367 00d2 19       		.byte	0x19
 5368 00d3 B3000000 		.4byte	0xb3
 5369 00d7 06       		.uleb128 0x6
 5370 00d8 04       		.byte	0x4
 5371 00d9 E4000000 		.4byte	0xe4
 5372 00dd 04       		.uleb128 0x4
 5373 00de 01       		.byte	0x1
 5374 00df 08       		.byte	0x8
 5375 00e0 A4040000 		.4byte	.LASF18
 5376 00e4 05       		.uleb128 0x5
 5377 00e5 DD000000 		.4byte	0xdd
 5378 00e9 03       		.uleb128 0x3
 5379 00ea EB040000 		.4byte	.LASF19
 5380 00ee 0B       		.byte	0xb
 5381 00ef 79       		.byte	0x79
 5382 00f0 12       		.byte	0x12
 5383 00f1 BF000000 		.4byte	0xbf
 5384 00f5 03       		.uleb128 0x3
 5385 00f6 A8010000 		.4byte	.LASF20
 5386 00fa 0C       		.byte	0xc
 5387 00fb 3F       		.byte	0x3f
 5388 00fc 19       		.byte	0x19
 5389 00fd 01010000 		.4byte	0x101
 5390 0101 07       		.uleb128 0x7
 5391 0102 AE050000 		.4byte	.LASF23
 5392 0106 08       		.byte	0x8
 5393 0107 0C       		.byte	0xc
 5394 0108 45       		.byte	0x45
 5395 0109 08       		.byte	0x8
 5396 010a 29010000 		.4byte	0x129
 5397 010e 08       		.uleb128 0x8
 5398 010f 2D060000 		.4byte	.LASF21
 5399 0113 0C       		.byte	0xc
 5400 0114 46       		.byte	0x46
 5401 0115 1A       		.byte	0x1a
 5402 0116 29010000 		.4byte	0x129
 5403 011a 00       		.byte	0
 5404 011b 08       		.uleb128 0x8
 5405 011c 06060000 		.4byte	.LASF22
 5406 0120 0C       		.byte	0xc
 5407 0121 47       		.byte	0x47
 5408 0122 1A       		.byte	0x1a
 5409 0123 29010000 		.4byte	0x129
 5410 0127 04       		.byte	0x4
 5411 0128 00       		.byte	0
 5412 0129 06       		.uleb128 0x6
 5413 012a 04       		.byte	0x4
 5414 012b F5000000 		.4byte	0xf5
 5415 012f 09       		.uleb128 0x9
 5416 0130 04       		.byte	0x4
 5417 0131 07       		.uleb128 0x7
 5418 0132 79010000 		.4byte	.LASF24
 5419 0136 08       		.byte	0x8
 5420 0137 0D       		.byte	0xd
ARM GAS  /tmp/ccTMtxXw.s 			page 97


 5421 0138 8F       		.byte	0x8f
 5422 0139 10       		.byte	0x10
 5423 013a 4C010000 		.4byte	0x14c
 5424 013e 08       		.uleb128 0x8
 5425 013f 89020000 		.4byte	.LASF25
 5426 0143 0D       		.byte	0xd
 5427 0144 93       		.byte	0x93
 5428 0145 21       		.byte	0x21
 5429 0146 F5000000 		.4byte	0xf5
 5430 014a 00       		.byte	0
 5431 014b 00       		.byte	0
 5432 014c 03       		.uleb128 0x3
 5433 014d 59000000 		.4byte	.LASF26
 5434 0151 0D       		.byte	0xd
 5435 0152 94       		.byte	0x94
 5436 0153 03       		.byte	0x3
 5437 0154 31010000 		.4byte	0x131
 5438 0158 0A       		.uleb128 0xa
 5439 0159 28       		.byte	0x28
 5440 015a 05       		.byte	0x5
 5441 015b 34       		.byte	0x34
 5442 015c 09       		.byte	0x9
 5443 015d C8010000 		.4byte	0x1c8
 5444 0161 08       		.uleb128 0x8
 5445 0162 F9040000 		.4byte	.LASF27
 5446 0166 05       		.byte	0x5
 5447 0167 35       		.byte	0x35
 5448 0168 1A       		.byte	0x1a
 5449 0169 C8010000 		.4byte	0x1c8
 5450 016d 00       		.byte	0
 5451 016e 0B       		.uleb128 0xb
 5452 016f 746F7000 		.ascii	"top\000"
 5453 0173 05       		.byte	0x5
 5454 0174 37       		.byte	0x37
 5455 0175 1A       		.byte	0x1a
 5456 0176 C8010000 		.4byte	0x1c8
 5457 017a 04       		.byte	0x4
 5458 017b 08       		.uleb128 0x8
 5459 017c D8010000 		.4byte	.LASF28
 5460 0180 05       		.byte	0x5
 5461 0181 39       		.byte	0x39
 5462 0182 1A       		.byte	0x1a
 5463 0183 C8010000 		.4byte	0x1c8
 5464 0187 08       		.byte	0x8
 5465 0188 08       		.uleb128 0x8
 5466 0189 F0050000 		.4byte	.LASF29
 5467 018d 05       		.byte	0x5
 5468 018e 3A       		.byte	0x3a
 5469 018f 1A       		.byte	0x1a
 5470 0190 C8010000 		.4byte	0x1c8
 5471 0194 0C       		.byte	0xc
 5472 0195 0B       		.uleb128 0xb
 5473 0196 636E7400 		.ascii	"cnt\000"
 5474 019a 05       		.byte	0x5
 5475 019b 3B       		.byte	0x3b
 5476 019c 19       		.byte	0x19
 5477 019d 2C000000 		.4byte	0x2c
ARM GAS  /tmp/ccTMtxXw.s 			page 98


 5478 01a1 10       		.byte	0x10
 5479 01a2 08       		.uleb128 0x8
 5480 01a3 40050000 		.4byte	.LASF30
 5481 01a7 05       		.byte	0x5
 5482 01a8 3C       		.byte	0x3c
 5483 01a9 19       		.byte	0x19
 5484 01aa CE010000 		.4byte	0x1ce
 5485 01ae 14       		.byte	0x14
 5486 01af 0B       		.uleb128 0xb
 5487 01b0 717700   		.ascii	"qw\000"
 5488 01b3 05       		.byte	0x5
 5489 01b4 3D       		.byte	0x3d
 5490 01b5 19       		.byte	0x19
 5491 01b6 4C010000 		.4byte	0x14c
 5492 01ba 18       		.byte	0x18
 5493 01bb 0B       		.uleb128 0xb
 5494 01bc 717200   		.ascii	"qr\000"
 5495 01bf 05       		.byte	0x5
 5496 01c0 3E       		.byte	0x3e
 5497 01c1 19       		.byte	0x19
 5498 01c2 4C010000 		.4byte	0x14c
 5499 01c6 20       		.byte	0x20
 5500 01c7 00       		.byte	0
 5501 01c8 06       		.uleb128 0x6
 5502 01c9 04       		.byte	0x4
 5503 01ca CB000000 		.4byte	0xcb
 5504 01ce 04       		.uleb128 0x4
 5505 01cf 01       		.byte	0x1
 5506 01d0 02       		.byte	0x2
 5507 01d1 D9040000 		.4byte	.LASF31
 5508 01d5 03       		.uleb128 0x3
 5509 01d6 B1040000 		.4byte	.LASF32
 5510 01da 05       		.byte	0x5
 5511 01db 3F       		.byte	0x3f
 5512 01dc 03       		.byte	0x3
 5513 01dd 58010000 		.4byte	0x158
 5514 01e1 05       		.uleb128 0x5
 5515 01e2 D5010000 		.4byte	0x1d5
 5516 01e6 06       		.uleb128 0x6
 5517 01e7 04       		.byte	0x4
 5518 01e8 A2000000 		.4byte	0xa2
 5519 01ec 07       		.uleb128 0x7
 5520 01ed 32060000 		.4byte	.LASF33
 5521 01f1 14       		.byte	0x14
 5522 01f2 0E       		.byte	0xe
 5523 01f3 48       		.byte	0x48
 5524 01f4 08       		.byte	0x8
 5525 01f5 3B020000 		.4byte	0x23b
 5526 01f9 08       		.uleb128 0x8
 5527 01fa 0B060000 		.4byte	.LASF34
 5528 01fe 0E       		.byte	0xe
 5529 01ff 49       		.byte	0x49
 5530 0200 03       		.byte	0x3
 5531 0201 2C000000 		.4byte	0x2c
 5532 0205 00       		.byte	0
 5533 0206 08       		.uleb128 0x8
 5534 0207 69000000 		.4byte	.LASF35
ARM GAS  /tmp/ccTMtxXw.s 			page 99


 5535 020b 0E       		.byte	0xe
 5536 020c 49       		.byte	0x49
 5537 020d 03       		.byte	0x3
 5538 020e 5F020000 		.4byte	0x25f
 5539 0212 04       		.byte	0x4
 5540 0213 08       		.uleb128 0x8
 5541 0214 0F020000 		.4byte	.LASF36
 5542 0218 0E       		.byte	0xe
 5543 0219 49       		.byte	0x49
 5544 021a 03       		.byte	0x3
 5545 021b 7E020000 		.4byte	0x27e
 5546 021f 08       		.byte	0x8
 5547 0220 0B       		.uleb128 0xb
 5548 0221 70757400 		.ascii	"put\000"
 5549 0225 0E       		.byte	0xe
 5550 0226 49       		.byte	0x49
 5551 0227 03       		.byte	0x3
 5552 0228 98020000 		.4byte	0x298
 5553 022c 0C       		.byte	0xc
 5554 022d 0B       		.uleb128 0xb
 5555 022e 67657400 		.ascii	"get\000"
 5556 0232 0E       		.byte	0xe
 5557 0233 49       		.byte	0x49
 5558 0234 03       		.byte	0x3
 5559 0235 AD020000 		.4byte	0x2ad
 5560 0239 10       		.byte	0x10
 5561 023a 00       		.byte	0
 5562 023b 05       		.uleb128 0x5
 5563 023c EC010000 		.4byte	0x1ec
 5564 0240 0C       		.uleb128 0xc
 5565 0241 2C000000 		.4byte	0x2c
 5566 0245 59020000 		.4byte	0x259
 5567 0249 0D       		.uleb128 0xd
 5568 024a 2F010000 		.4byte	0x12f
 5569 024e 0D       		.uleb128 0xd
 5570 024f 59020000 		.4byte	0x259
 5571 0253 0D       		.uleb128 0xd
 5572 0254 2C000000 		.4byte	0x2c
 5573 0258 00       		.byte	0
 5574 0259 06       		.uleb128 0x6
 5575 025a 04       		.byte	0x4
 5576 025b AE000000 		.4byte	0xae
 5577 025f 06       		.uleb128 0x6
 5578 0260 04       		.byte	0x4
 5579 0261 40020000 		.4byte	0x240
 5580 0265 0C       		.uleb128 0xc
 5581 0266 2C000000 		.4byte	0x2c
 5582 026a 7E020000 		.4byte	0x27e
 5583 026e 0D       		.uleb128 0xd
 5584 026f 2F010000 		.4byte	0x12f
 5585 0273 0D       		.uleb128 0xd
 5586 0274 E6010000 		.4byte	0x1e6
 5587 0278 0D       		.uleb128 0xd
 5588 0279 2C000000 		.4byte	0x2c
 5589 027d 00       		.byte	0
 5590 027e 06       		.uleb128 0x6
 5591 027f 04       		.byte	0x4
ARM GAS  /tmp/ccTMtxXw.s 			page 100


 5592 0280 65020000 		.4byte	0x265
 5593 0284 0C       		.uleb128 0xc
 5594 0285 CB000000 		.4byte	0xcb
 5595 0289 98020000 		.4byte	0x298
 5596 028d 0D       		.uleb128 0xd
 5597 028e 2F010000 		.4byte	0x12f
 5598 0292 0D       		.uleb128 0xd
 5599 0293 A2000000 		.4byte	0xa2
 5600 0297 00       		.byte	0
 5601 0298 06       		.uleb128 0x6
 5602 0299 04       		.byte	0x4
 5603 029a 84020000 		.4byte	0x284
 5604 029e 0C       		.uleb128 0xc
 5605 029f CB000000 		.4byte	0xcb
 5606 02a3 AD020000 		.4byte	0x2ad
 5607 02a7 0D       		.uleb128 0xd
 5608 02a8 2F010000 		.4byte	0x12f
 5609 02ac 00       		.byte	0
 5610 02ad 06       		.uleb128 0x6
 5611 02ae 04       		.byte	0x4
 5612 02af 9E020000 		.4byte	0x29e
 5613 02b3 0A       		.uleb128 0xa
 5614 02b4 04       		.byte	0x4
 5615 02b5 0E       		.byte	0xe
 5616 02b6 53       		.byte	0x53
 5617 02b7 09       		.byte	0x9
 5618 02b8 CA020000 		.4byte	0x2ca
 5619 02bc 0B       		.uleb128 0xb
 5620 02bd 766D7400 		.ascii	"vmt\000"
 5621 02c1 0E       		.byte	0xe
 5622 02c2 55       		.byte	0x55
 5623 02c3 29       		.byte	0x29
 5624 02c4 CA020000 		.4byte	0x2ca
 5625 02c8 00       		.byte	0
 5626 02c9 00       		.byte	0
 5627 02ca 06       		.uleb128 0x6
 5628 02cb 04       		.byte	0x4
 5629 02cc 3B020000 		.4byte	0x23b
 5630 02d0 03       		.uleb128 0x3
 5631 02d1 F9000000 		.4byte	.LASF37
 5632 02d5 0E       		.byte	0xe
 5633 02d6 57       		.byte	0x57
 5634 02d7 03       		.byte	0x3
 5635 02d8 B3020000 		.4byte	0x2b3
 5636 02dc 03       		.uleb128 0x3
 5637 02dd B3010000 		.4byte	.LASF38
 5638 02e1 0F       		.byte	0xf
 5639 02e2 7D       		.byte	0x7d
 5640 02e3 0F       		.byte	0xf
 5641 02e4 E8020000 		.4byte	0x2e8
 5642 02e8 06       		.uleb128 0x6
 5643 02e9 04       		.byte	0x4
 5644 02ea EE020000 		.4byte	0x2ee
 5645 02ee 0C       		.uleb128 0xc
 5646 02ef 25000000 		.4byte	0x25
 5647 02f3 FD020000 		.4byte	0x2fd
 5648 02f7 0D       		.uleb128 0xd
ARM GAS  /tmp/ccTMtxXw.s 			page 101


 5649 02f8 25000000 		.4byte	0x25
 5650 02fc 00       		.byte	0
 5651 02fd 0A       		.uleb128 0xa
 5652 02fe 28       		.byte	0x28
 5653 02ff 0F       		.byte	0xf
 5654 0300 82       		.byte	0x82
 5655 0301 09       		.byte	0x9
 5656 0302 6F030000 		.4byte	0x36f
 5657 0306 08       		.uleb128 0x8
 5658 0307 CB010000 		.4byte	.LASF39
 5659 030b 0F       		.byte	0xf
 5660 030c 86       		.byte	0x86
 5661 030d 15       		.byte	0x15
 5662 030e 38000000 		.4byte	0x38
 5663 0312 00       		.byte	0
 5664 0313 08       		.uleb128 0x8
 5665 0314 D3000000 		.4byte	.LASF40
 5666 0318 0F       		.byte	0xf
 5667 0319 8A       		.byte	0x8a
 5668 031a 15       		.byte	0x15
 5669 031b CE010000 		.4byte	0x1ce
 5670 031f 04       		.byte	0x4
 5671 0320 08       		.uleb128 0x8
 5672 0321 76030000 		.4byte	.LASF41
 5673 0325 0F       		.byte	0xf
 5674 0326 8E       		.byte	0x8e
 5675 0327 15       		.byte	0x15
 5676 0328 CE010000 		.4byte	0x1ce
 5677 032c 05       		.byte	0x5
 5678 032d 08       		.uleb128 0x8
 5679 032e 33020000 		.4byte	.LASF42
 5680 0332 0F       		.byte	0xf
 5681 0333 92       		.byte	0x92
 5682 0334 16       		.byte	0x16
 5683 0335 D7000000 		.4byte	0xd7
 5684 0339 08       		.byte	0x8
 5685 033a 08       		.uleb128 0x8
 5686 033b 43020000 		.4byte	.LASF43
 5687 033f 0F       		.byte	0xf
 5688 0340 96       		.byte	0x96
 5689 0341 16       		.byte	0x16
 5690 0342 6F030000 		.4byte	0x36f
 5691 0346 0C       		.byte	0xc
 5692 0347 08       		.uleb128 0x8
 5693 0348 DE010000 		.4byte	.LASF44
 5694 034c 0F       		.byte	0xf
 5695 034d 9A       		.byte	0x9a
 5696 034e 15       		.byte	0x15
 5697 034f 75030000 		.4byte	0x375
 5698 0353 10       		.byte	0x10
 5699 0354 08       		.uleb128 0x8
 5700 0355 F1000000 		.4byte	.LASF45
 5701 0359 0F       		.byte	0xf
 5702 035a 9E       		.byte	0x9e
 5703 035b 15       		.byte	0x15
 5704 035c DC020000 		.4byte	0x2dc
 5705 0360 20       		.byte	0x20
ARM GAS  /tmp/ccTMtxXw.s 			page 102


 5706 0361 08       		.uleb128 0x8
 5707 0362 48020000 		.4byte	.LASF46
 5708 0366 0F       		.byte	0xf
 5709 0367 A3       		.byte	0xa3
 5710 0368 19       		.byte	0x19
 5711 0369 85030000 		.4byte	0x385
 5712 036d 24       		.byte	0x24
 5713 036e 00       		.byte	0
 5714 036f 06       		.uleb128 0x6
 5715 0370 04       		.byte	0x4
 5716 0371 DD000000 		.4byte	0xdd
 5717 0375 0E       		.uleb128 0xe
 5718 0376 DD000000 		.4byte	0xdd
 5719 037a 85030000 		.4byte	0x385
 5720 037e 0F       		.uleb128 0xf
 5721 037f 38000000 		.4byte	0x38
 5722 0383 0F       		.byte	0xf
 5723 0384 00       		.byte	0
 5724 0385 06       		.uleb128 0x6
 5725 0386 04       		.byte	0x4
 5726 0387 D0020000 		.4byte	0x2d0
 5727 038b 03       		.uleb128 0x3
 5728 038c 2E000000 		.4byte	.LASF47
 5729 0390 0F       		.byte	0xf
 5730 0391 A5       		.byte	0xa5
 5731 0392 03       		.byte	0x3
 5732 0393 FD020000 		.4byte	0x2fd
 5733 0397 0A       		.uleb128 0xa
 5734 0398 10       		.byte	0x10
 5735 0399 0F       		.byte	0xf
 5736 039a AA       		.byte	0xaa
 5737 039b 09       		.byte	0x9
 5738 039c D5030000 		.4byte	0x3d5
 5739 03a0 08       		.uleb128 0x8
 5740 03a1 8F020000 		.4byte	.LASF48
 5741 03a5 0F       		.byte	0xf
 5742 03a6 AB       		.byte	0xab
 5743 03a7 0F       		.byte	0xf
 5744 03a8 D7000000 		.4byte	0xd7
 5745 03ac 00       		.byte	0
 5746 03ad 08       		.uleb128 0x8
 5747 03ae FB010000 		.4byte	.LASF49
 5748 03b2 0F       		.byte	0xf
 5749 03b3 AC       		.byte	0xac
 5750 03b4 0A       		.byte	0xa
 5751 03b5 D6030000 		.4byte	0x3d6
 5752 03b9 04       		.byte	0x4
 5753 03ba 08       		.uleb128 0x8
 5754 03bb 80020000 		.4byte	.LASF50
 5755 03bf 0F       		.byte	0xf
 5756 03c0 AD       		.byte	0xad
 5757 03c1 0A       		.byte	0xa
 5758 03c2 D6030000 		.4byte	0x3d6
 5759 03c6 08       		.byte	0x8
 5760 03c7 08       		.uleb128 0x8
 5761 03c8 A8000000 		.4byte	.LASF51
 5762 03cc 0F       		.byte	0xf
ARM GAS  /tmp/ccTMtxXw.s 			page 103


 5763 03cd AE       		.byte	0xae
 5764 03ce 0A       		.byte	0xa
 5765 03cf D6030000 		.4byte	0x3d6
 5766 03d3 0C       		.byte	0xc
 5767 03d4 00       		.byte	0
 5768 03d5 10       		.uleb128 0x10
 5769 03d6 06       		.uleb128 0x6
 5770 03d7 04       		.byte	0x4
 5771 03d8 D5030000 		.4byte	0x3d5
 5772 03dc 03       		.uleb128 0x3
 5773 03dd 4C010000 		.4byte	.LASF52
 5774 03e1 0F       		.byte	0xf
 5775 03e2 AF       		.byte	0xaf
 5776 03e3 03       		.byte	0x3
 5777 03e4 97030000 		.4byte	0x397
 5778 03e8 05       		.uleb128 0x5
 5779 03e9 DC030000 		.4byte	0x3dc
 5780 03ed 0A       		.uleb128 0xa
 5781 03ee 08       		.byte	0x8
 5782 03ef 0F       		.byte	0xf
 5783 03f0 B4       		.byte	0xb4
 5784 03f1 09       		.byte	0x9
 5785 03f2 11040000 		.4byte	0x411
 5786 03f6 08       		.uleb128 0x8
 5787 03f7 8F020000 		.4byte	.LASF48
 5788 03fb 0F       		.byte	0xf
 5789 03fc B5       		.byte	0xb5
 5790 03fd 16       		.byte	0x16
 5791 03fe D7000000 		.4byte	0xd7
 5792 0402 00       		.byte	0
 5793 0403 08       		.uleb128 0x8
 5794 0404 0C000000 		.4byte	.LASF53
 5795 0408 0F       		.byte	0xf
 5796 0409 B6       		.byte	0xb6
 5797 040a 1E       		.byte	0x1e
 5798 040b 11040000 		.4byte	0x411
 5799 040f 04       		.byte	0x4
 5800 0410 00       		.byte	0
 5801 0411 06       		.uleb128 0x6
 5802 0412 04       		.byte	0x4
 5803 0413 1D040000 		.4byte	0x41d
 5804 0417 06       		.uleb128 0x6
 5805 0418 04       		.byte	0x4
 5806 0419 E8030000 		.4byte	0x3e8
 5807 041d 05       		.uleb128 0x5
 5808 041e 17040000 		.4byte	0x417
 5809 0422 03       		.uleb128 0x3
 5810 0423 3D010000 		.4byte	.LASF54
 5811 0427 0F       		.byte	0xf
 5812 0428 B7       		.byte	0xb7
 5813 0429 03       		.byte	0x3
 5814 042a ED030000 		.4byte	0x3ed
 5815 042e 05       		.uleb128 0x5
 5816 042f 22040000 		.4byte	0x422
 5817 0433 11       		.uleb128 0x11
 5818 0434 1C010000 		.4byte	.LASF55
 5819 0438 0F       		.byte	0xf
ARM GAS  /tmp/ccTMtxXw.s 			page 104


 5820 0439 2901     		.2byte	0x129
 5821 043b 1A       		.byte	0x1a
 5822 043c 8B030000 		.4byte	0x38b
 5823 0440 12       		.uleb128 0x12
 5824 0441 8C040000 		.4byte	.LASF56
 5825 0445 10       		.byte	0x10
 5826 0446 19       		.byte	0x19
 5827 0447 1D       		.byte	0x1d
 5828 0448 2E040000 		.4byte	0x42e
 5829 044c 0E       		.uleb128 0xe
 5830 044d CB000000 		.4byte	0xcb
 5831 0451 5C040000 		.4byte	0x45c
 5832 0455 0F       		.uleb128 0xf
 5833 0456 38000000 		.4byte	0x38
 5834 045a 03       		.byte	0x3
 5835 045b 00       		.byte	0
 5836 045c 13       		.uleb128 0x13
 5837 045d 33010000 		.4byte	.LASF57
 5838 0461 01       		.byte	0x1
 5839 0462 35       		.byte	0x35
 5840 0463 0E       		.byte	0xe
 5841 0464 4C040000 		.4byte	0x44c
 5842 0468 05       		.uleb128 0x5
 5843 0469 03       		.byte	0x3
 5844 046a 00000000 		.4byte	mb_buffer
 5845 046e 14       		.uleb128 0x14
 5846 046f 6D623100 		.ascii	"mb1\000"
 5847 0473 01       		.byte	0x1
 5848 0474 36       		.byte	0x36
 5849 0475 08       		.byte	0x8
 5850 0476 D5010000 		.4byte	0x1d5
 5851 047a 05       		.uleb128 0x5
 5852 047b 03       		.byte	0x3
 5853 047c 00000000 		.4byte	mb1
 5854 0480 13       		.uleb128 0x13
 5855 0481 B7050000 		.4byte	.LASF58
 5856 0485 01       		.byte	0x1
 5857 0486 BE       		.byte	0xbe
 5858 0487 19       		.byte	0x19
 5859 0488 E8030000 		.4byte	0x3e8
 5860 048c 05       		.uleb128 0x5
 5861 048d 03       		.byte	0x3
 5862 048e 00000000 		.4byte	oslib_test_002_001
 5863 0492 15       		.uleb128 0x15
 5864 0493 CA050000 		.4byte	.LASF59
 5865 0497 01       		.byte	0x1
 5866 0498 4001     		.2byte	0x140
 5867 049a 19       		.byte	0x19
 5868 049b E8030000 		.4byte	0x3e8
 5869 049f 05       		.uleb128 0x5
 5870 04a0 03       		.byte	0x3
 5871 04a1 00000000 		.4byte	oslib_test_002_002
 5872 04a5 15       		.uleb128 0x15
 5873 04a6 DD050000 		.4byte	.LASF60
 5874 04aa 01       		.byte	0x1
 5875 04ab 9601     		.2byte	0x196
 5876 04ad 19       		.byte	0x19
ARM GAS  /tmp/ccTMtxXw.s 			page 105


 5877 04ae E8030000 		.4byte	0x3e8
 5878 04b2 05       		.uleb128 0x5
 5879 04b3 03       		.byte	0x3
 5880 04b4 00000000 		.4byte	oslib_test_002_003
 5881 04b8 0E       		.uleb128 0xe
 5882 04b9 1D040000 		.4byte	0x41d
 5883 04bd C8040000 		.4byte	0x4c8
 5884 04c1 0F       		.uleb128 0xf
 5885 04c2 38000000 		.4byte	0x38
 5886 04c6 03       		.byte	0x3
 5887 04c7 00       		.byte	0
 5888 04c8 05       		.uleb128 0x5
 5889 04c9 B8040000 		.4byte	0x4b8
 5890 04cd 16       		.uleb128 0x16
 5891 04ce 8A010000 		.4byte	.LASF61
 5892 04d2 01       		.byte	0x1
 5893 04d3 A401     		.2byte	0x1a4
 5894 04d5 1A       		.byte	0x1a
 5895 04d6 C8040000 		.4byte	0x4c8
 5896 04da 05       		.uleb128 0x5
 5897 04db 03       		.byte	0x3
 5898 04dc 00000000 		.4byte	oslib_test_sequence_002_array
 5899 04e0 17       		.uleb128 0x17
 5900 04e1 40040000 		.4byte	0x440
 5901 04e5 01       		.byte	0x1
 5902 04e6 AE01     		.2byte	0x1ae
 5903 04e8 16       		.byte	0x16
 5904 04e9 05       		.uleb128 0x5
 5905 04ea 03       		.byte	0x3
 5906 04eb 00000000 		.4byte	oslib_test_sequence_002
 5907 04ef 18       		.uleb128 0x18
 5908 04f0 F6030000 		.4byte	.LASF99
 5909 04f4 01       		.byte	0x1
 5910 04f5 5F01     		.2byte	0x15f
 5911 04f7 0D       		.byte	0xd
 5912 04f8 00000000 		.4byte	.LFB412
 5913 04fc 24010000 		.4byte	.LFE412-.LFB412
 5914 0500 01       		.uleb128 0x1
 5915 0501 9C       		.byte	0x9c
 5916 0502 D2080000 		.4byte	0x8d2
 5917 0506 19       		.uleb128 0x19
 5918 0507 A6030000 		.4byte	.LASF62
 5919 050b 01       		.byte	0x1
 5920 050c 6001     		.2byte	0x160
 5921 050e 09       		.byte	0x9
 5922 050f CB000000 		.4byte	0xcb
 5923 0513 1A000000 		.4byte	.LLST0
 5924 0517 00000000 		.4byte	.LVUS0
 5925 051b 15       		.uleb128 0x15
 5926 051c F6010000 		.4byte	.LASF63
 5927 0520 01       		.byte	0x1
 5928 0521 6001     		.2byte	0x160
 5929 0523 0F       		.byte	0xf
 5930 0524 CB000000 		.4byte	0xcb
 5931 0528 02       		.uleb128 0x2
 5932 0529 91       		.byte	0x91
 5933 052a 64       		.sleb128 -28
ARM GAS  /tmp/ccTMtxXw.s 			page 106


 5934 052b 1A       		.uleb128 0x1a
 5935 052c 6900     		.ascii	"i\000"
 5936 052e 01       		.byte	0x1
 5937 052f 6101     		.2byte	0x161
 5938 0531 0C       		.byte	0xc
 5939 0532 38000000 		.4byte	0x38
 5940 0536 C3000000 		.4byte	.LLST1
 5941 053a BD000000 		.4byte	.LVUS1
 5942 053e 1B       		.uleb128 0x1b
 5943 053f 270A0000 		.4byte	0xa27
 5944 0543 56000000 		.4byte	.LBI1004
 5945 0547 0200     		.2byte	.LVU39
 5946 0549 00000000 		.4byte	.Ldebug_ranges0+0
 5947 054d 01       		.byte	0x1
 5948 054e 7301     		.2byte	0x173
 5949 0550 05       		.byte	0x5
 5950 0551 8F050000 		.4byte	0x58f
 5951 0555 1C       		.uleb128 0x1c
 5952 0556 3B0A0000 		.4byte	0xa3b
 5953 055a 56000000 		.4byte	.LBI1005
 5954 055e 0400     		.2byte	.LVU41
 5955 0560 08000000 		.4byte	.Ldebug_ranges0+0x8
 5956 0564 02       		.byte	0x2
 5957 0565 9901     		.2byte	0x199
 5958 0567 03       		.byte	0x3
 5959 0568 1D       		.uleb128 0x1d
 5960 0569 450A0000 		.4byte	0xa45
 5961 056d 56000000 		.4byte	.LBI1006
 5962 0571 0600     		.2byte	.LVU43
 5963 0573 56000000 		.4byte	.LBB1006
 5964 0577 06000000 		.4byte	.LBE1006-.LBB1006
 5965 057b 03       		.byte	0x3
 5966 057c 2E03     		.2byte	0x32e
 5967 057e 03       		.byte	0x3
 5968 057f 1E       		.uleb128 0x1e
 5969 0580 530A0000 		.4byte	0xa53
 5970 0584 F5000000 		.4byte	.LLST2
 5971 0588 F3000000 		.4byte	.LVUS2
 5972 058c 00       		.byte	0
 5973 058d 00       		.byte	0
 5974 058e 00       		.byte	0
 5975 058f 1B       		.uleb128 0x1b
 5976 0590 FA090000 		.4byte	0x9fa
 5977 0594 64000000 		.4byte	.LBI1011
 5978 0598 0100     		.2byte	.LVU51
 5979 059a 20000000 		.4byte	.Ldebug_ranges0+0x20
 5980 059e 01       		.byte	0x1
 5981 059f 7501     		.2byte	0x175
 5982 05a1 05       		.byte	0x5
 5983 05a2 E6050000 		.4byte	0x5e6
 5984 05a6 1F       		.uleb128 0x1f
 5985 05a7 20000000 		.4byte	.Ldebug_ranges0+0x20
 5986 05ab 1C       		.uleb128 0x1c
 5987 05ac 310A0000 		.4byte	0xa31
 5988 05b0 64000000 		.4byte	.LBI1013
 5989 05b4 0800     		.2byte	.LVU58
 5990 05b6 20000000 		.4byte	.Ldebug_ranges0+0x20
ARM GAS  /tmp/ccTMtxXw.s 			page 107


 5991 05ba 02       		.byte	0x2
 5992 05bb B201     		.2byte	0x1b2
 5993 05bd 03       		.byte	0x3
 5994 05be 1D       		.uleb128 0x1d
 5995 05bf 450A0000 		.4byte	0xa45
 5996 05c3 64000000 		.4byte	.LBI1014
 5997 05c7 0A00     		.2byte	.LVU60
 5998 05c9 64000000 		.4byte	.LBB1014
 5999 05cd 04000000 		.4byte	.LBE1014-.LBB1014
 6000 05d1 03       		.byte	0x3
 6001 05d2 4103     		.2byte	0x341
 6002 05d4 03       		.byte	0x3
 6003 05d5 1E       		.uleb128 0x1e
 6004 05d6 530A0000 		.4byte	0xa53
 6005 05da 0C010000 		.4byte	.LLST3
 6006 05de 0A010000 		.4byte	.LVUS3
 6007 05e2 00       		.byte	0
 6008 05e3 00       		.byte	0
 6009 05e4 00       		.byte	0
 6010 05e5 00       		.byte	0
 6011 05e6 1B       		.uleb128 0x1b
 6012 05e7 270A0000 		.4byte	0xa27
 6013 05eb 9C000000 		.4byte	.LBI1019
 6014 05ef 0200     		.2byte	.LVU74
 6015 05f1 38000000 		.4byte	.Ldebug_ranges0+0x38
 6016 05f5 01       		.byte	0x1
 6017 05f6 7901     		.2byte	0x179
 6018 05f8 05       		.byte	0x5
 6019 05f9 37060000 		.4byte	0x637
 6020 05fd 1C       		.uleb128 0x1c
 6021 05fe 3B0A0000 		.4byte	0xa3b
 6022 0602 9C000000 		.4byte	.LBI1020
 6023 0606 0400     		.2byte	.LVU76
 6024 0608 40000000 		.4byte	.Ldebug_ranges0+0x40
 6025 060c 02       		.byte	0x2
 6026 060d 9901     		.2byte	0x199
 6027 060f 03       		.byte	0x3
 6028 0610 1D       		.uleb128 0x1d
 6029 0611 450A0000 		.4byte	0xa45
 6030 0615 9C000000 		.4byte	.LBI1021
 6031 0619 0600     		.2byte	.LVU78
 6032 061b 9C000000 		.4byte	.LBB1021
 6033 061f 04000000 		.4byte	.LBE1021-.LBB1021
 6034 0623 03       		.byte	0x3
 6035 0624 2E03     		.2byte	0x32e
 6036 0626 03       		.byte	0x3
 6037 0627 1E       		.uleb128 0x1e
 6038 0628 530A0000 		.4byte	0xa53
 6039 062c 22010000 		.4byte	.LLST4
 6040 0630 20010000 		.4byte	.LVUS4
 6041 0634 00       		.byte	0
 6042 0635 00       		.byte	0
 6043 0636 00       		.byte	0
 6044 0637 1B       		.uleb128 0x1b
 6045 0638 FA090000 		.4byte	0x9fa
 6046 063c A8000000 		.4byte	.LBI1026
 6047 0640 0100     		.2byte	.LVU86
ARM GAS  /tmp/ccTMtxXw.s 			page 108


 6048 0642 58000000 		.4byte	.Ldebug_ranges0+0x58
 6049 0646 01       		.byte	0x1
 6050 0647 7B01     		.2byte	0x17b
 6051 0649 05       		.byte	0x5
 6052 064a 8E060000 		.4byte	0x68e
 6053 064e 1F       		.uleb128 0x1f
 6054 064f 58000000 		.4byte	.Ldebug_ranges0+0x58
 6055 0653 1C       		.uleb128 0x1c
 6056 0654 310A0000 		.4byte	0xa31
 6057 0658 A8000000 		.4byte	.LBI1028
 6058 065c 0800     		.2byte	.LVU93
 6059 065e 58000000 		.4byte	.Ldebug_ranges0+0x58
 6060 0662 02       		.byte	0x2
 6061 0663 B201     		.2byte	0x1b2
 6062 0665 03       		.byte	0x3
 6063 0666 1D       		.uleb128 0x1d
 6064 0667 450A0000 		.4byte	0xa45
 6065 066b A8000000 		.4byte	.LBI1029
 6066 066f 0A00     		.2byte	.LVU95
 6067 0671 A8000000 		.4byte	.LBB1029
 6068 0675 04000000 		.4byte	.LBE1029-.LBB1029
 6069 0679 03       		.byte	0x3
 6070 067a 4103     		.2byte	0x341
 6071 067c 03       		.byte	0x3
 6072 067d 1E       		.uleb128 0x1e
 6073 067e 530A0000 		.4byte	0xa53
 6074 0682 39010000 		.4byte	.LLST5
 6075 0686 37010000 		.4byte	.LVUS5
 6076 068a 00       		.byte	0
 6077 068b 00       		.byte	0
 6078 068c 00       		.byte	0
 6079 068d 00       		.byte	0
 6080 068e 1B       		.uleb128 0x1b
 6081 068f 7A090000 		.4byte	0x97a
 6082 0693 CC000000 		.4byte	.LBI1034
 6083 0697 0100     		.2byte	.LVU109
 6084 0699 70000000 		.4byte	.Ldebug_ranges0+0x70
 6085 069d 01       		.byte	0x1
 6086 069e 8501     		.2byte	0x185
 6087 06a0 05       		.byte	0x5
 6088 06a1 B3060000 		.4byte	0x6b3
 6089 06a5 1E       		.uleb128 0x1e
 6090 06a6 87090000 		.4byte	0x987
 6091 06aa 4F010000 		.4byte	.LLST6
 6092 06ae 4D010000 		.4byte	.LVUS6
 6093 06b2 00       		.byte	0
 6094 06b3 1B       		.uleb128 0x1b
 6095 06b4 270A0000 		.4byte	0xa27
 6096 06b8 F4000000 		.4byte	.LBI1038
 6097 06bc 0200     		.2byte	.LVU126
 6098 06be 88000000 		.4byte	.Ldebug_ranges0+0x88
 6099 06c2 01       		.byte	0x1
 6100 06c3 8E01     		.2byte	0x18e
 6101 06c5 05       		.byte	0x5
 6102 06c6 04070000 		.4byte	0x704
 6103 06ca 1C       		.uleb128 0x1c
 6104 06cb 3B0A0000 		.4byte	0xa3b
ARM GAS  /tmp/ccTMtxXw.s 			page 109


 6105 06cf F4000000 		.4byte	.LBI1039
 6106 06d3 0400     		.2byte	.LVU128
 6107 06d5 90000000 		.4byte	.Ldebug_ranges0+0x90
 6108 06d9 02       		.byte	0x2
 6109 06da 9901     		.2byte	0x199
 6110 06dc 03       		.byte	0x3
 6111 06dd 1D       		.uleb128 0x1d
 6112 06de 450A0000 		.4byte	0xa45
 6113 06e2 F4000000 		.4byte	.LBI1040
 6114 06e6 0600     		.2byte	.LVU130
 6115 06e8 F4000000 		.4byte	.LBB1040
 6116 06ec 04000000 		.4byte	.LBE1040-.LBB1040
 6117 06f0 03       		.byte	0x3
 6118 06f1 2E03     		.2byte	0x32e
 6119 06f3 03       		.byte	0x3
 6120 06f4 1E       		.uleb128 0x1e
 6121 06f5 530A0000 		.4byte	0xa53
 6122 06f9 69010000 		.4byte	.LLST7
 6123 06fd 67010000 		.4byte	.LVUS7
 6124 0701 00       		.byte	0
 6125 0702 00       		.byte	0
 6126 0703 00       		.byte	0
 6127 0704 1B       		.uleb128 0x1b
 6128 0705 FA090000 		.4byte	0x9fa
 6129 0709 00010000 		.4byte	.LBI1045
 6130 070d 0100     		.2byte	.LVU138
 6131 070f A8000000 		.4byte	.Ldebug_ranges0+0xa8
 6132 0713 01       		.byte	0x1
 6133 0714 9001     		.2byte	0x190
 6134 0716 05       		.byte	0x5
 6135 0717 5B070000 		.4byte	0x75b
 6136 071b 1F       		.uleb128 0x1f
 6137 071c A8000000 		.4byte	.Ldebug_ranges0+0xa8
 6138 0720 1C       		.uleb128 0x1c
 6139 0721 310A0000 		.4byte	0xa31
 6140 0725 00010000 		.4byte	.LBI1047
 6141 0729 0800     		.2byte	.LVU145
 6142 072b A8000000 		.4byte	.Ldebug_ranges0+0xa8
 6143 072f 02       		.byte	0x2
 6144 0730 B201     		.2byte	0x1b2
 6145 0732 03       		.byte	0x3
 6146 0733 1D       		.uleb128 0x1d
 6147 0734 450A0000 		.4byte	0xa45
 6148 0738 00010000 		.4byte	.LBI1048
 6149 073c 0A00     		.2byte	.LVU147
 6150 073e 00010000 		.4byte	.LBB1048
 6151 0742 04000000 		.4byte	.LBE1048-.LBB1048
 6152 0746 03       		.byte	0x3
 6153 0747 4103     		.2byte	0x341
 6154 0749 03       		.byte	0x3
 6155 074a 1E       		.uleb128 0x1e
 6156 074b 530A0000 		.4byte	0xa53
 6157 074f 80010000 		.4byte	.LLST8
 6158 0753 7E010000 		.4byte	.LVUS8
 6159 0757 00       		.byte	0
 6160 0758 00       		.byte	0
 6161 0759 00       		.byte	0
ARM GAS  /tmp/ccTMtxXw.s 			page 110


 6162 075a 00       		.byte	0
 6163 075b 20       		.uleb128 0x20
 6164 075c 1C000000 		.4byte	.LVL3
 6165 0760 772B0000 		.4byte	0x2b77
 6166 0764 7B070000 		.4byte	0x77b
 6167 0768 21       		.uleb128 0x21
 6168 0769 01       		.uleb128 0x1
 6169 076a 50       		.byte	0x50
 6170 076b 02       		.uleb128 0x2
 6171 076c 75       		.byte	0x75
 6172 076d 00       		.sleb128 0
 6173 076e 21       		.uleb128 0x21
 6174 076f 01       		.uleb128 0x1
 6175 0770 51       		.byte	0x51
 6176 0771 02       		.uleb128 0x2
 6177 0772 74       		.byte	0x74
 6178 0773 00       		.sleb128 0
 6179 0774 21       		.uleb128 0x21
 6180 0775 01       		.uleb128 0x1
 6181 0776 52       		.byte	0x52
 6182 0777 02       		.uleb128 0x2
 6183 0778 09       		.byte	0x9
 6184 0779 FF       		.byte	0xff
 6185 077a 00       		.byte	0
 6186 077b 20       		.uleb128 0x20
 6187 077c 2A000000 		.4byte	.LVL6
 6188 0780 832B0000 		.4byte	0x2b83
 6189 0784 8F070000 		.4byte	0x78f
 6190 0788 21       		.uleb128 0x21
 6191 0789 01       		.uleb128 0x1
 6192 078a 51       		.byte	0x51
 6193 078b 02       		.uleb128 0x2
 6194 078c 76       		.byte	0x76
 6195 078d 00       		.sleb128 0
 6196 078e 00       		.byte	0
 6197 078f 20       		.uleb128 0x20
 6198 0790 3E000000 		.4byte	.LVL7
 6199 0794 772B0000 		.4byte	0x2b77
 6200 0798 AE070000 		.4byte	0x7ae
 6201 079c 21       		.uleb128 0x21
 6202 079d 01       		.uleb128 0x1
 6203 079e 50       		.byte	0x50
 6204 079f 02       		.uleb128 0x2
 6205 07a0 75       		.byte	0x75
 6206 07a1 00       		.sleb128 0
 6207 07a2 21       		.uleb128 0x21
 6208 07a3 01       		.uleb128 0x1
 6209 07a4 51       		.byte	0x51
 6210 07a5 02       		.uleb128 0x2
 6211 07a6 08       		.byte	0x8
 6212 07a7 58       		.byte	0x58
 6213 07a8 21       		.uleb128 0x21
 6214 07a9 01       		.uleb128 0x1
 6215 07aa 52       		.byte	0x52
 6216 07ab 01       		.uleb128 0x1
 6217 07ac 31       		.byte	0x31
 6218 07ad 00       		.byte	0
ARM GAS  /tmp/ccTMtxXw.s 			page 111


 6219 07ae 20       		.uleb128 0x20
 6220 07af 4E000000 		.4byte	.LVL10
 6221 07b3 832B0000 		.4byte	0x2b83
 6222 07b7 C2070000 		.4byte	0x7c2
 6223 07bb 21       		.uleb128 0x21
 6224 07bc 01       		.uleb128 0x1
 6225 07bd 51       		.byte	0x51
 6226 07be 02       		.uleb128 0x2
 6227 07bf 76       		.byte	0x76
 6228 07c0 00       		.sleb128 0
 6229 07c1 00       		.byte	0
 6230 07c2 20       		.uleb128 0x20
 6231 07c3 64000000 		.4byte	.LVL13
 6232 07c7 902B0000 		.4byte	0x2b90
 6233 07cb DC070000 		.4byte	0x7dc
 6234 07cf 21       		.uleb128 0x21
 6235 07d0 01       		.uleb128 0x1
 6236 07d1 50       		.byte	0x50
 6237 07d2 02       		.uleb128 0x2
 6238 07d3 75       		.byte	0x75
 6239 07d4 00       		.sleb128 0
 6240 07d5 21       		.uleb128 0x21
 6241 07d6 01       		.uleb128 0x1
 6242 07d7 51       		.byte	0x51
 6243 07d8 02       		.uleb128 0x2
 6244 07d9 08       		.byte	0x8
 6245 07da 58       		.byte	0x58
 6246 07db 00       		.byte	0
 6247 07dc 20       		.uleb128 0x20
 6248 07dd 78000000 		.4byte	.LVL17
 6249 07e1 832B0000 		.4byte	0x2b83
 6250 07e5 F3070000 		.4byte	0x7f3
 6251 07e9 21       		.uleb128 0x21
 6252 07ea 01       		.uleb128 0x1
 6253 07eb 51       		.byte	0x51
 6254 07ec 05       		.uleb128 0x5
 6255 07ed 03       		.byte	0x3
 6256 07ee 00000000 		.4byte	.LC0
 6257 07f2 00       		.byte	0
 6258 07f3 20       		.uleb128 0x20
 6259 07f4 86000000 		.4byte	.LVL18
 6260 07f8 9C2B0000 		.4byte	0x2b9c
 6261 07fc 12080000 		.4byte	0x812
 6262 0800 21       		.uleb128 0x21
 6263 0801 01       		.uleb128 0x1
 6264 0802 50       		.byte	0x50
 6265 0803 02       		.uleb128 0x2
 6266 0804 75       		.byte	0x75
 6267 0805 00       		.sleb128 0
 6268 0806 21       		.uleb128 0x21
 6269 0807 01       		.uleb128 0x1
 6270 0808 51       		.byte	0x51
 6271 0809 02       		.uleb128 0x2
 6272 080a 08       		.byte	0x8
 6273 080b 58       		.byte	0x58
 6274 080c 21       		.uleb128 0x21
 6275 080d 01       		.uleb128 0x1
ARM GAS  /tmp/ccTMtxXw.s 			page 112


 6276 080e 52       		.byte	0x52
 6277 080f 01       		.uleb128 0x1
 6278 0810 31       		.byte	0x31
 6279 0811 00       		.byte	0
 6280 0812 20       		.uleb128 0x20
 6281 0813 96000000 		.4byte	.LVL21
 6282 0817 832B0000 		.4byte	0x2b83
 6283 081b 29080000 		.4byte	0x829
 6284 081f 21       		.uleb128 0x21
 6285 0820 01       		.uleb128 0x1
 6286 0821 51       		.byte	0x51
 6287 0822 05       		.uleb128 0x5
 6288 0823 03       		.byte	0x3
 6289 0824 00000000 		.4byte	.LC0
 6290 0828 00       		.byte	0
 6291 0829 20       		.uleb128 0x20
 6292 082a A8000000 		.4byte	.LVL24
 6293 082e A82B0000 		.4byte	0x2ba8
 6294 0832 43080000 		.4byte	0x843
 6295 0836 21       		.uleb128 0x21
 6296 0837 01       		.uleb128 0x1
 6297 0838 50       		.byte	0x50
 6298 0839 02       		.uleb128 0x2
 6299 083a 75       		.byte	0x75
 6300 083b 00       		.sleb128 0
 6301 083c 21       		.uleb128 0x21
 6302 083d 01       		.uleb128 0x1
 6303 083e 51       		.byte	0x51
 6304 083f 02       		.uleb128 0x2
 6305 0840 08       		.byte	0x8
 6306 0841 58       		.byte	0x58
 6307 0842 00       		.byte	0
 6308 0843 20       		.uleb128 0x20
 6309 0844 BC000000 		.4byte	.LVL28
 6310 0848 832B0000 		.4byte	0x2b83
 6311 084c 5A080000 		.4byte	0x85a
 6312 0850 21       		.uleb128 0x21
 6313 0851 01       		.uleb128 0x1
 6314 0852 51       		.byte	0x51
 6315 0853 05       		.uleb128 0x5
 6316 0854 03       		.byte	0x3
 6317 0855 00000000 		.4byte	.LC0
 6318 0859 00       		.byte	0
 6319 085a 20       		.uleb128 0x20
 6320 085b CC000000 		.4byte	.LVL29
 6321 085f B42B0000 		.4byte	0x2bb4
 6322 0863 6E080000 		.4byte	0x86e
 6323 0867 21       		.uleb128 0x21
 6324 0868 01       		.uleb128 0x1
 6325 0869 50       		.byte	0x50
 6326 086a 02       		.uleb128 0x2
 6327 086b 75       		.byte	0x75
 6328 086c 00       		.sleb128 0
 6329 086d 00       		.byte	0
 6330 086e 20       		.uleb128 0x20
 6331 086f DE000000 		.4byte	.LVL31
 6332 0873 C02B0000 		.4byte	0x2bc0
ARM GAS  /tmp/ccTMtxXw.s 			page 113


 6333 0877 8D080000 		.4byte	0x88d
 6334 087b 21       		.uleb128 0x21
 6335 087c 01       		.uleb128 0x1
 6336 087d 50       		.byte	0x50
 6337 087e 02       		.uleb128 0x2
 6338 087f 75       		.byte	0x75
 6339 0880 00       		.sleb128 0
 6340 0881 21       		.uleb128 0x21
 6341 0882 01       		.uleb128 0x1
 6342 0883 51       		.byte	0x51
 6343 0884 02       		.uleb128 0x2
 6344 0885 91       		.byte	0x91
 6345 0886 64       		.sleb128 -28
 6346 0887 21       		.uleb128 0x21
 6347 0888 01       		.uleb128 0x1
 6348 0889 52       		.byte	0x52
 6349 088a 01       		.uleb128 0x1
 6350 088b 31       		.byte	0x31
 6351 088c 00       		.byte	0
 6352 088d 20       		.uleb128 0x20
 6353 088e EE000000 		.4byte	.LVL34
 6354 0892 832B0000 		.4byte	0x2b83
 6355 0896 A4080000 		.4byte	0x8a4
 6356 089a 21       		.uleb128 0x21
 6357 089b 01       		.uleb128 0x1
 6358 089c 51       		.byte	0x51
 6359 089d 05       		.uleb128 0x5
 6360 089e 03       		.byte	0x3
 6361 089f 00000000 		.4byte	.LC0
 6362 08a3 00       		.byte	0
 6363 08a4 20       		.uleb128 0x20
 6364 08a5 00010000 		.4byte	.LVL37
 6365 08a9 CC2B0000 		.4byte	0x2bcc
 6366 08ad BE080000 		.4byte	0x8be
 6367 08b1 21       		.uleb128 0x21
 6368 08b2 01       		.uleb128 0x1
 6369 08b3 50       		.byte	0x50
 6370 08b4 02       		.uleb128 0x2
 6371 08b5 75       		.byte	0x75
 6372 08b6 00       		.sleb128 0
 6373 08b7 21       		.uleb128 0x21
 6374 08b8 01       		.uleb128 0x1
 6375 08b9 51       		.byte	0x51
 6376 08ba 02       		.uleb128 0x2
 6377 08bb 91       		.byte	0x91
 6378 08bc 64       		.sleb128 -28
 6379 08bd 00       		.byte	0
 6380 08be 22       		.uleb128 0x22
 6381 08bf 14010000 		.4byte	.LVL41
 6382 08c3 832B0000 		.4byte	0x2b83
 6383 08c7 21       		.uleb128 0x21
 6384 08c8 01       		.uleb128 0x1
 6385 08c9 51       		.byte	0x51
 6386 08ca 05       		.uleb128 0x5
 6387 08cb 03       		.byte	0x3
 6388 08cc 00000000 		.4byte	.LC0
 6389 08d0 00       		.byte	0
ARM GAS  /tmp/ccTMtxXw.s 			page 114


 6390 08d1 00       		.byte	0
 6391 08d2 23       		.uleb128 0x23
 6392 08d3 59020000 		.4byte	.LASF64
 6393 08d7 01       		.byte	0x1
 6394 08d8 5B01     		.2byte	0x15b
 6395 08da 0D       		.byte	0xd
 6396 08db 23       		.uleb128 0x23
 6397 08dc 73040000 		.4byte	.LASF65
 6398 08e0 01       		.byte	0x1
 6399 08e1 5701     		.2byte	0x157
 6400 08e3 0D       		.byte	0xd
 6401 08e4 24       		.uleb128 0x24
 6402 08e5 CE030000 		.4byte	.LASF68
 6403 08e9 01       		.byte	0x1
 6404 08ea E5       		.byte	0xe5
 6405 08eb 0D       		.byte	0xd
 6406 08ec 01       		.byte	0x1
 6407 08ed 14090000 		.4byte	0x914
 6408 08f1 25       		.uleb128 0x25
 6409 08f2 A6030000 		.4byte	.LASF62
 6410 08f6 01       		.byte	0x1
 6411 08f7 E6       		.byte	0xe6
 6412 08f8 09       		.byte	0x9
 6413 08f9 CB000000 		.4byte	0xcb
 6414 08fd 25       		.uleb128 0x25
 6415 08fe F6010000 		.4byte	.LASF63
 6416 0902 01       		.byte	0x1
 6417 0903 E6       		.byte	0xe6
 6418 0904 0F       		.byte	0xf
 6419 0905 CB000000 		.4byte	0xcb
 6420 0909 26       		.uleb128 0x26
 6421 090a 6900     		.ascii	"i\000"
 6422 090c 01       		.byte	0x1
 6423 090d E7       		.byte	0xe7
 6424 090e 0C       		.byte	0xc
 6425 090f 38000000 		.4byte	0x38
 6426 0913 00       		.byte	0
 6427 0914 27       		.uleb128 0x27
 6428 0915 12000000 		.4byte	.LASF66
 6429 0919 01       		.byte	0x1
 6430 091a E1       		.byte	0xe1
 6431 091b 0D       		.byte	0xd
 6432 091c 27       		.uleb128 0x27
 6433 091d 8F000000 		.4byte	.LASF67
 6434 0921 01       		.byte	0x1
 6435 0922 DD       		.byte	0xdd
 6436 0923 0D       		.byte	0xd
 6437 0924 24       		.uleb128 0x24
 6438 0925 81030000 		.4byte	.LASF69
 6439 0929 01       		.byte	0x1
 6440 092a 5E       		.byte	0x5e
 6441 092b 0D       		.byte	0xd
 6442 092c 01       		.byte	0x1
 6443 092d 54090000 		.4byte	0x954
 6444 0931 25       		.uleb128 0x25
 6445 0932 A6030000 		.4byte	.LASF62
 6446 0936 01       		.byte	0x1
ARM GAS  /tmp/ccTMtxXw.s 			page 115


 6447 0937 5F       		.byte	0x5f
 6448 0938 09       		.byte	0x9
 6449 0939 CB000000 		.4byte	0xcb
 6450 093d 25       		.uleb128 0x25
 6451 093e F6010000 		.4byte	.LASF63
 6452 0942 01       		.byte	0x1
 6453 0943 5F       		.byte	0x5f
 6454 0944 0F       		.byte	0xf
 6455 0945 CB000000 		.4byte	0xcb
 6456 0949 26       		.uleb128 0x26
 6457 094a 6900     		.ascii	"i\000"
 6458 094c 01       		.byte	0x1
 6459 094d 60       		.byte	0x60
 6460 094e 0C       		.byte	0xc
 6461 094f 38000000 		.4byte	0x38
 6462 0953 00       		.byte	0
 6463 0954 28       		.uleb128 0x28
 6464 0955 57040000 		.4byte	.LASF70
 6465 0959 01       		.byte	0x1
 6466 095a 5A       		.byte	0x5a
 6467 095b 0D       		.byte	0xd
 6468 095c 01       		.byte	0x1
 6469 095d 28       		.uleb128 0x28
 6470 095e 40000000 		.4byte	.LASF71
 6471 0962 01       		.byte	0x1
 6472 0963 56       		.byte	0x56
 6473 0964 0D       		.byte	0xd
 6474 0965 01       		.byte	0x1
 6475 0966 29       		.uleb128 0x29
 6476 0967 0E010000 		.4byte	.LASF72
 6477 096b 06       		.byte	0x6
 6478 096c 4802     		.2byte	0x248
 6479 096e 14       		.byte	0x14
 6480 096f 03       		.byte	0x3
 6481 0970 29       		.uleb128 0x29
 6482 0971 53030000 		.4byte	.LASF73
 6483 0975 06       		.byte	0x6
 6484 0976 3D02     		.2byte	0x23d
 6485 0978 14       		.byte	0x14
 6486 0979 03       		.byte	0x3
 6487 097a 24       		.uleb128 0x24
 6488 097b 1B060000 		.4byte	.LASF74
 6489 097f 05       		.byte	0x5
 6490 0980 C8       		.byte	0xc8
 6491 0981 14       		.byte	0x14
 6492 0982 03       		.byte	0x3
 6493 0983 94090000 		.4byte	0x994
 6494 0987 2A       		.uleb128 0x2a
 6495 0988 6D627000 		.ascii	"mbp\000"
 6496 098c 05       		.byte	0x5
 6497 098d C8       		.byte	0xc8
 6498 098e 2B       		.byte	0x2b
 6499 098f 94090000 		.4byte	0x994
 6500 0993 00       		.byte	0
 6501 0994 06       		.uleb128 0x6
 6502 0995 04       		.byte	0x4
 6503 0996 D5010000 		.4byte	0x1d5
ARM GAS  /tmp/ccTMtxXw.s 			page 116


 6504 099a 2B       		.uleb128 0x2b
 6505 099b C1000000 		.4byte	.LASF75
 6506 099f 05       		.byte	0x5
 6507 09a0 A7       		.byte	0xa7
 6508 09a1 16       		.byte	0x16
 6509 09a2 2C000000 		.4byte	0x2c
 6510 09a6 03       		.byte	0x3
 6511 09a7 B8090000 		.4byte	0x9b8
 6512 09ab 2A       		.uleb128 0x2a
 6513 09ac 6D627000 		.ascii	"mbp\000"
 6514 09b0 05       		.byte	0x5
 6515 09b1 A7       		.byte	0xa7
 6516 09b2 39       		.byte	0x39
 6517 09b3 B8090000 		.4byte	0x9b8
 6518 09b7 00       		.byte	0
 6519 09b8 06       		.uleb128 0x6
 6520 09b9 04       		.byte	0x4
 6521 09ba E1010000 		.4byte	0x1e1
 6522 09be 2B       		.uleb128 0x2b
 6523 09bf DF000000 		.4byte	.LASF76
 6524 09c3 05       		.byte	0x5
 6525 09c4 98       		.byte	0x98
 6526 09c5 16       		.byte	0x16
 6527 09c6 2C000000 		.4byte	0x2c
 6528 09ca 03       		.byte	0x3
 6529 09cb DC090000 		.4byte	0x9dc
 6530 09cf 2A       		.uleb128 0x2a
 6531 09d0 6D627000 		.ascii	"mbp\000"
 6532 09d4 05       		.byte	0x5
 6533 09d5 98       		.byte	0x98
 6534 09d6 39       		.byte	0x39
 6535 09d7 B8090000 		.4byte	0x9b8
 6536 09db 00       		.byte	0
 6537 09dc 2B       		.uleb128 0x2b
 6538 09dd 65050000 		.4byte	.LASF77
 6539 09e1 05       		.byte	0x5
 6540 09e2 88       		.byte	0x88
 6541 09e3 16       		.byte	0x16
 6542 09e4 2C000000 		.4byte	0x2c
 6543 09e8 03       		.byte	0x3
 6544 09e9 FA090000 		.4byte	0x9fa
 6545 09ed 2A       		.uleb128 0x2a
 6546 09ee 6D627000 		.ascii	"mbp\000"
 6547 09f2 05       		.byte	0x5
 6548 09f3 88       		.byte	0x88
 6549 09f4 34       		.byte	0x34
 6550 09f5 B8090000 		.4byte	0x9b8
 6551 09f9 00       		.byte	0
 6552 09fa 2C       		.uleb128 0x2c
 6553 09fb 34050000 		.4byte	.LASF78
 6554 09ff 02       		.byte	0x2
 6555 0a00 A501     		.2byte	0x1a5
 6556 0a02 14       		.byte	0x14
 6557 0a03 03       		.byte	0x3
 6558 0a04 120A0000 		.4byte	0xa12
 6559 0a08 2D       		.uleb128 0x2d
 6560 0a09 6D030000 		.4byte	.LASF100
ARM GAS  /tmp/ccTMtxXw.s 			page 117


 6561 0a0d 220A0000 		.4byte	0xa22
 6562 0a11 00       		.byte	0
 6563 0a12 0E       		.uleb128 0xe
 6564 0a13 E4000000 		.4byte	0xe4
 6565 0a17 220A0000 		.4byte	0xa22
 6566 0a1b 0F       		.uleb128 0xf
 6567 0a1c 38000000 		.4byte	0x38
 6568 0a20 0B       		.byte	0xb
 6569 0a21 00       		.byte	0
 6570 0a22 05       		.uleb128 0x5
 6571 0a23 120A0000 		.4byte	0xa12
 6572 0a27 29       		.uleb128 0x29
 6573 0a28 EC010000 		.4byte	.LASF79
 6574 0a2c 02       		.byte	0x2
 6575 0a2d 9701     		.2byte	0x197
 6576 0a2f 14       		.byte	0x14
 6577 0a30 03       		.byte	0x3
 6578 0a31 29       		.uleb128 0x29
 6579 0a32 DF040000 		.4byte	.LASF80
 6580 0a36 03       		.byte	0x3
 6581 0a37 3E03     		.2byte	0x33e
 6582 0a39 1B       		.byte	0x1b
 6583 0a3a 03       		.byte	0x3
 6584 0a3b 29       		.uleb128 0x29
 6585 0a3c 12050000 		.4byte	.LASF81
 6586 0a40 03       		.byte	0x3
 6587 0a41 2603     		.2byte	0x326
 6588 0a43 1B       		.byte	0x1b
 6589 0a44 03       		.byte	0x3
 6590 0a45 2C       		.uleb128 0x2c
 6591 0a46 26050000 		.4byte	.LASF82
 6592 0a4a 04       		.byte	0x4
 6593 0a4b EB01     		.2byte	0x1eb
 6594 0a4d 1B       		.byte	0x1b
 6595 0a4e 03       		.byte	0x3
 6596 0a4f 610A0000 		.4byte	0xa61
 6597 0a53 2E       		.uleb128 0x2e
 6598 0a54 22020000 		.4byte	.LASF83
 6599 0a58 04       		.byte	0x4
 6600 0a59 EB01     		.2byte	0x1eb
 6601 0a5b 32       		.byte	0x32
 6602 0a5c BF000000 		.4byte	0xbf
 6603 0a60 00       		.byte	0
 6604 0a61 2F       		.uleb128 0x2f
 6605 0a62 54090000 		.4byte	0x954
 6606 0a66 00000000 		.4byte	.LFB405
 6607 0a6a 0C000000 		.4byte	.LFE405-.LFB405
 6608 0a6e 01       		.uleb128 0x1
 6609 0a6f 9C       		.byte	0x9c
 6610 0a70 880A0000 		.4byte	0xa88
 6611 0a74 30       		.uleb128 0x30
 6612 0a75 06000000 		.4byte	.LVL0
 6613 0a79 B42B0000 		.4byte	0x2bb4
 6614 0a7d 21       		.uleb128 0x21
 6615 0a7e 01       		.uleb128 0x1
 6616 0a7f 50       		.byte	0x50
 6617 0a80 05       		.uleb128 0x5
ARM GAS  /tmp/ccTMtxXw.s 			page 118


 6618 0a81 03       		.byte	0x3
 6619 0a82 00000000 		.4byte	.LANCHOR0
 6620 0a86 00       		.byte	0
 6621 0a87 00       		.byte	0
 6622 0a88 2F       		.uleb128 0x2f
 6623 0a89 5D090000 		.4byte	0x95d
 6624 0a8d 00000000 		.4byte	.LFB404
 6625 0a91 14000000 		.4byte	.LFE404-.LFB404
 6626 0a95 01       		.uleb128 0x1
 6627 0a96 9C       		.byte	0x9c
 6628 0a97 BD0A0000 		.4byte	0xabd
 6629 0a9b 30       		.uleb128 0x30
 6630 0a9c 0A000000 		.4byte	.LVL42
 6631 0aa0 D82B0000 		.4byte	0x2bd8
 6632 0aa4 21       		.uleb128 0x21
 6633 0aa5 01       		.uleb128 0x1
 6634 0aa6 50       		.byte	0x50
 6635 0aa7 05       		.uleb128 0x5
 6636 0aa8 03       		.byte	0x3
 6637 0aa9 00000000 		.4byte	.LANCHOR0
 6638 0aad 21       		.uleb128 0x21
 6639 0aae 01       		.uleb128 0x1
 6640 0aaf 51       		.byte	0x51
 6641 0ab0 05       		.uleb128 0x5
 6642 0ab1 03       		.byte	0x3
 6643 0ab2 00000000 		.4byte	.LANCHOR1
 6644 0ab6 21       		.uleb128 0x21
 6645 0ab7 01       		.uleb128 0x1
 6646 0ab8 52       		.byte	0x52
 6647 0ab9 01       		.uleb128 0x1
 6648 0aba 34       		.byte	0x34
 6649 0abb 00       		.byte	0
 6650 0abc 00       		.byte	0
 6651 0abd 2F       		.uleb128 0x2f
 6652 0abe E4080000 		.4byte	0x8e4
 6653 0ac2 00000000 		.4byte	.LFB409
 6654 0ac6 E8020000 		.4byte	.LFE409-.LFB409
 6655 0aca 01       		.uleb128 0x1
 6656 0acb 9C       		.byte	0x9c
 6657 0acc 0D1C0000 		.4byte	0x1c0d
 6658 0ad0 31       		.uleb128 0x31
 6659 0ad1 F1080000 		.4byte	0x8f1
 6660 0ad5 31       		.uleb128 0x31
 6661 0ad6 FD080000 		.4byte	0x8fd
 6662 0ada 31       		.uleb128 0x31
 6663 0adb 09090000 		.4byte	0x909
 6664 0adf 32       		.uleb128 0x32
 6665 0ae0 70090000 		.4byte	0x970
 6666 0ae4 0C000000 		.4byte	.LBI1310
 6667 0ae8 0100     		.2byte	.LVU165
 6668 0aea C0000000 		.4byte	.Ldebug_ranges0+0xc0
 6669 0aee 01       		.byte	0x1
 6670 0aef EC       		.byte	0xec
 6671 0af0 05       		.byte	0x5
 6672 0af1 430B0000 		.4byte	0xb43
 6673 0af5 1C       		.uleb128 0x1c
 6674 0af6 270A0000 		.4byte	0xa27
ARM GAS  /tmp/ccTMtxXw.s 			page 119


 6675 0afa 0C000000 		.4byte	.LBI1311
 6676 0afe 0300     		.2byte	.LVU167
 6677 0b00 C8000000 		.4byte	.Ldebug_ranges0+0xc8
 6678 0b04 06       		.byte	0x6
 6679 0b05 3F02     		.2byte	0x23f
 6680 0b07 03       		.byte	0x3
 6681 0b08 1C       		.uleb128 0x1c
 6682 0b09 3B0A0000 		.4byte	0xa3b
 6683 0b0d 0C000000 		.4byte	.LBI1312
 6684 0b11 0500     		.2byte	.LVU169
 6685 0b13 D0000000 		.4byte	.Ldebug_ranges0+0xd0
 6686 0b17 02       		.byte	0x2
 6687 0b18 9901     		.2byte	0x199
 6688 0b1a 03       		.byte	0x3
 6689 0b1b 1D       		.uleb128 0x1d
 6690 0b1c 450A0000 		.4byte	0xa45
 6691 0b20 0C000000 		.4byte	.LBI1313
 6692 0b24 0700     		.2byte	.LVU171
 6693 0b26 0C000000 		.4byte	.LBB1313
 6694 0b2a 06000000 		.4byte	.LBE1313-.LBB1313
 6695 0b2e 03       		.byte	0x3
 6696 0b2f 2E03     		.2byte	0x32e
 6697 0b31 03       		.byte	0x3
 6698 0b32 1E       		.uleb128 0x1e
 6699 0b33 530A0000 		.4byte	0xa53
 6700 0b37 96010000 		.4byte	.LLST9
 6701 0b3b 94010000 		.4byte	.LVUS9
 6702 0b3f 00       		.byte	0
 6703 0b40 00       		.byte	0
 6704 0b41 00       		.byte	0
 6705 0b42 00       		.byte	0
 6706 0b43 32       		.uleb128 0x32
 6707 0b44 9A090000 		.4byte	0x99a
 6708 0b48 12000000 		.4byte	.LBI1321
 6709 0b4c 0400     		.2byte	.LVU177
 6710 0b4e E8000000 		.4byte	.Ldebug_ranges0+0xe8
 6711 0b52 01       		.byte	0x1
 6712 0b53 EC       		.byte	0xec
 6713 0b54 05       		.byte	0x5
 6714 0b55 AF0B0000 		.4byte	0xbaf
 6715 0b59 1E       		.uleb128 0x1e
 6716 0b5a AB090000 		.4byte	0x9ab
 6717 0b5e AD010000 		.4byte	.LLST10
 6718 0b62 AB010000 		.4byte	.LVUS10
 6719 0b66 32       		.uleb128 0x32
 6720 0b67 DC090000 		.4byte	0x9dc
 6721 0b6b 12000000 		.4byte	.LBI1323
 6722 0b6f 0700     		.2byte	.LVU180
 6723 0b71 00010000 		.4byte	.Ldebug_ranges0+0x100
 6724 0b75 05       		.byte	0x5
 6725 0b76 AB       		.byte	0xab
 6726 0b77 0A       		.byte	0xa
 6727 0b78 8A0B0000 		.4byte	0xb8a
 6728 0b7c 1E       		.uleb128 0x1e
 6729 0b7d ED090000 		.4byte	0x9ed
 6730 0b81 C7010000 		.4byte	.LLST11
 6731 0b85 C5010000 		.4byte	.LVUS11
ARM GAS  /tmp/ccTMtxXw.s 			page 120


 6732 0b89 00       		.byte	0
 6733 0b8a 33       		.uleb128 0x33
 6734 0b8b BE090000 		.4byte	0x9be
 6735 0b8f 12000000 		.4byte	.LBI1327
 6736 0b93 0A00     		.2byte	.LVU183
 6737 0b95 12000000 		.4byte	.LBB1327
 6738 0b99 00000000 		.4byte	.LBE1327-.LBB1327
 6739 0b9d 05       		.byte	0x5
 6740 0b9e AB       		.byte	0xab
 6741 0b9f 1E       		.byte	0x1e
 6742 0ba0 1E       		.uleb128 0x1e
 6743 0ba1 CF090000 		.4byte	0x9cf
 6744 0ba5 E1010000 		.4byte	.LLST12
 6745 0ba9 DF010000 		.4byte	.LVUS12
 6746 0bad 00       		.byte	0
 6747 0bae 00       		.byte	0
 6748 0baf 32       		.uleb128 0x32
 6749 0bb0 66090000 		.4byte	0x966
 6750 0bb4 32000000 		.4byte	.LBI1333
 6751 0bb8 0100     		.2byte	.LVU193
 6752 0bba 20010000 		.4byte	.Ldebug_ranges0+0x120
 6753 0bbe 01       		.byte	0x1
 6754 0bbf EC       		.byte	0xec
 6755 0bc0 05       		.byte	0x5
 6756 0bc1 190C0000 		.4byte	0xc19
 6757 0bc5 1C       		.uleb128 0x1c
 6758 0bc6 FA090000 		.4byte	0x9fa
 6759 0bca 32000000 		.4byte	.LBI1334
 6760 0bce 0300     		.2byte	.LVU195
 6761 0bd0 28010000 		.4byte	.Ldebug_ranges0+0x128
 6762 0bd4 06       		.byte	0x6
 6763 0bd5 4A02     		.2byte	0x24a
 6764 0bd7 03       		.byte	0x3
 6765 0bd8 1F       		.uleb128 0x1f
 6766 0bd9 28010000 		.4byte	.Ldebug_ranges0+0x128
 6767 0bdd 1C       		.uleb128 0x1c
 6768 0bde 310A0000 		.4byte	0xa31
 6769 0be2 32000000 		.4byte	.LBI1336
 6770 0be6 0A00     		.2byte	.LVU202
 6771 0be8 28010000 		.4byte	.Ldebug_ranges0+0x128
 6772 0bec 02       		.byte	0x2
 6773 0bed B201     		.2byte	0x1b2
 6774 0bef 03       		.byte	0x3
 6775 0bf0 1D       		.uleb128 0x1d
 6776 0bf1 450A0000 		.4byte	0xa45
 6777 0bf5 32000000 		.4byte	.LBI1337
 6778 0bf9 0C00     		.2byte	.LVU204
 6779 0bfb 32000000 		.4byte	.LBB1337
 6780 0bff 06000000 		.4byte	.LBE1337-.LBB1337
 6781 0c03 03       		.byte	0x3
 6782 0c04 4103     		.2byte	0x341
 6783 0c06 03       		.byte	0x3
 6784 0c07 1E       		.uleb128 0x1e
 6785 0c08 530A0000 		.4byte	0xa53
 6786 0c0c FB010000 		.4byte	.LLST13
 6787 0c10 F9010000 		.4byte	.LVUS13
 6788 0c14 00       		.byte	0
ARM GAS  /tmp/ccTMtxXw.s 			page 121


 6789 0c15 00       		.byte	0
 6790 0c16 00       		.byte	0
 6791 0c17 00       		.byte	0
 6792 0c18 00       		.byte	0
 6793 0c19 32       		.uleb128 0x32
 6794 0c1a E4080000 		.4byte	0x8e4
 6795 0c1e 3E000000 		.4byte	.LBI1344
 6796 0c22 0000     		.2byte	.LVU209
 6797 0c24 40010000 		.4byte	.Ldebug_ranges0+0x140
 6798 0c28 01       		.byte	0x1
 6799 0c29 E5       		.byte	0xe5
 6800 0c2a 0D       		.byte	0xd
 6801 0c2b F91B0000 		.4byte	0x1bf9
 6802 0c2f 1F       		.uleb128 0x1f
 6803 0c30 40010000 		.4byte	.Ldebug_ranges0+0x140
 6804 0c34 34       		.uleb128 0x34
 6805 0c35 F1080000 		.4byte	0x8f1
 6806 0c39 19020000 		.4byte	.LLST14
 6807 0c3d 0F020000 		.4byte	.LVUS14
 6808 0c41 35       		.uleb128 0x35
 6809 0c42 FD080000 		.4byte	0x8fd
 6810 0c46 02       		.uleb128 0x2
 6811 0c47 91       		.byte	0x91
 6812 0c48 5C       		.sleb128 -36
 6813 0c49 34       		.uleb128 0x34
 6814 0c4a 09090000 		.4byte	0x909
 6815 0c4e 66020000 		.4byte	.LLST15
 6816 0c52 58020000 		.4byte	.LVUS15
 6817 0c56 32       		.uleb128 0x32
 6818 0c57 66090000 		.4byte	0x966
 6819 0c5b 3E000000 		.4byte	.LBI1346
 6820 0c5f 0200     		.2byte	.LVU211
 6821 0c61 D8030000 		.4byte	.Ldebug_ranges0+0x3d8
 6822 0c65 01       		.byte	0x1
 6823 0c66 EC       		.byte	0xec
 6824 0c67 05       		.byte	0x5
 6825 0c68 C00C0000 		.4byte	0xcc0
 6826 0c6c 1C       		.uleb128 0x1c
 6827 0c6d FA090000 		.4byte	0x9fa
 6828 0c71 3E000000 		.4byte	.LBI1347
 6829 0c75 0400     		.2byte	.LVU213
 6830 0c77 E0030000 		.4byte	.Ldebug_ranges0+0x3e0
 6831 0c7b 06       		.byte	0x6
 6832 0c7c 4A02     		.2byte	0x24a
 6833 0c7e 03       		.byte	0x3
 6834 0c7f 1F       		.uleb128 0x1f
 6835 0c80 E0030000 		.4byte	.Ldebug_ranges0+0x3e0
 6836 0c84 1C       		.uleb128 0x1c
 6837 0c85 310A0000 		.4byte	0xa31
 6838 0c89 3E000000 		.4byte	.LBI1349
 6839 0c8d 0B00     		.2byte	.LVU220
 6840 0c8f E0030000 		.4byte	.Ldebug_ranges0+0x3e0
 6841 0c93 02       		.byte	0x2
 6842 0c94 B201     		.2byte	0x1b2
 6843 0c96 03       		.byte	0x3
 6844 0c97 1D       		.uleb128 0x1d
 6845 0c98 450A0000 		.4byte	0xa45
ARM GAS  /tmp/ccTMtxXw.s 			page 122


 6846 0c9c 3E000000 		.4byte	.LBI1350
 6847 0ca0 0D00     		.2byte	.LVU222
 6848 0ca2 3E000000 		.4byte	.LBB1350
 6849 0ca6 06000000 		.4byte	.LBE1350-.LBB1350
 6850 0caa 03       		.byte	0x3
 6851 0cab 4103     		.2byte	0x341
 6852 0cad 03       		.byte	0x3
 6853 0cae 1E       		.uleb128 0x1e
 6854 0caf 530A0000 		.4byte	0xa53
 6855 0cb3 D2020000 		.4byte	.LLST16
 6856 0cb7 D0020000 		.4byte	.LVUS16
 6857 0cbb 00       		.byte	0
 6858 0cbc 00       		.byte	0
 6859 0cbd 00       		.byte	0
 6860 0cbe 00       		.byte	0
 6861 0cbf 00       		.byte	0
 6862 0cc0 32       		.uleb128 0x32
 6863 0cc1 270A0000 		.4byte	0xa27
 6864 0cc5 48000000 		.4byte	.LBI1357
 6865 0cc9 0100     		.2byte	.LVU230
 6866 0ccb F8030000 		.4byte	.Ldebug_ranges0+0x3f8
 6867 0ccf 01       		.byte	0x1
 6868 0cd0 F4       		.byte	0xf4
 6869 0cd1 05       		.byte	0x5
 6870 0cd2 100D0000 		.4byte	0xd10
 6871 0cd6 1C       		.uleb128 0x1c
 6872 0cd7 3B0A0000 		.4byte	0xa3b
 6873 0cdb 48000000 		.4byte	.LBI1358
 6874 0cdf 0300     		.2byte	.LVU232
 6875 0ce1 00040000 		.4byte	.Ldebug_ranges0+0x400
 6876 0ce5 02       		.byte	0x2
 6877 0ce6 9901     		.2byte	0x199
 6878 0ce8 03       		.byte	0x3
 6879 0ce9 1D       		.uleb128 0x1d
 6880 0cea 450A0000 		.4byte	0xa45
 6881 0cee 48000000 		.4byte	.LBI1359
 6882 0cf2 0500     		.2byte	.LVU234
 6883 0cf4 48000000 		.4byte	.LBB1359
 6884 0cf8 04000000 		.4byte	.LBE1359-.LBB1359
 6885 0cfc 03       		.byte	0x3
 6886 0cfd 2E03     		.2byte	0x32e
 6887 0cff 03       		.byte	0x3
 6888 0d00 1E       		.uleb128 0x1e
 6889 0d01 530A0000 		.4byte	0xa53
 6890 0d05 E8020000 		.4byte	.LLST17
 6891 0d09 E6020000 		.4byte	.LVUS17
 6892 0d0d 00       		.byte	0
 6893 0d0e 00       		.byte	0
 6894 0d0f 00       		.byte	0
 6895 0d10 32       		.uleb128 0x32
 6896 0d11 FA090000 		.4byte	0x9fa
 6897 0d15 52000000 		.4byte	.LBI1364
 6898 0d19 0100     		.2byte	.LVU241
 6899 0d1b 18040000 		.4byte	.Ldebug_ranges0+0x418
 6900 0d1f 01       		.byte	0x1
 6901 0d20 F6       		.byte	0xf6
 6902 0d21 05       		.byte	0x5
ARM GAS  /tmp/ccTMtxXw.s 			page 123


 6903 0d22 660D0000 		.4byte	0xd66
 6904 0d26 1F       		.uleb128 0x1f
 6905 0d27 18040000 		.4byte	.Ldebug_ranges0+0x418
 6906 0d2b 1C       		.uleb128 0x1c
 6907 0d2c 310A0000 		.4byte	0xa31
 6908 0d30 52000000 		.4byte	.LBI1366
 6909 0d34 0800     		.2byte	.LVU248
 6910 0d36 18040000 		.4byte	.Ldebug_ranges0+0x418
 6911 0d3a 02       		.byte	0x2
 6912 0d3b B201     		.2byte	0x1b2
 6913 0d3d 03       		.byte	0x3
 6914 0d3e 1D       		.uleb128 0x1d
 6915 0d3f 450A0000 		.4byte	0xa45
 6916 0d43 52000000 		.4byte	.LBI1367
 6917 0d47 0A00     		.2byte	.LVU250
 6918 0d49 52000000 		.4byte	.LBB1367
 6919 0d4d 04000000 		.4byte	.LBE1367-.LBB1367
 6920 0d51 03       		.byte	0x3
 6921 0d52 4103     		.2byte	0x341
 6922 0d54 03       		.byte	0x3
 6923 0d55 1E       		.uleb128 0x1e
 6924 0d56 530A0000 		.4byte	0xa53
 6925 0d5a FF020000 		.4byte	.LLST18
 6926 0d5e FD020000 		.4byte	.LVUS18
 6927 0d62 00       		.byte	0
 6928 0d63 00       		.byte	0
 6929 0d64 00       		.byte	0
 6930 0d65 00       		.byte	0
 6931 0d66 32       		.uleb128 0x32
 6932 0d67 70090000 		.4byte	0x970
 6933 0d6b 56000000 		.4byte	.LBI1372
 6934 0d6f 0200     		.2byte	.LVU254
 6935 0d71 30040000 		.4byte	.Ldebug_ranges0+0x430
 6936 0d75 01       		.byte	0x1
 6937 0d76 F7       		.byte	0xf7
 6938 0d77 05       		.byte	0x5
 6939 0d78 CA0D0000 		.4byte	0xdca
 6940 0d7c 1C       		.uleb128 0x1c
 6941 0d7d 270A0000 		.4byte	0xa27
 6942 0d81 56000000 		.4byte	.LBI1373
 6943 0d85 0400     		.2byte	.LVU256
 6944 0d87 38040000 		.4byte	.Ldebug_ranges0+0x438
 6945 0d8b 06       		.byte	0x6
 6946 0d8c 3F02     		.2byte	0x23f
 6947 0d8e 03       		.byte	0x3
 6948 0d8f 1C       		.uleb128 0x1c
 6949 0d90 3B0A0000 		.4byte	0xa3b
 6950 0d94 56000000 		.4byte	.LBI1374
 6951 0d98 0600     		.2byte	.LVU258
 6952 0d9a 40040000 		.4byte	.Ldebug_ranges0+0x440
 6953 0d9e 02       		.byte	0x2
 6954 0d9f 9901     		.2byte	0x199
 6955 0da1 03       		.byte	0x3
 6956 0da2 1D       		.uleb128 0x1d
 6957 0da3 450A0000 		.4byte	0xa45
 6958 0da7 56000000 		.4byte	.LBI1375
 6959 0dab 0800     		.2byte	.LVU260
ARM GAS  /tmp/ccTMtxXw.s 			page 124


 6960 0dad 56000000 		.4byte	.LBB1375
 6961 0db1 04000000 		.4byte	.LBE1375-.LBB1375
 6962 0db5 03       		.byte	0x3
 6963 0db6 2E03     		.2byte	0x32e
 6964 0db8 03       		.byte	0x3
 6965 0db9 1E       		.uleb128 0x1e
 6966 0dba 530A0000 		.4byte	0xa53
 6967 0dbe 15030000 		.4byte	.LLST19
 6968 0dc2 13030000 		.4byte	.LVUS19
 6969 0dc6 00       		.byte	0
 6970 0dc7 00       		.byte	0
 6971 0dc8 00       		.byte	0
 6972 0dc9 00       		.byte	0
 6973 0dca 32       		.uleb128 0x32
 6974 0dcb 9A090000 		.4byte	0x99a
 6975 0dcf 5A000000 		.4byte	.LBI1383
 6976 0dd3 0400     		.2byte	.LVU266
 6977 0dd5 58040000 		.4byte	.Ldebug_ranges0+0x458
 6978 0dd9 01       		.byte	0x1
 6979 0dda F7       		.byte	0xf7
 6980 0ddb 05       		.byte	0x5
 6981 0ddc 360E0000 		.4byte	0xe36
 6982 0de0 1E       		.uleb128 0x1e
 6983 0de1 AB090000 		.4byte	0x9ab
 6984 0de5 2C030000 		.4byte	.LLST20
 6985 0de9 2A030000 		.4byte	.LVUS20
 6986 0ded 32       		.uleb128 0x32
 6987 0dee DC090000 		.4byte	0x9dc
 6988 0df2 5A000000 		.4byte	.LBI1385
 6989 0df6 0700     		.2byte	.LVU269
 6990 0df8 70040000 		.4byte	.Ldebug_ranges0+0x470
 6991 0dfc 05       		.byte	0x5
 6992 0dfd AB       		.byte	0xab
 6993 0dfe 0A       		.byte	0xa
 6994 0dff 110E0000 		.4byte	0xe11
 6995 0e03 1E       		.uleb128 0x1e
 6996 0e04 ED090000 		.4byte	0x9ed
 6997 0e08 46030000 		.4byte	.LLST21
 6998 0e0c 44030000 		.4byte	.LVUS21
 6999 0e10 00       		.byte	0
 7000 0e11 33       		.uleb128 0x33
 7001 0e12 BE090000 		.4byte	0x9be
 7002 0e16 5A000000 		.4byte	.LBI1388
 7003 0e1a 0A00     		.2byte	.LVU272
 7004 0e1c 5A000000 		.4byte	.LBB1388
 7005 0e20 00000000 		.4byte	.LBE1388-.LBB1388
 7006 0e24 05       		.byte	0x5
 7007 0e25 AB       		.byte	0xab
 7008 0e26 1E       		.byte	0x1e
 7009 0e27 1E       		.uleb128 0x1e
 7010 0e28 CF090000 		.4byte	0x9cf
 7011 0e2c 60030000 		.4byte	.LLST22
 7012 0e30 5E030000 		.4byte	.LVUS22
 7013 0e34 00       		.byte	0
 7014 0e35 00       		.byte	0
 7015 0e36 32       		.uleb128 0x32
 7016 0e37 66090000 		.4byte	0x966
ARM GAS  /tmp/ccTMtxXw.s 			page 125


 7017 0e3b 7A000000 		.4byte	.LBI1393
 7018 0e3f 0100     		.2byte	.LVU282
 7019 0e41 88040000 		.4byte	.Ldebug_ranges0+0x488
 7020 0e45 01       		.byte	0x1
 7021 0e46 F7       		.byte	0xf7
 7022 0e47 05       		.byte	0x5
 7023 0e48 A00E0000 		.4byte	0xea0
 7024 0e4c 1C       		.uleb128 0x1c
 7025 0e4d FA090000 		.4byte	0x9fa
 7026 0e51 7A000000 		.4byte	.LBI1394
 7027 0e55 0300     		.2byte	.LVU284
 7028 0e57 90040000 		.4byte	.Ldebug_ranges0+0x490
 7029 0e5b 06       		.byte	0x6
 7030 0e5c 4A02     		.2byte	0x24a
 7031 0e5e 03       		.byte	0x3
 7032 0e5f 1F       		.uleb128 0x1f
 7033 0e60 90040000 		.4byte	.Ldebug_ranges0+0x490
 7034 0e64 1C       		.uleb128 0x1c
 7035 0e65 310A0000 		.4byte	0xa31
 7036 0e69 7A000000 		.4byte	.LBI1396
 7037 0e6d 0A00     		.2byte	.LVU291
 7038 0e6f 90040000 		.4byte	.Ldebug_ranges0+0x490
 7039 0e73 02       		.byte	0x2
 7040 0e74 B201     		.2byte	0x1b2
 7041 0e76 03       		.byte	0x3
 7042 0e77 1D       		.uleb128 0x1d
 7043 0e78 450A0000 		.4byte	0xa45
 7044 0e7c 7A000000 		.4byte	.LBI1397
 7045 0e80 0C00     		.2byte	.LVU293
 7046 0e82 7A000000 		.4byte	.LBB1397
 7047 0e86 04000000 		.4byte	.LBE1397-.LBB1397
 7048 0e8a 03       		.byte	0x3
 7049 0e8b 4103     		.2byte	0x341
 7050 0e8d 03       		.byte	0x3
 7051 0e8e 1E       		.uleb128 0x1e
 7052 0e8f 530A0000 		.4byte	0xa53
 7053 0e93 7A030000 		.4byte	.LLST23
 7054 0e97 78030000 		.4byte	.LVUS23
 7055 0e9b 00       		.byte	0
 7056 0e9c 00       		.byte	0
 7057 0e9d 00       		.byte	0
 7058 0e9e 00       		.byte	0
 7059 0e9f 00       		.byte	0
 7060 0ea0 32       		.uleb128 0x32
 7061 0ea1 70090000 		.4byte	0x970
 7062 0ea5 7E000000 		.4byte	.LBI1404
 7063 0ea9 0300     		.2byte	.LVU298
 7064 0eab A8040000 		.4byte	.Ldebug_ranges0+0x4a8
 7065 0eaf 01       		.byte	0x1
 7066 0eb0 F8       		.byte	0xf8
 7067 0eb1 05       		.byte	0x5
 7068 0eb2 040F0000 		.4byte	0xf04
 7069 0eb6 1C       		.uleb128 0x1c
 7070 0eb7 270A0000 		.4byte	0xa27
 7071 0ebb 7E000000 		.4byte	.LBI1405
 7072 0ebf 0500     		.2byte	.LVU300
 7073 0ec1 B0040000 		.4byte	.Ldebug_ranges0+0x4b0
ARM GAS  /tmp/ccTMtxXw.s 			page 126


 7074 0ec5 06       		.byte	0x6
 7075 0ec6 3F02     		.2byte	0x23f
 7076 0ec8 03       		.byte	0x3
 7077 0ec9 1C       		.uleb128 0x1c
 7078 0eca 3B0A0000 		.4byte	0xa3b
 7079 0ece 7E000000 		.4byte	.LBI1406
 7080 0ed2 0700     		.2byte	.LVU302
 7081 0ed4 B8040000 		.4byte	.Ldebug_ranges0+0x4b8
 7082 0ed8 02       		.byte	0x2
 7083 0ed9 9901     		.2byte	0x199
 7084 0edb 03       		.byte	0x3
 7085 0edc 1D       		.uleb128 0x1d
 7086 0edd 450A0000 		.4byte	0xa45
 7087 0ee1 7E000000 		.4byte	.LBI1407
 7088 0ee5 0900     		.2byte	.LVU304
 7089 0ee7 7E000000 		.4byte	.LBB1407
 7090 0eeb 04000000 		.4byte	.LBE1407-.LBB1407
 7091 0eef 03       		.byte	0x3
 7092 0ef0 2E03     		.2byte	0x32e
 7093 0ef2 03       		.byte	0x3
 7094 0ef3 1E       		.uleb128 0x1e
 7095 0ef4 530A0000 		.4byte	0xa53
 7096 0ef8 90030000 		.4byte	.LLST24
 7097 0efc 8E030000 		.4byte	.LVUS24
 7098 0f00 00       		.byte	0
 7099 0f01 00       		.byte	0
 7100 0f02 00       		.byte	0
 7101 0f03 00       		.byte	0
 7102 0f04 36       		.uleb128 0x36
 7103 0f05 BE090000 		.4byte	0x9be
 7104 0f09 82000000 		.4byte	.LBI1415
 7105 0f0d 0400     		.2byte	.LVU310
 7106 0f0f 82000000 		.4byte	.LBB1415
 7107 0f13 00000000 		.4byte	.LBE1415-.LBB1415
 7108 0f17 01       		.byte	0x1
 7109 0f18 F8       		.byte	0xf8
 7110 0f19 05       		.byte	0x5
 7111 0f1a 2C0F0000 		.4byte	0xf2c
 7112 0f1e 1E       		.uleb128 0x1e
 7113 0f1f CF090000 		.4byte	0x9cf
 7114 0f23 A7030000 		.4byte	.LLST25
 7115 0f27 A5030000 		.4byte	.LVUS25
 7116 0f2b 00       		.byte	0
 7117 0f2c 1B       		.uleb128 0x1b
 7118 0f2d 66090000 		.4byte	0x966
 7119 0f31 94000000 		.4byte	.LBI1417
 7120 0f35 0100     		.2byte	.LVU316
 7121 0f37 D0040000 		.4byte	.Ldebug_ranges0+0x4d0
 7122 0f3b 01       		.byte	0x1
 7123 0f3c 1501     		.2byte	0x115
 7124 0f3e 05       		.byte	0x5
 7125 0f3f 970F0000 		.4byte	0xf97
 7126 0f43 1C       		.uleb128 0x1c
 7127 0f44 FA090000 		.4byte	0x9fa
 7128 0f48 94000000 		.4byte	.LBI1418
 7129 0f4c 0300     		.2byte	.LVU318
 7130 0f4e D8040000 		.4byte	.Ldebug_ranges0+0x4d8
ARM GAS  /tmp/ccTMtxXw.s 			page 127


 7131 0f52 06       		.byte	0x6
 7132 0f53 4A02     		.2byte	0x24a
 7133 0f55 03       		.byte	0x3
 7134 0f56 1F       		.uleb128 0x1f
 7135 0f57 D8040000 		.4byte	.Ldebug_ranges0+0x4d8
 7136 0f5b 1C       		.uleb128 0x1c
 7137 0f5c 310A0000 		.4byte	0xa31
 7138 0f60 94000000 		.4byte	.LBI1420
 7139 0f64 0A00     		.2byte	.LVU325
 7140 0f66 D8040000 		.4byte	.Ldebug_ranges0+0x4d8
 7141 0f6a 02       		.byte	0x2
 7142 0f6b B201     		.2byte	0x1b2
 7143 0f6d 03       		.byte	0x3
 7144 0f6e 1D       		.uleb128 0x1d
 7145 0f6f 450A0000 		.4byte	0xa45
 7146 0f73 94000000 		.4byte	.LBI1421
 7147 0f77 0C00     		.2byte	.LVU327
 7148 0f79 94000000 		.4byte	.LBB1421
 7149 0f7d 04000000 		.4byte	.LBE1421-.LBB1421
 7150 0f81 03       		.byte	0x3
 7151 0f82 4103     		.2byte	0x341
 7152 0f84 03       		.byte	0x3
 7153 0f85 1E       		.uleb128 0x1e
 7154 0f86 530A0000 		.4byte	0xa53
 7155 0f8a C1030000 		.4byte	.LLST26
 7156 0f8e BF030000 		.4byte	.LVUS26
 7157 0f92 00       		.byte	0
 7158 0f93 00       		.byte	0
 7159 0f94 00       		.byte	0
 7160 0f95 00       		.byte	0
 7161 0f96 00       		.byte	0
 7162 0f97 1B       		.uleb128 0x1b
 7163 0f98 66090000 		.4byte	0x966
 7164 0f9c 9E000000 		.4byte	.LBI1428
 7165 0fa0 0100     		.2byte	.LVU333
 7166 0fa2 F0040000 		.4byte	.Ldebug_ranges0+0x4f0
 7167 0fa6 01       		.byte	0x1
 7168 0fa7 1601     		.2byte	0x116
 7169 0fa9 05       		.byte	0x5
 7170 0faa 02100000 		.4byte	0x1002
 7171 0fae 1C       		.uleb128 0x1c
 7172 0faf FA090000 		.4byte	0x9fa
 7173 0fb3 9E000000 		.4byte	.LBI1429
 7174 0fb7 0300     		.2byte	.LVU335
 7175 0fb9 F8040000 		.4byte	.Ldebug_ranges0+0x4f8
 7176 0fbd 06       		.byte	0x6
 7177 0fbe 4A02     		.2byte	0x24a
 7178 0fc0 03       		.byte	0x3
 7179 0fc1 1F       		.uleb128 0x1f
 7180 0fc2 F8040000 		.4byte	.Ldebug_ranges0+0x4f8
 7181 0fc6 1C       		.uleb128 0x1c
 7182 0fc7 310A0000 		.4byte	0xa31
 7183 0fcb 9E000000 		.4byte	.LBI1431
 7184 0fcf 0A00     		.2byte	.LVU342
 7185 0fd1 F8040000 		.4byte	.Ldebug_ranges0+0x4f8
 7186 0fd5 02       		.byte	0x2
 7187 0fd6 B201     		.2byte	0x1b2
ARM GAS  /tmp/ccTMtxXw.s 			page 128


 7188 0fd8 03       		.byte	0x3
 7189 0fd9 1D       		.uleb128 0x1d
 7190 0fda 450A0000 		.4byte	0xa45
 7191 0fde 9E000000 		.4byte	.LBI1432
 7192 0fe2 0C00     		.2byte	.LVU344
 7193 0fe4 9E000000 		.4byte	.LBB1432
 7194 0fe8 04000000 		.4byte	.LBE1432-.LBB1432
 7195 0fec 03       		.byte	0x3
 7196 0fed 4103     		.2byte	0x341
 7197 0fef 03       		.byte	0x3
 7198 0ff0 1E       		.uleb128 0x1e
 7199 0ff1 530A0000 		.4byte	0xa53
 7200 0ff5 D7030000 		.4byte	.LLST27
 7201 0ff9 D5030000 		.4byte	.LVUS27
 7202 0ffd 00       		.byte	0
 7203 0ffe 00       		.byte	0
 7204 0fff 00       		.byte	0
 7205 1000 00       		.byte	0
 7206 1001 00       		.byte	0
 7207 1002 32       		.uleb128 0x32
 7208 1003 66090000 		.4byte	0x966
 7209 1007 A8000000 		.4byte	.LBI1439
 7210 100b 0100     		.2byte	.LVU350
 7211 100d 10050000 		.4byte	.Ldebug_ranges0+0x510
 7212 1011 01       		.byte	0x1
 7213 1012 F8       		.byte	0xf8
 7214 1013 05       		.byte	0x5
 7215 1014 6C100000 		.4byte	0x106c
 7216 1018 1C       		.uleb128 0x1c
 7217 1019 FA090000 		.4byte	0x9fa
 7218 101d A8000000 		.4byte	.LBI1440
 7219 1021 0300     		.2byte	.LVU352
 7220 1023 18050000 		.4byte	.Ldebug_ranges0+0x518
 7221 1027 06       		.byte	0x6
 7222 1028 4A02     		.2byte	0x24a
 7223 102a 03       		.byte	0x3
 7224 102b 1F       		.uleb128 0x1f
 7225 102c 18050000 		.4byte	.Ldebug_ranges0+0x518
 7226 1030 1C       		.uleb128 0x1c
 7227 1031 310A0000 		.4byte	0xa31
 7228 1035 A8000000 		.4byte	.LBI1442
 7229 1039 0A00     		.2byte	.LVU359
 7230 103b 18050000 		.4byte	.Ldebug_ranges0+0x518
 7231 103f 02       		.byte	0x2
 7232 1040 B201     		.2byte	0x1b2
 7233 1042 03       		.byte	0x3
 7234 1043 1D       		.uleb128 0x1d
 7235 1044 450A0000 		.4byte	0xa45
 7236 1048 A8000000 		.4byte	.LBI1443
 7237 104c 0C00     		.2byte	.LVU361
 7238 104e A8000000 		.4byte	.LBB1443
 7239 1052 04000000 		.4byte	.LBE1443-.LBB1443
 7240 1056 03       		.byte	0x3
 7241 1057 4103     		.2byte	0x341
 7242 1059 03       		.byte	0x3
 7243 105a 1E       		.uleb128 0x1e
 7244 105b 530A0000 		.4byte	0xa53
ARM GAS  /tmp/ccTMtxXw.s 			page 129


 7245 105f ED030000 		.4byte	.LLST28
 7246 1063 EB030000 		.4byte	.LVUS28
 7247 1067 00       		.byte	0
 7248 1068 00       		.byte	0
 7249 1069 00       		.byte	0
 7250 106a 00       		.byte	0
 7251 106b 00       		.byte	0
 7252 106c 32       		.uleb128 0x32
 7253 106d 70090000 		.4byte	0x970
 7254 1071 AC000000 		.4byte	.LBI1450
 7255 1075 0300     		.2byte	.LVU366
 7256 1077 30050000 		.4byte	.Ldebug_ranges0+0x530
 7257 107b 01       		.byte	0x1
 7258 107c F9       		.byte	0xf9
 7259 107d 05       		.byte	0x5
 7260 107e D0100000 		.4byte	0x10d0
 7261 1082 1C       		.uleb128 0x1c
 7262 1083 270A0000 		.4byte	0xa27
 7263 1087 AC000000 		.4byte	.LBI1451
 7264 108b 0500     		.2byte	.LVU368
 7265 108d 38050000 		.4byte	.Ldebug_ranges0+0x538
 7266 1091 06       		.byte	0x6
 7267 1092 3F02     		.2byte	0x23f
 7268 1094 03       		.byte	0x3
 7269 1095 1C       		.uleb128 0x1c
 7270 1096 3B0A0000 		.4byte	0xa3b
 7271 109a AC000000 		.4byte	.LBI1452
 7272 109e 0700     		.2byte	.LVU370
 7273 10a0 40050000 		.4byte	.Ldebug_ranges0+0x540
 7274 10a4 02       		.byte	0x2
 7275 10a5 9901     		.2byte	0x199
 7276 10a7 03       		.byte	0x3
 7277 10a8 1D       		.uleb128 0x1d
 7278 10a9 450A0000 		.4byte	0xa45
 7279 10ad AC000000 		.4byte	.LBI1453
 7280 10b1 0900     		.2byte	.LVU372
 7281 10b3 AC000000 		.4byte	.LBB1453
 7282 10b7 04000000 		.4byte	.LBE1453-.LBB1453
 7283 10bb 03       		.byte	0x3
 7284 10bc 2E03     		.2byte	0x32e
 7285 10be 03       		.byte	0x3
 7286 10bf 1E       		.uleb128 0x1e
 7287 10c0 530A0000 		.4byte	0xa53
 7288 10c4 03040000 		.4byte	.LLST29
 7289 10c8 01040000 		.4byte	.LVUS29
 7290 10cc 00       		.byte	0
 7291 10cd 00       		.byte	0
 7292 10ce 00       		.byte	0
 7293 10cf 00       		.byte	0
 7294 10d0 32       		.uleb128 0x32
 7295 10d1 66090000 		.4byte	0x966
 7296 10d5 C8000000 		.4byte	.LBI1461
 7297 10d9 0100     		.2byte	.LVU379
 7298 10db 58050000 		.4byte	.Ldebug_ranges0+0x558
 7299 10df 01       		.byte	0x1
 7300 10e0 F9       		.byte	0xf9
 7301 10e1 05       		.byte	0x5
ARM GAS  /tmp/ccTMtxXw.s 			page 130


 7302 10e2 3A110000 		.4byte	0x113a
 7303 10e6 1C       		.uleb128 0x1c
 7304 10e7 FA090000 		.4byte	0x9fa
 7305 10eb C8000000 		.4byte	.LBI1462
 7306 10ef 0300     		.2byte	.LVU381
 7307 10f1 60050000 		.4byte	.Ldebug_ranges0+0x560
 7308 10f5 06       		.byte	0x6
 7309 10f6 4A02     		.2byte	0x24a
 7310 10f8 03       		.byte	0x3
 7311 10f9 1F       		.uleb128 0x1f
 7312 10fa 60050000 		.4byte	.Ldebug_ranges0+0x560
 7313 10fe 1C       		.uleb128 0x1c
 7314 10ff 310A0000 		.4byte	0xa31
 7315 1103 C8000000 		.4byte	.LBI1464
 7316 1107 0A00     		.2byte	.LVU388
 7317 1109 60050000 		.4byte	.Ldebug_ranges0+0x560
 7318 110d 02       		.byte	0x2
 7319 110e B201     		.2byte	0x1b2
 7320 1110 03       		.byte	0x3
 7321 1111 1D       		.uleb128 0x1d
 7322 1112 450A0000 		.4byte	0xa45
 7323 1116 C8000000 		.4byte	.LBI1465
 7324 111a 0C00     		.2byte	.LVU390
 7325 111c C8000000 		.4byte	.LBB1465
 7326 1120 04000000 		.4byte	.LBE1465-.LBB1465
 7327 1124 03       		.byte	0x3
 7328 1125 4103     		.2byte	0x341
 7329 1127 03       		.byte	0x3
 7330 1128 1E       		.uleb128 0x1e
 7331 1129 530A0000 		.4byte	0xa53
 7332 112d 1A040000 		.4byte	.LLST30
 7333 1131 18040000 		.4byte	.LVUS30
 7334 1135 00       		.byte	0
 7335 1136 00       		.byte	0
 7336 1137 00       		.byte	0
 7337 1138 00       		.byte	0
 7338 1139 00       		.byte	0
 7339 113a 32       		.uleb128 0x32
 7340 113b 70090000 		.4byte	0x970
 7341 113f CC000000 		.4byte	.LBI1472
 7342 1143 0300     		.2byte	.LVU395
 7343 1145 78050000 		.4byte	.Ldebug_ranges0+0x578
 7344 1149 01       		.byte	0x1
 7345 114a FA       		.byte	0xfa
 7346 114b 05       		.byte	0x5
 7347 114c 9E110000 		.4byte	0x119e
 7348 1150 1C       		.uleb128 0x1c
 7349 1151 270A0000 		.4byte	0xa27
 7350 1155 CC000000 		.4byte	.LBI1473
 7351 1159 0500     		.2byte	.LVU397
 7352 115b 80050000 		.4byte	.Ldebug_ranges0+0x580
 7353 115f 06       		.byte	0x6
 7354 1160 3F02     		.2byte	0x23f
 7355 1162 03       		.byte	0x3
 7356 1163 1C       		.uleb128 0x1c
 7357 1164 3B0A0000 		.4byte	0xa3b
 7358 1168 CC000000 		.4byte	.LBI1474
ARM GAS  /tmp/ccTMtxXw.s 			page 131


 7359 116c 0700     		.2byte	.LVU399
 7360 116e 88050000 		.4byte	.Ldebug_ranges0+0x588
 7361 1172 02       		.byte	0x2
 7362 1173 9901     		.2byte	0x199
 7363 1175 03       		.byte	0x3
 7364 1176 1D       		.uleb128 0x1d
 7365 1177 450A0000 		.4byte	0xa45
 7366 117b CC000000 		.4byte	.LBI1475
 7367 117f 0900     		.2byte	.LVU401
 7368 1181 CC000000 		.4byte	.LBB1475
 7369 1185 04000000 		.4byte	.LBE1475-.LBB1475
 7370 1189 03       		.byte	0x3
 7371 118a 2E03     		.2byte	0x32e
 7372 118c 03       		.byte	0x3
 7373 118d 1E       		.uleb128 0x1e
 7374 118e 530A0000 		.4byte	0xa53
 7375 1192 30040000 		.4byte	.LLST31
 7376 1196 2E040000 		.4byte	.LVUS31
 7377 119a 00       		.byte	0
 7378 119b 00       		.byte	0
 7379 119c 00       		.byte	0
 7380 119d 00       		.byte	0
 7381 119e 32       		.uleb128 0x32
 7382 119f 66090000 		.4byte	0x966
 7383 11a3 E6000000 		.4byte	.LBI1483
 7384 11a7 0100     		.2byte	.LVU408
 7385 11a9 A0050000 		.4byte	.Ldebug_ranges0+0x5a0
 7386 11ad 01       		.byte	0x1
 7387 11ae FA       		.byte	0xfa
 7388 11af 05       		.byte	0x5
 7389 11b0 08120000 		.4byte	0x1208
 7390 11b4 1C       		.uleb128 0x1c
 7391 11b5 FA090000 		.4byte	0x9fa
 7392 11b9 E6000000 		.4byte	.LBI1484
 7393 11bd 0300     		.2byte	.LVU410
 7394 11bf A8050000 		.4byte	.Ldebug_ranges0+0x5a8
 7395 11c3 06       		.byte	0x6
 7396 11c4 4A02     		.2byte	0x24a
 7397 11c6 03       		.byte	0x3
 7398 11c7 1F       		.uleb128 0x1f
 7399 11c8 A8050000 		.4byte	.Ldebug_ranges0+0x5a8
 7400 11cc 1C       		.uleb128 0x1c
 7401 11cd 310A0000 		.4byte	0xa31
 7402 11d1 E6000000 		.4byte	.LBI1486
 7403 11d5 0A00     		.2byte	.LVU417
 7404 11d7 A8050000 		.4byte	.Ldebug_ranges0+0x5a8
 7405 11db 02       		.byte	0x2
 7406 11dc B201     		.2byte	0x1b2
 7407 11de 03       		.byte	0x3
 7408 11df 1D       		.uleb128 0x1d
 7409 11e0 450A0000 		.4byte	0xa45
 7410 11e4 E6000000 		.4byte	.LBI1487
 7411 11e8 0C00     		.2byte	.LVU419
 7412 11ea E6000000 		.4byte	.LBB1487
 7413 11ee 04000000 		.4byte	.LBE1487-.LBB1487
 7414 11f2 03       		.byte	0x3
 7415 11f3 4103     		.2byte	0x341
ARM GAS  /tmp/ccTMtxXw.s 			page 132


 7416 11f5 03       		.byte	0x3
 7417 11f6 1E       		.uleb128 0x1e
 7418 11f7 530A0000 		.4byte	0xa53
 7419 11fb 47040000 		.4byte	.LLST32
 7420 11ff 45040000 		.4byte	.LVUS32
 7421 1203 00       		.byte	0
 7422 1204 00       		.byte	0
 7423 1205 00       		.byte	0
 7424 1206 00       		.byte	0
 7425 1207 00       		.byte	0
 7426 1208 32       		.uleb128 0x32
 7427 1209 7A090000 		.4byte	0x97a
 7428 120d EA000000 		.4byte	.LBI1494
 7429 1211 0300     		.2byte	.LVU424
 7430 1213 C0050000 		.4byte	.Ldebug_ranges0+0x5c0
 7431 1217 01       		.byte	0x1
 7432 1218 FB       		.byte	0xfb
 7433 1219 05       		.byte	0x5
 7434 121a 2C120000 		.4byte	0x122c
 7435 121e 1E       		.uleb128 0x1e
 7436 121f 87090000 		.4byte	0x987
 7437 1223 5D040000 		.4byte	.LLST33
 7438 1227 5B040000 		.4byte	.LVUS33
 7439 122b 00       		.byte	0
 7440 122c 1B       		.uleb128 0x1b
 7441 122d 270A0000 		.4byte	0xa27
 7442 1231 F8000000 		.4byte	.LBI1498
 7443 1235 0100     		.2byte	.LVU437
 7444 1237 D8050000 		.4byte	.Ldebug_ranges0+0x5d8
 7445 123b 01       		.byte	0x1
 7446 123c 0401     		.2byte	0x104
 7447 123e 07       		.byte	0x7
 7448 123f 7D120000 		.4byte	0x127d
 7449 1243 1C       		.uleb128 0x1c
 7450 1244 3B0A0000 		.4byte	0xa3b
 7451 1248 F8000000 		.4byte	.LBI1499
 7452 124c 0300     		.2byte	.LVU439
 7453 124e E0050000 		.4byte	.Ldebug_ranges0+0x5e0
 7454 1252 02       		.byte	0x2
 7455 1253 9901     		.2byte	0x199
 7456 1255 03       		.byte	0x3
 7457 1256 1D       		.uleb128 0x1d
 7458 1257 450A0000 		.4byte	0xa45
 7459 125b F8000000 		.4byte	.LBI1500
 7460 125f 0500     		.2byte	.LVU441
 7461 1261 F8000000 		.4byte	.LBB1500
 7462 1265 04000000 		.4byte	.LBE1500-.LBB1500
 7463 1269 03       		.byte	0x3
 7464 126a 2E03     		.2byte	0x32e
 7465 126c 03       		.byte	0x3
 7466 126d 1E       		.uleb128 0x1e
 7467 126e 530A0000 		.4byte	0xa53
 7468 1272 77040000 		.4byte	.LLST34
 7469 1276 75040000 		.4byte	.LVUS34
 7470 127a 00       		.byte	0
 7471 127b 00       		.byte	0
 7472 127c 00       		.byte	0
ARM GAS  /tmp/ccTMtxXw.s 			page 133


 7473 127d 1B       		.uleb128 0x1b
 7474 127e FA090000 		.4byte	0x9fa
 7475 1282 04010000 		.4byte	.LBI1505
 7476 1286 0100     		.2byte	.LVU449
 7477 1288 F8050000 		.4byte	.Ldebug_ranges0+0x5f8
 7478 128c 01       		.byte	0x1
 7479 128d 0601     		.2byte	0x106
 7480 128f 07       		.byte	0x7
 7481 1290 D4120000 		.4byte	0x12d4
 7482 1294 1F       		.uleb128 0x1f
 7483 1295 F8050000 		.4byte	.Ldebug_ranges0+0x5f8
 7484 1299 1C       		.uleb128 0x1c
 7485 129a 310A0000 		.4byte	0xa31
 7486 129e 04010000 		.4byte	.LBI1507
 7487 12a2 0800     		.2byte	.LVU456
 7488 12a4 F8050000 		.4byte	.Ldebug_ranges0+0x5f8
 7489 12a8 02       		.byte	0x2
 7490 12a9 B201     		.2byte	0x1b2
 7491 12ab 03       		.byte	0x3
 7492 12ac 1D       		.uleb128 0x1d
 7493 12ad 450A0000 		.4byte	0xa45
 7494 12b1 04010000 		.4byte	.LBI1508
 7495 12b5 0A00     		.2byte	.LVU458
 7496 12b7 04010000 		.4byte	.LBB1508
 7497 12bb 06000000 		.4byte	.LBE1508-.LBB1508
 7498 12bf 03       		.byte	0x3
 7499 12c0 4103     		.2byte	0x341
 7500 12c2 03       		.byte	0x3
 7501 12c3 1E       		.uleb128 0x1e
 7502 12c4 530A0000 		.4byte	0xa53
 7503 12c8 8E040000 		.4byte	.LLST35
 7504 12cc 8C040000 		.4byte	.LVUS35
 7505 12d0 00       		.byte	0
 7506 12d1 00       		.byte	0
 7507 12d2 00       		.byte	0
 7508 12d3 00       		.byte	0
 7509 12d4 1B       		.uleb128 0x1b
 7510 12d5 270A0000 		.4byte	0xa27
 7511 12d9 26010000 		.4byte	.LBI1513
 7512 12dd 0100     		.2byte	.LVU470
 7513 12df 10060000 		.4byte	.Ldebug_ranges0+0x610
 7514 12e3 01       		.byte	0x1
 7515 12e4 0901     		.2byte	0x109
 7516 12e6 05       		.byte	0x5
 7517 12e7 25130000 		.4byte	0x1325
 7518 12eb 1C       		.uleb128 0x1c
 7519 12ec 3B0A0000 		.4byte	0xa3b
 7520 12f0 26010000 		.4byte	.LBI1514
 7521 12f4 0300     		.2byte	.LVU472
 7522 12f6 18060000 		.4byte	.Ldebug_ranges0+0x618
 7523 12fa 02       		.byte	0x2
 7524 12fb 9901     		.2byte	0x199
 7525 12fd 03       		.byte	0x3
 7526 12fe 1D       		.uleb128 0x1d
 7527 12ff 450A0000 		.4byte	0xa45
 7528 1303 26010000 		.4byte	.LBI1515
 7529 1307 0500     		.2byte	.LVU474
ARM GAS  /tmp/ccTMtxXw.s 			page 134


 7530 1309 26010000 		.4byte	.LBB1515
 7531 130d 04000000 		.4byte	.LBE1515-.LBB1515
 7532 1311 03       		.byte	0x3
 7533 1312 2E03     		.2byte	0x32e
 7534 1314 03       		.byte	0x3
 7535 1315 1E       		.uleb128 0x1e
 7536 1316 530A0000 		.4byte	0xa53
 7537 131a A4040000 		.4byte	.LLST36
 7538 131e A2040000 		.4byte	.LVUS36
 7539 1322 00       		.byte	0
 7540 1323 00       		.byte	0
 7541 1324 00       		.byte	0
 7542 1325 1B       		.uleb128 0x1b
 7543 1326 FA090000 		.4byte	0x9fa
 7544 132a 32010000 		.4byte	.LBI1520
 7545 132e 0100     		.2byte	.LVU482
 7546 1330 30060000 		.4byte	.Ldebug_ranges0+0x630
 7547 1334 01       		.byte	0x1
 7548 1335 0B01     		.2byte	0x10b
 7549 1337 05       		.byte	0x5
 7550 1338 7C130000 		.4byte	0x137c
 7551 133c 1F       		.uleb128 0x1f
 7552 133d 30060000 		.4byte	.Ldebug_ranges0+0x630
 7553 1341 1C       		.uleb128 0x1c
 7554 1342 310A0000 		.4byte	0xa31
 7555 1346 32010000 		.4byte	.LBI1522
 7556 134a 0800     		.2byte	.LVU489
 7557 134c 30060000 		.4byte	.Ldebug_ranges0+0x630
 7558 1350 02       		.byte	0x2
 7559 1351 B201     		.2byte	0x1b2
 7560 1353 03       		.byte	0x3
 7561 1354 1D       		.uleb128 0x1d
 7562 1355 450A0000 		.4byte	0xa45
 7563 1359 32010000 		.4byte	.LBI1523
 7564 135d 0A00     		.2byte	.LVU491
 7565 135f 32010000 		.4byte	.LBB1523
 7566 1363 04000000 		.4byte	.LBE1523-.LBB1523
 7567 1367 03       		.byte	0x3
 7568 1368 4103     		.2byte	0x341
 7569 136a 03       		.byte	0x3
 7570 136b 1E       		.uleb128 0x1e
 7571 136c 530A0000 		.4byte	0xa53
 7572 1370 BB040000 		.4byte	.LLST37
 7573 1374 B9040000 		.4byte	.LVUS37
 7574 1378 00       		.byte	0
 7575 1379 00       		.byte	0
 7576 137a 00       		.byte	0
 7577 137b 00       		.byte	0
 7578 137c 1B       		.uleb128 0x1b
 7579 137d 70090000 		.4byte	0x970
 7580 1381 52010000 		.4byte	.LBI1528
 7581 1385 0100     		.2byte	.LVU501
 7582 1387 48060000 		.4byte	.Ldebug_ranges0+0x648
 7583 138b 01       		.byte	0x1
 7584 138c 1401     		.2byte	0x114
 7585 138e 05       		.byte	0x5
 7586 138f E1130000 		.4byte	0x13e1
ARM GAS  /tmp/ccTMtxXw.s 			page 135


 7587 1393 1C       		.uleb128 0x1c
 7588 1394 270A0000 		.4byte	0xa27
 7589 1398 52010000 		.4byte	.LBI1529
 7590 139c 0300     		.2byte	.LVU503
 7591 139e 50060000 		.4byte	.Ldebug_ranges0+0x650
 7592 13a2 06       		.byte	0x6
 7593 13a3 3F02     		.2byte	0x23f
 7594 13a5 03       		.byte	0x3
 7595 13a6 1C       		.uleb128 0x1c
 7596 13a7 3B0A0000 		.4byte	0xa3b
 7597 13ab 52010000 		.4byte	.LBI1530
 7598 13af 0500     		.2byte	.LVU505
 7599 13b1 58060000 		.4byte	.Ldebug_ranges0+0x658
 7600 13b5 02       		.byte	0x2
 7601 13b6 9901     		.2byte	0x199
 7602 13b8 03       		.byte	0x3
 7603 13b9 1D       		.uleb128 0x1d
 7604 13ba 450A0000 		.4byte	0xa45
 7605 13be 52010000 		.4byte	.LBI1531
 7606 13c2 0700     		.2byte	.LVU507
 7607 13c4 52010000 		.4byte	.LBB1531
 7608 13c8 04000000 		.4byte	.LBE1531-.LBB1531
 7609 13cc 03       		.byte	0x3
 7610 13cd 2E03     		.2byte	0x32e
 7611 13cf 03       		.byte	0x3
 7612 13d0 1E       		.uleb128 0x1e
 7613 13d1 530A0000 		.4byte	0xa53
 7614 13d5 D1040000 		.4byte	.LLST38
 7615 13d9 CF040000 		.4byte	.LVUS38
 7616 13dd 00       		.byte	0
 7617 13de 00       		.byte	0
 7618 13df 00       		.byte	0
 7619 13e0 00       		.byte	0
 7620 13e1 1B       		.uleb128 0x1b
 7621 13e2 9A090000 		.4byte	0x99a
 7622 13e6 56010000 		.4byte	.LBI1539
 7623 13ea 0400     		.2byte	.LVU513
 7624 13ec 70060000 		.4byte	.Ldebug_ranges0+0x670
 7625 13f0 01       		.byte	0x1
 7626 13f1 1401     		.2byte	0x114
 7627 13f3 05       		.byte	0x5
 7628 13f4 4E140000 		.4byte	0x144e
 7629 13f8 1E       		.uleb128 0x1e
 7630 13f9 AB090000 		.4byte	0x9ab
 7631 13fd E8040000 		.4byte	.LLST39
 7632 1401 E6040000 		.4byte	.LVUS39
 7633 1405 32       		.uleb128 0x32
 7634 1406 DC090000 		.4byte	0x9dc
 7635 140a 56010000 		.4byte	.LBI1540
 7636 140e 0700     		.2byte	.LVU516
 7637 1410 88060000 		.4byte	.Ldebug_ranges0+0x688
 7638 1414 05       		.byte	0x5
 7639 1415 AB       		.byte	0xab
 7640 1416 0A       		.byte	0xa
 7641 1417 29140000 		.4byte	0x1429
 7642 141b 1E       		.uleb128 0x1e
 7643 141c ED090000 		.4byte	0x9ed
ARM GAS  /tmp/ccTMtxXw.s 			page 136


 7644 1420 02050000 		.4byte	.LLST40
 7645 1424 00050000 		.4byte	.LVUS40
 7646 1428 00       		.byte	0
 7647 1429 33       		.uleb128 0x33
 7648 142a BE090000 		.4byte	0x9be
 7649 142e 56010000 		.4byte	.LBI1543
 7650 1432 0A00     		.2byte	.LVU519
 7651 1434 56010000 		.4byte	.LBB1543
 7652 1438 00000000 		.4byte	.LBE1543-.LBB1543
 7653 143c 05       		.byte	0x5
 7654 143d AB       		.byte	0xab
 7655 143e 1E       		.byte	0x1e
 7656 143f 1E       		.uleb128 0x1e
 7657 1440 CF090000 		.4byte	0x9cf
 7658 1444 1C050000 		.4byte	.LLST41
 7659 1448 1A050000 		.4byte	.LVUS41
 7660 144c 00       		.byte	0
 7661 144d 00       		.byte	0
 7662 144e 1B       		.uleb128 0x1b
 7663 144f 66090000 		.4byte	0x966
 7664 1453 74010000 		.4byte	.LBI1547
 7665 1457 0100     		.2byte	.LVU526
 7666 1459 A0060000 		.4byte	.Ldebug_ranges0+0x6a0
 7667 145d 01       		.byte	0x1
 7668 145e 1401     		.2byte	0x114
 7669 1460 05       		.byte	0x5
 7670 1461 B9140000 		.4byte	0x14b9
 7671 1465 1C       		.uleb128 0x1c
 7672 1466 FA090000 		.4byte	0x9fa
 7673 146a 74010000 		.4byte	.LBI1548
 7674 146e 0300     		.2byte	.LVU528
 7675 1470 A8060000 		.4byte	.Ldebug_ranges0+0x6a8
 7676 1474 06       		.byte	0x6
 7677 1475 4A02     		.2byte	0x24a
 7678 1477 03       		.byte	0x3
 7679 1478 1F       		.uleb128 0x1f
 7680 1479 A8060000 		.4byte	.Ldebug_ranges0+0x6a8
 7681 147d 1C       		.uleb128 0x1c
 7682 147e 310A0000 		.4byte	0xa31
 7683 1482 74010000 		.4byte	.LBI1550
 7684 1486 0A00     		.2byte	.LVU535
 7685 1488 A8060000 		.4byte	.Ldebug_ranges0+0x6a8
 7686 148c 02       		.byte	0x2
 7687 148d B201     		.2byte	0x1b2
 7688 148f 03       		.byte	0x3
 7689 1490 1D       		.uleb128 0x1d
 7690 1491 450A0000 		.4byte	0xa45
 7691 1495 74010000 		.4byte	.LBI1551
 7692 1499 0C00     		.2byte	.LVU537
 7693 149b 74010000 		.4byte	.LBB1551
 7694 149f 04000000 		.4byte	.LBE1551-.LBB1551
 7695 14a3 03       		.byte	0x3
 7696 14a4 4103     		.2byte	0x341
 7697 14a6 03       		.byte	0x3
 7698 14a7 1E       		.uleb128 0x1e
 7699 14a8 530A0000 		.4byte	0xa53
 7700 14ac 36050000 		.4byte	.LLST42
ARM GAS  /tmp/ccTMtxXw.s 			page 137


 7701 14b0 34050000 		.4byte	.LVUS42
 7702 14b4 00       		.byte	0
 7703 14b5 00       		.byte	0
 7704 14b6 00       		.byte	0
 7705 14b7 00       		.byte	0
 7706 14b8 00       		.byte	0
 7707 14b9 1B       		.uleb128 0x1b
 7708 14ba 70090000 		.4byte	0x970
 7709 14be 78010000 		.4byte	.LBI1558
 7710 14c2 0300     		.2byte	.LVU542
 7711 14c4 C0060000 		.4byte	.Ldebug_ranges0+0x6c0
 7712 14c8 01       		.byte	0x1
 7713 14c9 1501     		.2byte	0x115
 7714 14cb 05       		.byte	0x5
 7715 14cc 1E150000 		.4byte	0x151e
 7716 14d0 1C       		.uleb128 0x1c
 7717 14d1 270A0000 		.4byte	0xa27
 7718 14d5 78010000 		.4byte	.LBI1559
 7719 14d9 0500     		.2byte	.LVU544
 7720 14db C8060000 		.4byte	.Ldebug_ranges0+0x6c8
 7721 14df 06       		.byte	0x6
 7722 14e0 3F02     		.2byte	0x23f
 7723 14e2 03       		.byte	0x3
 7724 14e3 1C       		.uleb128 0x1c
 7725 14e4 3B0A0000 		.4byte	0xa3b
 7726 14e8 78010000 		.4byte	.LBI1560
 7727 14ec 0700     		.2byte	.LVU546
 7728 14ee D0060000 		.4byte	.Ldebug_ranges0+0x6d0
 7729 14f2 02       		.byte	0x2
 7730 14f3 9901     		.2byte	0x199
 7731 14f5 03       		.byte	0x3
 7732 14f6 1D       		.uleb128 0x1d
 7733 14f7 450A0000 		.4byte	0xa45
 7734 14fb 78010000 		.4byte	.LBI1561
 7735 14ff 0900     		.2byte	.LVU548
 7736 1501 78010000 		.4byte	.LBB1561
 7737 1505 04000000 		.4byte	.LBE1561-.LBB1561
 7738 1509 03       		.byte	0x3
 7739 150a 2E03     		.2byte	0x32e
 7740 150c 03       		.byte	0x3
 7741 150d 1E       		.uleb128 0x1e
 7742 150e 530A0000 		.4byte	0xa53
 7743 1512 4C050000 		.4byte	.LLST43
 7744 1516 4A050000 		.4byte	.LVUS43
 7745 151a 00       		.byte	0
 7746 151b 00       		.byte	0
 7747 151c 00       		.byte	0
 7748 151d 00       		.byte	0
 7749 151e 37       		.uleb128 0x37
 7750 151f BE090000 		.4byte	0x9be
 7751 1523 7C010000 		.4byte	.LBI1569
 7752 1527 0400     		.2byte	.LVU554
 7753 1529 7C010000 		.4byte	.LBB1569
 7754 152d 00000000 		.4byte	.LBE1569-.LBB1569
 7755 1531 01       		.byte	0x1
 7756 1532 1501     		.2byte	0x115
 7757 1534 05       		.byte	0x5
ARM GAS  /tmp/ccTMtxXw.s 			page 138


 7758 1535 47150000 		.4byte	0x1547
 7759 1539 1E       		.uleb128 0x1e
 7760 153a CF090000 		.4byte	0x9cf
 7761 153e 63050000 		.4byte	.LLST44
 7762 1542 61050000 		.4byte	.LVUS44
 7763 1546 00       		.byte	0
 7764 1547 1B       		.uleb128 0x1b
 7765 1548 66090000 		.4byte	0x966
 7766 154c 96010000 		.4byte	.LBI1571
 7767 1550 0100     		.2byte	.LVU560
 7768 1552 E8060000 		.4byte	.Ldebug_ranges0+0x6e8
 7769 1556 01       		.byte	0x1
 7770 1557 1501     		.2byte	0x115
 7771 1559 05       		.byte	0x5
 7772 155a B2150000 		.4byte	0x15b2
 7773 155e 1C       		.uleb128 0x1c
 7774 155f FA090000 		.4byte	0x9fa
 7775 1563 96010000 		.4byte	.LBI1572
 7776 1567 0300     		.2byte	.LVU562
 7777 1569 F0060000 		.4byte	.Ldebug_ranges0+0x6f0
 7778 156d 06       		.byte	0x6
 7779 156e 4A02     		.2byte	0x24a
 7780 1570 03       		.byte	0x3
 7781 1571 1F       		.uleb128 0x1f
 7782 1572 F0060000 		.4byte	.Ldebug_ranges0+0x6f0
 7783 1576 1C       		.uleb128 0x1c
 7784 1577 310A0000 		.4byte	0xa31
 7785 157b 96010000 		.4byte	.LBI1574
 7786 157f 0A00     		.2byte	.LVU569
 7787 1581 F0060000 		.4byte	.Ldebug_ranges0+0x6f0
 7788 1585 02       		.byte	0x2
 7789 1586 B201     		.2byte	0x1b2
 7790 1588 03       		.byte	0x3
 7791 1589 1D       		.uleb128 0x1d
 7792 158a 450A0000 		.4byte	0xa45
 7793 158e 96010000 		.4byte	.LBI1575
 7794 1592 0C00     		.2byte	.LVU571
 7795 1594 96010000 		.4byte	.LBB1575
 7796 1598 04000000 		.4byte	.LBE1575-.LBB1575
 7797 159c 03       		.byte	0x3
 7798 159d 4103     		.2byte	0x341
 7799 159f 03       		.byte	0x3
 7800 15a0 1E       		.uleb128 0x1e
 7801 15a1 530A0000 		.4byte	0xa53
 7802 15a5 7D050000 		.4byte	.LLST45
 7803 15a9 7B050000 		.4byte	.LVUS45
 7804 15ad 00       		.byte	0
 7805 15ae 00       		.byte	0
 7806 15af 00       		.byte	0
 7807 15b0 00       		.byte	0
 7808 15b1 00       		.byte	0
 7809 15b2 1B       		.uleb128 0x1b
 7810 15b3 70090000 		.4byte	0x970
 7811 15b7 9A010000 		.4byte	.LBI1582
 7812 15bb 0300     		.2byte	.LVU576
 7813 15bd 08070000 		.4byte	.Ldebug_ranges0+0x708
 7814 15c1 01       		.byte	0x1
ARM GAS  /tmp/ccTMtxXw.s 			page 139


 7815 15c2 1601     		.2byte	0x116
 7816 15c4 05       		.byte	0x5
 7817 15c5 17160000 		.4byte	0x1617
 7818 15c9 1C       		.uleb128 0x1c
 7819 15ca 270A0000 		.4byte	0xa27
 7820 15ce 9A010000 		.4byte	.LBI1583
 7821 15d2 0500     		.2byte	.LVU578
 7822 15d4 10070000 		.4byte	.Ldebug_ranges0+0x710
 7823 15d8 06       		.byte	0x6
 7824 15d9 3F02     		.2byte	0x23f
 7825 15db 03       		.byte	0x3
 7826 15dc 1C       		.uleb128 0x1c
 7827 15dd 3B0A0000 		.4byte	0xa3b
 7828 15e1 9A010000 		.4byte	.LBI1584
 7829 15e5 0700     		.2byte	.LVU580
 7830 15e7 18070000 		.4byte	.Ldebug_ranges0+0x718
 7831 15eb 02       		.byte	0x2
 7832 15ec 9901     		.2byte	0x199
 7833 15ee 03       		.byte	0x3
 7834 15ef 1D       		.uleb128 0x1d
 7835 15f0 450A0000 		.4byte	0xa45
 7836 15f4 9A010000 		.4byte	.LBI1585
 7837 15f8 0900     		.2byte	.LVU582
 7838 15fa 9A010000 		.4byte	.LBB1585
 7839 15fe 04000000 		.4byte	.LBE1585-.LBB1585
 7840 1602 03       		.byte	0x3
 7841 1603 2E03     		.2byte	0x32e
 7842 1605 03       		.byte	0x3
 7843 1606 1E       		.uleb128 0x1e
 7844 1607 530A0000 		.4byte	0xa53
 7845 160b 93050000 		.4byte	.LLST46
 7846 160f 91050000 		.4byte	.LVUS46
 7847 1613 00       		.byte	0
 7848 1614 00       		.byte	0
 7849 1615 00       		.byte	0
 7850 1616 00       		.byte	0
 7851 1617 1B       		.uleb128 0x1b
 7852 1618 66090000 		.4byte	0x966
 7853 161c B6010000 		.4byte	.LBI1593
 7854 1620 0100     		.2byte	.LVU589
 7855 1622 30070000 		.4byte	.Ldebug_ranges0+0x730
 7856 1626 01       		.byte	0x1
 7857 1627 1601     		.2byte	0x116
 7858 1629 05       		.byte	0x5
 7859 162a 82160000 		.4byte	0x1682
 7860 162e 1C       		.uleb128 0x1c
 7861 162f FA090000 		.4byte	0x9fa
 7862 1633 B6010000 		.4byte	.LBI1594
 7863 1637 0300     		.2byte	.LVU591
 7864 1639 38070000 		.4byte	.Ldebug_ranges0+0x738
 7865 163d 06       		.byte	0x6
 7866 163e 4A02     		.2byte	0x24a
 7867 1640 03       		.byte	0x3
 7868 1641 1F       		.uleb128 0x1f
 7869 1642 38070000 		.4byte	.Ldebug_ranges0+0x738
 7870 1646 1C       		.uleb128 0x1c
 7871 1647 310A0000 		.4byte	0xa31
ARM GAS  /tmp/ccTMtxXw.s 			page 140


 7872 164b B6010000 		.4byte	.LBI1596
 7873 164f 0A00     		.2byte	.LVU598
 7874 1651 38070000 		.4byte	.Ldebug_ranges0+0x738
 7875 1655 02       		.byte	0x2
 7876 1656 B201     		.2byte	0x1b2
 7877 1658 03       		.byte	0x3
 7878 1659 1D       		.uleb128 0x1d
 7879 165a 450A0000 		.4byte	0xa45
 7880 165e B6010000 		.4byte	.LBI1597
 7881 1662 0C00     		.2byte	.LVU600
 7882 1664 B6010000 		.4byte	.LBB1597
 7883 1668 04000000 		.4byte	.LBE1597-.LBB1597
 7884 166c 03       		.byte	0x3
 7885 166d 4103     		.2byte	0x341
 7886 166f 03       		.byte	0x3
 7887 1670 1E       		.uleb128 0x1e
 7888 1671 530A0000 		.4byte	0xa53
 7889 1675 AA050000 		.4byte	.LLST47
 7890 1679 A8050000 		.4byte	.LVUS47
 7891 167d 00       		.byte	0
 7892 167e 00       		.byte	0
 7893 167f 00       		.byte	0
 7894 1680 00       		.byte	0
 7895 1681 00       		.byte	0
 7896 1682 1B       		.uleb128 0x1b
 7897 1683 270A0000 		.4byte	0xa27
 7898 1687 C6010000 		.4byte	.LBI1604
 7899 168b 0200     		.2byte	.LVU615
 7900 168d 50070000 		.4byte	.Ldebug_ranges0+0x750
 7901 1691 01       		.byte	0x1
 7902 1692 1F01     		.2byte	0x11f
 7903 1694 07       		.byte	0x7
 7904 1695 CF160000 		.4byte	0x16cf
 7905 1699 1C       		.uleb128 0x1c
 7906 169a 3B0A0000 		.4byte	0xa3b
 7907 169e C6010000 		.4byte	.LBI1605
 7908 16a2 0400     		.2byte	.LVU617
 7909 16a4 78070000 		.4byte	.Ldebug_ranges0+0x778
 7910 16a8 02       		.byte	0x2
 7911 16a9 9901     		.2byte	0x199
 7912 16ab 03       		.byte	0x3
 7913 16ac 1C       		.uleb128 0x1c
 7914 16ad 450A0000 		.4byte	0xa45
 7915 16b1 C6010000 		.4byte	.LBI1606
 7916 16b5 0600     		.2byte	.LVU619
 7917 16b7 98070000 		.4byte	.Ldebug_ranges0+0x798
 7918 16bb 03       		.byte	0x3
 7919 16bc 2E03     		.2byte	0x32e
 7920 16be 03       		.byte	0x3
 7921 16bf 1E       		.uleb128 0x1e
 7922 16c0 530A0000 		.4byte	0xa53
 7923 16c4 C0050000 		.4byte	.LLST48
 7924 16c8 BE050000 		.4byte	.LVUS48
 7925 16cc 00       		.byte	0
 7926 16cd 00       		.byte	0
 7927 16ce 00       		.byte	0
 7928 16cf 1B       		.uleb128 0x1b
ARM GAS  /tmp/ccTMtxXw.s 			page 141


 7929 16d0 FA090000 		.4byte	0x9fa
 7930 16d4 D2010000 		.4byte	.LBI1615
 7931 16d8 0100     		.2byte	.LVU627
 7932 16da B0070000 		.4byte	.Ldebug_ranges0+0x7b0
 7933 16de 01       		.byte	0x1
 7934 16df 2101     		.2byte	0x121
 7935 16e1 07       		.byte	0x7
 7936 16e2 26170000 		.4byte	0x1726
 7937 16e6 1F       		.uleb128 0x1f
 7938 16e7 B0070000 		.4byte	.Ldebug_ranges0+0x7b0
 7939 16eb 1C       		.uleb128 0x1c
 7940 16ec 310A0000 		.4byte	0xa31
 7941 16f0 D2010000 		.4byte	.LBI1617
 7942 16f4 0800     		.2byte	.LVU634
 7943 16f6 B0070000 		.4byte	.Ldebug_ranges0+0x7b0
 7944 16fa 02       		.byte	0x2
 7945 16fb B201     		.2byte	0x1b2
 7946 16fd 03       		.byte	0x3
 7947 16fe 1D       		.uleb128 0x1d
 7948 16ff 450A0000 		.4byte	0xa45
 7949 1703 D2010000 		.4byte	.LBI1618
 7950 1707 0A00     		.2byte	.LVU636
 7951 1709 D2010000 		.4byte	.LBB1618
 7952 170d 06000000 		.4byte	.LBE1618-.LBB1618
 7953 1711 03       		.byte	0x3
 7954 1712 4103     		.2byte	0x341
 7955 1714 03       		.byte	0x3
 7956 1715 1E       		.uleb128 0x1e
 7957 1716 530A0000 		.4byte	0xa53
 7958 171a D7050000 		.4byte	.LLST49
 7959 171e D5050000 		.4byte	.LVUS49
 7960 1722 00       		.byte	0
 7961 1723 00       		.byte	0
 7962 1724 00       		.byte	0
 7963 1725 00       		.byte	0
 7964 1726 1B       		.uleb128 0x1b
 7965 1727 70090000 		.4byte	0x970
 7966 172b 4A020000 		.4byte	.LBI1623
 7967 172f 0100     		.2byte	.LVU672
 7968 1731 C8070000 		.4byte	.Ldebug_ranges0+0x7c8
 7969 1735 01       		.byte	0x1
 7970 1736 3801     		.2byte	0x138
 7971 1738 05       		.byte	0x5
 7972 1739 8B170000 		.4byte	0x178b
 7973 173d 1C       		.uleb128 0x1c
 7974 173e 270A0000 		.4byte	0xa27
 7975 1742 4A020000 		.4byte	.LBI1624
 7976 1746 0300     		.2byte	.LVU674
 7977 1748 D0070000 		.4byte	.Ldebug_ranges0+0x7d0
 7978 174c 06       		.byte	0x6
 7979 174d 3F02     		.2byte	0x23f
 7980 174f 03       		.byte	0x3
 7981 1750 1C       		.uleb128 0x1c
 7982 1751 3B0A0000 		.4byte	0xa3b
 7983 1755 4A020000 		.4byte	.LBI1625
 7984 1759 0500     		.2byte	.LVU676
 7985 175b D8070000 		.4byte	.Ldebug_ranges0+0x7d8
ARM GAS  /tmp/ccTMtxXw.s 			page 142


 7986 175f 02       		.byte	0x2
 7987 1760 9901     		.2byte	0x199
 7988 1762 03       		.byte	0x3
 7989 1763 1D       		.uleb128 0x1d
 7990 1764 450A0000 		.4byte	0xa45
 7991 1768 4A020000 		.4byte	.LBI1626
 7992 176c 0700     		.2byte	.LVU678
 7993 176e 4A020000 		.4byte	.LBB1626
 7994 1772 04000000 		.4byte	.LBE1626-.LBB1626
 7995 1776 03       		.byte	0x3
 7996 1777 2E03     		.2byte	0x32e
 7997 1779 03       		.byte	0x3
 7998 177a 1E       		.uleb128 0x1e
 7999 177b 530A0000 		.4byte	0xa53
 8000 177f ED050000 		.4byte	.LLST50
 8001 1783 EB050000 		.4byte	.LVUS50
 8002 1787 00       		.byte	0
 8003 1788 00       		.byte	0
 8004 1789 00       		.byte	0
 8005 178a 00       		.byte	0
 8006 178b 1B       		.uleb128 0x1b
 8007 178c 9A090000 		.4byte	0x99a
 8008 1790 4E020000 		.4byte	.LBI1634
 8009 1794 0400     		.2byte	.LVU684
 8010 1796 F0070000 		.4byte	.Ldebug_ranges0+0x7f0
 8011 179a 01       		.byte	0x1
 8012 179b 3801     		.2byte	0x138
 8013 179d 05       		.byte	0x5
 8014 179e F8170000 		.4byte	0x17f8
 8015 17a2 1E       		.uleb128 0x1e
 8016 17a3 AB090000 		.4byte	0x9ab
 8017 17a7 04060000 		.4byte	.LLST51
 8018 17ab 02060000 		.4byte	.LVUS51
 8019 17af 32       		.uleb128 0x32
 8020 17b0 DC090000 		.4byte	0x9dc
 8021 17b4 4E020000 		.4byte	.LBI1636
 8022 17b8 0700     		.2byte	.LVU687
 8023 17ba 08080000 		.4byte	.Ldebug_ranges0+0x808
 8024 17be 05       		.byte	0x5
 8025 17bf AB       		.byte	0xab
 8026 17c0 0A       		.byte	0xa
 8027 17c1 D3170000 		.4byte	0x17d3
 8028 17c5 1E       		.uleb128 0x1e
 8029 17c6 ED090000 		.4byte	0x9ed
 8030 17ca 1E060000 		.4byte	.LLST52
 8031 17ce 1C060000 		.4byte	.LVUS52
 8032 17d2 00       		.byte	0
 8033 17d3 33       		.uleb128 0x33
 8034 17d4 BE090000 		.4byte	0x9be
 8035 17d8 4E020000 		.4byte	.LBI1639
 8036 17dc 0A00     		.2byte	.LVU690
 8037 17de 4E020000 		.4byte	.LBB1639
 8038 17e2 00000000 		.4byte	.LBE1639-.LBB1639
 8039 17e6 05       		.byte	0x5
 8040 17e7 AB       		.byte	0xab
 8041 17e8 1E       		.byte	0x1e
 8042 17e9 1E       		.uleb128 0x1e
ARM GAS  /tmp/ccTMtxXw.s 			page 143


 8043 17ea CF090000 		.4byte	0x9cf
 8044 17ee 38060000 		.4byte	.LLST53
 8045 17f2 36060000 		.4byte	.LVUS53
 8046 17f6 00       		.byte	0
 8047 17f7 00       		.byte	0
 8048 17f8 1B       		.uleb128 0x1b
 8049 17f9 66090000 		.4byte	0x966
 8050 17fd 68020000 		.4byte	.LBI1644
 8051 1801 0100     		.2byte	.LVU700
 8052 1803 20080000 		.4byte	.Ldebug_ranges0+0x820
 8053 1807 01       		.byte	0x1
 8054 1808 3801     		.2byte	0x138
 8055 180a 05       		.byte	0x5
 8056 180b 63180000 		.4byte	0x1863
 8057 180f 1C       		.uleb128 0x1c
 8058 1810 FA090000 		.4byte	0x9fa
 8059 1814 68020000 		.4byte	.LBI1645
 8060 1818 0300     		.2byte	.LVU702
 8061 181a 28080000 		.4byte	.Ldebug_ranges0+0x828
 8062 181e 06       		.byte	0x6
 8063 181f 4A02     		.2byte	0x24a
 8064 1821 03       		.byte	0x3
 8065 1822 1F       		.uleb128 0x1f
 8066 1823 28080000 		.4byte	.Ldebug_ranges0+0x828
 8067 1827 1C       		.uleb128 0x1c
 8068 1828 310A0000 		.4byte	0xa31
 8069 182c 68020000 		.4byte	.LBI1647
 8070 1830 0A00     		.2byte	.LVU709
 8071 1832 28080000 		.4byte	.Ldebug_ranges0+0x828
 8072 1836 02       		.byte	0x2
 8073 1837 B201     		.2byte	0x1b2
 8074 1839 03       		.byte	0x3
 8075 183a 1D       		.uleb128 0x1d
 8076 183b 450A0000 		.4byte	0xa45
 8077 183f 68020000 		.4byte	.LBI1648
 8078 1843 0C00     		.2byte	.LVU711
 8079 1845 68020000 		.4byte	.LBB1648
 8080 1849 04000000 		.4byte	.LBE1648-.LBB1648
 8081 184d 03       		.byte	0x3
 8082 184e 4103     		.2byte	0x341
 8083 1850 03       		.byte	0x3
 8084 1851 1E       		.uleb128 0x1e
 8085 1852 530A0000 		.4byte	0xa53
 8086 1856 52060000 		.4byte	.LLST54
 8087 185a 50060000 		.4byte	.LVUS54
 8088 185e 00       		.byte	0
 8089 185f 00       		.byte	0
 8090 1860 00       		.byte	0
 8091 1861 00       		.byte	0
 8092 1862 00       		.byte	0
 8093 1863 1B       		.uleb128 0x1b
 8094 1864 70090000 		.4byte	0x970
 8095 1868 6C020000 		.4byte	.LBI1655
 8096 186c 0300     		.2byte	.LVU716
 8097 186e 40080000 		.4byte	.Ldebug_ranges0+0x840
 8098 1872 01       		.byte	0x1
 8099 1873 3901     		.2byte	0x139
ARM GAS  /tmp/ccTMtxXw.s 			page 144


 8100 1875 05       		.byte	0x5
 8101 1876 C8180000 		.4byte	0x18c8
 8102 187a 1C       		.uleb128 0x1c
 8103 187b 270A0000 		.4byte	0xa27
 8104 187f 6C020000 		.4byte	.LBI1656
 8105 1883 0500     		.2byte	.LVU718
 8106 1885 48080000 		.4byte	.Ldebug_ranges0+0x848
 8107 1889 06       		.byte	0x6
 8108 188a 3F02     		.2byte	0x23f
 8109 188c 03       		.byte	0x3
 8110 188d 1C       		.uleb128 0x1c
 8111 188e 3B0A0000 		.4byte	0xa3b
 8112 1892 6C020000 		.4byte	.LBI1657
 8113 1896 0700     		.2byte	.LVU720
 8114 1898 50080000 		.4byte	.Ldebug_ranges0+0x850
 8115 189c 02       		.byte	0x2
 8116 189d 9901     		.2byte	0x199
 8117 189f 03       		.byte	0x3
 8118 18a0 1D       		.uleb128 0x1d
 8119 18a1 450A0000 		.4byte	0xa45
 8120 18a5 6C020000 		.4byte	.LBI1658
 8121 18a9 0900     		.2byte	.LVU722
 8122 18ab 6C020000 		.4byte	.LBB1658
 8123 18af 04000000 		.4byte	.LBE1658-.LBB1658
 8124 18b3 03       		.byte	0x3
 8125 18b4 2E03     		.2byte	0x32e
 8126 18b6 03       		.byte	0x3
 8127 18b7 1E       		.uleb128 0x1e
 8128 18b8 530A0000 		.4byte	0xa53
 8129 18bc 68060000 		.4byte	.LLST55
 8130 18c0 66060000 		.4byte	.LVUS55
 8131 18c4 00       		.byte	0
 8132 18c5 00       		.byte	0
 8133 18c6 00       		.byte	0
 8134 18c7 00       		.byte	0
 8135 18c8 37       		.uleb128 0x37
 8136 18c9 BE090000 		.4byte	0x9be
 8137 18cd 70020000 		.4byte	.LBI1666
 8138 18d1 0400     		.2byte	.LVU728
 8139 18d3 70020000 		.4byte	.LBB1666
 8140 18d7 00000000 		.4byte	.LBE1666-.LBB1666
 8141 18db 01       		.byte	0x1
 8142 18dc 3901     		.2byte	0x139
 8143 18de 05       		.byte	0x5
 8144 18df F1180000 		.4byte	0x18f1
 8145 18e3 1E       		.uleb128 0x1e
 8146 18e4 CF090000 		.4byte	0x9cf
 8147 18e8 7F060000 		.4byte	.LLST56
 8148 18ec 7D060000 		.4byte	.LVUS56
 8149 18f0 00       		.byte	0
 8150 18f1 1B       		.uleb128 0x1b
 8151 18f2 66090000 		.4byte	0x966
 8152 18f6 80020000 		.4byte	.LBI1668
 8153 18fa 0100     		.2byte	.LVU734
 8154 18fc 68080000 		.4byte	.Ldebug_ranges0+0x868
 8155 1900 01       		.byte	0x1
 8156 1901 3901     		.2byte	0x139
ARM GAS  /tmp/ccTMtxXw.s 			page 145


 8157 1903 05       		.byte	0x5
 8158 1904 5C190000 		.4byte	0x195c
 8159 1908 1C       		.uleb128 0x1c
 8160 1909 FA090000 		.4byte	0x9fa
 8161 190d 80020000 		.4byte	.LBI1669
 8162 1911 0300     		.2byte	.LVU736
 8163 1913 70080000 		.4byte	.Ldebug_ranges0+0x870
 8164 1917 06       		.byte	0x6
 8165 1918 4A02     		.2byte	0x24a
 8166 191a 03       		.byte	0x3
 8167 191b 1F       		.uleb128 0x1f
 8168 191c 70080000 		.4byte	.Ldebug_ranges0+0x870
 8169 1920 1C       		.uleb128 0x1c
 8170 1921 310A0000 		.4byte	0xa31
 8171 1925 80020000 		.4byte	.LBI1671
 8172 1929 0A00     		.2byte	.LVU743
 8173 192b 70080000 		.4byte	.Ldebug_ranges0+0x870
 8174 192f 02       		.byte	0x2
 8175 1930 B201     		.2byte	0x1b2
 8176 1932 03       		.byte	0x3
 8177 1933 1D       		.uleb128 0x1d
 8178 1934 450A0000 		.4byte	0xa45
 8179 1938 80020000 		.4byte	.LBI1672
 8180 193c 0C00     		.2byte	.LVU745
 8181 193e 80020000 		.4byte	.LBB1672
 8182 1942 04000000 		.4byte	.LBE1672-.LBB1672
 8183 1946 03       		.byte	0x3
 8184 1947 4103     		.2byte	0x341
 8185 1949 03       		.byte	0x3
 8186 194a 1E       		.uleb128 0x1e
 8187 194b 530A0000 		.4byte	0xa53
 8188 194f 99060000 		.4byte	.LLST57
 8189 1953 97060000 		.4byte	.LVUS57
 8190 1957 00       		.byte	0
 8191 1958 00       		.byte	0
 8192 1959 00       		.byte	0
 8193 195a 00       		.byte	0
 8194 195b 00       		.byte	0
 8195 195c 1B       		.uleb128 0x1b
 8196 195d 66090000 		.4byte	0x966
 8197 1961 AC020000 		.4byte	.LBI1679
 8198 1965 0100     		.2byte	.LVU755
 8199 1967 88080000 		.4byte	.Ldebug_ranges0+0x888
 8200 196b 01       		.byte	0x1
 8201 196c 3901     		.2byte	0x139
 8202 196e 05       		.byte	0x5
 8203 196f C7190000 		.4byte	0x19c7
 8204 1973 1C       		.uleb128 0x1c
 8205 1974 FA090000 		.4byte	0x9fa
 8206 1978 AC020000 		.4byte	.LBI1680
 8207 197c 0300     		.2byte	.LVU757
 8208 197e 90080000 		.4byte	.Ldebug_ranges0+0x890
 8209 1982 06       		.byte	0x6
 8210 1983 4A02     		.2byte	0x24a
 8211 1985 03       		.byte	0x3
 8212 1986 1F       		.uleb128 0x1f
 8213 1987 90080000 		.4byte	.Ldebug_ranges0+0x890
ARM GAS  /tmp/ccTMtxXw.s 			page 146


 8214 198b 1C       		.uleb128 0x1c
 8215 198c 310A0000 		.4byte	0xa31
 8216 1990 AC020000 		.4byte	.LBI1682
 8217 1994 0A00     		.2byte	.LVU764
 8218 1996 90080000 		.4byte	.Ldebug_ranges0+0x890
 8219 199a 02       		.byte	0x2
 8220 199b B201     		.2byte	0x1b2
 8221 199d 03       		.byte	0x3
 8222 199e 1D       		.uleb128 0x1d
 8223 199f 450A0000 		.4byte	0xa45
 8224 19a3 AC020000 		.4byte	.LBI1683
 8225 19a7 0C00     		.2byte	.LVU766
 8226 19a9 AC020000 		.4byte	.LBB1683
 8227 19ad 04000000 		.4byte	.LBE1683-.LBB1683
 8228 19b1 03       		.byte	0x3
 8229 19b2 4103     		.2byte	0x341
 8230 19b4 03       		.byte	0x3
 8231 19b5 1E       		.uleb128 0x1e
 8232 19b6 530A0000 		.4byte	0xa53
 8233 19ba AF060000 		.4byte	.LLST58
 8234 19be AD060000 		.4byte	.LVUS58
 8235 19c2 00       		.byte	0
 8236 19c3 00       		.byte	0
 8237 19c4 00       		.byte	0
 8238 19c5 00       		.byte	0
 8239 19c6 00       		.byte	0
 8240 19c7 20       		.uleb128 0x20
 8241 19c8 52000000 		.4byte	.LVL52
 8242 19cc E42B0000 		.4byte	0x2be4
 8243 19d0 DB190000 		.4byte	0x19db
 8244 19d4 21       		.uleb128 0x21
 8245 19d5 01       		.uleb128 0x1
 8246 19d6 50       		.byte	0x50
 8247 19d7 02       		.uleb128 0x2
 8248 19d8 74       		.byte	0x74
 8249 19d9 00       		.sleb128 0
 8250 19da 00       		.byte	0
 8251 19db 20       		.uleb128 0x20
 8252 19dc 76000000 		.4byte	.LVL55
 8253 19e0 832B0000 		.4byte	0x2b83
 8254 19e4 F2190000 		.4byte	0x19f2
 8255 19e8 21       		.uleb128 0x21
 8256 19e9 01       		.uleb128 0x1
 8257 19ea 51       		.byte	0x51
 8258 19eb 05       		.uleb128 0x5
 8259 19ec 03       		.byte	0x3
 8260 19ed 0C000000 		.4byte	.LC2
 8261 19f1 00       		.byte	0
 8262 19f2 20       		.uleb128 0x20
 8263 19f3 90000000 		.4byte	.LVL59
 8264 19f7 832B0000 		.4byte	0x2b83
 8265 19fb 091A0000 		.4byte	0x1a09
 8266 19ff 21       		.uleb128 0x21
 8267 1a00 01       		.uleb128 0x1
 8268 1a01 51       		.byte	0x51
 8269 1a02 05       		.uleb128 0x5
 8270 1a03 03       		.byte	0x3
ARM GAS  /tmp/ccTMtxXw.s 			page 147


 8271 1a04 18000000 		.4byte	.LC3
 8272 1a08 00       		.byte	0
 8273 1a09 20       		.uleb128 0x20
 8274 1a0a C2000000 		.4byte	.LVL67
 8275 1a0e 832B0000 		.4byte	0x2b83
 8276 1a12 201A0000 		.4byte	0x1a20
 8277 1a16 21       		.uleb128 0x21
 8278 1a17 01       		.uleb128 0x1
 8279 1a18 51       		.byte	0x51
 8280 1a19 05       		.uleb128 0x5
 8281 1a1a 03       		.byte	0x3
 8282 1a1b 24000000 		.4byte	.LC4
 8283 1a1f 00       		.byte	0
 8284 1a20 20       		.uleb128 0x20
 8285 1a21 E2000000 		.4byte	.LVL71
 8286 1a25 832B0000 		.4byte	0x2b83
 8287 1a29 371A0000 		.4byte	0x1a37
 8288 1a2d 21       		.uleb128 0x21
 8289 1a2e 01       		.uleb128 0x1
 8290 1a2f 51       		.byte	0x51
 8291 1a30 05       		.uleb128 0x5
 8292 1a31 03       		.byte	0x3
 8293 1a32 48000000 		.4byte	.LC5
 8294 1a36 00       		.byte	0
 8295 1a37 20       		.uleb128 0x20
 8296 1a38 04010000 		.4byte	.LVL78
 8297 1a3c 902B0000 		.4byte	0x2b90
 8298 1a40 511A0000 		.4byte	0x1a51
 8299 1a44 21       		.uleb128 0x21
 8300 1a45 01       		.uleb128 0x1
 8301 1a46 50       		.byte	0x50
 8302 1a47 02       		.uleb128 0x2
 8303 1a48 74       		.byte	0x74
 8304 1a49 00       		.sleb128 0
 8305 1a4a 21       		.uleb128 0x21
 8306 1a4b 01       		.uleb128 0x1
 8307 1a4c 51       		.byte	0x51
 8308 1a4d 02       		.uleb128 0x2
 8309 1a4e 78       		.byte	0x78
 8310 1a4f 00       		.sleb128 0
 8311 1a50 00       		.byte	0
 8312 1a51 20       		.uleb128 0x20
 8313 1a52 16010000 		.4byte	.LVL81
 8314 1a56 832B0000 		.4byte	0x2b83
 8315 1a5a 651A0000 		.4byte	0x1a65
 8316 1a5e 21       		.uleb128 0x21
 8317 1a5f 01       		.uleb128 0x1
 8318 1a60 51       		.byte	0x51
 8319 1a61 02       		.uleb128 0x2
 8320 1a62 79       		.byte	0x79
 8321 1a63 00       		.sleb128 0
 8322 1a64 00       		.byte	0
 8323 1a65 20       		.uleb128 0x20
 8324 1a66 32010000 		.4byte	.LVL84
 8325 1a6a A82B0000 		.4byte	0x2ba8
 8326 1a6e 7F1A0000 		.4byte	0x1a7f
 8327 1a72 21       		.uleb128 0x21
ARM GAS  /tmp/ccTMtxXw.s 			page 148


 8328 1a73 01       		.uleb128 0x1
 8329 1a74 50       		.byte	0x50
 8330 1a75 02       		.uleb128 0x2
 8331 1a76 74       		.byte	0x74
 8332 1a77 00       		.sleb128 0
 8333 1a78 21       		.uleb128 0x21
 8334 1a79 01       		.uleb128 0x1
 8335 1a7a 51       		.byte	0x51
 8336 1a7b 02       		.uleb128 0x2
 8337 1a7c 08       		.byte	0x8
 8338 1a7d 41       		.byte	0x41
 8339 1a7e 00       		.byte	0
 8340 1a7f 20       		.uleb128 0x20
 8341 1a80 42010000 		.4byte	.LVL87
 8342 1a84 832B0000 		.4byte	0x2b83
 8343 1a88 931A0000 		.4byte	0x1a93
 8344 1a8c 21       		.uleb128 0x21
 8345 1a8d 01       		.uleb128 0x1
 8346 1a8e 51       		.byte	0x51
 8347 1a8f 02       		.uleb128 0x2
 8348 1a90 79       		.byte	0x79
 8349 1a91 00       		.sleb128 0
 8350 1a92 00       		.byte	0
 8351 1a93 20       		.uleb128 0x20
 8352 1a94 6E010000 		.4byte	.LVL90
 8353 1a98 832B0000 		.4byte	0x2b83
 8354 1a9c AA1A0000 		.4byte	0x1aaa
 8355 1aa0 21       		.uleb128 0x21
 8356 1aa1 01       		.uleb128 0x1
 8357 1aa2 51       		.byte	0x51
 8358 1aa3 05       		.uleb128 0x5
 8359 1aa4 03       		.byte	0x3
 8360 1aa5 6C000000 		.4byte	.LC6
 8361 1aa9 00       		.byte	0
 8362 1aaa 20       		.uleb128 0x20
 8363 1aab 8E010000 		.4byte	.LVL94
 8364 1aaf 832B0000 		.4byte	0x2b83
 8365 1ab3 C11A0000 		.4byte	0x1ac1
 8366 1ab7 21       		.uleb128 0x21
 8367 1ab8 01       		.uleb128 0x1
 8368 1ab9 51       		.byte	0x51
 8369 1aba 05       		.uleb128 0x5
 8370 1abb 03       		.byte	0x3
 8371 1abc 78000000 		.4byte	.LC7
 8372 1ac0 00       		.byte	0
 8373 1ac1 20       		.uleb128 0x20
 8374 1ac2 B0010000 		.4byte	.LVL98
 8375 1ac6 832B0000 		.4byte	0x2b83
 8376 1aca D81A0000 		.4byte	0x1ad8
 8377 1ace 21       		.uleb128 0x21
 8378 1acf 01       		.uleb128 0x1
 8379 1ad0 51       		.byte	0x51
 8380 1ad1 05       		.uleb128 0x5
 8381 1ad2 03       		.byte	0x3
 8382 1ad3 84000000 		.4byte	.LC8
 8383 1ad7 00       		.byte	0
 8384 1ad8 20       		.uleb128 0x20
ARM GAS  /tmp/ccTMtxXw.s 			page 149


 8385 1ad9 D2010000 		.4byte	.LVL104
 8386 1add CC2B0000 		.4byte	0x2bcc
 8387 1ae1 F21A0000 		.4byte	0x1af2
 8388 1ae5 21       		.uleb128 0x21
 8389 1ae6 01       		.uleb128 0x1
 8390 1ae7 50       		.byte	0x50
 8391 1ae8 02       		.uleb128 0x2
 8392 1ae9 74       		.byte	0x74
 8393 1aea 00       		.sleb128 0
 8394 1aeb 21       		.uleb128 0x21
 8395 1aec 01       		.uleb128 0x1
 8396 1aed 51       		.byte	0x51
 8397 1aee 02       		.uleb128 0x2
 8398 1aef 91       		.byte	0x91
 8399 1af0 5C       		.sleb128 -36
 8400 1af1 00       		.byte	0
 8401 1af2 20       		.uleb128 0x20
 8402 1af3 E4010000 		.4byte	.LVL107
 8403 1af7 832B0000 		.4byte	0x2b83
 8404 1afb 061B0000 		.4byte	0x1b06
 8405 1aff 21       		.uleb128 0x21
 8406 1b00 01       		.uleb128 0x1
 8407 1b01 51       		.byte	0x51
 8408 1b02 02       		.uleb128 0x2
 8409 1b03 76       		.byte	0x76
 8410 1b04 00       		.sleb128 0
 8411 1b05 00       		.byte	0
 8412 1b06 38       		.uleb128 0x38
 8413 1b07 F2010000 		.4byte	.LVL108
 8414 1b0b F02B0000 		.4byte	0x2bf0
 8415 1b0f 20       		.uleb128 0x20
 8416 1b10 00020000 		.4byte	.LVL110
 8417 1b14 FD2B0000 		.4byte	0x2bfd
 8418 1b18 2F1B0000 		.4byte	0x1b2f
 8419 1b1c 21       		.uleb128 0x21
 8420 1b1d 01       		.uleb128 0x1
 8421 1b1e 50       		.byte	0x50
 8422 1b1f 05       		.uleb128 0x5
 8423 1b20 03       		.byte	0x3
 8424 1b21 B0000000 		.4byte	.LC10
 8425 1b25 21       		.uleb128 0x21
 8426 1b26 01       		.uleb128 0x1
 8427 1b27 51       		.byte	0x51
 8428 1b28 05       		.uleb128 0x5
 8429 1b29 03       		.byte	0x3
 8430 1b2a 9C000000 		.4byte	.LC9
 8431 1b2e 00       		.byte	0
 8432 1b2f 20       		.uleb128 0x20
 8433 1b30 16020000 		.4byte	.LVL111
 8434 1b34 772B0000 		.4byte	0x2b77
 8435 1b38 4F1B0000 		.4byte	0x1b4f
 8436 1b3c 21       		.uleb128 0x21
 8437 1b3d 01       		.uleb128 0x1
 8438 1b3e 50       		.byte	0x50
 8439 1b3f 02       		.uleb128 0x2
 8440 1b40 74       		.byte	0x74
 8441 1b41 00       		.sleb128 0
ARM GAS  /tmp/ccTMtxXw.s 			page 150


 8442 1b42 21       		.uleb128 0x21
 8443 1b43 01       		.uleb128 0x1
 8444 1b44 51       		.byte	0x51
 8445 1b45 02       		.uleb128 0x2
 8446 1b46 08       		.byte	0x8
 8447 1b47 46       		.byte	0x46
 8448 1b48 21       		.uleb128 0x21
 8449 1b49 01       		.uleb128 0x1
 8450 1b4a 52       		.byte	0x52
 8451 1b4b 02       		.uleb128 0x2
 8452 1b4c 09       		.byte	0x9
 8453 1b4d FF       		.byte	0xff
 8454 1b4e 00       		.byte	0
 8455 1b4f 20       		.uleb128 0x20
 8456 1b50 22020000 		.4byte	.LVL113
 8457 1b54 832B0000 		.4byte	0x2b83
 8458 1b58 631B0000 		.4byte	0x1b63
 8459 1b5c 21       		.uleb128 0x21
 8460 1b5d 01       		.uleb128 0x1
 8461 1b5e 51       		.byte	0x51
 8462 1b5f 02       		.uleb128 0x2
 8463 1b60 76       		.byte	0x76
 8464 1b61 00       		.sleb128 0
 8465 1b62 00       		.byte	0
 8466 1b63 20       		.uleb128 0x20
 8467 1b64 34020000 		.4byte	.LVL114
 8468 1b68 C02B0000 		.4byte	0x2bc0
 8469 1b6c 831B0000 		.4byte	0x1b83
 8470 1b70 21       		.uleb128 0x21
 8471 1b71 01       		.uleb128 0x1
 8472 1b72 50       		.byte	0x50
 8473 1b73 02       		.uleb128 0x2
 8474 1b74 74       		.byte	0x74
 8475 1b75 00       		.sleb128 0
 8476 1b76 21       		.uleb128 0x21
 8477 1b77 01       		.uleb128 0x1
 8478 1b78 51       		.byte	0x51
 8479 1b79 02       		.uleb128 0x2
 8480 1b7a 91       		.byte	0x91
 8481 1b7b 5C       		.sleb128 -36
 8482 1b7c 21       		.uleb128 0x21
 8483 1b7d 01       		.uleb128 0x1
 8484 1b7e 52       		.byte	0x52
 8485 1b7f 02       		.uleb128 0x2
 8486 1b80 09       		.byte	0x9
 8487 1b81 FF       		.byte	0xff
 8488 1b82 00       		.byte	0
 8489 1b83 20       		.uleb128 0x20
 8490 1b84 40020000 		.4byte	.LVL116
 8491 1b88 832B0000 		.4byte	0x2b83
 8492 1b8c 971B0000 		.4byte	0x1b97
 8493 1b90 21       		.uleb128 0x21
 8494 1b91 01       		.uleb128 0x1
 8495 1b92 51       		.byte	0x51
 8496 1b93 02       		.uleb128 0x2
 8497 1b94 76       		.byte	0x76
 8498 1b95 00       		.sleb128 0
ARM GAS  /tmp/ccTMtxXw.s 			page 151


 8499 1b96 00       		.byte	0
 8500 1b97 20       		.uleb128 0x20
 8501 1b98 66020000 		.4byte	.LVL119
 8502 1b9c 832B0000 		.4byte	0x2b83
 8503 1ba0 B61B0000 		.4byte	0x1bb6
 8504 1ba4 21       		.uleb128 0x21
 8505 1ba5 01       		.uleb128 0x1
 8506 1ba6 50       		.byte	0x50
 8507 1ba7 04       		.uleb128 0x4
 8508 1ba8 76       		.byte	0x76
 8509 1ba9 00       		.sleb128 0
 8510 1baa 30       		.byte	0x30
 8511 1bab 29       		.byte	0x29
 8512 1bac 21       		.uleb128 0x21
 8513 1bad 01       		.uleb128 0x1
 8514 1bae 51       		.byte	0x51
 8515 1baf 05       		.uleb128 0x5
 8516 1bb0 03       		.byte	0x3
 8517 1bb1 0C000000 		.4byte	.LC2
 8518 1bb5 00       		.byte	0
 8519 1bb6 20       		.uleb128 0x20
 8520 1bb7 7E020000 		.4byte	.LVL123
 8521 1bbb 832B0000 		.4byte	0x2b83
 8522 1bbf CD1B0000 		.4byte	0x1bcd
 8523 1bc3 21       		.uleb128 0x21
 8524 1bc4 01       		.uleb128 0x1
 8525 1bc5 51       		.byte	0x51
 8526 1bc6 05       		.uleb128 0x5
 8527 1bc7 03       		.byte	0x3
 8528 1bc8 18000000 		.4byte	.LC3
 8529 1bcc 00       		.byte	0
 8530 1bcd 20       		.uleb128 0x20
 8531 1bce 94020000 		.4byte	.LVL126
 8532 1bd2 832B0000 		.4byte	0x2b83
 8533 1bd6 E41B0000 		.4byte	0x1be4
 8534 1bda 21       		.uleb128 0x21
 8535 1bdb 01       		.uleb128 0x1
 8536 1bdc 51       		.byte	0x51
 8537 1bdd 05       		.uleb128 0x5
 8538 1bde 03       		.byte	0x3
 8539 1bdf 24000000 		.4byte	.LC4
 8540 1be3 00       		.byte	0
 8541 1be4 22       		.uleb128 0x22
 8542 1be5 AA020000 		.4byte	.LVL127
 8543 1be9 832B0000 		.4byte	0x2b83
 8544 1bed 21       		.uleb128 0x21
 8545 1bee 01       		.uleb128 0x1
 8546 1bef 51       		.byte	0x51
 8547 1bf0 05       		.uleb128 0x5
 8548 1bf1 03       		.byte	0x3
 8549 1bf2 48000000 		.4byte	.LC5
 8550 1bf6 00       		.byte	0
 8551 1bf7 00       		.byte	0
 8552 1bf8 00       		.byte	0
 8553 1bf9 22       		.uleb128 0x22
 8554 1bfa 30000000 		.4byte	.LVL45
 8555 1bfe 832B0000 		.4byte	0x2b83
ARM GAS  /tmp/ccTMtxXw.s 			page 152


 8556 1c02 21       		.uleb128 0x21
 8557 1c03 01       		.uleb128 0x1
 8558 1c04 51       		.byte	0x51
 8559 1c05 05       		.uleb128 0x5
 8560 1c06 03       		.byte	0x3
 8561 1c07 00000000 		.4byte	.LC1
 8562 1c0b 00       		.byte	0
 8563 1c0c 00       		.byte	0
 8564 1c0d 2F       		.uleb128 0x2f
 8565 1c0e 24090000 		.4byte	0x924
 8566 1c12 00000000 		.4byte	.LFB406
 8567 1c16 38030000 		.4byte	.LFE406-.LFB406
 8568 1c1a 01       		.uleb128 0x1
 8569 1c1b 9C       		.byte	0x9c
 8570 1c1c 772B0000 		.4byte	0x2b77
 8571 1c20 31       		.uleb128 0x31
 8572 1c21 31090000 		.4byte	0x931
 8573 1c25 31       		.uleb128 0x31
 8574 1c26 3D090000 		.4byte	0x93d
 8575 1c2a 31       		.uleb128 0x31
 8576 1c2b 49090000 		.4byte	0x949
 8577 1c2f 32       		.uleb128 0x32
 8578 1c30 70090000 		.4byte	0x970
 8579 1c34 0C000000 		.4byte	.LBI2073
 8580 1c38 0100     		.2byte	.LVU779
 8581 1c3a A8080000 		.4byte	.Ldebug_ranges0+0x8a8
 8582 1c3e 01       		.byte	0x1
 8583 1c3f 65       		.byte	0x65
 8584 1c40 05       		.byte	0x5
 8585 1c41 931C0000 		.4byte	0x1c93
 8586 1c45 1C       		.uleb128 0x1c
 8587 1c46 270A0000 		.4byte	0xa27
 8588 1c4a 0C000000 		.4byte	.LBI2074
 8589 1c4e 0300     		.2byte	.LVU781
 8590 1c50 B0080000 		.4byte	.Ldebug_ranges0+0x8b0
 8591 1c54 06       		.byte	0x6
 8592 1c55 3F02     		.2byte	0x23f
 8593 1c57 03       		.byte	0x3
 8594 1c58 1C       		.uleb128 0x1c
 8595 1c59 3B0A0000 		.4byte	0xa3b
 8596 1c5d 0C000000 		.4byte	.LBI2075
 8597 1c61 0500     		.2byte	.LVU783
 8598 1c63 B8080000 		.4byte	.Ldebug_ranges0+0x8b8
 8599 1c67 02       		.byte	0x2
 8600 1c68 9901     		.2byte	0x199
 8601 1c6a 03       		.byte	0x3
 8602 1c6b 1D       		.uleb128 0x1d
 8603 1c6c 450A0000 		.4byte	0xa45
 8604 1c70 0C000000 		.4byte	.LBI2076
 8605 1c74 0700     		.2byte	.LVU785
 8606 1c76 0C000000 		.4byte	.LBB2076
 8607 1c7a 06000000 		.4byte	.LBE2076-.LBB2076
 8608 1c7e 03       		.byte	0x3
 8609 1c7f 2E03     		.2byte	0x32e
 8610 1c81 03       		.byte	0x3
 8611 1c82 1E       		.uleb128 0x1e
 8612 1c83 530A0000 		.4byte	0xa53
ARM GAS  /tmp/ccTMtxXw.s 			page 153


 8613 1c87 C5060000 		.4byte	.LLST59
 8614 1c8b C3060000 		.4byte	.LVUS59
 8615 1c8f 00       		.byte	0
 8616 1c90 00       		.byte	0
 8617 1c91 00       		.byte	0
 8618 1c92 00       		.byte	0
 8619 1c93 32       		.uleb128 0x32
 8620 1c94 9A090000 		.4byte	0x99a
 8621 1c98 12000000 		.4byte	.LBI2084
 8622 1c9c 0400     		.2byte	.LVU791
 8623 1c9e D0080000 		.4byte	.Ldebug_ranges0+0x8d0
 8624 1ca2 01       		.byte	0x1
 8625 1ca3 65       		.byte	0x65
 8626 1ca4 05       		.byte	0x5
 8627 1ca5 FF1C0000 		.4byte	0x1cff
 8628 1ca9 1E       		.uleb128 0x1e
 8629 1caa AB090000 		.4byte	0x9ab
 8630 1cae DC060000 		.4byte	.LLST60
 8631 1cb2 DA060000 		.4byte	.LVUS60
 8632 1cb6 32       		.uleb128 0x32
 8633 1cb7 DC090000 		.4byte	0x9dc
 8634 1cbb 12000000 		.4byte	.LBI2086
 8635 1cbf 0700     		.2byte	.LVU794
 8636 1cc1 E8080000 		.4byte	.Ldebug_ranges0+0x8e8
 8637 1cc5 05       		.byte	0x5
 8638 1cc6 AB       		.byte	0xab
 8639 1cc7 0A       		.byte	0xa
 8640 1cc8 DA1C0000 		.4byte	0x1cda
 8641 1ccc 1E       		.uleb128 0x1e
 8642 1ccd ED090000 		.4byte	0x9ed
 8643 1cd1 F6060000 		.4byte	.LLST61
 8644 1cd5 F4060000 		.4byte	.LVUS61
 8645 1cd9 00       		.byte	0
 8646 1cda 33       		.uleb128 0x33
 8647 1cdb BE090000 		.4byte	0x9be
 8648 1cdf 12000000 		.4byte	.LBI2090
 8649 1ce3 0A00     		.2byte	.LVU797
 8650 1ce5 12000000 		.4byte	.LBB2090
 8651 1ce9 00000000 		.4byte	.LBE2090-.LBB2090
 8652 1ced 05       		.byte	0x5
 8653 1cee AB       		.byte	0xab
 8654 1cef 1E       		.byte	0x1e
 8655 1cf0 1E       		.uleb128 0x1e
 8656 1cf1 CF090000 		.4byte	0x9cf
 8657 1cf5 10070000 		.4byte	.LLST62
 8658 1cf9 0E070000 		.4byte	.LVUS62
 8659 1cfd 00       		.byte	0
 8660 1cfe 00       		.byte	0
 8661 1cff 32       		.uleb128 0x32
 8662 1d00 66090000 		.4byte	0x966
 8663 1d04 32000000 		.4byte	.LBI2096
 8664 1d08 0100     		.2byte	.LVU807
 8665 1d0a 08090000 		.4byte	.Ldebug_ranges0+0x908
 8666 1d0e 01       		.byte	0x1
 8667 1d0f 65       		.byte	0x65
 8668 1d10 05       		.byte	0x5
 8669 1d11 691D0000 		.4byte	0x1d69
ARM GAS  /tmp/ccTMtxXw.s 			page 154


 8670 1d15 1C       		.uleb128 0x1c
 8671 1d16 FA090000 		.4byte	0x9fa
 8672 1d1a 32000000 		.4byte	.LBI2097
 8673 1d1e 0300     		.2byte	.LVU809
 8674 1d20 10090000 		.4byte	.Ldebug_ranges0+0x910
 8675 1d24 06       		.byte	0x6
 8676 1d25 4A02     		.2byte	0x24a
 8677 1d27 03       		.byte	0x3
 8678 1d28 1F       		.uleb128 0x1f
 8679 1d29 10090000 		.4byte	.Ldebug_ranges0+0x910
 8680 1d2d 1C       		.uleb128 0x1c
 8681 1d2e 310A0000 		.4byte	0xa31
 8682 1d32 32000000 		.4byte	.LBI2099
 8683 1d36 0A00     		.2byte	.LVU816
 8684 1d38 10090000 		.4byte	.Ldebug_ranges0+0x910
 8685 1d3c 02       		.byte	0x2
 8686 1d3d B201     		.2byte	0x1b2
 8687 1d3f 03       		.byte	0x3
 8688 1d40 1D       		.uleb128 0x1d
 8689 1d41 450A0000 		.4byte	0xa45
 8690 1d45 32000000 		.4byte	.LBI2100
 8691 1d49 0C00     		.2byte	.LVU818
 8692 1d4b 32000000 		.4byte	.LBB2100
 8693 1d4f 06000000 		.4byte	.LBE2100-.LBB2100
 8694 1d53 03       		.byte	0x3
 8695 1d54 4103     		.2byte	0x341
 8696 1d56 03       		.byte	0x3
 8697 1d57 1E       		.uleb128 0x1e
 8698 1d58 530A0000 		.4byte	0xa53
 8699 1d5c 2A070000 		.4byte	.LLST63
 8700 1d60 28070000 		.4byte	.LVUS63
 8701 1d64 00       		.byte	0
 8702 1d65 00       		.byte	0
 8703 1d66 00       		.byte	0
 8704 1d67 00       		.byte	0
 8705 1d68 00       		.byte	0
 8706 1d69 32       		.uleb128 0x32
 8707 1d6a 24090000 		.4byte	0x924
 8708 1d6e 3E000000 		.4byte	.LBI2107
 8709 1d72 0000     		.2byte	.LVU823
 8710 1d74 28090000 		.4byte	.Ldebug_ranges0+0x928
 8711 1d78 01       		.byte	0x1
 8712 1d79 5E       		.byte	0x5e
 8713 1d7a 0D       		.byte	0xd
 8714 1d7b 632B0000 		.4byte	0x2b63
 8715 1d7f 1F       		.uleb128 0x1f
 8716 1d80 28090000 		.4byte	.Ldebug_ranges0+0x928
 8717 1d84 34       		.uleb128 0x34
 8718 1d85 31090000 		.4byte	0x931
 8719 1d89 54070000 		.4byte	.LLST64
 8720 1d8d 3E070000 		.4byte	.LVUS64
 8721 1d91 35       		.uleb128 0x35
 8722 1d92 3D090000 		.4byte	0x93d
 8723 1d96 02       		.uleb128 0x2
 8724 1d97 91       		.byte	0x91
 8725 1d98 64       		.sleb128 -28
 8726 1d99 34       		.uleb128 0x34
ARM GAS  /tmp/ccTMtxXw.s 			page 155


 8727 1d9a 49090000 		.4byte	0x949
 8728 1d9e E9070000 		.4byte	.LLST65
 8729 1da2 DB070000 		.4byte	.LVUS65
 8730 1da6 32       		.uleb128 0x32
 8731 1da7 66090000 		.4byte	0x966
 8732 1dab 3E000000 		.4byte	.LBI2109
 8733 1daf 0200     		.2byte	.LVU825
 8734 1db1 400B0000 		.4byte	.Ldebug_ranges0+0xb40
 8735 1db5 01       		.byte	0x1
 8736 1db6 65       		.byte	0x65
 8737 1db7 05       		.byte	0x5
 8738 1db8 101E0000 		.4byte	0x1e10
 8739 1dbc 1C       		.uleb128 0x1c
 8740 1dbd FA090000 		.4byte	0x9fa
 8741 1dc1 3E000000 		.4byte	.LBI2110
 8742 1dc5 0400     		.2byte	.LVU827
 8743 1dc7 480B0000 		.4byte	.Ldebug_ranges0+0xb48
 8744 1dcb 06       		.byte	0x6
 8745 1dcc 4A02     		.2byte	0x24a
 8746 1dce 03       		.byte	0x3
 8747 1dcf 1F       		.uleb128 0x1f
 8748 1dd0 480B0000 		.4byte	.Ldebug_ranges0+0xb48
 8749 1dd4 1C       		.uleb128 0x1c
 8750 1dd5 310A0000 		.4byte	0xa31
 8751 1dd9 3E000000 		.4byte	.LBI2112
 8752 1ddd 0B00     		.2byte	.LVU834
 8753 1ddf 480B0000 		.4byte	.Ldebug_ranges0+0xb48
 8754 1de3 02       		.byte	0x2
 8755 1de4 B201     		.2byte	0x1b2
 8756 1de6 03       		.byte	0x3
 8757 1de7 1D       		.uleb128 0x1d
 8758 1de8 450A0000 		.4byte	0xa45
 8759 1dec 3E000000 		.4byte	.LBI2113
 8760 1df0 0D00     		.2byte	.LVU836
 8761 1df2 3E000000 		.4byte	.LBB2113
 8762 1df6 06000000 		.4byte	.LBE2113-.LBB2113
 8763 1dfa 03       		.byte	0x3
 8764 1dfb 4103     		.2byte	0x341
 8765 1dfd 03       		.byte	0x3
 8766 1dfe 1E       		.uleb128 0x1e
 8767 1dff 530A0000 		.4byte	0xa53
 8768 1e03 54080000 		.4byte	.LLST66
 8769 1e07 52080000 		.4byte	.LVUS66
 8770 1e0b 00       		.byte	0
 8771 1e0c 00       		.byte	0
 8772 1e0d 00       		.byte	0
 8773 1e0e 00       		.byte	0
 8774 1e0f 00       		.byte	0
 8775 1e10 32       		.uleb128 0x32
 8776 1e11 70090000 		.4byte	0x970
 8777 1e15 4E000000 		.4byte	.LBI2120
 8778 1e19 0100     		.2byte	.LVU847
 8779 1e1b 600B0000 		.4byte	.Ldebug_ranges0+0xb60
 8780 1e1f 01       		.byte	0x1
 8781 1e20 6E       		.byte	0x6e
 8782 1e21 05       		.byte	0x5
 8783 1e22 741E0000 		.4byte	0x1e74
ARM GAS  /tmp/ccTMtxXw.s 			page 156


 8784 1e26 1C       		.uleb128 0x1c
 8785 1e27 270A0000 		.4byte	0xa27
 8786 1e2b 4E000000 		.4byte	.LBI2121
 8787 1e2f 0300     		.2byte	.LVU849
 8788 1e31 680B0000 		.4byte	.Ldebug_ranges0+0xb68
 8789 1e35 06       		.byte	0x6
 8790 1e36 3F02     		.2byte	0x23f
 8791 1e38 03       		.byte	0x3
 8792 1e39 1C       		.uleb128 0x1c
 8793 1e3a 3B0A0000 		.4byte	0xa3b
 8794 1e3e 4E000000 		.4byte	.LBI2122
 8795 1e42 0500     		.2byte	.LVU851
 8796 1e44 700B0000 		.4byte	.Ldebug_ranges0+0xb70
 8797 1e48 02       		.byte	0x2
 8798 1e49 9901     		.2byte	0x199
 8799 1e4b 03       		.byte	0x3
 8800 1e4c 1D       		.uleb128 0x1d
 8801 1e4d 450A0000 		.4byte	0xa45
 8802 1e51 4E000000 		.4byte	.LBI2123
 8803 1e55 0700     		.2byte	.LVU853
 8804 1e57 4E000000 		.4byte	.LBB2123
 8805 1e5b 04000000 		.4byte	.LBE2123-.LBB2123
 8806 1e5f 03       		.byte	0x3
 8807 1e60 2E03     		.2byte	0x32e
 8808 1e62 03       		.byte	0x3
 8809 1e63 1E       		.uleb128 0x1e
 8810 1e64 530A0000 		.4byte	0xa53
 8811 1e68 6A080000 		.4byte	.LLST67
 8812 1e6c 68080000 		.4byte	.LVUS67
 8813 1e70 00       		.byte	0
 8814 1e71 00       		.byte	0
 8815 1e72 00       		.byte	0
 8816 1e73 00       		.byte	0
 8817 1e74 32       		.uleb128 0x32
 8818 1e75 9A090000 		.4byte	0x99a
 8819 1e79 52000000 		.4byte	.LBI2131
 8820 1e7d 0400     		.2byte	.LVU859
 8821 1e7f 880B0000 		.4byte	.Ldebug_ranges0+0xb88
 8822 1e83 01       		.byte	0x1
 8823 1e84 6E       		.byte	0x6e
 8824 1e85 05       		.byte	0x5
 8825 1e86 E01E0000 		.4byte	0x1ee0
 8826 1e8a 1E       		.uleb128 0x1e
 8827 1e8b AB090000 		.4byte	0x9ab
 8828 1e8f 81080000 		.4byte	.LLST68
 8829 1e93 7F080000 		.4byte	.LVUS68
 8830 1e97 32       		.uleb128 0x32
 8831 1e98 DC090000 		.4byte	0x9dc
 8832 1e9c 52000000 		.4byte	.LBI2133
 8833 1ea0 0700     		.2byte	.LVU862
 8834 1ea2 A00B0000 		.4byte	.Ldebug_ranges0+0xba0
 8835 1ea6 05       		.byte	0x5
 8836 1ea7 AB       		.byte	0xab
 8837 1ea8 0A       		.byte	0xa
 8838 1ea9 BB1E0000 		.4byte	0x1ebb
 8839 1ead 1E       		.uleb128 0x1e
 8840 1eae ED090000 		.4byte	0x9ed
ARM GAS  /tmp/ccTMtxXw.s 			page 157


 8841 1eb2 9B080000 		.4byte	.LLST69
 8842 1eb6 99080000 		.4byte	.LVUS69
 8843 1eba 00       		.byte	0
 8844 1ebb 33       		.uleb128 0x33
 8845 1ebc BE090000 		.4byte	0x9be
 8846 1ec0 52000000 		.4byte	.LBI2136
 8847 1ec4 0A00     		.2byte	.LVU865
 8848 1ec6 52000000 		.4byte	.LBB2136
 8849 1eca 00000000 		.4byte	.LBE2136-.LBB2136
 8850 1ece 05       		.byte	0x5
 8851 1ecf AB       		.byte	0xab
 8852 1ed0 1E       		.byte	0x1e
 8853 1ed1 1E       		.uleb128 0x1e
 8854 1ed2 CF090000 		.4byte	0x9cf
 8855 1ed6 B5080000 		.4byte	.LLST70
 8856 1eda B3080000 		.4byte	.LVUS70
 8857 1ede 00       		.byte	0
 8858 1edf 00       		.byte	0
 8859 1ee0 32       		.uleb128 0x32
 8860 1ee1 66090000 		.4byte	0x966
 8861 1ee5 72000000 		.4byte	.LBI2141
 8862 1ee9 0100     		.2byte	.LVU875
 8863 1eeb B80B0000 		.4byte	.Ldebug_ranges0+0xbb8
 8864 1eef 01       		.byte	0x1
 8865 1ef0 6E       		.byte	0x6e
 8866 1ef1 05       		.byte	0x5
 8867 1ef2 4A1F0000 		.4byte	0x1f4a
 8868 1ef6 1C       		.uleb128 0x1c
 8869 1ef7 FA090000 		.4byte	0x9fa
 8870 1efb 72000000 		.4byte	.LBI2142
 8871 1eff 0300     		.2byte	.LVU877
 8872 1f01 C00B0000 		.4byte	.Ldebug_ranges0+0xbc0
 8873 1f05 06       		.byte	0x6
 8874 1f06 4A02     		.2byte	0x24a
 8875 1f08 03       		.byte	0x3
 8876 1f09 1F       		.uleb128 0x1f
 8877 1f0a C00B0000 		.4byte	.Ldebug_ranges0+0xbc0
 8878 1f0e 1C       		.uleb128 0x1c
 8879 1f0f 310A0000 		.4byte	0xa31
 8880 1f13 72000000 		.4byte	.LBI2144
 8881 1f17 0A00     		.2byte	.LVU884
 8882 1f19 C00B0000 		.4byte	.Ldebug_ranges0+0xbc0
 8883 1f1d 02       		.byte	0x2
 8884 1f1e B201     		.2byte	0x1b2
 8885 1f20 03       		.byte	0x3
 8886 1f21 1D       		.uleb128 0x1d
 8887 1f22 450A0000 		.4byte	0xa45
 8888 1f26 72000000 		.4byte	.LBI2145
 8889 1f2a 0C00     		.2byte	.LVU886
 8890 1f2c 72000000 		.4byte	.LBB2145
 8891 1f30 04000000 		.4byte	.LBE2145-.LBB2145
 8892 1f34 03       		.byte	0x3
 8893 1f35 4103     		.2byte	0x341
 8894 1f37 03       		.byte	0x3
 8895 1f38 1E       		.uleb128 0x1e
 8896 1f39 530A0000 		.4byte	0xa53
 8897 1f3d CF080000 		.4byte	.LLST71
ARM GAS  /tmp/ccTMtxXw.s 			page 158


 8898 1f41 CD080000 		.4byte	.LVUS71
 8899 1f45 00       		.byte	0
 8900 1f46 00       		.byte	0
 8901 1f47 00       		.byte	0
 8902 1f48 00       		.byte	0
 8903 1f49 00       		.byte	0
 8904 1f4a 32       		.uleb128 0x32
 8905 1f4b 70090000 		.4byte	0x970
 8906 1f4f 76000000 		.4byte	.LBI2152
 8907 1f53 0300     		.2byte	.LVU891
 8908 1f55 D80B0000 		.4byte	.Ldebug_ranges0+0xbd8
 8909 1f59 01       		.byte	0x1
 8910 1f5a 6F       		.byte	0x6f
 8911 1f5b 05       		.byte	0x5
 8912 1f5c AE1F0000 		.4byte	0x1fae
 8913 1f60 1C       		.uleb128 0x1c
 8914 1f61 270A0000 		.4byte	0xa27
 8915 1f65 76000000 		.4byte	.LBI2153
 8916 1f69 0500     		.2byte	.LVU893
 8917 1f6b E00B0000 		.4byte	.Ldebug_ranges0+0xbe0
 8918 1f6f 06       		.byte	0x6
 8919 1f70 3F02     		.2byte	0x23f
 8920 1f72 03       		.byte	0x3
 8921 1f73 1C       		.uleb128 0x1c
 8922 1f74 3B0A0000 		.4byte	0xa3b
 8923 1f78 76000000 		.4byte	.LBI2154
 8924 1f7c 0700     		.2byte	.LVU895
 8925 1f7e E80B0000 		.4byte	.Ldebug_ranges0+0xbe8
 8926 1f82 02       		.byte	0x2
 8927 1f83 9901     		.2byte	0x199
 8928 1f85 03       		.byte	0x3
 8929 1f86 1D       		.uleb128 0x1d
 8930 1f87 450A0000 		.4byte	0xa45
 8931 1f8b 76000000 		.4byte	.LBI2155
 8932 1f8f 0900     		.2byte	.LVU897
 8933 1f91 76000000 		.4byte	.LBB2155
 8934 1f95 04000000 		.4byte	.LBE2155-.LBB2155
 8935 1f99 03       		.byte	0x3
 8936 1f9a 2E03     		.2byte	0x32e
 8937 1f9c 03       		.byte	0x3
 8938 1f9d 1E       		.uleb128 0x1e
 8939 1f9e 530A0000 		.4byte	0xa53
 8940 1fa2 E5080000 		.4byte	.LLST72
 8941 1fa6 E3080000 		.4byte	.LVUS72
 8942 1faa 00       		.byte	0
 8943 1fab 00       		.byte	0
 8944 1fac 00       		.byte	0
 8945 1fad 00       		.byte	0
 8946 1fae 36       		.uleb128 0x36
 8947 1faf BE090000 		.4byte	0x9be
 8948 1fb3 7A000000 		.4byte	.LBI2163
 8949 1fb7 0400     		.2byte	.LVU903
 8950 1fb9 7A000000 		.4byte	.LBB2163
 8951 1fbd 00000000 		.4byte	.LBE2163-.LBB2163
 8952 1fc1 01       		.byte	0x1
 8953 1fc2 6F       		.byte	0x6f
 8954 1fc3 05       		.byte	0x5
ARM GAS  /tmp/ccTMtxXw.s 			page 159


 8955 1fc4 D61F0000 		.4byte	0x1fd6
 8956 1fc8 1E       		.uleb128 0x1e
 8957 1fc9 CF090000 		.4byte	0x9cf
 8958 1fcd FC080000 		.4byte	.LLST73
 8959 1fd1 FA080000 		.4byte	.LVUS73
 8960 1fd5 00       		.byte	0
 8961 1fd6 32       		.uleb128 0x32
 8962 1fd7 66090000 		.4byte	0x966
 8963 1fdb 8C000000 		.4byte	.LBI2165
 8964 1fdf 0100     		.2byte	.LVU909
 8965 1fe1 000C0000 		.4byte	.Ldebug_ranges0+0xc00
 8966 1fe5 01       		.byte	0x1
 8967 1fe6 71       		.byte	0x71
 8968 1fe7 05       		.byte	0x5
 8969 1fe8 40200000 		.4byte	0x2040
 8970 1fec 1C       		.uleb128 0x1c
 8971 1fed FA090000 		.4byte	0x9fa
 8972 1ff1 8C000000 		.4byte	.LBI2166
 8973 1ff5 0300     		.2byte	.LVU911
 8974 1ff7 080C0000 		.4byte	.Ldebug_ranges0+0xc08
 8975 1ffb 06       		.byte	0x6
 8976 1ffc 4A02     		.2byte	0x24a
 8977 1ffe 03       		.byte	0x3
 8978 1fff 1F       		.uleb128 0x1f
 8979 2000 080C0000 		.4byte	.Ldebug_ranges0+0xc08
 8980 2004 1C       		.uleb128 0x1c
 8981 2005 310A0000 		.4byte	0xa31
 8982 2009 8C000000 		.4byte	.LBI2168
 8983 200d 0A00     		.2byte	.LVU918
 8984 200f 080C0000 		.4byte	.Ldebug_ranges0+0xc08
 8985 2013 02       		.byte	0x2
 8986 2014 B201     		.2byte	0x1b2
 8987 2016 03       		.byte	0x3
 8988 2017 1D       		.uleb128 0x1d
 8989 2018 450A0000 		.4byte	0xa45
 8990 201c 8C000000 		.4byte	.LBI2169
 8991 2020 0C00     		.2byte	.LVU920
 8992 2022 8C000000 		.4byte	.LBB2169
 8993 2026 04000000 		.4byte	.LBE2169-.LBB2169
 8994 202a 03       		.byte	0x3
 8995 202b 4103     		.2byte	0x341
 8996 202d 03       		.byte	0x3
 8997 202e 1E       		.uleb128 0x1e
 8998 202f 530A0000 		.4byte	0xa53
 8999 2033 16090000 		.4byte	.LLST74
 9000 2037 14090000 		.4byte	.LVUS74
 9001 203b 00       		.byte	0
 9002 203c 00       		.byte	0
 9003 203d 00       		.byte	0
 9004 203e 00       		.byte	0
 9005 203f 00       		.byte	0
 9006 2040 32       		.uleb128 0x32
 9007 2041 66090000 		.4byte	0x966
 9008 2045 96000000 		.4byte	.LBI2176
 9009 2049 0100     		.2byte	.LVU926
 9010 204b 200C0000 		.4byte	.Ldebug_ranges0+0xc20
 9011 204f 01       		.byte	0x1
ARM GAS  /tmp/ccTMtxXw.s 			page 160


 9012 2050 B7       		.byte	0xb7
 9013 2051 05       		.byte	0x5
 9014 2052 AA200000 		.4byte	0x20aa
 9015 2056 1C       		.uleb128 0x1c
 9016 2057 FA090000 		.4byte	0x9fa
 9017 205b 96000000 		.4byte	.LBI2177
 9018 205f 0300     		.2byte	.LVU928
 9019 2061 280C0000 		.4byte	.Ldebug_ranges0+0xc28
 9020 2065 06       		.byte	0x6
 9021 2066 4A02     		.2byte	0x24a
 9022 2068 03       		.byte	0x3
 9023 2069 1F       		.uleb128 0x1f
 9024 206a 280C0000 		.4byte	.Ldebug_ranges0+0xc28
 9025 206e 1C       		.uleb128 0x1c
 9026 206f 310A0000 		.4byte	0xa31
 9027 2073 96000000 		.4byte	.LBI2179
 9028 2077 0A00     		.2byte	.LVU935
 9029 2079 280C0000 		.4byte	.Ldebug_ranges0+0xc28
 9030 207d 02       		.byte	0x2
 9031 207e B201     		.2byte	0x1b2
 9032 2080 03       		.byte	0x3
 9033 2081 1D       		.uleb128 0x1d
 9034 2082 450A0000 		.4byte	0xa45
 9035 2086 96000000 		.4byte	.LBI2180
 9036 208a 0C00     		.2byte	.LVU937
 9037 208c 96000000 		.4byte	.LBB2180
 9038 2090 04000000 		.4byte	.LBE2180-.LBB2180
 9039 2094 03       		.byte	0x3
 9040 2095 4103     		.2byte	0x341
 9041 2097 03       		.byte	0x3
 9042 2098 1E       		.uleb128 0x1e
 9043 2099 530A0000 		.4byte	0xa53
 9044 209d 2C090000 		.4byte	.LLST75
 9045 20a1 2A090000 		.4byte	.LVUS75
 9046 20a5 00       		.byte	0
 9047 20a6 00       		.byte	0
 9048 20a7 00       		.byte	0
 9049 20a8 00       		.byte	0
 9050 20a9 00       		.byte	0
 9051 20aa 32       		.uleb128 0x32
 9052 20ab 66090000 		.4byte	0x966
 9053 20af A0000000 		.4byte	.LBI2187
 9054 20b3 0100     		.2byte	.LVU943
 9055 20b5 400C0000 		.4byte	.Ldebug_ranges0+0xc40
 9056 20b9 01       		.byte	0x1
 9057 20ba 6F       		.byte	0x6f
 9058 20bb 05       		.byte	0x5
 9059 20bc 14210000 		.4byte	0x2114
 9060 20c0 1C       		.uleb128 0x1c
 9061 20c1 FA090000 		.4byte	0x9fa
 9062 20c5 A0000000 		.4byte	.LBI2188
 9063 20c9 0300     		.2byte	.LVU945
 9064 20cb 480C0000 		.4byte	.Ldebug_ranges0+0xc48
 9065 20cf 06       		.byte	0x6
 9066 20d0 4A02     		.2byte	0x24a
 9067 20d2 03       		.byte	0x3
 9068 20d3 1F       		.uleb128 0x1f
ARM GAS  /tmp/ccTMtxXw.s 			page 161


 9069 20d4 480C0000 		.4byte	.Ldebug_ranges0+0xc48
 9070 20d8 1C       		.uleb128 0x1c
 9071 20d9 310A0000 		.4byte	0xa31
 9072 20dd A0000000 		.4byte	.LBI2190
 9073 20e1 0A00     		.2byte	.LVU952
 9074 20e3 480C0000 		.4byte	.Ldebug_ranges0+0xc48
 9075 20e7 02       		.byte	0x2
 9076 20e8 B201     		.2byte	0x1b2
 9077 20ea 03       		.byte	0x3
 9078 20eb 1D       		.uleb128 0x1d
 9079 20ec 450A0000 		.4byte	0xa45
 9080 20f0 A0000000 		.4byte	.LBI2191
 9081 20f4 0C00     		.2byte	.LVU954
 9082 20f6 A0000000 		.4byte	.LBB2191
 9083 20fa 04000000 		.4byte	.LBE2191-.LBB2191
 9084 20fe 03       		.byte	0x3
 9085 20ff 4103     		.2byte	0x341
 9086 2101 03       		.byte	0x3
 9087 2102 1E       		.uleb128 0x1e
 9088 2103 530A0000 		.4byte	0xa53
 9089 2107 42090000 		.4byte	.LLST76
 9090 210b 40090000 		.4byte	.LVUS76
 9091 210f 00       		.byte	0
 9092 2110 00       		.byte	0
 9093 2111 00       		.byte	0
 9094 2112 00       		.byte	0
 9095 2113 00       		.byte	0
 9096 2114 32       		.uleb128 0x32
 9097 2115 70090000 		.4byte	0x970
 9098 2119 A4000000 		.4byte	.LBI2198
 9099 211d 0300     		.2byte	.LVU959
 9100 211f 600C0000 		.4byte	.Ldebug_ranges0+0xc60
 9101 2123 01       		.byte	0x1
 9102 2124 70       		.byte	0x70
 9103 2125 05       		.byte	0x5
 9104 2126 78210000 		.4byte	0x2178
 9105 212a 1C       		.uleb128 0x1c
 9106 212b 270A0000 		.4byte	0xa27
 9107 212f A4000000 		.4byte	.LBI2199
 9108 2133 0500     		.2byte	.LVU961
 9109 2135 680C0000 		.4byte	.Ldebug_ranges0+0xc68
 9110 2139 06       		.byte	0x6
 9111 213a 3F02     		.2byte	0x23f
 9112 213c 03       		.byte	0x3
 9113 213d 1C       		.uleb128 0x1c
 9114 213e 3B0A0000 		.4byte	0xa3b
 9115 2142 A4000000 		.4byte	.LBI2200
 9116 2146 0700     		.2byte	.LVU963
 9117 2148 700C0000 		.4byte	.Ldebug_ranges0+0xc70
 9118 214c 02       		.byte	0x2
 9119 214d 9901     		.2byte	0x199
 9120 214f 03       		.byte	0x3
 9121 2150 1D       		.uleb128 0x1d
 9122 2151 450A0000 		.4byte	0xa45
 9123 2155 A4000000 		.4byte	.LBI2201
 9124 2159 0900     		.2byte	.LVU965
 9125 215b A4000000 		.4byte	.LBB2201
ARM GAS  /tmp/ccTMtxXw.s 			page 162


 9126 215f 04000000 		.4byte	.LBE2201-.LBB2201
 9127 2163 03       		.byte	0x3
 9128 2164 2E03     		.2byte	0x32e
 9129 2166 03       		.byte	0x3
 9130 2167 1E       		.uleb128 0x1e
 9131 2168 530A0000 		.4byte	0xa53
 9132 216c 58090000 		.4byte	.LLST77
 9133 2170 56090000 		.4byte	.LVUS77
 9134 2174 00       		.byte	0
 9135 2175 00       		.byte	0
 9136 2176 00       		.byte	0
 9137 2177 00       		.byte	0
 9138 2178 32       		.uleb128 0x32
 9139 2179 66090000 		.4byte	0x966
 9140 217d C0000000 		.4byte	.LBI2209
 9141 2181 0100     		.2byte	.LVU972
 9142 2183 880C0000 		.4byte	.Ldebug_ranges0+0xc88
 9143 2187 01       		.byte	0x1
 9144 2188 70       		.byte	0x70
 9145 2189 05       		.byte	0x5
 9146 218a E2210000 		.4byte	0x21e2
 9147 218e 1C       		.uleb128 0x1c
 9148 218f FA090000 		.4byte	0x9fa
 9149 2193 C0000000 		.4byte	.LBI2210
 9150 2197 0300     		.2byte	.LVU974
 9151 2199 900C0000 		.4byte	.Ldebug_ranges0+0xc90
 9152 219d 06       		.byte	0x6
 9153 219e 4A02     		.2byte	0x24a
 9154 21a0 03       		.byte	0x3
 9155 21a1 1F       		.uleb128 0x1f
 9156 21a2 900C0000 		.4byte	.Ldebug_ranges0+0xc90
 9157 21a6 1C       		.uleb128 0x1c
 9158 21a7 310A0000 		.4byte	0xa31
 9159 21ab C0000000 		.4byte	.LBI2212
 9160 21af 0A00     		.2byte	.LVU981
 9161 21b1 900C0000 		.4byte	.Ldebug_ranges0+0xc90
 9162 21b5 02       		.byte	0x2
 9163 21b6 B201     		.2byte	0x1b2
 9164 21b8 03       		.byte	0x3
 9165 21b9 1D       		.uleb128 0x1d
 9166 21ba 450A0000 		.4byte	0xa45
 9167 21be C0000000 		.4byte	.LBI2213
 9168 21c2 0C00     		.2byte	.LVU983
 9169 21c4 C0000000 		.4byte	.LBB2213
 9170 21c8 04000000 		.4byte	.LBE2213-.LBB2213
 9171 21cc 03       		.byte	0x3
 9172 21cd 4103     		.2byte	0x341
 9173 21cf 03       		.byte	0x3
 9174 21d0 1E       		.uleb128 0x1e
 9175 21d1 530A0000 		.4byte	0xa53
 9176 21d5 6F090000 		.4byte	.LLST78
 9177 21d9 6D090000 		.4byte	.LVUS78
 9178 21dd 00       		.byte	0
 9179 21de 00       		.byte	0
 9180 21df 00       		.byte	0
 9181 21e0 00       		.byte	0
 9182 21e1 00       		.byte	0
ARM GAS  /tmp/ccTMtxXw.s 			page 163


 9183 21e2 32       		.uleb128 0x32
 9184 21e3 70090000 		.4byte	0x970
 9185 21e7 C4000000 		.4byte	.LBI2220
 9186 21eb 0300     		.2byte	.LVU988
 9187 21ed A80C0000 		.4byte	.Ldebug_ranges0+0xca8
 9188 21f1 01       		.byte	0x1
 9189 21f2 71       		.byte	0x71
 9190 21f3 05       		.byte	0x5
 9191 21f4 46220000 		.4byte	0x2246
 9192 21f8 1C       		.uleb128 0x1c
 9193 21f9 270A0000 		.4byte	0xa27
 9194 21fd C4000000 		.4byte	.LBI2221
 9195 2201 0500     		.2byte	.LVU990
 9196 2203 B00C0000 		.4byte	.Ldebug_ranges0+0xcb0
 9197 2207 06       		.byte	0x6
 9198 2208 3F02     		.2byte	0x23f
 9199 220a 03       		.byte	0x3
 9200 220b 1C       		.uleb128 0x1c
 9201 220c 3B0A0000 		.4byte	0xa3b
 9202 2210 C4000000 		.4byte	.LBI2222
 9203 2214 0700     		.2byte	.LVU992
 9204 2216 B80C0000 		.4byte	.Ldebug_ranges0+0xcb8
 9205 221a 02       		.byte	0x2
 9206 221b 9901     		.2byte	0x199
 9207 221d 03       		.byte	0x3
 9208 221e 1D       		.uleb128 0x1d
 9209 221f 450A0000 		.4byte	0xa45
 9210 2223 C4000000 		.4byte	.LBI2223
 9211 2227 0900     		.2byte	.LVU994
 9212 2229 C4000000 		.4byte	.LBB2223
 9213 222d 04000000 		.4byte	.LBE2223-.LBB2223
 9214 2231 03       		.byte	0x3
 9215 2232 2E03     		.2byte	0x32e
 9216 2234 03       		.byte	0x3
 9217 2235 1E       		.uleb128 0x1e
 9218 2236 530A0000 		.4byte	0xa53
 9219 223a 85090000 		.4byte	.LLST79
 9220 223e 83090000 		.4byte	.LVUS79
 9221 2242 00       		.byte	0
 9222 2243 00       		.byte	0
 9223 2244 00       		.byte	0
 9224 2245 00       		.byte	0
 9225 2246 32       		.uleb128 0x32
 9226 2247 66090000 		.4byte	0x966
 9227 224b DE000000 		.4byte	.LBI2231
 9228 224f 0100     		.2byte	.LVU1001
 9229 2251 D00C0000 		.4byte	.Ldebug_ranges0+0xcd0
 9230 2255 01       		.byte	0x1
 9231 2256 71       		.byte	0x71
 9232 2257 05       		.byte	0x5
 9233 2258 B0220000 		.4byte	0x22b0
 9234 225c 1C       		.uleb128 0x1c
 9235 225d FA090000 		.4byte	0x9fa
 9236 2261 DE000000 		.4byte	.LBI2232
 9237 2265 0300     		.2byte	.LVU1003
 9238 2267 D80C0000 		.4byte	.Ldebug_ranges0+0xcd8
 9239 226b 06       		.byte	0x6
ARM GAS  /tmp/ccTMtxXw.s 			page 164


 9240 226c 4A02     		.2byte	0x24a
 9241 226e 03       		.byte	0x3
 9242 226f 1F       		.uleb128 0x1f
 9243 2270 D80C0000 		.4byte	.Ldebug_ranges0+0xcd8
 9244 2274 1C       		.uleb128 0x1c
 9245 2275 310A0000 		.4byte	0xa31
 9246 2279 DE000000 		.4byte	.LBI2234
 9247 227d 0A00     		.2byte	.LVU1010
 9248 227f D80C0000 		.4byte	.Ldebug_ranges0+0xcd8
 9249 2283 02       		.byte	0x2
 9250 2284 B201     		.2byte	0x1b2
 9251 2286 03       		.byte	0x3
 9252 2287 1D       		.uleb128 0x1d
 9253 2288 450A0000 		.4byte	0xa45
 9254 228c DE000000 		.4byte	.LBI2235
 9255 2290 0C00     		.2byte	.LVU1012
 9256 2292 DE000000 		.4byte	.LBB2235
 9257 2296 04000000 		.4byte	.LBE2235-.LBB2235
 9258 229a 03       		.byte	0x3
 9259 229b 4103     		.2byte	0x341
 9260 229d 03       		.byte	0x3
 9261 229e 1E       		.uleb128 0x1e
 9262 229f 530A0000 		.4byte	0xa53
 9263 22a3 9C090000 		.4byte	.LLST80
 9264 22a7 9A090000 		.4byte	.LVUS80
 9265 22ab 00       		.byte	0
 9266 22ac 00       		.byte	0
 9267 22ad 00       		.byte	0
 9268 22ae 00       		.byte	0
 9269 22af 00       		.byte	0
 9270 22b0 32       		.uleb128 0x32
 9271 22b1 7A090000 		.4byte	0x97a
 9272 22b5 42010000 		.4byte	.LBI2242
 9273 22b9 0200     		.2byte	.LVU1039
 9274 22bb F00C0000 		.4byte	.Ldebug_ranges0+0xcf0
 9275 22bf 01       		.byte	0x1
 9276 22c0 7F       		.byte	0x7f
 9277 22c1 05       		.byte	0x5
 9278 22c2 D4220000 		.4byte	0x22d4
 9279 22c6 1E       		.uleb128 0x1e
 9280 22c7 87090000 		.4byte	0x987
 9281 22cb B2090000 		.4byte	.LLST81
 9282 22cf B0090000 		.4byte	.LVUS81
 9283 22d3 00       		.byte	0
 9284 22d4 32       		.uleb128 0x32
 9285 22d5 70090000 		.4byte	0x970
 9286 22d9 94010000 		.4byte	.LBI2246
 9287 22dd 0100     		.2byte	.LVU1071
 9288 22df 080D0000 		.4byte	.Ldebug_ranges0+0xd08
 9289 22e3 01       		.byte	0x1
 9290 22e4 94       		.byte	0x94
 9291 22e5 05       		.byte	0x5
 9292 22e6 38230000 		.4byte	0x2338
 9293 22ea 1C       		.uleb128 0x1c
 9294 22eb 270A0000 		.4byte	0xa27
 9295 22ef 94010000 		.4byte	.LBI2247
 9296 22f3 0300     		.2byte	.LVU1073
ARM GAS  /tmp/ccTMtxXw.s 			page 165


 9297 22f5 100D0000 		.4byte	.Ldebug_ranges0+0xd10
 9298 22f9 06       		.byte	0x6
 9299 22fa 3F02     		.2byte	0x23f
 9300 22fc 03       		.byte	0x3
 9301 22fd 1C       		.uleb128 0x1c
 9302 22fe 3B0A0000 		.4byte	0xa3b
 9303 2302 94010000 		.4byte	.LBI2248
 9304 2306 0500     		.2byte	.LVU1075
 9305 2308 180D0000 		.4byte	.Ldebug_ranges0+0xd18
 9306 230c 02       		.byte	0x2
 9307 230d 9901     		.2byte	0x199
 9308 230f 03       		.byte	0x3
 9309 2310 1D       		.uleb128 0x1d
 9310 2311 450A0000 		.4byte	0xa45
 9311 2315 94010000 		.4byte	.LBI2249
 9312 2319 0700     		.2byte	.LVU1077
 9313 231b 94010000 		.4byte	.LBB2249
 9314 231f 08000000 		.4byte	.LBE2249-.LBB2249
 9315 2323 03       		.byte	0x3
 9316 2324 2E03     		.2byte	0x32e
 9317 2326 03       		.byte	0x3
 9318 2327 1E       		.uleb128 0x1e
 9319 2328 530A0000 		.4byte	0xa53
 9320 232c CC090000 		.4byte	.LLST82
 9321 2330 CA090000 		.4byte	.LVUS82
 9322 2334 00       		.byte	0
 9323 2335 00       		.byte	0
 9324 2336 00       		.byte	0
 9325 2337 00       		.byte	0
 9326 2338 32       		.uleb128 0x32
 9327 2339 9A090000 		.4byte	0x99a
 9328 233d 9C010000 		.4byte	.LBI2257
 9329 2341 0400     		.2byte	.LVU1083
 9330 2343 300D0000 		.4byte	.Ldebug_ranges0+0xd30
 9331 2347 01       		.byte	0x1
 9332 2348 94       		.byte	0x94
 9333 2349 05       		.byte	0x5
 9334 234a A4230000 		.4byte	0x23a4
 9335 234e 1E       		.uleb128 0x1e
 9336 234f AB090000 		.4byte	0x9ab
 9337 2353 E3090000 		.4byte	.LLST83
 9338 2357 E1090000 		.4byte	.LVUS83
 9339 235b 32       		.uleb128 0x32
 9340 235c DC090000 		.4byte	0x9dc
 9341 2360 9C010000 		.4byte	.LBI2258
 9342 2364 0700     		.2byte	.LVU1086
 9343 2366 480D0000 		.4byte	.Ldebug_ranges0+0xd48
 9344 236a 05       		.byte	0x5
 9345 236b AB       		.byte	0xab
 9346 236c 0A       		.byte	0xa
 9347 236d 7F230000 		.4byte	0x237f
 9348 2371 1E       		.uleb128 0x1e
 9349 2372 ED090000 		.4byte	0x9ed
 9350 2376 FD090000 		.4byte	.LLST84
 9351 237a FB090000 		.4byte	.LVUS84
 9352 237e 00       		.byte	0
 9353 237f 33       		.uleb128 0x33
ARM GAS  /tmp/ccTMtxXw.s 			page 166


 9354 2380 BE090000 		.4byte	0x9be
 9355 2384 9C010000 		.4byte	.LBI2261
 9356 2388 0A00     		.2byte	.LVU1089
 9357 238a 9C010000 		.4byte	.LBB2261
 9358 238e 00000000 		.4byte	.LBE2261-.LBB2261
 9359 2392 05       		.byte	0x5
 9360 2393 AB       		.byte	0xab
 9361 2394 1E       		.byte	0x1e
 9362 2395 1E       		.uleb128 0x1e
 9363 2396 CF090000 		.4byte	0x9cf
 9364 239a 170A0000 		.4byte	.LLST85
 9365 239e 150A0000 		.4byte	.LVUS85
 9366 23a2 00       		.byte	0
 9367 23a3 00       		.byte	0
 9368 23a4 32       		.uleb128 0x32
 9369 23a5 66090000 		.4byte	0x966
 9370 23a9 BC010000 		.4byte	.LBI2265
 9371 23ad 0100     		.2byte	.LVU1096
 9372 23af 600D0000 		.4byte	.Ldebug_ranges0+0xd60
 9373 23b3 01       		.byte	0x1
 9374 23b4 94       		.byte	0x94
 9375 23b5 05       		.byte	0x5
 9376 23b6 0E240000 		.4byte	0x240e
 9377 23ba 1C       		.uleb128 0x1c
 9378 23bb FA090000 		.4byte	0x9fa
 9379 23bf BC010000 		.4byte	.LBI2266
 9380 23c3 0300     		.2byte	.LVU1098
 9381 23c5 680D0000 		.4byte	.Ldebug_ranges0+0xd68
 9382 23c9 06       		.byte	0x6
 9383 23ca 4A02     		.2byte	0x24a
 9384 23cc 03       		.byte	0x3
 9385 23cd 1F       		.uleb128 0x1f
 9386 23ce 680D0000 		.4byte	.Ldebug_ranges0+0xd68
 9387 23d2 1C       		.uleb128 0x1c
 9388 23d3 310A0000 		.4byte	0xa31
 9389 23d7 BC010000 		.4byte	.LBI2268
 9390 23db 0A00     		.2byte	.LVU1105
 9391 23dd 680D0000 		.4byte	.Ldebug_ranges0+0xd68
 9392 23e1 02       		.byte	0x2
 9393 23e2 B201     		.2byte	0x1b2
 9394 23e4 03       		.byte	0x3
 9395 23e5 1D       		.uleb128 0x1d
 9396 23e6 450A0000 		.4byte	0xa45
 9397 23ea BC010000 		.4byte	.LBI2269
 9398 23ee 0C00     		.2byte	.LVU1107
 9399 23f0 BC010000 		.4byte	.LBB2269
 9400 23f4 04000000 		.4byte	.LBE2269-.LBB2269
 9401 23f8 03       		.byte	0x3
 9402 23f9 4103     		.2byte	0x341
 9403 23fb 03       		.byte	0x3
 9404 23fc 1E       		.uleb128 0x1e
 9405 23fd 530A0000 		.4byte	0xa53
 9406 2401 310A0000 		.4byte	.LLST86
 9407 2405 2F0A0000 		.4byte	.LVUS86
 9408 2409 00       		.byte	0
 9409 240a 00       		.byte	0
 9410 240b 00       		.byte	0
ARM GAS  /tmp/ccTMtxXw.s 			page 167


 9411 240c 00       		.byte	0
 9412 240d 00       		.byte	0
 9413 240e 32       		.uleb128 0x32
 9414 240f 70090000 		.4byte	0x970
 9415 2413 C0010000 		.4byte	.LBI2276
 9416 2417 0300     		.2byte	.LVU1112
 9417 2419 800D0000 		.4byte	.Ldebug_ranges0+0xd80
 9418 241d 01       		.byte	0x1
 9419 241e 95       		.byte	0x95
 9420 241f 05       		.byte	0x5
 9421 2420 72240000 		.4byte	0x2472
 9422 2424 1C       		.uleb128 0x1c
 9423 2425 270A0000 		.4byte	0xa27
 9424 2429 C0010000 		.4byte	.LBI2277
 9425 242d 0500     		.2byte	.LVU1114
 9426 242f 880D0000 		.4byte	.Ldebug_ranges0+0xd88
 9427 2433 06       		.byte	0x6
 9428 2434 3F02     		.2byte	0x23f
 9429 2436 03       		.byte	0x3
 9430 2437 1C       		.uleb128 0x1c
 9431 2438 3B0A0000 		.4byte	0xa3b
 9432 243c C0010000 		.4byte	.LBI2278
 9433 2440 0700     		.2byte	.LVU1116
 9434 2442 900D0000 		.4byte	.Ldebug_ranges0+0xd90
 9435 2446 02       		.byte	0x2
 9436 2447 9901     		.2byte	0x199
 9437 2449 03       		.byte	0x3
 9438 244a 1D       		.uleb128 0x1d
 9439 244b 450A0000 		.4byte	0xa45
 9440 244f C0010000 		.4byte	.LBI2279
 9441 2453 0900     		.2byte	.LVU1118
 9442 2455 C0010000 		.4byte	.LBB2279
 9443 2459 04000000 		.4byte	.LBE2279-.LBB2279
 9444 245d 03       		.byte	0x3
 9445 245e 2E03     		.2byte	0x32e
 9446 2460 03       		.byte	0x3
 9447 2461 1E       		.uleb128 0x1e
 9448 2462 530A0000 		.4byte	0xa53
 9449 2466 470A0000 		.4byte	.LLST87
 9450 246a 450A0000 		.4byte	.LVUS87
 9451 246e 00       		.byte	0
 9452 246f 00       		.byte	0
 9453 2470 00       		.byte	0
 9454 2471 00       		.byte	0
 9455 2472 36       		.uleb128 0x36
 9456 2473 BE090000 		.4byte	0x9be
 9457 2477 C4010000 		.4byte	.LBI2287
 9458 247b 0400     		.2byte	.LVU1124
 9459 247d C4010000 		.4byte	.LBB2287
 9460 2481 00000000 		.4byte	.LBE2287-.LBB2287
 9461 2485 01       		.byte	0x1
 9462 2486 95       		.byte	0x95
 9463 2487 05       		.byte	0x5
 9464 2488 9A240000 		.4byte	0x249a
 9465 248c 1E       		.uleb128 0x1e
 9466 248d CF090000 		.4byte	0x9cf
 9467 2491 5E0A0000 		.4byte	.LLST88
ARM GAS  /tmp/ccTMtxXw.s 			page 168


 9468 2495 5C0A0000 		.4byte	.LVUS88
 9469 2499 00       		.byte	0
 9470 249a 32       		.uleb128 0x32
 9471 249b 66090000 		.4byte	0x966
 9472 249f DC010000 		.4byte	.LBI2289
 9473 24a3 0100     		.2byte	.LVU1130
 9474 24a5 A80D0000 		.4byte	.Ldebug_ranges0+0xda8
 9475 24a9 01       		.byte	0x1
 9476 24aa 95       		.byte	0x95
 9477 24ab 05       		.byte	0x5
 9478 24ac 04250000 		.4byte	0x2504
 9479 24b0 1C       		.uleb128 0x1c
 9480 24b1 FA090000 		.4byte	0x9fa
 9481 24b5 DC010000 		.4byte	.LBI2290
 9482 24b9 0300     		.2byte	.LVU1132
 9483 24bb B00D0000 		.4byte	.Ldebug_ranges0+0xdb0
 9484 24bf 06       		.byte	0x6
 9485 24c0 4A02     		.2byte	0x24a
 9486 24c2 03       		.byte	0x3
 9487 24c3 1F       		.uleb128 0x1f
 9488 24c4 B00D0000 		.4byte	.Ldebug_ranges0+0xdb0
 9489 24c8 1C       		.uleb128 0x1c
 9490 24c9 310A0000 		.4byte	0xa31
 9491 24cd DC010000 		.4byte	.LBI2292
 9492 24d1 0A00     		.2byte	.LVU1139
 9493 24d3 B00D0000 		.4byte	.Ldebug_ranges0+0xdb0
 9494 24d7 02       		.byte	0x2
 9495 24d8 B201     		.2byte	0x1b2
 9496 24da 03       		.byte	0x3
 9497 24db 1D       		.uleb128 0x1d
 9498 24dc 450A0000 		.4byte	0xa45
 9499 24e0 DC010000 		.4byte	.LBI2293
 9500 24e4 0C00     		.2byte	.LVU1141
 9501 24e6 DC010000 		.4byte	.LBB2293
 9502 24ea 04000000 		.4byte	.LBE2293-.LBB2293
 9503 24ee 03       		.byte	0x3
 9504 24ef 4103     		.2byte	0x341
 9505 24f1 03       		.byte	0x3
 9506 24f2 1E       		.uleb128 0x1e
 9507 24f3 530A0000 		.4byte	0xa53
 9508 24f7 780A0000 		.4byte	.LLST89
 9509 24fb 760A0000 		.4byte	.LVUS89
 9510 24ff 00       		.byte	0
 9511 2500 00       		.byte	0
 9512 2501 00       		.byte	0
 9513 2502 00       		.byte	0
 9514 2503 00       		.byte	0
 9515 2504 32       		.uleb128 0x32
 9516 2505 66090000 		.4byte	0x966
 9517 2509 E2010000 		.4byte	.LBI2300
 9518 250d 0100     		.2byte	.LVU1146
 9519 250f C80D0000 		.4byte	.Ldebug_ranges0+0xdc8
 9520 2513 01       		.byte	0x1
 9521 2514 95       		.byte	0x95
 9522 2515 05       		.byte	0x5
 9523 2516 6E250000 		.4byte	0x256e
 9524 251a 1C       		.uleb128 0x1c
ARM GAS  /tmp/ccTMtxXw.s 			page 169


 9525 251b FA090000 		.4byte	0x9fa
 9526 251f E2010000 		.4byte	.LBI2301
 9527 2523 0300     		.2byte	.LVU1148
 9528 2525 D00D0000 		.4byte	.Ldebug_ranges0+0xdd0
 9529 2529 06       		.byte	0x6
 9530 252a 4A02     		.2byte	0x24a
 9531 252c 03       		.byte	0x3
 9532 252d 1F       		.uleb128 0x1f
 9533 252e D00D0000 		.4byte	.Ldebug_ranges0+0xdd0
 9534 2532 1C       		.uleb128 0x1c
 9535 2533 310A0000 		.4byte	0xa31
 9536 2537 E2010000 		.4byte	.LBI2303
 9537 253b 0A00     		.2byte	.LVU1155
 9538 253d D00D0000 		.4byte	.Ldebug_ranges0+0xdd0
 9539 2541 02       		.byte	0x2
 9540 2542 B201     		.2byte	0x1b2
 9541 2544 03       		.byte	0x3
 9542 2545 1D       		.uleb128 0x1d
 9543 2546 450A0000 		.4byte	0xa45
 9544 254a E2010000 		.4byte	.LBI2304
 9545 254e 0C00     		.2byte	.LVU1157
 9546 2550 E2010000 		.4byte	.LBB2304
 9547 2554 04000000 		.4byte	.LBE2304-.LBB2304
 9548 2558 03       		.byte	0x3
 9549 2559 4103     		.2byte	0x341
 9550 255b 03       		.byte	0x3
 9551 255c 1E       		.uleb128 0x1e
 9552 255d 530A0000 		.4byte	0xa53
 9553 2561 8E0A0000 		.4byte	.LLST90
 9554 2565 8C0A0000 		.4byte	.LVUS90
 9555 2569 00       		.byte	0
 9556 256a 00       		.byte	0
 9557 256b 00       		.byte	0
 9558 256c 00       		.byte	0
 9559 256d 00       		.byte	0
 9560 256e 32       		.uleb128 0x32
 9561 256f 70090000 		.4byte	0x970
 9562 2573 E6010000 		.4byte	.LBI2311
 9563 2577 0300     		.2byte	.LVU1162
 9564 2579 E80D0000 		.4byte	.Ldebug_ranges0+0xde8
 9565 257d 01       		.byte	0x1
 9566 257e 96       		.byte	0x96
 9567 257f 05       		.byte	0x5
 9568 2580 D2250000 		.4byte	0x25d2
 9569 2584 1C       		.uleb128 0x1c
 9570 2585 270A0000 		.4byte	0xa27
 9571 2589 E6010000 		.4byte	.LBI2312
 9572 258d 0500     		.2byte	.LVU1164
 9573 258f F00D0000 		.4byte	.Ldebug_ranges0+0xdf0
 9574 2593 06       		.byte	0x6
 9575 2594 3F02     		.2byte	0x23f
 9576 2596 03       		.byte	0x3
 9577 2597 1C       		.uleb128 0x1c
 9578 2598 3B0A0000 		.4byte	0xa3b
 9579 259c E6010000 		.4byte	.LBI2313
 9580 25a0 0700     		.2byte	.LVU1166
 9581 25a2 F80D0000 		.4byte	.Ldebug_ranges0+0xdf8
ARM GAS  /tmp/ccTMtxXw.s 			page 170


 9582 25a6 02       		.byte	0x2
 9583 25a7 9901     		.2byte	0x199
 9584 25a9 03       		.byte	0x3
 9585 25aa 1D       		.uleb128 0x1d
 9586 25ab 450A0000 		.4byte	0xa45
 9587 25af E6010000 		.4byte	.LBI2314
 9588 25b3 0900     		.2byte	.LVU1168
 9589 25b5 E6010000 		.4byte	.LBB2314
 9590 25b9 04000000 		.4byte	.LBE2314-.LBB2314
 9591 25bd 03       		.byte	0x3
 9592 25be 2E03     		.2byte	0x32e
 9593 25c0 03       		.byte	0x3
 9594 25c1 1E       		.uleb128 0x1e
 9595 25c2 530A0000 		.4byte	0xa53
 9596 25c6 A40A0000 		.4byte	.LLST91
 9597 25ca A20A0000 		.4byte	.LVUS91
 9598 25ce 00       		.byte	0
 9599 25cf 00       		.byte	0
 9600 25d0 00       		.byte	0
 9601 25d1 00       		.byte	0
 9602 25d2 32       		.uleb128 0x32
 9603 25d3 66090000 		.4byte	0x966
 9604 25d7 06020000 		.4byte	.LBI2322
 9605 25db 0100     		.2byte	.LVU1175
 9606 25dd 100E0000 		.4byte	.Ldebug_ranges0+0xe10
 9607 25e1 01       		.byte	0x1
 9608 25e2 96       		.byte	0x96
 9609 25e3 05       		.byte	0x5
 9610 25e4 3C260000 		.4byte	0x263c
 9611 25e8 1C       		.uleb128 0x1c
 9612 25e9 FA090000 		.4byte	0x9fa
 9613 25ed 06020000 		.4byte	.LBI2323
 9614 25f1 0300     		.2byte	.LVU1177
 9615 25f3 180E0000 		.4byte	.Ldebug_ranges0+0xe18
 9616 25f7 06       		.byte	0x6
 9617 25f8 4A02     		.2byte	0x24a
 9618 25fa 03       		.byte	0x3
 9619 25fb 1F       		.uleb128 0x1f
 9620 25fc 180E0000 		.4byte	.Ldebug_ranges0+0xe18
 9621 2600 1C       		.uleb128 0x1c
 9622 2601 310A0000 		.4byte	0xa31
 9623 2605 06020000 		.4byte	.LBI2325
 9624 2609 0A00     		.2byte	.LVU1184
 9625 260b 180E0000 		.4byte	.Ldebug_ranges0+0xe18
 9626 260f 02       		.byte	0x2
 9627 2610 B201     		.2byte	0x1b2
 9628 2612 03       		.byte	0x3
 9629 2613 1D       		.uleb128 0x1d
 9630 2614 450A0000 		.4byte	0xa45
 9631 2618 06020000 		.4byte	.LBI2326
 9632 261c 0C00     		.2byte	.LVU1186
 9633 261e 06020000 		.4byte	.LBB2326
 9634 2622 04000000 		.4byte	.LBE2326-.LBB2326
 9635 2626 03       		.byte	0x3
 9636 2627 4103     		.2byte	0x341
 9637 2629 03       		.byte	0x3
 9638 262a 1E       		.uleb128 0x1e
ARM GAS  /tmp/ccTMtxXw.s 			page 171


 9639 262b 530A0000 		.4byte	0xa53
 9640 262f BB0A0000 		.4byte	.LLST92
 9641 2633 B90A0000 		.4byte	.LVUS92
 9642 2637 00       		.byte	0
 9643 2638 00       		.byte	0
 9644 2639 00       		.byte	0
 9645 263a 00       		.byte	0
 9646 263b 00       		.byte	0
 9647 263c 32       		.uleb128 0x32
 9648 263d 70090000 		.4byte	0x970
 9649 2641 92020000 		.4byte	.LBI2333
 9650 2645 0100     		.2byte	.LVU1232
 9651 2647 300E0000 		.4byte	.Ldebug_ranges0+0xe30
 9652 264b 01       		.byte	0x1
 9653 264c B6       		.byte	0xb6
 9654 264d 05       		.byte	0x5
 9655 264e A0260000 		.4byte	0x26a0
 9656 2652 1C       		.uleb128 0x1c
 9657 2653 270A0000 		.4byte	0xa27
 9658 2657 92020000 		.4byte	.LBI2334
 9659 265b 0300     		.2byte	.LVU1234
 9660 265d 380E0000 		.4byte	.Ldebug_ranges0+0xe38
 9661 2661 06       		.byte	0x6
 9662 2662 3F02     		.2byte	0x23f
 9663 2664 03       		.byte	0x3
 9664 2665 1C       		.uleb128 0x1c
 9665 2666 3B0A0000 		.4byte	0xa3b
 9666 266a 92020000 		.4byte	.LBI2335
 9667 266e 0500     		.2byte	.LVU1236
 9668 2670 400E0000 		.4byte	.Ldebug_ranges0+0xe40
 9669 2674 02       		.byte	0x2
 9670 2675 9901     		.2byte	0x199
 9671 2677 03       		.byte	0x3
 9672 2678 1D       		.uleb128 0x1d
 9673 2679 450A0000 		.4byte	0xa45
 9674 267d 92020000 		.4byte	.LBI2336
 9675 2681 0700     		.2byte	.LVU1238
 9676 2683 92020000 		.4byte	.LBB2336
 9677 2687 06000000 		.4byte	.LBE2336-.LBB2336
 9678 268b 03       		.byte	0x3
 9679 268c 2E03     		.2byte	0x32e
 9680 268e 03       		.byte	0x3
 9681 268f 1E       		.uleb128 0x1e
 9682 2690 530A0000 		.4byte	0xa53
 9683 2694 D10A0000 		.4byte	.LLST93
 9684 2698 CF0A0000 		.4byte	.LVUS93
 9685 269c 00       		.byte	0
 9686 269d 00       		.byte	0
 9687 269e 00       		.byte	0
 9688 269f 00       		.byte	0
 9689 26a0 32       		.uleb128 0x32
 9690 26a1 9A090000 		.4byte	0x99a
 9691 26a5 98020000 		.4byte	.LBI2344
 9692 26a9 0400     		.2byte	.LVU1244
 9693 26ab 580E0000 		.4byte	.Ldebug_ranges0+0xe58
 9694 26af 01       		.byte	0x1
 9695 26b0 B6       		.byte	0xb6
ARM GAS  /tmp/ccTMtxXw.s 			page 172


 9696 26b1 05       		.byte	0x5
 9697 26b2 0C270000 		.4byte	0x270c
 9698 26b6 1E       		.uleb128 0x1e
 9699 26b7 AB090000 		.4byte	0x9ab
 9700 26bb E80A0000 		.4byte	.LLST94
 9701 26bf E60A0000 		.4byte	.LVUS94
 9702 26c3 32       		.uleb128 0x32
 9703 26c4 DC090000 		.4byte	0x9dc
 9704 26c8 98020000 		.4byte	.LBI2346
 9705 26cc 0700     		.2byte	.LVU1247
 9706 26ce 700E0000 		.4byte	.Ldebug_ranges0+0xe70
 9707 26d2 05       		.byte	0x5
 9708 26d3 AB       		.byte	0xab
 9709 26d4 0A       		.byte	0xa
 9710 26d5 E7260000 		.4byte	0x26e7
 9711 26d9 1E       		.uleb128 0x1e
 9712 26da ED090000 		.4byte	0x9ed
 9713 26de 020B0000 		.4byte	.LLST95
 9714 26e2 000B0000 		.4byte	.LVUS95
 9715 26e6 00       		.byte	0
 9716 26e7 33       		.uleb128 0x33
 9717 26e8 BE090000 		.4byte	0x9be
 9718 26ec 98020000 		.4byte	.LBI2349
 9719 26f0 0A00     		.2byte	.LVU1250
 9720 26f2 98020000 		.4byte	.LBB2349
 9721 26f6 00000000 		.4byte	.LBE2349-.LBB2349
 9722 26fa 05       		.byte	0x5
 9723 26fb AB       		.byte	0xab
 9724 26fc 1E       		.byte	0x1e
 9725 26fd 1E       		.uleb128 0x1e
 9726 26fe CF090000 		.4byte	0x9cf
 9727 2702 1C0B0000 		.4byte	.LLST96
 9728 2706 1A0B0000 		.4byte	.LVUS96
 9729 270a 00       		.byte	0
 9730 270b 00       		.byte	0
 9731 270c 32       		.uleb128 0x32
 9732 270d 66090000 		.4byte	0x966
 9733 2711 B6020000 		.4byte	.LBI2354
 9734 2715 0100     		.2byte	.LVU1260
 9735 2717 880E0000 		.4byte	.Ldebug_ranges0+0xe88
 9736 271b 01       		.byte	0x1
 9737 271c B6       		.byte	0xb6
 9738 271d 05       		.byte	0x5
 9739 271e 76270000 		.4byte	0x2776
 9740 2722 1C       		.uleb128 0x1c
 9741 2723 FA090000 		.4byte	0x9fa
 9742 2727 B6020000 		.4byte	.LBI2355
 9743 272b 0300     		.2byte	.LVU1262
 9744 272d 900E0000 		.4byte	.Ldebug_ranges0+0xe90
 9745 2731 06       		.byte	0x6
 9746 2732 4A02     		.2byte	0x24a
 9747 2734 03       		.byte	0x3
 9748 2735 1F       		.uleb128 0x1f
 9749 2736 900E0000 		.4byte	.Ldebug_ranges0+0xe90
 9750 273a 1C       		.uleb128 0x1c
 9751 273b 310A0000 		.4byte	0xa31
 9752 273f B6020000 		.4byte	.LBI2357
ARM GAS  /tmp/ccTMtxXw.s 			page 173


 9753 2743 0A00     		.2byte	.LVU1269
 9754 2745 900E0000 		.4byte	.Ldebug_ranges0+0xe90
 9755 2749 02       		.byte	0x2
 9756 274a B201     		.2byte	0x1b2
 9757 274c 03       		.byte	0x3
 9758 274d 1D       		.uleb128 0x1d
 9759 274e 450A0000 		.4byte	0xa45
 9760 2752 B6020000 		.4byte	.LBI2358
 9761 2756 0C00     		.2byte	.LVU1271
 9762 2758 B6020000 		.4byte	.LBB2358
 9763 275c 04000000 		.4byte	.LBE2358-.LBB2358
 9764 2760 03       		.byte	0x3
 9765 2761 4103     		.2byte	0x341
 9766 2763 03       		.byte	0x3
 9767 2764 1E       		.uleb128 0x1e
 9768 2765 530A0000 		.4byte	0xa53
 9769 2769 360B0000 		.4byte	.LLST97
 9770 276d 340B0000 		.4byte	.LVUS97
 9771 2771 00       		.byte	0
 9772 2772 00       		.byte	0
 9773 2773 00       		.byte	0
 9774 2774 00       		.byte	0
 9775 2775 00       		.byte	0
 9776 2776 32       		.uleb128 0x32
 9777 2777 70090000 		.4byte	0x970
 9778 277b BA020000 		.4byte	.LBI2365
 9779 277f 0300     		.2byte	.LVU1276
 9780 2781 A80E0000 		.4byte	.Ldebug_ranges0+0xea8
 9781 2785 01       		.byte	0x1
 9782 2786 B7       		.byte	0xb7
 9783 2787 05       		.byte	0x5
 9784 2788 DA270000 		.4byte	0x27da
 9785 278c 1C       		.uleb128 0x1c
 9786 278d 270A0000 		.4byte	0xa27
 9787 2791 BA020000 		.4byte	.LBI2366
 9788 2795 0500     		.2byte	.LVU1278
 9789 2797 B00E0000 		.4byte	.Ldebug_ranges0+0xeb0
 9790 279b 06       		.byte	0x6
 9791 279c 3F02     		.2byte	0x23f
 9792 279e 03       		.byte	0x3
 9793 279f 1C       		.uleb128 0x1c
 9794 27a0 3B0A0000 		.4byte	0xa3b
 9795 27a4 BA020000 		.4byte	.LBI2367
 9796 27a8 0700     		.2byte	.LVU1280
 9797 27aa B80E0000 		.4byte	.Ldebug_ranges0+0xeb8
 9798 27ae 02       		.byte	0x2
 9799 27af 9901     		.2byte	0x199
 9800 27b1 03       		.byte	0x3
 9801 27b2 1D       		.uleb128 0x1d
 9802 27b3 450A0000 		.4byte	0xa45
 9803 27b7 BA020000 		.4byte	.LBI2368
 9804 27bb 0900     		.2byte	.LVU1282
 9805 27bd BA020000 		.4byte	.LBB2368
 9806 27c1 04000000 		.4byte	.LBE2368-.LBB2368
 9807 27c5 03       		.byte	0x3
 9808 27c6 2E03     		.2byte	0x32e
 9809 27c8 03       		.byte	0x3
ARM GAS  /tmp/ccTMtxXw.s 			page 174


 9810 27c9 1E       		.uleb128 0x1e
 9811 27ca 530A0000 		.4byte	0xa53
 9812 27ce 4C0B0000 		.4byte	.LLST98
 9813 27d2 4A0B0000 		.4byte	.LVUS98
 9814 27d6 00       		.byte	0
 9815 27d7 00       		.byte	0
 9816 27d8 00       		.byte	0
 9817 27d9 00       		.byte	0
 9818 27da 36       		.uleb128 0x36
 9819 27db BE090000 		.4byte	0x9be
 9820 27df BE020000 		.4byte	.LBI2376
 9821 27e3 0400     		.2byte	.LVU1288
 9822 27e5 BE020000 		.4byte	.LBB2376
 9823 27e9 00000000 		.4byte	.LBE2376-.LBB2376
 9824 27ed 01       		.byte	0x1
 9825 27ee B7       		.byte	0xb7
 9826 27ef 05       		.byte	0x5
 9827 27f0 02280000 		.4byte	0x2802
 9828 27f4 1E       		.uleb128 0x1e
 9829 27f5 CF090000 		.4byte	0x9cf
 9830 27f9 630B0000 		.4byte	.LLST99
 9831 27fd 610B0000 		.4byte	.LVUS99
 9832 2801 00       		.byte	0
 9833 2802 32       		.uleb128 0x32
 9834 2803 66090000 		.4byte	0x966
 9835 2807 D2020000 		.4byte	.LBI2378
 9836 280b 0100     		.2byte	.LVU1294
 9837 280d D00E0000 		.4byte	.Ldebug_ranges0+0xed0
 9838 2811 01       		.byte	0x1
 9839 2812 B7       		.byte	0xb7
 9840 2813 05       		.byte	0x5
 9841 2814 6C280000 		.4byte	0x286c
 9842 2818 1C       		.uleb128 0x1c
 9843 2819 FA090000 		.4byte	0x9fa
 9844 281d D2020000 		.4byte	.LBI2379
 9845 2821 0300     		.2byte	.LVU1296
 9846 2823 D80E0000 		.4byte	.Ldebug_ranges0+0xed8
 9847 2827 06       		.byte	0x6
 9848 2828 4A02     		.2byte	0x24a
 9849 282a 03       		.byte	0x3
 9850 282b 1F       		.uleb128 0x1f
 9851 282c D80E0000 		.4byte	.Ldebug_ranges0+0xed8
 9852 2830 1C       		.uleb128 0x1c
 9853 2831 310A0000 		.4byte	0xa31
 9854 2835 D2020000 		.4byte	.LBI2381
 9855 2839 0A00     		.2byte	.LVU1303
 9856 283b D80E0000 		.4byte	.Ldebug_ranges0+0xed8
 9857 283f 02       		.byte	0x2
 9858 2840 B201     		.2byte	0x1b2
 9859 2842 03       		.byte	0x3
 9860 2843 1D       		.uleb128 0x1d
 9861 2844 450A0000 		.4byte	0xa45
 9862 2848 D2020000 		.4byte	.LBI2382
 9863 284c 0C00     		.2byte	.LVU1305
 9864 284e D2020000 		.4byte	.LBB2382
 9865 2852 04000000 		.4byte	.LBE2382-.LBB2382
 9866 2856 03       		.byte	0x3
ARM GAS  /tmp/ccTMtxXw.s 			page 175


 9867 2857 4103     		.2byte	0x341
 9868 2859 03       		.byte	0x3
 9869 285a 1E       		.uleb128 0x1e
 9870 285b 530A0000 		.4byte	0xa53
 9871 285f 7D0B0000 		.4byte	.LLST100
 9872 2863 7B0B0000 		.4byte	.LVUS100
 9873 2867 00       		.byte	0
 9874 2868 00       		.byte	0
 9875 2869 00       		.byte	0
 9876 286a 00       		.byte	0
 9877 286b 00       		.byte	0
 9878 286c 20       		.uleb128 0x20
 9879 286d 4E000000 		.4byte	.LVL137
 9880 2871 B42B0000 		.4byte	0x2bb4
 9881 2875 80280000 		.4byte	0x2880
 9882 2879 21       		.uleb128 0x21
 9883 287a 01       		.uleb128 0x1
 9884 287b 50       		.byte	0x50
 9885 287c 02       		.uleb128 0x2
 9886 287d 74       		.byte	0x74
 9887 287e 00       		.sleb128 0
 9888 287f 00       		.byte	0
 9889 2880 20       		.uleb128 0x20
 9890 2881 6E000000 		.4byte	.LVL139
 9891 2885 832B0000 		.4byte	0x2b83
 9892 2889 97280000 		.4byte	0x2897
 9893 288d 21       		.uleb128 0x21
 9894 288e 01       		.uleb128 0x1
 9895 288f 51       		.byte	0x51
 9896 2890 05       		.uleb128 0x5
 9897 2891 03       		.byte	0x3
 9898 2892 0C000000 		.4byte	.LC2
 9899 2896 00       		.byte	0
 9900 2897 20       		.uleb128 0x20
 9901 2898 88000000 		.4byte	.LVL143
 9902 289c 832B0000 		.4byte	0x2b83
 9903 28a0 AE280000 		.4byte	0x28ae
 9904 28a4 21       		.uleb128 0x21
 9905 28a5 01       		.uleb128 0x1
 9906 28a6 51       		.byte	0x51
 9907 28a7 05       		.uleb128 0x5
 9908 28a8 03       		.byte	0x3
 9909 28a9 18000000 		.4byte	.LC3
 9910 28ad 00       		.byte	0
 9911 28ae 20       		.uleb128 0x20
 9912 28af BA000000 		.4byte	.LVL151
 9913 28b3 832B0000 		.4byte	0x2b83
 9914 28b7 C5280000 		.4byte	0x28c5
 9915 28bb 21       		.uleb128 0x21
 9916 28bc 01       		.uleb128 0x1
 9917 28bd 51       		.byte	0x51
 9918 28be 05       		.uleb128 0x5
 9919 28bf 03       		.byte	0x3
 9920 28c0 24000000 		.4byte	.LC4
 9921 28c4 00       		.byte	0
 9922 28c5 20       		.uleb128 0x20
 9923 28c6 DA000000 		.4byte	.LVL155
ARM GAS  /tmp/ccTMtxXw.s 			page 176


 9924 28ca 832B0000 		.4byte	0x2b83
 9925 28ce DC280000 		.4byte	0x28dc
 9926 28d2 21       		.uleb128 0x21
 9927 28d3 01       		.uleb128 0x1
 9928 28d4 51       		.byte	0x51
 9929 28d5 05       		.uleb128 0x5
 9930 28d6 03       		.byte	0x3
 9931 28d7 48000000 		.4byte	.LC5
 9932 28db 00       		.byte	0
 9933 28dc 20       		.uleb128 0x20
 9934 28dd F2000000 		.4byte	.LVL158
 9935 28e1 772B0000 		.4byte	0x2b77
 9936 28e5 F6280000 		.4byte	0x28f6
 9937 28e9 21       		.uleb128 0x21
 9938 28ea 01       		.uleb128 0x1
 9939 28eb 50       		.byte	0x50
 9940 28ec 02       		.uleb128 0x2
 9941 28ed 74       		.byte	0x74
 9942 28ee 00       		.sleb128 0
 9943 28ef 21       		.uleb128 0x21
 9944 28f0 01       		.uleb128 0x1
 9945 28f1 52       		.byte	0x52
 9946 28f2 02       		.uleb128 0x2
 9947 28f3 09       		.byte	0x9
 9948 28f4 FF       		.byte	0xff
 9949 28f5 00       		.byte	0
 9950 28f6 20       		.uleb128 0x20
 9951 28f7 00010000 		.4byte	.LVL160
 9952 28fb 832B0000 		.4byte	0x2b83
 9953 28ff 27290000 		.4byte	0x2927
 9954 2903 21       		.uleb128 0x21
 9955 2904 01       		.uleb128 0x1
 9956 2905 50       		.byte	0x50
 9957 2906 16       		.uleb128 0x16
 9958 2907 31       		.byte	0x31
 9959 2908 30       		.byte	0x30
 9960 2909 75       		.byte	0x75
 9961 290a 7E       		.sleb128 -2
 9962 290b 75       		.byte	0x75
 9963 290c 00       		.sleb128 0
 9964 290d 30       		.byte	0x30
 9965 290e 2E       		.byte	0x2e
 9966 290f 28       		.byte	0x28
 9967 2910 0100     		.2byte	0x1
 9968 2912 16       		.byte	0x16
 9969 2913 13       		.byte	0x13
 9970 2914 75       		.byte	0x75
 9971 2915 00       		.sleb128 0
 9972 2916 30       		.byte	0x30
 9973 2917 29       		.byte	0x29
 9974 2918 28       		.byte	0x28
 9975 2919 0100     		.2byte	0x1
 9976 291b 16       		.byte	0x16
 9977 291c 13       		.byte	0x13
 9978 291d 21       		.uleb128 0x21
 9979 291e 01       		.uleb128 0x1
 9980 291f 51       		.byte	0x51
ARM GAS  /tmp/ccTMtxXw.s 			page 177


 9981 2920 05       		.uleb128 0x5
 9982 2921 03       		.byte	0x3
 9983 2922 00000000 		.4byte	.LC11
 9984 2926 00       		.byte	0
 9985 2927 20       		.uleb128 0x20
 9986 2928 10010000 		.4byte	.LVL161
 9987 292c 9C2B0000 		.4byte	0x2b9c
 9988 2930 41290000 		.4byte	0x2941
 9989 2934 21       		.uleb128 0x21
 9990 2935 01       		.uleb128 0x1
 9991 2936 50       		.byte	0x50
 9992 2937 02       		.uleb128 0x2
 9993 2938 74       		.byte	0x74
 9994 2939 00       		.sleb128 0
 9995 293a 21       		.uleb128 0x21
 9996 293b 01       		.uleb128 0x1
 9997 293c 52       		.byte	0x52
 9998 293d 02       		.uleb128 0x2
 9999 293e 09       		.byte	0x9
 10000 293f FF       		.byte	0xff
 10001 2940 00       		.byte	0
 10002 2941 20       		.uleb128 0x20
 10003 2942 1E010000 		.4byte	.LVL163
 10004 2946 832B0000 		.4byte	0x2b83
 10005 294a 58290000 		.4byte	0x2958
 10006 294e 21       		.uleb128 0x21
 10007 294f 01       		.uleb128 0x1
 10008 2950 51       		.byte	0x51
 10009 2951 05       		.uleb128 0x5
 10010 2952 03       		.byte	0x3
 10011 2953 00000000 		.4byte	.LC11
 10012 2957 00       		.byte	0
 10013 2958 20       		.uleb128 0x20
 10014 2959 2E010000 		.4byte	.LVL164
 10015 295d C02B0000 		.4byte	0x2bc0
 10016 2961 78290000 		.4byte	0x2978
 10017 2965 21       		.uleb128 0x21
 10018 2966 01       		.uleb128 0x1
 10019 2967 50       		.byte	0x50
 10020 2968 02       		.uleb128 0x2
 10021 2969 74       		.byte	0x74
 10022 296a 00       		.sleb128 0
 10023 296b 21       		.uleb128 0x21
 10024 296c 01       		.uleb128 0x1
 10025 296d 51       		.byte	0x51
 10026 296e 02       		.uleb128 0x2
 10027 296f 91       		.byte	0x91
 10028 2970 64       		.sleb128 -28
 10029 2971 21       		.uleb128 0x21
 10030 2972 01       		.uleb128 0x1
 10031 2973 52       		.byte	0x52
 10032 2974 02       		.uleb128 0x2
 10033 2975 09       		.byte	0x9
 10034 2976 FF       		.byte	0xff
 10035 2977 00       		.byte	0
 10036 2978 20       		.uleb128 0x20
 10037 2979 3C010000 		.4byte	.LVL166
ARM GAS  /tmp/ccTMtxXw.s 			page 178


 10038 297d 832B0000 		.4byte	0x2b83
 10039 2981 8F290000 		.4byte	0x298f
 10040 2985 21       		.uleb128 0x21
 10041 2986 01       		.uleb128 0x1
 10042 2987 51       		.byte	0x51
 10043 2988 05       		.uleb128 0x5
 10044 2989 03       		.byte	0x3
 10045 298a 00000000 		.4byte	.LC11
 10046 298e 00       		.byte	0
 10047 298f 20       		.uleb128 0x20
 10048 2990 58010000 		.4byte	.LVL171
 10049 2994 772B0000 		.4byte	0x2b77
 10050 2998 AF290000 		.4byte	0x29af
 10051 299c 21       		.uleb128 0x21
 10052 299d 01       		.uleb128 0x1
 10053 299e 50       		.byte	0x50
 10054 299f 02       		.uleb128 0x2
 10055 29a0 74       		.byte	0x74
 10056 29a1 00       		.sleb128 0
 10057 29a2 21       		.uleb128 0x21
 10058 29a3 01       		.uleb128 0x1
 10059 29a4 51       		.byte	0x51
 10060 29a5 02       		.uleb128 0x2
 10061 29a6 75       		.byte	0x75
 10062 29a7 00       		.sleb128 0
 10063 29a8 21       		.uleb128 0x21
 10064 29a9 01       		.uleb128 0x1
 10065 29aa 52       		.byte	0x52
 10066 29ab 02       		.uleb128 0x2
 10067 29ac 09       		.byte	0x9
 10068 29ad FF       		.byte	0xff
 10069 29ae 00       		.byte	0
 10070 29af 20       		.uleb128 0x20
 10071 29b0 66010000 		.4byte	.LVL174
 10072 29b4 832B0000 		.4byte	0x2b83
 10073 29b8 C3290000 		.4byte	0x29c3
 10074 29bc 21       		.uleb128 0x21
 10075 29bd 01       		.uleb128 0x1
 10076 29be 51       		.byte	0x51
 10077 29bf 02       		.uleb128 0x2
 10078 29c0 76       		.byte	0x76
 10079 29c1 00       		.sleb128 0
 10080 29c2 00       		.byte	0
 10081 29c3 20       		.uleb128 0x20
 10082 29c4 7C010000 		.4byte	.LVL175
 10083 29c8 9C2B0000 		.4byte	0x2b9c
 10084 29cc E3290000 		.4byte	0x29e3
 10085 29d0 21       		.uleb128 0x21
 10086 29d1 01       		.uleb128 0x1
 10087 29d2 50       		.byte	0x50
 10088 29d3 02       		.uleb128 0x2
 10089 29d4 74       		.byte	0x74
 10090 29d5 00       		.sleb128 0
 10091 29d6 21       		.uleb128 0x21
 10092 29d7 01       		.uleb128 0x1
 10093 29d8 51       		.byte	0x51
 10094 29d9 02       		.uleb128 0x2
ARM GAS  /tmp/ccTMtxXw.s 			page 179


 10095 29da 08       		.byte	0x8
 10096 29db 41       		.byte	0x41
 10097 29dc 21       		.uleb128 0x21
 10098 29dd 01       		.uleb128 0x1
 10099 29de 52       		.byte	0x52
 10100 29df 02       		.uleb128 0x2
 10101 29e0 09       		.byte	0x9
 10102 29e1 FF       		.byte	0xff
 10103 29e2 00       		.byte	0
 10104 29e3 20       		.uleb128 0x20
 10105 29e4 88010000 		.4byte	.LVL177
 10106 29e8 832B0000 		.4byte	0x2b83
 10107 29ec F7290000 		.4byte	0x29f7
 10108 29f0 21       		.uleb128 0x21
 10109 29f1 01       		.uleb128 0x1
 10110 29f2 51       		.byte	0x51
 10111 29f3 02       		.uleb128 0x2
 10112 29f4 76       		.byte	0x76
 10113 29f5 00       		.sleb128 0
 10114 29f6 00       		.byte	0
 10115 29f7 20       		.uleb128 0x20
 10116 29f8 B4010000 		.4byte	.LVL180
 10117 29fc 832B0000 		.4byte	0x2b83
 10118 2a00 0E2A0000 		.4byte	0x2a0e
 10119 2a04 21       		.uleb128 0x21
 10120 2a05 01       		.uleb128 0x1
 10121 2a06 51       		.byte	0x51
 10122 2a07 05       		.uleb128 0x5
 10123 2a08 03       		.byte	0x3
 10124 2a09 6C000000 		.4byte	.LC6
 10125 2a0d 00       		.byte	0
 10126 2a0e 20       		.uleb128 0x20
 10127 2a0f D8010000 		.4byte	.LVL184
 10128 2a13 832B0000 		.4byte	0x2b83
 10129 2a17 252A0000 		.4byte	0x2a25
 10130 2a1b 21       		.uleb128 0x21
 10131 2a1c 01       		.uleb128 0x1
 10132 2a1d 51       		.byte	0x51
 10133 2a1e 05       		.uleb128 0x5
 10134 2a1f 03       		.byte	0x3
 10135 2a20 78000000 		.4byte	.LC7
 10136 2a24 00       		.byte	0
 10137 2a25 20       		.uleb128 0x20
 10138 2a26 00020000 		.4byte	.LVL190
 10139 2a2a 832B0000 		.4byte	0x2b83
 10140 2a2e 3C2A0000 		.4byte	0x2a3c
 10141 2a32 21       		.uleb128 0x21
 10142 2a33 01       		.uleb128 0x1
 10143 2a34 51       		.byte	0x51
 10144 2a35 05       		.uleb128 0x5
 10145 2a36 03       		.byte	0x3
 10146 2a37 84000000 		.4byte	.LC8
 10147 2a3b 00       		.byte	0
 10148 2a3c 20       		.uleb128 0x20
 10149 2a3d 22020000 		.4byte	.LVL195
 10150 2a41 C02B0000 		.4byte	0x2bc0
 10151 2a45 5C2A0000 		.4byte	0x2a5c
ARM GAS  /tmp/ccTMtxXw.s 			page 180


 10152 2a49 21       		.uleb128 0x21
 10153 2a4a 01       		.uleb128 0x1
 10154 2a4b 50       		.byte	0x50
 10155 2a4c 02       		.uleb128 0x2
 10156 2a4d 74       		.byte	0x74
 10157 2a4e 00       		.sleb128 0
 10158 2a4f 21       		.uleb128 0x21
 10159 2a50 01       		.uleb128 0x1
 10160 2a51 51       		.byte	0x51
 10161 2a52 02       		.uleb128 0x2
 10162 2a53 91       		.byte	0x91
 10163 2a54 64       		.sleb128 -28
 10164 2a55 21       		.uleb128 0x21
 10165 2a56 01       		.uleb128 0x1
 10166 2a57 52       		.byte	0x52
 10167 2a58 02       		.uleb128 0x2
 10168 2a59 09       		.byte	0x9
 10169 2a5a FF       		.byte	0xff
 10170 2a5b 00       		.byte	0
 10171 2a5c 20       		.uleb128 0x20
 10172 2a5d 2E020000 		.4byte	.LVL197
 10173 2a61 832B0000 		.4byte	0x2b83
 10174 2a65 702A0000 		.4byte	0x2a70
 10175 2a69 21       		.uleb128 0x21
 10176 2a6a 01       		.uleb128 0x1
 10177 2a6b 51       		.byte	0x51
 10178 2a6c 02       		.uleb128 0x2
 10179 2a6d 76       		.byte	0x76
 10180 2a6e 00       		.sleb128 0
 10181 2a6f 00       		.byte	0
 10182 2a70 38       		.uleb128 0x38
 10183 2a71 3C020000 		.4byte	.LVL198
 10184 2a75 F02B0000 		.4byte	0x2bf0
 10185 2a79 20       		.uleb128 0x20
 10186 2a7a 48020000 		.4byte	.LVL200
 10187 2a7e FD2B0000 		.4byte	0x2bfd
 10188 2a82 992A0000 		.4byte	0x2a99
 10189 2a86 21       		.uleb128 0x21
 10190 2a87 01       		.uleb128 0x1
 10191 2a88 50       		.byte	0x50
 10192 2a89 05       		.uleb128 0x5
 10193 2a8a 03       		.byte	0x3
 10194 2a8b B0000000 		.4byte	.LC10
 10195 2a8f 21       		.uleb128 0x21
 10196 2a90 01       		.uleb128 0x1
 10197 2a91 51       		.byte	0x51
 10198 2a92 05       		.uleb128 0x5
 10199 2a93 03       		.byte	0x3
 10200 2a94 9C000000 		.4byte	.LC9
 10201 2a98 00       		.byte	0
 10202 2a99 20       		.uleb128 0x20
 10203 2a9a 5E020000 		.4byte	.LVL201
 10204 2a9e 772B0000 		.4byte	0x2b77
 10205 2aa2 B92A0000 		.4byte	0x2ab9
 10206 2aa6 21       		.uleb128 0x21
 10207 2aa7 01       		.uleb128 0x1
 10208 2aa8 50       		.byte	0x50
ARM GAS  /tmp/ccTMtxXw.s 			page 181


 10209 2aa9 02       		.uleb128 0x2
 10210 2aaa 74       		.byte	0x74
 10211 2aab 00       		.sleb128 0
 10212 2aac 21       		.uleb128 0x21
 10213 2aad 01       		.uleb128 0x1
 10214 2aae 51       		.byte	0x51
 10215 2aaf 02       		.uleb128 0x2
 10216 2ab0 08       		.byte	0x8
 10217 2ab1 46       		.byte	0x46
 10218 2ab2 21       		.uleb128 0x21
 10219 2ab3 01       		.uleb128 0x1
 10220 2ab4 52       		.byte	0x52
 10221 2ab5 02       		.uleb128 0x2
 10222 2ab6 09       		.byte	0x9
 10223 2ab7 FF       		.byte	0xff
 10224 2ab8 00       		.byte	0
 10225 2ab9 20       		.uleb128 0x20
 10226 2aba 6A020000 		.4byte	.LVL203
 10227 2abe 832B0000 		.4byte	0x2b83
 10228 2ac2 CD2A0000 		.4byte	0x2acd
 10229 2ac6 21       		.uleb128 0x21
 10230 2ac7 01       		.uleb128 0x1
 10231 2ac8 51       		.byte	0x51
 10232 2ac9 02       		.uleb128 0x2
 10233 2aca 76       		.byte	0x76
 10234 2acb 00       		.sleb128 0
 10235 2acc 00       		.byte	0
 10236 2acd 20       		.uleb128 0x20
 10237 2ace 7C020000 		.4byte	.LVL204
 10238 2ad2 C02B0000 		.4byte	0x2bc0
 10239 2ad6 ED2A0000 		.4byte	0x2aed
 10240 2ada 21       		.uleb128 0x21
 10241 2adb 01       		.uleb128 0x1
 10242 2adc 50       		.byte	0x50
 10243 2add 02       		.uleb128 0x2
 10244 2ade 74       		.byte	0x74
 10245 2adf 00       		.sleb128 0
 10246 2ae0 21       		.uleb128 0x21
 10247 2ae1 01       		.uleb128 0x1
 10248 2ae2 51       		.byte	0x51
 10249 2ae3 02       		.uleb128 0x2
 10250 2ae4 91       		.byte	0x91
 10251 2ae5 64       		.sleb128 -28
 10252 2ae6 21       		.uleb128 0x21
 10253 2ae7 01       		.uleb128 0x1
 10254 2ae8 52       		.byte	0x52
 10255 2ae9 02       		.uleb128 0x2
 10256 2aea 09       		.byte	0x9
 10257 2aeb FF       		.byte	0xff
 10258 2aec 00       		.byte	0
 10259 2aed 20       		.uleb128 0x20
 10260 2aee 88020000 		.4byte	.LVL206
 10261 2af2 832B0000 		.4byte	0x2b83
 10262 2af6 012B0000 		.4byte	0x2b01
 10263 2afa 21       		.uleb128 0x21
 10264 2afb 01       		.uleb128 0x1
 10265 2afc 51       		.byte	0x51
ARM GAS  /tmp/ccTMtxXw.s 			page 182


 10266 2afd 02       		.uleb128 0x2
 10267 2afe 76       		.byte	0x76
 10268 2aff 00       		.sleb128 0
 10269 2b00 00       		.byte	0
 10270 2b01 20       		.uleb128 0x20
 10271 2b02 B0020000 		.4byte	.LVL209
 10272 2b06 832B0000 		.4byte	0x2b83
 10273 2b0a 202B0000 		.4byte	0x2b20
 10274 2b0e 21       		.uleb128 0x21
 10275 2b0f 01       		.uleb128 0x1
 10276 2b10 50       		.byte	0x50
 10277 2b11 04       		.uleb128 0x4
 10278 2b12 77       		.byte	0x77
 10279 2b13 00       		.sleb128 0
 10280 2b14 30       		.byte	0x30
 10281 2b15 29       		.byte	0x29
 10282 2b16 21       		.uleb128 0x21
 10283 2b17 01       		.uleb128 0x1
 10284 2b18 51       		.byte	0x51
 10285 2b19 05       		.uleb128 0x5
 10286 2b1a 03       		.byte	0x3
 10287 2b1b 0C000000 		.4byte	.LC2
 10288 2b1f 00       		.byte	0
 10289 2b20 20       		.uleb128 0x20
 10290 2b21 CC020000 		.4byte	.LVL213
 10291 2b25 832B0000 		.4byte	0x2b83
 10292 2b29 372B0000 		.4byte	0x2b37
 10293 2b2d 21       		.uleb128 0x21
 10294 2b2e 01       		.uleb128 0x1
 10295 2b2f 51       		.byte	0x51
 10296 2b30 05       		.uleb128 0x5
 10297 2b31 03       		.byte	0x3
 10298 2b32 18000000 		.4byte	.LC3
 10299 2b36 00       		.byte	0
 10300 2b37 20       		.uleb128 0x20
 10301 2b38 E6020000 		.4byte	.LVL216
 10302 2b3c 832B0000 		.4byte	0x2b83
 10303 2b40 4E2B0000 		.4byte	0x2b4e
 10304 2b44 21       		.uleb128 0x21
 10305 2b45 01       		.uleb128 0x1
 10306 2b46 51       		.byte	0x51
 10307 2b47 05       		.uleb128 0x5
 10308 2b48 03       		.byte	0x3
 10309 2b49 24000000 		.4byte	.LC4
 10310 2b4d 00       		.byte	0
 10311 2b4e 22       		.uleb128 0x22
 10312 2b4f FC020000 		.4byte	.LVL217
 10313 2b53 832B0000 		.4byte	0x2b83
 10314 2b57 21       		.uleb128 0x21
 10315 2b58 01       		.uleb128 0x1
 10316 2b59 51       		.byte	0x51
 10317 2b5a 05       		.uleb128 0x5
 10318 2b5b 03       		.byte	0x3
 10319 2b5c 48000000 		.4byte	.LC5
 10320 2b60 00       		.byte	0
 10321 2b61 00       		.byte	0
 10322 2b62 00       		.byte	0
ARM GAS  /tmp/ccTMtxXw.s 			page 183


 10323 2b63 22       		.uleb128 0x22
 10324 2b64 30000000 		.4byte	.LVL132
 10325 2b68 832B0000 		.4byte	0x2b83
 10326 2b6c 21       		.uleb128 0x21
 10327 2b6d 01       		.uleb128 0x1
 10328 2b6e 51       		.byte	0x51
 10329 2b6f 05       		.uleb128 0x5
 10330 2b70 03       		.byte	0x3
 10331 2b71 00000000 		.4byte	.LC1
 10332 2b75 00       		.byte	0
 10333 2b76 00       		.byte	0
 10334 2b77 39       		.uleb128 0x39
 10335 2b78 23010000 		.4byte	.LASF84
 10336 2b7c 23010000 		.4byte	.LASF84
 10337 2b80 05       		.byte	0x5
 10338 2b81 6F       		.byte	0x6f
 10339 2b82 09       		.byte	0x9
 10340 2b83 3A       		.uleb128 0x3a
 10341 2b84 01020000 		.4byte	.LASF85
 10342 2b88 01020000 		.4byte	.LASF85
 10343 2b8c 0F       		.byte	0xf
 10344 2b8d 3001     		.2byte	0x130
 10345 2b8f 08       		.byte	0x8
 10346 2b90 39       		.uleb128 0x39
 10347 2b91 9C030000 		.4byte	.LASF86
 10348 2b95 9C030000 		.4byte	.LASF86
 10349 2b99 05       		.byte	0x5
 10350 2b9a 71       		.byte	0x71
 10351 2b9b 09       		.byte	0x9
 10352 2b9c 39       		.uleb128 0x39
 10353 2b9d 50050000 		.4byte	.LASF87
 10354 2ba1 50050000 		.4byte	.LASF87
 10355 2ba5 05       		.byte	0x5
 10356 2ba6 72       		.byte	0x72
 10357 2ba7 09       		.byte	0x9
 10358 2ba8 39       		.uleb128 0x39
 10359 2ba9 57010000 		.4byte	.LASF88
 10360 2bad 57010000 		.4byte	.LASF88
 10361 2bb1 05       		.byte	0x5
 10362 2bb2 74       		.byte	0x74
 10363 2bb3 09       		.byte	0x9
 10364 2bb4 39       		.uleb128 0x39
 10365 2bb5 1C050000 		.4byte	.LASF89
 10366 2bb9 1C050000 		.4byte	.LASF89
 10367 2bbd 05       		.byte	0x5
 10368 2bbe 6D       		.byte	0x6d
 10369 2bbf 08       		.byte	0x8
 10370 2bc0 39       		.uleb128 0x39
 10371 2bc1 7E000000 		.4byte	.LASF90
 10372 2bc5 7E000000 		.4byte	.LASF90
 10373 2bc9 05       		.byte	0x5
 10374 2bca 75       		.byte	0x75
 10375 2bcb 09       		.byte	0x9
 10376 2bcc 39       		.uleb128 0x39
 10377 2bcd CE040000 		.4byte	.LASF91
 10378 2bd1 CE040000 		.4byte	.LASF91
 10379 2bd5 05       		.byte	0x5
ARM GAS  /tmp/ccTMtxXw.s 			page 184


 10380 2bd6 77       		.byte	0x77
 10381 2bd7 09       		.byte	0x9
 10382 2bd8 39       		.uleb128 0x39
 10383 2bd9 6F000000 		.4byte	.LASF92
 10384 2bdd 6F000000 		.4byte	.LASF92
 10385 2be1 05       		.byte	0x5
 10386 2be2 6C       		.byte	0x6c
 10387 2be3 08       		.byte	0x8
 10388 2be4 39       		.uleb128 0x39
 10389 2be5 66010000 		.4byte	.LASF93
 10390 2be9 66010000 		.4byte	.LASF93
 10391 2bed 05       		.byte	0x5
 10392 2bee 6E       		.byte	0x6e
 10393 2bef 08       		.byte	0x8
 10394 2bf0 3A       		.uleb128 0x3a
 10395 2bf1 F6050000 		.4byte	.LASF94
 10396 2bf5 F6050000 		.4byte	.LASF94
 10397 2bf9 0F       		.byte	0xf
 10398 2bfa 3A01     		.2byte	0x13a
 10399 2bfc 08       		.byte	0x8
 10400 2bfd 3A       		.uleb128 0x3a
 10401 2bfe 40040000 		.4byte	.LASF95
 10402 2c02 40040000 		.4byte	.LASF95
 10403 2c06 0F       		.byte	0xf
 10404 2c07 3101     		.2byte	0x131
 10405 2c09 08       		.byte	0x8
 10406 2c0a 00       		.byte	0
 10407              		.section	.debug_abbrev,"",%progbits
 10408              	.Ldebug_abbrev0:
 10409 0000 01       		.uleb128 0x1
 10410 0001 11       		.uleb128 0x11
 10411 0002 01       		.byte	0x1
 10412 0003 25       		.uleb128 0x25
 10413 0004 0E       		.uleb128 0xe
 10414 0005 13       		.uleb128 0x13
 10415 0006 0B       		.uleb128 0xb
 10416 0007 03       		.uleb128 0x3
 10417 0008 0E       		.uleb128 0xe
 10418 0009 1B       		.uleb128 0x1b
 10419 000a 0E       		.uleb128 0xe
 10420 000b 55       		.uleb128 0x55
 10421 000c 17       		.uleb128 0x17
 10422 000d 11       		.uleb128 0x11
 10423 000e 01       		.uleb128 0x1
 10424 000f 10       		.uleb128 0x10
 10425 0010 17       		.uleb128 0x17
 10426 0011 00       		.byte	0
 10427 0012 00       		.byte	0
 10428 0013 02       		.uleb128 0x2
 10429 0014 24       		.uleb128 0x24
 10430 0015 00       		.byte	0
 10431 0016 0B       		.uleb128 0xb
 10432 0017 0B       		.uleb128 0xb
 10433 0018 3E       		.uleb128 0x3e
 10434 0019 0B       		.uleb128 0xb
 10435 001a 03       		.uleb128 0x3
 10436 001b 08       		.uleb128 0x8
ARM GAS  /tmp/ccTMtxXw.s 			page 185


 10437 001c 00       		.byte	0
 10438 001d 00       		.byte	0
 10439 001e 03       		.uleb128 0x3
 10440 001f 16       		.uleb128 0x16
 10441 0020 00       		.byte	0
 10442 0021 03       		.uleb128 0x3
 10443 0022 0E       		.uleb128 0xe
 10444 0023 3A       		.uleb128 0x3a
 10445 0024 0B       		.uleb128 0xb
 10446 0025 3B       		.uleb128 0x3b
 10447 0026 0B       		.uleb128 0xb
 10448 0027 39       		.uleb128 0x39
 10449 0028 0B       		.uleb128 0xb
 10450 0029 49       		.uleb128 0x49
 10451 002a 13       		.uleb128 0x13
 10452 002b 00       		.byte	0
 10453 002c 00       		.byte	0
 10454 002d 04       		.uleb128 0x4
 10455 002e 24       		.uleb128 0x24
 10456 002f 00       		.byte	0
 10457 0030 0B       		.uleb128 0xb
 10458 0031 0B       		.uleb128 0xb
 10459 0032 3E       		.uleb128 0x3e
 10460 0033 0B       		.uleb128 0xb
 10461 0034 03       		.uleb128 0x3
 10462 0035 0E       		.uleb128 0xe
 10463 0036 00       		.byte	0
 10464 0037 00       		.byte	0
 10465 0038 05       		.uleb128 0x5
 10466 0039 26       		.uleb128 0x26
 10467 003a 00       		.byte	0
 10468 003b 49       		.uleb128 0x49
 10469 003c 13       		.uleb128 0x13
 10470 003d 00       		.byte	0
 10471 003e 00       		.byte	0
 10472 003f 06       		.uleb128 0x6
 10473 0040 0F       		.uleb128 0xf
 10474 0041 00       		.byte	0
 10475 0042 0B       		.uleb128 0xb
 10476 0043 0B       		.uleb128 0xb
 10477 0044 49       		.uleb128 0x49
 10478 0045 13       		.uleb128 0x13
 10479 0046 00       		.byte	0
 10480 0047 00       		.byte	0
 10481 0048 07       		.uleb128 0x7
 10482 0049 13       		.uleb128 0x13
 10483 004a 01       		.byte	0x1
 10484 004b 03       		.uleb128 0x3
 10485 004c 0E       		.uleb128 0xe
 10486 004d 0B       		.uleb128 0xb
 10487 004e 0B       		.uleb128 0xb
 10488 004f 3A       		.uleb128 0x3a
 10489 0050 0B       		.uleb128 0xb
 10490 0051 3B       		.uleb128 0x3b
 10491 0052 0B       		.uleb128 0xb
 10492 0053 39       		.uleb128 0x39
 10493 0054 0B       		.uleb128 0xb
ARM GAS  /tmp/ccTMtxXw.s 			page 186


 10494 0055 01       		.uleb128 0x1
 10495 0056 13       		.uleb128 0x13
 10496 0057 00       		.byte	0
 10497 0058 00       		.byte	0
 10498 0059 08       		.uleb128 0x8
 10499 005a 0D       		.uleb128 0xd
 10500 005b 00       		.byte	0
 10501 005c 03       		.uleb128 0x3
 10502 005d 0E       		.uleb128 0xe
 10503 005e 3A       		.uleb128 0x3a
 10504 005f 0B       		.uleb128 0xb
 10505 0060 3B       		.uleb128 0x3b
 10506 0061 0B       		.uleb128 0xb
 10507 0062 39       		.uleb128 0x39
 10508 0063 0B       		.uleb128 0xb
 10509 0064 49       		.uleb128 0x49
 10510 0065 13       		.uleb128 0x13
 10511 0066 38       		.uleb128 0x38
 10512 0067 0B       		.uleb128 0xb
 10513 0068 00       		.byte	0
 10514 0069 00       		.byte	0
 10515 006a 09       		.uleb128 0x9
 10516 006b 0F       		.uleb128 0xf
 10517 006c 00       		.byte	0
 10518 006d 0B       		.uleb128 0xb
 10519 006e 0B       		.uleb128 0xb
 10520 006f 00       		.byte	0
 10521 0070 00       		.byte	0
 10522 0071 0A       		.uleb128 0xa
 10523 0072 13       		.uleb128 0x13
 10524 0073 01       		.byte	0x1
 10525 0074 0B       		.uleb128 0xb
 10526 0075 0B       		.uleb128 0xb
 10527 0076 3A       		.uleb128 0x3a
 10528 0077 0B       		.uleb128 0xb
 10529 0078 3B       		.uleb128 0x3b
 10530 0079 0B       		.uleb128 0xb
 10531 007a 39       		.uleb128 0x39
 10532 007b 0B       		.uleb128 0xb
 10533 007c 01       		.uleb128 0x1
 10534 007d 13       		.uleb128 0x13
 10535 007e 00       		.byte	0
 10536 007f 00       		.byte	0
 10537 0080 0B       		.uleb128 0xb
 10538 0081 0D       		.uleb128 0xd
 10539 0082 00       		.byte	0
 10540 0083 03       		.uleb128 0x3
 10541 0084 08       		.uleb128 0x8
 10542 0085 3A       		.uleb128 0x3a
 10543 0086 0B       		.uleb128 0xb
 10544 0087 3B       		.uleb128 0x3b
 10545 0088 0B       		.uleb128 0xb
 10546 0089 39       		.uleb128 0x39
 10547 008a 0B       		.uleb128 0xb
 10548 008b 49       		.uleb128 0x49
 10549 008c 13       		.uleb128 0x13
 10550 008d 38       		.uleb128 0x38
ARM GAS  /tmp/ccTMtxXw.s 			page 187


 10551 008e 0B       		.uleb128 0xb
 10552 008f 00       		.byte	0
 10553 0090 00       		.byte	0
 10554 0091 0C       		.uleb128 0xc
 10555 0092 15       		.uleb128 0x15
 10556 0093 01       		.byte	0x1
 10557 0094 27       		.uleb128 0x27
 10558 0095 19       		.uleb128 0x19
 10559 0096 49       		.uleb128 0x49
 10560 0097 13       		.uleb128 0x13
 10561 0098 01       		.uleb128 0x1
 10562 0099 13       		.uleb128 0x13
 10563 009a 00       		.byte	0
 10564 009b 00       		.byte	0
 10565 009c 0D       		.uleb128 0xd
 10566 009d 05       		.uleb128 0x5
 10567 009e 00       		.byte	0
 10568 009f 49       		.uleb128 0x49
 10569 00a0 13       		.uleb128 0x13
 10570 00a1 00       		.byte	0
 10571 00a2 00       		.byte	0
 10572 00a3 0E       		.uleb128 0xe
 10573 00a4 01       		.uleb128 0x1
 10574 00a5 01       		.byte	0x1
 10575 00a6 49       		.uleb128 0x49
 10576 00a7 13       		.uleb128 0x13
 10577 00a8 01       		.uleb128 0x1
 10578 00a9 13       		.uleb128 0x13
 10579 00aa 00       		.byte	0
 10580 00ab 00       		.byte	0
 10581 00ac 0F       		.uleb128 0xf
 10582 00ad 21       		.uleb128 0x21
 10583 00ae 00       		.byte	0
 10584 00af 49       		.uleb128 0x49
 10585 00b0 13       		.uleb128 0x13
 10586 00b1 2F       		.uleb128 0x2f
 10587 00b2 0B       		.uleb128 0xb
 10588 00b3 00       		.byte	0
 10589 00b4 00       		.byte	0
 10590 00b5 10       		.uleb128 0x10
 10591 00b6 15       		.uleb128 0x15
 10592 00b7 00       		.byte	0
 10593 00b8 27       		.uleb128 0x27
 10594 00b9 19       		.uleb128 0x19
 10595 00ba 00       		.byte	0
 10596 00bb 00       		.byte	0
 10597 00bc 11       		.uleb128 0x11
 10598 00bd 34       		.uleb128 0x34
 10599 00be 00       		.byte	0
 10600 00bf 03       		.uleb128 0x3
 10601 00c0 0E       		.uleb128 0xe
 10602 00c1 3A       		.uleb128 0x3a
 10603 00c2 0B       		.uleb128 0xb
 10604 00c3 3B       		.uleb128 0x3b
 10605 00c4 05       		.uleb128 0x5
 10606 00c5 39       		.uleb128 0x39
 10607 00c6 0B       		.uleb128 0xb
ARM GAS  /tmp/ccTMtxXw.s 			page 188


 10608 00c7 49       		.uleb128 0x49
 10609 00c8 13       		.uleb128 0x13
 10610 00c9 3F       		.uleb128 0x3f
 10611 00ca 19       		.uleb128 0x19
 10612 00cb 3C       		.uleb128 0x3c
 10613 00cc 19       		.uleb128 0x19
 10614 00cd 00       		.byte	0
 10615 00ce 00       		.byte	0
 10616 00cf 12       		.uleb128 0x12
 10617 00d0 34       		.uleb128 0x34
 10618 00d1 00       		.byte	0
 10619 00d2 03       		.uleb128 0x3
 10620 00d3 0E       		.uleb128 0xe
 10621 00d4 3A       		.uleb128 0x3a
 10622 00d5 0B       		.uleb128 0xb
 10623 00d6 3B       		.uleb128 0x3b
 10624 00d7 0B       		.uleb128 0xb
 10625 00d8 39       		.uleb128 0x39
 10626 00d9 0B       		.uleb128 0xb
 10627 00da 49       		.uleb128 0x49
 10628 00db 13       		.uleb128 0x13
 10629 00dc 3F       		.uleb128 0x3f
 10630 00dd 19       		.uleb128 0x19
 10631 00de 3C       		.uleb128 0x3c
 10632 00df 19       		.uleb128 0x19
 10633 00e0 00       		.byte	0
 10634 00e1 00       		.byte	0
 10635 00e2 13       		.uleb128 0x13
 10636 00e3 34       		.uleb128 0x34
 10637 00e4 00       		.byte	0
 10638 00e5 03       		.uleb128 0x3
 10639 00e6 0E       		.uleb128 0xe
 10640 00e7 3A       		.uleb128 0x3a
 10641 00e8 0B       		.uleb128 0xb
 10642 00e9 3B       		.uleb128 0x3b
 10643 00ea 0B       		.uleb128 0xb
 10644 00eb 39       		.uleb128 0x39
 10645 00ec 0B       		.uleb128 0xb
 10646 00ed 49       		.uleb128 0x49
 10647 00ee 13       		.uleb128 0x13
 10648 00ef 02       		.uleb128 0x2
 10649 00f0 18       		.uleb128 0x18
 10650 00f1 00       		.byte	0
 10651 00f2 00       		.byte	0
 10652 00f3 14       		.uleb128 0x14
 10653 00f4 34       		.uleb128 0x34
 10654 00f5 00       		.byte	0
 10655 00f6 03       		.uleb128 0x3
 10656 00f7 08       		.uleb128 0x8
 10657 00f8 3A       		.uleb128 0x3a
 10658 00f9 0B       		.uleb128 0xb
 10659 00fa 3B       		.uleb128 0x3b
 10660 00fb 0B       		.uleb128 0xb
 10661 00fc 39       		.uleb128 0x39
 10662 00fd 0B       		.uleb128 0xb
 10663 00fe 49       		.uleb128 0x49
 10664 00ff 13       		.uleb128 0x13
ARM GAS  /tmp/ccTMtxXw.s 			page 189


 10665 0100 02       		.uleb128 0x2
 10666 0101 18       		.uleb128 0x18
 10667 0102 00       		.byte	0
 10668 0103 00       		.byte	0
 10669 0104 15       		.uleb128 0x15
 10670 0105 34       		.uleb128 0x34
 10671 0106 00       		.byte	0
 10672 0107 03       		.uleb128 0x3
 10673 0108 0E       		.uleb128 0xe
 10674 0109 3A       		.uleb128 0x3a
 10675 010a 0B       		.uleb128 0xb
 10676 010b 3B       		.uleb128 0x3b
 10677 010c 05       		.uleb128 0x5
 10678 010d 39       		.uleb128 0x39
 10679 010e 0B       		.uleb128 0xb
 10680 010f 49       		.uleb128 0x49
 10681 0110 13       		.uleb128 0x13
 10682 0111 02       		.uleb128 0x2
 10683 0112 18       		.uleb128 0x18
 10684 0113 00       		.byte	0
 10685 0114 00       		.byte	0
 10686 0115 16       		.uleb128 0x16
 10687 0116 34       		.uleb128 0x34
 10688 0117 00       		.byte	0
 10689 0118 03       		.uleb128 0x3
 10690 0119 0E       		.uleb128 0xe
 10691 011a 3A       		.uleb128 0x3a
 10692 011b 0B       		.uleb128 0xb
 10693 011c 3B       		.uleb128 0x3b
 10694 011d 05       		.uleb128 0x5
 10695 011e 39       		.uleb128 0x39
 10696 011f 0B       		.uleb128 0xb
 10697 0120 49       		.uleb128 0x49
 10698 0121 13       		.uleb128 0x13
 10699 0122 3F       		.uleb128 0x3f
 10700 0123 19       		.uleb128 0x19
 10701 0124 02       		.uleb128 0x2
 10702 0125 18       		.uleb128 0x18
 10703 0126 00       		.byte	0
 10704 0127 00       		.byte	0
 10705 0128 17       		.uleb128 0x17
 10706 0129 34       		.uleb128 0x34
 10707 012a 00       		.byte	0
 10708 012b 47       		.uleb128 0x47
 10709 012c 13       		.uleb128 0x13
 10710 012d 3A       		.uleb128 0x3a
 10711 012e 0B       		.uleb128 0xb
 10712 012f 3B       		.uleb128 0x3b
 10713 0130 05       		.uleb128 0x5
 10714 0131 39       		.uleb128 0x39
 10715 0132 0B       		.uleb128 0xb
 10716 0133 02       		.uleb128 0x2
 10717 0134 18       		.uleb128 0x18
 10718 0135 00       		.byte	0
 10719 0136 00       		.byte	0
 10720 0137 18       		.uleb128 0x18
 10721 0138 2E       		.uleb128 0x2e
ARM GAS  /tmp/ccTMtxXw.s 			page 190


 10722 0139 01       		.byte	0x1
 10723 013a 03       		.uleb128 0x3
 10724 013b 0E       		.uleb128 0xe
 10725 013c 3A       		.uleb128 0x3a
 10726 013d 0B       		.uleb128 0xb
 10727 013e 3B       		.uleb128 0x3b
 10728 013f 05       		.uleb128 0x5
 10729 0140 39       		.uleb128 0x39
 10730 0141 0B       		.uleb128 0xb
 10731 0142 27       		.uleb128 0x27
 10732 0143 19       		.uleb128 0x19
 10733 0144 11       		.uleb128 0x11
 10734 0145 01       		.uleb128 0x1
 10735 0146 12       		.uleb128 0x12
 10736 0147 06       		.uleb128 0x6
 10737 0148 40       		.uleb128 0x40
 10738 0149 18       		.uleb128 0x18
 10739 014a 9742     		.uleb128 0x2117
 10740 014c 19       		.uleb128 0x19
 10741 014d 01       		.uleb128 0x1
 10742 014e 13       		.uleb128 0x13
 10743 014f 00       		.byte	0
 10744 0150 00       		.byte	0
 10745 0151 19       		.uleb128 0x19
 10746 0152 34       		.uleb128 0x34
 10747 0153 00       		.byte	0
 10748 0154 03       		.uleb128 0x3
 10749 0155 0E       		.uleb128 0xe
 10750 0156 3A       		.uleb128 0x3a
 10751 0157 0B       		.uleb128 0xb
 10752 0158 3B       		.uleb128 0x3b
 10753 0159 05       		.uleb128 0x5
 10754 015a 39       		.uleb128 0x39
 10755 015b 0B       		.uleb128 0xb
 10756 015c 49       		.uleb128 0x49
 10757 015d 13       		.uleb128 0x13
 10758 015e 02       		.uleb128 0x2
 10759 015f 17       		.uleb128 0x17
 10760 0160 B742     		.uleb128 0x2137
 10761 0162 17       		.uleb128 0x17
 10762 0163 00       		.byte	0
 10763 0164 00       		.byte	0
 10764 0165 1A       		.uleb128 0x1a
 10765 0166 34       		.uleb128 0x34
 10766 0167 00       		.byte	0
 10767 0168 03       		.uleb128 0x3
 10768 0169 08       		.uleb128 0x8
 10769 016a 3A       		.uleb128 0x3a
 10770 016b 0B       		.uleb128 0xb
 10771 016c 3B       		.uleb128 0x3b
 10772 016d 05       		.uleb128 0x5
 10773 016e 39       		.uleb128 0x39
 10774 016f 0B       		.uleb128 0xb
 10775 0170 49       		.uleb128 0x49
 10776 0171 13       		.uleb128 0x13
 10777 0172 02       		.uleb128 0x2
 10778 0173 17       		.uleb128 0x17
ARM GAS  /tmp/ccTMtxXw.s 			page 191


 10779 0174 B742     		.uleb128 0x2137
 10780 0176 17       		.uleb128 0x17
 10781 0177 00       		.byte	0
 10782 0178 00       		.byte	0
 10783 0179 1B       		.uleb128 0x1b
 10784 017a 1D       		.uleb128 0x1d
 10785 017b 01       		.byte	0x1
 10786 017c 31       		.uleb128 0x31
 10787 017d 13       		.uleb128 0x13
 10788 017e 52       		.uleb128 0x52
 10789 017f 01       		.uleb128 0x1
 10790 0180 B842     		.uleb128 0x2138
 10791 0182 05       		.uleb128 0x5
 10792 0183 55       		.uleb128 0x55
 10793 0184 17       		.uleb128 0x17
 10794 0185 58       		.uleb128 0x58
 10795 0186 0B       		.uleb128 0xb
 10796 0187 59       		.uleb128 0x59
 10797 0188 05       		.uleb128 0x5
 10798 0189 57       		.uleb128 0x57
 10799 018a 0B       		.uleb128 0xb
 10800 018b 01       		.uleb128 0x1
 10801 018c 13       		.uleb128 0x13
 10802 018d 00       		.byte	0
 10803 018e 00       		.byte	0
 10804 018f 1C       		.uleb128 0x1c
 10805 0190 1D       		.uleb128 0x1d
 10806 0191 01       		.byte	0x1
 10807 0192 31       		.uleb128 0x31
 10808 0193 13       		.uleb128 0x13
 10809 0194 52       		.uleb128 0x52
 10810 0195 01       		.uleb128 0x1
 10811 0196 B842     		.uleb128 0x2138
 10812 0198 05       		.uleb128 0x5
 10813 0199 55       		.uleb128 0x55
 10814 019a 17       		.uleb128 0x17
 10815 019b 58       		.uleb128 0x58
 10816 019c 0B       		.uleb128 0xb
 10817 019d 59       		.uleb128 0x59
 10818 019e 05       		.uleb128 0x5
 10819 019f 57       		.uleb128 0x57
 10820 01a0 0B       		.uleb128 0xb
 10821 01a1 00       		.byte	0
 10822 01a2 00       		.byte	0
 10823 01a3 1D       		.uleb128 0x1d
 10824 01a4 1D       		.uleb128 0x1d
 10825 01a5 01       		.byte	0x1
 10826 01a6 31       		.uleb128 0x31
 10827 01a7 13       		.uleb128 0x13
 10828 01a8 52       		.uleb128 0x52
 10829 01a9 01       		.uleb128 0x1
 10830 01aa B842     		.uleb128 0x2138
 10831 01ac 05       		.uleb128 0x5
 10832 01ad 11       		.uleb128 0x11
 10833 01ae 01       		.uleb128 0x1
 10834 01af 12       		.uleb128 0x12
 10835 01b0 06       		.uleb128 0x6
ARM GAS  /tmp/ccTMtxXw.s 			page 192


 10836 01b1 58       		.uleb128 0x58
 10837 01b2 0B       		.uleb128 0xb
 10838 01b3 59       		.uleb128 0x59
 10839 01b4 05       		.uleb128 0x5
 10840 01b5 57       		.uleb128 0x57
 10841 01b6 0B       		.uleb128 0xb
 10842 01b7 00       		.byte	0
 10843 01b8 00       		.byte	0
 10844 01b9 1E       		.uleb128 0x1e
 10845 01ba 05       		.uleb128 0x5
 10846 01bb 00       		.byte	0
 10847 01bc 31       		.uleb128 0x31
 10848 01bd 13       		.uleb128 0x13
 10849 01be 02       		.uleb128 0x2
 10850 01bf 17       		.uleb128 0x17
 10851 01c0 B742     		.uleb128 0x2137
 10852 01c2 17       		.uleb128 0x17
 10853 01c3 00       		.byte	0
 10854 01c4 00       		.byte	0
 10855 01c5 1F       		.uleb128 0x1f
 10856 01c6 0B       		.uleb128 0xb
 10857 01c7 01       		.byte	0x1
 10858 01c8 55       		.uleb128 0x55
 10859 01c9 17       		.uleb128 0x17
 10860 01ca 00       		.byte	0
 10861 01cb 00       		.byte	0
 10862 01cc 20       		.uleb128 0x20
 10863 01cd 898201   		.uleb128 0x4109
 10864 01d0 01       		.byte	0x1
 10865 01d1 11       		.uleb128 0x11
 10866 01d2 01       		.uleb128 0x1
 10867 01d3 31       		.uleb128 0x31
 10868 01d4 13       		.uleb128 0x13
 10869 01d5 01       		.uleb128 0x1
 10870 01d6 13       		.uleb128 0x13
 10871 01d7 00       		.byte	0
 10872 01d8 00       		.byte	0
 10873 01d9 21       		.uleb128 0x21
 10874 01da 8A8201   		.uleb128 0x410a
 10875 01dd 00       		.byte	0
 10876 01de 02       		.uleb128 0x2
 10877 01df 18       		.uleb128 0x18
 10878 01e0 9142     		.uleb128 0x2111
 10879 01e2 18       		.uleb128 0x18
 10880 01e3 00       		.byte	0
 10881 01e4 00       		.byte	0
 10882 01e5 22       		.uleb128 0x22
 10883 01e6 898201   		.uleb128 0x4109
 10884 01e9 01       		.byte	0x1
 10885 01ea 11       		.uleb128 0x11
 10886 01eb 01       		.uleb128 0x1
 10887 01ec 31       		.uleb128 0x31
 10888 01ed 13       		.uleb128 0x13
 10889 01ee 00       		.byte	0
 10890 01ef 00       		.byte	0
 10891 01f0 23       		.uleb128 0x23
 10892 01f1 2E       		.uleb128 0x2e
ARM GAS  /tmp/ccTMtxXw.s 			page 193


 10893 01f2 00       		.byte	0
 10894 01f3 03       		.uleb128 0x3
 10895 01f4 0E       		.uleb128 0xe
 10896 01f5 3A       		.uleb128 0x3a
 10897 01f6 0B       		.uleb128 0xb
 10898 01f7 3B       		.uleb128 0x3b
 10899 01f8 05       		.uleb128 0x5
 10900 01f9 39       		.uleb128 0x39
 10901 01fa 0B       		.uleb128 0xb
 10902 01fb 27       		.uleb128 0x27
 10903 01fc 19       		.uleb128 0x19
 10904 01fd 00       		.byte	0
 10905 01fe 00       		.byte	0
 10906 01ff 24       		.uleb128 0x24
 10907 0200 2E       		.uleb128 0x2e
 10908 0201 01       		.byte	0x1
 10909 0202 03       		.uleb128 0x3
 10910 0203 0E       		.uleb128 0xe
 10911 0204 3A       		.uleb128 0x3a
 10912 0205 0B       		.uleb128 0xb
 10913 0206 3B       		.uleb128 0x3b
 10914 0207 0B       		.uleb128 0xb
 10915 0208 39       		.uleb128 0x39
 10916 0209 0B       		.uleb128 0xb
 10917 020a 27       		.uleb128 0x27
 10918 020b 19       		.uleb128 0x19
 10919 020c 20       		.uleb128 0x20
 10920 020d 0B       		.uleb128 0xb
 10921 020e 01       		.uleb128 0x1
 10922 020f 13       		.uleb128 0x13
 10923 0210 00       		.byte	0
 10924 0211 00       		.byte	0
 10925 0212 25       		.uleb128 0x25
 10926 0213 34       		.uleb128 0x34
 10927 0214 00       		.byte	0
 10928 0215 03       		.uleb128 0x3
 10929 0216 0E       		.uleb128 0xe
 10930 0217 3A       		.uleb128 0x3a
 10931 0218 0B       		.uleb128 0xb
 10932 0219 3B       		.uleb128 0x3b
 10933 021a 0B       		.uleb128 0xb
 10934 021b 39       		.uleb128 0x39
 10935 021c 0B       		.uleb128 0xb
 10936 021d 49       		.uleb128 0x49
 10937 021e 13       		.uleb128 0x13
 10938 021f 00       		.byte	0
 10939 0220 00       		.byte	0
 10940 0221 26       		.uleb128 0x26
 10941 0222 34       		.uleb128 0x34
 10942 0223 00       		.byte	0
 10943 0224 03       		.uleb128 0x3
 10944 0225 08       		.uleb128 0x8
 10945 0226 3A       		.uleb128 0x3a
 10946 0227 0B       		.uleb128 0xb
 10947 0228 3B       		.uleb128 0x3b
 10948 0229 0B       		.uleb128 0xb
 10949 022a 39       		.uleb128 0x39
ARM GAS  /tmp/ccTMtxXw.s 			page 194


 10950 022b 0B       		.uleb128 0xb
 10951 022c 49       		.uleb128 0x49
 10952 022d 13       		.uleb128 0x13
 10953 022e 00       		.byte	0
 10954 022f 00       		.byte	0
 10955 0230 27       		.uleb128 0x27
 10956 0231 2E       		.uleb128 0x2e
 10957 0232 00       		.byte	0
 10958 0233 03       		.uleb128 0x3
 10959 0234 0E       		.uleb128 0xe
 10960 0235 3A       		.uleb128 0x3a
 10961 0236 0B       		.uleb128 0xb
 10962 0237 3B       		.uleb128 0x3b
 10963 0238 0B       		.uleb128 0xb
 10964 0239 39       		.uleb128 0x39
 10965 023a 0B       		.uleb128 0xb
 10966 023b 27       		.uleb128 0x27
 10967 023c 19       		.uleb128 0x19
 10968 023d 00       		.byte	0
 10969 023e 00       		.byte	0
 10970 023f 28       		.uleb128 0x28
 10971 0240 2E       		.uleb128 0x2e
 10972 0241 00       		.byte	0
 10973 0242 03       		.uleb128 0x3
 10974 0243 0E       		.uleb128 0xe
 10975 0244 3A       		.uleb128 0x3a
 10976 0245 0B       		.uleb128 0xb
 10977 0246 3B       		.uleb128 0x3b
 10978 0247 0B       		.uleb128 0xb
 10979 0248 39       		.uleb128 0x39
 10980 0249 0B       		.uleb128 0xb
 10981 024a 27       		.uleb128 0x27
 10982 024b 19       		.uleb128 0x19
 10983 024c 20       		.uleb128 0x20
 10984 024d 0B       		.uleb128 0xb
 10985 024e 00       		.byte	0
 10986 024f 00       		.byte	0
 10987 0250 29       		.uleb128 0x29
 10988 0251 2E       		.uleb128 0x2e
 10989 0252 00       		.byte	0
 10990 0253 03       		.uleb128 0x3
 10991 0254 0E       		.uleb128 0xe
 10992 0255 3A       		.uleb128 0x3a
 10993 0256 0B       		.uleb128 0xb
 10994 0257 3B       		.uleb128 0x3b
 10995 0258 05       		.uleb128 0x5
 10996 0259 39       		.uleb128 0x39
 10997 025a 0B       		.uleb128 0xb
 10998 025b 27       		.uleb128 0x27
 10999 025c 19       		.uleb128 0x19
 11000 025d 20       		.uleb128 0x20
 11001 025e 0B       		.uleb128 0xb
 11002 025f 00       		.byte	0
 11003 0260 00       		.byte	0
 11004 0261 2A       		.uleb128 0x2a
 11005 0262 05       		.uleb128 0x5
 11006 0263 00       		.byte	0
ARM GAS  /tmp/ccTMtxXw.s 			page 195


 11007 0264 03       		.uleb128 0x3
 11008 0265 08       		.uleb128 0x8
 11009 0266 3A       		.uleb128 0x3a
 11010 0267 0B       		.uleb128 0xb
 11011 0268 3B       		.uleb128 0x3b
 11012 0269 0B       		.uleb128 0xb
 11013 026a 39       		.uleb128 0x39
 11014 026b 0B       		.uleb128 0xb
 11015 026c 49       		.uleb128 0x49
 11016 026d 13       		.uleb128 0x13
 11017 026e 00       		.byte	0
 11018 026f 00       		.byte	0
 11019 0270 2B       		.uleb128 0x2b
 11020 0271 2E       		.uleb128 0x2e
 11021 0272 01       		.byte	0x1
 11022 0273 03       		.uleb128 0x3
 11023 0274 0E       		.uleb128 0xe
 11024 0275 3A       		.uleb128 0x3a
 11025 0276 0B       		.uleb128 0xb
 11026 0277 3B       		.uleb128 0x3b
 11027 0278 0B       		.uleb128 0xb
 11028 0279 39       		.uleb128 0x39
 11029 027a 0B       		.uleb128 0xb
 11030 027b 27       		.uleb128 0x27
 11031 027c 19       		.uleb128 0x19
 11032 027d 49       		.uleb128 0x49
 11033 027e 13       		.uleb128 0x13
 11034 027f 20       		.uleb128 0x20
 11035 0280 0B       		.uleb128 0xb
 11036 0281 01       		.uleb128 0x1
 11037 0282 13       		.uleb128 0x13
 11038 0283 00       		.byte	0
 11039 0284 00       		.byte	0
 11040 0285 2C       		.uleb128 0x2c
 11041 0286 2E       		.uleb128 0x2e
 11042 0287 01       		.byte	0x1
 11043 0288 03       		.uleb128 0x3
 11044 0289 0E       		.uleb128 0xe
 11045 028a 3A       		.uleb128 0x3a
 11046 028b 0B       		.uleb128 0xb
 11047 028c 3B       		.uleb128 0x3b
 11048 028d 05       		.uleb128 0x5
 11049 028e 39       		.uleb128 0x39
 11050 028f 0B       		.uleb128 0xb
 11051 0290 27       		.uleb128 0x27
 11052 0291 19       		.uleb128 0x19
 11053 0292 20       		.uleb128 0x20
 11054 0293 0B       		.uleb128 0xb
 11055 0294 01       		.uleb128 0x1
 11056 0295 13       		.uleb128 0x13
 11057 0296 00       		.byte	0
 11058 0297 00       		.byte	0
 11059 0298 2D       		.uleb128 0x2d
 11060 0299 34       		.uleb128 0x34
 11061 029a 00       		.byte	0
 11062 029b 03       		.uleb128 0x3
 11063 029c 0E       		.uleb128 0xe
ARM GAS  /tmp/ccTMtxXw.s 			page 196


 11064 029d 49       		.uleb128 0x49
 11065 029e 13       		.uleb128 0x13
 11066 029f 34       		.uleb128 0x34
 11067 02a0 19       		.uleb128 0x19
 11068 02a1 00       		.byte	0
 11069 02a2 00       		.byte	0
 11070 02a3 2E       		.uleb128 0x2e
 11071 02a4 05       		.uleb128 0x5
 11072 02a5 00       		.byte	0
 11073 02a6 03       		.uleb128 0x3
 11074 02a7 0E       		.uleb128 0xe
 11075 02a8 3A       		.uleb128 0x3a
 11076 02a9 0B       		.uleb128 0xb
 11077 02aa 3B       		.uleb128 0x3b
 11078 02ab 05       		.uleb128 0x5
 11079 02ac 39       		.uleb128 0x39
 11080 02ad 0B       		.uleb128 0xb
 11081 02ae 49       		.uleb128 0x49
 11082 02af 13       		.uleb128 0x13
 11083 02b0 00       		.byte	0
 11084 02b1 00       		.byte	0
 11085 02b2 2F       		.uleb128 0x2f
 11086 02b3 2E       		.uleb128 0x2e
 11087 02b4 01       		.byte	0x1
 11088 02b5 31       		.uleb128 0x31
 11089 02b6 13       		.uleb128 0x13
 11090 02b7 11       		.uleb128 0x11
 11091 02b8 01       		.uleb128 0x1
 11092 02b9 12       		.uleb128 0x12
 11093 02ba 06       		.uleb128 0x6
 11094 02bb 40       		.uleb128 0x40
 11095 02bc 18       		.uleb128 0x18
 11096 02bd 9742     		.uleb128 0x2117
 11097 02bf 19       		.uleb128 0x19
 11098 02c0 01       		.uleb128 0x1
 11099 02c1 13       		.uleb128 0x13
 11100 02c2 00       		.byte	0
 11101 02c3 00       		.byte	0
 11102 02c4 30       		.uleb128 0x30
 11103 02c5 898201   		.uleb128 0x4109
 11104 02c8 01       		.byte	0x1
 11105 02c9 11       		.uleb128 0x11
 11106 02ca 01       		.uleb128 0x1
 11107 02cb 9542     		.uleb128 0x2115
 11108 02cd 19       		.uleb128 0x19
 11109 02ce 31       		.uleb128 0x31
 11110 02cf 13       		.uleb128 0x13
 11111 02d0 00       		.byte	0
 11112 02d1 00       		.byte	0
 11113 02d2 31       		.uleb128 0x31
 11114 02d3 34       		.uleb128 0x34
 11115 02d4 00       		.byte	0
 11116 02d5 31       		.uleb128 0x31
 11117 02d6 13       		.uleb128 0x13
 11118 02d7 00       		.byte	0
 11119 02d8 00       		.byte	0
 11120 02d9 32       		.uleb128 0x32
ARM GAS  /tmp/ccTMtxXw.s 			page 197


 11121 02da 1D       		.uleb128 0x1d
 11122 02db 01       		.byte	0x1
 11123 02dc 31       		.uleb128 0x31
 11124 02dd 13       		.uleb128 0x13
 11125 02de 52       		.uleb128 0x52
 11126 02df 01       		.uleb128 0x1
 11127 02e0 B842     		.uleb128 0x2138
 11128 02e2 05       		.uleb128 0x5
 11129 02e3 55       		.uleb128 0x55
 11130 02e4 17       		.uleb128 0x17
 11131 02e5 58       		.uleb128 0x58
 11132 02e6 0B       		.uleb128 0xb
 11133 02e7 59       		.uleb128 0x59
 11134 02e8 0B       		.uleb128 0xb
 11135 02e9 57       		.uleb128 0x57
 11136 02ea 0B       		.uleb128 0xb
 11137 02eb 01       		.uleb128 0x1
 11138 02ec 13       		.uleb128 0x13
 11139 02ed 00       		.byte	0
 11140 02ee 00       		.byte	0
 11141 02ef 33       		.uleb128 0x33
 11142 02f0 1D       		.uleb128 0x1d
 11143 02f1 01       		.byte	0x1
 11144 02f2 31       		.uleb128 0x31
 11145 02f3 13       		.uleb128 0x13
 11146 02f4 52       		.uleb128 0x52
 11147 02f5 01       		.uleb128 0x1
 11148 02f6 B842     		.uleb128 0x2138
 11149 02f8 05       		.uleb128 0x5
 11150 02f9 11       		.uleb128 0x11
 11151 02fa 01       		.uleb128 0x1
 11152 02fb 12       		.uleb128 0x12
 11153 02fc 06       		.uleb128 0x6
 11154 02fd 58       		.uleb128 0x58
 11155 02fe 0B       		.uleb128 0xb
 11156 02ff 59       		.uleb128 0x59
 11157 0300 0B       		.uleb128 0xb
 11158 0301 57       		.uleb128 0x57
 11159 0302 0B       		.uleb128 0xb
 11160 0303 00       		.byte	0
 11161 0304 00       		.byte	0
 11162 0305 34       		.uleb128 0x34
 11163 0306 34       		.uleb128 0x34
 11164 0307 00       		.byte	0
 11165 0308 31       		.uleb128 0x31
 11166 0309 13       		.uleb128 0x13
 11167 030a 02       		.uleb128 0x2
 11168 030b 17       		.uleb128 0x17
 11169 030c B742     		.uleb128 0x2137
 11170 030e 17       		.uleb128 0x17
 11171 030f 00       		.byte	0
 11172 0310 00       		.byte	0
 11173 0311 35       		.uleb128 0x35
 11174 0312 34       		.uleb128 0x34
 11175 0313 00       		.byte	0
 11176 0314 31       		.uleb128 0x31
 11177 0315 13       		.uleb128 0x13
ARM GAS  /tmp/ccTMtxXw.s 			page 198


 11178 0316 02       		.uleb128 0x2
 11179 0317 18       		.uleb128 0x18
 11180 0318 00       		.byte	0
 11181 0319 00       		.byte	0
 11182 031a 36       		.uleb128 0x36
 11183 031b 1D       		.uleb128 0x1d
 11184 031c 01       		.byte	0x1
 11185 031d 31       		.uleb128 0x31
 11186 031e 13       		.uleb128 0x13
 11187 031f 52       		.uleb128 0x52
 11188 0320 01       		.uleb128 0x1
 11189 0321 B842     		.uleb128 0x2138
 11190 0323 05       		.uleb128 0x5
 11191 0324 11       		.uleb128 0x11
 11192 0325 01       		.uleb128 0x1
 11193 0326 12       		.uleb128 0x12
 11194 0327 06       		.uleb128 0x6
 11195 0328 58       		.uleb128 0x58
 11196 0329 0B       		.uleb128 0xb
 11197 032a 59       		.uleb128 0x59
 11198 032b 0B       		.uleb128 0xb
 11199 032c 57       		.uleb128 0x57
 11200 032d 0B       		.uleb128 0xb
 11201 032e 01       		.uleb128 0x1
 11202 032f 13       		.uleb128 0x13
 11203 0330 00       		.byte	0
 11204 0331 00       		.byte	0
 11205 0332 37       		.uleb128 0x37
 11206 0333 1D       		.uleb128 0x1d
 11207 0334 01       		.byte	0x1
 11208 0335 31       		.uleb128 0x31
 11209 0336 13       		.uleb128 0x13
 11210 0337 52       		.uleb128 0x52
 11211 0338 01       		.uleb128 0x1
 11212 0339 B842     		.uleb128 0x2138
 11213 033b 05       		.uleb128 0x5
 11214 033c 11       		.uleb128 0x11
 11215 033d 01       		.uleb128 0x1
 11216 033e 12       		.uleb128 0x12
 11217 033f 06       		.uleb128 0x6
 11218 0340 58       		.uleb128 0x58
 11219 0341 0B       		.uleb128 0xb
 11220 0342 59       		.uleb128 0x59
 11221 0343 05       		.uleb128 0x5
 11222 0344 57       		.uleb128 0x57
 11223 0345 0B       		.uleb128 0xb
 11224 0346 01       		.uleb128 0x1
 11225 0347 13       		.uleb128 0x13
 11226 0348 00       		.byte	0
 11227 0349 00       		.byte	0
 11228 034a 38       		.uleb128 0x38
 11229 034b 898201   		.uleb128 0x4109
 11230 034e 00       		.byte	0
 11231 034f 11       		.uleb128 0x11
 11232 0350 01       		.uleb128 0x1
 11233 0351 31       		.uleb128 0x31
 11234 0352 13       		.uleb128 0x13
ARM GAS  /tmp/ccTMtxXw.s 			page 199


 11235 0353 00       		.byte	0
 11236 0354 00       		.byte	0
 11237 0355 39       		.uleb128 0x39
 11238 0356 2E       		.uleb128 0x2e
 11239 0357 00       		.byte	0
 11240 0358 3F       		.uleb128 0x3f
 11241 0359 19       		.uleb128 0x19
 11242 035a 3C       		.uleb128 0x3c
 11243 035b 19       		.uleb128 0x19
 11244 035c 6E       		.uleb128 0x6e
 11245 035d 0E       		.uleb128 0xe
 11246 035e 03       		.uleb128 0x3
 11247 035f 0E       		.uleb128 0xe
 11248 0360 3A       		.uleb128 0x3a
 11249 0361 0B       		.uleb128 0xb
 11250 0362 3B       		.uleb128 0x3b
 11251 0363 0B       		.uleb128 0xb
 11252 0364 39       		.uleb128 0x39
 11253 0365 0B       		.uleb128 0xb
 11254 0366 00       		.byte	0
 11255 0367 00       		.byte	0
 11256 0368 3A       		.uleb128 0x3a
 11257 0369 2E       		.uleb128 0x2e
 11258 036a 00       		.byte	0
 11259 036b 3F       		.uleb128 0x3f
 11260 036c 19       		.uleb128 0x19
 11261 036d 3C       		.uleb128 0x3c
 11262 036e 19       		.uleb128 0x19
 11263 036f 6E       		.uleb128 0x6e
 11264 0370 0E       		.uleb128 0xe
 11265 0371 03       		.uleb128 0x3
 11266 0372 0E       		.uleb128 0xe
 11267 0373 3A       		.uleb128 0x3a
 11268 0374 0B       		.uleb128 0xb
 11269 0375 3B       		.uleb128 0x3b
 11270 0376 05       		.uleb128 0x5
 11271 0377 39       		.uleb128 0x39
 11272 0378 0B       		.uleb128 0xb
 11273 0379 00       		.byte	0
 11274 037a 00       		.byte	0
 11275 037b 00       		.byte	0
 11276              		.section	.debug_loc,"",%progbits
 11277              	.Ldebug_loc0:
 11278              	.LVUS0:
 11279 0000 00       		.uleb128 .LVU17
 11280 0001 00       		.uleb128 .LVU18
 11281 0002 00       		.uleb128 .LVU33
 11282 0003 00       		.uleb128 .LVU34
 11283 0004 00       		.uleb128 .LVU34
 11284 0005 00       		.uleb128 .LVU35
 11285 0006 00       		.uleb128 .LVU50
 11286 0007 00       		.uleb128 .LVU64
 11287 0008 00       		.uleb128 .LVU64
 11288 0009 00       		.uleb128 .LVU65
 11289 000a 00       		.uleb128 .LVU69
 11290 000b 00       		.uleb128 .LVU70
 11291 000c 00       		.uleb128 .LVU70
ARM GAS  /tmp/ccTMtxXw.s 			page 200


 11292 000d 00       		.uleb128 .LVU71
 11293 000e 00       		.uleb128 .LVU85
 11294 000f 00       		.uleb128 .LVU99
 11295 0010 00       		.uleb128 .LVU99
 11296 0011 00       		.uleb128 .LVU100
 11297 0012 00       		.uleb128 .LVU121
 11298 0013 00       		.uleb128 .LVU122
 11299 0014 00       		.uleb128 .LVU122
 11300 0015 00       		.uleb128 .LVU123
 11301 0016 00       		.uleb128 .LVU137
 11302 0017 00       		.uleb128 .LVU151
 11303 0018 00       		.uleb128 .LVU151
 11304 0019 00       		.uleb128 .LVU152
 11305              	.LLST0:
 11306 001a 1C000000 		.4byte	.LVL3
 11307 001e 20000000 		.4byte	.LVL4
 11308 0022 0100     		.2byte	0x1
 11309 0024 50       		.byte	0x50
 11310 0025 3E000000 		.4byte	.LVL7
 11311 0029 42000000 		.4byte	.LVL8
 11312 002d 0100     		.2byte	0x1
 11313 002f 50       		.byte	0x50
 11314 0030 42000000 		.4byte	.LVL8
 11315 0034 46000000 		.4byte	.LVL9
 11316 0038 0300     		.2byte	0x3
 11317 003a 70       		.byte	0x70
 11318 003b 7F       		.sleb128 -1
 11319 003c 9F       		.byte	0x9f
 11320 003d 64000000 		.4byte	.LVL13
 11321 0041 6C000000 		.4byte	.LVL15
 11322 0045 0100     		.2byte	0x1
 11323 0047 50       		.byte	0x50
 11324 0048 6C000000 		.4byte	.LVL15
 11325 004c 70000000 		.4byte	.LVL16
 11326 0050 0300     		.2byte	0x3
 11327 0052 70       		.byte	0x70
 11328 0053 7F       		.sleb128 -1
 11329 0054 9F       		.byte	0x9f
 11330 0055 86000000 		.4byte	.LVL18
 11331 0059 8A000000 		.4byte	.LVL19
 11332 005d 0100     		.2byte	0x1
 11333 005f 50       		.byte	0x50
 11334 0060 8A000000 		.4byte	.LVL19
 11335 0064 8E000000 		.4byte	.LVL20
 11336 0068 0300     		.2byte	0x3
 11337 006a 70       		.byte	0x70
 11338 006b 7F       		.sleb128 -1
 11339 006c 9F       		.byte	0x9f
 11340 006d A8000000 		.4byte	.LVL24
 11341 0071 B0000000 		.4byte	.LVL26
 11342 0075 0100     		.2byte	0x1
 11343 0077 50       		.byte	0x50
 11344 0078 B0000000 		.4byte	.LVL26
 11345 007c B4000000 		.4byte	.LVL27
 11346 0080 0300     		.2byte	0x3
 11347 0082 70       		.byte	0x70
 11348 0083 7F       		.sleb128 -1
ARM GAS  /tmp/ccTMtxXw.s 			page 201


 11349 0084 9F       		.byte	0x9f
 11350 0085 DE000000 		.4byte	.LVL31
 11351 0089 E2000000 		.4byte	.LVL32
 11352 008d 0100     		.2byte	0x1
 11353 008f 50       		.byte	0x50
 11354 0090 E2000000 		.4byte	.LVL32
 11355 0094 E6000000 		.4byte	.LVL33
 11356 0098 0300     		.2byte	0x3
 11357 009a 70       		.byte	0x70
 11358 009b 7F       		.sleb128 -1
 11359 009c 9F       		.byte	0x9f
 11360 009d 00010000 		.4byte	.LVL37
 11361 00a1 08010000 		.4byte	.LVL39
 11362 00a5 0100     		.2byte	0x1
 11363 00a7 50       		.byte	0x50
 11364 00a8 08010000 		.4byte	.LVL39
 11365 00ac 0C010000 		.4byte	.LVL40
 11366 00b0 0300     		.2byte	0x3
 11367 00b2 70       		.byte	0x70
 11368 00b3 7F       		.sleb128 -1
 11369 00b4 9F       		.byte	0x9f
 11370 00b5 00000000 		.4byte	0
 11371 00b9 00000000 		.4byte	0
 11372              	.LVUS1:
 11373 00bd 01       		.uleb128 .LVU13
 11374 00be 00       		.uleb128 .LVU15
 11375 00bf 00       		.uleb128 .LVU15
 11376 00c0 00       		.uleb128 .LVU20
 11377 00c1 00       		.uleb128 .LVU20
 11378 00c2 02       		.uleb128 .LVU23
 11379              	.LLST1:
 11380 00c3 0E000000 		.4byte	.LVL1
 11381 00c7 10000000 		.4byte	.LVL2
 11382 00cb 0200     		.2byte	0x2
 11383 00cd 30       		.byte	0x30
 11384 00ce 9F       		.byte	0x9f
 11385 00cf 10000000 		.4byte	.LVL2
 11386 00d3 26000000 		.4byte	.LVL5
 11387 00d7 0400     		.2byte	0x4
 11388 00d9 74       		.byte	0x74
 11389 00da BE7F     		.sleb128 -66
 11390 00dc 9F       		.byte	0x9f
 11391 00dd 26000000 		.4byte	.LVL5
 11392 00e1 2A000000 		.4byte	.LVL6
 11393 00e5 0400     		.2byte	0x4
 11394 00e7 74       		.byte	0x74
 11395 00e8 BD7F     		.sleb128 -67
 11396 00ea 9F       		.byte	0x9f
 11397 00eb 00000000 		.4byte	0
 11398 00ef 00000000 		.4byte	0
 11399              	.LVUS2:
 11400 00f3 06       		.uleb128 .LVU43
 11401 00f4 00       		.uleb128 .LVU45
 11402              	.LLST2:
 11403 00f5 56000000 		.4byte	.LVL11
 11404 00f9 5C000000 		.4byte	.LVL12
 11405 00fd 0300     		.2byte	0x3
ARM GAS  /tmp/ccTMtxXw.s 			page 202


 11406 00ff 08       		.byte	0x8
 11407 0100 30       		.byte	0x30
 11408 0101 9F       		.byte	0x9f
 11409 0102 00000000 		.4byte	0
 11410 0106 00000000 		.4byte	0
 11411              	.LVUS3:
 11412 010a 0A       		.uleb128 .LVU60
 11413 010b 00       		.uleb128 .LVU62
 11414              	.LLST3:
 11415 010c 64000000 		.4byte	.LVL13
 11416 0110 68000000 		.4byte	.LVL14
 11417 0114 0200     		.2byte	0x2
 11418 0116 30       		.byte	0x30
 11419 0117 9F       		.byte	0x9f
 11420 0118 00000000 		.4byte	0
 11421 011c 00000000 		.4byte	0
 11422              	.LVUS4:
 11423 0120 06       		.uleb128 .LVU78
 11424 0121 00       		.uleb128 .LVU80
 11425              	.LLST4:
 11426 0122 9C000000 		.4byte	.LVL22
 11427 0126 A0000000 		.4byte	.LVL23
 11428 012a 0300     		.2byte	0x3
 11429 012c 08       		.byte	0x8
 11430 012d 30       		.byte	0x30
 11431 012e 9F       		.byte	0x9f
 11432 012f 00000000 		.4byte	0
 11433 0133 00000000 		.4byte	0
 11434              	.LVUS5:
 11435 0137 0A       		.uleb128 .LVU95
 11436 0138 00       		.uleb128 .LVU97
 11437              	.LLST5:
 11438 0139 A8000000 		.4byte	.LVL24
 11439 013d AC000000 		.4byte	.LVL25
 11440 0141 0200     		.2byte	0x2
 11441 0143 30       		.byte	0x30
 11442 0144 9F       		.byte	0x9f
 11443 0145 00000000 		.4byte	0
 11444 0149 00000000 		.4byte	0
 11445              	.LVUS6:
 11446 014d 01       		.uleb128 .LVU109
 11447 014e 00       		.uleb128 .LVU115
 11448              	.LLST6:
 11449 014f CC000000 		.4byte	.LVL29
 11450 0153 DA000000 		.4byte	.LVL30
 11451 0157 0600     		.2byte	0x6
 11452 0159 03       		.byte	0x3
 11453 015a 00000000 		.4byte	mb1
 11454 015e 9F       		.byte	0x9f
 11455 015f 00000000 		.4byte	0
 11456 0163 00000000 		.4byte	0
 11457              	.LVUS7:
 11458 0167 06       		.uleb128 .LVU130
 11459 0168 00       		.uleb128 .LVU132
 11460              	.LLST7:
 11461 0169 F4000000 		.4byte	.LVL35
 11462 016d F8000000 		.4byte	.LVL36
ARM GAS  /tmp/ccTMtxXw.s 			page 203


 11463 0171 0300     		.2byte	0x3
 11464 0173 08       		.byte	0x8
 11465 0174 30       		.byte	0x30
 11466 0175 9F       		.byte	0x9f
 11467 0176 00000000 		.4byte	0
 11468 017a 00000000 		.4byte	0
 11469              	.LVUS8:
 11470 017e 0A       		.uleb128 .LVU147
 11471 017f 00       		.uleb128 .LVU149
 11472              	.LLST8:
 11473 0180 00010000 		.4byte	.LVL37
 11474 0184 04010000 		.4byte	.LVL38
 11475 0188 0200     		.2byte	0x2
 11476 018a 30       		.byte	0x30
 11477 018b 9F       		.byte	0x9f
 11478 018c 00000000 		.4byte	0
 11479 0190 00000000 		.4byte	0
 11480              	.LVUS9:
 11481 0194 07       		.uleb128 .LVU171
 11482 0195 00       		.uleb128 .LVU173
 11483              	.LLST9:
 11484 0196 0C000000 		.4byte	.LVL43
 11485 019a 12000000 		.4byte	.LVL44
 11486 019e 0300     		.2byte	0x3
 11487 01a0 08       		.byte	0x8
 11488 01a1 30       		.byte	0x30
 11489 01a2 9F       		.byte	0x9f
 11490 01a3 00000000 		.4byte	0
 11491 01a7 00000000 		.4byte	0
 11492              	.LVUS10:
 11493 01ab 04       		.uleb128 .LVU177
 11494 01ac 0D       		.uleb128 .LVU186
 11495              	.LLST10:
 11496 01ad 12000000 		.4byte	.LVL44
 11497 01b1 12000000 		.4byte	.LVL44
 11498 01b5 0600     		.2byte	0x6
 11499 01b7 03       		.byte	0x3
 11500 01b8 00000000 		.4byte	mb1
 11501 01bc 9F       		.byte	0x9f
 11502 01bd 00000000 		.4byte	0
 11503 01c1 00000000 		.4byte	0
 11504              	.LVUS11:
 11505 01c5 07       		.uleb128 .LVU180
 11506 01c6 09       		.uleb128 .LVU182
 11507              	.LLST11:
 11508 01c7 12000000 		.4byte	.LVL44
 11509 01cb 12000000 		.4byte	.LVL44
 11510 01cf 0600     		.2byte	0x6
 11511 01d1 03       		.byte	0x3
 11512 01d2 00000000 		.4byte	mb1
 11513 01d6 9F       		.byte	0x9f
 11514 01d7 00000000 		.4byte	0
 11515 01db 00000000 		.4byte	0
 11516              	.LVUS12:
 11517 01df 09       		.uleb128 .LVU182
 11518 01e0 0D       		.uleb128 .LVU186
 11519              	.LLST12:
ARM GAS  /tmp/ccTMtxXw.s 			page 204


 11520 01e1 12000000 		.4byte	.LVL44
 11521 01e5 12000000 		.4byte	.LVL44
 11522 01e9 0600     		.2byte	0x6
 11523 01eb 03       		.byte	0x3
 11524 01ec 00000000 		.4byte	mb1
 11525 01f0 9F       		.byte	0x9f
 11526 01f1 00000000 		.4byte	0
 11527 01f5 00000000 		.4byte	0
 11528              	.LVUS13:
 11529 01f9 0C       		.uleb128 .LVU204
 11530 01fa 00       		.uleb128 .LVU206
 11531              	.LLST13:
 11532 01fb 32000000 		.4byte	.LVL46
 11533 01ff 38000000 		.4byte	.LVL47
 11534 0203 0200     		.2byte	0x2
 11535 0205 30       		.byte	0x30
 11536 0206 9F       		.byte	0x9f
 11537 0207 00000000 		.4byte	0
 11538 020b 00000000 		.4byte	0
 11539              	.LVUS14:
 11540 020f 00       		.uleb128 .LVU448
 11541 0210 00       		.uleb128 .LVU462
 11542 0211 00       		.uleb128 .LVU481
 11543 0212 00       		.uleb128 .LVU495
 11544 0213 00       		.uleb128 .LVU626
 11545 0214 00       		.uleb128 .LVU640
 11546 0215 00       		.uleb128 .LVU660
 11547 0216 00       		.uleb128 .LVU661
 11548 0217 00       		.uleb128 .LVU665
 11549 0218 00       		.uleb128 .LVU666
 11550              	.LLST14:
 11551 0219 04010000 		.4byte	.LVL78
 11552 021d 0E010000 		.4byte	.LVL80
 11553 0221 0100     		.2byte	0x1
 11554 0223 50       		.byte	0x50
 11555 0224 32010000 		.4byte	.LVL84
 11556 0228 3A010000 		.4byte	.LVL86
 11557 022c 0100     		.2byte	0x1
 11558 022e 50       		.byte	0x50
 11559 022f D2010000 		.4byte	.LVL104
 11560 0233 DC010000 		.4byte	.LVL106
 11561 0237 0100     		.2byte	0x1
 11562 0239 50       		.byte	0x50
 11563 023a 16020000 		.4byte	.LVL111
 11564 023e 1A020000 		.4byte	.LVL112
 11565 0242 0100     		.2byte	0x1
 11566 0244 50       		.byte	0x50
 11567 0245 34020000 		.4byte	.LVL114
 11568 0249 38020000 		.4byte	.LVL115
 11569 024d 0100     		.2byte	0x1
 11570 024f 50       		.byte	0x50
 11571 0250 00000000 		.4byte	0
 11572 0254 00000000 		.4byte	0
 11573              	.LVUS15:
 11574 0258 01       		.uleb128 .LVU434
 11575 0259 00       		.uleb128 .LVU436
 11576 025a 00       		.uleb128 .LVU436
ARM GAS  /tmp/ccTMtxXw.s 			page 205


 11577 025b 02       		.uleb128 .LVU465
 11578 025c 01       		.uleb128 .LVU611
 11579 025d 00       		.uleb128 .LVU613
 11580 025e 00       		.uleb128 .LVU613
 11581 025f 01       		.uleb128 .LVU646
 11582 0260 01       		.uleb128 .LVU646
 11583 0261 00       		.uleb128 .LVU648
 11584 0262 00       		.uleb128 .LVU648
 11585 0263 01       		.uleb128 .LVU753
 11586 0264 00       		.uleb128 .LVU754
 11587 0265 00       		.uleb128 0
 11588              	.LLST15:
 11589 0266 F4000000 		.4byte	.LVL75
 11590 026a F8000000 		.4byte	.LVL76
 11591 026e 0200     		.2byte	0x2
 11592 0270 30       		.byte	0x30
 11593 0271 9F       		.byte	0x9f
 11594 0272 F8000000 		.4byte	.LVL76
 11595 0276 16010000 		.4byte	.LVL81
 11596 027a 0400     		.2byte	0x4
 11597 027c 78       		.byte	0x78
 11598 027d BE7F     		.sleb128 -66
 11599 027f 9F       		.byte	0x9f
 11600 0280 C4010000 		.4byte	.LVL101
 11601 0284 C6010000 		.4byte	.LVL102
 11602 0288 0200     		.2byte	0x2
 11603 028a 30       		.byte	0x30
 11604 028b 9F       		.byte	0x9f
 11605 028c C6010000 		.4byte	.LVL102
 11606 0290 F2010000 		.4byte	.LVL108
 11607 0294 0500     		.2byte	0x5
 11608 0296 34       		.byte	0x34
 11609 0297 79       		.byte	0x79
 11610 0298 00       		.sleb128 0
 11611 0299 1C       		.byte	0x1c
 11612 029a 9F       		.byte	0x9f
 11613 029b F2010000 		.4byte	.LVL108
 11614 029f F6010000 		.4byte	.LVL109
 11615 02a3 0500     		.2byte	0x5
 11616 02a5 35       		.byte	0x35
 11617 02a6 79       		.byte	0x79
 11618 02a7 00       		.sleb128 0
 11619 02a8 1C       		.byte	0x1c
 11620 02a9 9F       		.byte	0x9f
 11621 02aa F6010000 		.4byte	.LVL109
 11622 02ae AA020000 		.4byte	.LVL127
 11623 02b2 0500     		.2byte	0x5
 11624 02b4 34       		.byte	0x34
 11625 02b5 79       		.byte	0x79
 11626 02b6 00       		.sleb128 0
 11627 02b7 1C       		.byte	0x1c
 11628 02b8 9F       		.byte	0x9f
 11629 02b9 AC020000 		.4byte	.LVL128
 11630 02bd E8020000 		.4byte	.LFE409
 11631 02c1 0500     		.2byte	0x5
 11632 02c3 34       		.byte	0x34
 11633 02c4 79       		.byte	0x79
ARM GAS  /tmp/ccTMtxXw.s 			page 206


 11634 02c5 00       		.sleb128 0
 11635 02c6 1C       		.byte	0x1c
 11636 02c7 9F       		.byte	0x9f
 11637 02c8 00000000 		.4byte	0
 11638 02cc 00000000 		.4byte	0
 11639              	.LVUS16:
 11640 02d0 0D       		.uleb128 .LVU222
 11641 02d1 00       		.uleb128 .LVU224
 11642              	.LLST16:
 11643 02d2 3E000000 		.4byte	.LVL48
 11644 02d6 44000000 		.4byte	.LVL49
 11645 02da 0200     		.2byte	0x2
 11646 02dc 30       		.byte	0x30
 11647 02dd 9F       		.byte	0x9f
 11648 02de 00000000 		.4byte	0
 11649 02e2 00000000 		.4byte	0
 11650              	.LVUS17:
 11651 02e6 05       		.uleb128 .LVU234
 11652 02e7 00       		.uleb128 .LVU236
 11653              	.LLST17:
 11654 02e8 48000000 		.4byte	.LVL50
 11655 02ec 4C000000 		.4byte	.LVL51
 11656 02f0 0300     		.2byte	0x3
 11657 02f2 08       		.byte	0x8
 11658 02f3 30       		.byte	0x30
 11659 02f4 9F       		.byte	0x9f
 11660 02f5 00000000 		.4byte	0
 11661 02f9 00000000 		.4byte	0
 11662              	.LVUS18:
 11663 02fd 0A       		.uleb128 .LVU250
 11664 02fe 00       		.uleb128 .LVU252
 11665              	.LLST18:
 11666 02ff 52000000 		.4byte	.LVL52
 11667 0303 56000000 		.4byte	.LVL53
 11668 0307 0200     		.2byte	0x2
 11669 0309 30       		.byte	0x30
 11670 030a 9F       		.byte	0x9f
 11671 030b 00000000 		.4byte	0
 11672 030f 00000000 		.4byte	0
 11673              	.LVUS19:
 11674 0313 08       		.uleb128 .LVU260
 11675 0314 00       		.uleb128 .LVU262
 11676              	.LLST19:
 11677 0315 56000000 		.4byte	.LVL53
 11678 0319 5A000000 		.4byte	.LVL54
 11679 031d 0300     		.2byte	0x3
 11680 031f 08       		.byte	0x8
 11681 0320 30       		.byte	0x30
 11682 0321 9F       		.byte	0x9f
 11683 0322 00000000 		.4byte	0
 11684 0326 00000000 		.4byte	0
 11685              	.LVUS20:
 11686 032a 04       		.uleb128 .LVU266
 11687 032b 0D       		.uleb128 .LVU275
 11688              	.LLST20:
 11689 032c 5A000000 		.4byte	.LVL54
 11690 0330 5A000000 		.4byte	.LVL54
ARM GAS  /tmp/ccTMtxXw.s 			page 207


 11691 0334 0600     		.2byte	0x6
 11692 0336 03       		.byte	0x3
 11693 0337 00000000 		.4byte	mb1
 11694 033b 9F       		.byte	0x9f
 11695 033c 00000000 		.4byte	0
 11696 0340 00000000 		.4byte	0
 11697              	.LVUS21:
 11698 0344 07       		.uleb128 .LVU269
 11699 0345 09       		.uleb128 .LVU271
 11700              	.LLST21:
 11701 0346 5A000000 		.4byte	.LVL54
 11702 034a 5A000000 		.4byte	.LVL54
 11703 034e 0600     		.2byte	0x6
 11704 0350 03       		.byte	0x3
 11705 0351 00000000 		.4byte	mb1
 11706 0355 9F       		.byte	0x9f
 11707 0356 00000000 		.4byte	0
 11708 035a 00000000 		.4byte	0
 11709              	.LVUS22:
 11710 035e 09       		.uleb128 .LVU271
 11711 035f 0D       		.uleb128 .LVU275
 11712              	.LLST22:
 11713 0360 5A000000 		.4byte	.LVL54
 11714 0364 5A000000 		.4byte	.LVL54
 11715 0368 0600     		.2byte	0x6
 11716 036a 03       		.byte	0x3
 11717 036b 00000000 		.4byte	mb1
 11718 036f 9F       		.byte	0x9f
 11719 0370 00000000 		.4byte	0
 11720 0374 00000000 		.4byte	0
 11721              	.LVUS23:
 11722 0378 0C       		.uleb128 .LVU293
 11723 0379 00       		.uleb128 .LVU295
 11724              	.LLST23:
 11725 037a 7A000000 		.4byte	.LVL56
 11726 037e 7E000000 		.4byte	.LVL57
 11727 0382 0200     		.2byte	0x2
 11728 0384 30       		.byte	0x30
 11729 0385 9F       		.byte	0x9f
 11730 0386 00000000 		.4byte	0
 11731 038a 00000000 		.4byte	0
 11732              	.LVUS24:
 11733 038e 09       		.uleb128 .LVU304
 11734 038f 00       		.uleb128 .LVU306
 11735              	.LLST24:
 11736 0390 7E000000 		.4byte	.LVL57
 11737 0394 82000000 		.4byte	.LVL58
 11738 0398 0300     		.2byte	0x3
 11739 039a 08       		.byte	0x8
 11740 039b 30       		.byte	0x30
 11741 039c 9F       		.byte	0x9f
 11742 039d 00000000 		.4byte	0
 11743 03a1 00000000 		.4byte	0
 11744              	.LVUS25:
 11745 03a5 04       		.uleb128 .LVU310
 11746 03a6 07       		.uleb128 .LVU313
 11747              	.LLST25:
ARM GAS  /tmp/ccTMtxXw.s 			page 208


 11748 03a7 82000000 		.4byte	.LVL58
 11749 03ab 82000000 		.4byte	.LVL58
 11750 03af 0600     		.2byte	0x6
 11751 03b1 03       		.byte	0x3
 11752 03b2 00000000 		.4byte	mb1
 11753 03b6 9F       		.byte	0x9f
 11754 03b7 00000000 		.4byte	0
 11755 03bb 00000000 		.4byte	0
 11756              	.LVUS26:
 11757 03bf 0C       		.uleb128 .LVU327
 11758 03c0 00       		.uleb128 .LVU329
 11759              	.LLST26:
 11760 03c1 94000000 		.4byte	.LVL60
 11761 03c5 98000000 		.4byte	.LVL61
 11762 03c9 0200     		.2byte	0x2
 11763 03cb 30       		.byte	0x30
 11764 03cc 9F       		.byte	0x9f
 11765 03cd 00000000 		.4byte	0
 11766 03d1 00000000 		.4byte	0
 11767              	.LVUS27:
 11768 03d5 0C       		.uleb128 .LVU344
 11769 03d6 00       		.uleb128 .LVU346
 11770              	.LLST27:
 11771 03d7 9E000000 		.4byte	.LVL62
 11772 03db A2000000 		.4byte	.LVL63
 11773 03df 0200     		.2byte	0x2
 11774 03e1 30       		.byte	0x30
 11775 03e2 9F       		.byte	0x9f
 11776 03e3 00000000 		.4byte	0
 11777 03e7 00000000 		.4byte	0
 11778              	.LVUS28:
 11779 03eb 0C       		.uleb128 .LVU361
 11780 03ec 00       		.uleb128 .LVU363
 11781              	.LLST28:
 11782 03ed A8000000 		.4byte	.LVL64
 11783 03f1 AC000000 		.4byte	.LVL65
 11784 03f5 0200     		.2byte	0x2
 11785 03f7 30       		.byte	0x30
 11786 03f8 9F       		.byte	0x9f
 11787 03f9 00000000 		.4byte	0
 11788 03fd 00000000 		.4byte	0
 11789              	.LVUS29:
 11790 0401 09       		.uleb128 .LVU372
 11791 0402 00       		.uleb128 .LVU374
 11792              	.LLST29:
 11793 0403 AC000000 		.4byte	.LVL65
 11794 0407 B0000000 		.4byte	.LVL66
 11795 040b 0300     		.2byte	0x3
 11796 040d 08       		.byte	0x8
 11797 040e 30       		.byte	0x30
 11798 040f 9F       		.byte	0x9f
 11799 0410 00000000 		.4byte	0
 11800 0414 00000000 		.4byte	0
 11801              	.LVUS30:
 11802 0418 0C       		.uleb128 .LVU390
 11803 0419 00       		.uleb128 .LVU392
 11804              	.LLST30:
ARM GAS  /tmp/ccTMtxXw.s 			page 209


 11805 041a C8000000 		.4byte	.LVL68
 11806 041e CC000000 		.4byte	.LVL69
 11807 0422 0200     		.2byte	0x2
 11808 0424 30       		.byte	0x30
 11809 0425 9F       		.byte	0x9f
 11810 0426 00000000 		.4byte	0
 11811 042a 00000000 		.4byte	0
 11812              	.LVUS31:
 11813 042e 09       		.uleb128 .LVU401
 11814 042f 00       		.uleb128 .LVU403
 11815              	.LLST31:
 11816 0430 CC000000 		.4byte	.LVL69
 11817 0434 D0000000 		.4byte	.LVL70
 11818 0438 0300     		.2byte	0x3
 11819 043a 08       		.byte	0x8
 11820 043b 30       		.byte	0x30
 11821 043c 9F       		.byte	0x9f
 11822 043d 00000000 		.4byte	0
 11823 0441 00000000 		.4byte	0
 11824              	.LVUS32:
 11825 0445 0C       		.uleb128 .LVU419
 11826 0446 00       		.uleb128 .LVU421
 11827              	.LLST32:
 11828 0447 E6000000 		.4byte	.LVL72
 11829 044b EA000000 		.4byte	.LVL73
 11830 044f 0200     		.2byte	0x2
 11831 0451 30       		.byte	0x30
 11832 0452 9F       		.byte	0x9f
 11833 0453 00000000 		.4byte	0
 11834 0457 00000000 		.4byte	0
 11835              	.LVUS33:
 11836 045b 03       		.uleb128 .LVU424
 11837 045c 00       		.uleb128 .LVU429
 11838              	.LLST33:
 11839 045d EA000000 		.4byte	.LVL73
 11840 0461 F2000000 		.4byte	.LVL74
 11841 0465 0600     		.2byte	0x6
 11842 0467 03       		.byte	0x3
 11843 0468 00000000 		.4byte	mb1
 11844 046c 9F       		.byte	0x9f
 11845 046d 00000000 		.4byte	0
 11846 0471 00000000 		.4byte	0
 11847              	.LVUS34:
 11848 0475 05       		.uleb128 .LVU441
 11849 0476 00       		.uleb128 .LVU443
 11850              	.LLST34:
 11851 0477 F8000000 		.4byte	.LVL76
 11852 047b FC000000 		.4byte	.LVL77
 11853 047f 0300     		.2byte	0x3
 11854 0481 08       		.byte	0x8
 11855 0482 30       		.byte	0x30
 11856 0483 9F       		.byte	0x9f
 11857 0484 00000000 		.4byte	0
 11858 0488 00000000 		.4byte	0
 11859              	.LVUS35:
 11860 048c 0A       		.uleb128 .LVU458
 11861 048d 00       		.uleb128 .LVU460
ARM GAS  /tmp/ccTMtxXw.s 			page 210


 11862              	.LLST35:
 11863 048e 04010000 		.4byte	.LVL78
 11864 0492 0A010000 		.4byte	.LVL79
 11865 0496 0200     		.2byte	0x2
 11866 0498 30       		.byte	0x30
 11867 0499 9F       		.byte	0x9f
 11868 049a 00000000 		.4byte	0
 11869 049e 00000000 		.4byte	0
 11870              	.LVUS36:
 11871 04a2 05       		.uleb128 .LVU474
 11872 04a3 00       		.uleb128 .LVU476
 11873              	.LLST36:
 11874 04a4 26010000 		.4byte	.LVL82
 11875 04a8 2A010000 		.4byte	.LVL83
 11876 04ac 0300     		.2byte	0x3
 11877 04ae 08       		.byte	0x8
 11878 04af 30       		.byte	0x30
 11879 04b0 9F       		.byte	0x9f
 11880 04b1 00000000 		.4byte	0
 11881 04b5 00000000 		.4byte	0
 11882              	.LVUS37:
 11883 04b9 0A       		.uleb128 .LVU491
 11884 04ba 00       		.uleb128 .LVU493
 11885              	.LLST37:
 11886 04bb 32010000 		.4byte	.LVL84
 11887 04bf 36010000 		.4byte	.LVL85
 11888 04c3 0200     		.2byte	0x2
 11889 04c5 30       		.byte	0x30
 11890 04c6 9F       		.byte	0x9f
 11891 04c7 00000000 		.4byte	0
 11892 04cb 00000000 		.4byte	0
 11893              	.LVUS38:
 11894 04cf 07       		.uleb128 .LVU507
 11895 04d0 00       		.uleb128 .LVU509
 11896              	.LLST38:
 11897 04d1 52010000 		.4byte	.LVL88
 11898 04d5 56010000 		.4byte	.LVL89
 11899 04d9 0300     		.2byte	0x3
 11900 04db 08       		.byte	0x8
 11901 04dc 30       		.byte	0x30
 11902 04dd 9F       		.byte	0x9f
 11903 04de 00000000 		.4byte	0
 11904 04e2 00000000 		.4byte	0
 11905              	.LVUS39:
 11906 04e6 04       		.uleb128 .LVU513
 11907 04e7 0D       		.uleb128 .LVU522
 11908              	.LLST39:
 11909 04e8 56010000 		.4byte	.LVL89
 11910 04ec 56010000 		.4byte	.LVL89
 11911 04f0 0600     		.2byte	0x6
 11912 04f2 03       		.byte	0x3
 11913 04f3 00000000 		.4byte	mb1
 11914 04f7 9F       		.byte	0x9f
 11915 04f8 00000000 		.4byte	0
 11916 04fc 00000000 		.4byte	0
 11917              	.LVUS40:
 11918 0500 07       		.uleb128 .LVU516
ARM GAS  /tmp/ccTMtxXw.s 			page 211


 11919 0501 09       		.uleb128 .LVU518
 11920              	.LLST40:
 11921 0502 56010000 		.4byte	.LVL89
 11922 0506 56010000 		.4byte	.LVL89
 11923 050a 0600     		.2byte	0x6
 11924 050c 03       		.byte	0x3
 11925 050d 00000000 		.4byte	mb1
 11926 0511 9F       		.byte	0x9f
 11927 0512 00000000 		.4byte	0
 11928 0516 00000000 		.4byte	0
 11929              	.LVUS41:
 11930 051a 09       		.uleb128 .LVU518
 11931 051b 0D       		.uleb128 .LVU522
 11932              	.LLST41:
 11933 051c 56010000 		.4byte	.LVL89
 11934 0520 56010000 		.4byte	.LVL89
 11935 0524 0600     		.2byte	0x6
 11936 0526 03       		.byte	0x3
 11937 0527 00000000 		.4byte	mb1
 11938 052b 9F       		.byte	0x9f
 11939 052c 00000000 		.4byte	0
 11940 0530 00000000 		.4byte	0
 11941              	.LVUS42:
 11942 0534 0C       		.uleb128 .LVU537
 11943 0535 00       		.uleb128 .LVU539
 11944              	.LLST42:
 11945 0536 74010000 		.4byte	.LVL91
 11946 053a 78010000 		.4byte	.LVL92
 11947 053e 0200     		.2byte	0x2
 11948 0540 30       		.byte	0x30
 11949 0541 9F       		.byte	0x9f
 11950 0542 00000000 		.4byte	0
 11951 0546 00000000 		.4byte	0
 11952              	.LVUS43:
 11953 054a 09       		.uleb128 .LVU548
 11954 054b 00       		.uleb128 .LVU550
 11955              	.LLST43:
 11956 054c 78010000 		.4byte	.LVL92
 11957 0550 7C010000 		.4byte	.LVL93
 11958 0554 0300     		.2byte	0x3
 11959 0556 08       		.byte	0x8
 11960 0557 30       		.byte	0x30
 11961 0558 9F       		.byte	0x9f
 11962 0559 00000000 		.4byte	0
 11963 055d 00000000 		.4byte	0
 11964              	.LVUS44:
 11965 0561 04       		.uleb128 .LVU554
 11966 0562 07       		.uleb128 .LVU557
 11967              	.LLST44:
 11968 0563 7C010000 		.4byte	.LVL93
 11969 0567 7C010000 		.4byte	.LVL93
 11970 056b 0600     		.2byte	0x6
 11971 056d 03       		.byte	0x3
 11972 056e 00000000 		.4byte	mb1
 11973 0572 9F       		.byte	0x9f
 11974 0573 00000000 		.4byte	0
 11975 0577 00000000 		.4byte	0
ARM GAS  /tmp/ccTMtxXw.s 			page 212


 11976              	.LVUS45:
 11977 057b 0C       		.uleb128 .LVU571
 11978 057c 00       		.uleb128 .LVU573
 11979              	.LLST45:
 11980 057d 96010000 		.4byte	.LVL95
 11981 0581 9A010000 		.4byte	.LVL96
 11982 0585 0200     		.2byte	0x2
 11983 0587 30       		.byte	0x30
 11984 0588 9F       		.byte	0x9f
 11985 0589 00000000 		.4byte	0
 11986 058d 00000000 		.4byte	0
 11987              	.LVUS46:
 11988 0591 09       		.uleb128 .LVU582
 11989 0592 00       		.uleb128 .LVU584
 11990              	.LLST46:
 11991 0593 9A010000 		.4byte	.LVL96
 11992 0597 9E010000 		.4byte	.LVL97
 11993 059b 0300     		.2byte	0x3
 11994 059d 08       		.byte	0x8
 11995 059e 30       		.byte	0x30
 11996 059f 9F       		.byte	0x9f
 11997 05a0 00000000 		.4byte	0
 11998 05a4 00000000 		.4byte	0
 11999              	.LVUS47:
 12000 05a8 0C       		.uleb128 .LVU600
 12001 05a9 00       		.uleb128 .LVU602
 12002              	.LLST47:
 12003 05aa B6010000 		.4byte	.LVL99
 12004 05ae BA010000 		.4byte	.LVL100
 12005 05b2 0200     		.2byte	0x2
 12006 05b4 30       		.byte	0x30
 12007 05b5 9F       		.byte	0x9f
 12008 05b6 00000000 		.4byte	0
 12009 05ba 00000000 		.4byte	0
 12010              	.LVUS48:
 12011 05be 06       		.uleb128 .LVU619
 12012 05bf 00       		.uleb128 .LVU621
 12013              	.LLST48:
 12014 05c0 C6010000 		.4byte	.LVL102
 12015 05c4 CA010000 		.4byte	.LVL103
 12016 05c8 0300     		.2byte	0x3
 12017 05ca 08       		.byte	0x8
 12018 05cb 30       		.byte	0x30
 12019 05cc 9F       		.byte	0x9f
 12020 05cd 00000000 		.4byte	0
 12021 05d1 00000000 		.4byte	0
 12022              	.LVUS49:
 12023 05d5 0A       		.uleb128 .LVU636
 12024 05d6 00       		.uleb128 .LVU638
 12025              	.LLST49:
 12026 05d7 D2010000 		.4byte	.LVL104
 12027 05db D8010000 		.4byte	.LVL105
 12028 05df 0200     		.2byte	0x2
 12029 05e1 30       		.byte	0x30
 12030 05e2 9F       		.byte	0x9f
 12031 05e3 00000000 		.4byte	0
 12032 05e7 00000000 		.4byte	0
ARM GAS  /tmp/ccTMtxXw.s 			page 213


 12033              	.LVUS50:
 12034 05eb 07       		.uleb128 .LVU678
 12035 05ec 00       		.uleb128 .LVU680
 12036              	.LLST50:
 12037 05ed 4A020000 		.4byte	.LVL117
 12038 05f1 4E020000 		.4byte	.LVL118
 12039 05f5 0300     		.2byte	0x3
 12040 05f7 08       		.byte	0x8
 12041 05f8 30       		.byte	0x30
 12042 05f9 9F       		.byte	0x9f
 12043 05fa 00000000 		.4byte	0
 12044 05fe 00000000 		.4byte	0
 12045              	.LVUS51:
 12046 0602 04       		.uleb128 .LVU684
 12047 0603 0D       		.uleb128 .LVU693
 12048              	.LLST51:
 12049 0604 4E020000 		.4byte	.LVL118
 12050 0608 4E020000 		.4byte	.LVL118
 12051 060c 0600     		.2byte	0x6
 12052 060e 03       		.byte	0x3
 12053 060f 00000000 		.4byte	mb1
 12054 0613 9F       		.byte	0x9f
 12055 0614 00000000 		.4byte	0
 12056 0618 00000000 		.4byte	0
 12057              	.LVUS52:
 12058 061c 07       		.uleb128 .LVU687
 12059 061d 09       		.uleb128 .LVU689
 12060              	.LLST52:
 12061 061e 4E020000 		.4byte	.LVL118
 12062 0622 4E020000 		.4byte	.LVL118
 12063 0626 0600     		.2byte	0x6
 12064 0628 03       		.byte	0x3
 12065 0629 00000000 		.4byte	mb1
 12066 062d 9F       		.byte	0x9f
 12067 062e 00000000 		.4byte	0
 12068 0632 00000000 		.4byte	0
 12069              	.LVUS53:
 12070 0636 09       		.uleb128 .LVU689
 12071 0637 0D       		.uleb128 .LVU693
 12072              	.LLST53:
 12073 0638 4E020000 		.4byte	.LVL118
 12074 063c 4E020000 		.4byte	.LVL118
 12075 0640 0600     		.2byte	0x6
 12076 0642 03       		.byte	0x3
 12077 0643 00000000 		.4byte	mb1
 12078 0647 9F       		.byte	0x9f
 12079 0648 00000000 		.4byte	0
 12080 064c 00000000 		.4byte	0
 12081              	.LVUS54:
 12082 0650 0C       		.uleb128 .LVU711
 12083 0651 00       		.uleb128 .LVU713
 12084              	.LLST54:
 12085 0652 68020000 		.4byte	.LVL120
 12086 0656 6C020000 		.4byte	.LVL121
 12087 065a 0200     		.2byte	0x2
 12088 065c 30       		.byte	0x30
 12089 065d 9F       		.byte	0x9f
ARM GAS  /tmp/ccTMtxXw.s 			page 214


 12090 065e 00000000 		.4byte	0
 12091 0662 00000000 		.4byte	0
 12092              	.LVUS55:
 12093 0666 09       		.uleb128 .LVU722
 12094 0667 00       		.uleb128 .LVU724
 12095              	.LLST55:
 12096 0668 6C020000 		.4byte	.LVL121
 12097 066c 70020000 		.4byte	.LVL122
 12098 0670 0300     		.2byte	0x3
 12099 0672 08       		.byte	0x8
 12100 0673 30       		.byte	0x30
 12101 0674 9F       		.byte	0x9f
 12102 0675 00000000 		.4byte	0
 12103 0679 00000000 		.4byte	0
 12104              	.LVUS56:
 12105 067d 04       		.uleb128 .LVU728
 12106 067e 07       		.uleb128 .LVU731
 12107              	.LLST56:
 12108 067f 70020000 		.4byte	.LVL122
 12109 0683 70020000 		.4byte	.LVL122
 12110 0687 0600     		.2byte	0x6
 12111 0689 03       		.byte	0x3
 12112 068a 00000000 		.4byte	mb1
 12113 068e 9F       		.byte	0x9f
 12114 068f 00000000 		.4byte	0
 12115 0693 00000000 		.4byte	0
 12116              	.LVUS57:
 12117 0697 0C       		.uleb128 .LVU745
 12118 0698 00       		.uleb128 .LVU747
 12119              	.LLST57:
 12120 0699 80020000 		.4byte	.LVL124
 12121 069d 84020000 		.4byte	.LVL125
 12122 06a1 0200     		.2byte	0x2
 12123 06a3 30       		.byte	0x30
 12124 06a4 9F       		.byte	0x9f
 12125 06a5 00000000 		.4byte	0
 12126 06a9 00000000 		.4byte	0
 12127              	.LVUS58:
 12128 06ad 0C       		.uleb128 .LVU766
 12129 06ae 00       		.uleb128 .LVU768
 12130              	.LLST58:
 12131 06af AC020000 		.4byte	.LVL128
 12132 06b3 B0020000 		.4byte	.LVL129
 12133 06b7 0200     		.2byte	0x2
 12134 06b9 30       		.byte	0x30
 12135 06ba 9F       		.byte	0x9f
 12136 06bb 00000000 		.4byte	0
 12137 06bf 00000000 		.4byte	0
 12138              	.LVUS59:
 12139 06c3 07       		.uleb128 .LVU785
 12140 06c4 00       		.uleb128 .LVU787
 12141              	.LLST59:
 12142 06c5 0C000000 		.4byte	.LVL130
 12143 06c9 12000000 		.4byte	.LVL131
 12144 06cd 0300     		.2byte	0x3
 12145 06cf 08       		.byte	0x8
 12146 06d0 30       		.byte	0x30
ARM GAS  /tmp/ccTMtxXw.s 			page 215


 12147 06d1 9F       		.byte	0x9f
 12148 06d2 00000000 		.4byte	0
 12149 06d6 00000000 		.4byte	0
 12150              	.LVUS60:
 12151 06da 04       		.uleb128 .LVU791
 12152 06db 0D       		.uleb128 .LVU800
 12153              	.LLST60:
 12154 06dc 12000000 		.4byte	.LVL131
 12155 06e0 12000000 		.4byte	.LVL131
 12156 06e4 0600     		.2byte	0x6
 12157 06e6 03       		.byte	0x3
 12158 06e7 00000000 		.4byte	mb1
 12159 06eb 9F       		.byte	0x9f
 12160 06ec 00000000 		.4byte	0
 12161 06f0 00000000 		.4byte	0
 12162              	.LVUS61:
 12163 06f4 07       		.uleb128 .LVU794
 12164 06f5 09       		.uleb128 .LVU796
 12165              	.LLST61:
 12166 06f6 12000000 		.4byte	.LVL131
 12167 06fa 12000000 		.4byte	.LVL131
 12168 06fe 0600     		.2byte	0x6
 12169 0700 03       		.byte	0x3
 12170 0701 00000000 		.4byte	mb1
 12171 0705 9F       		.byte	0x9f
 12172 0706 00000000 		.4byte	0
 12173 070a 00000000 		.4byte	0
 12174              	.LVUS62:
 12175 070e 09       		.uleb128 .LVU796
 12176 070f 0D       		.uleb128 .LVU800
 12177              	.LLST62:
 12178 0710 12000000 		.4byte	.LVL131
 12179 0714 12000000 		.4byte	.LVL131
 12180 0718 0600     		.2byte	0x6
 12181 071a 03       		.byte	0x3
 12182 071b 00000000 		.4byte	mb1
 12183 071f 9F       		.byte	0x9f
 12184 0720 00000000 		.4byte	0
 12185 0724 00000000 		.4byte	0
 12186              	.LVUS63:
 12187 0728 0C       		.uleb128 .LVU818
 12188 0729 00       		.uleb128 .LVU820
 12189              	.LLST63:
 12190 072a 32000000 		.4byte	.LVL133
 12191 072e 38000000 		.4byte	.LVL134
 12192 0732 0200     		.2byte	0x2
 12193 0734 30       		.byte	0x30
 12194 0735 9F       		.byte	0x9f
 12195 0736 00000000 		.4byte	0
 12196 073a 00000000 		.4byte	0
 12197              	.LVUS64:
 12198 073e 00       		.uleb128 .LVU1023
 12199 073f 00       		.uleb128 .LVU1024
 12200 0740 00       		.uleb128 .LVU1024
 12201 0741 00       		.uleb128 .LVU1028
 12202 0742 00       		.uleb128 .LVU1028
 12203 0743 00       		.uleb128 .LVU1029
ARM GAS  /tmp/ccTMtxXw.s 			page 216


 12204 0744 00       		.uleb128 .LVU1029
 12205 0745 00       		.uleb128 .LVU1030
 12206 0746 00       		.uleb128 .LVU1034
 12207 0747 00       		.uleb128 .LVU1035
 12208 0748 00       		.uleb128 .LVU1035
 12209 0749 00       		.uleb128 .LVU1036
 12210 074a 00       		.uleb128 .LVU1053
 12211 074b 00       		.uleb128 .LVU1054
 12212 074c 00       		.uleb128 .LVU1064
 12213 074d 00       		.uleb128 .LVU1065
 12214 074e 00       		.uleb128 .LVU1201
 12215 074f 00       		.uleb128 .LVU1202
 12216 0750 00       		.uleb128 .LVU1220
 12217 0751 00       		.uleb128 .LVU1221
 12218 0752 00       		.uleb128 .LVU1225
 12219 0753 00       		.uleb128 .LVU1226
 12220              	.LLST64:
 12221 0754 F2000000 		.4byte	.LVL158
 12222 0758 F8000000 		.4byte	.LVL159
 12223 075c 0100     		.2byte	0x1
 12224 075e 50       		.byte	0x50
 12225 075f F8000000 		.4byte	.LVL159
 12226 0763 10010000 		.4byte	.LVL161
 12227 0767 0300     		.2byte	0x3
 12228 0769 75       		.byte	0x75
 12229 076a 7E       		.sleb128 -2
 12230 076b 9F       		.byte	0x9f
 12231 076c 10010000 		.4byte	.LVL161
 12232 0770 16010000 		.4byte	.LVL162
 12233 0774 0100     		.2byte	0x1
 12234 0776 50       		.byte	0x50
 12235 0777 16010000 		.4byte	.LVL162
 12236 077b 1D010000 		.4byte	.LVL163-1
 12237 077f 0300     		.2byte	0x3
 12238 0781 72       		.byte	0x72
 12239 0782 7E       		.sleb128 -2
 12240 0783 9F       		.byte	0x9f
 12241 0784 2E010000 		.4byte	.LVL164
 12242 0788 34010000 		.4byte	.LVL165
 12243 078c 0100     		.2byte	0x1
 12244 078e 50       		.byte	0x50
 12245 078f 34010000 		.4byte	.LVL165
 12246 0793 3B010000 		.4byte	.LVL166-1
 12247 0797 0300     		.2byte	0x3
 12248 0799 73       		.byte	0x73
 12249 079a 7E       		.sleb128 -2
 12250 079b 9F       		.byte	0x9f
 12251 079c 58010000 		.4byte	.LVL171
 12252 07a0 5C010000 		.4byte	.LVL172
 12253 07a4 0100     		.2byte	0x1
 12254 07a6 50       		.byte	0x50
 12255 07a7 7C010000 		.4byte	.LVL175
 12256 07ab 80010000 		.4byte	.LVL176
 12257 07af 0100     		.2byte	0x1
 12258 07b1 50       		.byte	0x50
 12259 07b2 22020000 		.4byte	.LVL195
 12260 07b6 26020000 		.4byte	.LVL196
ARM GAS  /tmp/ccTMtxXw.s 			page 217


 12261 07ba 0100     		.2byte	0x1
 12262 07bc 50       		.byte	0x50
 12263 07bd 5E020000 		.4byte	.LVL201
 12264 07c1 62020000 		.4byte	.LVL202
 12265 07c5 0100     		.2byte	0x1
 12266 07c7 50       		.byte	0x50
 12267 07c8 7C020000 		.4byte	.LVL204
 12268 07cc 80020000 		.4byte	.LVL205
 12269 07d0 0100     		.2byte	0x1
 12270 07d2 50       		.byte	0x50
 12271 07d3 00000000 		.4byte	0
 12272 07d7 00000000 		.4byte	0
 12273              	.LVUS65:
 12274 07db 01       		.uleb128 .LVU1049
 12275 07dc 00       		.uleb128 .LVU1051
 12276 07dd 00       		.uleb128 .LVU1051
 12277 07de 00       		.uleb128 .LVU1056
 12278 07df 00       		.uleb128 .LVU1056
 12279 07e0 02       		.uleb128 .LVU1059
 12280 07e1 01       		.uleb128 .LVU1197
 12281 07e2 00       		.uleb128 .LVU1199
 12282 07e3 00       		.uleb128 .LVU1199
 12283 07e4 01       		.uleb128 .LVU1208
 12284 07e5 01       		.uleb128 .LVU1208
 12285 07e6 00       		.uleb128 .LVU1210
 12286 07e7 00       		.uleb128 .LVU1210
 12287 07e8 01       		.uleb128 .LVU1313
 12288              	.LLST65:
 12289 07e9 4A010000 		.4byte	.LVL169
 12290 07ed 4C010000 		.4byte	.LVL170
 12291 07f1 0200     		.2byte	0x2
 12292 07f3 30       		.byte	0x30
 12293 07f4 9F       		.byte	0x9f
 12294 07f5 4C010000 		.4byte	.LVL170
 12295 07f9 62010000 		.4byte	.LVL173
 12296 07fd 0400     		.2byte	0x4
 12297 07ff 75       		.byte	0x75
 12298 0800 BE7F     		.sleb128 -66
 12299 0802 9F       		.byte	0x9f
 12300 0803 62010000 		.4byte	.LVL173
 12301 0807 66010000 		.4byte	.LVL174
 12302 080b 0400     		.2byte	0x4
 12303 080d 75       		.byte	0x75
 12304 080e BD7F     		.sleb128 -67
 12305 0810 9F       		.byte	0x9f
 12306 0811 14020000 		.4byte	.LVL193
 12307 0815 16020000 		.4byte	.LVL194
 12308 0819 0200     		.2byte	0x2
 12309 081b 30       		.byte	0x30
 12310 081c 9F       		.byte	0x9f
 12311 081d 16020000 		.4byte	.LVL194
 12312 0821 3C020000 		.4byte	.LVL198
 12313 0825 0500     		.2byte	0x5
 12314 0827 34       		.byte	0x34
 12315 0828 75       		.byte	0x75
 12316 0829 00       		.sleb128 0
 12317 082a 1C       		.byte	0x1c
ARM GAS  /tmp/ccTMtxXw.s 			page 218


 12318 082b 9F       		.byte	0x9f
 12319 082c 3C020000 		.4byte	.LVL198
 12320 0830 3E020000 		.4byte	.LVL199
 12321 0834 0500     		.2byte	0x5
 12322 0836 35       		.byte	0x35
 12323 0837 75       		.byte	0x75
 12324 0838 00       		.sleb128 0
 12325 0839 1C       		.byte	0x1c
 12326 083a 9F       		.byte	0x9f
 12327 083b 3E020000 		.4byte	.LVL199
 12328 083f FC020000 		.4byte	.LVL217
 12329 0843 0500     		.2byte	0x5
 12330 0845 34       		.byte	0x34
 12331 0846 75       		.byte	0x75
 12332 0847 00       		.sleb128 0
 12333 0848 1C       		.byte	0x1c
 12334 0849 9F       		.byte	0x9f
 12335 084a 00000000 		.4byte	0
 12336 084e 00000000 		.4byte	0
 12337              	.LVUS66:
 12338 0852 0D       		.uleb128 .LVU836
 12339 0853 00       		.uleb128 .LVU838
 12340              	.LLST66:
 12341 0854 3E000000 		.4byte	.LVL135
 12342 0858 44000000 		.4byte	.LVL136
 12343 085c 0200     		.2byte	0x2
 12344 085e 30       		.byte	0x30
 12345 085f 9F       		.byte	0x9f
 12346 0860 00000000 		.4byte	0
 12347 0864 00000000 		.4byte	0
 12348              	.LVUS67:
 12349 0868 07       		.uleb128 .LVU853
 12350 0869 00       		.uleb128 .LVU855
 12351              	.LLST67:
 12352 086a 4E000000 		.4byte	.LVL137
 12353 086e 52000000 		.4byte	.LVL138
 12354 0872 0300     		.2byte	0x3
 12355 0874 08       		.byte	0x8
 12356 0875 30       		.byte	0x30
 12357 0876 9F       		.byte	0x9f
 12358 0877 00000000 		.4byte	0
 12359 087b 00000000 		.4byte	0
 12360              	.LVUS68:
 12361 087f 04       		.uleb128 .LVU859
 12362 0880 0D       		.uleb128 .LVU868
 12363              	.LLST68:
 12364 0881 52000000 		.4byte	.LVL138
 12365 0885 52000000 		.4byte	.LVL138
 12366 0889 0600     		.2byte	0x6
 12367 088b 03       		.byte	0x3
 12368 088c 00000000 		.4byte	mb1
 12369 0890 9F       		.byte	0x9f
 12370 0891 00000000 		.4byte	0
 12371 0895 00000000 		.4byte	0
 12372              	.LVUS69:
 12373 0899 07       		.uleb128 .LVU862
 12374 089a 09       		.uleb128 .LVU864
ARM GAS  /tmp/ccTMtxXw.s 			page 219


 12375              	.LLST69:
 12376 089b 52000000 		.4byte	.LVL138
 12377 089f 52000000 		.4byte	.LVL138
 12378 08a3 0600     		.2byte	0x6
 12379 08a5 03       		.byte	0x3
 12380 08a6 00000000 		.4byte	mb1
 12381 08aa 9F       		.byte	0x9f
 12382 08ab 00000000 		.4byte	0
 12383 08af 00000000 		.4byte	0
 12384              	.LVUS70:
 12385 08b3 09       		.uleb128 .LVU864
 12386 08b4 0D       		.uleb128 .LVU868
 12387              	.LLST70:
 12388 08b5 52000000 		.4byte	.LVL138
 12389 08b9 52000000 		.4byte	.LVL138
 12390 08bd 0600     		.2byte	0x6
 12391 08bf 03       		.byte	0x3
 12392 08c0 00000000 		.4byte	mb1
 12393 08c4 9F       		.byte	0x9f
 12394 08c5 00000000 		.4byte	0
 12395 08c9 00000000 		.4byte	0
 12396              	.LVUS71:
 12397 08cd 0C       		.uleb128 .LVU886
 12398 08ce 00       		.uleb128 .LVU888
 12399              	.LLST71:
 12400 08cf 72000000 		.4byte	.LVL140
 12401 08d3 76000000 		.4byte	.LVL141
 12402 08d7 0200     		.2byte	0x2
 12403 08d9 30       		.byte	0x30
 12404 08da 9F       		.byte	0x9f
 12405 08db 00000000 		.4byte	0
 12406 08df 00000000 		.4byte	0
 12407              	.LVUS72:
 12408 08e3 09       		.uleb128 .LVU897
 12409 08e4 00       		.uleb128 .LVU899
 12410              	.LLST72:
 12411 08e5 76000000 		.4byte	.LVL141
 12412 08e9 7A000000 		.4byte	.LVL142
 12413 08ed 0300     		.2byte	0x3
 12414 08ef 08       		.byte	0x8
 12415 08f0 30       		.byte	0x30
 12416 08f1 9F       		.byte	0x9f
 12417 08f2 00000000 		.4byte	0
 12418 08f6 00000000 		.4byte	0
 12419              	.LVUS73:
 12420 08fa 04       		.uleb128 .LVU903
 12421 08fb 07       		.uleb128 .LVU906
 12422              	.LLST73:
 12423 08fc 7A000000 		.4byte	.LVL142
 12424 0900 7A000000 		.4byte	.LVL142
 12425 0904 0600     		.2byte	0x6
 12426 0906 03       		.byte	0x3
 12427 0907 00000000 		.4byte	mb1
 12428 090b 9F       		.byte	0x9f
 12429 090c 00000000 		.4byte	0
 12430 0910 00000000 		.4byte	0
 12431              	.LVUS74:
ARM GAS  /tmp/ccTMtxXw.s 			page 220


 12432 0914 0C       		.uleb128 .LVU920
 12433 0915 00       		.uleb128 .LVU922
 12434              	.LLST74:
 12435 0916 8C000000 		.4byte	.LVL144
 12436 091a 90000000 		.4byte	.LVL145
 12437 091e 0200     		.2byte	0x2
 12438 0920 30       		.byte	0x30
 12439 0921 9F       		.byte	0x9f
 12440 0922 00000000 		.4byte	0
 12441 0926 00000000 		.4byte	0
 12442              	.LVUS75:
 12443 092a 0C       		.uleb128 .LVU937
 12444 092b 00       		.uleb128 .LVU939
 12445              	.LLST75:
 12446 092c 96000000 		.4byte	.LVL146
 12447 0930 9A000000 		.4byte	.LVL147
 12448 0934 0200     		.2byte	0x2
 12449 0936 30       		.byte	0x30
 12450 0937 9F       		.byte	0x9f
 12451 0938 00000000 		.4byte	0
 12452 093c 00000000 		.4byte	0
 12453              	.LVUS76:
 12454 0940 0C       		.uleb128 .LVU954
 12455 0941 00       		.uleb128 .LVU956
 12456              	.LLST76:
 12457 0942 A0000000 		.4byte	.LVL148
 12458 0946 A4000000 		.4byte	.LVL149
 12459 094a 0200     		.2byte	0x2
 12460 094c 30       		.byte	0x30
 12461 094d 9F       		.byte	0x9f
 12462 094e 00000000 		.4byte	0
 12463 0952 00000000 		.4byte	0
 12464              	.LVUS77:
 12465 0956 09       		.uleb128 .LVU965
 12466 0957 00       		.uleb128 .LVU967
 12467              	.LLST77:
 12468 0958 A4000000 		.4byte	.LVL149
 12469 095c A8000000 		.4byte	.LVL150
 12470 0960 0300     		.2byte	0x3
 12471 0962 08       		.byte	0x8
 12472 0963 30       		.byte	0x30
 12473 0964 9F       		.byte	0x9f
 12474 0965 00000000 		.4byte	0
 12475 0969 00000000 		.4byte	0
 12476              	.LVUS78:
 12477 096d 0C       		.uleb128 .LVU983
 12478 096e 00       		.uleb128 .LVU985
 12479              	.LLST78:
 12480 096f C0000000 		.4byte	.LVL152
 12481 0973 C4000000 		.4byte	.LVL153
 12482 0977 0200     		.2byte	0x2
 12483 0979 30       		.byte	0x30
 12484 097a 9F       		.byte	0x9f
 12485 097b 00000000 		.4byte	0
 12486 097f 00000000 		.4byte	0
 12487              	.LVUS79:
 12488 0983 09       		.uleb128 .LVU994
ARM GAS  /tmp/ccTMtxXw.s 			page 221


 12489 0984 00       		.uleb128 .LVU996
 12490              	.LLST79:
 12491 0985 C4000000 		.4byte	.LVL153
 12492 0989 C8000000 		.4byte	.LVL154
 12493 098d 0300     		.2byte	0x3
 12494 098f 08       		.byte	0x8
 12495 0990 30       		.byte	0x30
 12496 0991 9F       		.byte	0x9f
 12497 0992 00000000 		.4byte	0
 12498 0996 00000000 		.4byte	0
 12499              	.LVUS80:
 12500 099a 0C       		.uleb128 .LVU1012
 12501 099b 00       		.uleb128 .LVU1014
 12502              	.LLST80:
 12503 099c DE000000 		.4byte	.LVL156
 12504 09a0 E2000000 		.4byte	.LVL157
 12505 09a4 0200     		.2byte	0x2
 12506 09a6 30       		.byte	0x30
 12507 09a7 9F       		.byte	0x9f
 12508 09a8 00000000 		.4byte	0
 12509 09ac 00000000 		.4byte	0
 12510              	.LVUS81:
 12511 09b0 02       		.uleb128 .LVU1039
 12512 09b1 00       		.uleb128 .LVU1044
 12513              	.LLST81:
 12514 09b2 42010000 		.4byte	.LVL167
 12515 09b6 48010000 		.4byte	.LVL168
 12516 09ba 0600     		.2byte	0x6
 12517 09bc 03       		.byte	0x3
 12518 09bd 00000000 		.4byte	mb1
 12519 09c1 9F       		.byte	0x9f
 12520 09c2 00000000 		.4byte	0
 12521 09c6 00000000 		.4byte	0
 12522              	.LVUS82:
 12523 09ca 07       		.uleb128 .LVU1077
 12524 09cb 00       		.uleb128 .LVU1079
 12525              	.LLST82:
 12526 09cc 94010000 		.4byte	.LVL178
 12527 09d0 9C010000 		.4byte	.LVL179
 12528 09d4 0300     		.2byte	0x3
 12529 09d6 08       		.byte	0x8
 12530 09d7 30       		.byte	0x30
 12531 09d8 9F       		.byte	0x9f
 12532 09d9 00000000 		.4byte	0
 12533 09dd 00000000 		.4byte	0
 12534              	.LVUS83:
 12535 09e1 04       		.uleb128 .LVU1083
 12536 09e2 0D       		.uleb128 .LVU1092
 12537              	.LLST83:
 12538 09e3 9C010000 		.4byte	.LVL179
 12539 09e7 9C010000 		.4byte	.LVL179
 12540 09eb 0600     		.2byte	0x6
 12541 09ed 03       		.byte	0x3
 12542 09ee 00000000 		.4byte	mb1
 12543 09f2 9F       		.byte	0x9f
 12544 09f3 00000000 		.4byte	0
 12545 09f7 00000000 		.4byte	0
ARM GAS  /tmp/ccTMtxXw.s 			page 222


 12546              	.LVUS84:
 12547 09fb 07       		.uleb128 .LVU1086
 12548 09fc 09       		.uleb128 .LVU1088
 12549              	.LLST84:
 12550 09fd 9C010000 		.4byte	.LVL179
 12551 0a01 9C010000 		.4byte	.LVL179
 12552 0a05 0600     		.2byte	0x6
 12553 0a07 03       		.byte	0x3
 12554 0a08 00000000 		.4byte	mb1
 12555 0a0c 9F       		.byte	0x9f
 12556 0a0d 00000000 		.4byte	0
 12557 0a11 00000000 		.4byte	0
 12558              	.LVUS85:
 12559 0a15 09       		.uleb128 .LVU1088
 12560 0a16 0D       		.uleb128 .LVU1092
 12561              	.LLST85:
 12562 0a17 9C010000 		.4byte	.LVL179
 12563 0a1b 9C010000 		.4byte	.LVL179
 12564 0a1f 0600     		.2byte	0x6
 12565 0a21 03       		.byte	0x3
 12566 0a22 00000000 		.4byte	mb1
 12567 0a26 9F       		.byte	0x9f
 12568 0a27 00000000 		.4byte	0
 12569 0a2b 00000000 		.4byte	0
 12570              	.LVUS86:
 12571 0a2f 0C       		.uleb128 .LVU1107
 12572 0a30 00       		.uleb128 .LVU1109
 12573              	.LLST86:
 12574 0a31 BC010000 		.4byte	.LVL181
 12575 0a35 C0010000 		.4byte	.LVL182
 12576 0a39 0200     		.2byte	0x2
 12577 0a3b 30       		.byte	0x30
 12578 0a3c 9F       		.byte	0x9f
 12579 0a3d 00000000 		.4byte	0
 12580 0a41 00000000 		.4byte	0
 12581              	.LVUS87:
 12582 0a45 09       		.uleb128 .LVU1118
 12583 0a46 00       		.uleb128 .LVU1120
 12584              	.LLST87:
 12585 0a47 C0010000 		.4byte	.LVL182
 12586 0a4b C4010000 		.4byte	.LVL183
 12587 0a4f 0300     		.2byte	0x3
 12588 0a51 08       		.byte	0x8
 12589 0a52 30       		.byte	0x30
 12590 0a53 9F       		.byte	0x9f
 12591 0a54 00000000 		.4byte	0
 12592 0a58 00000000 		.4byte	0
 12593              	.LVUS88:
 12594 0a5c 04       		.uleb128 .LVU1124
 12595 0a5d 07       		.uleb128 .LVU1127
 12596              	.LLST88:
 12597 0a5e C4010000 		.4byte	.LVL183
 12598 0a62 C4010000 		.4byte	.LVL183
 12599 0a66 0600     		.2byte	0x6
 12600 0a68 03       		.byte	0x3
 12601 0a69 00000000 		.4byte	mb1
 12602 0a6d 9F       		.byte	0x9f
ARM GAS  /tmp/ccTMtxXw.s 			page 223


 12603 0a6e 00000000 		.4byte	0
 12604 0a72 00000000 		.4byte	0
 12605              	.LVUS89:
 12606 0a76 0C       		.uleb128 .LVU1141
 12607 0a77 00       		.uleb128 .LVU1143
 12608              	.LLST89:
 12609 0a78 DC010000 		.4byte	.LVL185
 12610 0a7c E0010000 		.4byte	.LVL186
 12611 0a80 0200     		.2byte	0x2
 12612 0a82 30       		.byte	0x30
 12613 0a83 9F       		.byte	0x9f
 12614 0a84 00000000 		.4byte	0
 12615 0a88 00000000 		.4byte	0
 12616              	.LVUS90:
 12617 0a8c 0C       		.uleb128 .LVU1157
 12618 0a8d 00       		.uleb128 .LVU1159
 12619              	.LLST90:
 12620 0a8e E2010000 		.4byte	.LVL187
 12621 0a92 E6010000 		.4byte	.LVL188
 12622 0a96 0200     		.2byte	0x2
 12623 0a98 30       		.byte	0x30
 12624 0a99 9F       		.byte	0x9f
 12625 0a9a 00000000 		.4byte	0
 12626 0a9e 00000000 		.4byte	0
 12627              	.LVUS91:
 12628 0aa2 09       		.uleb128 .LVU1168
 12629 0aa3 00       		.uleb128 .LVU1170
 12630              	.LLST91:
 12631 0aa4 E6010000 		.4byte	.LVL188
 12632 0aa8 EA010000 		.4byte	.LVL189
 12633 0aac 0300     		.2byte	0x3
 12634 0aae 08       		.byte	0x8
 12635 0aaf 30       		.byte	0x30
 12636 0ab0 9F       		.byte	0x9f
 12637 0ab1 00000000 		.4byte	0
 12638 0ab5 00000000 		.4byte	0
 12639              	.LVUS92:
 12640 0ab9 0C       		.uleb128 .LVU1186
 12641 0aba 00       		.uleb128 .LVU1188
 12642              	.LLST92:
 12643 0abb 06020000 		.4byte	.LVL191
 12644 0abf 0A020000 		.4byte	.LVL192
 12645 0ac3 0200     		.2byte	0x2
 12646 0ac5 30       		.byte	0x30
 12647 0ac6 9F       		.byte	0x9f
 12648 0ac7 00000000 		.4byte	0
 12649 0acb 00000000 		.4byte	0
 12650              	.LVUS93:
 12651 0acf 07       		.uleb128 .LVU1238
 12652 0ad0 00       		.uleb128 .LVU1240
 12653              	.LLST93:
 12654 0ad1 92020000 		.4byte	.LVL207
 12655 0ad5 98020000 		.4byte	.LVL208
 12656 0ad9 0300     		.2byte	0x3
 12657 0adb 08       		.byte	0x8
 12658 0adc 30       		.byte	0x30
 12659 0add 9F       		.byte	0x9f
ARM GAS  /tmp/ccTMtxXw.s 			page 224


 12660 0ade 00000000 		.4byte	0
 12661 0ae2 00000000 		.4byte	0
 12662              	.LVUS94:
 12663 0ae6 04       		.uleb128 .LVU1244
 12664 0ae7 0D       		.uleb128 .LVU1253
 12665              	.LLST94:
 12666 0ae8 98020000 		.4byte	.LVL208
 12667 0aec 98020000 		.4byte	.LVL208
 12668 0af0 0600     		.2byte	0x6
 12669 0af2 03       		.byte	0x3
 12670 0af3 00000000 		.4byte	mb1
 12671 0af7 9F       		.byte	0x9f
 12672 0af8 00000000 		.4byte	0
 12673 0afc 00000000 		.4byte	0
 12674              	.LVUS95:
 12675 0b00 07       		.uleb128 .LVU1247
 12676 0b01 09       		.uleb128 .LVU1249
 12677              	.LLST95:
 12678 0b02 98020000 		.4byte	.LVL208
 12679 0b06 98020000 		.4byte	.LVL208
 12680 0b0a 0600     		.2byte	0x6
 12681 0b0c 03       		.byte	0x3
 12682 0b0d 00000000 		.4byte	mb1
 12683 0b11 9F       		.byte	0x9f
 12684 0b12 00000000 		.4byte	0
 12685 0b16 00000000 		.4byte	0
 12686              	.LVUS96:
 12687 0b1a 09       		.uleb128 .LVU1249
 12688 0b1b 0D       		.uleb128 .LVU1253
 12689              	.LLST96:
 12690 0b1c 98020000 		.4byte	.LVL208
 12691 0b20 98020000 		.4byte	.LVL208
 12692 0b24 0600     		.2byte	0x6
 12693 0b26 03       		.byte	0x3
 12694 0b27 00000000 		.4byte	mb1
 12695 0b2b 9F       		.byte	0x9f
 12696 0b2c 00000000 		.4byte	0
 12697 0b30 00000000 		.4byte	0
 12698              	.LVUS97:
 12699 0b34 0C       		.uleb128 .LVU1271
 12700 0b35 00       		.uleb128 .LVU1273
 12701              	.LLST97:
 12702 0b36 B6020000 		.4byte	.LVL210
 12703 0b3a BA020000 		.4byte	.LVL211
 12704 0b3e 0200     		.2byte	0x2
 12705 0b40 30       		.byte	0x30
 12706 0b41 9F       		.byte	0x9f
 12707 0b42 00000000 		.4byte	0
 12708 0b46 00000000 		.4byte	0
 12709              	.LVUS98:
 12710 0b4a 09       		.uleb128 .LVU1282
 12711 0b4b 00       		.uleb128 .LVU1284
 12712              	.LLST98:
 12713 0b4c BA020000 		.4byte	.LVL211
 12714 0b50 BE020000 		.4byte	.LVL212
 12715 0b54 0300     		.2byte	0x3
 12716 0b56 08       		.byte	0x8
ARM GAS  /tmp/ccTMtxXw.s 			page 225


 12717 0b57 30       		.byte	0x30
 12718 0b58 9F       		.byte	0x9f
 12719 0b59 00000000 		.4byte	0
 12720 0b5d 00000000 		.4byte	0
 12721              	.LVUS99:
 12722 0b61 04       		.uleb128 .LVU1288
 12723 0b62 07       		.uleb128 .LVU1291
 12724              	.LLST99:
 12725 0b63 BE020000 		.4byte	.LVL212
 12726 0b67 BE020000 		.4byte	.LVL212
 12727 0b6b 0600     		.2byte	0x6
 12728 0b6d 03       		.byte	0x3
 12729 0b6e 00000000 		.4byte	mb1
 12730 0b72 9F       		.byte	0x9f
 12731 0b73 00000000 		.4byte	0
 12732 0b77 00000000 		.4byte	0
 12733              	.LVUS100:
 12734 0b7b 0C       		.uleb128 .LVU1305
 12735 0b7c 00       		.uleb128 .LVU1307
 12736              	.LLST100:
 12737 0b7d D2020000 		.4byte	.LVL214
 12738 0b81 D6020000 		.4byte	.LVL215
 12739 0b85 0200     		.2byte	0x2
 12740 0b87 30       		.byte	0x30
 12741 0b88 9F       		.byte	0x9f
 12742 0b89 00000000 		.4byte	0
 12743 0b8d 00000000 		.4byte	0
 12744              		.section	.debug_aranges,"",%progbits
 12745 0000 3C000000 		.4byte	0x3c
 12746 0004 0200     		.2byte	0x2
 12747 0006 00000000 		.4byte	.Ldebug_info0
 12748 000a 04       		.byte	0x4
 12749 000b 00       		.byte	0
 12750 000c 0000     		.2byte	0
 12751 000e 0000     		.2byte	0
 12752 0010 00000000 		.4byte	.LFB405
 12753 0014 0C000000 		.4byte	.LFE405-.LFB405
 12754 0018 00000000 		.4byte	.LFB412
 12755 001c 24010000 		.4byte	.LFE412-.LFB412
 12756 0020 00000000 		.4byte	.LFB404
 12757 0024 14000000 		.4byte	.LFE404-.LFB404
 12758 0028 00000000 		.4byte	.LFB409
 12759 002c E8020000 		.4byte	.LFE409-.LFB409
 12760 0030 00000000 		.4byte	.LFB406
 12761 0034 38030000 		.4byte	.LFE406-.LFB406
 12762 0038 00000000 		.4byte	0
 12763 003c 00000000 		.4byte	0
 12764              		.section	.debug_ranges,"",%progbits
 12765              	.Ldebug_ranges0:
 12766 0000 56000000 		.4byte	.LBB1004
 12767 0004 56000000 		.4byte	.LBE1004
 12768 0008 56000000 		.4byte	.LBB1009
 12769 000c 56000000 		.4byte	.LBE1009
 12770 0010 56000000 		.4byte	.LBB1010
 12771 0014 5C000000 		.4byte	.LBE1010
 12772 0018 00000000 		.4byte	0
 12773 001c 00000000 		.4byte	0
ARM GAS  /tmp/ccTMtxXw.s 			page 226


 12774 0020 64000000 		.4byte	.LBB1011
 12775 0024 64000000 		.4byte	.LBE1011
 12776 0028 64000000 		.4byte	.LBB1018
 12777 002c 68000000 		.4byte	.LBE1018
 12778 0030 00000000 		.4byte	0
 12779 0034 00000000 		.4byte	0
 12780 0038 9C000000 		.4byte	.LBB1019
 12781 003c 9C000000 		.4byte	.LBE1019
 12782 0040 9C000000 		.4byte	.LBB1024
 12783 0044 9C000000 		.4byte	.LBE1024
 12784 0048 9C000000 		.4byte	.LBB1025
 12785 004c A0000000 		.4byte	.LBE1025
 12786 0050 00000000 		.4byte	0
 12787 0054 00000000 		.4byte	0
 12788 0058 A8000000 		.4byte	.LBB1026
 12789 005c A8000000 		.4byte	.LBE1026
 12790 0060 A8000000 		.4byte	.LBB1033
 12791 0064 AC000000 		.4byte	.LBE1033
 12792 0068 00000000 		.4byte	0
 12793 006c 00000000 		.4byte	0
 12794 0070 CC000000 		.4byte	.LBB1034
 12795 0074 CC000000 		.4byte	.LBE1034
 12796 0078 D8000000 		.4byte	.LBB1037
 12797 007c DA000000 		.4byte	.LBE1037
 12798 0080 00000000 		.4byte	0
 12799 0084 00000000 		.4byte	0
 12800 0088 F4000000 		.4byte	.LBB1038
 12801 008c F4000000 		.4byte	.LBE1038
 12802 0090 F4000000 		.4byte	.LBB1043
 12803 0094 F4000000 		.4byte	.LBE1043
 12804 0098 F4000000 		.4byte	.LBB1044
 12805 009c F8000000 		.4byte	.LBE1044
 12806 00a0 00000000 		.4byte	0
 12807 00a4 00000000 		.4byte	0
 12808 00a8 00010000 		.4byte	.LBB1045
 12809 00ac 00010000 		.4byte	.LBE1045
 12810 00b0 00010000 		.4byte	.LBB1052
 12811 00b4 04010000 		.4byte	.LBE1052
 12812 00b8 00000000 		.4byte	0
 12813 00bc 00000000 		.4byte	0
 12814 00c0 0C000000 		.4byte	.LBB1310
 12815 00c4 0C000000 		.4byte	.LBE1310
 12816 00c8 0C000000 		.4byte	.LBB1318
 12817 00cc 0C000000 		.4byte	.LBE1318
 12818 00d0 0C000000 		.4byte	.LBB1319
 12819 00d4 0C000000 		.4byte	.LBE1319
 12820 00d8 0C000000 		.4byte	.LBB1320
 12821 00dc 12000000 		.4byte	.LBE1320
 12822 00e0 00000000 		.4byte	0
 12823 00e4 00000000 		.4byte	0
 12824 00e8 12000000 		.4byte	.LBB1321
 12825 00ec 14000000 		.4byte	.LBE1321
 12826 00f0 16000000 		.4byte	.LBB1332
 12827 00f4 22000000 		.4byte	.LBE1332
 12828 00f8 00000000 		.4byte	0
 12829 00fc 00000000 		.4byte	0
 12830 0100 12000000 		.4byte	.LBB1323
ARM GAS  /tmp/ccTMtxXw.s 			page 227


 12831 0104 12000000 		.4byte	.LBE1323
 12832 0108 12000000 		.4byte	.LBB1329
 12833 010c 14000000 		.4byte	.LBE1329
 12834 0110 16000000 		.4byte	.LBB1330
 12835 0114 1C000000 		.4byte	.LBE1330
 12836 0118 00000000 		.4byte	0
 12837 011c 00000000 		.4byte	0
 12838 0120 32000000 		.4byte	.LBB1333
 12839 0124 32000000 		.4byte	.LBE1333
 12840 0128 32000000 		.4byte	.LBB1342
 12841 012c 32000000 		.4byte	.LBE1342
 12842 0130 32000000 		.4byte	.LBB1343
 12843 0134 38000000 		.4byte	.LBE1343
 12844 0138 00000000 		.4byte	0
 12845 013c 00000000 		.4byte	0
 12846 0140 3E000000 		.4byte	.LBB1344
 12847 0144 3E000000 		.4byte	.LBE1344
 12848 0148 3E000000 		.4byte	.LBB1771
 12849 014c 3E000000 		.4byte	.LBE1771
 12850 0150 3E000000 		.4byte	.LBB1772
 12851 0154 48000000 		.4byte	.LBE1772
 12852 0158 48000000 		.4byte	.LBB1773
 12853 015c 48000000 		.4byte	.LBE1773
 12854 0160 48000000 		.4byte	.LBB1774
 12855 0164 4C000000 		.4byte	.LBE1774
 12856 0168 4C000000 		.4byte	.LBB1775
 12857 016c 52000000 		.4byte	.LBE1775
 12858 0170 52000000 		.4byte	.LBB1776
 12859 0174 56000000 		.4byte	.LBE1776
 12860 0178 56000000 		.4byte	.LBB1777
 12861 017c 56000000 		.4byte	.LBE1777
 12862 0180 56000000 		.4byte	.LBB1778
 12863 0184 56000000 		.4byte	.LBE1778
 12864 0188 56000000 		.4byte	.LBB1779
 12865 018c 5A000000 		.4byte	.LBE1779
 12866 0190 5A000000 		.4byte	.LBB1780
 12867 0194 7A000000 		.4byte	.LBE1780
 12868 0198 7A000000 		.4byte	.LBB1781
 12869 019c 7A000000 		.4byte	.LBE1781
 12870 01a0 7A000000 		.4byte	.LBB1782
 12871 01a4 7E000000 		.4byte	.LBE1782
 12872 01a8 7E000000 		.4byte	.LBB1783
 12873 01ac 7E000000 		.4byte	.LBE1783
 12874 01b0 7E000000 		.4byte	.LBB1784
 12875 01b4 7E000000 		.4byte	.LBE1784
 12876 01b8 7E000000 		.4byte	.LBB1785
 12877 01bc 82000000 		.4byte	.LBE1785
 12878 01c0 82000000 		.4byte	.LBB1786
 12879 01c4 94000000 		.4byte	.LBE1786
 12880 01c8 94000000 		.4byte	.LBB1787
 12881 01cc 94000000 		.4byte	.LBE1787
 12882 01d0 94000000 		.4byte	.LBB1788
 12883 01d4 98000000 		.4byte	.LBE1788
 12884 01d8 9E000000 		.4byte	.LBB1789
 12885 01dc 9E000000 		.4byte	.LBE1789
 12886 01e0 9E000000 		.4byte	.LBB1790
 12887 01e4 9E000000 		.4byte	.LBE1790
ARM GAS  /tmp/ccTMtxXw.s 			page 228


 12888 01e8 9E000000 		.4byte	.LBB1791
 12889 01ec A2000000 		.4byte	.LBE1791
 12890 01f0 A8000000 		.4byte	.LBB1792
 12891 01f4 A8000000 		.4byte	.LBE1792
 12892 01f8 A8000000 		.4byte	.LBB1793
 12893 01fc A8000000 		.4byte	.LBE1793
 12894 0200 A8000000 		.4byte	.LBB1794
 12895 0204 AC000000 		.4byte	.LBE1794
 12896 0208 AC000000 		.4byte	.LBB1795
 12897 020c AC000000 		.4byte	.LBE1795
 12898 0210 AC000000 		.4byte	.LBB1796
 12899 0214 AC000000 		.4byte	.LBE1796
 12900 0218 AC000000 		.4byte	.LBB1797
 12901 021c B0000000 		.4byte	.LBE1797
 12902 0220 B0000000 		.4byte	.LBB1798
 12903 0224 C8000000 		.4byte	.LBE1798
 12904 0228 C8000000 		.4byte	.LBB1799
 12905 022c C8000000 		.4byte	.LBE1799
 12906 0230 C8000000 		.4byte	.LBB1800
 12907 0234 CC000000 		.4byte	.LBE1800
 12908 0238 CC000000 		.4byte	.LBB1801
 12909 023c CC000000 		.4byte	.LBE1801
 12910 0240 CC000000 		.4byte	.LBB1802
 12911 0244 CC000000 		.4byte	.LBE1802
 12912 0248 CC000000 		.4byte	.LBB1803
 12913 024c D0000000 		.4byte	.LBE1803
 12914 0250 D0000000 		.4byte	.LBB1804
 12915 0254 E6000000 		.4byte	.LBE1804
 12916 0258 E6000000 		.4byte	.LBB1805
 12917 025c E6000000 		.4byte	.LBE1805
 12918 0260 E6000000 		.4byte	.LBB1806
 12919 0264 F8000000 		.4byte	.LBE1806
 12920 0268 F8000000 		.4byte	.LBB1807
 12921 026c F8000000 		.4byte	.LBE1807
 12922 0270 F8000000 		.4byte	.LBB1808
 12923 0274 FC000000 		.4byte	.LBE1808
 12924 0278 FC000000 		.4byte	.LBB1809
 12925 027c 04010000 		.4byte	.LBE1809
 12926 0280 04010000 		.4byte	.LBB1810
 12927 0284 26010000 		.4byte	.LBE1810
 12928 0288 26010000 		.4byte	.LBB1811
 12929 028c 26010000 		.4byte	.LBE1811
 12930 0290 26010000 		.4byte	.LBB1812
 12931 0294 2A010000 		.4byte	.LBE1812
 12932 0298 2A010000 		.4byte	.LBB1813
 12933 029c 32010000 		.4byte	.LBE1813
 12934 02a0 32010000 		.4byte	.LBB1814
 12935 02a4 52010000 		.4byte	.LBE1814
 12936 02a8 52010000 		.4byte	.LBB1815
 12937 02ac 52010000 		.4byte	.LBE1815
 12938 02b0 52010000 		.4byte	.LBB1816
 12939 02b4 52010000 		.4byte	.LBE1816
 12940 02b8 52010000 		.4byte	.LBB1817
 12941 02bc 56010000 		.4byte	.LBE1817
 12942 02c0 56010000 		.4byte	.LBB1818
 12943 02c4 56010000 		.4byte	.LBE1818
 12944 02c8 56010000 		.4byte	.LBB1819
ARM GAS  /tmp/ccTMtxXw.s 			page 229


 12945 02cc 74010000 		.4byte	.LBE1819
 12946 02d0 74010000 		.4byte	.LBB1820
 12947 02d4 74010000 		.4byte	.LBE1820
 12948 02d8 74010000 		.4byte	.LBB1821
 12949 02dc 78010000 		.4byte	.LBE1821
 12950 02e0 78010000 		.4byte	.LBB1822
 12951 02e4 78010000 		.4byte	.LBE1822
 12952 02e8 78010000 		.4byte	.LBB1823
 12953 02ec 78010000 		.4byte	.LBE1823
 12954 02f0 78010000 		.4byte	.LBB1824
 12955 02f4 7C010000 		.4byte	.LBE1824
 12956 02f8 7C010000 		.4byte	.LBB1825
 12957 02fc 96010000 		.4byte	.LBE1825
 12958 0300 96010000 		.4byte	.LBB1826
 12959 0304 96010000 		.4byte	.LBE1826
 12960 0308 96010000 		.4byte	.LBB1827
 12961 030c 9A010000 		.4byte	.LBE1827
 12962 0310 9A010000 		.4byte	.LBB1828
 12963 0314 9A010000 		.4byte	.LBE1828
 12964 0318 9A010000 		.4byte	.LBB1829
 12965 031c 9A010000 		.4byte	.LBE1829
 12966 0320 9A010000 		.4byte	.LBB1830
 12967 0324 9E010000 		.4byte	.LBE1830
 12968 0328 9E010000 		.4byte	.LBB1831
 12969 032c B6010000 		.4byte	.LBE1831
 12970 0330 B6010000 		.4byte	.LBB1832
 12971 0334 B6010000 		.4byte	.LBE1832
 12972 0338 B6010000 		.4byte	.LBB1833
 12973 033c C6010000 		.4byte	.LBE1833
 12974 0340 C6010000 		.4byte	.LBB1834
 12975 0344 C6010000 		.4byte	.LBE1834
 12976 0348 C6010000 		.4byte	.LBB1835
 12977 034c CA010000 		.4byte	.LBE1835
 12978 0350 CA010000 		.4byte	.LBB1836
 12979 0354 D2010000 		.4byte	.LBE1836
 12980 0358 D2010000 		.4byte	.LBB1837
 12981 035c 4A020000 		.4byte	.LBE1837
 12982 0360 4A020000 		.4byte	.LBB1838
 12983 0364 4A020000 		.4byte	.LBE1838
 12984 0368 4A020000 		.4byte	.LBB1839
 12985 036c 4A020000 		.4byte	.LBE1839
 12986 0370 4A020000 		.4byte	.LBB1840
 12987 0374 4E020000 		.4byte	.LBE1840
 12988 0378 4E020000 		.4byte	.LBB1841
 12989 037c 68020000 		.4byte	.LBE1841
 12990 0380 68020000 		.4byte	.LBB1842
 12991 0384 68020000 		.4byte	.LBE1842
 12992 0388 68020000 		.4byte	.LBB1843
 12993 038c 6C020000 		.4byte	.LBE1843
 12994 0390 6C020000 		.4byte	.LBB1844
 12995 0394 6C020000 		.4byte	.LBE1844
 12996 0398 6C020000 		.4byte	.LBB1845
 12997 039c 6C020000 		.4byte	.LBE1845
 12998 03a0 6C020000 		.4byte	.LBB1846
 12999 03a4 70020000 		.4byte	.LBE1846
 13000 03a8 70020000 		.4byte	.LBB1847
 13001 03ac 80020000 		.4byte	.LBE1847
ARM GAS  /tmp/ccTMtxXw.s 			page 230


 13002 03b0 80020000 		.4byte	.LBB1848
 13003 03b4 80020000 		.4byte	.LBE1848
 13004 03b8 80020000 		.4byte	.LBB1849
 13005 03bc AC020000 		.4byte	.LBE1849
 13006 03c0 AC020000 		.4byte	.LBB1850
 13007 03c4 AC020000 		.4byte	.LBE1850
 13008 03c8 AC020000 		.4byte	.LBB1851
 13009 03cc E8020000 		.4byte	.LBE1851
 13010 03d0 00000000 		.4byte	0
 13011 03d4 00000000 		.4byte	0
 13012 03d8 3E000000 		.4byte	.LBB1346
 13013 03dc 3E000000 		.4byte	.LBE1346
 13014 03e0 3E000000 		.4byte	.LBB1355
 13015 03e4 3E000000 		.4byte	.LBE1355
 13016 03e8 3E000000 		.4byte	.LBB1356
 13017 03ec 44000000 		.4byte	.LBE1356
 13018 03f0 00000000 		.4byte	0
 13019 03f4 00000000 		.4byte	0
 13020 03f8 48000000 		.4byte	.LBB1357
 13021 03fc 48000000 		.4byte	.LBE1357
 13022 0400 48000000 		.4byte	.LBB1362
 13023 0404 48000000 		.4byte	.LBE1362
 13024 0408 48000000 		.4byte	.LBB1363
 13025 040c 4C000000 		.4byte	.LBE1363
 13026 0410 00000000 		.4byte	0
 13027 0414 00000000 		.4byte	0
 13028 0418 52000000 		.4byte	.LBB1364
 13029 041c 52000000 		.4byte	.LBE1364
 13030 0420 52000000 		.4byte	.LBB1371
 13031 0424 56000000 		.4byte	.LBE1371
 13032 0428 00000000 		.4byte	0
 13033 042c 00000000 		.4byte	0
 13034 0430 56000000 		.4byte	.LBB1372
 13035 0434 56000000 		.4byte	.LBE1372
 13036 0438 56000000 		.4byte	.LBB1380
 13037 043c 56000000 		.4byte	.LBE1380
 13038 0440 56000000 		.4byte	.LBB1381
 13039 0444 56000000 		.4byte	.LBE1381
 13040 0448 56000000 		.4byte	.LBB1382
 13041 044c 5A000000 		.4byte	.LBE1382
 13042 0450 00000000 		.4byte	0
 13043 0454 00000000 		.4byte	0
 13044 0458 5A000000 		.4byte	.LBB1383
 13045 045c 62000000 		.4byte	.LBE1383
 13046 0460 64000000 		.4byte	.LBB1392
 13047 0464 68000000 		.4byte	.LBE1392
 13048 0468 00000000 		.4byte	0
 13049 046c 00000000 		.4byte	0
 13050 0470 5A000000 		.4byte	.LBB1385
 13051 0474 5A000000 		.4byte	.LBE1385
 13052 0478 5A000000 		.4byte	.LBB1390
 13053 047c 60000000 		.4byte	.LBE1390
 13054 0480 00000000 		.4byte	0
 13055 0484 00000000 		.4byte	0
 13056 0488 7A000000 		.4byte	.LBB1393
 13057 048c 7A000000 		.4byte	.LBE1393
 13058 0490 7A000000 		.4byte	.LBB1402
ARM GAS  /tmp/ccTMtxXw.s 			page 231


 13059 0494 7A000000 		.4byte	.LBE1402
 13060 0498 7A000000 		.4byte	.LBB1403
 13061 049c 7E000000 		.4byte	.LBE1403
 13062 04a0 00000000 		.4byte	0
 13063 04a4 00000000 		.4byte	0
 13064 04a8 7E000000 		.4byte	.LBB1404
 13065 04ac 7E000000 		.4byte	.LBE1404
 13066 04b0 7E000000 		.4byte	.LBB1412
 13067 04b4 7E000000 		.4byte	.LBE1412
 13068 04b8 7E000000 		.4byte	.LBB1413
 13069 04bc 7E000000 		.4byte	.LBE1413
 13070 04c0 7E000000 		.4byte	.LBB1414
 13071 04c4 82000000 		.4byte	.LBE1414
 13072 04c8 00000000 		.4byte	0
 13073 04cc 00000000 		.4byte	0
 13074 04d0 94000000 		.4byte	.LBB1417
 13075 04d4 94000000 		.4byte	.LBE1417
 13076 04d8 94000000 		.4byte	.LBB1426
 13077 04dc 94000000 		.4byte	.LBE1426
 13078 04e0 94000000 		.4byte	.LBB1427
 13079 04e4 98000000 		.4byte	.LBE1427
 13080 04e8 00000000 		.4byte	0
 13081 04ec 00000000 		.4byte	0
 13082 04f0 9E000000 		.4byte	.LBB1428
 13083 04f4 9E000000 		.4byte	.LBE1428
 13084 04f8 9E000000 		.4byte	.LBB1437
 13085 04fc 9E000000 		.4byte	.LBE1437
 13086 0500 9E000000 		.4byte	.LBB1438
 13087 0504 A2000000 		.4byte	.LBE1438
 13088 0508 00000000 		.4byte	0
 13089 050c 00000000 		.4byte	0
 13090 0510 A8000000 		.4byte	.LBB1439
 13091 0514 A8000000 		.4byte	.LBE1439
 13092 0518 A8000000 		.4byte	.LBB1448
 13093 051c A8000000 		.4byte	.LBE1448
 13094 0520 A8000000 		.4byte	.LBB1449
 13095 0524 AC000000 		.4byte	.LBE1449
 13096 0528 00000000 		.4byte	0
 13097 052c 00000000 		.4byte	0
 13098 0530 AC000000 		.4byte	.LBB1450
 13099 0534 AC000000 		.4byte	.LBE1450
 13100 0538 AC000000 		.4byte	.LBB1458
 13101 053c AC000000 		.4byte	.LBE1458
 13102 0540 AC000000 		.4byte	.LBB1459
 13103 0544 AC000000 		.4byte	.LBE1459
 13104 0548 AC000000 		.4byte	.LBB1460
 13105 054c B0000000 		.4byte	.LBE1460
 13106 0550 00000000 		.4byte	0
 13107 0554 00000000 		.4byte	0
 13108 0558 C8000000 		.4byte	.LBB1461
 13109 055c C8000000 		.4byte	.LBE1461
 13110 0560 C8000000 		.4byte	.LBB1470
 13111 0564 C8000000 		.4byte	.LBE1470
 13112 0568 C8000000 		.4byte	.LBB1471
 13113 056c CC000000 		.4byte	.LBE1471
 13114 0570 00000000 		.4byte	0
 13115 0574 00000000 		.4byte	0
ARM GAS  /tmp/ccTMtxXw.s 			page 232


 13116 0578 CC000000 		.4byte	.LBB1472
 13117 057c CC000000 		.4byte	.LBE1472
 13118 0580 CC000000 		.4byte	.LBB1480
 13119 0584 CC000000 		.4byte	.LBE1480
 13120 0588 CC000000 		.4byte	.LBB1481
 13121 058c CC000000 		.4byte	.LBE1481
 13122 0590 CC000000 		.4byte	.LBB1482
 13123 0594 D0000000 		.4byte	.LBE1482
 13124 0598 00000000 		.4byte	0
 13125 059c 00000000 		.4byte	0
 13126 05a0 E6000000 		.4byte	.LBB1483
 13127 05a4 E6000000 		.4byte	.LBE1483
 13128 05a8 E6000000 		.4byte	.LBB1492
 13129 05ac E6000000 		.4byte	.LBE1492
 13130 05b0 E6000000 		.4byte	.LBB1493
 13131 05b4 EA000000 		.4byte	.LBE1493
 13132 05b8 00000000 		.4byte	0
 13133 05bc 00000000 		.4byte	0
 13134 05c0 EA000000 		.4byte	.LBB1494
 13135 05c4 EA000000 		.4byte	.LBE1494
 13136 05c8 F0000000 		.4byte	.LBB1497
 13137 05cc F2000000 		.4byte	.LBE1497
 13138 05d0 00000000 		.4byte	0
 13139 05d4 00000000 		.4byte	0
 13140 05d8 F8000000 		.4byte	.LBB1498
 13141 05dc F8000000 		.4byte	.LBE1498
 13142 05e0 F8000000 		.4byte	.LBB1503
 13143 05e4 F8000000 		.4byte	.LBE1503
 13144 05e8 F8000000 		.4byte	.LBB1504
 13145 05ec FC000000 		.4byte	.LBE1504
 13146 05f0 00000000 		.4byte	0
 13147 05f4 00000000 		.4byte	0
 13148 05f8 04010000 		.4byte	.LBB1505
 13149 05fc 04010000 		.4byte	.LBE1505
 13150 0600 04010000 		.4byte	.LBB1512
 13151 0604 0A010000 		.4byte	.LBE1512
 13152 0608 00000000 		.4byte	0
 13153 060c 00000000 		.4byte	0
 13154 0610 26010000 		.4byte	.LBB1513
 13155 0614 26010000 		.4byte	.LBE1513
 13156 0618 26010000 		.4byte	.LBB1518
 13157 061c 26010000 		.4byte	.LBE1518
 13158 0620 26010000 		.4byte	.LBB1519
 13159 0624 2A010000 		.4byte	.LBE1519
 13160 0628 00000000 		.4byte	0
 13161 062c 00000000 		.4byte	0
 13162 0630 32010000 		.4byte	.LBB1520
 13163 0634 32010000 		.4byte	.LBE1520
 13164 0638 32010000 		.4byte	.LBB1527
 13165 063c 36010000 		.4byte	.LBE1527
 13166 0640 00000000 		.4byte	0
 13167 0644 00000000 		.4byte	0
 13168 0648 52010000 		.4byte	.LBB1528
 13169 064c 52010000 		.4byte	.LBE1528
 13170 0650 52010000 		.4byte	.LBB1536
 13171 0654 52010000 		.4byte	.LBE1536
 13172 0658 52010000 		.4byte	.LBB1537
ARM GAS  /tmp/ccTMtxXw.s 			page 233


 13173 065c 52010000 		.4byte	.LBE1537
 13174 0660 52010000 		.4byte	.LBB1538
 13175 0664 56010000 		.4byte	.LBE1538
 13176 0668 00000000 		.4byte	0
 13177 066c 00000000 		.4byte	0
 13178 0670 56010000 		.4byte	.LBB1539
 13179 0674 56010000 		.4byte	.LBE1539
 13180 0678 56010000 		.4byte	.LBB1546
 13181 067c 5C010000 		.4byte	.LBE1546
 13182 0680 00000000 		.4byte	0
 13183 0684 00000000 		.4byte	0
 13184 0688 56010000 		.4byte	.LBB1540
 13185 068c 56010000 		.4byte	.LBE1540
 13186 0690 56010000 		.4byte	.LBB1545
 13187 0694 5C010000 		.4byte	.LBE1545
 13188 0698 00000000 		.4byte	0
 13189 069c 00000000 		.4byte	0
 13190 06a0 74010000 		.4byte	.LBB1547
 13191 06a4 74010000 		.4byte	.LBE1547
 13192 06a8 74010000 		.4byte	.LBB1556
 13193 06ac 74010000 		.4byte	.LBE1556
 13194 06b0 74010000 		.4byte	.LBB1557
 13195 06b4 78010000 		.4byte	.LBE1557
 13196 06b8 00000000 		.4byte	0
 13197 06bc 00000000 		.4byte	0
 13198 06c0 78010000 		.4byte	.LBB1558
 13199 06c4 78010000 		.4byte	.LBE1558
 13200 06c8 78010000 		.4byte	.LBB1566
 13201 06cc 78010000 		.4byte	.LBE1566
 13202 06d0 78010000 		.4byte	.LBB1567
 13203 06d4 78010000 		.4byte	.LBE1567
 13204 06d8 78010000 		.4byte	.LBB1568
 13205 06dc 7C010000 		.4byte	.LBE1568
 13206 06e0 00000000 		.4byte	0
 13207 06e4 00000000 		.4byte	0
 13208 06e8 96010000 		.4byte	.LBB1571
 13209 06ec 96010000 		.4byte	.LBE1571
 13210 06f0 96010000 		.4byte	.LBB1580
 13211 06f4 96010000 		.4byte	.LBE1580
 13212 06f8 96010000 		.4byte	.LBB1581
 13213 06fc 9A010000 		.4byte	.LBE1581
 13214 0700 00000000 		.4byte	0
 13215 0704 00000000 		.4byte	0
 13216 0708 9A010000 		.4byte	.LBB1582
 13217 070c 9A010000 		.4byte	.LBE1582
 13218 0710 9A010000 		.4byte	.LBB1590
 13219 0714 9A010000 		.4byte	.LBE1590
 13220 0718 9A010000 		.4byte	.LBB1591
 13221 071c 9A010000 		.4byte	.LBE1591
 13222 0720 9A010000 		.4byte	.LBB1592
 13223 0724 9E010000 		.4byte	.LBE1592
 13224 0728 00000000 		.4byte	0
 13225 072c 00000000 		.4byte	0
 13226 0730 B6010000 		.4byte	.LBB1593
 13227 0734 B6010000 		.4byte	.LBE1593
 13228 0738 B6010000 		.4byte	.LBB1602
 13229 073c B6010000 		.4byte	.LBE1602
ARM GAS  /tmp/ccTMtxXw.s 			page 234


 13230 0740 B6010000 		.4byte	.LBB1603
 13231 0744 BA010000 		.4byte	.LBE1603
 13232 0748 00000000 		.4byte	0
 13233 074c 00000000 		.4byte	0
 13234 0750 C4010000 		.4byte	.LBB1604
 13235 0754 C6010000 		.4byte	.LBE1604
 13236 0758 C6010000 		.4byte	.LBB1612
 13237 075c C6010000 		.4byte	.LBE1612
 13238 0760 C6010000 		.4byte	.LBB1613
 13239 0764 C6010000 		.4byte	.LBE1613
 13240 0768 C6010000 		.4byte	.LBB1614
 13241 076c CA010000 		.4byte	.LBE1614
 13242 0770 00000000 		.4byte	0
 13243 0774 00000000 		.4byte	0
 13244 0778 C4010000 		.4byte	.LBB1605
 13245 077c C6010000 		.4byte	.LBE1605
 13246 0780 C6010000 		.4byte	.LBB1610
 13247 0784 C6010000 		.4byte	.LBE1610
 13248 0788 C6010000 		.4byte	.LBB1611
 13249 078c CA010000 		.4byte	.LBE1611
 13250 0790 00000000 		.4byte	0
 13251 0794 00000000 		.4byte	0
 13252 0798 C4010000 		.4byte	.LBB1606
 13253 079c C6010000 		.4byte	.LBE1606
 13254 07a0 C6010000 		.4byte	.LBB1609
 13255 07a4 CA010000 		.4byte	.LBE1609
 13256 07a8 00000000 		.4byte	0
 13257 07ac 00000000 		.4byte	0
 13258 07b0 D2010000 		.4byte	.LBB1615
 13259 07b4 D2010000 		.4byte	.LBE1615
 13260 07b8 D2010000 		.4byte	.LBB1622
 13261 07bc D8010000 		.4byte	.LBE1622
 13262 07c0 00000000 		.4byte	0
 13263 07c4 00000000 		.4byte	0
 13264 07c8 4A020000 		.4byte	.LBB1623
 13265 07cc 4A020000 		.4byte	.LBE1623
 13266 07d0 4A020000 		.4byte	.LBB1631
 13267 07d4 4A020000 		.4byte	.LBE1631
 13268 07d8 4A020000 		.4byte	.LBB1632
 13269 07dc 4A020000 		.4byte	.LBE1632
 13270 07e0 4A020000 		.4byte	.LBB1633
 13271 07e4 4E020000 		.4byte	.LBE1633
 13272 07e8 00000000 		.4byte	0
 13273 07ec 00000000 		.4byte	0
 13274 07f0 4E020000 		.4byte	.LBB1634
 13275 07f4 56020000 		.4byte	.LBE1634
 13276 07f8 58020000 		.4byte	.LBB1643
 13277 07fc 5C020000 		.4byte	.LBE1643
 13278 0800 00000000 		.4byte	0
 13279 0804 00000000 		.4byte	0
 13280 0808 4E020000 		.4byte	.LBB1636
 13281 080c 4E020000 		.4byte	.LBE1636
 13282 0810 4E020000 		.4byte	.LBB1641
 13283 0814 54020000 		.4byte	.LBE1641
 13284 0818 00000000 		.4byte	0
 13285 081c 00000000 		.4byte	0
 13286 0820 68020000 		.4byte	.LBB1644
ARM GAS  /tmp/ccTMtxXw.s 			page 235


 13287 0824 68020000 		.4byte	.LBE1644
 13288 0828 68020000 		.4byte	.LBB1653
 13289 082c 68020000 		.4byte	.LBE1653
 13290 0830 68020000 		.4byte	.LBB1654
 13291 0834 6C020000 		.4byte	.LBE1654
 13292 0838 00000000 		.4byte	0
 13293 083c 00000000 		.4byte	0
 13294 0840 6C020000 		.4byte	.LBB1655
 13295 0844 6C020000 		.4byte	.LBE1655
 13296 0848 6C020000 		.4byte	.LBB1663
 13297 084c 6C020000 		.4byte	.LBE1663
 13298 0850 6C020000 		.4byte	.LBB1664
 13299 0854 6C020000 		.4byte	.LBE1664
 13300 0858 6C020000 		.4byte	.LBB1665
 13301 085c 70020000 		.4byte	.LBE1665
 13302 0860 00000000 		.4byte	0
 13303 0864 00000000 		.4byte	0
 13304 0868 80020000 		.4byte	.LBB1668
 13305 086c 80020000 		.4byte	.LBE1668
 13306 0870 80020000 		.4byte	.LBB1677
 13307 0874 80020000 		.4byte	.LBE1677
 13308 0878 80020000 		.4byte	.LBB1678
 13309 087c 84020000 		.4byte	.LBE1678
 13310 0880 00000000 		.4byte	0
 13311 0884 00000000 		.4byte	0
 13312 0888 AC020000 		.4byte	.LBB1679
 13313 088c AC020000 		.4byte	.LBE1679
 13314 0890 AC020000 		.4byte	.LBB1688
 13315 0894 AC020000 		.4byte	.LBE1688
 13316 0898 AC020000 		.4byte	.LBB1689
 13317 089c B0020000 		.4byte	.LBE1689
 13318 08a0 00000000 		.4byte	0
 13319 08a4 00000000 		.4byte	0
 13320 08a8 0C000000 		.4byte	.LBB2073
 13321 08ac 0C000000 		.4byte	.LBE2073
 13322 08b0 0C000000 		.4byte	.LBB2081
 13323 08b4 0C000000 		.4byte	.LBE2081
 13324 08b8 0C000000 		.4byte	.LBB2082
 13325 08bc 0C000000 		.4byte	.LBE2082
 13326 08c0 0C000000 		.4byte	.LBB2083
 13327 08c4 12000000 		.4byte	.LBE2083
 13328 08c8 00000000 		.4byte	0
 13329 08cc 00000000 		.4byte	0
 13330 08d0 12000000 		.4byte	.LBB2084
 13331 08d4 14000000 		.4byte	.LBE2084
 13332 08d8 16000000 		.4byte	.LBB2095
 13333 08dc 22000000 		.4byte	.LBE2095
 13334 08e0 00000000 		.4byte	0
 13335 08e4 00000000 		.4byte	0
 13336 08e8 12000000 		.4byte	.LBB2086
 13337 08ec 12000000 		.4byte	.LBE2086
 13338 08f0 12000000 		.4byte	.LBB2092
 13339 08f4 14000000 		.4byte	.LBE2092
 13340 08f8 16000000 		.4byte	.LBB2093
 13341 08fc 1C000000 		.4byte	.LBE2093
 13342 0900 00000000 		.4byte	0
 13343 0904 00000000 		.4byte	0
ARM GAS  /tmp/ccTMtxXw.s 			page 236


 13344 0908 32000000 		.4byte	.LBB2096
 13345 090c 32000000 		.4byte	.LBE2096
 13346 0910 32000000 		.4byte	.LBB2105
 13347 0914 32000000 		.4byte	.LBE2105
 13348 0918 32000000 		.4byte	.LBB2106
 13349 091c 38000000 		.4byte	.LBE2106
 13350 0920 00000000 		.4byte	0
 13351 0924 00000000 		.4byte	0
 13352 0928 3E000000 		.4byte	.LBB2107
 13353 092c 3E000000 		.4byte	.LBE2107
 13354 0930 3E000000 		.4byte	.LBB2454
 13355 0934 3E000000 		.4byte	.LBE2454
 13356 0938 3E000000 		.4byte	.LBB2455
 13357 093c 4E000000 		.4byte	.LBE2455
 13358 0940 4E000000 		.4byte	.LBB2456
 13359 0944 4E000000 		.4byte	.LBE2456
 13360 0948 4E000000 		.4byte	.LBB2457
 13361 094c 4E000000 		.4byte	.LBE2457
 13362 0950 4E000000 		.4byte	.LBB2458
 13363 0954 52000000 		.4byte	.LBE2458
 13364 0958 52000000 		.4byte	.LBB2459
 13365 095c 72000000 		.4byte	.LBE2459
 13366 0960 72000000 		.4byte	.LBB2460
 13367 0964 72000000 		.4byte	.LBE2460
 13368 0968 72000000 		.4byte	.LBB2461
 13369 096c 76000000 		.4byte	.LBE2461
 13370 0970 76000000 		.4byte	.LBB2462
 13371 0974 76000000 		.4byte	.LBE2462
 13372 0978 76000000 		.4byte	.LBB2463
 13373 097c 76000000 		.4byte	.LBE2463
 13374 0980 76000000 		.4byte	.LBB2464
 13375 0984 7A000000 		.4byte	.LBE2464
 13376 0988 7A000000 		.4byte	.LBB2465
 13377 098c 8C000000 		.4byte	.LBE2465
 13378 0990 8C000000 		.4byte	.LBB2466
 13379 0994 8C000000 		.4byte	.LBE2466
 13380 0998 8C000000 		.4byte	.LBB2467
 13381 099c 90000000 		.4byte	.LBE2467
 13382 09a0 96000000 		.4byte	.LBB2468
 13383 09a4 96000000 		.4byte	.LBE2468
 13384 09a8 96000000 		.4byte	.LBB2469
 13385 09ac 96000000 		.4byte	.LBE2469
 13386 09b0 96000000 		.4byte	.LBB2470
 13387 09b4 9A000000 		.4byte	.LBE2470
 13388 09b8 A0000000 		.4byte	.LBB2471
 13389 09bc A0000000 		.4byte	.LBE2471
 13390 09c0 A0000000 		.4byte	.LBB2472
 13391 09c4 A0000000 		.4byte	.LBE2472
 13392 09c8 A0000000 		.4byte	.LBB2473
 13393 09cc A4000000 		.4byte	.LBE2473
 13394 09d0 A4000000 		.4byte	.LBB2474
 13395 09d4 A4000000 		.4byte	.LBE2474
 13396 09d8 A4000000 		.4byte	.LBB2475
 13397 09dc A4000000 		.4byte	.LBE2475
 13398 09e0 A4000000 		.4byte	.LBB2476
 13399 09e4 A8000000 		.4byte	.LBE2476
 13400 09e8 A8000000 		.4byte	.LBB2477
ARM GAS  /tmp/ccTMtxXw.s 			page 237


 13401 09ec C0000000 		.4byte	.LBE2477
 13402 09f0 C0000000 		.4byte	.LBB2478
 13403 09f4 C0000000 		.4byte	.LBE2478
 13404 09f8 C0000000 		.4byte	.LBB2479
 13405 09fc C4000000 		.4byte	.LBE2479
 13406 0a00 C4000000 		.4byte	.LBB2480
 13407 0a04 C4000000 		.4byte	.LBE2480
 13408 0a08 C4000000 		.4byte	.LBB2481
 13409 0a0c C4000000 		.4byte	.LBE2481
 13410 0a10 C4000000 		.4byte	.LBB2482
 13411 0a14 C8000000 		.4byte	.LBE2482
 13412 0a18 C8000000 		.4byte	.LBB2483
 13413 0a1c DE000000 		.4byte	.LBE2483
 13414 0a20 DE000000 		.4byte	.LBB2484
 13415 0a24 DE000000 		.4byte	.LBE2484
 13416 0a28 DE000000 		.4byte	.LBB2485
 13417 0a2c 94010000 		.4byte	.LBE2485
 13418 0a30 94010000 		.4byte	.LBB2486
 13419 0a34 94010000 		.4byte	.LBE2486
 13420 0a38 94010000 		.4byte	.LBB2487
 13421 0a3c 94010000 		.4byte	.LBE2487
 13422 0a40 94010000 		.4byte	.LBB2488
 13423 0a44 9C010000 		.4byte	.LBE2488
 13424 0a48 9C010000 		.4byte	.LBB2489
 13425 0a4c 9C010000 		.4byte	.LBE2489
 13426 0a50 9C010000 		.4byte	.LBB2490
 13427 0a54 BC010000 		.4byte	.LBE2490
 13428 0a58 BC010000 		.4byte	.LBB2491
 13429 0a5c BC010000 		.4byte	.LBE2491
 13430 0a60 BC010000 		.4byte	.LBB2492
 13431 0a64 C0010000 		.4byte	.LBE2492
 13432 0a68 C0010000 		.4byte	.LBB2493
 13433 0a6c C0010000 		.4byte	.LBE2493
 13434 0a70 C0010000 		.4byte	.LBB2494
 13435 0a74 C0010000 		.4byte	.LBE2494
 13436 0a78 C0010000 		.4byte	.LBB2495
 13437 0a7c C4010000 		.4byte	.LBE2495
 13438 0a80 C4010000 		.4byte	.LBB2496
 13439 0a84 DC010000 		.4byte	.LBE2496
 13440 0a88 DC010000 		.4byte	.LBB2497
 13441 0a8c DC010000 		.4byte	.LBE2497
 13442 0a90 DC010000 		.4byte	.LBB2498
 13443 0a94 E2010000 		.4byte	.LBE2498
 13444 0a98 E2010000 		.4byte	.LBB2499
 13445 0a9c E2010000 		.4byte	.LBE2499
 13446 0aa0 E2010000 		.4byte	.LBB2500
 13447 0aa4 E6010000 		.4byte	.LBE2500
 13448 0aa8 E6010000 		.4byte	.LBB2501
 13449 0aac E6010000 		.4byte	.LBE2501
 13450 0ab0 E6010000 		.4byte	.LBB2502
 13451 0ab4 E6010000 		.4byte	.LBE2502
 13452 0ab8 E6010000 		.4byte	.LBB2503
 13453 0abc EA010000 		.4byte	.LBE2503
 13454 0ac0 EA010000 		.4byte	.LBB2504
 13455 0ac4 06020000 		.4byte	.LBE2504
 13456 0ac8 06020000 		.4byte	.LBB2505
 13457 0acc 06020000 		.4byte	.LBE2505
ARM GAS  /tmp/ccTMtxXw.s 			page 238


 13458 0ad0 06020000 		.4byte	.LBB2506
 13459 0ad4 92020000 		.4byte	.LBE2506
 13460 0ad8 92020000 		.4byte	.LBB2507
 13461 0adc 92020000 		.4byte	.LBE2507
 13462 0ae0 92020000 		.4byte	.LBB2508
 13463 0ae4 92020000 		.4byte	.LBE2508
 13464 0ae8 92020000 		.4byte	.LBB2509
 13465 0aec 98020000 		.4byte	.LBE2509
 13466 0af0 98020000 		.4byte	.LBB2510
 13467 0af4 B6020000 		.4byte	.LBE2510
 13468 0af8 B6020000 		.4byte	.LBB2511
 13469 0afc B6020000 		.4byte	.LBE2511
 13470 0b00 B6020000 		.4byte	.LBB2512
 13471 0b04 BA020000 		.4byte	.LBE2512
 13472 0b08 BA020000 		.4byte	.LBB2513
 13473 0b0c BA020000 		.4byte	.LBE2513
 13474 0b10 BA020000 		.4byte	.LBB2514
 13475 0b14 BA020000 		.4byte	.LBE2514
 13476 0b18 BA020000 		.4byte	.LBB2515
 13477 0b1c BE020000 		.4byte	.LBE2515
 13478 0b20 BE020000 		.4byte	.LBB2516
 13479 0b24 D2020000 		.4byte	.LBE2516
 13480 0b28 D2020000 		.4byte	.LBB2517
 13481 0b2c D2020000 		.4byte	.LBE2517
 13482 0b30 D2020000 		.4byte	.LBB2518
 13483 0b34 38030000 		.4byte	.LBE2518
 13484 0b38 00000000 		.4byte	0
 13485 0b3c 00000000 		.4byte	0
 13486 0b40 3E000000 		.4byte	.LBB2109
 13487 0b44 3E000000 		.4byte	.LBE2109
 13488 0b48 3E000000 		.4byte	.LBB2118
 13489 0b4c 3E000000 		.4byte	.LBE2118
 13490 0b50 3E000000 		.4byte	.LBB2119
 13491 0b54 44000000 		.4byte	.LBE2119
 13492 0b58 00000000 		.4byte	0
 13493 0b5c 00000000 		.4byte	0
 13494 0b60 4E000000 		.4byte	.LBB2120
 13495 0b64 4E000000 		.4byte	.LBE2120
 13496 0b68 4E000000 		.4byte	.LBB2128
 13497 0b6c 4E000000 		.4byte	.LBE2128
 13498 0b70 4E000000 		.4byte	.LBB2129
 13499 0b74 4E000000 		.4byte	.LBE2129
 13500 0b78 4E000000 		.4byte	.LBB2130
 13501 0b7c 52000000 		.4byte	.LBE2130
 13502 0b80 00000000 		.4byte	0
 13503 0b84 00000000 		.4byte	0
 13504 0b88 52000000 		.4byte	.LBB2131
 13505 0b8c 5A000000 		.4byte	.LBE2131
 13506 0b90 5C000000 		.4byte	.LBB2140
 13507 0b94 60000000 		.4byte	.LBE2140
 13508 0b98 00000000 		.4byte	0
 13509 0b9c 00000000 		.4byte	0
 13510 0ba0 52000000 		.4byte	.LBB2133
 13511 0ba4 52000000 		.4byte	.LBE2133
 13512 0ba8 52000000 		.4byte	.LBB2138
 13513 0bac 58000000 		.4byte	.LBE2138
 13514 0bb0 00000000 		.4byte	0
ARM GAS  /tmp/ccTMtxXw.s 			page 239


 13515 0bb4 00000000 		.4byte	0
 13516 0bb8 72000000 		.4byte	.LBB2141
 13517 0bbc 72000000 		.4byte	.LBE2141
 13518 0bc0 72000000 		.4byte	.LBB2150
 13519 0bc4 72000000 		.4byte	.LBE2150
 13520 0bc8 72000000 		.4byte	.LBB2151
 13521 0bcc 76000000 		.4byte	.LBE2151
 13522 0bd0 00000000 		.4byte	0
 13523 0bd4 00000000 		.4byte	0
 13524 0bd8 76000000 		.4byte	.LBB2152
 13525 0bdc 76000000 		.4byte	.LBE2152
 13526 0be0 76000000 		.4byte	.LBB2160
 13527 0be4 76000000 		.4byte	.LBE2160
 13528 0be8 76000000 		.4byte	.LBB2161
 13529 0bec 76000000 		.4byte	.LBE2161
 13530 0bf0 76000000 		.4byte	.LBB2162
 13531 0bf4 7A000000 		.4byte	.LBE2162
 13532 0bf8 00000000 		.4byte	0
 13533 0bfc 00000000 		.4byte	0
 13534 0c00 8C000000 		.4byte	.LBB2165
 13535 0c04 8C000000 		.4byte	.LBE2165
 13536 0c08 8C000000 		.4byte	.LBB2174
 13537 0c0c 8C000000 		.4byte	.LBE2174
 13538 0c10 8C000000 		.4byte	.LBB2175
 13539 0c14 90000000 		.4byte	.LBE2175
 13540 0c18 00000000 		.4byte	0
 13541 0c1c 00000000 		.4byte	0
 13542 0c20 96000000 		.4byte	.LBB2176
 13543 0c24 96000000 		.4byte	.LBE2176
 13544 0c28 96000000 		.4byte	.LBB2185
 13545 0c2c 96000000 		.4byte	.LBE2185
 13546 0c30 96000000 		.4byte	.LBB2186
 13547 0c34 9A000000 		.4byte	.LBE2186
 13548 0c38 00000000 		.4byte	0
 13549 0c3c 00000000 		.4byte	0
 13550 0c40 A0000000 		.4byte	.LBB2187
 13551 0c44 A0000000 		.4byte	.LBE2187
 13552 0c48 A0000000 		.4byte	.LBB2196
 13553 0c4c A0000000 		.4byte	.LBE2196
 13554 0c50 A0000000 		.4byte	.LBB2197
 13555 0c54 A4000000 		.4byte	.LBE2197
 13556 0c58 00000000 		.4byte	0
 13557 0c5c 00000000 		.4byte	0
 13558 0c60 A4000000 		.4byte	.LBB2198
 13559 0c64 A4000000 		.4byte	.LBE2198
 13560 0c68 A4000000 		.4byte	.LBB2206
 13561 0c6c A4000000 		.4byte	.LBE2206
 13562 0c70 A4000000 		.4byte	.LBB2207
 13563 0c74 A4000000 		.4byte	.LBE2207
 13564 0c78 A4000000 		.4byte	.LBB2208
 13565 0c7c A8000000 		.4byte	.LBE2208
 13566 0c80 00000000 		.4byte	0
 13567 0c84 00000000 		.4byte	0
 13568 0c88 C0000000 		.4byte	.LBB2209
 13569 0c8c C0000000 		.4byte	.LBE2209
 13570 0c90 C0000000 		.4byte	.LBB2218
 13571 0c94 C0000000 		.4byte	.LBE2218
ARM GAS  /tmp/ccTMtxXw.s 			page 240


 13572 0c98 C0000000 		.4byte	.LBB2219
 13573 0c9c C4000000 		.4byte	.LBE2219
 13574 0ca0 00000000 		.4byte	0
 13575 0ca4 00000000 		.4byte	0
 13576 0ca8 C4000000 		.4byte	.LBB2220
 13577 0cac C4000000 		.4byte	.LBE2220
 13578 0cb0 C4000000 		.4byte	.LBB2228
 13579 0cb4 C4000000 		.4byte	.LBE2228
 13580 0cb8 C4000000 		.4byte	.LBB2229
 13581 0cbc C4000000 		.4byte	.LBE2229
 13582 0cc0 C4000000 		.4byte	.LBB2230
 13583 0cc4 C8000000 		.4byte	.LBE2230
 13584 0cc8 00000000 		.4byte	0
 13585 0ccc 00000000 		.4byte	0
 13586 0cd0 DE000000 		.4byte	.LBB2231
 13587 0cd4 DE000000 		.4byte	.LBE2231
 13588 0cd8 DE000000 		.4byte	.LBB2240
 13589 0cdc DE000000 		.4byte	.LBE2240
 13590 0ce0 DE000000 		.4byte	.LBB2241
 13591 0ce4 E2000000 		.4byte	.LBE2241
 13592 0ce8 00000000 		.4byte	0
 13593 0cec 00000000 		.4byte	0
 13594 0cf0 42010000 		.4byte	.LBB2242
 13595 0cf4 42010000 		.4byte	.LBE2242
 13596 0cf8 46010000 		.4byte	.LBB2245
 13597 0cfc 48010000 		.4byte	.LBE2245
 13598 0d00 00000000 		.4byte	0
 13599 0d04 00000000 		.4byte	0
 13600 0d08 94010000 		.4byte	.LBB2246
 13601 0d0c 94010000 		.4byte	.LBE2246
 13602 0d10 94010000 		.4byte	.LBB2254
 13603 0d14 94010000 		.4byte	.LBE2254
 13604 0d18 94010000 		.4byte	.LBB2255
 13605 0d1c 94010000 		.4byte	.LBE2255
 13606 0d20 94010000 		.4byte	.LBB2256
 13607 0d24 9C010000 		.4byte	.LBE2256
 13608 0d28 00000000 		.4byte	0
 13609 0d2c 00000000 		.4byte	0
 13610 0d30 9C010000 		.4byte	.LBB2257
 13611 0d34 9C010000 		.4byte	.LBE2257
 13612 0d38 9C010000 		.4byte	.LBB2264
 13613 0d3c A2010000 		.4byte	.LBE2264
 13614 0d40 00000000 		.4byte	0
 13615 0d44 00000000 		.4byte	0
 13616 0d48 9C010000 		.4byte	.LBB2258
 13617 0d4c 9C010000 		.4byte	.LBE2258
 13618 0d50 9C010000 		.4byte	.LBB2263
 13619 0d54 A2010000 		.4byte	.LBE2263
 13620 0d58 00000000 		.4byte	0
 13621 0d5c 00000000 		.4byte	0
 13622 0d60 BC010000 		.4byte	.LBB2265
 13623 0d64 BC010000 		.4byte	.LBE2265
 13624 0d68 BC010000 		.4byte	.LBB2274
 13625 0d6c BC010000 		.4byte	.LBE2274
 13626 0d70 BC010000 		.4byte	.LBB2275
 13627 0d74 C0010000 		.4byte	.LBE2275
 13628 0d78 00000000 		.4byte	0
ARM GAS  /tmp/ccTMtxXw.s 			page 241


 13629 0d7c 00000000 		.4byte	0
 13630 0d80 C0010000 		.4byte	.LBB2276
 13631 0d84 C0010000 		.4byte	.LBE2276
 13632 0d88 C0010000 		.4byte	.LBB2284
 13633 0d8c C0010000 		.4byte	.LBE2284
 13634 0d90 C0010000 		.4byte	.LBB2285
 13635 0d94 C0010000 		.4byte	.LBE2285
 13636 0d98 C0010000 		.4byte	.LBB2286
 13637 0d9c C4010000 		.4byte	.LBE2286
 13638 0da0 00000000 		.4byte	0
 13639 0da4 00000000 		.4byte	0
 13640 0da8 DC010000 		.4byte	.LBB2289
 13641 0dac DC010000 		.4byte	.LBE2289
 13642 0db0 DC010000 		.4byte	.LBB2298
 13643 0db4 DC010000 		.4byte	.LBE2298
 13644 0db8 DC010000 		.4byte	.LBB2299
 13645 0dbc E0010000 		.4byte	.LBE2299
 13646 0dc0 00000000 		.4byte	0
 13647 0dc4 00000000 		.4byte	0
 13648 0dc8 E2010000 		.4byte	.LBB2300
 13649 0dcc E2010000 		.4byte	.LBE2300
 13650 0dd0 E2010000 		.4byte	.LBB2309
 13651 0dd4 E2010000 		.4byte	.LBE2309
 13652 0dd8 E2010000 		.4byte	.LBB2310
 13653 0ddc E6010000 		.4byte	.LBE2310
 13654 0de0 00000000 		.4byte	0
 13655 0de4 00000000 		.4byte	0
 13656 0de8 E6010000 		.4byte	.LBB2311
 13657 0dec E6010000 		.4byte	.LBE2311
 13658 0df0 E6010000 		.4byte	.LBB2319
 13659 0df4 E6010000 		.4byte	.LBE2319
 13660 0df8 E6010000 		.4byte	.LBB2320
 13661 0dfc E6010000 		.4byte	.LBE2320
 13662 0e00 E6010000 		.4byte	.LBB2321
 13663 0e04 EA010000 		.4byte	.LBE2321
 13664 0e08 00000000 		.4byte	0
 13665 0e0c 00000000 		.4byte	0
 13666 0e10 06020000 		.4byte	.LBB2322
 13667 0e14 06020000 		.4byte	.LBE2322
 13668 0e18 06020000 		.4byte	.LBB2331
 13669 0e1c 06020000 		.4byte	.LBE2331
 13670 0e20 06020000 		.4byte	.LBB2332
 13671 0e24 0A020000 		.4byte	.LBE2332
 13672 0e28 00000000 		.4byte	0
 13673 0e2c 00000000 		.4byte	0
 13674 0e30 92020000 		.4byte	.LBB2333
 13675 0e34 92020000 		.4byte	.LBE2333
 13676 0e38 92020000 		.4byte	.LBB2341
 13677 0e3c 92020000 		.4byte	.LBE2341
 13678 0e40 92020000 		.4byte	.LBB2342
 13679 0e44 92020000 		.4byte	.LBE2342
 13680 0e48 92020000 		.4byte	.LBB2343
 13681 0e4c 98020000 		.4byte	.LBE2343
 13682 0e50 00000000 		.4byte	0
 13683 0e54 00000000 		.4byte	0
 13684 0e58 98020000 		.4byte	.LBB2344
 13685 0e5c A0020000 		.4byte	.LBE2344
ARM GAS  /tmp/ccTMtxXw.s 			page 242


 13686 0e60 A2020000 		.4byte	.LBB2353
 13687 0e64 A6020000 		.4byte	.LBE2353
 13688 0e68 00000000 		.4byte	0
 13689 0e6c 00000000 		.4byte	0
 13690 0e70 98020000 		.4byte	.LBB2346
 13691 0e74 98020000 		.4byte	.LBE2346
 13692 0e78 98020000 		.4byte	.LBB2351
 13693 0e7c 9E020000 		.4byte	.LBE2351
 13694 0e80 00000000 		.4byte	0
 13695 0e84 00000000 		.4byte	0
 13696 0e88 B6020000 		.4byte	.LBB2354
 13697 0e8c B6020000 		.4byte	.LBE2354
 13698 0e90 B6020000 		.4byte	.LBB2363
 13699 0e94 B6020000 		.4byte	.LBE2363
 13700 0e98 B6020000 		.4byte	.LBB2364
 13701 0e9c BA020000 		.4byte	.LBE2364
 13702 0ea0 00000000 		.4byte	0
 13703 0ea4 00000000 		.4byte	0
 13704 0ea8 BA020000 		.4byte	.LBB2365
 13705 0eac BA020000 		.4byte	.LBE2365
 13706 0eb0 BA020000 		.4byte	.LBB2373
 13707 0eb4 BA020000 		.4byte	.LBE2373
 13708 0eb8 BA020000 		.4byte	.LBB2374
 13709 0ebc BA020000 		.4byte	.LBE2374
 13710 0ec0 BA020000 		.4byte	.LBB2375
 13711 0ec4 BE020000 		.4byte	.LBE2375
 13712 0ec8 00000000 		.4byte	0
 13713 0ecc 00000000 		.4byte	0
 13714 0ed0 D2020000 		.4byte	.LBB2378
 13715 0ed4 D2020000 		.4byte	.LBE2378
 13716 0ed8 D2020000 		.4byte	.LBB2387
 13717 0edc D2020000 		.4byte	.LBE2387
 13718 0ee0 D2020000 		.4byte	.LBB2388
 13719 0ee4 D6020000 		.4byte	.LBE2388
 13720 0ee8 00000000 		.4byte	0
 13721 0eec 00000000 		.4byte	0
 13722 0ef0 00000000 		.4byte	.LFB405
 13723 0ef4 0C000000 		.4byte	.LFE405
 13724 0ef8 00000000 		.4byte	.LFB412
 13725 0efc 24010000 		.4byte	.LFE412
 13726 0f00 00000000 		.4byte	.LFB404
 13727 0f04 14000000 		.4byte	.LFE404
 13728 0f08 00000000 		.4byte	.LFB409
 13729 0f0c E8020000 		.4byte	.LFE409
 13730 0f10 00000000 		.4byte	.LFB406
 13731 0f14 38030000 		.4byte	.LFE406
 13732 0f18 00000000 		.4byte	0
 13733 0f1c 00000000 		.4byte	0
 13734              		.section	.debug_line,"",%progbits
 13735              	.Ldebug_line0:
 13736 0000 E2190000 		.section	.debug_str,"MS",%progbits,1
 13736      03000703 
 13736      00000201 
 13736      FB0E0D00 
 13736      01010101 
 13737              	.LASF2:
 13738 0000 6C6F6E67 		.ascii	"long double\000"
ARM GAS  /tmp/ccTMtxXw.s 			page 243


 13738      20646F75 
 13738      626C6500 
 13739              	.LASF53:
 13740 000c 63617365 		.ascii	"cases\000"
 13740      7300
 13741              	.LASF66:
 13742 0012 6F736C69 		.ascii	"oslib_test_002_002_teardown\000"
 13742      625F7465 
 13742      73745F30 
 13742      30325F30 
 13742      30325F74 
 13743              	.LASF47:
 13744 002e 63685F74 		.ascii	"ch_test_context_t\000"
 13744      6573745F 
 13744      636F6E74 
 13744      6578745F 
 13744      7400
 13745              	.LASF71:
 13746 0040 6F736C69 		.ascii	"oslib_test_002_001_setup\000"
 13746      625F7465 
 13746      73745F30 
 13746      30325F30 
 13746      30315F73 
 13747              	.LASF26:
 13748 0059 74687265 		.ascii	"threads_queue_t\000"
 13748      6164735F 
 13748      71756575 
 13748      655F7400 
 13749              	.LASF35:
 13750 0069 77726974 		.ascii	"write\000"
 13750      6500
 13751              	.LASF92:
 13752 006f 63684D42 		.ascii	"chMBObjectInit\000"
 13752      4F626A65 
 13752      6374496E 
 13752      697400
 13753              	.LASF90:
 13754 007e 63684D42 		.ascii	"chMBFetchTimeout\000"
 13754      46657463 
 13754      6854696D 
 13754      656F7574 
 13754      00
 13755              	.LASF67:
 13756 008f 6F736C69 		.ascii	"oslib_test_002_002_setup\000"
 13756      625F7465 
 13756      73745F30 
 13756      30325F30 
 13756      30325F73 
 13757              	.LASF51:
 13758 00a8 65786563 		.ascii	"execute\000"
 13758      75746500 
 13759              	.LASF7:
 13760 00b0 73686F72 		.ascii	"short int\000"
 13760      7420696E 
 13760      7400
 13761              	.LASF4:
 13762 00ba 73697A65 		.ascii	"size_t\000"
ARM GAS  /tmp/ccTMtxXw.s 			page 244


 13762      5F7400
 13763              	.LASF75:
 13764 00c1 63684D42 		.ascii	"chMBGetFreeCountI\000"
 13764      47657446 
 13764      72656543 
 13764      6F756E74 
 13764      4900
 13765              	.LASF40:
 13766 00d3 676C6F62 		.ascii	"global_fail\000"
 13766      616C5F66 
 13766      61696C00 
 13767              	.LASF76:
 13768 00df 63684D42 		.ascii	"chMBGetUsedCountI\000"
 13768      47657455 
 13768      73656443 
 13768      6F756E74 
 13768      4900
 13769              	.LASF45:
 13770 00f1 70757463 		.ascii	"putchar\000"
 13770      68617200 
 13771              	.LASF37:
 13772 00f9 42617365 		.ascii	"BaseSequentialStream\000"
 13772      53657175 
 13772      656E7469 
 13772      616C5374 
 13772      7265616D 
 13773              	.LASF72:
 13774 010e 6F73616C 		.ascii	"osalSysUnlock\000"
 13774      53797355 
 13774      6E6C6F63 
 13774      6B00
 13775              	.LASF55:
 13776 011c 63687465 		.ascii	"chtest\000"
 13776      737400
 13777              	.LASF84:
 13778 0123 63684D42 		.ascii	"chMBPostTimeout\000"
 13778      506F7374 
 13778      54696D65 
 13778      6F757400 
 13779              	.LASF57:
 13780 0133 6D625F62 		.ascii	"mb_buffer\000"
 13780      75666665 
 13780      7200
 13781              	.LASF54:
 13782 013d 74657374 		.ascii	"testsequence_t\000"
 13782      73657175 
 13782      656E6365 
 13782      5F7400
 13783              	.LASF52:
 13784 014c 74657374 		.ascii	"testcase_t\000"
 13784      63617365 
 13784      5F7400
 13785              	.LASF88:
 13786 0157 63684D42 		.ascii	"chMBPostAheadI\000"
 13786      506F7374 
 13786      41686561 
 13786      644900
ARM GAS  /tmp/ccTMtxXw.s 			page 245


 13787              	.LASF93:
 13788 0166 63684D42 		.ascii	"chMBResetI\000"
 13788      52657365 
 13788      744900
 13789              	.LASF14:
 13790 0171 75696E74 		.ascii	"uint8_t\000"
 13790      385F7400 
 13791              	.LASF24:
 13792 0179 63685F74 		.ascii	"ch_threads_queue\000"
 13792      68726561 
 13792      64735F71 
 13792      75657565 
 13792      00
 13793              	.LASF61:
 13794 018a 6F736C69 		.ascii	"oslib_test_sequence_002_array\000"
 13794      625F7465 
 13794      73745F73 
 13794      65717565 
 13794      6E63655F 
 13795              	.LASF20:
 13796 01a8 63685F71 		.ascii	"ch_queue_t\000"
 13796      75657565 
 13796      5F7400
 13797              	.LASF38:
 13798 01b3 74657374 		.ascii	"test_putchar_t\000"
 13798      5F707574 
 13798      63686172 
 13798      5F7400
 13799              	.LASF16:
 13800 01c2 75696E74 		.ascii	"uint32_t\000"
 13800      33325F74 
 13800      00
 13801              	.LASF39:
 13802 01cb 63757272 		.ascii	"current_step\000"
 13802      656E745F 
 13802      73746570 
 13802      00
 13803              	.LASF28:
 13804 01d8 77727074 		.ascii	"wrptr\000"
 13804      7200
 13805              	.LASF44:
 13806 01de 746F6B65 		.ascii	"tokens_buffer\000"
 13806      6E735F62 
 13806      75666665 
 13806      7200
 13807              	.LASF79:
 13808 01ec 63685379 		.ascii	"chSysLock\000"
 13808      734C6F63 
 13808      6B00
 13809              	.LASF63:
 13810 01f6 6D736732 		.ascii	"msg2\000"
 13810      00
 13811              	.LASF49:
 13812 01fb 73657475 		.ascii	"setup\000"
 13812      7000
 13813              	.LASF85:
 13814 0201 5F5F7465 		.ascii	"__test_assert\000"
ARM GAS  /tmp/ccTMtxXw.s 			page 246


 13814      73745F61 
 13814      73736572 
 13814      7400
 13815              	.LASF36:
 13816 020f 72656164 		.ascii	"read\000"
 13816      00
 13817              	.LASF1:
 13818 0214 6C6F6E67 		.ascii	"long long int\000"
 13818      206C6F6E 
 13818      6720696E 
 13818      7400
 13819              	.LASF83:
 13820 0222 62617365 		.ascii	"basePri\000"
 13820      50726900 
 13821              	.LASF10:
 13822 022a 6C6F6E67 		.ascii	"long int\000"
 13822      20696E74 
 13822      00
 13823              	.LASF42:
 13824 0233 6661696C 		.ascii	"failure_message\000"
 13824      7572655F 
 13824      6D657373 
 13824      61676500 
 13825              	.LASF43:
 13826 0243 746F6B70 		.ascii	"tokp\000"
 13826      00
 13827              	.LASF46:
 13828 0248 73747265 		.ascii	"stream\000"
 13828      616D00
 13829              	.LASF5:
 13830 024f 5F5F7569 		.ascii	"__uint8_t\000"
 13830      6E74385F 
 13830      7400
 13831              	.LASF64:
 13832 0259 6F736C69 		.ascii	"oslib_test_002_003_teardown\000"
 13832      625F7465 
 13832      73745F30 
 13832      30325F30 
 13832      30335F74 
 13833              	.LASF11:
 13834 0275 5F5F7569 		.ascii	"__uint32_t\000"
 13834      6E743332 
 13834      5F7400
 13835              	.LASF50:
 13836 0280 74656172 		.ascii	"teardown\000"
 13836      646F776E 
 13836      00
 13837              	.LASF25:
 13838 0289 71756575 		.ascii	"queue\000"
 13838      6500
 13839              	.LASF48:
 13840 028f 6E616D65 		.ascii	"name\000"
 13840      00
 13841              	.LASF96:
 13842 0294 474E5520 		.ascii	"GNU C17 10.3.1 20210621 (release) -mcpu=cortex-m4 -"
 13842      43313720 
 13842      31302E33 
ARM GAS  /tmp/ccTMtxXw.s 			page 247


 13842      2E312032 
 13842      30323130 
 13843 02c7 6D746875 		.ascii	"mthumb -mfloat-abi=soft -march=armv7e-m -ggdb -O2 -"
 13843      6D62202D 
 13843      6D666C6F 
 13843      61742D61 
 13843      62693D73 
 13844 02fa 666F6D69 		.ascii	"fomit-frame-pointer -falign-functions=16 -ffunction"
 13844      742D6672 
 13844      616D652D 
 13844      706F696E 
 13844      74657220 
 13845 032d 2D736563 		.ascii	"-sections -fdata-sections -fno-common\000"
 13845      74696F6E 
 13845      73202D66 
 13845      64617461 
 13845      2D736563 
 13846              	.LASF73:
 13847 0353 6F73616C 		.ascii	"osalSysLock\000"
 13847      5379734C 
 13847      6F636B00 
 13848              	.LASF6:
 13849 035f 756E7369 		.ascii	"unsigned char\000"
 13849      676E6564 
 13849      20636861 
 13849      7200
 13850              	.LASF100:
 13851 036d 5F5F6675 		.ascii	"__func__\000"
 13851      6E635F5F 
 13851      00
 13852              	.LASF41:
 13853 0376 6C6F6361 		.ascii	"local_fail\000"
 13853      6C5F6661 
 13853      696C00
 13854              	.LASF69:
 13855 0381 6F736C69 		.ascii	"oslib_test_002_001_execute\000"
 13855      625F7465 
 13855      73745F30 
 13855      30325F30 
 13855      30315F65 
 13856              	.LASF86:
 13857 039c 63684D42 		.ascii	"chMBPostI\000"
 13857      506F7374 
 13857      4900
 13858              	.LASF62:
 13859 03a6 6D736731 		.ascii	"msg1\000"
 13859      00
 13860              	.LASF3:
 13861 03ab 7369676E 		.ascii	"signed char\000"
 13861      65642063 
 13861      68617200 
 13862              	.LASF13:
 13863 03b7 6C6F6E67 		.ascii	"long long unsigned int\000"
 13863      206C6F6E 
 13863      6720756E 
 13863      7369676E 
 13863      65642069 
ARM GAS  /tmp/ccTMtxXw.s 			page 248


 13864              	.LASF68:
 13865 03ce 6F736C69 		.ascii	"oslib_test_002_002_execute\000"
 13865      625F7465 
 13865      73745F30 
 13865      30325F30 
 13865      30325F65 
 13866              	.LASF0:
 13867 03e9 756E7369 		.ascii	"unsigned int\000"
 13867      676E6564 
 13867      20696E74 
 13867      00
 13868              	.LASF99:
 13869 03f6 6F736C69 		.ascii	"oslib_test_002_003_execute\000"
 13869      625F7465 
 13869      73745F30 
 13869      30325F30 
 13869      30335F65 
 13870              	.LASF98:
 13871 0411 2F686F6D 		.ascii	"/home/bhimebau/forge/analog_in_out/application\000"
 13871      652F6268 
 13871      696D6562 
 13871      61752F66 
 13871      6F726765 
 13872              	.LASF95:
 13873 0440 5F5F7465 		.ascii	"__test_assert_sequence\000"
 13873      73745F61 
 13873      73736572 
 13873      745F7365 
 13873      7175656E 
 13874              	.LASF70:
 13875 0457 6F736C69 		.ascii	"oslib_test_002_001_teardown\000"
 13875      625F7465 
 13875      73745F30 
 13875      30325F30 
 13875      30315F74 
 13876              	.LASF65:
 13877 0473 6F736C69 		.ascii	"oslib_test_002_003_setup\000"
 13877      625F7465 
 13877      73745F30 
 13877      30325F30 
 13877      30335F73 
 13878              	.LASF56:
 13879 048c 6F736C69 		.ascii	"oslib_test_sequence_002\000"
 13879      625F7465 
 13879      73745F73 
 13879      65717565 
 13879      6E63655F 
 13880              	.LASF18:
 13881 04a4 63686172 		.ascii	"char\000"
 13881      00
 13882              	.LASF15:
 13883 04a9 696E7433 		.ascii	"int32_t\000"
 13883      325F7400 
 13884              	.LASF32:
 13885 04b1 6D61696C 		.ascii	"mailbox_t\000"
 13885      626F785F 
 13885      7400
ARM GAS  /tmp/ccTMtxXw.s 			page 249


 13886              	.LASF8:
 13887 04bb 73686F72 		.ascii	"short unsigned int\000"
 13887      7420756E 
 13887      7369676E 
 13887      65642069 
 13887      6E7400
 13888              	.LASF91:
 13889 04ce 63684D42 		.ascii	"chMBFetchI\000"
 13889      46657463 
 13889      684900
 13890              	.LASF31:
 13891 04d9 5F426F6F 		.ascii	"_Bool\000"
 13891      6C00
 13892              	.LASF80:
 13893 04df 706F7274 		.ascii	"port_unlock\000"
 13893      5F756E6C 
 13893      6F636B00 
 13894              	.LASF19:
 13895 04eb 73797369 		.ascii	"sysinterval_t\000"
 13895      6E746572 
 13895      76616C5F 
 13895      7400
 13896              	.LASF27:
 13897 04f9 62756666 		.ascii	"buffer\000"
 13897      657200
 13898              	.LASF12:
 13899 0500 6C6F6E67 		.ascii	"long unsigned int\000"
 13899      20756E73 
 13899      69676E65 
 13899      6420696E 
 13899      7400
 13900              	.LASF81:
 13901 0512 706F7274 		.ascii	"port_lock\000"
 13901      5F6C6F63 
 13901      6B00
 13902              	.LASF89:
 13903 051c 63684D42 		.ascii	"chMBReset\000"
 13903      52657365 
 13903      7400
 13904              	.LASF82:
 13905 0526 5F5F7365 		.ascii	"__set_BASEPRI\000"
 13905      745F4241 
 13905      53455052 
 13905      4900
 13906              	.LASF78:
 13907 0534 63685379 		.ascii	"chSysUnlock\000"
 13907      73556E6C 
 13907      6F636B00 
 13908              	.LASF30:
 13909 0540 72657365 		.ascii	"reset\000"
 13909      7400
 13910              	.LASF9:
 13911 0546 5F5F696E 		.ascii	"__int32_t\000"
 13911      7433325F 
 13911      7400
 13912              	.LASF87:
 13913 0550 63684D42 		.ascii	"chMBPostAheadTimeout\000"
ARM GAS  /tmp/ccTMtxXw.s 			page 250


 13913      506F7374 
 13913      41686561 
 13913      6454696D 
 13913      656F7574 
 13914              	.LASF77:
 13915 0565 63684D42 		.ascii	"chMBGetSizeI\000"
 13915      47657453 
 13915      697A6549 
 13915      00
 13916              	.LASF97:
 13917 0572 2E2E2F43 		.ascii	"../ChibiOS/test/oslib/source/test/oslib_test_sequen"
 13917      68696269 
 13917      4F532F74 
 13917      6573742F 
 13917      6F736C69 
 13918 05a5 63655F30 		.ascii	"ce_002.c\000"
 13918      30322E63 
 13918      00
 13919              	.LASF23:
 13920 05ae 63685F71 		.ascii	"ch_queue\000"
 13920      75657565 
 13920      00
 13921              	.LASF58:
 13922 05b7 6F736C69 		.ascii	"oslib_test_002_001\000"
 13922      625F7465 
 13922      73745F30 
 13922      30325F30 
 13922      303100
 13923              	.LASF59:
 13924 05ca 6F736C69 		.ascii	"oslib_test_002_002\000"
 13924      625F7465 
 13924      73745F30 
 13924      30325F30 
 13924      303200
 13925              	.LASF60:
 13926 05dd 6F736C69 		.ascii	"oslib_test_002_003\000"
 13926      625F7465 
 13926      73745F30 
 13926      30325F30 
 13926      303300
 13927              	.LASF29:
 13928 05f0 72647074 		.ascii	"rdptr\000"
 13928      7200
 13929              	.LASF94:
 13930 05f6 74657374 		.ascii	"test_emit_token\000"
 13930      5F656D69 
 13930      745F746F 
 13930      6B656E00 
 13931              	.LASF22:
 13932 0606 70726576 		.ascii	"prev\000"
 13932      00
 13933              	.LASF34:
 13934 060b 696E7374 		.ascii	"instance_offset\000"
 13934      616E6365 
 13934      5F6F6666 
 13934      73657400 
 13935              	.LASF74:
ARM GAS  /tmp/ccTMtxXw.s 			page 251


 13936 061b 63684D42 		.ascii	"chMBResumeX\000"
 13936      52657375 
 13936      6D655800 
 13937              	.LASF17:
 13938 0627 6D73675F 		.ascii	"msg_t\000"
 13938      7400
 13939              	.LASF21:
 13940 062d 6E657874 		.ascii	"next\000"
 13940      00
 13941              	.LASF33:
 13942 0632 42617365 		.ascii	"BaseSequentialStreamVMT\000"
 13942      53657175 
 13942      656E7469 
 13942      616C5374 
 13942      7265616D 
 13943              		.ident	"GCC: (GNU Arm Embedded Toolchain 10.3-2021.07) 10.3.1 20210621 (release)"
ARM GAS  /tmp/ccTMtxXw.s 			page 252


DEFINED SYMBOLS
                            *ABS*:0000000000000000 oslib_test_sequence_002.c
     /tmp/ccTMtxXw.s:16     .text.oslib_test_002_001_teardown:0000000000000000 $t
     /tmp/ccTMtxXw.s:24     .text.oslib_test_002_001_teardown:0000000000000000 oslib_test_002_001_teardown
     /tmp/ccTMtxXw.s:39     .text.oslib_test_002_001_teardown:0000000000000008 $d
     /tmp/ccTMtxXw.s:44     .rodata.oslib_test_002_003_execute.str1.4:0000000000000000 $d
     /tmp/ccTMtxXw.s:48     .text.oslib_test_002_003_execute:0000000000000000 $t
     /tmp/ccTMtxXw.s:55     .text.oslib_test_002_003_execute:0000000000000000 oslib_test_002_003_execute
     /tmp/ccTMtxXw.s:524    .text.oslib_test_002_003_execute:0000000000000118 $d
     /tmp/ccTMtxXw.s:531    .text.oslib_test_002_001_setup:0000000000000000 $t
     /tmp/ccTMtxXw.s:538    .text.oslib_test_002_001_setup:0000000000000000 oslib_test_002_001_setup
     /tmp/ccTMtxXw.s:554    .text.oslib_test_002_001_setup:000000000000000c $d
     /tmp/ccTMtxXw.s:560    .rodata.oslib_test_002_002_execute.str1.4:0000000000000000 $d
     /tmp/ccTMtxXw.s:591    .text.oslib_test_002_002_execute:0000000000000000 $t
     /tmp/ccTMtxXw.s:598    .text.oslib_test_002_002_execute:0000000000000000 oslib_test_002_002_execute
     /tmp/ccTMtxXw.s:2956   .text.oslib_test_002_002_execute:00000000000002b4 $d
     /tmp/ccTMtxXw.s:2975   .rodata.oslib_test_002_001_execute.str1.4:0000000000000000 $d
     /tmp/ccTMtxXw.s:2979   .text.oslib_test_002_001_execute:0000000000000000 $t
     /tmp/ccTMtxXw.s:2986   .text.oslib_test_002_001_execute:0000000000000000 oslib_test_002_001_execute
     /tmp/ccTMtxXw.s:5050   .text.oslib_test_002_001_execute:0000000000000300 $d
     /tmp/ccTMtxXw.s:5070   .text.oslib_test_002_003_teardown:0000000000000000 $t
     /tmp/ccTMtxXw.s:5077   .text.oslib_test_002_003_teardown:0000000000000000 oslib_test_002_003_teardown
     /tmp/ccTMtxXw.s:5088   .text.oslib_test_002_003_teardown:0000000000000008 $d
     /tmp/ccTMtxXw.s:5093   .text.oslib_test_002_002_teardown:0000000000000000 $t
     /tmp/ccTMtxXw.s:5100   .text.oslib_test_002_002_teardown:0000000000000000 oslib_test_002_002_teardown
     /tmp/ccTMtxXw.s:5111   .text.oslib_test_002_002_teardown:0000000000000008 $d
     /tmp/ccTMtxXw.s:5116   .text.oslib_test_002_002_setup:0000000000000000 $t
     /tmp/ccTMtxXw.s:5123   .text.oslib_test_002_002_setup:0000000000000000 oslib_test_002_002_setup
     /tmp/ccTMtxXw.s:5136   .text.oslib_test_002_002_setup:000000000000000c $d
     /tmp/ccTMtxXw.s:5142   .text.oslib_test_002_003_setup:0000000000000000 $t
     /tmp/ccTMtxXw.s:5149   .text.oslib_test_002_003_setup:0000000000000000 oslib_test_002_003_setup
     /tmp/ccTMtxXw.s:5162   .text.oslib_test_002_003_setup:000000000000000c $d
     /tmp/ccTMtxXw.s:5237   .rodata.oslib_test_sequence_002:0000000000000000 oslib_test_sequence_002
     /tmp/ccTMtxXw.s:5169   .rodata.str1.4:0000000000000000 $d
     /tmp/ccTMtxXw.s:5244   .rodata.oslib_test_sequence_002_array:0000000000000000 oslib_test_sequence_002_array
     /tmp/ccTMtxXw.s:5183   .bss.mb_buffer:0000000000000000 $d
     /tmp/ccTMtxXw.s:5187   .bss.mb_buffer:0000000000000000 mb_buffer
     /tmp/ccTMtxXw.s:5190   .data.mb1:0000000000000000 $d
     /tmp/ccTMtxXw.s:5194   .data.mb1:0000000000000000 mb1
     /tmp/ccTMtxXw.s:5207   .rodata.oslib_test_002_001:0000000000000000 $d
     /tmp/ccTMtxXw.s:5210   .rodata.oslib_test_002_001:0000000000000000 oslib_test_002_001
     /tmp/ccTMtxXw.s:5216   .rodata.oslib_test_002_002:0000000000000000 $d
     /tmp/ccTMtxXw.s:5219   .rodata.oslib_test_002_002:0000000000000000 oslib_test_002_002
     /tmp/ccTMtxXw.s:5225   .rodata.oslib_test_002_003:0000000000000000 $d
     /tmp/ccTMtxXw.s:5228   .rodata.oslib_test_002_003:0000000000000000 oslib_test_002_003
     /tmp/ccTMtxXw.s:5234   .rodata.oslib_test_sequence_002:0000000000000000 $d
     /tmp/ccTMtxXw.s:5241   .rodata.oslib_test_sequence_002_array:0000000000000000 $d

UNDEFINED SYMBOLS
chMBReset
chMBPostTimeout
__test_assert
chMBPostI
chMBPostAheadTimeout
chMBPostAheadI
chMBFetchTimeout
chMBFetchI
ARM GAS  /tmp/ccTMtxXw.s 			page 253


chtest
chMBObjectInit
chMBResetI
test_emit_token
__test_assert_sequence
