ARM GAS  /tmp/ccemmW2o.s 			page 1


   1              		.cpu cortex-m4
   2              		.eabi_attribute 20, 1
   3              		.eabi_attribute 21, 1
   4              		.eabi_attribute 23, 3
   5              		.eabi_attribute 24, 1
   6              		.eabi_attribute 25, 1
   7              		.eabi_attribute 26, 1
   8              		.eabi_attribute 30, 2
   9              		.eabi_attribute 34, 1
  10              		.eabi_attribute 18, 4
  11              		.file	"oslib_test_sequence_007.c"
  12              		.text
  13              	.Ltext0:
  14              		.cfi_sections	.debug_frame
  15              		.section	.text.null_provider,"ax",%progbits
  16              		.align	1
  17              		.p2align 4,,15
  18              		.arch armv7e-m
  19              		.syntax unified
  20              		.thumb
  21              		.thumb_func
  22              		.fpu softvfp
  23              		.type	null_provider, %function
  24              	null_provider:
  25              	.LVL0:
  26              	.LFB404:
  27              		.file 1 "../ChibiOS/test/oslib/source/test/oslib_test_sequence_007.c"
  28              		.loc 1 60 57 view -0
  29              		.cfi_startproc
  30              		@ args = 0, pretend = 0, frame = 0
  31              		@ frame_needed = 0, uses_anonymous_args = 0
  32              		@ link register save eliminated.
  33              		.loc 1 62 3 view .LVU1
  34              		.loc 1 63 3 view .LVU2
  35              		.loc 1 65 3 view .LVU3
  36              		.loc 1 66 1 is_stmt 0 view .LVU4
  37 0000 0020     		movs	r0, #0
  38              	.LVL1:
  39              		.loc 1 66 1 view .LVU5
  40 0002 7047     		bx	lr
  41              		.cfi_endproc
  42              	.LFE404:
  43              		.size	null_provider, .-null_provider
  44              		.section	.rodata.oslib_test_007_003_execute.str1.4,"aMS",%progbits,1
  45              		.align	2
  46              	.LC0:
  47 0000 6C697374 		.ascii	"list not empty\000"
  47      206E6F74 
  47      20656D70 
  47      747900
  48              		.section	.text.oslib_test_007_003_execute,"ax",%progbits
  49              		.align	1
  50              		.p2align 4,,15
  51              		.syntax unified
  52              		.thumb
  53              		.thumb_func
  54              		.fpu softvfp
ARM GAS  /tmp/ccemmW2o.s 			page 2


  55              		.type	oslib_test_007_003_execute, %function
  56              	oslib_test_007_003_execute:
  57              	.LFB410:
  58              		.loc 1 272 46 is_stmt 1 view -0
  59              		.cfi_startproc
  60              		@ args = 0, pretend = 0, frame = 0
  61              		@ frame_needed = 0, uses_anonymous_args = 0
  62              		.loc 1 276 3 view .LVU7
  63              		.loc 1 272 46 is_stmt 0 view .LVU8
  64 0000 08B5     		push	{r3, lr}
  65              		.cfi_def_cfa_offset 8
  66              		.cfi_offset 3, -8
  67              		.cfi_offset 14, -4
  68              		.loc 1 276 3 view .LVU9
  69 0002 084B     		ldr	r3, .L5
  70              		.loc 1 278 5 view .LVU10
  71 0004 0848     		ldr	r0, .L5+4
  72 0006 4FF47A71 		mov	r1, #1000
  73              		.loc 1 276 3 view .LVU11
  74 000a 0122     		movs	r2, #1
  75 000c 1A60     		str	r2, [r3]
  76              		.loc 1 278 5 is_stmt 1 view .LVU12
  77 000e FFF7FEFF 		bl	chGuardedPoolAllocTimeout
  78              	.LVL2:
  79 0012 B0FA80F0 		clz	r0, r0
  80              		.loc 1 281 1 is_stmt 0 view .LVU13
  81 0016 BDE80840 		pop	{r3, lr}
  82              		.cfi_restore 14
  83              		.cfi_restore 3
  84              		.cfi_def_cfa_offset 0
  85              		.loc 1 278 5 view .LVU14
  86 001a 0449     		ldr	r1, .L5+8
  87 001c 4009     		lsrs	r0, r0, #5
  88 001e FFF7FEBF 		b	__test_assert
  89              	.LVL3:
  90              	.L6:
  91 0022 00BF     		.align	2
  92              	.L5:
  93 0024 00000000 		.word	chtest
  94 0028 00000000 		.word	.LANCHOR0
  95 002c 00000000 		.word	.LC0
  96              		.cfi_endproc
  97              	.LFE410:
  98              		.size	oslib_test_007_003_execute, .-oslib_test_007_003_execute
  99              		.section	.text.oslib_test_007_002_setup,"ax",%progbits
 100              		.align	1
 101              		.p2align 4,,15
 102              		.syntax unified
 103              		.thumb
 104              		.thumb_func
 105              		.fpu softvfp
 106              		.type	oslib_test_007_002_setup, %function
 107              	oslib_test_007_002_setup:
 108              	.LFB407:
 109              		.loc 1 185 44 is_stmt 1 view -0
 110              		.cfi_startproc
 111              		@ args = 0, pretend = 0, frame = 0
ARM GAS  /tmp/ccemmW2o.s 			page 3


 112              		@ frame_needed = 0, uses_anonymous_args = 0
 113              		@ link register save eliminated.
 114              		.loc 1 186 3 view .LVU16
 115              	.LVL4:
 116              	.LBB12:
 117              	.LBI12:
 118              		.file 2 "../ChibiOS/os/oslib/include/chmempools.h"
 119              		.loc 2 245 20 view .LVU17
 120              	.LBB13:
 121              		.loc 2 248 3 view .LVU18
 122 0000 0422     		movs	r2, #4
 123 0002 0248     		ldr	r0, .L8
 124 0004 1146     		mov	r1, r2
 125 0006 FFF7FEBF 		b	chGuardedPoolObjectInitAligned
 126              	.LVL5:
 127              	.L9:
 128 000a 00BF     		.align	2
 129              	.L8:
 130 000c 00000000 		.word	.LANCHOR0
 131              	.LBE13:
 132              	.LBE12:
 133              		.cfi_endproc
 134              	.LFE407:
 135              		.size	oslib_test_007_002_setup, .-oslib_test_007_002_setup
 136              		.section	.rodata.oslib_test_007_002_execute.str1.4,"aMS",%progbits,1
 137              		.align	2
 138              	.LC1:
 139 0000 6C697374 		.ascii	"list empty\000"
 139      20656D70 
 139      747900
 140              		.section	.text.oslib_test_007_002_execute,"ax",%progbits
 141              		.align	1
 142              		.p2align 4,,15
 143              		.syntax unified
 144              		.thumb
 145              		.thumb_func
 146              		.fpu softvfp
 147              		.type	oslib_test_007_002_execute, %function
 148              	oslib_test_007_002_execute:
 149              	.LFB408:
 150              		.loc 1 189 46 view -0
 151              		.cfi_startproc
 152              		@ args = 0, pretend = 0, frame = 0
 153              		@ frame_needed = 0, uses_anonymous_args = 0
 154              		.loc 1 190 3 view .LVU20
 155              		.loc 1 194 3 view .LVU21
 156              		.loc 1 189 46 is_stmt 0 view .LVU22
 157 0000 F8B5     		push	{r3, r4, r5, r6, r7, lr}
 158              		.cfi_def_cfa_offset 24
 159              		.cfi_offset 3, -24
 160              		.cfi_offset 4, -20
 161              		.cfi_offset 5, -16
 162              		.cfi_offset 6, -12
 163              		.cfi_offset 7, -8
 164              		.cfi_offset 14, -4
 165              		.loc 1 194 3 view .LVU23
 166 0002 2B4D     		ldr	r5, .L21
ARM GAS  /tmp/ccemmW2o.s 			page 4


 167              		.loc 1 196 5 view .LVU24
 168 0004 2B49     		ldr	r1, .L21+4
 169 0006 2C48     		ldr	r0, .L21+8
 170              		.loc 1 204 7 view .LVU25
 171 0008 2B4F     		ldr	r7, .L21+8
 172 000a 2C4E     		ldr	r6, .L21+12
 173              		.loc 1 194 3 view .LVU26
 174 000c 0123     		movs	r3, #1
 175              		.loc 1 196 5 view .LVU27
 176 000e 0422     		movs	r2, #4
 177              		.loc 1 194 3 view .LVU28
 178 0010 2B60     		str	r3, [r5]
 179              		.loc 1 196 5 is_stmt 1 view .LVU29
 180 0012 FFF7FEFF 		bl	chGuardedPoolLoadArray
 181              	.LVL6:
 182              		.loc 1 198 3 view .LVU30
 183              		.loc 1 198 19 view .LVU31
 184              		.loc 1 201 3 view .LVU32
 185 0016 0223     		movs	r3, #2
 186 0018 2B60     		str	r3, [r5]
 187              		.loc 1 203 5 view .LVU33
 188              	.LVL7:
 189              		.loc 1 203 17 view .LVU34
 190              		.loc 1 201 3 is_stmt 0 view .LVU35
 191 001a 0424     		movs	r4, #4
 192              	.LVL8:
 193              	.L13:
 194              		.loc 1 204 7 is_stmt 1 view .LVU36
 195 001c 0021     		movs	r1, #0
 196 001e 3846     		mov	r0, r7
 197 0020 FFF7FEFF 		bl	chGuardedPoolAllocTimeout
 198              	.LVL9:
 199 0024 0038     		subs	r0, r0, #0
 200 0026 18BF     		it	ne
 201 0028 0120     		movne	r0, #1
 202 002a 3146     		mov	r1, r6
 203 002c FFF7FEFF 		bl	__test_assert
 204              	.LVL10:
 205              		.loc 1 203 39 view .LVU37
 206              		.loc 1 203 17 view .LVU38
 207              		.loc 1 204 7 is_stmt 0 view .LVU39
 208 0030 0028     		cmp	r0, #0
 209 0032 3BD1     		bne	.L10
 210              		.loc 1 203 5 discriminator 2 view .LVU40
 211 0034 013C     		subs	r4, r4, #1
 212              	.LVL11:
 213              		.loc 1 203 5 discriminator 2 view .LVU41
 214 0036 F1D1     		bne	.L13
 215              		.loc 1 204 90 is_stmt 1 view .LVU42
 216              		.loc 1 206 3 view .LVU43
 217              		.loc 1 206 19 view .LVU44
 218              		.loc 1 209 3 view .LVU45
 219              		.loc 1 211 5 is_stmt 0 view .LVU46
 220 0038 2146     		mov	r1, r4
 221              		.loc 1 209 3 view .LVU47
 222 003a 0323     		movs	r3, #3
 223              		.loc 1 211 5 view .LVU48
ARM GAS  /tmp/ccemmW2o.s 			page 5


 224 003c 1E48     		ldr	r0, .L21+8
 225              		.loc 1 209 3 view .LVU49
 226 003e 2B60     		str	r3, [r5]
 227              		.loc 1 211 5 is_stmt 1 view .LVU50
 228 0040 FFF7FEFF 		bl	chGuardedPoolAllocTimeout
 229              	.LVL12:
 230 0044 B0FA80F0 		clz	r0, r0
 231 0048 1D49     		ldr	r1, .L21+16
 232 004a 4009     		lsrs	r0, r0, #5
 233 004c FFF7FEFF 		bl	__test_assert
 234              	.LVL13:
 235 0050 60BB     		cbnz	r0, .L10
 236              		.loc 1 211 92 discriminator 2 view .LVU51
 237              		.loc 1 213 3 discriminator 2 view .LVU52
 238              		.loc 1 213 19 discriminator 2 view .LVU53
 239              		.loc 1 217 3 discriminator 2 view .LVU54
 240 0052 184C     		ldr	r4, .L21+4
 241              	.LVL14:
 242              		.loc 1 220 7 is_stmt 0 discriminator 2 view .LVU55
 243 0054 184F     		ldr	r7, .L21+8
 244              		.loc 1 217 3 discriminator 2 view .LVU56
 245 0056 0423     		movs	r3, #4
 246 0058 2B60     		str	r3, [r5]
 247              		.loc 1 219 5 is_stmt 1 discriminator 2 view .LVU57
 248              	.LVL15:
 249              		.loc 1 219 17 discriminator 2 view .LVU58
 250 005a 04F11006 		add	r6, r4, #16
 251              	.LVL16:
 252              	.L15:
 253              		.loc 1 220 7 discriminator 3 view .LVU59
 254 005e 2146     		mov	r1, r4
 255 0060 3846     		mov	r0, r7
 256              		.loc 1 219 5 is_stmt 0 discriminator 3 view .LVU60
 257 0062 0434     		adds	r4, r4, #4
 258              		.loc 1 220 7 discriminator 3 view .LVU61
 259 0064 FFF7FEFF 		bl	chGuardedPoolFree
 260              	.LVL17:
 261              		.loc 1 219 39 is_stmt 1 discriminator 3 view .LVU62
 262              		.loc 1 219 17 discriminator 3 view .LVU63
 263              		.loc 1 219 5 is_stmt 0 discriminator 3 view .LVU64
 264 0068 B442     		cmp	r4, r6
 265 006a F8D1     		bne	.L15
 266              		.loc 1 222 3 is_stmt 1 view .LVU65
 267              		.loc 1 222 19 view .LVU66
 268              		.loc 1 226 3 view .LVU67
 269 006c 0523     		movs	r3, #5
 270              		.loc 1 229 7 is_stmt 0 view .LVU68
 271 006e 124F     		ldr	r7, .L21+8
 272 0070 124E     		ldr	r6, .L21+12
 273              		.loc 1 226 3 view .LVU69
 274 0072 2B60     		str	r3, [r5]
 275              		.loc 1 228 5 is_stmt 1 view .LVU70
 276              	.LVL18:
 277              		.loc 1 228 17 view .LVU71
 278              		.loc 1 226 3 is_stmt 0 view .LVU72
 279 0074 0424     		movs	r4, #4
 280              	.LVL19:
ARM GAS  /tmp/ccemmW2o.s 			page 6


 281              	.L16:
 282              		.loc 1 229 7 is_stmt 1 view .LVU73
 283 0076 0021     		movs	r1, #0
 284 0078 3846     		mov	r0, r7
 285 007a FFF7FEFF 		bl	chGuardedPoolAllocTimeout
 286              	.LVL20:
 287 007e 0038     		subs	r0, r0, #0
 288 0080 18BF     		it	ne
 289 0082 0120     		movne	r0, #1
 290 0084 3146     		mov	r1, r6
 291 0086 FFF7FEFF 		bl	__test_assert
 292              	.LVL21:
 293              		.loc 1 228 39 view .LVU74
 294              		.loc 1 228 17 view .LVU75
 295              		.loc 1 229 7 is_stmt 0 view .LVU76
 296 008a 78B9     		cbnz	r0, .L10
 297              		.loc 1 228 5 discriminator 2 view .LVU77
 298 008c 013C     		subs	r4, r4, #1
 299              	.LVL22:
 300              		.loc 1 228 5 discriminator 2 view .LVU78
 301 008e F2D1     		bne	.L16
 302              		.loc 1 229 90 is_stmt 1 view .LVU79
 303              		.loc 1 231 3 view .LVU80
 304              		.loc 1 231 19 view .LVU81
 305              		.loc 1 234 3 view .LVU82
 306              		.loc 1 236 5 is_stmt 0 view .LVU83
 307 0090 2146     		mov	r1, r4
 308              		.loc 1 234 3 view .LVU84
 309 0092 0623     		movs	r3, #6
 310              		.loc 1 236 5 view .LVU85
 311 0094 0848     		ldr	r0, .L21+8
 312              		.loc 1 234 3 view .LVU86
 313 0096 2B60     		str	r3, [r5]
 314              		.loc 1 236 5 is_stmt 1 view .LVU87
 315 0098 FFF7FEFF 		bl	chGuardedPoolAllocTimeout
 316              	.LVL23:
 317 009c B0FA80F0 		clz	r0, r0
 318              		.loc 1 239 1 is_stmt 0 view .LVU88
 319 00a0 BDE8F840 		pop	{r3, r4, r5, r6, r7, lr}
 320              		.cfi_remember_state
 321              		.cfi_restore 14
 322              		.cfi_restore 7
 323              		.cfi_restore 6
 324              		.cfi_restore 5
 325              		.cfi_restore 4
 326              		.cfi_restore 3
 327              		.cfi_def_cfa_offset 0
 328              	.LVL24:
 329              		.loc 1 236 5 view .LVU89
 330 00a4 0649     		ldr	r1, .L21+16
 331 00a6 4009     		lsrs	r0, r0, #5
 332 00a8 FFF7FEBF 		b	__test_assert
 333              	.LVL25:
 334              	.L10:
 335              		.cfi_restore_state
 336              		.loc 1 239 1 view .LVU90
 337 00ac F8BD     		pop	{r3, r4, r5, r6, r7, pc}
ARM GAS  /tmp/ccemmW2o.s 			page 7


 338              	.L22:
 339 00ae 00BF     		.align	2
 340              	.L21:
 341 00b0 00000000 		.word	chtest
 342 00b4 00000000 		.word	.LANCHOR1
 343 00b8 00000000 		.word	.LANCHOR0
 344 00bc 00000000 		.word	.LC1
 345 00c0 00000000 		.word	.LC0
 346              		.cfi_endproc
 347              	.LFE408:
 348              		.size	oslib_test_007_002_execute, .-oslib_test_007_002_execute
 349              		.section	.rodata.oslib_test_007_001_execute.str1.4,"aMS",%progbits,1
 350              		.align	2
 351              	.LC2:
 352 0000 70726F76 		.ascii	"provider returned memory\000"
 352      69646572 
 352      20726574 
 352      75726E65 
 352      64206D65 
 353              		.section	.text.oslib_test_007_001_execute,"ax",%progbits
 354              		.align	1
 355              		.p2align 4,,15
 356              		.syntax unified
 357              		.thumb
 358              		.thumb_func
 359              		.fpu softvfp
 360              		.type	oslib_test_007_001_execute, %function
 361              	oslib_test_007_001_execute:
 362              	.LFB406:
 363              		.loc 1 95 46 is_stmt 1 view -0
 364              		.cfi_startproc
 365              		@ args = 0, pretend = 0, frame = 0
 366              		@ frame_needed = 0, uses_anonymous_args = 0
 367              		.loc 1 96 3 view .LVU92
 368              		.loc 1 99 3 view .LVU93
 369              		.loc 1 95 46 is_stmt 0 view .LVU94
 370 0000 F8B5     		push	{r3, r4, r5, r6, r7, lr}
 371              		.cfi_def_cfa_offset 24
 372              		.cfi_offset 3, -24
 373              		.cfi_offset 4, -20
 374              		.cfi_offset 5, -16
 375              		.cfi_offset 6, -12
 376              		.cfi_offset 7, -8
 377              		.cfi_offset 14, -4
 378              		.loc 1 99 3 view .LVU95
 379 0002 324D     		ldr	r5, .L34
 380              		.loc 1 101 5 view .LVU96
 381 0004 3249     		ldr	r1, .L34+4
 382 0006 3348     		ldr	r0, .L34+8
 383              		.loc 1 109 7 view .LVU97
 384 0008 324F     		ldr	r7, .L34+8
 385 000a 334E     		ldr	r6, .L34+12
 386              		.loc 1 99 3 view .LVU98
 387 000c 0123     		movs	r3, #1
 388              		.loc 1 101 5 view .LVU99
 389 000e 0422     		movs	r2, #4
 390              		.loc 1 99 3 view .LVU100
ARM GAS  /tmp/ccemmW2o.s 			page 8


 391 0010 2B60     		str	r3, [r5]
 392              		.loc 1 101 5 is_stmt 1 view .LVU101
 393 0012 FFF7FEFF 		bl	chPoolLoadArray
 394              	.LVL26:
 395              		.loc 1 103 3 view .LVU102
 396              		.loc 1 103 19 view .LVU103
 397              		.loc 1 106 3 view .LVU104
 398 0016 0223     		movs	r3, #2
 399 0018 2B60     		str	r3, [r5]
 400              		.loc 1 108 5 view .LVU105
 401              	.LVL27:
 402              		.loc 1 108 17 view .LVU106
 403              		.loc 1 106 3 is_stmt 0 view .LVU107
 404 001a 0424     		movs	r4, #4
 405              	.LVL28:
 406              	.L26:
 407              		.loc 1 109 7 is_stmt 1 view .LVU108
 408 001c 3846     		mov	r0, r7
 409 001e FFF7FEFF 		bl	chPoolAlloc
 410              	.LVL29:
 411 0022 0038     		subs	r0, r0, #0
 412 0024 18BF     		it	ne
 413 0026 0120     		movne	r0, #1
 414 0028 3146     		mov	r1, r6
 415 002a FFF7FEFF 		bl	__test_assert
 416              	.LVL30:
 417              		.loc 1 108 39 view .LVU109
 418              		.loc 1 108 17 view .LVU110
 419              		.loc 1 109 7 is_stmt 0 view .LVU111
 420 002e 0028     		cmp	r0, #0
 421 0030 4BD1     		bne	.L23
 422              		.loc 1 108 5 discriminator 2 view .LVU112
 423 0032 013C     		subs	r4, r4, #1
 424              	.LVL31:
 425              		.loc 1 108 5 discriminator 2 view .LVU113
 426 0034 F2D1     		bne	.L26
 427              		.loc 1 109 59 is_stmt 1 view .LVU114
 428              		.loc 1 111 3 view .LVU115
 429              		.loc 1 111 19 view .LVU116
 430              		.loc 1 114 3 view .LVU117
 431 0036 0323     		movs	r3, #3
 432              		.loc 1 116 5 is_stmt 0 view .LVU118
 433 0038 2648     		ldr	r0, .L34+8
 434              		.loc 1 114 3 view .LVU119
 435 003a 2B60     		str	r3, [r5]
 436              		.loc 1 116 5 is_stmt 1 view .LVU120
 437 003c FFF7FEFF 		bl	chPoolAlloc
 438              	.LVL32:
 439 0040 B0FA80F0 		clz	r0, r0
 440 0044 2549     		ldr	r1, .L34+16
 441 0046 4009     		lsrs	r0, r0, #5
 442 0048 FFF7FEFF 		bl	__test_assert
 443              	.LVL33:
 444 004c 0028     		cmp	r0, #0
 445 004e 3CD1     		bne	.L23
 446              		.loc 1 116 61 discriminator 2 view .LVU121
 447              		.loc 1 118 3 discriminator 2 view .LVU122
ARM GAS  /tmp/ccemmW2o.s 			page 9


 448              		.loc 1 118 19 discriminator 2 view .LVU123
 449              		.loc 1 121 3 discriminator 2 view .LVU124
 450 0050 1F4C     		ldr	r4, .L34+4
 451              	.LVL34:
 452              		.loc 1 124 7 is_stmt 0 discriminator 2 view .LVU125
 453 0052 204F     		ldr	r7, .L34+8
 454              		.loc 1 121 3 discriminator 2 view .LVU126
 455 0054 0423     		movs	r3, #4
 456 0056 2B60     		str	r3, [r5]
 457              		.loc 1 123 5 is_stmt 1 discriminator 2 view .LVU127
 458              	.LVL35:
 459              		.loc 1 123 17 discriminator 2 view .LVU128
 460 0058 04F11006 		add	r6, r4, #16
 461              	.LVL36:
 462              	.L28:
 463              		.loc 1 124 7 discriminator 3 view .LVU129
 464 005c 2146     		mov	r1, r4
 465 005e 3846     		mov	r0, r7
 466              		.loc 1 123 5 is_stmt 0 discriminator 3 view .LVU130
 467 0060 0434     		adds	r4, r4, #4
 468              		.loc 1 124 7 discriminator 3 view .LVU131
 469 0062 FFF7FEFF 		bl	chPoolFree
 470              	.LVL37:
 471              		.loc 1 123 39 is_stmt 1 discriminator 3 view .LVU132
 472              		.loc 1 123 17 discriminator 3 view .LVU133
 473              		.loc 1 123 5 is_stmt 0 discriminator 3 view .LVU134
 474 0066 B442     		cmp	r4, r6
 475 0068 F8D1     		bne	.L28
 476              		.loc 1 126 3 is_stmt 1 view .LVU135
 477              		.loc 1 126 19 view .LVU136
 478              		.loc 1 129 3 view .LVU137
 479 006a 0523     		movs	r3, #5
 480              		.loc 1 132 7 is_stmt 0 view .LVU138
 481 006c 194F     		ldr	r7, .L34+8
 482 006e 1A4E     		ldr	r6, .L34+12
 483              		.loc 1 129 3 view .LVU139
 484 0070 2B60     		str	r3, [r5]
 485              		.loc 1 131 5 is_stmt 1 view .LVU140
 486              	.LVL38:
 487              		.loc 1 131 17 view .LVU141
 488              		.loc 1 129 3 is_stmt 0 view .LVU142
 489 0072 0424     		movs	r4, #4
 490              	.LVL39:
 491              	.L29:
 492              		.loc 1 132 7 is_stmt 1 view .LVU143
 493 0074 3846     		mov	r0, r7
 494 0076 FFF7FEFF 		bl	chPoolAlloc
 495              	.LVL40:
 496 007a 0038     		subs	r0, r0, #0
 497 007c 18BF     		it	ne
 498 007e 0120     		movne	r0, #1
 499 0080 3146     		mov	r1, r6
 500 0082 FFF7FEFF 		bl	__test_assert
 501              	.LVL41:
 502              		.loc 1 131 39 view .LVU144
 503              		.loc 1 131 17 view .LVU145
 504              		.loc 1 132 7 is_stmt 0 view .LVU146
ARM GAS  /tmp/ccemmW2o.s 			page 10


 505 0086 00BB     		cbnz	r0, .L23
 506              		.loc 1 131 5 discriminator 2 view .LVU147
 507 0088 013C     		subs	r4, r4, #1
 508              	.LVL42:
 509              		.loc 1 131 5 discriminator 2 view .LVU148
 510 008a F3D1     		bne	.L29
 511              		.loc 1 132 59 is_stmt 1 view .LVU149
 512              		.loc 1 134 3 view .LVU150
 513              		.loc 1 134 19 view .LVU151
 514              		.loc 1 137 3 view .LVU152
 515 008c 0623     		movs	r3, #6
 516              		.loc 1 139 5 is_stmt 0 view .LVU153
 517 008e 1148     		ldr	r0, .L34+8
 518              		.loc 1 137 3 view .LVU154
 519 0090 2B60     		str	r3, [r5]
 520              		.loc 1 139 5 is_stmt 1 view .LVU155
 521 0092 FFF7FEFF 		bl	chPoolAlloc
 522              	.LVL43:
 523 0096 B0FA80F0 		clz	r0, r0
 524 009a 1049     		ldr	r1, .L34+16
 525 009c 4009     		lsrs	r0, r0, #5
 526 009e FFF7FEFF 		bl	__test_assert
 527              	.LVL44:
 528 00a2 90B9     		cbnz	r0, .L23
 529              		.loc 1 139 61 discriminator 2 view .LVU156
 530              		.loc 1 141 3 discriminator 2 view .LVU157
 531              		.loc 1 141 19 discriminator 2 view .LVU158
 532              		.loc 1 145 3 discriminator 2 view .LVU159
 533              	.LBB14:
 534              	.LBB15:
 535              		.loc 2 193 3 is_stmt 0 discriminator 2 view .LVU160
 536 00a4 0422     		movs	r2, #4
 537 00a6 0E4B     		ldr	r3, .L34+20
 538 00a8 0A48     		ldr	r0, .L34+8
 539 00aa 1146     		mov	r1, r2
 540              	.LBE15:
 541              	.LBE14:
 542              		.loc 1 145 3 discriminator 2 view .LVU161
 543 00ac 0724     		movs	r4, #7
 544              	.LVL45:
 545              		.loc 1 145 3 discriminator 2 view .LVU162
 546 00ae 2C60     		str	r4, [r5]
 547              		.loc 1 147 5 is_stmt 1 discriminator 2 view .LVU163
 548              	.LVL46:
 549              	.LBB17:
 550              	.LBI14:
 551              		.loc 2 189 20 discriminator 2 view .LVU164
 552              	.LBB16:
 553              		.loc 2 193 3 discriminator 2 view .LVU165
 554 00b0 FFF7FEFF 		bl	chPoolObjectInitAligned
 555              	.LVL47:
 556              		.loc 2 193 3 is_stmt 0 discriminator 2 view .LVU166
 557              	.LBE16:
 558              	.LBE17:
 559              		.loc 1 148 5 is_stmt 1 discriminator 2 view .LVU167
 560 00b4 0748     		ldr	r0, .L34+8
 561 00b6 FFF7FEFF 		bl	chPoolAlloc
ARM GAS  /tmp/ccemmW2o.s 			page 11


 562              	.LVL48:
 563 00ba B0FA80F0 		clz	r0, r0
 564              		.loc 1 151 1 is_stmt 0 discriminator 2 view .LVU168
 565 00be BDE8F840 		pop	{r3, r4, r5, r6, r7, lr}
 566              		.cfi_remember_state
 567              		.cfi_restore 14
 568              		.cfi_restore 7
 569              		.cfi_restore 6
 570              		.cfi_restore 5
 571              		.cfi_restore 4
 572              		.cfi_restore 3
 573              		.cfi_def_cfa_offset 0
 574              		.loc 1 148 5 discriminator 2 view .LVU169
 575 00c2 0849     		ldr	r1, .L34+24
 576 00c4 4009     		lsrs	r0, r0, #5
 577 00c6 FFF7FEBF 		b	__test_assert
 578              	.LVL49:
 579              	.L23:
 580              		.cfi_restore_state
 581              		.loc 1 151 1 view .LVU170
 582 00ca F8BD     		pop	{r3, r4, r5, r6, r7, pc}
 583              	.L35:
 584              		.align	2
 585              	.L34:
 586 00cc 00000000 		.word	chtest
 587 00d0 00000000 		.word	.LANCHOR1
 588 00d4 00000000 		.word	.LANCHOR2
 589 00d8 00000000 		.word	.LC1
 590 00dc 00000000 		.word	.LC0
 591 00e0 00000000 		.word	null_provider
 592 00e4 00000000 		.word	.LC2
 593              		.cfi_endproc
 594              	.LFE406:
 595              		.size	oslib_test_007_001_execute, .-oslib_test_007_001_execute
 596              		.section	.text.oslib_test_007_001_setup,"ax",%progbits
 597              		.align	1
 598              		.p2align 4,,15
 599              		.syntax unified
 600              		.thumb
 601              		.thumb_func
 602              		.fpu softvfp
 603              		.type	oslib_test_007_001_setup, %function
 604              	oslib_test_007_001_setup:
 605              	.LFB405:
 606              		.loc 1 91 44 is_stmt 1 view -0
 607              		.cfi_startproc
 608              		@ args = 0, pretend = 0, frame = 0
 609              		@ frame_needed = 0, uses_anonymous_args = 0
 610              		@ link register save eliminated.
 611              		.loc 1 92 3 view .LVU172
 612              	.LVL50:
 613              	.LBB18:
 614              	.LBI18:
 615              		.loc 2 189 20 view .LVU173
 616              	.LBB19:
 617              		.loc 2 193 3 view .LVU174
 618 0000 0422     		movs	r2, #4
ARM GAS  /tmp/ccemmW2o.s 			page 12


 619 0002 0248     		ldr	r0, .L37
 620 0004 0023     		movs	r3, #0
 621 0006 1146     		mov	r1, r2
 622 0008 FFF7FEBF 		b	chPoolObjectInitAligned
 623              	.LVL51:
 624              	.L38:
 625              		.align	2
 626              	.L37:
 627 000c 00000000 		.word	.LANCHOR2
 628              	.LBE19:
 629              	.LBE18:
 630              		.cfi_endproc
 631              	.LFE405:
 632              		.size	oslib_test_007_001_setup, .-oslib_test_007_001_setup
 633              		.section	.text.oslib_test_007_003_setup,"ax",%progbits
 634              		.align	1
 635              		.p2align 4,,15
 636              		.syntax unified
 637              		.thumb
 638              		.thumb_func
 639              		.fpu softvfp
 640              		.type	oslib_test_007_003_setup, %function
 641              	oslib_test_007_003_setup:
 642              	.LFB412:
 643              		.cfi_startproc
 644              		@ args = 0, pretend = 0, frame = 0
 645              		@ frame_needed = 0, uses_anonymous_args = 0
 646              		@ link register save eliminated.
 647 0000 0422     		movs	r2, #4
 648 0002 0248     		ldr	r0, .L40
 649 0004 1146     		mov	r1, r2
 650 0006 FFF7FEBF 		b	chGuardedPoolObjectInitAligned
 651              	.L41:
 652 000a 00BF     		.align	2
 653              	.L40:
 654 000c 00000000 		.word	.LANCHOR0
 655              		.cfi_endproc
 656              	.LFE412:
 657              		.size	oslib_test_007_003_setup, .-oslib_test_007_003_setup
 658              		.global	oslib_test_sequence_007
 659              		.section	.rodata.str1.4,"aMS",%progbits,1
 660              		.align	2
 661              	.LC3:
 662 0000 4D656D6F 		.ascii	"Memory Pools\000"
 662      72792050 
 662      6F6F6C73 
 662      00
 663              		.global	oslib_test_sequence_007_array
 664 000d 000000   		.align	2
 665              	.LC4:
 666 0010 47756172 		.ascii	"Guarded Memory Pools timeout\000"
 666      64656420 
 666      4D656D6F 
 666      72792050 
 666      6F6F6C73 
 667 002d 000000   		.align	2
 668              	.LC5:
ARM GAS  /tmp/ccemmW2o.s 			page 13


 669 0030 4C6F6164 		.ascii	"Loading and emptying a guarded memory pool without "
 669      696E6720 
 669      616E6420 
 669      656D7074 
 669      79696E67 
 670 0063 77616974 		.ascii	"waiting\000"
 670      696E6700 
 671 006b 00       		.align	2
 672              	.LC6:
 673 006c 4C6F6164 		.ascii	"Loading and emptying a memory pool\000"
 673      696E6720 
 673      616E6420 
 673      656D7074 
 673      79696E67 
 674              		.section	.bss.objects,"aw",%nobits
 675              		.align	2
 676              		.set	.LANCHOR1,. + 0
 677              		.type	objects, %object
 678              		.size	objects, 16
 679              	objects:
 680 0000 00000000 		.space	16
 680      00000000 
 680      00000000 
 680      00000000 
 681              		.section	.data.gmp1,"aw"
 682              		.align	2
 683              		.set	.LANCHOR0,. + 0
 684              		.type	gmp1, %object
 685              		.size	gmp1, 28
 686              	gmp1:
 687 0000 00000000 		.word	gmp1
 688 0004 00000000 		.word	gmp1
 689 0008 00000000 		.word	0
 690 000c 00000000 		.word	0
 691 0010 04000000 		.word	4
 692 0014 04000000 		.word	4
 693 0018 00000000 		.word	0
 694              		.section	.data.mp1,"aw"
 695              		.align	2
 696              		.set	.LANCHOR2,. + 0
 697              		.type	mp1, %object
 698              		.size	mp1, 16
 699              	mp1:
 700 0000 00000000 		.word	0
 701 0004 04000000 		.word	4
 702 0008 04000000 		.word	4
 703 000c 00000000 		.word	0
 704              		.section	.rodata.oslib_test_007_001,"a"
 705              		.align	2
 706              		.type	oslib_test_007_001, %object
 707              		.size	oslib_test_007_001, 16
 708              	oslib_test_007_001:
 709 0000 6C000000 		.word	.LC6
 710 0004 00000000 		.word	oslib_test_007_001_setup
 711 0008 00000000 		.word	0
 712 000c 00000000 		.word	oslib_test_007_001_execute
 713              		.section	.rodata.oslib_test_007_002,"a"
ARM GAS  /tmp/ccemmW2o.s 			page 14


 714              		.align	2
 715              		.type	oslib_test_007_002, %object
 716              		.size	oslib_test_007_002, 16
 717              	oslib_test_007_002:
 718 0000 30000000 		.word	.LC5
 719 0004 00000000 		.word	oslib_test_007_002_setup
 720 0008 00000000 		.word	0
 721 000c 00000000 		.word	oslib_test_007_002_execute
 722              		.section	.rodata.oslib_test_007_003,"a"
 723              		.align	2
 724              		.type	oslib_test_007_003, %object
 725              		.size	oslib_test_007_003, 16
 726              	oslib_test_007_003:
 727 0000 10000000 		.word	.LC4
 728 0004 00000000 		.word	oslib_test_007_003_setup
 729 0008 00000000 		.word	0
 730 000c 00000000 		.word	oslib_test_007_003_execute
 731              		.section	.rodata.oslib_test_sequence_007,"a"
 732              		.align	2
 733              		.type	oslib_test_sequence_007, %object
 734              		.size	oslib_test_sequence_007, 8
 735              	oslib_test_sequence_007:
 736 0000 00000000 		.word	.LC3
 737 0004 00000000 		.word	oslib_test_sequence_007_array
 738              		.section	.rodata.oslib_test_sequence_007_array,"a"
 739              		.align	2
 740              		.type	oslib_test_sequence_007_array, %object
 741              		.size	oslib_test_sequence_007_array, 16
 742              	oslib_test_sequence_007_array:
 743 0000 00000000 		.word	oslib_test_007_001
 744 0004 00000000 		.word	oslib_test_007_002
 745 0008 00000000 		.word	oslib_test_007_003
 746 000c 00000000 		.word	0
 747              		.text
 748              	.Letext0:
 749              		.file 3 "/opt/gcc-arm-none-eabi/gcc-arm-none-eabi-10.3-2021.07/lib/gcc/arm-none-eabi/10.3.1/includ
 750              		.file 4 "/opt/gcc-arm-none-eabi/gcc-arm-none-eabi-10.3-2021.07/arm-none-eabi/include/machine/_defa
 751              		.file 5 "/opt/gcc-arm-none-eabi/gcc-arm-none-eabi-10.3-2021.07/arm-none-eabi/include/sys/_stdint.h
 752              		.file 6 "../ChibiOS/os/rt/include/chearly.h"
 753              		.file 7 "../ChibiOS/os/rt/include/chtime.h"
 754              		.file 8 "../ChibiOS/os/rt/include/chlists.h"
 755              		.file 9 "../ChibiOS/os/rt/include/chsem.h"
 756              		.file 10 "../ChibiOS/os/oslib/include/chmemcore.h"
 757              		.file 11 "../ChibiOS/os/hal/include/hal_streams.h"
 758              		.file 12 "../ChibiOS/os/test/include/ch_test.h"
 759              		.file 13 "../ChibiOS/test/oslib/source/test/oslib_test_sequence_007.h"