ARM GAS  /tmp/ccCjvsqg.s 			page 1


   1              		.cpu cortex-m4
   2              		.eabi_attribute 20, 1
   3              		.eabi_attribute 21, 1
   4              		.eabi_attribute 23, 3
   5              		.eabi_attribute 24, 1
   6              		.eabi_attribute 25, 1
   7              		.eabi_attribute 26, 1
   8              		.eabi_attribute 30, 2
   9              		.eabi_attribute 34, 1
  10              		.eabi_attribute 18, 4
  11              		.file	"oslib_test_sequence_008.c"
  12              		.text
  13              	.Ltext0:
  14              		.cfi_sections	.debug_frame
  15              		.section	.rodata.oslib_test_008_002_execute.str1.4,"aMS",%progbits,1
  16              		.align	2
  17              	.LC0:
  18 0000 616C6C6F 		.ascii	"allocation failed\000"
  18      63617469 
  18      6F6E2066 
  18      61696C65 
  18      6400
  19 0012 0000     		.align	2
  20              	.LC1:
  21 0014 616C6C6F 		.ascii	"allocation not failed\000"
  21      63617469 
  21      6F6E206E 
  21      6F742066 
  21      61696C65 
  22              		.section	.text.oslib_test_008_002_execute,"ax",%progbits
  23              		.align	1
  24              		.p2align 4,,15
  25              		.arch armv7e-m
  26              		.syntax unified
  27              		.thumb
  28              		.thumb_func
  29              		.fpu softvfp
  30              		.type	oslib_test_008_002_execute, %function
  31              	oslib_test_008_002_execute:
  32              	.LFB406:
  33              		.file 1 "../ChibiOS/test/oslib/source/test/oslib_test_sequence_008.c"
  34              		.loc 1 240 46 view -0
  35              		.cfi_startproc
  36              		@ args = 0, pretend = 0, frame = 8
  37              		@ frame_needed = 0, uses_anonymous_args = 0
  38              		.loc 1 241 3 view .LVU1
  39              		.loc 1 242 3 view .LVU2
  40              		.loc 1 246 3 view .LVU3
  41              		.loc 1 240 46 is_stmt 0 view .LVU4
  42 0000 70B5     		push	{r4, r5, r6, lr}
  43              		.cfi_def_cfa_offset 16
  44              		.cfi_offset 4, -16
  45              		.cfi_offset 5, -12
  46              		.cfi_offset 6, -8
  47              		.cfi_offset 14, -4
  48              		.loc 1 246 3 view .LVU5
  49 0002 164E     		ldr	r6, .L6
ARM GAS  /tmp/ccCjvsqg.s 			page 2


  50              		.loc 1 240 46 view .LVU6
  51 0004 82B0     		sub	sp, sp, #8
  52              		.cfi_def_cfa_offset 24
  53              		.loc 1 246 3 view .LVU7
  54 0006 0123     		movs	r3, #1
  55              		.loc 1 248 11 view .LVU8
  56 0008 01AA     		add	r2, sp, #4
  57 000a 6946     		mov	r1, sp
  58 000c 0020     		movs	r0, #0
  59              		.loc 1 246 3 view .LVU9
  60 000e 3360     		str	r3, [r6]
  61              		.loc 1 248 5 is_stmt 1 view .LVU10
  62              		.loc 1 248 11 is_stmt 0 view .LVU11
  63 0010 FFF7FEFF 		bl	chHeapStatus
  64              	.LVL0:
  65              		.loc 1 249 5 is_stmt 1 view .LVU12
  66              	.LBB37:
  67              	.LBI37:
  68              		.file 2 "../ChibiOS/os/oslib/include/chmemheaps.h"
  69              		.loc 2 154 21 view .LVU13
  70              	.LBB38:
  71              		.loc 2 156 3 view .LVU14
  72              		.loc 2 156 10 is_stmt 0 view .LVU15
  73 0014 1021     		movs	r1, #16
  74 0016 1248     		ldr	r0, .L6+4
  75 0018 0822     		movs	r2, #8
  76 001a FFF7FEFF 		bl	chHeapAllocAligned
  77              	.LVL1:
  78              		.loc 2 156 10 view .LVU16
  79 001e 0546     		mov	r5, r0
  80              	.LVL2:
  81              		.loc 2 156 10 view .LVU17
  82              	.LBE38:
  83              	.LBE37:
  84              		.loc 1 250 5 is_stmt 1 view .LVU18
  85 0020 0038     		subs	r0, r0, #0
  86              	.LVL3:
  87              		.loc 1 250 5 is_stmt 0 view .LVU19
  88 0022 18BF     		it	ne
  89 0024 0120     		movne	r0, #1
  90 0026 0F49     		ldr	r1, .L6+8
  91 0028 FFF7FEFF 		bl	__test_assert
  92              	.LVL4:
  93 002c 08B1     		cbz	r0, .L5
  94              		.loc 1 262 1 view .LVU20
  95 002e 02B0     		add	sp, sp, #8
  96              		.cfi_remember_state
  97              		.cfi_def_cfa_offset 16
  98              		@ sp needed
  99 0030 70BD     		pop	{r4, r5, r6, pc}
 100              	.LVL5:
 101              	.L5:
 102              		.cfi_restore_state
 103              		.loc 1 250 49 is_stmt 1 discriminator 2 view .LVU21
 104              		.loc 1 251 5 discriminator 2 view .LVU22
 105 0032 0446     		mov	r4, r0
 106 0034 2846     		mov	r0, r5
ARM GAS  /tmp/ccCjvsqg.s 			page 3


 107 0036 FFF7FEFF 		bl	chHeapFree
 108              	.LVL6:
 109              		.loc 1 253 3 discriminator 2 view .LVU23
 110              		.loc 1 253 19 discriminator 2 view .LVU24
 111              		.loc 1 256 3 discriminator 2 view .LVU25
 112 003a 0223     		movs	r3, #2
 113              	.LBB39:
 114              	.LBB40:
 115              		.loc 2 156 10 is_stmt 0 discriminator 2 view .LVU26
 116 003c 0822     		movs	r2, #8
 117 003e 6FF0FF01 		mvn	r1, #255
 118 0042 2046     		mov	r0, r4
 119              	.LBE40:
 120              	.LBE39:
 121              		.loc 1 256 3 discriminator 2 view .LVU27
 122 0044 3360     		str	r3, [r6]
 123              		.loc 1 258 5 is_stmt 1 discriminator 2 view .LVU28
 124              	.LVL7:
 125              	.LBB42:
 126              	.LBI39:
 127              		.loc 2 154 21 discriminator 2 view .LVU29
 128              	.LBB41:
 129              		.loc 2 156 3 discriminator 2 view .LVU30
 130              		.loc 2 156 10 is_stmt 0 discriminator 2 view .LVU31
 131 0046 FFF7FEFF 		bl	chHeapAllocAligned
 132              	.LVL8:
 133              		.loc 2 156 10 discriminator 2 view .LVU32
 134              	.LBE41:
 135              	.LBE42:
 136              		.loc 1 259 5 is_stmt 1 discriminator 2 view .LVU33
 137 004a B0FA80F0 		clz	r0, r0
 138              	.LVL9:
 139              		.loc 1 259 5 is_stmt 0 discriminator 2 view .LVU34
 140 004e 0649     		ldr	r1, .L6+12
 141 0050 4009     		lsrs	r0, r0, #5
 142 0052 FFF7FEFF 		bl	__test_assert
 143              	.LVL10:
 144              		.loc 1 259 5 is_stmt 1 discriminator 2 view .LVU35
 145              		.loc 1 262 1 is_stmt 0 discriminator 2 view .LVU36
 146 0056 02B0     		add	sp, sp, #8
 147              		.cfi_def_cfa_offset 16
 148              		@ sp needed
 149 0058 70BD     		pop	{r4, r5, r6, pc}
 150              	.L7:
 151 005a 00BF     		.align	2
 152              	.L6:
 153 005c 00000000 		.word	chtest
 154 0060 00000000 		.word	.LANCHOR0
 155 0064 00000000 		.word	.LC0
 156 0068 14000000 		.word	.LC1
 157              		.cfi_endproc
 158              	.LFE406:
 159              		.size	oslib_test_008_002_execute, .-oslib_test_008_002_execute
 160              		.section	.rodata.oslib_test_008_001_execute.str1.4,"aMS",%progbits,1
 161              		.align	2
 162              	.LC2:
 163 0000 68656170 		.ascii	"heap fragmented\000"
ARM GAS  /tmp/ccCjvsqg.s 			page 4


 163      20667261 
 163      676D656E 
 163      74656400 
 164              		.align	2
 165              	.LC3:
 166 0010 6D697373 		.ascii	"missing free block\000"
 166      696E6720 
 166      66726565 
 166      20626C6F 
 166      636B00
 167 0023 00       		.align	2
 168              	.LC4:
 169 0024 756E6578 		.ascii	"unexpected heap state\000"
 169      70656374 
 169      65642068 
 169      65617020 
 169      73746174 
 170 003a 0000     		.align	2
 171              	.LC5:
 172 003c 696E7661 		.ascii	"invalid state\000"
 172      6C696420 
 172      73746174 
 172      6500
 173 004a 0000     		.align	2
 174              	.LC6:
 175 004c 6E6F7420 		.ascii	"not empty\000"
 175      656D7074 
 175      7900
 176 0056 0000     		.align	2
 177              	.LC7:
 178 0058 73697A65 		.ascii	"size changed\000"
 178      20636861 
 178      6E676564 
 178      00
 179              		.section	.text.oslib_test_008_001_execute,"ax",%progbits
 180              		.align	1
 181              		.p2align 4,,15
 182              		.syntax unified
 183              		.thumb
 184              		.thumb_func
 185              		.fpu softvfp
 186              		.type	oslib_test_008_001_execute, %function
 187              	oslib_test_008_001_execute:
 188              	.LFB405:
 189              		.loc 1 94 46 is_stmt 1 view -0
 190              		.cfi_startproc
 191              		@ args = 0, pretend = 0, frame = 16
 192              		@ frame_needed = 0, uses_anonymous_args = 0
 193              		.loc 1 95 3 view .LVU38
 194              		.loc 1 96 3 view .LVU39
 195              		.loc 1 100 3 view .LVU40
 196              		.loc 1 94 46 is_stmt 0 view .LVU41
 197 0000 2DE9F041 		push	{r4, r5, r6, r7, r8, lr}
 198              		.cfi_def_cfa_offset 24
 199              		.cfi_offset 4, -24
 200              		.cfi_offset 5, -20
 201              		.cfi_offset 6, -16
ARM GAS  /tmp/ccCjvsqg.s 			page 5


 202              		.cfi_offset 7, -12
 203              		.cfi_offset 8, -8
 204              		.cfi_offset 14, -4
 205              		.loc 1 100 3 view .LVU42
 206 0004 C94C     		ldr	r4, .L18
 207              		.loc 1 102 5 view .LVU43
 208 0006 CA48     		ldr	r0, .L18+4
 209              		.loc 1 94 46 view .LVU44
 210 0008 84B0     		sub	sp, sp, #16
 211              		.cfi_def_cfa_offset 40
 212              		.loc 1 102 5 view .LVU45
 213 000a 01A9     		add	r1, sp, #4
 214              		.loc 1 100 3 view .LVU46
 215 000c 0123     		movs	r3, #1
 216              		.loc 1 102 5 view .LVU47
 217 000e 0022     		movs	r2, #0
 218              		.loc 1 100 3 view .LVU48
 219 0010 2360     		str	r3, [r4]
 220              		.loc 1 102 5 is_stmt 1 view .LVU49
 221 0012 FFF7FEFF 		bl	chHeapStatus
 222              	.LVL11:
 223 0016 A0F10100 		sub	r0, #1
 224 001a B0FA80F0 		clz	r0, r0
 225 001e C549     		ldr	r1, .L18+8
 226 0020 4009     		lsrs	r0, r0, #5
 227 0022 FFF7FEFF 		bl	__test_assert
 228              	.LVL12:
 229 0026 10B1     		cbz	r0, .L17
 230              	.L8:
 231              		.loc 1 217 1 is_stmt 0 view .LVU50
 232 0028 04B0     		add	sp, sp, #16
 233              		.cfi_remember_state
 234              		.cfi_def_cfa_offset 24
 235              		@ sp needed
 236 002a BDE8F081 		pop	{r4, r5, r6, r7, r8, pc}
 237              	.L17:
 238              		.cfi_restore_state
 239              		.loc 1 102 77 is_stmt 1 discriminator 2 view .LVU51
 240              		.loc 1 104 3 discriminator 2 view .LVU52
 241              		.loc 1 104 19 discriminator 2 view .LVU53
 242              		.loc 1 108 3 discriminator 2 view .LVU54
 243              	.LBB43:
 244              	.LBB44:
 245              		.loc 2 156 10 is_stmt 0 discriminator 2 view .LVU55
 246 002e 4FF48071 		mov	r1, #256
 247              	.LBE44:
 248              	.LBE43:
 249              		.loc 1 108 3 discriminator 2 view .LVU56
 250 0032 0223     		movs	r3, #2
 251              	.LBB47:
 252              	.LBB45:
 253              		.loc 2 156 10 discriminator 2 view .LVU57
 254 0034 BE48     		ldr	r0, .L18+4
 255              	.LBE45:
 256              	.LBE47:
 257              		.loc 1 108 3 discriminator 2 view .LVU58
 258 0036 2360     		str	r3, [r4]
ARM GAS  /tmp/ccCjvsqg.s 			page 6


 259              		.loc 1 110 5 is_stmt 1 discriminator 2 view .LVU59
 260              	.LVL13:
 261              	.LBB48:
 262              	.LBI43:
 263              		.loc 2 154 21 discriminator 2 view .LVU60
 264              	.LBB46:
 265              		.loc 2 156 3 discriminator 2 view .LVU61
 266              		.loc 2 156 10 is_stmt 0 discriminator 2 view .LVU62
 267 0038 0822     		movs	r2, #8
 268 003a FFF7FEFF 		bl	chHeapAllocAligned
 269              	.LVL14:
 270              		.loc 2 156 10 discriminator 2 view .LVU63
 271              	.LBE46:
 272              	.LBE48:
 273              		.loc 1 111 5 is_stmt 1 discriminator 2 view .LVU64
 274 003e B0FA80F0 		clz	r0, r0
 275              	.LVL15:
 276              		.loc 1 111 5 is_stmt 0 discriminator 2 view .LVU65
 277 0042 BD49     		ldr	r1, .L18+12
 278 0044 4009     		lsrs	r0, r0, #5
 279 0046 FFF7FEFF 		bl	__test_assert
 280              	.LVL16:
 281 004a 0028     		cmp	r0, #0
 282 004c ECD1     		bne	.L8
 283              		.loc 1 111 53 is_stmt 1 discriminator 2 view .LVU66
 284              		.loc 1 113 3 discriminator 2 view .LVU67
 285              		.loc 1 113 19 discriminator 2 view .LVU68
 286              		.loc 1 117 3 discriminator 2 view .LVU69
 287              	.LBB49:
 288              	.LBB50:
 289              		.loc 2 156 10 is_stmt 0 discriminator 2 view .LVU70
 290 004e 1021     		movs	r1, #16
 291              	.LBE50:
 292              	.LBE49:
 293              		.loc 1 117 3 discriminator 2 view .LVU71
 294 0050 0323     		movs	r3, #3
 295              	.LBB53:
 296              	.LBB51:
 297              		.loc 2 156 10 discriminator 2 view .LVU72
 298 0052 B748     		ldr	r0, .L18+4
 299              	.LBE51:
 300              	.LBE53:
 301              		.loc 1 117 3 discriminator 2 view .LVU73
 302 0054 2360     		str	r3, [r4]
 303              		.loc 1 119 5 is_stmt 1 discriminator 2 view .LVU74
 304              	.LVL17:
 305              	.LBB54:
 306              	.LBI49:
 307              		.loc 2 154 21 discriminator 2 view .LVU75
 308              	.LBB52:
 309              		.loc 2 156 3 discriminator 2 view .LVU76
 310              		.loc 2 156 10 is_stmt 0 discriminator 2 view .LVU77
 311 0056 0822     		movs	r2, #8
 312 0058 FFF7FEFF 		bl	chHeapAllocAligned
 313              	.LVL18:
 314              		.loc 2 156 10 discriminator 2 view .LVU78
 315 005c 0546     		mov	r5, r0
ARM GAS  /tmp/ccCjvsqg.s 			page 7


 316              	.LVL19:
 317              		.loc 2 156 10 discriminator 2 view .LVU79
 318              	.LBE52:
 319              	.LBE54:
 320              		.loc 1 120 5 is_stmt 1 discriminator 2 view .LVU80
 321 005e 0038     		subs	r0, r0, #0
 322              	.LVL20:
 323              		.loc 1 120 5 is_stmt 0 discriminator 2 view .LVU81
 324 0060 18BF     		it	ne
 325 0062 0120     		movne	r0, #1
 326 0064 B549     		ldr	r1, .L18+16
 327 0066 FFF7FEFF 		bl	__test_assert
 328              	.LVL21:
 329 006a 0028     		cmp	r0, #0
 330 006c DCD1     		bne	.L8
 331              		.loc 1 120 49 is_stmt 1 discriminator 2 view .LVU82
 332              		.loc 1 121 5 discriminator 2 view .LVU83
 333 006e 2846     		mov	r0, r5
 334 0070 FFF7FEFF 		bl	chHeapFree
 335              	.LVL22:
 336              		.loc 1 123 3 discriminator 2 view .LVU84
 337              		.loc 1 123 19 discriminator 2 view .LVU85
 338              		.loc 1 127 3 discriminator 2 view .LVU86
 339 0074 0423     		movs	r3, #4
 340              	.LBB55:
 341              		.loc 1 131 9 is_stmt 0 discriminator 2 view .LVU87
 342 0076 02A9     		add	r1, sp, #8
 343 0078 AD48     		ldr	r0, .L18+4
 344              	.LBE55:
 345              		.loc 1 127 3 discriminator 2 view .LVU88
 346 007a 2360     		str	r3, [r4]
 347              	.LBB56:
 348              		.loc 1 129 5 is_stmt 1 discriminator 2 view .LVU89
 349              		.loc 1 131 5 discriminator 2 view .LVU90
 350              		.loc 1 131 9 is_stmt 0 discriminator 2 view .LVU91
 351 007c 03AA     		add	r2, sp, #12
 352 007e FFF7FEFF 		bl	chHeapStatus
 353              	.LVL23:
 354 0082 0346     		mov	r3, r0
 355              		.loc 1 132 5 discriminator 2 view .LVU92
 356 0084 A0F10100 		sub	r0, #1
 357 0088 B0FA80F0 		clz	r0, r0
 358 008c AC49     		ldr	r1, .L18+20
 359              		.loc 1 131 7 discriminator 2 view .LVU93
 360 008e 0093     		str	r3, [sp]
 361              		.loc 1 132 5 is_stmt 1 discriminator 2 view .LVU94
 362 0090 4009     		lsrs	r0, r0, #5
 363 0092 FFF7FEFF 		bl	__test_assert
 364              	.LVL24:
 365 0096 0028     		cmp	r0, #0
 366 0098 C6D1     		bne	.L8
 367              		.loc 1 132 46 discriminator 2 view .LVU95
 368              		.loc 1 133 5 discriminator 2 view .LVU96
 369 009a 0298     		ldr	r0, [sp, #8]
 370 009c A949     		ldr	r1, .L18+24
 371 009e 0F28     		cmp	r0, #15
 372 00a0 94BF     		ite	ls
ARM GAS  /tmp/ccCjvsqg.s 			page 8


 373 00a2 0020     		movls	r0, #0
 374 00a4 0120     		movhi	r0, #1
 375 00a6 FFF7FEFF 		bl	__test_assert
 376              	.LVL25:
 377 00aa 0028     		cmp	r0, #0
 378 00ac BCD1     		bne	.L8
 379              		.loc 1 133 67 discriminator 2 view .LVU97
 380              		.loc 1 134 5 discriminator 2 view .LVU98
 381 00ae DDE90203 		ldrd	r0, r3, [sp, #8]
 382 00b2 C01A     		subs	r0, r0, r3
 383 00b4 B0FA80F0 		clz	r0, r0
 384 00b8 A249     		ldr	r1, .L18+24
 385 00ba 4009     		lsrs	r0, r0, #5
 386 00bc FFF7FEFF 		bl	__test_assert
 387              	.LVL26:
 388 00c0 0546     		mov	r5, r0
 389              	.LVL27:
 390              		.loc 1 134 5 is_stmt 0 discriminator 2 view .LVU99
 391 00c2 0028     		cmp	r0, #0
 392 00c4 B0D1     		bne	.L8
 393              		.loc 1 134 69 is_stmt 1 discriminator 2 view .LVU100
 394              	.LBE56:
 395              		.loc 1 136 3 discriminator 2 view .LVU101
 396              		.loc 1 136 19 discriminator 2 view .LVU102
 397              		.loc 1 139 3 discriminator 2 view .LVU103
 398 00c6 0523     		movs	r3, #5
 399              	.LBB57:
 400              	.LBB58:
 401              		.loc 2 156 10 is_stmt 0 discriminator 2 view .LVU104
 402 00c8 0822     		movs	r2, #8
 403 00ca 1021     		movs	r1, #16
 404 00cc 9848     		ldr	r0, .L18+4
 405              	.LBE58:
 406              	.LBE57:
 407              		.loc 1 139 3 discriminator 2 view .LVU105
 408 00ce 2360     		str	r3, [r4]
 409              		.loc 1 141 5 is_stmt 1 discriminator 2 view .LVU106
 410              	.LVL28:
 411              	.LBB61:
 412              	.LBI57:
 413              		.loc 2 154 21 discriminator 2 view .LVU107
 414              	.LBB59:
 415              		.loc 2 156 3 discriminator 2 view .LVU108
 416              		.loc 2 156 10 is_stmt 0 discriminator 2 view .LVU109
 417 00d0 FFF7FEFF 		bl	chHeapAllocAligned
 418              	.LVL29:
 419              	.LBE59:
 420              	.LBE61:
 421              	.LBB62:
 422              	.LBB63:
 423 00d4 0822     		movs	r2, #8
 424 00d6 1021     		movs	r1, #16
 425              	.LBE63:
 426              	.LBE62:
 427              	.LBB66:
 428              	.LBB60:
 429 00d8 8046     		mov	r8, r0
ARM GAS  /tmp/ccCjvsqg.s 			page 9


 430              	.LVL30:
 431              		.loc 2 156 10 discriminator 2 view .LVU110
 432              	.LBE60:
 433              	.LBE66:
 434              		.loc 1 142 5 is_stmt 1 discriminator 2 view .LVU111
 435              	.LBB67:
 436              	.LBI62:
 437              		.loc 2 154 21 discriminator 2 view .LVU112
 438              	.LBB64:
 439              		.loc 2 156 3 discriminator 2 view .LVU113
 440              		.loc 2 156 10 is_stmt 0 discriminator 2 view .LVU114
 441 00da 9548     		ldr	r0, .L18+4
 442              	.LVL31:
 443              		.loc 2 156 10 discriminator 2 view .LVU115
 444 00dc FFF7FEFF 		bl	chHeapAllocAligned
 445              	.LVL32:
 446              	.LBE64:
 447              	.LBE67:
 448              	.LBB68:
 449              	.LBB69:
 450 00e0 0822     		movs	r2, #8
 451 00e2 1021     		movs	r1, #16
 452              	.LBE69:
 453              	.LBE68:
 454              	.LBB71:
 455              	.LBB65:
 456 00e4 0746     		mov	r7, r0
 457              	.LVL33:
 458              		.loc 2 156 10 discriminator 2 view .LVU116
 459              	.LBE65:
 460              	.LBE71:
 461              		.loc 1 143 5 is_stmt 1 discriminator 2 view .LVU117
 462              	.LBB72:
 463              	.LBI68:
 464              		.loc 2 154 21 discriminator 2 view .LVU118
 465              	.LBB70:
 466              		.loc 2 156 3 discriminator 2 view .LVU119
 467              		.loc 2 156 10 is_stmt 0 discriminator 2 view .LVU120
 468 00e6 9248     		ldr	r0, .L18+4
 469              	.LVL34:
 470              		.loc 2 156 10 discriminator 2 view .LVU121
 471 00e8 FFF7FEFF 		bl	chHeapAllocAligned
 472              	.LVL35:
 473 00ec 0646     		mov	r6, r0
 474              	.LBE70:
 475              	.LBE72:
 476              		.loc 1 144 5 discriminator 2 view .LVU122
 477 00ee 4046     		mov	r0, r8
 478              	.LVL36:
 479              		.loc 1 144 5 is_stmt 1 discriminator 2 view .LVU123
 480 00f0 FFF7FEFF 		bl	chHeapFree
 481              	.LVL37:
 482              		.loc 1 145 5 discriminator 2 view .LVU124
 483 00f4 3846     		mov	r0, r7
 484 00f6 FFF7FEFF 		bl	chHeapFree
 485              	.LVL38:
 486              		.loc 1 146 5 discriminator 2 view .LVU125
ARM GAS  /tmp/ccCjvsqg.s 			page 10


 487 00fa 3046     		mov	r0, r6
 488 00fc FFF7FEFF 		bl	chHeapFree
 489              	.LVL39:
 490              		.loc 1 147 5 discriminator 2 view .LVU126
 491 0100 2A46     		mov	r2, r5
 492 0102 6946     		mov	r1, sp
 493 0104 8A48     		ldr	r0, .L18+4
 494 0106 FFF7FEFF 		bl	chHeapStatus
 495              	.LVL40:
 496 010a A0F10100 		sub	r0, #1
 497 010e B0FA80F0 		clz	r0, r0
 498 0112 8849     		ldr	r1, .L18+8
 499 0114 4009     		lsrs	r0, r0, #5
 500 0116 FFF7FEFF 		bl	__test_assert
 501              	.LVL41:
 502 011a 0546     		mov	r5, r0
 503 011c 0028     		cmp	r0, #0
 504 011e 83D1     		bne	.L8
 505              		.loc 1 147 76 view .LVU127
 506              		.loc 1 149 3 view .LVU128
 507              		.loc 1 149 19 view .LVU129
 508              		.loc 1 152 3 view .LVU130
 509 0120 0623     		movs	r3, #6
 510              	.LBB73:
 511              	.LBB74:
 512              		.loc 2 156 10 is_stmt 0 view .LVU131
 513 0122 0822     		movs	r2, #8
 514 0124 1021     		movs	r1, #16
 515 0126 8248     		ldr	r0, .L18+4
 516              	.LBE74:
 517              	.LBE73:
 518              		.loc 1 152 3 view .LVU132
 519 0128 2360     		str	r3, [r4]
 520              		.loc 1 154 5 is_stmt 1 view .LVU133
 521              	.LVL42:
 522              	.LBB77:
 523              	.LBI73:
 524              		.loc 2 154 21 view .LVU134
 525              	.LBB75:
 526              		.loc 2 156 3 view .LVU135
 527              		.loc 2 156 10 is_stmt 0 view .LVU136
 528 012a FFF7FEFF 		bl	chHeapAllocAligned
 529              	.LVL43:
 530              	.LBE75:
 531              	.LBE77:
 532              	.LBB78:
 533              	.LBB79:
 534 012e 0822     		movs	r2, #8
 535              	.LBE79:
 536              	.LBE78:
 537              	.LBB82:
 538              	.LBB76:
 539 0130 0646     		mov	r6, r0
 540              	.LVL44:
 541              		.loc 2 156 10 view .LVU137
 542              	.LBE76:
 543              	.LBE82:
ARM GAS  /tmp/ccCjvsqg.s 			page 11


 544              		.loc 1 155 5 is_stmt 1 view .LVU138
 545              	.LBB83:
 546              	.LBI78:
 547              		.loc 2 154 21 view .LVU139
 548              	.LBB80:
 549              		.loc 2 156 3 view .LVU140
 550              		.loc 2 156 10 is_stmt 0 view .LVU141
 551 0132 1021     		movs	r1, #16
 552 0134 7E48     		ldr	r0, .L18+4
 553              	.LVL45:
 554              		.loc 2 156 10 view .LVU142
 555 0136 FFF7FEFF 		bl	chHeapAllocAligned
 556              	.LVL46:
 557              	.LBE80:
 558              	.LBE83:
 559              	.LBB84:
 560              	.LBB85:
 561 013a 0822     		movs	r2, #8
 562 013c 1021     		movs	r1, #16
 563              	.LBE85:
 564              	.LBE84:
 565              	.LBB87:
 566              	.LBB81:
 567 013e 0746     		mov	r7, r0
 568              	.LVL47:
 569              		.loc 2 156 10 view .LVU143
 570              	.LBE81:
 571              	.LBE87:
 572              		.loc 1 156 5 is_stmt 1 view .LVU144
 573              	.LBB88:
 574              	.LBI84:
 575              		.loc 2 154 21 view .LVU145
 576              	.LBB86:
 577              		.loc 2 156 3 view .LVU146
 578              		.loc 2 156 10 is_stmt 0 view .LVU147
 579 0140 7B48     		ldr	r0, .L18+4
 580              	.LVL48:
 581              		.loc 2 156 10 view .LVU148
 582 0142 FFF7FEFF 		bl	chHeapAllocAligned
 583              	.LVL49:
 584              		.loc 2 156 10 view .LVU149
 585              	.LBE86:
 586              	.LBE88:
 587              		.loc 1 157 5 is_stmt 1 view .LVU150
 588 0146 FFF7FEFF 		bl	chHeapFree
 589              	.LVL50:
 590              		.loc 1 158 5 view .LVU151
 591 014a 3846     		mov	r0, r7
 592 014c FFF7FEFF 		bl	chHeapFree
 593              	.LVL51:
 594              		.loc 1 159 5 view .LVU152
 595 0150 3046     		mov	r0, r6
 596 0152 FFF7FEFF 		bl	chHeapFree
 597              	.LVL52:
 598              		.loc 1 160 5 view .LVU153
 599 0156 2A46     		mov	r2, r5
 600 0158 6946     		mov	r1, sp
ARM GAS  /tmp/ccCjvsqg.s 			page 12


 601 015a 7548     		ldr	r0, .L18+4
 602 015c FFF7FEFF 		bl	chHeapStatus
 603              	.LVL53:
 604 0160 A0F10100 		sub	r0, #1
 605 0164 B0FA80F0 		clz	r0, r0
 606 0168 7249     		ldr	r1, .L18+8
 607 016a 4009     		lsrs	r0, r0, #5
 608 016c FFF7FEFF 		bl	__test_assert
 609              	.LVL54:
 610 0170 0546     		mov	r5, r0
 611 0172 0028     		cmp	r0, #0
 612 0174 7FF458AF 		bne	.L8
 613              		.loc 1 160 76 discriminator 2 view .LVU154
 614              		.loc 1 162 3 discriminator 2 view .LVU155
 615              		.loc 1 162 19 discriminator 2 view .LVU156
 616              		.loc 1 166 3 discriminator 2 view .LVU157
 617 0178 0723     		movs	r3, #7
 618              	.LBB89:
 619              	.LBB90:
 620              		.loc 2 156 10 is_stmt 0 discriminator 2 view .LVU158
 621 017a 0822     		movs	r2, #8
 622 017c 1121     		movs	r1, #17
 623 017e 6C48     		ldr	r0, .L18+4
 624              	.LBE90:
 625              	.LBE89:
 626              		.loc 1 166 3 discriminator 2 view .LVU159
 627 0180 2360     		str	r3, [r4]
 628              		.loc 1 168 5 is_stmt 1 discriminator 2 view .LVU160
 629              	.LVL55:
 630              	.LBB93:
 631              	.LBI89:
 632              		.loc 2 154 21 discriminator 2 view .LVU161
 633              	.LBB91:
 634              		.loc 2 156 3 discriminator 2 view .LVU162
 635              		.loc 2 156 10 is_stmt 0 discriminator 2 view .LVU163
 636 0182 FFF7FEFF 		bl	chHeapAllocAligned
 637              	.LVL56:
 638              	.LBE91:
 639              	.LBE93:
 640              	.LBB94:
 641              	.LBB95:
 642 0186 0822     		movs	r2, #8
 643              	.LBE95:
 644              	.LBE94:
 645              	.LBB98:
 646              	.LBB92:
 647 0188 0646     		mov	r6, r0
 648              	.LVL57:
 649              		.loc 2 156 10 discriminator 2 view .LVU164
 650              	.LBE92:
 651              	.LBE98:
 652              		.loc 1 169 5 is_stmt 1 discriminator 2 view .LVU165
 653              	.LBB99:
 654              	.LBI94:
 655              		.loc 2 154 21 discriminator 2 view .LVU166
 656              	.LBB96:
 657              		.loc 2 156 3 discriminator 2 view .LVU167
ARM GAS  /tmp/ccCjvsqg.s 			page 13


 658              		.loc 2 156 10 is_stmt 0 discriminator 2 view .LVU168
 659 018a 1021     		movs	r1, #16
 660 018c 6848     		ldr	r0, .L18+4
 661              	.LVL58:
 662              		.loc 2 156 10 discriminator 2 view .LVU169
 663 018e FFF7FEFF 		bl	chHeapAllocAligned
 664              	.LVL59:
 665 0192 0346     		mov	r3, r0
 666              	.LBE96:
 667              	.LBE99:
 668              		.loc 1 170 5 discriminator 2 view .LVU170
 669 0194 3046     		mov	r0, r6
 670              	.LBB100:
 671              	.LBB97:
 672              		.loc 2 156 10 discriminator 2 view .LVU171
 673 0196 1E46     		mov	r6, r3
 674              	.LVL60:
 675              		.loc 2 156 10 discriminator 2 view .LVU172
 676              	.LBE97:
 677              	.LBE100:
 678              		.loc 1 170 5 is_stmt 1 discriminator 2 view .LVU173
 679 0198 FFF7FEFF 		bl	chHeapFree
 680              	.LVL61:
 681              		.loc 1 171 5 discriminator 2 view .LVU174
 682 019c 2A46     		mov	r2, r5
 683 019e 6946     		mov	r1, sp
 684 01a0 6348     		ldr	r0, .L18+4
 685 01a2 FFF7FEFF 		bl	chHeapStatus
 686              	.LVL62:
 687 01a6 A0F10200 		sub	r0, #2
 688 01aa B0FA80F0 		clz	r0, r0
 689 01ae 6649     		ldr	r1, .L18+28
 690 01b0 4009     		lsrs	r0, r0, #5
 691 01b2 FFF7FEFF 		bl	__test_assert
 692              	.LVL63:
 693 01b6 0546     		mov	r5, r0
 694 01b8 0028     		cmp	r0, #0
 695 01ba 7FF435AF 		bne	.L8
 696              		.loc 1 171 74 view .LVU175
 697              		.loc 1 172 5 view .LVU176
 698              	.LVL64:
 699              	.LBB101:
 700              	.LBI101:
 701              		.loc 2 154 21 view .LVU177
 702              	.LBB102:
 703              		.loc 2 156 3 view .LVU178
 704              		.loc 2 156 10 is_stmt 0 view .LVU179
 705 01be 0822     		movs	r2, #8
 706 01c0 1021     		movs	r1, #16
 707 01c2 5B48     		ldr	r0, .L18+4
 708 01c4 FFF7FEFF 		bl	chHeapAllocAligned
 709              	.LVL65:
 710              	.LBE102:
 711              	.LBE101:
 712              		.loc 1 175 5 view .LVU180
 713 01c8 2A46     		mov	r2, r5
 714              	.LBB104:
ARM GAS  /tmp/ccCjvsqg.s 			page 14


 715              	.LBB103:
 716              		.loc 2 156 10 view .LVU181
 717 01ca 0746     		mov	r7, r0
 718              	.LVL66:
 719              		.loc 2 156 10 view .LVU182
 720              	.LBE103:
 721              	.LBE104:
 722              		.loc 1 175 5 is_stmt 1 view .LVU183
 723 01cc 6946     		mov	r1, sp
 724 01ce 5848     		ldr	r0, .L18+4
 725              	.LVL67:
 726              		.loc 1 175 5 is_stmt 0 view .LVU184
 727 01d0 FFF7FEFF 		bl	chHeapStatus
 728              	.LVL68:
 729 01d4 0128     		cmp	r0, #1
 730 01d6 00F0A680 		beq	.L15
 731              		.loc 1 175 5 discriminator 2 view .LVU185
 732 01da 5548     		ldr	r0, .L18+4
 733 01dc 0022     		movs	r2, #0
 734 01de 6946     		mov	r1, sp
 735 01e0 FFF7FEFF 		bl	chHeapStatus
 736              	.LVL69:
 737 01e4 A0F10208 		sub	r8, r0, #2
 738 01e8 D8F10000 		rsbs	r0, r8, #0
 739 01ec 40EB0800 		adc	r0, r0, r8
 740              	.L14:
 741              		.loc 1 175 5 discriminator 6 view .LVU186
 742 01f0 5049     		ldr	r1, .L18+8
 743 01f2 FFF7FEFF 		bl	__test_assert
 744              	.LVL70:
 745 01f6 0546     		mov	r5, r0
 746 01f8 0028     		cmp	r0, #0
 747 01fa 7FF415AF 		bne	.L8
 748              		.loc 1 176 78 is_stmt 1 view .LVU187
 749              		.loc 1 177 5 view .LVU188
 750 01fe 3046     		mov	r0, r6
 751 0200 FFF7FEFF 		bl	chHeapFree
 752              	.LVL71:
 753              		.loc 1 178 5 view .LVU189
 754 0204 3846     		mov	r0, r7
 755 0206 FFF7FEFF 		bl	chHeapFree
 756              	.LVL72:
 757              		.loc 1 179 5 view .LVU190
 758 020a 2A46     		mov	r2, r5
 759 020c 6946     		mov	r1, sp
 760 020e 4848     		ldr	r0, .L18+4
 761 0210 FFF7FEFF 		bl	chHeapStatus
 762              	.LVL73:
 763 0214 00F1FF3E 		add	lr, r0, #-1
 764 0218 DEF10000 		rsbs	r0, lr, #0
 765 021c 4549     		ldr	r1, .L18+8
 766 021e 40EB0E00 		adc	r0, r0, lr
 767 0222 FFF7FEFF 		bl	__test_assert
 768              	.LVL74:
 769 0226 0646     		mov	r6, r0
 770              	.LVL75:
 771              		.loc 1 179 5 is_stmt 0 view .LVU191
ARM GAS  /tmp/ccCjvsqg.s 			page 15


 772 0228 0028     		cmp	r0, #0
 773 022a 7FF4FDAE 		bne	.L8
 774              		.loc 1 179 76 is_stmt 1 discriminator 2 view .LVU192
 775              		.loc 1 181 3 discriminator 2 view .LVU193
 776              		.loc 1 181 19 discriminator 2 view .LVU194
 777              		.loc 1 185 3 discriminator 2 view .LVU195
 778 022e 0825     		movs	r5, #8
 779              	.LBB105:
 780              	.LBB106:
 781              		.loc 2 156 10 is_stmt 0 discriminator 2 view .LVU196
 782 0230 2A46     		mov	r2, r5
 783 0232 1021     		movs	r1, #16
 784 0234 3E48     		ldr	r0, .L18+4
 785              	.LBE106:
 786              	.LBE105:
 787              		.loc 1 185 3 discriminator 2 view .LVU197
 788 0236 2560     		str	r5, [r4]
 789              		.loc 1 187 5 is_stmt 1 discriminator 2 view .LVU198
 790              	.LVL76:
 791              	.LBB109:
 792              	.LBI105:
 793              		.loc 2 154 21 discriminator 2 view .LVU199
 794              	.LBB107:
 795              		.loc 2 156 3 discriminator 2 view .LVU200
 796              		.loc 2 156 10 is_stmt 0 discriminator 2 view .LVU201
 797 0238 FFF7FEFF 		bl	chHeapAllocAligned
 798              	.LVL77:
 799              	.LBE107:
 800              	.LBE109:
 801              	.LBB110:
 802              	.LBB111:
 803 023c 2A46     		mov	r2, r5
 804 023e 1021     		movs	r1, #16
 805              	.LBE111:
 806              	.LBE110:
 807              	.LBB113:
 808              	.LBB108:
 809 0240 8046     		mov	r8, r0
 810              	.LVL78:
 811              		.loc 2 156 10 discriminator 2 view .LVU202
 812              	.LBE108:
 813              	.LBE113:
 814              		.loc 1 188 5 is_stmt 1 discriminator 2 view .LVU203
 815              	.LBB114:
 816              	.LBI110:
 817              		.loc 2 154 21 discriminator 2 view .LVU204
 818              	.LBB112:
 819              		.loc 2 156 3 discriminator 2 view .LVU205
 820              		.loc 2 156 10 is_stmt 0 discriminator 2 view .LVU206
 821 0242 3B48     		ldr	r0, .L18+4
 822              	.LVL79:
 823              		.loc 2 156 10 discriminator 2 view .LVU207
 824 0244 FFF7FEFF 		bl	chHeapAllocAligned
 825              	.LVL80:
 826 0248 0746     		mov	r7, r0
 827              	.LBE112:
 828              	.LBE114:
ARM GAS  /tmp/ccCjvsqg.s 			page 16


 829              		.loc 1 189 5 discriminator 2 view .LVU208
 830 024a 4046     		mov	r0, r8
 831              	.LVL81:
 832              		.loc 1 189 5 is_stmt 1 discriminator 2 view .LVU209
 833 024c FFF7FEFF 		bl	chHeapFree
 834              	.LVL82:
 835              		.loc 1 190 5 discriminator 2 view .LVU210
 836 0250 3246     		mov	r2, r6
 837 0252 6946     		mov	r1, sp
 838 0254 3648     		ldr	r0, .L18+4
 839 0256 FFF7FEFF 		bl	chHeapStatus
 840              	.LVL83:
 841 025a A0F1020C 		sub	ip, r0, #2
 842 025e DCF10000 		rsbs	r0, ip, #0
 843 0262 3949     		ldr	r1, .L18+28
 844 0264 40EB0C00 		adc	r0, r0, ip
 845 0268 FFF7FEFF 		bl	__test_assert
 846              	.LVL84:
 847 026c 0646     		mov	r6, r0
 848 026e 0028     		cmp	r0, #0
 849 0270 7FF4DAAE 		bne	.L8
 850              		.loc 1 190 75 view .LVU211
 851              		.loc 1 191 5 view .LVU212
 852              	.LVL85:
 853              	.LBB115:
 854              	.LBI115:
 855              		.loc 2 154 21 view .LVU213
 856              	.LBB116:
 857              		.loc 2 156 3 view .LVU214
 858              		.loc 2 156 10 is_stmt 0 view .LVU215
 859 0274 2A46     		mov	r2, r5
 860 0276 2021     		movs	r1, #32
 861 0278 2D48     		ldr	r0, .L18+4
 862 027a FFF7FEFF 		bl	chHeapAllocAligned
 863              	.LVL86:
 864              		.loc 2 156 10 view .LVU216
 865              	.LBE116:
 866              	.LBE115:
 867              		.loc 1 192 5 is_stmt 1 view .LVU217
 868 027e FFF7FEFF 		bl	chHeapFree
 869              	.LVL87:
 870              		.loc 1 193 5 view .LVU218
 871 0282 3846     		mov	r0, r7
 872 0284 FFF7FEFF 		bl	chHeapFree
 873              	.LVL88:
 874              		.loc 1 194 5 view .LVU219
 875 0288 3246     		mov	r2, r6
 876 028a 6946     		mov	r1, sp
 877 028c 2848     		ldr	r0, .L18+4
 878 028e FFF7FEFF 		bl	chHeapStatus
 879              	.LVL89:
 880 0292 461E     		subs	r6, r0, #1
 881 0294 7042     		rsbs	r0, r6, #0
 882 0296 2749     		ldr	r1, .L18+8
 883 0298 7041     		adcs	r0, r0, r6
 884 029a FFF7FEFF 		bl	__test_assert
 885              	.LVL90:
ARM GAS  /tmp/ccCjvsqg.s 			page 17


 886 029e 0246     		mov	r2, r0
 887 02a0 0028     		cmp	r0, #0
 888 02a2 7FF4C1AE 		bne	.L8
 889              		.loc 1 194 76 discriminator 2 view .LVU220
 890              		.loc 1 196 3 discriminator 2 view .LVU221
 891              		.loc 1 196 19 discriminator 2 view .LVU222
 892              		.loc 1 199 3 discriminator 2 view .LVU223
 893 02a6 0923     		movs	r3, #9
 894              		.loc 1 201 11 is_stmt 0 discriminator 2 view .LVU224
 895 02a8 6946     		mov	r1, sp
 896 02aa 2148     		ldr	r0, .L18+4
 897              		.loc 1 199 3 discriminator 2 view .LVU225
 898 02ac 2360     		str	r3, [r4]
 899              		.loc 1 201 5 is_stmt 1 discriminator 2 view .LVU226
 900              		.loc 1 201 11 is_stmt 0 discriminator 2 view .LVU227
 901 02ae FFF7FEFF 		bl	chHeapStatus
 902              	.LVL91:
 903              		.loc 1 202 5 is_stmt 1 discriminator 2 view .LVU228
 904              	.LBB117:
 905              	.LBI117:
 906              		.loc 2 154 21 discriminator 2 view .LVU229
 907              	.LBB118:
 908              		.loc 2 156 3 discriminator 2 view .LVU230
 909              		.loc 2 156 10 is_stmt 0 discriminator 2 view .LVU231
 910 02b2 2A46     		mov	r2, r5
 911 02b4 0099     		ldr	r1, [sp]
 912 02b6 1E48     		ldr	r0, .L18+4
 913 02b8 FFF7FEFF 		bl	chHeapAllocAligned
 914              	.LVL92:
 915              		.loc 2 156 10 discriminator 2 view .LVU232
 916 02bc 0646     		mov	r6, r0
 917              	.LVL93:
 918              		.loc 2 156 10 discriminator 2 view .LVU233
 919              	.LBE118:
 920              	.LBE117:
 921              		.loc 1 203 5 is_stmt 1 discriminator 2 view .LVU234
 922 02be 0038     		subs	r0, r0, #0
 923              	.LVL94:
 924              		.loc 1 203 5 is_stmt 0 discriminator 2 view .LVU235
 925 02c0 1E49     		ldr	r1, .L18+16
 926 02c2 18BF     		it	ne
 927 02c4 0120     		movne	r0, #1
 928 02c6 FFF7FEFF 		bl	__test_assert
 929              	.LVL95:
 930 02ca 0246     		mov	r2, r0
 931 02cc 0028     		cmp	r0, #0
 932 02ce 7FF4ABAE 		bne	.L8
 933              		.loc 1 203 49 is_stmt 1 discriminator 2 view .LVU236
 934              		.loc 1 204 5 discriminator 2 view .LVU237
 935 02d2 0146     		mov	r1, r0
 936 02d4 1648     		ldr	r0, .L18+4
 937 02d6 FFF7FEFF 		bl	chHeapStatus
 938              	.LVL96:
 939 02da B0FA80F0 		clz	r0, r0
 940 02de 1B49     		ldr	r1, .L18+32
 941 02e0 4009     		lsrs	r0, r0, #5
 942 02e2 FFF7FEFF 		bl	__test_assert
ARM GAS  /tmp/ccCjvsqg.s 			page 18


 943              	.LVL97:
 944 02e6 0546     		mov	r5, r0
 945 02e8 0028     		cmp	r0, #0
 946 02ea 7FF49DAE 		bne	.L8
 947              		.loc 1 204 72 discriminator 2 view .LVU238
 948              		.loc 1 205 5 discriminator 2 view .LVU239
 949 02ee 3046     		mov	r0, r6
 950 02f0 FFF7FEFF 		bl	chHeapFree
 951              	.LVL98:
 952              		.loc 1 207 3 discriminator 2 view .LVU240
 953              		.loc 1 207 19 discriminator 2 view .LVU241
 954              		.loc 1 211 3 discriminator 2 view .LVU242
 955              		.loc 1 213 5 is_stmt 0 discriminator 2 view .LVU243
 956 02f4 2A46     		mov	r2, r5
 957 02f6 6946     		mov	r1, sp
 958              		.loc 1 211 3 discriminator 2 view .LVU244
 959 02f8 0A23     		movs	r3, #10
 960              		.loc 1 213 5 discriminator 2 view .LVU245
 961 02fa 0D48     		ldr	r0, .L18+4
 962              		.loc 1 211 3 discriminator 2 view .LVU246
 963 02fc 2360     		str	r3, [r4]
 964              		.loc 1 213 5 is_stmt 1 discriminator 2 view .LVU247
 965 02fe FFF7FEFF 		bl	chHeapStatus
 966              	.LVL99:
 967 0302 421E     		subs	r2, r0, #1
 968 0304 5042     		rsbs	r0, r2, #0
 969 0306 5041     		adcs	r0, r0, r2
 970 0308 0A49     		ldr	r1, .L18+8
 971 030a FFF7FEFF 		bl	__test_assert
 972              	.LVL100:
 973 030e 0028     		cmp	r0, #0
 974 0310 7FF48AAE 		bne	.L8
 975              		.loc 1 213 76 discriminator 2 view .LVU248
 976              		.loc 1 214 5 discriminator 2 view .LVU249
 977 0314 DDE90003 		ldrd	r0, r3, [sp]
 978 0318 C31A     		subs	r3, r0, r3
 979 031a 5842     		rsbs	r0, r3, #0
 980 031c 0C49     		ldr	r1, .L18+36
 981 031e 5841     		adcs	r0, r0, r3
 982 0320 FFF7FEFF 		bl	__test_assert
 983              	.LVL101:
 984              		.loc 1 214 5 discriminator 2 view .LVU250
 985 0324 80E6     		b	.L8
 986              	.LVL102:
 987              	.L15:
 988              		.loc 1 175 5 is_stmt 0 view .LVU251
 989 0326 0120     		movs	r0, #1
 990 0328 62E7     		b	.L14
 991              	.L19:
 992 032a 00BF     		.align	2
 993              	.L18:
 994 032c 00000000 		.word	chtest
 995 0330 00000000 		.word	.LANCHOR0
 996 0334 00000000 		.word	.LC2
 997 0338 14000000 		.word	.LC1
 998 033c 00000000 		.word	.LC0
 999 0340 10000000 		.word	.LC3
ARM GAS  /tmp/ccCjvsqg.s 			page 19


 1000 0344 24000000 		.word	.LC4
 1001 0348 3C000000 		.word	.LC5
 1002 034c 4C000000 		.word	.LC6
 1003 0350 58000000 		.word	.LC7
 1004              		.cfi_endproc
 1005              	.LFE405:
 1006              		.size	oslib_test_008_001_execute, .-oslib_test_008_001_execute
 1007              		.section	.text.oslib_test_008_001_setup,"ax",%progbits
 1008              		.align	1
 1009              		.p2align 4,,15
 1010              		.syntax unified
 1011              		.thumb
 1012              		.thumb_func
 1013              		.fpu softvfp
 1014              		.type	oslib_test_008_001_setup, %function
 1015              	oslib_test_008_001_setup:
 1016              	.LFB404:
 1017              		.loc 1 90 44 is_stmt 1 view -0
 1018              		.cfi_startproc
 1019              		@ args = 0, pretend = 0, frame = 0
 1020              		@ frame_needed = 0, uses_anonymous_args = 0
 1021              		@ link register save eliminated.
 1022              		.loc 1 91 3 view .LVU253
 1023 0000 0249     		ldr	r1, .L21
 1024 0002 0348     		ldr	r0, .L21+4
 1025 0004 8022     		movs	r2, #128
 1026 0006 FFF7FEBF 		b	chHeapObjectInit
 1027              	.LVL103:
 1028              	.L22:
 1029 000a 00BF     		.align	2
 1030              	.L21:
 1031 000c 00000000 		.word	.LANCHOR1
 1032 0010 00000000 		.word	.LANCHOR0
 1033              		.cfi_endproc
 1034              	.LFE404:
 1035              		.size	oslib_test_008_001_setup, .-oslib_test_008_001_setup
 1036              		.global	oslib_test_sequence_008
 1037              		.section	.rodata.str1.4,"aMS",%progbits,1
 1038              		.align	2
 1039              	.LC8:
 1040 0000 4D656D6F 		.ascii	"Memory Heaps\000"
 1040      72792048 
 1040      65617073 
 1040      00
 1041              		.global	oslib_test_sequence_008_array
 1042 000d 000000   		.align	2
 1043              	.LC9:
 1044 0010 44656661 		.ascii	"Default Heap\000"
 1044      756C7420 
 1044      48656170 
 1044      00
 1045 001d 000000   		.align	2
 1046              	.LC10:
 1047 0020 416C6C6F 		.ascii	"Allocation and fragmentation\000"
 1047      63617469 
 1047      6F6E2061 
 1047      6E642066 
ARM GAS  /tmp/ccCjvsqg.s 			page 20


 1047      7261676D 
 1048              		.section	.bss.test_heap,"aw",%nobits
 1049              		.align	2
 1050              		.set	.LANCHOR0,. + 0
 1051              		.type	test_heap, %object
 1052              		.size	test_heap, 28
 1053              	test_heap:
 1054 0000 00000000 		.space	28
 1054      00000000 
 1054      00000000 
 1054      00000000 
 1054      00000000 
 1055              		.section	.bss.test_heap_buffer,"aw",%nobits
 1056              		.align	2
 1057              		.set	.LANCHOR1,. + 0
 1058              		.type	test_heap_buffer, %object
 1059              		.size	test_heap_buffer, 128
 1060              	test_heap_buffer:
 1061 0000 00000000 		.space	128
 1061      00000000 
 1061      00000000 
 1061      00000000 
 1061      00000000 
 1062              		.section	.rodata.oslib_test_008_001,"a"
 1063              		.align	2
 1064              		.type	oslib_test_008_001, %object
 1065              		.size	oslib_test_008_001, 16
 1066              	oslib_test_008_001:
 1067 0000 20000000 		.word	.LC10
 1068 0004 00000000 		.word	oslib_test_008_001_setup
 1069 0008 00000000 		.word	0
 1070 000c 00000000 		.word	oslib_test_008_001_execute
 1071              		.section	.rodata.oslib_test_008_002,"a"
 1072              		.align	2
 1073              		.type	oslib_test_008_002, %object
 1074              		.size	oslib_test_008_002, 16
 1075              	oslib_test_008_002:
 1076 0000 10000000 		.word	.LC9
 1077 0004 00000000 		.word	0
 1078 0008 00000000 		.word	0
 1079 000c 00000000 		.word	oslib_test_008_002_execute
 1080              		.section	.rodata.oslib_test_sequence_008,"a"
 1081              		.align	2
 1082              		.type	oslib_test_sequence_008, %object
 1083              		.size	oslib_test_sequence_008, 8
 1084              	oslib_test_sequence_008:
 1085 0000 00000000 		.word	.LC8
 1086 0004 00000000 		.word	oslib_test_sequence_008_array
 1087              		.section	.rodata.oslib_test_sequence_008_array,"a"
 1088              		.align	2
 1089              		.type	oslib_test_sequence_008_array, %object
 1090              		.size	oslib_test_sequence_008_array, 12
 1091              	oslib_test_sequence_008_array:
 1092 0000 00000000 		.word	oslib_test_008_001
 1093 0004 00000000 		.word	oslib_test_008_002
 1094 0008 00000000 		.word	0
 1095              		.text
ARM GAS  /tmp/ccCjvsqg.s 			page 21


 1096              	.Letext0:
 1097              		.file 3 "/opt/gcc-arm-none-eabi/gcc-arm-none-eabi-10.3-2021.07/lib/gcc/arm-none-eabi/10.3.1/includ
 1098              		.file 4 "/opt/gcc-arm-none-eabi/gcc-arm-none-eabi-10.3-2021.07/arm-none-eabi/include/machine/_defa
 1099              		.file 5 "/opt/gcc-arm-none-eabi/gcc-arm-none-eabi-10.3-2021.07/arm-none-eabi/include/sys/_stdint.h
 1100              		.file 6 "../ChibiOS/os/common/ports/ARM-common/chtypes.h"
 1101              		.file 7 "../ChibiOS/os/rt/include/chearly.h"
 1102              		.file 8 "../ChibiOS/os/rt/include/chobjects.h"
 1103              		.file 9 "../ChibiOS/os/rt/include/chrfcu.h"
 1104              		.file 10 "../ChibiOS/os/rt/include/chdebug.h"
 1105              		.file 11 "../ChibiOS/os/rt/include/chtime.h"
 1106              		.file 12 "../ChibiOS/os/rt/include/chlists.h"
 1107              		.file 13 "../ChibiOS/os/common/ports/ARMv7-M/chcore.h"
 1108              		.file 14 "../ChibiOS/os/rt/include/chsem.h"
 1109              		.file 15 "../ChibiOS/os/rt/include/chmtx.h"
 1110              		.file 16 "../ChibiOS/os/oslib/include/chmemcore.h"
 1111              		.file 17 "../ChibiOS/os/hal/include/hal_streams.h"
 1112              		.file 18 "../ChibiOS/os/test/include/ch_test.h"
 1113              		.file 19 "../ChibiOS/test/oslib/source/test/oslib_test_sequence_008.h"