ARM GAS  /tmp/ccViN8cm.s 			page 1


   1              		.cpu cortex-m4
   2              		.eabi_attribute 20, 1
   3              		.eabi_attribute 21, 1
   4              		.eabi_attribute 23, 3
   5              		.eabi_attribute 24, 1
   6              		.eabi_attribute 25, 1
   7              		.eabi_attribute 26, 1
   8              		.eabi_attribute 30, 2
   9              		.eabi_attribute 34, 1
  10              		.eabi_attribute 18, 4
  11              		.file	"oslib_test_sequence_005.c"
  12              		.text
  13              	.Ltext0:
  14              		.cfi_sections	.debug_frame
  15              		.section	.text.dis_func_end,"ax",%progbits
  16              		.align	1
  17              		.p2align 4,,15
  18              		.arch armv7e-m
  19              		.syntax unified
  20              		.thumb
  21              		.thumb_func
  22              		.fpu softvfp
  23              		.type	dis_func_end, %function
  24              	dis_func_end:
  25              	.LFB409:
  26              		.file 1 "../ChibiOS/test/oslib/source/test/oslib_test_sequence_005.c"
  27              		.loc 1 92 31 view -0
  28              		.cfi_startproc
  29              		@ args = 0, pretend = 0, frame = 0
  30              		@ frame_needed = 0, uses_anonymous_args = 0
  31              		.loc 1 94 3 view .LVU1
  32              		.loc 1 92 31 is_stmt 0 view .LVU2
  33 0000 08B5     		push	{r3, lr}
  34              		.cfi_def_cfa_offset 8
  35              		.cfi_offset 3, -8
  36              		.cfi_offset 14, -4
  37              		.loc 1 94 3 view .LVU3
  38 0002 5A20     		movs	r0, #90
  39 0004 FFF7FEFF 		bl	test_emit_token
  40              	.LVL0:
  41              		.loc 1 95 3 is_stmt 1 view .LVU4
  42              		.loc 1 95 13 is_stmt 0 view .LVU5
  43 0008 024B     		ldr	r3, .L4
  44 000a 0122     		movs	r2, #1
  45 000c 1A70     		strb	r2, [r3]
  46              		.loc 1 97 3 is_stmt 1 view .LVU6
  47              		.loc 1 98 1 is_stmt 0 view .LVU7
  48 000e 4AF65520 		movw	r0, #43605
  49 0012 08BD     		pop	{r3, pc}
  50              	.L5:
  51              		.align	2
  52              	.L4:
  53 0014 00000000 		.word	.LANCHOR0
  54              		.cfi_endproc
  55              	.LFE409:
  56              		.size	dis_func_end, .-dis_func_end
  57              		.section	.text.dis_func4,"ax",%progbits
ARM GAS  /tmp/ccViN8cm.s 			page 2


  58              		.align	1
  59              		.p2align 4,,15
  60              		.syntax unified
  61              		.thumb
  62              		.thumb_func
  63              		.fpu softvfp
  64              		.type	dis_func4, %function
  65              	dis_func4:
  66              	.LVL1:
  67              	.LFB408:
  68              		.loc 1 82 60 is_stmt 1 view -0
  69              		.cfi_startproc
  70              		@ args = 0, pretend = 0, frame = 0
  71              		@ frame_needed = 0, uses_anonymous_args = 0
  72              		.loc 1 84 3 view .LVU9
  73              		.loc 1 82 60 is_stmt 0 view .LVU10
  74 0000 F8B5     		push	{r3, r4, r5, r6, r7, lr}
  75              		.cfi_def_cfa_offset 24
  76              		.cfi_offset 3, -24
  77              		.cfi_offset 4, -20
  78              		.cfi_offset 5, -16
  79              		.cfi_offset 6, -12
  80              		.cfi_offset 7, -8
  81              		.cfi_offset 14, -4
  82              		.loc 1 82 60 view .LVU11
  83 0002 0F46     		mov	r7, r1
  84 0004 0446     		mov	r4, r0
  85              		.loc 1 84 3 view .LVU12
  86 0006 C0B2     		uxtb	r0, r0
  87              	.LVL2:
  88              		.loc 1 82 60 view .LVU13
  89 0008 1646     		mov	r6, r2
  90 000a 1D46     		mov	r5, r3
  91              		.loc 1 84 3 view .LVU14
  92 000c FFF7FEFF 		bl	test_emit_token
  93              	.LVL3:
  94              		.loc 1 85 3 is_stmt 1 view .LVU15
  95 0010 F8B2     		uxtb	r0, r7
  96 0012 FFF7FEFF 		bl	test_emit_token
  97              	.LVL4:
  98              		.loc 1 86 3 view .LVU16
  99 0016 F0B2     		uxtb	r0, r6
 100 0018 FFF7FEFF 		bl	test_emit_token
 101              	.LVL5:
 102              		.loc 1 87 3 view .LVU17
 103 001c E8B2     		uxtb	r0, r5
 104 001e FFF7FEFF 		bl	test_emit_token
 105              	.LVL6:
 106              		.loc 1 89 3 view .LVU18
 107              		.loc 1 90 1 is_stmt 0 view .LVU19
 108 0022 2046     		mov	r0, r4
 109 0024 F8BD     		pop	{r3, r4, r5, r6, r7, pc}
 110              		.loc 1 90 1 view .LVU20
 111              		.cfi_endproc
 112              	.LFE408:
 113              		.size	dis_func4, .-dis_func4
 114 0026 00BF     		.section	.text.dis_func3,"ax",%progbits
ARM GAS  /tmp/ccViN8cm.s 			page 3


 115              		.align	1
 116              		.p2align 4,,15
 117              		.syntax unified
 118              		.thumb
 119              		.thumb_func
 120              		.fpu softvfp
 121              		.type	dis_func3, %function
 122              	dis_func3:
 123              	.LVL7:
 124              	.LFB407:
 125              		.loc 1 73 51 is_stmt 1 view -0
 126              		.cfi_startproc
 127              		@ args = 0, pretend = 0, frame = 0
 128              		@ frame_needed = 0, uses_anonymous_args = 0
 129              		.loc 1 75 3 view .LVU22
 130              		.loc 1 73 51 is_stmt 0 view .LVU23
 131 0000 70B5     		push	{r4, r5, r6, lr}
 132              		.cfi_def_cfa_offset 16
 133              		.cfi_offset 4, -16
 134              		.cfi_offset 5, -12
 135              		.cfi_offset 6, -8
 136              		.cfi_offset 14, -4
 137              		.loc 1 73 51 view .LVU24
 138 0002 0E46     		mov	r6, r1
 139 0004 0446     		mov	r4, r0
 140              		.loc 1 75 3 view .LVU25
 141 0006 C0B2     		uxtb	r0, r0
 142              	.LVL8:
 143              		.loc 1 73 51 view .LVU26
 144 0008 1546     		mov	r5, r2
 145              		.loc 1 75 3 view .LVU27
 146 000a FFF7FEFF 		bl	test_emit_token
 147              	.LVL9:
 148              		.loc 1 76 3 is_stmt 1 view .LVU28
 149 000e F0B2     		uxtb	r0, r6
 150 0010 FFF7FEFF 		bl	test_emit_token
 151              	.LVL10:
 152              		.loc 1 77 3 view .LVU29
 153 0014 E8B2     		uxtb	r0, r5
 154 0016 FFF7FEFF 		bl	test_emit_token
 155              	.LVL11:
 156              		.loc 1 79 3 view .LVU30
 157              		.loc 1 80 1 is_stmt 0 view .LVU31
 158 001a 2046     		mov	r0, r4
 159 001c 70BD     		pop	{r4, r5, r6, pc}
 160              		.loc 1 80 1 view .LVU32
 161              		.cfi_endproc
 162              	.LFE407:
 163              		.size	dis_func3, .-dis_func3
 164 001e 00BF     		.section	.text.dis_func2,"ax",%progbits
 165              		.align	1
 166              		.p2align 4,,15
 167              		.syntax unified
 168              		.thumb
 169              		.thumb_func
 170              		.fpu softvfp
 171              		.type	dis_func2, %function
ARM GAS  /tmp/ccViN8cm.s 			page 4


 172              	dis_func2:
 173              	.LVL12:
 174              	.LFB406:
 175              		.loc 1 65 42 is_stmt 1 view -0
 176              		.cfi_startproc
 177              		@ args = 0, pretend = 0, frame = 0
 178              		@ frame_needed = 0, uses_anonymous_args = 0
 179              		.loc 1 67 3 view .LVU34
 180              		.loc 1 65 42 is_stmt 0 view .LVU35
 181 0000 38B5     		push	{r3, r4, r5, lr}
 182              		.cfi_def_cfa_offset 16
 183              		.cfi_offset 3, -16
 184              		.cfi_offset 4, -12
 185              		.cfi_offset 5, -8
 186              		.cfi_offset 14, -4
 187              		.loc 1 65 42 view .LVU36
 188 0002 0D46     		mov	r5, r1
 189 0004 0446     		mov	r4, r0
 190              		.loc 1 67 3 view .LVU37
 191 0006 C0B2     		uxtb	r0, r0
 192              	.LVL13:
 193              		.loc 1 67 3 view .LVU38
 194 0008 FFF7FEFF 		bl	test_emit_token
 195              	.LVL14:
 196              		.loc 1 68 3 is_stmt 1 view .LVU39
 197 000c E8B2     		uxtb	r0, r5
 198 000e FFF7FEFF 		bl	test_emit_token
 199              	.LVL15:
 200              		.loc 1 70 3 view .LVU40
 201              		.loc 1 71 1 is_stmt 0 view .LVU41
 202 0012 2046     		mov	r0, r4
 203 0014 38BD     		pop	{r3, r4, r5, pc}
 204              		.loc 1 71 1 view .LVU42
 205              		.cfi_endproc
 206              	.LFE406:
 207              		.size	dis_func2, .-dis_func2
 208 0016 00BF     		.section	.text.dis_func1,"ax",%progbits
 209              		.align	1
 210              		.p2align 4,,15
 211              		.syntax unified
 212              		.thumb
 213              		.thumb_func
 214              		.fpu softvfp
 215              		.type	dis_func1, %function
 216              	dis_func1:
 217              	.LVL16:
 218              	.LFB405:
 219              		.loc 1 58 33 is_stmt 1 view -0
 220              		.cfi_startproc
 221              		@ args = 0, pretend = 0, frame = 0
 222              		@ frame_needed = 0, uses_anonymous_args = 0
 223              		.loc 1 60 3 view .LVU44
 224              		.loc 1 58 33 is_stmt 0 view .LVU45
 225 0000 10B5     		push	{r4, lr}
 226              		.cfi_def_cfa_offset 8
 227              		.cfi_offset 4, -8
 228              		.cfi_offset 14, -4
ARM GAS  /tmp/ccViN8cm.s 			page 5


 229              		.loc 1 58 33 view .LVU46
 230 0002 0446     		mov	r4, r0
 231              		.loc 1 60 3 view .LVU47
 232 0004 C0B2     		uxtb	r0, r0
 233              	.LVL17:
 234              		.loc 1 60 3 view .LVU48
 235 0006 FFF7FEFF 		bl	test_emit_token
 236              	.LVL18:
 237              		.loc 1 62 3 is_stmt 1 view .LVU49
 238              		.loc 1 63 1 is_stmt 0 view .LVU50
 239 000a 2046     		mov	r0, r4
 240 000c 10BD     		pop	{r4, pc}
 241              		.loc 1 63 1 view .LVU51
 242              		.cfi_endproc
 243              	.LFE405:
 244              		.size	dis_func1, .-dis_func1
 245 000e 00BF     		.section	.text.dis_func0,"ax",%progbits
 246              		.align	1
 247              		.p2align 4,,15
 248              		.syntax unified
 249              		.thumb
 250              		.thumb_func
 251              		.fpu softvfp
 252              		.type	dis_func0, %function
 253              	dis_func0:
 254              	.LFB404:
 255              		.loc 1 51 28 is_stmt 1 view -0
 256              		.cfi_startproc
 257              		@ args = 0, pretend = 0, frame = 0
 258              		@ frame_needed = 0, uses_anonymous_args = 0
 259              		.loc 1 53 3 view .LVU53
 260              		.loc 1 51 28 is_stmt 0 view .LVU54
 261 0000 08B5     		push	{r3, lr}
 262              		.cfi_def_cfa_offset 8
 263              		.cfi_offset 3, -8
 264              		.cfi_offset 14, -4
 265              		.loc 1 53 3 view .LVU55
 266 0002 3020     		movs	r0, #48
 267 0004 FFF7FEFF 		bl	test_emit_token
 268              	.LVL19:
 269              		.loc 1 55 3 is_stmt 1 view .LVU56
 270              		.loc 1 56 1 is_stmt 0 view .LVU57
 271 0008 45F2AA50 		movw	r0, #21930
 272 000c 08BD     		pop	{r3, pc}
 273              		.cfi_endproc
 274              	.LFE404:
 275              		.size	dis_func0, .-dis_func0
 276 000e 00BF     		.section	.text.Thread1,"ax",%progbits
 277              		.align	1
 278              		.p2align 4,,15
 279              		.syntax unified
 280              		.thumb
 281              		.thumb_func
 282              		.fpu softvfp
 283              		.type	Thread1, %function
 284              	Thread1:
 285              	.LVL20:
ARM GAS  /tmp/ccViN8cm.s 			page 6


 286              	.LFB410:
 287              		.loc 1 101 35 is_stmt 1 view -0
 288              		.cfi_startproc
 289              		@ args = 0, pretend = 0, frame = 0
 290              		@ frame_needed = 0, uses_anonymous_args = 0
 291              		.loc 1 103 3 view .LVU59
 292              		.loc 1 105 3 view .LVU60
 293              		.loc 1 101 35 is_stmt 0 view .LVU61
 294 0000 10B5     		push	{r4, lr}
 295              		.cfi_def_cfa_offset 8
 296              		.cfi_offset 4, -8
 297              		.cfi_offset 14, -4
 298              		.loc 1 105 13 view .LVU62
 299 0002 074C     		ldr	r4, .L21
 300 0004 0023     		movs	r3, #0
 301 0006 2370     		strb	r3, [r4]
 302              	.LVL21:
 303              	.L17:
 304              		.loc 1 106 3 is_stmt 1 discriminator 1 view .LVU63
 305              		.loc 1 107 5 discriminator 1 view .LVU64
 306 0008 FFF7FEFF 		bl	chDelegateDispatch
 307              	.LVL22:
 308              		.loc 1 108 11 discriminator 1 view .LVU65
 309              		.loc 1 108 3 is_stmt 0 discriminator 1 view .LVU66
 310 000c 2378     		ldrb	r3, [r4]	@ zero_extendqisi2
 311 000e 002B     		cmp	r3, #0
 312 0010 FAD0     		beq	.L17
 313              		.loc 1 110 3 is_stmt 1 view .LVU67
 314              		.loc 1 111 1 is_stmt 0 view .LVU68
 315 0012 BDE81040 		pop	{r4, lr}
 316              		.cfi_restore 14
 317              		.cfi_restore 4
 318              		.cfi_def_cfa_offset 0
 319              		.loc 1 110 3 view .LVU69
 320 0016 40F6A570 		movw	r0, #4005
 321 001a FFF7FEBF 		b	chThdExit
 322              	.LVL23:
 323              	.L22:
 324 001e 00BF     		.align	2
 325              	.L21:
 326 0020 00000000 		.word	.LANCHOR0
 327              		.cfi_endproc
 328              	.LFE410:
 329              		.size	Thread1, .-Thread1
 330              		.section	.rodata.oslib_test_005_001_execute.str1.4,"aMS",%progbits,1
 331              		.align	2
 332              	.LC0:
 333 0000 64697370 		.ascii	"dispatcher\000"
 333      61746368 
 333      657200
 334 000b 00       		.align	2
 335              	.LC1:
 336 000c 696E7661 		.ascii	"invalid return value\000"
 336      6C696420 
 336      72657475 
 336      726E2076 
 336      616C7565 
ARM GAS  /tmp/ccViN8cm.s 			page 7


 337 0021 000000   		.align	2
 338              	.LC2:
 339 0024 756E6578 		.ascii	"unexpected tokens\000"
 339      70656374 
 339      65642074 
 339      6F6B656E 
 339      7300
 340 0036 0000     		.align	2
 341              	.LC3:
 342 0038 30414243 		.ascii	"0ABCDEFGHIJZ\000"
 342      44454647 
 342      48494A5A 
 342      00
 343 0045 000000   		.align	2
 344              	.LC4:
 345 0048 696E7661 		.ascii	"invalid exit code\000"
 345      6C696420 
 345      65786974 
 345      20636F64 
 345      6500
 346              		.section	.text.oslib_test_005_001_execute,"ax",%progbits
 347              		.align	1
 348              		.p2align 4,,15
 349              		.syntax unified
 350              		.thumb
 351              		.thumb_func
 352              		.fpu softvfp
 353              		.type	oslib_test_005_001_execute, %function
 354              	oslib_test_005_001_execute:
 355              	.LFB411:
 356              		.loc 1 131 46 is_stmt 1 view -0
 357              		.cfi_startproc
 358              		@ args = 0, pretend = 0, frame = 24
 359              		@ frame_needed = 0, uses_anonymous_args = 0
 360              		.loc 1 132 3 view .LVU71
 361              		.loc 1 135 3 view .LVU72
 362              		.loc 1 131 46 is_stmt 0 view .LVU73
 363 0000 30B5     		push	{r4, r5, lr}
 364              		.cfi_def_cfa_offset 12
 365              		.cfi_offset 4, -12
 366              		.cfi_offset 5, -8
 367              		.cfi_offset 14, -4
 368              	.LBB23:
 369              	.LBB24:
 370              	.LBB25:
 371              	.LBB26:
 372              	.LBB27:
 373              		.file 2 "../ChibiOS/os/rt/include/chthreads.h"
 374              		.loc 2 343 10 view .LVU74
 375 0002 4E4B     		ldr	r3, .L29
 376              	.LBE27:
 377              	.LBE26:
 378              	.LBE25:
 379              	.LBE24:
 380              		.loc 1 137 25 view .LVU75
 381 0004 4E4A     		ldr	r2, .L29+4
 382              	.LBB32:
ARM GAS  /tmp/ccViN8cm.s 			page 8


 383              	.LBB30:
 384              		.loc 2 356 37 view .LVU76
 385 0006 DB68     		ldr	r3, [r3, #12]
 386              	.LBE30:
 387              	.LBE32:
 388              		.loc 1 137 25 view .LVU77
 389 0008 4E49     		ldr	r1, .L29+8
 390              		.loc 1 141 36 view .LVU78
 391 000a 9B68     		ldr	r3, [r3, #8]
 392              	.LBE23:
 393              		.loc 1 135 3 view .LVU79
 394 000c 4E4C     		ldr	r4, .L29+12
 395              		.loc 1 131 46 view .LVU80
 396 000e 8BB0     		sub	sp, sp, #44
 397              		.cfi_def_cfa_offset 56
 398              	.LBB34:
 399              		.loc 1 137 25 view .LVU81
 400 0010 02F5F870 		add	r0, r2, #496
 401              		.loc 1 141 36 view .LVU82
 402 0014 0133     		adds	r3, r3, #1
 403              		.loc 1 137 25 view .LVU83
 404 0016 0491     		str	r1, [sp, #16]
 405 0018 4C49     		ldr	r1, .L29+16
 406 001a 0793     		str	r3, [sp, #28]
 407 001c CDE90520 		strd	r2, r0, [sp, #20]
 408 0020 0023     		movs	r3, #0
 409              	.LBE34:
 410              		.loc 1 135 3 view .LVU84
 411 0022 0125     		movs	r5, #1
 412              	.LBB35:
 413              		.loc 1 145 10 view .LVU85
 414 0024 04A8     		add	r0, sp, #16
 415              		.loc 1 137 25 view .LVU86
 416 0026 CDE90813 		strd	r1, r3, [sp, #32]
 417              	.LBE35:
 418              		.loc 1 135 3 view .LVU87
 419 002a 2560     		str	r5, [r4]
 420              	.LBB36:
 421              		.loc 1 137 5 is_stmt 1 view .LVU88
 422              	.LBB33:
 423              	.LBI24:
 424              		.loc 2 354 23 view .LVU89
 425              	.LBB31:
 426              		.loc 2 356 3 view .LVU90
 427              	.LBB29:
 428              	.LBI26:
 429              		.loc 2 341 25 view .LVU91
 430              	.LBB28:
 431              		.loc 2 343 3 view .LVU92
 432              	.LBE28:
 433              	.LBE29:
 434              	.LBE31:
 435              	.LBE33:
 436              		.loc 1 145 5 view .LVU93
 437              		.loc 1 145 10 is_stmt 0 view .LVU94
 438 002c FFF7FEFF 		bl	chThdCreate
 439              	.LVL24:
ARM GAS  /tmp/ccViN8cm.s 			page 9


 440              	.LBE36:
 441              		.loc 1 151 3 view .LVU95
 442 0030 0223     		movs	r3, #2
 443              	.LBB37:
 444              	.LBB38:
 445              	.LBB39:
 446              		.file 3 "../ChibiOS/os/oslib/include/chdelegates.h"
 447              		.loc 3 126 10 view .LVU96
 448 0032 4749     		ldr	r1, .L29+20
 449 0034 474A     		ldr	r2, .L29+24
 450              	.LBE39:
 451              	.LBE38:
 452              	.LBE37:
 453              		.loc 1 151 3 view .LVU97
 454 0036 2360     		str	r3, [r4]
 455              	.LBB52:
 456              		.loc 1 145 10 view .LVU98
 457 0038 0546     		mov	r5, r0
 458              	.LVL25:
 459              		.loc 1 145 10 view .LVU99
 460              	.LBE52:
 461              		.loc 1 147 3 is_stmt 1 view .LVU100
 462              		.loc 1 147 19 view .LVU101
 463              		.loc 1 151 3 view .LVU102
 464              	.LBB53:
 465              		.loc 1 153 5 view .LVU103
 466              		.loc 1 155 5 view .LVU104
 467              	.LBB41:
 468              	.LBI38:
 469              		.loc 3 124 21 view .LVU105
 470              	.LBB40:
 471              		.loc 3 126 3 view .LVU106
 472              		.loc 3 126 10 is_stmt 0 view .LVU107
 473 003a FFF7FEFF 		bl	chDelegateCallVeneer
 474              	.LVL26:
 475              		.loc 3 126 10 view .LVU108
 476              	.LBE40:
 477              	.LBE41:
 478              		.loc 1 156 5 is_stmt 1 view .LVU109
 479 003e 45F2AA53 		movw	r3, #21930
 480 0042 C01A     		subs	r0, r0, r3
 481              	.LVL27:
 482              		.loc 1 156 5 is_stmt 0 view .LVU110
 483 0044 B0FA80F0 		clz	r0, r0
 484              	.LVL28:
 485              		.loc 1 156 5 view .LVU111
 486 0048 4349     		ldr	r1, .L29+28
 487 004a 4009     		lsrs	r0, r0, #5
 488 004c FFF7FEFF 		bl	__test_assert
 489              	.LVL29:
 490 0050 08B1     		cbz	r0, .L28
 491              	.L23:
 492              		.loc 1 156 5 view .LVU112
 493              	.LBE53:
 494              		.loc 1 184 1 view .LVU113
 495 0052 0BB0     		add	sp, sp, #44
 496              		.cfi_remember_state
ARM GAS  /tmp/ccViN8cm.s 			page 10


 497              		.cfi_def_cfa_offset 12
 498              		@ sp needed
 499 0054 30BD     		pop	{r4, r5, pc}
 500              	.LVL30:
 501              	.L28:
 502              		.cfi_restore_state
 503              	.LBB54:
 504              		.loc 1 156 58 is_stmt 1 view .LVU114
 505              		.loc 1 158 5 view .LVU115
 506              	.LBB42:
 507              	.LBI42:
 508              		.loc 3 140 21 view .LVU116
 509              	.LBB43:
 510              		.loc 3 143 3 view .LVU117
 511              		.loc 3 143 10 is_stmt 0 view .LVU118
 512 0056 4149     		ldr	r1, .L29+32
 513 0058 414A     		ldr	r2, .L29+36
 514 005a 4123     		movs	r3, #65
 515 005c 2846     		mov	r0, r5
 516 005e FFF7FEFF 		bl	chDelegateCallVeneer
 517              	.LVL31:
 518              		.loc 3 143 10 view .LVU119
 519              	.LBE43:
 520              	.LBE42:
 521              		.loc 1 159 5 is_stmt 1 view .LVU120
 522 0062 A0F14100 		sub	r0, #65
 523              	.LVL32:
 524              		.loc 1 159 5 is_stmt 0 view .LVU121
 525 0066 B0FA80F0 		clz	r0, r0
 526              	.LVL33:
 527              		.loc 1 159 5 view .LVU122
 528 006a 3B49     		ldr	r1, .L29+28
 529 006c 4009     		lsrs	r0, r0, #5
 530 006e FFF7FEFF 		bl	__test_assert
 531              	.LVL34:
 532 0072 0028     		cmp	r0, #0
 533 0074 EDD1     		bne	.L23
 534              		.loc 1 159 60 is_stmt 1 view .LVU123
 535              		.loc 1 161 5 view .LVU124
 536              	.LVL35:
 537              	.LBB44:
 538              	.LBI44:
 539              		.loc 3 158 21 view .LVU125
 540              	.LBB45:
 541              		.loc 3 161 3 view .LVU126
 542              		.loc 3 161 10 is_stmt 0 view .LVU127
 543 0076 4320     		movs	r0, #67
 544 0078 3A49     		ldr	r1, .L29+40
 545 007a 0090     		str	r0, [sp]
 546 007c 3A4A     		ldr	r2, .L29+44
 547 007e 4223     		movs	r3, #66
 548 0080 2846     		mov	r0, r5
 549 0082 FFF7FEFF 		bl	chDelegateCallVeneer
 550              	.LVL36:
 551              		.loc 3 161 10 view .LVU128
 552              	.LBE45:
 553              	.LBE44:
ARM GAS  /tmp/ccViN8cm.s 			page 11


 554              		.loc 1 162 5 is_stmt 1 view .LVU129
 555 0086 A0F14200 		sub	r0, #66
 556              	.LVL37:
 557              		.loc 1 162 5 is_stmt 0 view .LVU130
 558 008a B0FA80F0 		clz	r0, r0
 559              	.LVL38:
 560              		.loc 1 162 5 view .LVU131
 561 008e 3249     		ldr	r1, .L29+28
 562 0090 4009     		lsrs	r0, r0, #5
 563 0092 FFF7FEFF 		bl	__test_assert
 564              	.LVL39:
 565 0096 0028     		cmp	r0, #0
 566 0098 DBD1     		bne	.L23
 567              		.loc 1 162 60 is_stmt 1 view .LVU132
 568              		.loc 1 164 5 view .LVU133
 569              	.LVL40:
 570              	.LBB46:
 571              	.LBI46:
 572              		.loc 3 177 21 view .LVU134
 573              	.LBB47:
 574              		.loc 3 180 3 view .LVU135
 575              		.loc 3 180 10 is_stmt 0 view .LVU136
 576 009a 4620     		movs	r0, #70
 577 009c 4521     		movs	r1, #69
 578 009e CDE90010 		strd	r1, r0, [sp]
 579 00a2 324A     		ldr	r2, .L29+48
 580 00a4 3249     		ldr	r1, .L29+52
 581 00a6 4423     		movs	r3, #68
 582 00a8 2846     		mov	r0, r5
 583 00aa FFF7FEFF 		bl	chDelegateCallVeneer
 584              	.LVL41:
 585              		.loc 3 180 10 view .LVU137
 586              	.LBE47:
 587              	.LBE46:
 588              		.loc 1 165 5 is_stmt 1 view .LVU138
 589 00ae A0F14400 		sub	r0, #68
 590              	.LVL42:
 591              		.loc 1 165 5 is_stmt 0 view .LVU139
 592 00b2 B0FA80F0 		clz	r0, r0
 593              	.LVL43:
 594              		.loc 1 165 5 view .LVU140
 595 00b6 2849     		ldr	r1, .L29+28
 596 00b8 4009     		lsrs	r0, r0, #5
 597 00ba FFF7FEFF 		bl	__test_assert
 598              	.LVL44:
 599 00be 0028     		cmp	r0, #0
 600 00c0 C7D1     		bne	.L23
 601              		.loc 1 165 60 is_stmt 1 view .LVU141
 602              		.loc 1 167 5 view .LVU142
 603              	.LVL45:
 604              	.LBB48:
 605              	.LBI48:
 606              		.loc 3 197 21 view .LVU143
 607              	.LBB49:
 608              		.loc 3 201 3 view .LVU144
 609              		.loc 3 201 10 is_stmt 0 view .LVU145
 610 00c2 4A22     		movs	r2, #74
ARM GAS  /tmp/ccViN8cm.s 			page 12


 611 00c4 4923     		movs	r3, #73
 612 00c6 4820     		movs	r0, #72
 613 00c8 CDE90132 		strd	r3, r2, [sp, #4]
 614 00cc 2949     		ldr	r1, .L29+56
 615 00ce 0090     		str	r0, [sp]
 616 00d0 294A     		ldr	r2, .L29+60
 617 00d2 4723     		movs	r3, #71
 618 00d4 2846     		mov	r0, r5
 619 00d6 FFF7FEFF 		bl	chDelegateCallVeneer
 620              	.LVL46:
 621              		.loc 3 201 10 view .LVU146
 622              	.LBE49:
 623              	.LBE48:
 624              		.loc 1 168 5 is_stmt 1 view .LVU147
 625 00da A0F14700 		sub	r0, #71
 626              	.LVL47:
 627              		.loc 1 168 5 is_stmt 0 view .LVU148
 628 00de B0FA80F0 		clz	r0, r0
 629              	.LVL48:
 630              		.loc 1 168 5 view .LVU149
 631 00e2 1D49     		ldr	r1, .L29+28
 632 00e4 4009     		lsrs	r0, r0, #5
 633 00e6 FFF7FEFF 		bl	__test_assert
 634              	.LVL49:
 635 00ea 0028     		cmp	r0, #0
 636 00ec B1D1     		bne	.L23
 637              		.loc 1 168 60 is_stmt 1 view .LVU150
 638              		.loc 1 170 5 view .LVU151
 639              	.LVL50:
 640              	.LBB50:
 641              	.LBI50:
 642              		.loc 3 124 21 view .LVU152
 643              	.LBB51:
 644              		.loc 3 126 3 view .LVU153
 645              		.loc 3 126 10 is_stmt 0 view .LVU154
 646 00ee 1849     		ldr	r1, .L29+20
 647 00f0 224A     		ldr	r2, .L29+64
 648 00f2 2846     		mov	r0, r5
 649 00f4 FFF7FEFF 		bl	chDelegateCallVeneer
 650              	.LVL51:
 651              		.loc 3 126 10 view .LVU155
 652              	.LBE51:
 653              	.LBE50:
 654              		.loc 1 171 5 is_stmt 1 view .LVU156
 655 00f8 4AF65523 		movw	r3, #43605
 656 00fc C01A     		subs	r0, r0, r3
 657              	.LVL52:
 658              		.loc 1 171 5 is_stmt 0 view .LVU157
 659 00fe B0FA80F0 		clz	r0, r0
 660              	.LVL53:
 661              		.loc 1 171 5 view .LVU158
 662 0102 1549     		ldr	r1, .L29+28
 663 0104 4009     		lsrs	r0, r0, #5
 664 0106 FFF7FEFF 		bl	__test_assert
 665              	.LVL54:
 666 010a 0028     		cmp	r0, #0
 667 010c A1D1     		bne	.L23
ARM GAS  /tmp/ccViN8cm.s 			page 13


 668              		.loc 1 171 58 is_stmt 1 discriminator 2 view .LVU159
 669              		.loc 1 173 5 discriminator 2 view .LVU160
 670 010e 1C49     		ldr	r1, .L29+68
 671 0110 1C48     		ldr	r0, .L29+72
 672 0112 FFF7FEFF 		bl	__test_assert_sequence
 673              	.LVL55:
 674 0116 0028     		cmp	r0, #0
 675 0118 9BD1     		bne	.L23
 676              		.loc 1 173 62 discriminator 2 view .LVU161
 677              	.LBE54:
 678              		.loc 1 175 3 discriminator 2 view .LVU162
 679              		.loc 1 175 19 discriminator 2 view .LVU163
 680              		.loc 1 178 3 discriminator 2 view .LVU164
 681 011a 0323     		movs	r3, #3
 682              	.LBB55:
 683              		.loc 1 180 17 is_stmt 0 discriminator 2 view .LVU165
 684 011c 2846     		mov	r0, r5
 685              	.LBE55:
 686              		.loc 1 178 3 discriminator 2 view .LVU166
 687 011e 2360     		str	r3, [r4]
 688              	.LBB56:
 689              		.loc 1 180 5 is_stmt 1 discriminator 2 view .LVU167
 690              		.loc 1 180 17 is_stmt 0 discriminator 2 view .LVU168
 691 0120 FFF7FEFF 		bl	chThdWait
 692              	.LVL56:
 693              		.loc 1 181 5 is_stmt 1 discriminator 2 view .LVU169
 694 0124 40F6A573 		movw	r3, #4005
 695 0128 C01A     		subs	r0, r0, r3
 696              	.LVL57:
 697              		.loc 1 181 5 is_stmt 0 discriminator 2 view .LVU170
 698 012a 1749     		ldr	r1, .L29+76
 699 012c B0FA80F0 		clz	r0, r0
 700              	.LVL58:
 701              		.loc 1 181 5 discriminator 2 view .LVU171
 702 0130 4009     		lsrs	r0, r0, #5
 703              	.LBE56:
 704              		.loc 1 184 1 discriminator 2 view .LVU172
 705 0132 0BB0     		add	sp, sp, #44
 706              		.cfi_def_cfa_offset 12
 707              		@ sp needed
 708 0134 BDE83040 		pop	{r4, r5, lr}
 709              		.cfi_restore 14
 710              		.cfi_restore 5
 711              		.cfi_restore 4
 712              		.cfi_def_cfa_offset 0
 713              	.LVL59:
 714              	.LBB57:
 715              		.loc 1 181 5 discriminator 2 view .LVU173
 716 0138 FFF7FEBF 		b	__test_assert
 717              	.LVL60:
 718              	.L30:
 719              		.align	2
 720              	.L29:
 721 013c 00000000 		.word	ch0
 722 0140 00000000 		.word	.LANCHOR1
 723 0144 00000000 		.word	.LC0
 724 0148 00000000 		.word	chtest
ARM GAS  /tmp/ccViN8cm.s 			page 14


 725 014c 00000000 		.word	Thread1
 726 0150 00000000 		.word	__ch_delegate_fn0
 727 0154 00000000 		.word	dis_func0
 728 0158 0C000000 		.word	.LC1
 729 015c 00000000 		.word	__ch_delegate_fn1
 730 0160 00000000 		.word	dis_func1
 731 0164 00000000 		.word	__ch_delegate_fn2
 732 0168 00000000 		.word	dis_func2
 733 016c 00000000 		.word	dis_func3
 734 0170 00000000 		.word	__ch_delegate_fn3
 735 0174 00000000 		.word	__ch_delegate_fn4
 736 0178 00000000 		.word	dis_func4
 737 017c 00000000 		.word	dis_func_end
 738 0180 24000000 		.word	.LC2
 739 0184 38000000 		.word	.LC3
 740 0188 48000000 		.word	.LC4
 741              	.LBE57:
 742              		.cfi_endproc
 743              	.LFE411:
 744              		.size	oslib_test_005_001_execute, .-oslib_test_005_001_execute
 745              		.global	oslib_test_sequence_005
 746              		.section	.rodata.str1.4,"aMS",%progbits,1
 747              		.align	2
 748              	.LC5:
 749 0000 54687265 		.ascii	"Thread Delegates\000"
 749      61642044 
 749      656C6567 
 749      61746573 
 749      00
 750              		.global	oslib_test_sequence_005_array
 751 0011 000000   		.align	2
 752              	.LC6:
 753 0014 44697370 		.ascii	"Dispatcher test\000"
 753      61746368 
 753      65722074 
 753      65737400 
 754              		.section	.bss.exit_flag,"aw",%nobits
 755              		.set	.LANCHOR0,. + 0
 756              		.type	exit_flag, %object
 757              		.size	exit_flag, 1
 758              	exit_flag:
 759 0000 00       		.space	1
 760              		.section	.bss.waThread1,"aw",%nobits
 761              		.align	3
 762              		.set	.LANCHOR1,. + 0
 763              		.type	waThread1, %object
 764              		.size	waThread1, 496
 765              	waThread1:
 766 0000 00000000 		.space	496
 766      00000000 
 766      00000000 
 766      00000000 
 766      00000000 
 767              		.section	.rodata.oslib_test_005_001,"a"
 768              		.align	2
 769              		.type	oslib_test_005_001, %object
 770              		.size	oslib_test_005_001, 16
ARM GAS  /tmp/ccViN8cm.s 			page 15


 771              	oslib_test_005_001:
 772 0000 14000000 		.word	.LC6
 773 0004 00000000 		.word	0
 774 0008 00000000 		.word	0
 775 000c 00000000 		.word	oslib_test_005_001_execute
 776              		.section	.rodata.oslib_test_sequence_005,"a"
 777              		.align	2
 778              		.type	oslib_test_sequence_005, %object
 779              		.size	oslib_test_sequence_005, 8
 780              	oslib_test_sequence_005:
 781 0000 00000000 		.word	.LC5
 782 0004 00000000 		.word	oslib_test_sequence_005_array
 783              		.section	.rodata.oslib_test_sequence_005_array,"a"
 784              		.align	2
 785              		.type	oslib_test_sequence_005_array, %object
 786              		.size	oslib_test_sequence_005_array, 8
 787              	oslib_test_sequence_005_array:
 788 0000 00000000 		.word	oslib_test_005_001
 789 0004 00000000 		.word	0
 790              		.text
 791              	.Letext0:
 792              		.file 4 "/opt/gcc-arm-none-eabi/gcc-arm-none-eabi-10.3-2021.07/lib/gcc/arm-none-eabi/10.3.1/includ
 793              		.file 5 "/opt/gcc-arm-none-eabi/gcc-arm-none-eabi-10.3-2021.07/arm-none-eabi/include/machine/_defa
 794              		.file 6 "/opt/gcc-arm-none-eabi/gcc-arm-none-eabi-10.3-2021.07/arm-none-eabi/include/sys/_stdint.h
 795              		.file 7 "../ChibiOS/os/common/ports/ARM-common/chtypes.h"
 796              		.file 8 "../ChibiOS/os/rt/include/chearly.h"
 797              		.file 9 "../ChibiOS/os/rt/include/chobjects.h"
 798              		.file 10 "../ChibiOS/os/rt/include/chrfcu.h"
 799              		.file 11 "../ChibiOS/os/rt/include/chdebug.h"
 800              		.file 12 "../ChibiOS/os/rt/include/chtime.h"
 801              		.file 13 "../ChibiOS/os/rt/include/chlists.h"
 802              		.file 14 "../ChibiOS/os/common/ports/ARMv7-M/chcore.h"
 803              		.file 15 "../ChibiOS/os/rt/include/chsem.h"
 804              		.file 16 "../ChibiOS/os/rt/include/chmtx.h"
 805              		.file 17 "../ChibiOS/os/hal/include/hal_streams.h"
 806              		.file 18 "../ChibiOS/os/test/include/ch_test.h"
 807              		.file 19 "../ChibiOS/test/oslib/source/test/oslib_test_sequence_005.h"
 808              		.file 20 "../ChibiOS/os/rt/include/chsys.h"