ARM GAS  /tmp/ccMmeZ0f.s 			page 1


   1              		.cpu cortex-m4
   2              		.eabi_attribute 20, 1
   3              		.eabi_attribute 21, 1
   4              		.eabi_attribute 23, 3
   5              		.eabi_attribute 24, 1
   6              		.eabi_attribute 25, 1
   7              		.eabi_attribute 26, 1
   8              		.eabi_attribute 30, 2
   9              		.eabi_attribute 34, 1
  10              		.eabi_attribute 18, 4
  11              		.file	"rt_test_sequence_007.c"
  12              		.text
  13              	.Ltext0:
  14              		.cfi_sections	.debug_frame
  15              		.section	.text.rt_test_007_002_setup,"ax",%progbits
  16              		.align	1
  17              		.p2align 4,,15
  18              		.arch armv7e-m
  19              		.syntax unified
  20              		.thumb
  21              		.thumb_func
  22              		.fpu softvfp
  23              		.type	rt_test_007_002_setup, %function
  24              	rt_test_007_002_setup:
  25              	.LFB411:
  26              		.file 1 "../ChibiOS/test/rt/source/test/rt_test_sequence_007.c"
  27              		.loc 1 173 41 view -0
  28              		.cfi_startproc
  29              		@ args = 0, pretend = 0, frame = 0
  30              		@ frame_needed = 0, uses_anonymous_args = 0
  31              		@ link register save eliminated.
  32              		.loc 1 174 3 view .LVU1
  33 0000 0148     		ldr	r0, .L3
  34 0002 0021     		movs	r1, #0
  35 0004 FFF7FEBF 		b	chSemObjectInit
  36              	.LVL0:
  37              	.L4:
  38              		.align	2
  39              	.L3:
  40 0008 00000000 		.word	.LANCHOR0
  41              		.cfi_endproc
  42              	.LFE411:
  43              		.size	rt_test_007_002_setup, .-rt_test_007_002_setup
  44              		.section	.text.rt_test_007_001_setup,"ax",%progbits
  45              		.align	1
  46              		.p2align 4,,15
  47              		.syntax unified
  48              		.thumb
  49              		.thumb_func
  50              		.fpu softvfp
  51              		.type	rt_test_007_001_setup, %function
  52              	rt_test_007_001_setup:
  53              	.LFB408:
  54              		.loc 1 107 41 view -0
  55              		.cfi_startproc
  56              		@ args = 0, pretend = 0, frame = 0
  57              		@ frame_needed = 0, uses_anonymous_args = 0
ARM GAS  /tmp/ccMmeZ0f.s 			page 2


  58              		@ link register save eliminated.
  59              		.loc 1 108 3 view .LVU3
  60 0000 0148     		ldr	r0, .L6
  61 0002 0121     		movs	r1, #1
  62 0004 FFF7FEBF 		b	chSemObjectInit
  63              	.LVL1:
  64              	.L7:
  65              		.align	2
  66              	.L6:
  67 0008 00000000 		.word	.LANCHOR0
  68              		.cfi_endproc
  69              	.LFE408:
  70              		.size	rt_test_007_001_setup, .-rt_test_007_001_setup
  71              		.section	.text.rt_test_007_001_teardown,"ax",%progbits
  72              		.align	1
  73              		.p2align 4,,15
  74              		.syntax unified
  75              		.thumb
  76              		.thumb_func
  77              		.fpu softvfp
  78              		.type	rt_test_007_001_teardown, %function
  79              	rt_test_007_001_teardown:
  80              	.LFB409:
  81              		.loc 1 111 44 view -0
  82              		.cfi_startproc
  83              		@ args = 0, pretend = 0, frame = 0
  84              		@ frame_needed = 0, uses_anonymous_args = 0
  85              		@ link register save eliminated.
  86              		.loc 1 112 3 view .LVU5
  87              	.LVL2:
  88              	.LBB379:
  89              	.LBI379:
  90              		.file 2 "../ChibiOS/os/rt/include/chsem.h"
  91              		.loc 2 123 20 view .LVU6
  92              	.LBB380:
  93              		.loc 2 125 3 view .LVU7
  94 0000 0248     		ldr	r0, .L9
  95 0002 6FF00102 		mvn	r2, #1
  96 0006 0021     		movs	r1, #0
  97 0008 FFF7FEBF 		b	chSemResetWithMessage
  98              	.LVL3:
  99              	.L10:
 100              		.align	2
 101              	.L9:
 102 000c 00000000 		.word	.LANCHOR0
 103              	.LBE380:
 104              	.LBE379:
 105              		.cfi_endproc
 106              	.LFE409:
 107              		.size	rt_test_007_001_teardown, .-rt_test_007_001_teardown
 108              		.section	.text.rt_test_007_005_teardown,"ax",%progbits
 109              		.align	1
 110              		.p2align 4,,15
 111              		.syntax unified
 112              		.thumb
 113              		.thumb_func
 114              		.fpu softvfp
ARM GAS  /tmp/ccMmeZ0f.s 			page 3


 115              		.type	rt_test_007_005_teardown, %function
 116              	rt_test_007_005_teardown:
 117              	.LFB418:
 118              		.loc 1 369 44 view -0
 119              		.cfi_startproc
 120              		@ args = 0, pretend = 0, frame = 0
 121              		@ frame_needed = 0, uses_anonymous_args = 0
 122              		@ link register save eliminated.
 123              		.loc 1 370 3 view .LVU9
 124 0000 FFF7FEBF 		b	test_wait_threads
 125              	.LVL4:
 126              		.cfi_endproc
 127              	.LFE418:
 128              		.size	rt_test_007_005_teardown, .-rt_test_007_005_teardown
 129              		.section	.rodata.rt_test_007_005_execute.str1.4,"aMS",%progbits,1
 130              		.align	2
 131              	.LC0:
 132 0000 71756575 		.ascii	"queue not empty\000"
 132      65206E6F 
 132      7420656D 
 132      70747900 
 133              		.align	2
 134              	.LC1:
 135 0010 636F756E 		.ascii	"counter not zero\000"
 135      74657220 
 135      6E6F7420 
 135      7A65726F 
 135      00
 136              		.section	.text.rt_test_007_005_execute,"ax",%progbits
 137              		.align	1
 138              		.p2align 4,,15
 139              		.syntax unified
 140              		.thumb
 141              		.thumb_func
 142              		.fpu softvfp
 143              		.type	rt_test_007_005_execute, %function
 144              	rt_test_007_005_execute:
 145              	.LFB419:
 146              		.loc 1 373 43 view -0
 147              		.cfi_startproc
 148              		@ args = 0, pretend = 0, frame = 0
 149              		@ frame_needed = 0, uses_anonymous_args = 0
 150              		.loc 1 377 3 view .LVU11
 151              		.loc 1 373 43 is_stmt 0 view .LVU12
 152 0000 30B5     		push	{r4, r5, lr}
 153              		.cfi_def_cfa_offset 12
 154              		.cfi_offset 4, -12
 155              		.cfi_offset 5, -8
 156              		.cfi_offset 14, -4
 157              	.LBB381:
 158              	.LBB382:
 159              	.LBB383:
 160              	.LBB384:
 161              		.file 3 "../ChibiOS/os/rt/include/chthreads.h"
 162              		.loc 3 343 10 view .LVU13
 163 0002 244B     		ldr	r3, .L18
 164              	.LBE384:
ARM GAS  /tmp/ccMmeZ0f.s 			page 4


 165              	.LBE383:
 166              	.LBE382:
 167              	.LBE381:
 168              		.loc 1 379 18 view .LVU14
 169 0004 2449     		ldr	r1, .L18+4
 170              	.LBB389:
 171              	.LBB387:
 172              		.loc 3 356 37 view .LVU15
 173 0006 DB68     		ldr	r3, [r3, #12]
 174              	.LBE387:
 175              	.LBE389:
 176              		.loc 1 377 3 view .LVU16
 177 0008 244D     		ldr	r5, .L18+8
 178              		.loc 1 379 18 view .LVU17
 179 000a 9A68     		ldr	r2, [r3, #8]
 180 000c 0868     		ldr	r0, [r1]
 181 000e 244B     		ldr	r3, .L18+12
 182              		.loc 1 373 43 view .LVU18
 183 0010 83B0     		sub	sp, sp, #12
 184              		.cfi_def_cfa_offset 24
 185              		.loc 1 379 18 view .LVU19
 186 0012 0024     		movs	r4, #0
 187              		.loc 1 377 3 view .LVU20
 188 0014 0121     		movs	r1, #1
 189              		.loc 1 379 18 view .LVU21
 190 0016 0132     		adds	r2, r2, #1
 191 0018 0094     		str	r4, [sp]
 192              		.loc 1 377 3 view .LVU22
 193 001a 2960     		str	r1, [r5]
 194              		.loc 1 379 5 is_stmt 1 view .LVU23
 195              	.LBB390:
 196              	.LBI381:
 197              		.loc 3 354 23 view .LVU24
 198              	.LBB388:
 199              		.loc 3 356 3 view .LVU25
 200              	.LBB386:
 201              	.LBI383:
 202              		.loc 3 341 25 view .LVU26
 203              	.LBB385:
 204              		.loc 3 343 3 view .LVU27
 205              	.LBE385:
 206              	.LBE386:
 207              	.LBE388:
 208              	.LBE390:
 209              		.loc 1 379 18 is_stmt 0 view .LVU28
 210 001c 4FF4B871 		mov	r1, #368
 211 0020 FFF7FEFF 		bl	chThdCreateStatic
 212              	.LVL5:
 213              		.loc 1 388 5 view .LVU29
 214 0024 1F4C     		ldr	r4, .L18+16
 215              		.loc 1 379 16 view .LVU30
 216 0026 204B     		ldr	r3, .L18+20
 217              		.loc 1 388 5 view .LVU31
 218 0028 2146     		mov	r1, r4
 219              		.loc 1 386 3 view .LVU32
 220 002a 0222     		movs	r2, #2
 221              		.loc 1 379 16 view .LVU33
ARM GAS  /tmp/ccMmeZ0f.s 			page 5


 222 002c 1860     		str	r0, [r3]
 223              		.loc 1 381 3 is_stmt 1 view .LVU34
 224              		.loc 1 381 19 view .LVU35
 225              		.loc 1 386 3 view .LVU36
 226              		.loc 1 388 5 view .LVU37
 227 002e 2046     		mov	r0, r4
 228              		.loc 1 386 3 is_stmt 0 view .LVU38
 229 0030 2A60     		str	r2, [r5]
 230              		.loc 1 388 5 view .LVU39
 231 0032 FFF7FEFF 		bl	chSemSignalWait
 232              	.LVL6:
 233              		.loc 1 389 5 is_stmt 1 view .LVU40
 234              	.LBB391:
 235              	.LBI391:
 236              		.file 4 "../ChibiOS/os/rt/include/chlists.h"
 237              		.loc 4 236 20 view .LVU41
 238              	.LBB392:
 239              		.loc 4 238 3 view .LVU42
 240              		.loc 4 238 10 is_stmt 0 view .LVU43
 241 0036 2068     		ldr	r0, [r4]
 242              	.LBE392:
 243              	.LBE391:
 244              		.loc 1 389 5 view .LVU44
 245 0038 1C49     		ldr	r1, .L18+24
 246 003a 001B     		subs	r0, r0, r4
 247 003c B0FA80F0 		clz	r0, r0
 248 0040 4009     		lsrs	r0, r0, #5
 249 0042 FFF7FEFF 		bl	__test_assert
 250              	.LVL7:
 251 0046 08B1     		cbz	r0, .L17
 252              	.L12:
 253              		.loc 1 404 1 view .LVU45
 254 0048 03B0     		add	sp, sp, #12
 255              		.cfi_remember_state
 256              		.cfi_def_cfa_offset 12
 257              		@ sp needed
 258 004a 30BD     		pop	{r4, r5, pc}
 259              	.L17:
 260              		.cfi_restore_state
 261              		.loc 1 389 66 is_stmt 1 discriminator 2 view .LVU46
 262              		.loc 1 390 5 discriminator 2 view .LVU47
 263 004c A068     		ldr	r0, [r4, #8]
 264 004e 1849     		ldr	r1, .L18+28
 265 0050 B0FA80F0 		clz	r0, r0
 266 0054 4009     		lsrs	r0, r0, #5
 267 0056 FFF7FEFF 		bl	__test_assert
 268              	.LVL8:
 269 005a 0028     		cmp	r0, #0
 270 005c F4D1     		bne	.L12
 271              		.loc 1 390 51 discriminator 2 view .LVU48
 272              		.loc 1 392 3 discriminator 2 view .LVU49
 273              		.loc 1 392 19 discriminator 2 view .LVU50
 274              		.loc 1 397 3 discriminator 2 view .LVU51
 275              		.loc 1 399 5 is_stmt 0 discriminator 2 view .LVU52
 276 005e 2146     		mov	r1, r4
 277              		.loc 1 397 3 discriminator 2 view .LVU53
 278 0060 0323     		movs	r3, #3
ARM GAS  /tmp/ccMmeZ0f.s 			page 6


 279              		.loc 1 399 5 discriminator 2 view .LVU54
 280 0062 2046     		mov	r0, r4
 281              		.loc 1 397 3 discriminator 2 view .LVU55
 282 0064 2B60     		str	r3, [r5]
 283              		.loc 1 399 5 is_stmt 1 discriminator 2 view .LVU56
 284 0066 FFF7FEFF 		bl	chSemSignalWait
 285              	.LVL9:
 286              		.loc 1 400 5 discriminator 2 view .LVU57
 287              	.LBB393:
 288              	.LBI393:
 289              		.loc 4 236 20 discriminator 2 view .LVU58
 290              	.LBB394:
 291              		.loc 4 238 3 discriminator 2 view .LVU59
 292              		.loc 4 238 10 is_stmt 0 discriminator 2 view .LVU60
 293 006a 2068     		ldr	r0, [r4]
 294              	.LBE394:
 295              	.LBE393:
 296              		.loc 1 400 5 discriminator 2 view .LVU61
 297 006c 0F49     		ldr	r1, .L18+24
 298 006e 001B     		subs	r0, r0, r4
 299 0070 B0FA80F0 		clz	r0, r0
 300 0074 4009     		lsrs	r0, r0, #5
 301 0076 FFF7FEFF 		bl	__test_assert
 302              	.LVL10:
 303 007a 0028     		cmp	r0, #0
 304 007c E4D1     		bne	.L12
 305              		.loc 1 400 66 is_stmt 1 discriminator 2 view .LVU62
 306              		.loc 1 401 5 discriminator 2 view .LVU63
 307 007e A068     		ldr	r0, [r4, #8]
 308 0080 0B49     		ldr	r1, .L18+28
 309 0082 B0FA80F0 		clz	r0, r0
 310 0086 4009     		lsrs	r0, r0, #5
 311              		.loc 1 404 1 is_stmt 0 discriminator 2 view .LVU64
 312 0088 03B0     		add	sp, sp, #12
 313              		.cfi_def_cfa_offset 12
 314              		@ sp needed
 315 008a BDE83040 		pop	{r4, r5, lr}
 316              		.cfi_restore 14
 317              		.cfi_restore 5
 318              		.cfi_restore 4
 319              		.cfi_def_cfa_offset 0
 320              		.loc 1 401 5 discriminator 2 view .LVU65
 321 008e FFF7FEBF 		b	__test_assert
 322              	.LVL11:
 323              	.L19:
 324 0092 00BF     		.align	2
 325              	.L18:
 326 0094 00000000 		.word	ch0
 327 0098 00000000 		.word	wa
 328 009c 00000000 		.word	chtest
 329 00a0 00000000 		.word	thread3
 330 00a4 00000000 		.word	.LANCHOR0
 331 00a8 00000000 		.word	threads
 332 00ac 00000000 		.word	.LC0
 333 00b0 10000000 		.word	.LC1
 334              		.cfi_endproc
 335              	.LFE419:
ARM GAS  /tmp/ccMmeZ0f.s 			page 7


 336              		.size	rt_test_007_005_execute, .-rt_test_007_005_execute
 337              		.section	.text.thread3,"ax",%progbits
 338              		.align	1
 339              		.p2align 4,,15
 340              		.syntax unified
 341              		.thumb
 342              		.thumb_func
 343              		.fpu softvfp
 344              		.type	thread3, %function
 345              	thread3:
 346              	.LVL12:
 347              	.LFB406:
 348              		.loc 1 74 33 is_stmt 1 view -0
 349              		.cfi_startproc
 350              		@ args = 0, pretend = 0, frame = 0
 351              		@ frame_needed = 0, uses_anonymous_args = 0
 352              		.loc 1 76 3 view .LVU67
 353              		.loc 1 77 3 view .LVU68
 354              		.loc 1 74 33 is_stmt 0 view .LVU69
 355 0000 10B5     		push	{r4, lr}
 356              		.cfi_def_cfa_offset 8
 357              		.cfi_offset 4, -8
 358              		.cfi_offset 14, -4
 359              		.loc 1 77 3 view .LVU70
 360 0002 044C     		ldr	r4, .L22
 361 0004 2046     		mov	r0, r4
 362              	.LVL13:
 363              		.loc 1 77 3 view .LVU71
 364 0006 FFF7FEFF 		bl	chSemWait
 365              	.LVL14:
 366              		.loc 1 78 3 is_stmt 1 view .LVU72
 367 000a 2046     		mov	r0, r4
 368              		.loc 1 79 1 is_stmt 0 view .LVU73
 369 000c BDE81040 		pop	{r4, lr}
 370              		.cfi_restore 14
 371              		.cfi_restore 4
 372              		.cfi_def_cfa_offset 0
 373              		.loc 1 78 3 view .LVU74
 374 0010 FFF7FEBF 		b	chSemSignal
 375              	.LVL15:
 376              	.L23:
 377              		.align	2
 378              	.L22:
 379 0014 00000000 		.word	.LANCHOR0
 380              		.cfi_endproc
 381              	.LFE406:
 382              		.size	thread3, .-thread3
 383              		.section	.rodata.rt_test_007_001_execute.str1.4,"aMS",%progbits,1
 384              		.align	2
 385              	.LC2:
 386 0000 77726F6E 		.ascii	"wrong counter value\000"
 386      6720636F 
 386      756E7465 
 386      72207661 
 386      6C756500 
 387              		.align	2
 388              	.LC3:
ARM GAS  /tmp/ccMmeZ0f.s 			page 8


 389 0014 77726F6E 		.ascii	"wrong returned message\000"
 389      67207265 
 389      7475726E 
 389      6564206D 
 389      65737361 
 390              		.section	.text.rt_test_007_001_execute,"ax",%progbits
 391              		.align	1
 392              		.p2align 4,,15
 393              		.syntax unified
 394              		.thumb
 395              		.thumb_func
 396              		.fpu softvfp
 397              		.type	rt_test_007_001_execute, %function
 398              	rt_test_007_001_execute:
 399              	.LFB410:
 400              		.loc 1 115 43 is_stmt 1 view -0
 401              		.cfi_startproc
 402              		@ args = 0, pretend = 0, frame = 0
 403              		@ frame_needed = 0, uses_anonymous_args = 0
 404              		.loc 1 119 3 view .LVU76
 405              		.loc 1 115 43 is_stmt 0 view .LVU77
 406 0000 2DE9F843 		push	{r3, r4, r5, r6, r7, r8, r9, lr}
 407              		.cfi_def_cfa_offset 32
 408              		.cfi_offset 3, -32
 409              		.cfi_offset 4, -28
 410              		.cfi_offset 5, -24
 411              		.cfi_offset 6, -20
 412              		.cfi_offset 7, -16
 413              		.cfi_offset 8, -12
 414              		.cfi_offset 9, -8
 415              		.cfi_offset 14, -4
 416              	.LBB395:
 417              		.loc 1 123 11 view .LVU78
 418 0004 2B4C     		ldr	r4, .L31
 419              	.LBE395:
 420              		.loc 1 119 3 view .LVU79
 421 0006 2C4F     		ldr	r7, .L31+4
 422 0008 0123     		movs	r3, #1
 423              	.LBB436:
 424              		.loc 1 123 11 view .LVU80
 425 000a 2046     		mov	r0, r4
 426              	.LBE436:
 427              		.loc 1 119 3 view .LVU81
 428 000c 3B60     		str	r3, [r7]
 429              	.LBB437:
 430              		.loc 1 121 5 is_stmt 1 view .LVU82
 431              		.loc 1 123 5 view .LVU83
 432              		.loc 1 123 11 is_stmt 0 view .LVU84
 433 000e FFF7FEFF 		bl	chSemWait
 434              	.LVL16:
 435              	.LBB396:
 436              	.LBB397:
 437              	.LBB398:
 438              	.LBB399:
 439              	.LBB400:
 440              		.file 5 "../ChibiOS/os/common/ext/ARM/CMSIS/Core/Include/cmsis_gcc.h"
 441              		.loc 5 493 3 view .LVU85
ARM GAS  /tmp/ccMmeZ0f.s 			page 9


 442 0012 3026     		movs	r6, #48
 443              	.LBE400:
 444              	.LBE399:
 445              	.LBE398:
 446              	.LBE397:
 447              	.LBE396:
 448              		.loc 1 123 11 view .LVU86
 449 0014 0546     		mov	r5, r0
 450              	.LVL17:
 451              		.loc 1 124 5 is_stmt 1 view .LVU87
 452              	.LBB408:
 453              	.LBI396:
 454              		.file 6 "../ChibiOS/os/hal/osal/rt-nil/osal.h"
 455              		.loc 6 573 20 view .LVU88
 456              	.LBE408:
 457              	.LBE437:
 458              		.loc 6 575 3 view .LVU89
 459              	.LBB438:
 460              	.LBB409:
 461              	.LBB405:
 462              	.LBI397:
 463              		.file 7 "../ChibiOS/os/rt/include/chsys.h"
 464              		.loc 7 407 20 view .LVU90
 465              	.LBE405:
 466              	.LBE409:
 467              	.LBE438:
 468              		.loc 7 409 3 view .LVU91
 469              	.LBB439:
 470              	.LBB410:
 471              	.LBB406:
 472              	.LBB403:
 473              	.LBI398:
 474              		.file 8 "../ChibiOS/os/common/ports/ARMv7-M/chcore.h"
 475              		.loc 8 806 27 view .LVU92
 476              	.LBE403:
 477              	.LBE406:
 478              	.LBE410:
 479              	.LBE439:
 480              		.loc 8 814 3 view .LVU93
 481              	.LBB440:
 482              	.LBB411:
 483              	.LBB407:
 484              	.LBB404:
 485              	.LBB402:
 486              	.LBI399:
 487              		.loc 5 491 27 view .LVU94
 488              	.LBB401:
 489              		.loc 5 493 3 view .LVU95
 490              		.syntax unified
 491              	@ 493 "../ChibiOS/os/common/ext/ARM/CMSIS/Core/Include/cmsis_gcc.h" 1
 492 0016 86F31188 		MSR basepri, r6
 493              	@ 0 "" 2
 494              	.LVL18:
 495              		.loc 5 493 3 is_stmt 0 view .LVU96
 496              		.thumb
 497              		.syntax unified
 498              	.LBE401:
ARM GAS  /tmp/ccMmeZ0f.s 			page 10


 499              	.LBE402:
 500              	.LBE404:
 501              	.LBE407:
 502              	.LBE411:
 503              	.LBE440:
 504              		.loc 7 410 35 is_stmt 1 view .LVU97
 505              		.loc 7 411 21 view .LVU98
 506              	.LBB441:
 507              		.loc 1 124 5 view .LVU99
 508              	.LBB412:
 509              	.LBI412:
 510              		.loc 2 189 21 view .LVU100
 511              	.LBB413:
 512              		.loc 2 191 21 view .LVU101
 513              		.loc 2 193 3 view .LVU102
 514              		.loc 2 193 3 is_stmt 0 view .LVU103
 515              	.LBE413:
 516              	.LBE412:
 517              		.loc 1 124 5 view .LVU104
 518 001a A068     		ldr	r0, [r4, #8]
 519              	.LVL19:
 520              		.loc 1 124 5 view .LVU105
 521 001c 2749     		ldr	r1, .L31+8
 522 001e B0FA80F0 		clz	r0, r0
 523 0022 4009     		lsrs	r0, r0, #5
 524 0024 FFF7FEFF 		bl	__test_assert
 525              	.LVL20:
 526 0028 20B1     		cbz	r0, .L25
 527              		.loc 1 124 5 is_stmt 1 view .LVU106
 528              	.LBB414:
 529              	.LBI414:
 530              		.loc 6 584 20 view .LVU107
 531              	.LBE414:
 532              	.LBE441:
 533              		.loc 6 586 3 view .LVU108
 534              	.LBB442:
 535              	.LBB423:
 536              	.LBB415:
 537              	.LBI415:
 538              		.loc 7 421 20 view .LVU109
 539              	.LBB416:
 540              		.loc 7 423 23 view .LVU110
 541              		.loc 7 424 34 view .LVU111
 542              		.loc 7 430 3 view .LVU112
 543              		.loc 7 430 3 view .LVU113
 544              		.loc 7 430 3 view .LVU114
 545              		.loc 7 434 3 view .LVU115
 546              	.LBB417:
 547              	.LBI417:
 548              		.loc 8 830 27 view .LVU116
 549              	.LBE417:
 550              	.LBE416:
 551              	.LBE415:
 552              	.LBE423:
 553              	.LBE442:
 554              		.loc 8 833 3 view .LVU117
 555              	.LVL21:
ARM GAS  /tmp/ccMmeZ0f.s 			page 11


 556              	.LBB443:
 557              	.LBB424:
 558              	.LBB422:
 559              	.LBB421:
 560              	.LBB420:
 561              	.LBB418:
 562              	.LBI418:
 563              		.loc 5 491 27 view .LVU118
 564              	.LBB419:
 565              		.loc 5 493 3 view .LVU119
 566 002a 0023     		movs	r3, #0
 567              		.syntax unified
 568              	@ 493 "../ChibiOS/os/common/ext/ARM/CMSIS/Core/Include/cmsis_gcc.h" 1
 569 002c 83F31188 		MSR basepri, r3
 570              	@ 0 "" 2
 571              	.LVL22:
 572              		.loc 5 493 3 is_stmt 0 view .LVU120
 573              		.thumb
 574              		.syntax unified
 575              	.LBE419:
 576              	.LBE418:
 577              	.LBE420:
 578              	.LBE421:
 579              	.LBE422:
 580              	.LBE424:
 581              		.loc 1 124 5 is_stmt 1 view .LVU121
 582              	.L24:
 583              		.loc 1 124 5 is_stmt 0 view .LVU122
 584              	.LBE443:
 585              		.loc 1 146 1 view .LVU123
 586 0030 BDE8F883 		pop	{r3, r4, r5, r6, r7, r8, r9, pc}
 587              	.LVL23:
 588              	.L25:
 589              	.LBB444:
 590              		.loc 1 124 5 is_stmt 1 view .LVU124
 591              	.LBB425:
 592              	.LBI425:
 593              		.loc 6 584 20 view .LVU125
 594              	.LBE425:
 595              	.LBE444:
 596              		.loc 6 586 3 view .LVU126
 597              	.LBB445:
 598              	.LBB434:
 599              	.LBB426:
 600              	.LBI426:
 601              		.loc 7 421 20 view .LVU127
 602              	.LBB427:
 603              		.loc 7 423 23 view .LVU128
 604              		.loc 7 424 34 view .LVU129
 605              		.loc 7 430 3 view .LVU130
 606              		.loc 7 430 3 view .LVU131
 607              		.loc 7 430 3 view .LVU132
 608              		.loc 7 434 3 view .LVU133
 609              	.LBB428:
 610              	.LBI428:
 611              		.loc 8 830 27 view .LVU134
 612              	.LBE428:
ARM GAS  /tmp/ccMmeZ0f.s 			page 12


 613              	.LBE427:
 614              	.LBE426:
 615              	.LBE434:
 616              	.LBE445:
 617              		.loc 8 833 3 view .LVU135
 618              	.LBB446:
 619              	.LBB435:
 620              	.LBB433:
 621              	.LBB432:
 622              	.LBB431:
 623              	.LBB429:
 624              	.LBI429:
 625              		.loc 5 491 27 view .LVU136
 626              	.LBB430:
 627              		.loc 5 493 3 view .LVU137
 628              		.syntax unified
 629              	@ 493 "../ChibiOS/os/common/ext/ARM/CMSIS/Core/Include/cmsis_gcc.h" 1
 630 0034 80F31188 		MSR basepri, r0
 631              	@ 0 "" 2
 632              	.LVL24:
 633              		.loc 5 493 3 is_stmt 0 view .LVU138
 634              		.thumb
 635              		.syntax unified
 636              	.LBE430:
 637              	.LBE429:
 638              	.LBE431:
 639              	.LBE432:
 640              	.LBE433:
 641              	.LBE435:
 642              		.loc 1 124 74 is_stmt 1 view .LVU139
 643              		.loc 1 125 5 view .LVU140
 644 0038 B5FA85F0 		clz	r0, r5
 645 003c 2049     		ldr	r1, .L31+12
 646 003e 4009     		lsrs	r0, r0, #5
 647 0040 FFF7FEFF 		bl	__test_assert
 648              	.LVL25:
 649 0044 0546     		mov	r5, r0
 650              	.LVL26:
 651              		.loc 1 125 5 is_stmt 0 view .LVU141
 652 0046 0028     		cmp	r0, #0
 653 0048 F2D1     		bne	.L24
 654              		.loc 1 125 57 is_stmt 1 discriminator 2 view .LVU142
 655              	.LBE446:
 656              		.loc 1 127 3 discriminator 2 view .LVU143
 657              		.loc 1 127 19 discriminator 2 view .LVU144
 658              		.loc 1 131 3 discriminator 2 view .LVU145
 659 004a 4FF00209 		mov	r9, #2
 660              		.loc 1 133 5 is_stmt 0 discriminator 2 view .LVU146
 661 004e 2046     		mov	r0, r4
 662              		.loc 1 131 3 discriminator 2 view .LVU147
 663 0050 C7F80090 		str	r9, [r7]
 664              		.loc 1 133 5 is_stmt 1 discriminator 2 view .LVU148
 665 0054 FFF7FEFF 		bl	chSemSignal
 666              	.LVL27:
 667              		.loc 1 134 5 discriminator 2 view .LVU149
 668              	.LBB447:
 669              	.LBI447:
ARM GAS  /tmp/ccMmeZ0f.s 			page 13


 670              		.loc 6 573 20 discriminator 2 view .LVU150
 671              	.LBE447:
 672              		.loc 6 575 3 discriminator 2 view .LVU151
 673              	.LBB455:
 674              	.LBB448:
 675              	.LBI448:
 676              		.loc 7 407 20 discriminator 2 view .LVU152
 677              	.LBE448:
 678              	.LBE455:
 679              		.loc 7 409 3 discriminator 2 view .LVU153
 680              	.LBB456:
 681              	.LBB453:
 682              	.LBB449:
 683              	.LBI449:
 684              		.loc 8 806 27 discriminator 2 view .LVU154
 685              	.LBE449:
 686              	.LBE453:
 687              	.LBE456:
 688              		.loc 8 814 3 discriminator 2 view .LVU155
 689              	.LBB457:
 690              	.LBB454:
 691              	.LBB452:
 692              	.LBB450:
 693              	.LBI450:
 694              		.loc 5 491 27 discriminator 2 view .LVU156
 695              	.LBB451:
 696              		.loc 5 493 3 discriminator 2 view .LVU157
 697              		.syntax unified
 698              	@ 493 "../ChibiOS/os/common/ext/ARM/CMSIS/Core/Include/cmsis_gcc.h" 1
 699 0058 86F31188 		MSR basepri, r6
 700              	@ 0 "" 2
 701              	.LVL28:
 702              		.loc 5 493 3 is_stmt 0 discriminator 2 view .LVU158
 703              		.thumb
 704              		.syntax unified
 705              	.LBE451:
 706              	.LBE450:
 707              	.LBE452:
 708              	.LBE454:
 709              	.LBE457:
 710              		.loc 7 410 35 is_stmt 1 discriminator 2 view .LVU159
 711              		.loc 7 411 21 discriminator 2 view .LVU160
 712              		.loc 1 134 5 discriminator 2 view .LVU161
 713              	.LBB458:
 714              	.LBI458:
 715              		.loc 2 189 21 discriminator 2 view .LVU162
 716              	.LBB459:
 717              		.loc 2 191 21 discriminator 2 view .LVU163
 718              		.loc 2 193 3 discriminator 2 view .LVU164
 719              		.loc 2 193 3 is_stmt 0 discriminator 2 view .LVU165
 720              	.LBE459:
 721              	.LBE458:
 722              		.loc 1 134 5 discriminator 2 view .LVU166
 723 005c A068     		ldr	r0, [r4, #8]
 724 005e 1749     		ldr	r1, .L31+8
 725 0060 A0F10100 		sub	r0, #1
 726 0064 B0FA80F0 		clz	r0, r0
ARM GAS  /tmp/ccMmeZ0f.s 			page 14


 727 0068 4009     		lsrs	r0, r0, #5
 728 006a FFF7FEFF 		bl	__test_assert
 729              	.LVL29:
 730 006e 8046     		mov	r8, r0
 731 0070 18B1     		cbz	r0, .L27
 732              		.loc 1 134 5 is_stmt 1 view .LVU167
 733              	.LBB460:
 734              	.LBI460:
 735              		.loc 6 584 20 view .LVU168
 736              	.LBE460:
 737              		.loc 6 586 3 view .LVU169
 738              	.LBB469:
 739              	.LBB461:
 740              	.LBI461:
 741              		.loc 7 421 20 view .LVU170
 742              	.LBB462:
 743              		.loc 7 423 23 view .LVU171
 744              		.loc 7 424 34 view .LVU172
 745              		.loc 7 430 3 view .LVU173
 746              		.loc 7 430 3 view .LVU174
 747              		.loc 7 430 3 view .LVU175
 748              		.loc 7 434 3 view .LVU176
 749              	.LBB463:
 750              	.LBI463:
 751              		.loc 8 830 27 view .LVU177
 752              	.LBE463:
 753              	.LBE462:
 754              	.LBE461:
 755              	.LBE469:
 756              		.loc 8 833 3 view .LVU178
 757              	.LVL30:
 758              	.LBB470:
 759              	.LBB468:
 760              	.LBB467:
 761              	.LBB466:
 762              	.LBB464:
 763              	.LBI464:
 764              		.loc 5 491 27 view .LVU179
 765              	.LBB465:
 766              		.loc 5 493 3 view .LVU180
 767              		.syntax unified
 768              	@ 493 "../ChibiOS/os/common/ext/ARM/CMSIS/Core/Include/cmsis_gcc.h" 1
 769 0072 85F31188 		MSR basepri, r5
 770              	@ 0 "" 2
 771              	.LVL31:
 772              		.loc 5 493 3 is_stmt 0 view .LVU181
 773              		.thumb
 774              		.syntax unified
 775              	.LBE465:
 776              	.LBE464:
 777              	.LBE466:
 778              	.LBE467:
 779              	.LBE468:
 780              	.LBE470:
 781              		.loc 1 134 5 is_stmt 1 view .LVU182
 782              		.loc 1 146 1 is_stmt 0 view .LVU183
 783 0076 BDE8F883 		pop	{r3, r4, r5, r6, r7, r8, r9, pc}
ARM GAS  /tmp/ccMmeZ0f.s 			page 15


 784              	.L27:
 785              		.loc 1 134 5 is_stmt 1 view .LVU184
 786              	.LBB471:
 787              	.LBI471:
 788              		.loc 6 584 20 view .LVU185
 789              	.LBE471:
 790              		.loc 6 586 3 view .LVU186
 791              	.LBB480:
 792              	.LBB472:
 793              	.LBI472:
 794              		.loc 7 421 20 view .LVU187
 795              	.LBB473:
 796              		.loc 7 423 23 view .LVU188
 797              		.loc 7 424 34 view .LVU189
 798              		.loc 7 430 3 view .LVU190
 799              		.loc 7 430 3 view .LVU191
 800              		.loc 7 430 3 view .LVU192
 801              		.loc 7 434 3 view .LVU193
 802              	.LBB474:
 803              	.LBI474:
 804              		.loc 8 830 27 view .LVU194
 805              	.LBE474:
 806              	.LBE473:
 807              	.LBE472:
 808              	.LBE480:
 809              		.loc 8 833 3 view .LVU195
 810              	.LVL32:
 811              	.LBB481:
 812              	.LBB479:
 813              	.LBB478:
 814              	.LBB477:
 815              	.LBB475:
 816              	.LBI475:
 817              		.loc 5 491 27 view .LVU196
 818              	.LBB476:
 819              		.loc 5 493 3 view .LVU197
 820              		.syntax unified
 821              	@ 493 "../ChibiOS/os/common/ext/ARM/CMSIS/Core/Include/cmsis_gcc.h" 1
 822 007a 80F31188 		MSR basepri, r0
 823              	@ 0 "" 2
 824              	.LVL33:
 825              		.loc 5 493 3 is_stmt 0 view .LVU198
 826              		.thumb
 827              		.syntax unified
 828              	.LBE476:
 829              	.LBE475:
 830              	.LBE477:
 831              	.LBE478:
 832              	.LBE479:
 833              	.LBE481:
 834              		.loc 1 134 74 is_stmt 1 view .LVU199
 835              		.loc 1 136 3 view .LVU200
 836              		.loc 1 136 19 view .LVU201
 837              		.loc 1 140 3 view .LVU202
 838 007e 0323     		movs	r3, #3
 839              	.LBB482:
 840              	.LBB483:
ARM GAS  /tmp/ccMmeZ0f.s 			page 16


 841              		.loc 2 125 3 is_stmt 0 view .LVU203
 842 0080 4946     		mov	r1, r9
 843 0082 6FF00102 		mvn	r2, #1
 844 0086 2046     		mov	r0, r4
 845              	.LBE483:
 846              	.LBE482:
 847              		.loc 1 140 3 view .LVU204
 848 0088 3B60     		str	r3, [r7]
 849              		.loc 1 142 5 is_stmt 1 view .LVU205
 850              	.LVL34:
 851              	.LBB485:
 852              	.LBI482:
 853              		.loc 2 123 20 view .LVU206
 854              	.LBB484:
 855              		.loc 2 125 3 view .LVU207
 856 008a FFF7FEFF 		bl	chSemResetWithMessage
 857              	.LVL35:
 858              		.loc 2 125 3 is_stmt 0 view .LVU208
 859              	.LBE484:
 860              	.LBE485:
 861              		.loc 1 143 5 is_stmt 1 view .LVU209
 862              	.LBB486:
 863              	.LBI486:
 864              		.loc 6 573 20 view .LVU210
 865              	.LBE486:
 866              		.loc 6 575 3 view .LVU211
 867              	.LBB494:
 868              	.LBB487:
 869              	.LBI487:
 870              		.loc 7 407 20 view .LVU212
 871              	.LBE487:
 872              	.LBE494:
 873              		.loc 7 409 3 view .LVU213
 874              	.LBB495:
 875              	.LBB492:
 876              	.LBB488:
 877              	.LBI488:
 878              		.loc 8 806 27 view .LVU214
 879              	.LBE488:
 880              	.LBE492:
 881              	.LBE495:
 882              		.loc 8 814 3 view .LVU215
 883              	.LBB496:
 884              	.LBB493:
 885              	.LBB491:
 886              	.LBB489:
 887              	.LBI489:
 888              		.loc 5 491 27 view .LVU216
 889              	.LBB490:
 890              		.loc 5 493 3 view .LVU217
 891              		.syntax unified
 892              	@ 493 "../ChibiOS/os/common/ext/ARM/CMSIS/Core/Include/cmsis_gcc.h" 1
 893 008e 86F31188 		MSR basepri, r6
 894              	@ 0 "" 2
 895              	.LVL36:
 896              		.loc 5 493 3 is_stmt 0 view .LVU218
 897              		.thumb
ARM GAS  /tmp/ccMmeZ0f.s 			page 17


 898              		.syntax unified
 899              	.LBE490:
 900              	.LBE489:
 901              	.LBE491:
 902              	.LBE493:
 903              	.LBE496:
 904              		.loc 7 410 35 is_stmt 1 view .LVU219
 905              		.loc 7 411 21 view .LVU220
 906              		.loc 1 143 5 view .LVU221
 907              	.LBB497:
 908              	.LBI497:
 909              		.loc 2 189 21 view .LVU222
 910              	.LBB498:
 911              		.loc 2 191 21 view .LVU223
 912              		.loc 2 193 3 view .LVU224
 913              		.loc 2 193 3 is_stmt 0 view .LVU225
 914              	.LBE498:
 915              	.LBE497:
 916              		.loc 1 143 5 view .LVU226
 917 0092 A068     		ldr	r0, [r4, #8]
 918 0094 0949     		ldr	r1, .L31+8
 919 0096 A0F10200 		sub	r0, #2
 920 009a B0FA80F0 		clz	r0, r0
 921 009e 4009     		lsrs	r0, r0, #5
 922 00a0 FFF7FEFF 		bl	__test_assert
 923              	.LVL37:
 924 00a4 10B9     		cbnz	r0, .L30
 925              		.loc 1 143 5 is_stmt 1 view .LVU227
 926              	.LBB499:
 927              	.LBI499:
 928              		.loc 6 584 20 view .LVU228
 929              	.LBB500:
 930              		.loc 6 586 3 view .LVU229
 931              	.LBB501:
 932              	.LBI501:
 933              		.loc 7 421 20 view .LVU230
 934              	.LBB502:
 935              		.loc 7 423 23 view .LVU231
 936              		.loc 7 424 34 view .LVU232
 937              		.loc 7 430 3 view .LVU233
 938              		.loc 7 430 3 view .LVU234
 939              		.loc 7 430 3 view .LVU235
 940              		.loc 7 434 3 view .LVU236
 941              	.LBB503:
 942              	.LBI503:
 943              		.loc 8 830 27 view .LVU237
 944              	.LBE503:
 945              	.LBE502:
 946              	.LBE501:
 947              	.LBE500:
 948              	.LBE499:
 949              		.loc 8 833 3 view .LVU238
 950              	.LVL38:
 951              	.LBB511:
 952              	.LBB509:
 953              	.LBB508:
 954              	.LBB507:
ARM GAS  /tmp/ccMmeZ0f.s 			page 18


 955              	.LBB506:
 956              	.LBB504:
 957              	.LBI504:
 958              		.loc 5 491 27 view .LVU239
 959              	.LBB505:
 960              		.loc 5 493 3 view .LVU240
 961              		.syntax unified
 962              	@ 493 "../ChibiOS/os/common/ext/ARM/CMSIS/Core/Include/cmsis_gcc.h" 1
 963 00a6 80F31188 		MSR basepri, r0
 964              	@ 0 "" 2
 965              	.LVL39:
 966              		.loc 5 493 3 is_stmt 0 view .LVU241
 967              		.thumb
 968              		.syntax unified
 969              	.LBE505:
 970              	.LBE504:
 971              	.LBE506:
 972              	.LBE507:
 973              	.LBE508:
 974              	.LBE509:
 975              	.LBE511:
 976              		.loc 1 143 74 is_stmt 1 view .LVU242
 977              		.loc 1 145 3 view .LVU243
 978              		.loc 1 145 19 view .LVU244
 979              	.LBB512:
 980              	.LBB510:
 981              		.loc 6 587 1 is_stmt 0 view .LVU245
 982 00aa C1E7     		b	.L24
 983              	.L30:
 984              	.LBE510:
 985              	.LBE512:
 986              		.loc 1 143 5 is_stmt 1 view .LVU246
 987              	.LBB513:
 988              	.LBI513:
 989              		.loc 6 584 20 view .LVU247
 990              	.LBE513:
 991              		.loc 6 586 3 view .LVU248
 992              	.LBB522:
 993              	.LBB514:
 994              	.LBI514:
 995              		.loc 7 421 20 view .LVU249
 996              	.LBB515:
 997              		.loc 7 423 23 view .LVU250
 998              		.loc 7 424 34 view .LVU251
 999              		.loc 7 430 3 view .LVU252
 1000              		.loc 7 430 3 view .LVU253
 1001              		.loc 7 430 3 view .LVU254
 1002              		.loc 7 434 3 view .LVU255
 1003              	.LBB516:
 1004              	.LBI516:
 1005              		.loc 8 830 27 view .LVU256
 1006              	.LBE516:
 1007              	.LBE515:
 1008              	.LBE514:
 1009              	.LBE522:
 1010              		.loc 8 833 3 view .LVU257
 1011              	.LVL40:
ARM GAS  /tmp/ccMmeZ0f.s 			page 19


 1012              	.LBB523:
 1013              	.LBB521:
 1014              	.LBB520:
 1015              	.LBB519:
 1016              	.LBB517:
 1017              	.LBI517:
 1018              		.loc 5 491 27 view .LVU258
 1019              	.LBB518:
 1020              		.loc 5 493 3 view .LVU259
 1021              		.syntax unified
 1022              	@ 493 "../ChibiOS/os/common/ext/ARM/CMSIS/Core/Include/cmsis_gcc.h" 1
 1023 00ac 88F31188 		MSR basepri, r8
 1024              	@ 0 "" 2
 1025              	.LVL41:
 1026              		.loc 5 493 3 is_stmt 0 view .LVU260
 1027              		.thumb
 1028              		.syntax unified
 1029              	.LBE518:
 1030              	.LBE517:
 1031              	.LBE519:
 1032              	.LBE520:
 1033              	.LBE521:
 1034              	.LBE523:
 1035              		.loc 1 143 5 is_stmt 1 view .LVU261
 1036 00b0 BEE7     		b	.L24
 1037              	.L32:
 1038 00b2 00BF     		.align	2
 1039              	.L31:
 1040 00b4 00000000 		.word	.LANCHOR0
 1041 00b8 00000000 		.word	chtest
 1042 00bc 00000000 		.word	.LC2
 1043 00c0 14000000 		.word	.LC3
 1044              		.cfi_endproc
 1045              	.LFE410:
 1046              		.size	rt_test_007_001_execute, .-rt_test_007_001_execute
 1047              		.section	.rodata.rt_test_007_004_execute.str1.4,"aMS",%progbits,1
 1048              		.align	2
 1049              	.LC4:
 1050 0000 4100     		.ascii	"A\000"
 1051 0002 0000     		.align	2
 1052              	.LC5:
 1053 0004 696E7661 		.ascii	"invalid counter\000"
 1053      6C696420 
 1053      636F756E 
 1053      74657200 
 1054              		.align	2
 1055              	.LC6:
 1056 0014 696E7661 		.ascii	"invalid sequence\000"
 1056      6C696420 
 1056      73657175 
 1056      656E6365 
 1056      00
 1057              		.section	.text.rt_test_007_004_execute,"ax",%progbits
 1058              		.align	1
 1059              		.p2align 4,,15
 1060              		.syntax unified
 1061              		.thumb
ARM GAS  /tmp/ccMmeZ0f.s 			page 20


 1062              		.thumb_func
 1063              		.fpu softvfp
 1064              		.type	rt_test_007_004_execute, %function
 1065              	rt_test_007_004_execute:
 1066              	.LFB416:
 1067              		.loc 1 311 43 view -0
 1068              		.cfi_startproc
 1069              		@ args = 0, pretend = 0, frame = 0
 1070              		@ frame_needed = 0, uses_anonymous_args = 0
 1071              		.loc 1 314 3 view .LVU263
 1072              		.loc 1 311 43 is_stmt 0 view .LVU264
 1073 0000 F0B5     		push	{r4, r5, r6, r7, lr}
 1074              		.cfi_def_cfa_offset 20
 1075              		.cfi_offset 4, -20
 1076              		.cfi_offset 5, -16
 1077              		.cfi_offset 6, -12
 1078              		.cfi_offset 7, -8
 1079              		.cfi_offset 14, -4
 1080              	.LBB524:
 1081              	.LBB525:
 1082              	.LBB526:
 1083              	.LBB527:
 1084              		.loc 3 343 10 view .LVU265
 1085 0002 1E4B     		ldr	r3, .L38
 1086              	.LBE527:
 1087              	.LBE526:
 1088              	.LBE525:
 1089              	.LBE524:
 1090              		.loc 1 316 18 view .LVU266
 1091 0004 1E49     		ldr	r1, .L38+4
 1092              	.LBB532:
 1093              	.LBB530:
 1094              		.loc 3 356 37 view .LVU267
 1095 0006 DB68     		ldr	r3, [r3, #12]
 1096              	.LBE530:
 1097              	.LBE532:
 1098              		.loc 1 314 3 view .LVU268
 1099 0008 1E4C     		ldr	r4, .L38+8
 1100              		.loc 1 316 18 view .LVU269
 1101 000a 9A68     		ldr	r2, [r3, #8]
 1102 000c 1E4F     		ldr	r7, .L38+12
 1103 000e 0868     		ldr	r0, [r1]
 1104 0010 1E4B     		ldr	r3, .L38+16
 1105              		.loc 1 311 43 view .LVU270
 1106 0012 83B0     		sub	sp, sp, #12
 1107              		.cfi_def_cfa_offset 32
 1108              		.loc 1 314 3 view .LVU271
 1109 0014 0121     		movs	r1, #1
 1110 0016 2160     		str	r1, [r4]
 1111              		.loc 1 316 5 is_stmt 1 view .LVU272
 1112              	.LBB533:
 1113              	.LBI524:
 1114              		.loc 3 354 23 view .LVU273
 1115              	.LBB531:
 1116              		.loc 3 356 3 view .LVU274
 1117              	.LBB529:
 1118              	.LBI526:
ARM GAS  /tmp/ccMmeZ0f.s 			page 21


 1119              		.loc 3 341 25 view .LVU275
 1120              	.LBB528:
 1121              		.loc 3 343 3 view .LVU276
 1122              	.LBE528:
 1123              	.LBE529:
 1124              	.LBE531:
 1125              	.LBE533:
 1126              		.loc 1 316 18 is_stmt 0 view .LVU277
 1127 0018 0A44     		add	r2, r2, r1
 1128 001a 0097     		str	r7, [sp]
 1129 001c 4FF4B871 		mov	r1, #368
 1130 0020 FFF7FEFF 		bl	chThdCreateStatic
 1131              	.LVL42:
 1132              		.loc 1 316 16 view .LVU278
 1133 0024 1A4B     		ldr	r3, .L38+20
 1134              		.loc 1 322 3 view .LVU279
 1135 0026 0221     		movs	r1, #2
 1136              		.loc 1 316 16 view .LVU280
 1137 0028 1860     		str	r0, [r3]
 1138              		.loc 1 318 3 is_stmt 1 view .LVU281
 1139              		.loc 1 318 19 view .LVU282
 1140              		.loc 1 322 3 view .LVU283
 1141 002a 2160     		str	r1, [r4]
 1142              		.loc 1 324 5 view .LVU284
 1143              	.LBB534:
 1144              	.LBI534:
 1145              		.loc 7 407 20 view .LVU285
 1146              	.LBE534:
 1147              		.loc 7 409 3 view .LVU286
 1148              	.LBB539:
 1149              	.LBB535:
 1150              	.LBI535:
 1151              		.loc 8 806 27 view .LVU287
 1152              	.LBE535:
 1153              	.LBE539:
 1154              		.loc 8 814 3 view .LVU288
 1155              	.LVL43:
 1156              	.LBB540:
 1157              	.LBB538:
 1158              	.LBB536:
 1159              	.LBI536:
 1160              		.loc 5 491 27 view .LVU289
 1161              	.LBB537:
 1162              		.loc 5 493 3 view .LVU290
 1163 002c 3025     		movs	r5, #48
 1164              		.syntax unified
 1165              	@ 493 "../ChibiOS/os/common/ext/ARM/CMSIS/Core/Include/cmsis_gcc.h" 1
 1166 002e 85F31188 		MSR basepri, r5
 1167              	@ 0 "" 2
 1168              	.LVL44:
 1169              		.loc 5 493 3 is_stmt 0 view .LVU291
 1170              		.thumb
 1171              		.syntax unified
 1172              	.LBE537:
 1173              	.LBE536:
 1174              	.LBE538:
 1175              	.LBE540:
ARM GAS  /tmp/ccMmeZ0f.s 			page 22


 1176              		.loc 7 410 35 is_stmt 1 view .LVU292
 1177              		.loc 7 411 21 view .LVU293
 1178              		.loc 1 325 5 view .LVU294
 1179 0032 184C     		ldr	r4, .L38+24
 1180 0034 2046     		mov	r0, r4
 1181 0036 FFF7FEFF 		bl	chSemAddCounterI
 1182              	.LVL45:
 1183              		.loc 1 326 5 view .LVU295
 1184              	.LBB541:
 1185              	.LBB542:
 1186              	.LBB543:
 1187              	.LBB544:
 1188              	.LBB545:
 1189              		.loc 5 493 3 is_stmt 0 view .LVU296
 1190 003a 0026     		movs	r6, #0
 1191              	.LBE545:
 1192              	.LBE544:
 1193              	.LBE543:
 1194              	.LBE542:
 1195              	.LBE541:
 1196              		.loc 1 326 5 view .LVU297
 1197 003c FFF7FEFF 		bl	chSchRescheduleS
 1198              	.LVL46:
 1199              		.loc 1 327 5 is_stmt 1 view .LVU298
 1200              	.LBB552:
 1201              	.LBI541:
 1202              		.loc 7 421 20 view .LVU299
 1203              	.LBB550:
 1204              		.loc 7 423 23 view .LVU300
 1205              		.loc 7 424 34 view .LVU301
 1206              		.loc 7 430 3 view .LVU302
 1207              		.loc 7 430 3 view .LVU303
 1208              		.loc 7 430 3 view .LVU304
 1209              		.loc 7 434 3 view .LVU305
 1210              	.LBB548:
 1211              	.LBI543:
 1212              		.loc 8 830 27 view .LVU306
 1213              	.LBE548:
 1214              	.LBE550:
 1215              	.LBE552:
 1216              		.loc 8 833 3 view .LVU307
 1217              	.LBB553:
 1218              	.LBB551:
 1219              	.LBB549:
 1220              	.LBB547:
 1221              	.LBI544:
 1222              		.loc 5 491 27 view .LVU308
 1223              	.LBB546:
 1224              		.loc 5 493 3 view .LVU309
 1225              		.syntax unified
 1226              	@ 493 "../ChibiOS/os/common/ext/ARM/CMSIS/Core/Include/cmsis_gcc.h" 1
 1227 0040 86F31188 		MSR basepri, r6
 1228              	@ 0 "" 2
 1229              	.LVL47:
 1230              		.loc 5 493 3 is_stmt 0 view .LVU310
 1231              		.thumb
 1232              		.syntax unified
ARM GAS  /tmp/ccMmeZ0f.s 			page 23


 1233              	.LBE546:
 1234              	.LBE547:
 1235              	.LBE549:
 1236              	.LBE551:
 1237              	.LBE553:
 1238              		.loc 1 328 5 is_stmt 1 view .LVU311
 1239 0044 FFF7FEFF 		bl	test_wait_threads
 1240              	.LVL48:
 1241              		.loc 1 329 5 view .LVU312
 1242              	.LBB554:
 1243              	.LBI554:
 1244              		.loc 6 573 20 view .LVU313
 1245              	.LBE554:
 1246              		.loc 6 575 3 view .LVU314
 1247              	.LBB562:
 1248              	.LBB555:
 1249              	.LBI555:
 1250              		.loc 7 407 20 view .LVU315
 1251              	.LBE555:
 1252              	.LBE562:
 1253              		.loc 7 409 3 view .LVU316
 1254              	.LBB563:
 1255              	.LBB560:
 1256              	.LBB556:
 1257              	.LBI556:
 1258              		.loc 8 806 27 view .LVU317
 1259              	.LBE556:
 1260              	.LBE560:
 1261              	.LBE563:
 1262              		.loc 8 814 3 view .LVU318
 1263              	.LBB564:
 1264              	.LBB561:
 1265              	.LBB559:
 1266              	.LBB557:
 1267              	.LBI557:
 1268              		.loc 5 491 27 view .LVU319
 1269              	.LBB558:
 1270              		.loc 5 493 3 view .LVU320
 1271              		.syntax unified
 1272              	@ 493 "../ChibiOS/os/common/ext/ARM/CMSIS/Core/Include/cmsis_gcc.h" 1
 1273 0048 85F31188 		MSR basepri, r5
 1274              	@ 0 "" 2
 1275              	.LVL49:
 1276              		.loc 5 493 3 is_stmt 0 view .LVU321
 1277              		.thumb
 1278              		.syntax unified
 1279              	.LBE558:
 1280              	.LBE557:
 1281              	.LBE559:
 1282              	.LBE561:
 1283              	.LBE564:
 1284              		.loc 7 410 35 is_stmt 1 view .LVU322
 1285              		.loc 7 411 21 view .LVU323
 1286              		.loc 1 329 5 view .LVU324
 1287              	.LBB565:
 1288              	.LBI565:
 1289              		.loc 2 189 21 view .LVU325
ARM GAS  /tmp/ccMmeZ0f.s 			page 24


 1290              	.LBB566:
 1291              		.loc 2 191 21 view .LVU326
 1292              		.loc 2 193 3 view .LVU327
 1293              		.loc 2 193 3 is_stmt 0 view .LVU328
 1294              	.LBE566:
 1295              	.LBE565:
 1296              		.loc 1 329 5 view .LVU329
 1297 004c A068     		ldr	r0, [r4, #8]
 1298 004e 1249     		ldr	r1, .L38+28
 1299 0050 A0F10100 		sub	r0, #1
 1300 0054 B0FA80F0 		clz	r0, r0
 1301 0058 4009     		lsrs	r0, r0, #5
 1302 005a FFF7FEFF 		bl	__test_assert
 1303              	.LVL50:
 1304 005e 18B1     		cbz	r0, .L34
 1305              		.loc 1 329 5 is_stmt 1 view .LVU330
 1306              	.LBB567:
 1307              	.LBI567:
 1308              		.loc 6 584 20 view .LVU331
 1309              	.LBE567:
 1310              		.loc 6 586 3 view .LVU332
 1311              	.LBB576:
 1312              	.LBB568:
 1313              	.LBI568:
 1314              		.loc 7 421 20 view .LVU333
 1315              	.LBB569:
 1316              		.loc 7 423 23 view .LVU334
 1317              		.loc 7 424 34 view .LVU335
 1318              		.loc 7 430 3 view .LVU336
 1319              		.loc 7 430 3 view .LVU337
 1320              		.loc 7 430 3 view .LVU338
 1321              		.loc 7 434 3 view .LVU339
 1322              	.LBB570:
 1323              	.LBI570:
 1324              		.loc 8 830 27 view .LVU340
 1325              	.LBE570:
 1326              	.LBE569:
 1327              	.LBE568:
 1328              	.LBE576:
 1329              		.loc 8 833 3 view .LVU341
 1330              	.LVL51:
 1331              	.LBB577:
 1332              	.LBB575:
 1333              	.LBB574:
 1334              	.LBB573:
 1335              	.LBB571:
 1336              	.LBI571:
 1337              		.loc 5 491 27 view .LVU342
 1338              	.LBB572:
 1339              		.loc 5 493 3 view .LVU343
 1340              		.syntax unified
 1341              	@ 493 "../ChibiOS/os/common/ext/ARM/CMSIS/Core/Include/cmsis_gcc.h" 1
 1342 0060 86F31188 		MSR basepri, r6
 1343              	@ 0 "" 2
 1344              	.LVL52:
 1345              		.loc 5 493 3 is_stmt 0 view .LVU344
 1346              		.thumb
ARM GAS  /tmp/ccMmeZ0f.s 			page 25


 1347              		.syntax unified
 1348              	.LBE572:
 1349              	.LBE571:
 1350              	.LBE573:
 1351              	.LBE574:
 1352              	.LBE575:
 1353              	.LBE577:
 1354              		.loc 1 329 5 is_stmt 1 view .LVU345
 1355              		.loc 1 333 1 is_stmt 0 view .LVU346
 1356 0064 03B0     		add	sp, sp, #12
 1357              		.cfi_remember_state
 1358              		.cfi_def_cfa_offset 20
 1359              		@ sp needed
 1360 0066 F0BD     		pop	{r4, r5, r6, r7, pc}
 1361              	.L34:
 1362              		.cfi_restore_state
 1363              		.loc 1 329 5 is_stmt 1 view .LVU347
 1364              	.LBB578:
 1365              	.LBI578:
 1366              		.loc 6 584 20 view .LVU348
 1367              	.LBE578:
 1368              		.loc 6 586 3 view .LVU349
 1369              	.LBB587:
 1370              	.LBB579:
 1371              	.LBI579:
 1372              		.loc 7 421 20 view .LVU350
 1373              	.LBB580:
 1374              		.loc 7 423 23 view .LVU351
 1375              		.loc 7 424 34 view .LVU352
 1376              		.loc 7 430 3 view .LVU353
 1377              		.loc 7 430 3 view .LVU354
 1378              		.loc 7 430 3 view .LVU355
 1379              		.loc 7 434 3 view .LVU356
 1380              	.LBB581:
 1381              	.LBI581:
 1382              		.loc 8 830 27 view .LVU357
 1383              	.LBE581:
 1384              	.LBE580:
 1385              	.LBE579:
 1386              	.LBE587:
 1387              		.loc 8 833 3 view .LVU358
 1388              	.LVL53:
 1389              	.LBB588:
 1390              	.LBB586:
 1391              	.LBB585:
 1392              	.LBB584:
 1393              	.LBB582:
 1394              	.LBI582:
 1395              		.loc 5 491 27 view .LVU359
 1396              	.LBB583:
 1397              		.loc 5 493 3 view .LVU360
 1398              		.syntax unified
 1399              	@ 493 "../ChibiOS/os/common/ext/ARM/CMSIS/Core/Include/cmsis_gcc.h" 1
 1400 0068 80F31188 		MSR basepri, r0
 1401              	@ 0 "" 2
 1402              	.LVL54:
 1403              		.loc 5 493 3 is_stmt 0 view .LVU361
ARM GAS  /tmp/ccMmeZ0f.s 			page 26


 1404              		.thumb
 1405              		.syntax unified
 1406              	.LBE583:
 1407              	.LBE582:
 1408              	.LBE584:
 1409              	.LBE585:
 1410              	.LBE586:
 1411              	.LBE588:
 1412              		.loc 1 329 70 is_stmt 1 view .LVU362
 1413              		.loc 1 330 5 view .LVU363
 1414 006c 0B49     		ldr	r1, .L38+32
 1415 006e 3846     		mov	r0, r7
 1416              		.loc 1 333 1 is_stmt 0 view .LVU364
 1417 0070 03B0     		add	sp, sp, #12
 1418              		.cfi_def_cfa_offset 20
 1419              		@ sp needed
 1420 0072 BDE8F040 		pop	{r4, r5, r6, r7, lr}
 1421              		.cfi_restore 14
 1422              		.cfi_restore 7
 1423              		.cfi_restore 6
 1424              		.cfi_restore 5
 1425              		.cfi_restore 4
 1426              		.cfi_def_cfa_offset 0
 1427              		.loc 1 330 5 view .LVU365
 1428 0076 FFF7FEBF 		b	__test_assert_sequence
 1429              	.LVL55:
 1430              	.L39:
 1431 007a 00BF     		.align	2
 1432              	.L38:
 1433 007c 00000000 		.word	ch0
 1434 0080 00000000 		.word	wa
 1435 0084 00000000 		.word	chtest
 1436 0088 00000000 		.word	.LC4
 1437 008c 00000000 		.word	thread1
 1438 0090 00000000 		.word	threads
 1439 0094 00000000 		.word	.LANCHOR0
 1440 0098 04000000 		.word	.LC5
 1441 009c 14000000 		.word	.LC6
 1442              		.cfi_endproc
 1443              	.LFE416:
 1444              		.size	rt_test_007_004_execute, .-rt_test_007_004_execute
 1445              		.section	.rodata.rt_test_007_002_execute.str1.4,"aMS",%progbits,1
 1446              		.align	2
 1447              	.LC7:
 1448 0000 4200     		.ascii	"B\000"
 1449 0002 0000     		.align	2
 1450              	.LC8:
 1451 0004 4300     		.ascii	"C\000"
 1452 0006 0000     		.align	2
 1453              	.LC9:
 1454 0008 4400     		.ascii	"D\000"
 1455 000a 0000     		.align	2
 1456              	.LC10:
 1457 000c 4500     		.ascii	"E\000"
 1458 000e 0000     		.align	2
 1459              	.LC11:
 1460 0010 41424344 		.ascii	"ABCDE\000"
ARM GAS  /tmp/ccMmeZ0f.s 			page 27


 1460      4500
 1461              		.section	.text.rt_test_007_002_execute,"ax",%progbits
 1462              		.align	1
 1463              		.p2align 4,,15
 1464              		.syntax unified
 1465              		.thumb
 1466              		.thumb_func
 1467              		.fpu softvfp
 1468              		.type	rt_test_007_002_execute, %function
 1469              	rt_test_007_002_execute:
 1470              	.LFB412:
 1471              		.loc 1 177 43 is_stmt 1 view -0
 1472              		.cfi_startproc
 1473              		@ args = 0, pretend = 0, frame = 0
 1474              		@ frame_needed = 0, uses_anonymous_args = 0
 1475              		.loc 1 182 3 view .LVU367
 1476              		.loc 1 177 43 is_stmt 0 view .LVU368
 1477 0000 2DE9F041 		push	{r4, r5, r6, r7, r8, lr}
 1478              		.cfi_def_cfa_offset 24
 1479              		.cfi_offset 4, -24
 1480              		.cfi_offset 5, -20
 1481              		.cfi_offset 6, -16
 1482              		.cfi_offset 7, -12
 1483              		.cfi_offset 8, -8
 1484              		.cfi_offset 14, -4
 1485              	.LBB589:
 1486              	.LBB590:
 1487              	.LBB591:
 1488              	.LBB592:
 1489              		.loc 3 343 10 view .LVU369
 1490 0004 304F     		ldr	r7, .L42
 1491              	.LBE592:
 1492              	.LBE591:
 1493              	.LBE590:
 1494              	.LBE589:
 1495              		.loc 1 184 18 view .LVU370
 1496 0006 314E     		ldr	r6, .L42+4
 1497              	.LBB597:
 1498              	.LBB595:
 1499              		.loc 3 356 37 view .LVU371
 1500 0008 FB68     		ldr	r3, [r7, #12]
 1501              	.LBE595:
 1502              	.LBE597:
 1503              		.loc 1 184 18 view .LVU372
 1504 000a 314C     		ldr	r4, .L42+8
 1505 000c 9A68     		ldr	r2, [r3, #8]
 1506              		.loc 1 182 3 view .LVU373
 1507 000e DFF8C480 		ldr	r8, .L42+12
 1508              		.loc 1 184 18 view .LVU374
 1509 0012 314B     		ldr	r3, .L42+16
 1510 0014 2068     		ldr	r0, [r4]
 1511              		.loc 1 177 43 view .LVU375
 1512 0016 82B0     		sub	sp, sp, #8
 1513              		.cfi_def_cfa_offset 32
 1514              		.loc 1 182 3 view .LVU376
 1515 0018 0125     		movs	r5, #1
 1516              		.loc 1 184 18 view .LVU377
ARM GAS  /tmp/ccMmeZ0f.s 			page 28


 1517 001a 0093     		str	r3, [sp]
 1518 001c 0532     		adds	r2, r2, #5
 1519 001e 3346     		mov	r3, r6
 1520 0020 4FF4B871 		mov	r1, #368
 1521              		.loc 1 182 3 view .LVU378
 1522 0024 C8F80050 		str	r5, [r8]
 1523              		.loc 1 184 5 is_stmt 1 view .LVU379
 1524              	.LBB598:
 1525              	.LBI589:
 1526              		.loc 3 354 23 view .LVU380
 1527              	.LBB596:
 1528              		.loc 3 356 3 view .LVU381
 1529              	.LBB594:
 1530              	.LBI591:
 1531              		.loc 3 341 25 view .LVU382
 1532              	.LBB593:
 1533              		.loc 3 343 3 view .LVU383
 1534              	.LBE593:
 1535              	.LBE594:
 1536              	.LBE596:
 1537              	.LBE598:
 1538              		.loc 1 184 18 is_stmt 0 view .LVU384
 1539 0028 FFF7FEFF 		bl	chThdCreateStatic
 1540              	.LVL56:
 1541              	.LBB599:
 1542              	.LBB600:
 1543              		.loc 3 356 37 view .LVU385
 1544 002c FB68     		ldr	r3, [r7, #12]
 1545              	.LBE600:
 1546              	.LBE599:
 1547              		.loc 1 185 18 view .LVU386
 1548 002e 9A68     		ldr	r2, [r3, #8]
 1549 0030 2A4B     		ldr	r3, .L42+20
 1550 0032 2A44     		add	r2, r2, r5
 1551              		.loc 1 184 16 view .LVU387
 1552 0034 2A4D     		ldr	r5, .L42+24
 1553              		.loc 1 185 18 view .LVU388
 1554 0036 4FF4B871 		mov	r1, #368
 1555              		.loc 1 184 16 view .LVU389
 1556 003a 2860     		str	r0, [r5]
 1557              		.loc 1 185 5 is_stmt 1 view .LVU390
 1558              	.LBB604:
 1559              	.LBI599:
 1560              		.loc 3 354 23 view .LVU391
 1561              	.LBB603:
 1562              		.loc 3 356 3 view .LVU392
 1563              	.LBB601:
 1564              	.LBI601:
 1565              		.loc 3 341 25 view .LVU393
 1566              	.LBB602:
 1567              		.loc 3 343 3 view .LVU394
 1568              	.LBE602:
 1569              	.LBE601:
 1570              	.LBE603:
 1571              	.LBE604:
 1572              		.loc 1 185 18 is_stmt 0 view .LVU395
 1573 003c 0093     		str	r3, [sp]
ARM GAS  /tmp/ccMmeZ0f.s 			page 29


 1574 003e 6068     		ldr	r0, [r4, #4]
 1575 0040 3346     		mov	r3, r6
 1576 0042 FFF7FEFF 		bl	chThdCreateStatic
 1577              	.LVL57:
 1578              	.LBB605:
 1579              	.LBB606:
 1580              		.loc 3 356 37 view .LVU396
 1581 0046 FB68     		ldr	r3, [r7, #12]
 1582              	.LBE606:
 1583              	.LBE605:
 1584              		.loc 1 185 16 view .LVU397
 1585 0048 6860     		str	r0, [r5, #4]
 1586              		.loc 1 186 5 is_stmt 1 view .LVU398
 1587              	.LBB610:
 1588              	.LBI605:
 1589              		.loc 3 354 23 view .LVU399
 1590              	.LBB609:
 1591              		.loc 3 356 3 view .LVU400
 1592              	.LBB607:
 1593              	.LBI607:
 1594              		.loc 3 341 25 view .LVU401
 1595              	.LBB608:
 1596              		.loc 3 343 3 view .LVU402
 1597              	.LBE608:
 1598              	.LBE607:
 1599              	.LBE609:
 1600              	.LBE610:
 1601              		.loc 1 186 18 is_stmt 0 view .LVU403
 1602 004a 9A68     		ldr	r2, [r3, #8]
 1603 004c 254B     		ldr	r3, .L42+28
 1604 004e 0093     		str	r3, [sp]
 1605 0050 A068     		ldr	r0, [r4, #8]
 1606 0052 3346     		mov	r3, r6
 1607 0054 0332     		adds	r2, r2, #3
 1608 0056 4FF4B871 		mov	r1, #368
 1609 005a FFF7FEFF 		bl	chThdCreateStatic
 1610              	.LVL58:
 1611              	.LBB611:
 1612              	.LBB612:
 1613              		.loc 3 356 37 view .LVU404
 1614 005e FB68     		ldr	r3, [r7, #12]
 1615              	.LBE612:
 1616              	.LBE611:
 1617              		.loc 1 186 16 view .LVU405
 1618 0060 A860     		str	r0, [r5, #8]
 1619              		.loc 1 187 5 is_stmt 1 view .LVU406
 1620              	.LBB616:
 1621              	.LBI611:
 1622              		.loc 3 354 23 view .LVU407
 1623              	.LBB615:
 1624              		.loc 3 356 3 view .LVU408
 1625              	.LBB613:
 1626              	.LBI613:
 1627              		.loc 3 341 25 view .LVU409
 1628              	.LBB614:
 1629              		.loc 3 343 3 view .LVU410
 1630              	.LBE614:
ARM GAS  /tmp/ccMmeZ0f.s 			page 30


 1631              	.LBE613:
 1632              	.LBE615:
 1633              	.LBE616:
 1634              		.loc 1 187 18 is_stmt 0 view .LVU411
 1635 0062 9A68     		ldr	r2, [r3, #8]
 1636 0064 204B     		ldr	r3, .L42+32
 1637 0066 0093     		str	r3, [sp]
 1638 0068 E068     		ldr	r0, [r4, #12]
 1639 006a 3346     		mov	r3, r6
 1640 006c 0432     		adds	r2, r2, #4
 1641 006e 4FF4B871 		mov	r1, #368
 1642 0072 FFF7FEFF 		bl	chThdCreateStatic
 1643              	.LVL59:
 1644              	.LBB617:
 1645              	.LBB618:
 1646              		.loc 3 356 37 view .LVU412
 1647 0076 FA68     		ldr	r2, [r7, #12]
 1648              	.LBE618:
 1649              	.LBE617:
 1650              		.loc 1 188 18 view .LVU413
 1651 0078 1C49     		ldr	r1, .L42+36
 1652 007a 9268     		ldr	r2, [r2, #8]
 1653              		.loc 1 187 16 view .LVU414
 1654 007c E860     		str	r0, [r5, #12]
 1655              		.loc 1 188 5 is_stmt 1 view .LVU415
 1656              	.LBB622:
 1657              	.LBI617:
 1658              		.loc 3 354 23 view .LVU416
 1659              	.LBB621:
 1660              		.loc 3 356 3 view .LVU417
 1661              	.LBB619:
 1662              	.LBI619:
 1663              		.loc 3 341 25 view .LVU418
 1664              	.LBB620:
 1665              		.loc 3 343 3 view .LVU419
 1666              	.LBE620:
 1667              	.LBE619:
 1668              	.LBE621:
 1669              	.LBE622:
 1670              		.loc 1 188 18 is_stmt 0 view .LVU420
 1671 007e 0232     		adds	r2, r2, #2
 1672 0080 3346     		mov	r3, r6
 1673 0082 0091     		str	r1, [sp]
 1674 0084 2069     		ldr	r0, [r4, #16]
 1675              		.loc 1 196 5 view .LVU421
 1676 0086 1A4C     		ldr	r4, .L42+40
 1677              		.loc 1 188 18 view .LVU422
 1678 0088 4FF4B871 		mov	r1, #368
 1679 008c FFF7FEFF 		bl	chThdCreateStatic
 1680              	.LVL60:
 1681              		.loc 1 194 3 view .LVU423
 1682 0090 0223     		movs	r3, #2
 1683              		.loc 1 188 16 view .LVU424
 1684 0092 2861     		str	r0, [r5, #16]
 1685              		.loc 1 190 3 is_stmt 1 view .LVU425
 1686              		.loc 1 190 19 view .LVU426
 1687              		.loc 1 194 3 view .LVU427
ARM GAS  /tmp/ccMmeZ0f.s 			page 31


 1688              		.loc 1 196 5 is_stmt 0 view .LVU428
 1689 0094 2046     		mov	r0, r4
 1690              		.loc 1 194 3 view .LVU429
 1691 0096 C8F80030 		str	r3, [r8]
 1692              		.loc 1 196 5 is_stmt 1 view .LVU430
 1693 009a FFF7FEFF 		bl	chSemSignal
 1694              	.LVL61:
 1695              		.loc 1 197 5 view .LVU431
 1696 009e 2046     		mov	r0, r4
 1697 00a0 FFF7FEFF 		bl	chSemSignal
 1698              	.LVL62:
 1699              		.loc 1 198 5 view .LVU432
 1700 00a4 2046     		mov	r0, r4
 1701 00a6 FFF7FEFF 		bl	chSemSignal
 1702              	.LVL63:
 1703              		.loc 1 199 5 view .LVU433
 1704 00aa 2046     		mov	r0, r4
 1705 00ac FFF7FEFF 		bl	chSemSignal
 1706              	.LVL64:
 1707              		.loc 1 200 5 view .LVU434
 1708 00b0 2046     		mov	r0, r4
 1709 00b2 FFF7FEFF 		bl	chSemSignal
 1710              	.LVL65:
 1711              		.loc 1 201 5 view .LVU435
 1712 00b6 FFF7FEFF 		bl	test_wait_threads
 1713              	.LVL66:
 1714              		.loc 1 205 5 view .LVU436
 1715 00ba 0E49     		ldr	r1, .L42+44
 1716 00bc 0E48     		ldr	r0, .L42+48
 1717              		.loc 1 209 1 is_stmt 0 view .LVU437
 1718 00be 02B0     		add	sp, sp, #8
 1719              		.cfi_def_cfa_offset 24
 1720              		@ sp needed
 1721 00c0 BDE8F041 		pop	{r4, r5, r6, r7, r8, lr}
 1722              		.cfi_restore 14
 1723              		.cfi_restore 8
 1724              		.cfi_restore 7
 1725              		.cfi_restore 6
 1726              		.cfi_restore 5
 1727              		.cfi_restore 4
 1728              		.cfi_def_cfa_offset 0
 1729              		.loc 1 205 5 view .LVU438
 1730 00c4 FFF7FEBF 		b	__test_assert_sequence
 1731              	.LVL67:
 1732              	.L43:
 1733              		.align	2
 1734              	.L42:
 1735 00c8 00000000 		.word	ch0
 1736 00cc 00000000 		.word	thread1
 1737 00d0 00000000 		.word	wa
 1738 00d4 00000000 		.word	chtest
 1739 00d8 00000000 		.word	.LC4
 1740 00dc 00000000 		.word	.LC7
 1741 00e0 00000000 		.word	threads
 1742 00e4 04000000 		.word	.LC8
 1743 00e8 08000000 		.word	.LC9
 1744 00ec 0C000000 		.word	.LC10
ARM GAS  /tmp/ccMmeZ0f.s 			page 32


 1745 00f0 00000000 		.word	.LANCHOR0
 1746 00f4 14000000 		.word	.LC6
 1747 00f8 10000000 		.word	.LC11
 1748              		.cfi_endproc
 1749              	.LFE412:
 1750              		.size	rt_test_007_002_execute, .-rt_test_007_002_execute
 1751              		.section	.text.thread1,"ax",%progbits
 1752              		.align	1
 1753              		.p2align 4,,15
 1754              		.syntax unified
 1755              		.thumb
 1756              		.thumb_func
 1757              		.fpu softvfp
 1758              		.type	thread1, %function
 1759              	thread1:
 1760              	.LVL68:
 1761              	.LFB404:
 1762              		.loc 1 58 33 is_stmt 1 view -0
 1763              		.cfi_startproc
 1764              		@ args = 0, pretend = 0, frame = 0
 1765              		@ frame_needed = 0, uses_anonymous_args = 0
 1766              		.loc 1 60 3 view .LVU440
 1767              		.loc 1 58 33 is_stmt 0 view .LVU441
 1768 0000 10B5     		push	{r4, lr}
 1769              		.cfi_def_cfa_offset 8
 1770              		.cfi_offset 4, -8
 1771              		.cfi_offset 14, -4
 1772              		.loc 1 58 33 view .LVU442
 1773 0002 0446     		mov	r4, r0
 1774              		.loc 1 60 3 view .LVU443
 1775 0004 0348     		ldr	r0, .L46
 1776              	.LVL69:
 1777              		.loc 1 60 3 view .LVU444
 1778 0006 FFF7FEFF 		bl	chSemWait
 1779              	.LVL70:
 1780              		.loc 1 61 3 is_stmt 1 view .LVU445
 1781 000a 2078     		ldrb	r0, [r4]	@ zero_extendqisi2
 1782              		.loc 1 62 1 is_stmt 0 view .LVU446
 1783 000c BDE81040 		pop	{r4, lr}
 1784              		.cfi_restore 14
 1785              		.cfi_restore 4
 1786              		.cfi_def_cfa_offset 0
 1787              	.LVL71:
 1788              		.loc 1 61 3 view .LVU447
 1789 0010 FFF7FEBF 		b	test_emit_token
 1790              	.LVL72:
 1791              	.L47:
 1792              		.align	2
 1793              	.L46:
 1794 0014 00000000 		.word	.LANCHOR0
 1795              		.cfi_endproc
 1796              	.LFE404:
 1797              		.size	thread1, .-thread1
 1798              		.section	.text.thread2,"ax",%progbits
 1799              		.align	1
 1800              		.p2align 4,,15
 1801              		.syntax unified
ARM GAS  /tmp/ccMmeZ0f.s 			page 33


 1802              		.thumb
 1803              		.thumb_func
 1804              		.fpu softvfp
 1805              		.type	thread2, %function
 1806              	thread2:
 1807              	.LVL73:
 1808              	.LFB405:
 1809              		.loc 1 64 33 is_stmt 1 view -0
 1810              		.cfi_startproc
 1811              		@ args = 0, pretend = 0, frame = 0
 1812              		@ frame_needed = 0, uses_anonymous_args = 0
 1813              		.loc 1 66 3 view .LVU449
 1814              		.loc 1 67 3 view .LVU450
 1815              		.loc 1 64 33 is_stmt 0 view .LVU451
 1816 0000 08B5     		push	{r3, lr}
 1817              		.cfi_def_cfa_offset 8
 1818              		.cfi_offset 3, -8
 1819              		.cfi_offset 14, -4
 1820              		.loc 1 67 3 view .LVU452
 1821 0002 4FF4FA70 		mov	r0, #500
 1822              	.LVL74:
 1823              		.loc 1 67 3 view .LVU453
 1824 0006 FFF7FEFF 		bl	chThdSleep
 1825              	.LVL75:
 1826              		.loc 1 68 3 is_stmt 1 view .LVU454
 1827              	.LBB623:
 1828              	.LBI623:
 1829              		.loc 7 407 20 view .LVU455
 1830              	.LBE623:
 1831              		.loc 7 409 3 view .LVU456
 1832              	.LBB628:
 1833              	.LBB624:
 1834              	.LBI624:
 1835              		.loc 8 806 27 view .LVU457
 1836              	.LBE624:
 1837              	.LBE628:
 1838              		.loc 8 814 3 view .LVU458
 1839              	.LBB629:
 1840              	.LBB627:
 1841              	.LBB625:
 1842              	.LBI625:
 1843              		.loc 5 491 27 view .LVU459
 1844              	.LBB626:
 1845              		.loc 5 493 3 view .LVU460
 1846 000a 3023     		movs	r3, #48
 1847              		.syntax unified
 1848              	@ 493 "../ChibiOS/os/common/ext/ARM/CMSIS/Core/Include/cmsis_gcc.h" 1
 1849 000c 83F31188 		MSR basepri, r3
 1850              	@ 0 "" 2
 1851              	.LVL76:
 1852              		.loc 5 493 3 is_stmt 0 view .LVU461
 1853              		.thumb
 1854              		.syntax unified
 1855              	.LBE626:
 1856              	.LBE625:
 1857              	.LBE627:
 1858              	.LBE629:
ARM GAS  /tmp/ccMmeZ0f.s 			page 34


 1859              		.loc 7 410 35 is_stmt 1 view .LVU462
 1860              		.loc 7 411 21 view .LVU463
 1861              		.loc 1 69 3 view .LVU464
 1862 0010 0448     		ldr	r0, .L50
 1863 0012 FFF7FEFF 		bl	chSemSignalI
 1864              	.LVL77:
 1865              		.loc 1 70 3 view .LVU465
 1866 0016 FFF7FEFF 		bl	chSchRescheduleS
 1867              	.LVL78:
 1868              		.loc 1 71 3 view .LVU466
 1869              	.LBB630:
 1870              	.LBI630:
 1871              		.loc 7 421 20 view .LVU467
 1872              	.LBB631:
 1873              		.loc 7 423 23 view .LVU468
 1874              		.loc 7 424 34 view .LVU469
 1875              		.loc 7 430 3 view .LVU470
 1876              		.loc 7 430 3 view .LVU471
 1877              		.loc 7 430 3 view .LVU472
 1878              		.loc 7 434 3 view .LVU473
 1879              	.LBB632:
 1880              	.LBI632:
 1881              		.loc 8 830 27 view .LVU474
 1882              	.LBE632:
 1883              	.LBE631:
 1884              	.LBE630:
 1885              		.loc 8 833 3 view .LVU475
 1886              	.LBB637:
 1887              	.LBB636:
 1888              	.LBB635:
 1889              	.LBB633:
 1890              	.LBI633:
 1891              		.loc 5 491 27 view .LVU476
 1892              	.LBB634:
 1893              		.loc 5 493 3 view .LVU477
 1894 001a 0023     		movs	r3, #0
 1895              		.syntax unified
 1896              	@ 493 "../ChibiOS/os/common/ext/ARM/CMSIS/Core/Include/cmsis_gcc.h" 1
 1897 001c 83F31188 		MSR basepri, r3
 1898              	@ 0 "" 2
 1899              	.LVL79:
 1900              		.loc 5 493 3 is_stmt 0 view .LVU478
 1901              		.thumb
 1902              		.syntax unified
 1903              	.LBE634:
 1904              	.LBE633:
 1905              	.LBE635:
 1906              	.LBE636:
 1907              	.LBE637:
 1908              		.loc 1 72 1 view .LVU479
 1909 0020 08BD     		pop	{r3, pc}
 1910              	.L51:
 1911 0022 00BF     		.align	2
 1912              	.L50:
 1913 0024 00000000 		.word	.LANCHOR0
 1914              		.cfi_endproc
 1915              	.LFE405:
ARM GAS  /tmp/ccMmeZ0f.s 			page 35


 1916              		.size	thread2, .-thread2
 1917              		.section	.rodata.rt_test_007_003_execute.str1.4,"aMS",%progbits,1
 1918              		.align	2
 1919              	.LC12:
 1920 0000 77726F6E 		.ascii	"wrong wake-up message\000"
 1920      67207761 
 1920      6B652D75 
 1920      70206D65 
 1920      73736167 
 1921 0016 0000     		.align	2
 1922              	.LC13:
 1923 0018 6F757420 		.ascii	"out of time window\000"
 1923      6F662074 
 1923      696D6520 
 1923      77696E64 
 1923      6F7700
 1924              		.section	.text.rt_test_007_003_execute,"ax",%progbits
 1925              		.align	1
 1926              		.p2align 4,,15
 1927              		.syntax unified
 1928              		.thumb
 1929              		.thumb_func
 1930              		.fpu softvfp
 1931              		.type	rt_test_007_003_execute, %function
 1932              	rt_test_007_003_execute:
 1933              	.LFB414:
 1934              		.loc 1 239 43 is_stmt 1 view -0
 1935              		.cfi_startproc
 1936              		@ args = 0, pretend = 0, frame = 0
 1937              		@ frame_needed = 0, uses_anonymous_args = 0
 1938              		.loc 1 240 3 view .LVU481
 1939              		.loc 1 241 3 view .LVU482
 1940              		.loc 1 242 3 view .LVU483
 1941              		.loc 1 245 3 view .LVU484
 1942              		.loc 1 239 43 is_stmt 0 view .LVU485
 1943 0000 2DE9F041 		push	{r4, r5, r6, r7, r8, lr}
 1944              		.cfi_def_cfa_offset 24
 1945              		.cfi_offset 4, -24
 1946              		.cfi_offset 5, -20
 1947              		.cfi_offset 6, -16
 1948              		.cfi_offset 7, -12
 1949              		.cfi_offset 8, -8
 1950              		.cfi_offset 14, -4
 1951              		.loc 1 247 11 view .LVU486
 1952 0004 4E4C     		ldr	r4, .L60
 1953              		.loc 1 245 3 view .LVU487
 1954 0006 4F4D     		ldr	r5, .L60+4
 1955              		.loc 1 239 43 view .LVU488
 1956 0008 82B0     		sub	sp, sp, #8
 1957              		.cfi_def_cfa_offset 32
 1958              		.loc 1 247 11 view .LVU489
 1959 000a 0021     		movs	r1, #0
 1960              		.loc 1 245 3 view .LVU490
 1961 000c 0123     		movs	r3, #1
 1962              		.loc 1 247 11 view .LVU491
 1963 000e 2046     		mov	r0, r4
 1964              		.loc 1 245 3 view .LVU492
ARM GAS  /tmp/ccMmeZ0f.s 			page 36


 1965 0010 2B60     		str	r3, [r5]
 1966              		.loc 1 247 5 is_stmt 1 view .LVU493
 1967              		.loc 1 247 11 is_stmt 0 view .LVU494
 1968 0012 FFF7FEFF 		bl	chSemWaitTimeout
 1969              	.LVL80:
 1970              		.loc 1 248 5 is_stmt 1 view .LVU495
 1971 0016 A0F1FF30 		sub	r0, r0, #-1
 1972              	.LVL81:
 1973              		.loc 1 248 5 is_stmt 0 view .LVU496
 1974 001a B0FA80F0 		clz	r0, r0
 1975              	.LVL82:
 1976              		.loc 1 248 5 view .LVU497
 1977 001e 4A49     		ldr	r1, .L60+8
 1978 0020 4009     		lsrs	r0, r0, #5
 1979 0022 FFF7FEFF 		bl	__test_assert
 1980              	.LVL83:
 1981 0026 10B1     		cbz	r0, .L59
 1982              	.L52:
 1983              		.loc 1 284 1 view .LVU498
 1984 0028 02B0     		add	sp, sp, #8
 1985              		.cfi_remember_state
 1986              		.cfi_def_cfa_offset 24
 1987              		@ sp needed
 1988 002a BDE8F081 		pop	{r4, r5, r6, r7, r8, pc}
 1989              	.L59:
 1990              		.cfi_restore_state
 1991              		.loc 1 248 61 is_stmt 1 view .LVU499
 1992              		.loc 1 249 5 view .LVU500
 1993              	.LVL84:
 1994              	.LBB656:
 1995              	.LBI656:
 1996              		.loc 4 236 20 view .LVU501
 1997              	.LBB657:
 1998              		.loc 4 238 3 view .LVU502
 1999              		.loc 4 238 10 is_stmt 0 view .LVU503
 2000 002e 2068     		ldr	r0, [r4]
 2001              	.LBE657:
 2002              	.LBE656:
 2003              		.loc 1 249 5 view .LVU504
 2004 0030 4649     		ldr	r1, .L60+12
 2005 0032 001B     		subs	r0, r0, r4
 2006 0034 B0FA80F0 		clz	r0, r0
 2007 0038 4009     		lsrs	r0, r0, #5
 2008 003a FFF7FEFF 		bl	__test_assert
 2009              	.LVL85:
 2010 003e 0028     		cmp	r0, #0
 2011 0040 F2D1     		bne	.L52
 2012              	.LBB658:
 2013              	.LBI658:
 2014              		.loc 1 239 13 is_stmt 1 view .LVU505
 2015              	.LBB659:
 2016              		.loc 1 249 66 view .LVU506
 2017              		.loc 1 250 5 view .LVU507
 2018 0042 A068     		ldr	r0, [r4, #8]
 2019 0044 4249     		ldr	r1, .L60+16
 2020 0046 B0FA80F0 		clz	r0, r0
 2021 004a 4009     		lsrs	r0, r0, #5
ARM GAS  /tmp/ccMmeZ0f.s 			page 37


 2022 004c FFF7FEFF 		bl	__test_assert
 2023              	.LVL86:
 2024 0050 0346     		mov	r3, r0
 2025 0052 0028     		cmp	r0, #0
 2026 0054 E8D1     		bne	.L52
 2027              		.loc 1 250 51 view .LVU508
 2028              		.loc 1 252 3 view .LVU509
 2029              		.loc 1 252 19 view .LVU510
 2030              		.loc 1 255 3 view .LVU511
 2031              	.LBB660:
 2032              	.LBB661:
 2033              	.LBB662:
 2034              	.LBB663:
 2035              		.loc 3 343 10 is_stmt 0 view .LVU512
 2036 0056 3F4A     		ldr	r2, .L60+20
 2037              	.LBE663:
 2038              	.LBE662:
 2039              	.LBE661:
 2040              	.LBE660:
 2041              		.loc 1 257 18 view .LVU513
 2042 0058 3F49     		ldr	r1, .L60+24
 2043              	.LBB668:
 2044              	.LBB666:
 2045              		.loc 3 356 37 view .LVU514
 2046 005a D268     		ldr	r2, [r2, #12]
 2047              	.LBE666:
 2048              	.LBE668:
 2049              		.loc 1 257 18 view .LVU515
 2050 005c 0868     		ldr	r0, [r1]
 2051 005e 9268     		ldr	r2, [r2, #8]
 2052 0060 0093     		str	r3, [sp]
 2053              		.loc 1 255 3 view .LVU516
 2054 0062 0221     		movs	r1, #2
 2055              		.loc 1 257 18 view .LVU517
 2056 0064 013A     		subs	r2, r2, #1
 2057 0066 3D4B     		ldr	r3, .L60+28
 2058              		.loc 1 255 3 view .LVU518
 2059 0068 2960     		str	r1, [r5]
 2060              		.loc 1 257 5 is_stmt 1 view .LVU519
 2061              	.LBB669:
 2062              	.LBI660:
 2063              		.loc 3 354 23 view .LVU520
 2064              	.LBB667:
 2065              		.loc 3 356 3 view .LVU521
 2066              	.LBB665:
 2067              	.LBI662:
 2068              		.loc 3 341 25 view .LVU522
 2069              	.LBB664:
 2070              		.loc 3 343 3 view .LVU523
 2071              	.LBE664:
 2072              	.LBE665:
 2073              	.LBE667:
 2074              	.LBE669:
 2075              		.loc 1 257 18 is_stmt 0 view .LVU524
 2076 006a 4FF4B871 		mov	r1, #368
 2077 006e FFF7FEFF 		bl	chThdCreateStatic
 2078              	.LVL87:
ARM GAS  /tmp/ccMmeZ0f.s 			page 38


 2079              		.loc 1 257 16 view .LVU525
 2080 0072 3B4B     		ldr	r3, .L60+32
 2081              		.loc 1 259 11 view .LVU526
 2082 0074 41F28831 		movw	r1, #5000
 2083              		.loc 1 257 16 view .LVU527
 2084 0078 1860     		str	r0, [r3]
 2085              		.loc 1 259 5 is_stmt 1 view .LVU528
 2086              		.loc 1 259 11 is_stmt 0 view .LVU529
 2087 007a 2046     		mov	r0, r4
 2088 007c FFF7FEFF 		bl	chSemWaitTimeout
 2089              	.LVL88:
 2090 0080 0646     		mov	r6, r0
 2091              	.LVL89:
 2092              		.loc 1 260 5 is_stmt 1 view .LVU530
 2093 0082 FFF7FEFF 		bl	test_wait_threads
 2094              	.LVL90:
 2095              		.loc 1 261 5 view .LVU531
 2096 0086 B6FA86F0 		clz	r0, r6
 2097 008a 2F49     		ldr	r1, .L60+8
 2098 008c 4009     		lsrs	r0, r0, #5
 2099 008e FFF7FEFF 		bl	__test_assert
 2100              	.LVL91:
 2101 0092 0028     		cmp	r0, #0
 2102 0094 C8D1     		bne	.L52
 2103              		.loc 1 261 56 view .LVU532
 2104              		.loc 1 262 5 view .LVU533
 2105              	.LVL92:
 2106              	.LBB670:
 2107              	.LBI670:
 2108              		.loc 4 236 20 view .LVU534
 2109              	.LBB671:
 2110              		.loc 4 238 3 view .LVU535
 2111              		.loc 4 238 10 is_stmt 0 view .LVU536
 2112 0096 2068     		ldr	r0, [r4]
 2113              	.LBE671:
 2114              	.LBE670:
 2115              		.loc 1 262 5 view .LVU537
 2116 0098 2C49     		ldr	r1, .L60+12
 2117 009a 001B     		subs	r0, r0, r4
 2118 009c B0FA80F0 		clz	r0, r0
 2119 00a0 4009     		lsrs	r0, r0, #5
 2120 00a2 FFF7FEFF 		bl	__test_assert
 2121              	.LVL93:
 2122 00a6 0028     		cmp	r0, #0
 2123 00a8 BED1     		bne	.L52
 2124              		.loc 1 262 66 is_stmt 1 view .LVU538
 2125              		.loc 1 263 5 view .LVU539
 2126 00aa A068     		ldr	r0, [r4, #8]
 2127 00ac 2849     		ldr	r1, .L60+16
 2128 00ae B0FA80F0 		clz	r0, r0
 2129 00b2 4009     		lsrs	r0, r0, #5
 2130 00b4 FFF7FEFF 		bl	__test_assert
 2131              	.LVL94:
 2132 00b8 0028     		cmp	r0, #0
 2133 00ba B5D1     		bne	.L52
 2134              		.loc 1 263 51 view .LVU540
 2135              		.loc 1 265 3 view .LVU541
ARM GAS  /tmp/ccMmeZ0f.s 			page 39


 2136              		.loc 1 265 19 view .LVU542
 2137              		.loc 1 268 3 view .LVU543
 2138 00bc 0323     		movs	r3, #3
 2139 00be 2B60     		str	r3, [r5]
 2140              		.loc 1 270 5 view .LVU544
 2141              		.loc 1 270 19 is_stmt 0 view .LVU545
 2142 00c0 FFF7FEFF 		bl	test_wait_tick
 2143              	.LVL95:
 2144              		.loc 1 274 7 view .LVU546
 2145 00c4 204F     		ldr	r7, .L60+8
 2146              		.loc 1 275 7 view .LVU547
 2147 00c6 214E     		ldr	r6, .L60+12
 2148              	.LVL96:
 2149              		.loc 1 270 19 view .LVU548
 2150 00c8 8046     		mov	r8, r0
 2151              	.LVL97:
 2152              	.LBB672:
 2153              	.LBI672:
 2154              		.file 9 "../ChibiOS/os/rt/include/chtime.h"
 2155              		.loc 9 442 25 is_stmt 1 view .LVU549
 2156              	.LBB673:
 2157              		.loc 9 449 3 view .LVU550
 2158              		.loc 9 449 3 is_stmt 0 view .LVU551
 2159              	.LBE673:
 2160              	.LBE672:
 2161              		.loc 1 271 5 is_stmt 1 view .LVU552
 2162              		.loc 1 271 17 view .LVU553
 2163              		.loc 1 270 19 is_stmt 0 view .LVU554
 2164 00ca 4125     		movs	r5, #65
 2165              	.LVL98:
 2166              	.L56:
 2167              		.loc 1 272 7 is_stmt 1 view .LVU555
 2168 00cc 2846     		mov	r0, r5
 2169 00ce FFF7FEFF 		bl	test_emit_token
 2170              	.LVL99:
 2171              		.loc 1 273 7 view .LVU556
 2172              		.loc 1 273 13 is_stmt 0 view .LVU557
 2173 00d2 4FF4FA71 		mov	r1, #500
 2174 00d6 2046     		mov	r0, r4
 2175 00d8 FFF7FEFF 		bl	chSemWaitTimeout
 2176              	.LVL100:
 2177              		.loc 1 274 7 is_stmt 1 view .LVU558
 2178 00dc A0F1FF30 		sub	r0, r0, #-1
 2179              	.LVL101:
 2180              		.loc 1 274 7 is_stmt 0 view .LVU559
 2181 00e0 B0FA80F0 		clz	r0, r0
 2182              	.LVL102:
 2183              		.loc 1 274 7 view .LVU560
 2184 00e4 3946     		mov	r1, r7
 2185 00e6 4009     		lsrs	r0, r0, #5
 2186 00e8 FFF7FEFF 		bl	__test_assert
 2187              	.LVL103:
 2188              		.loc 1 274 63 is_stmt 1 view .LVU561
 2189              		.loc 1 275 7 view .LVU562
 2190              	.LBB674:
 2191              	.LBI674:
 2192              		.loc 4 236 20 view .LVU563
ARM GAS  /tmp/ccMmeZ0f.s 			page 40


 2193              	.LBB675:
 2194              		.loc 4 238 3 view .LVU564
 2195              		.loc 4 238 3 is_stmt 0 view .LVU565
 2196              	.LBE675:
 2197              	.LBE674:
 2198              		.loc 1 275 7 view .LVU566
 2199 00ec 3146     		mov	r1, r6
 2200              		.loc 1 274 7 view .LVU567
 2201 00ee 0028     		cmp	r0, #0
 2202 00f0 9AD1     		bne	.L52
 2203              	.LBB677:
 2204              	.LBB676:
 2205              		.loc 4 238 10 view .LVU568
 2206 00f2 2068     		ldr	r0, [r4]
 2207              	.LBE676:
 2208              	.LBE677:
 2209              		.loc 1 275 7 view .LVU569
 2210 00f4 001B     		subs	r0, r0, r4
 2211 00f6 B0FA80F0 		clz	r0, r0
 2212 00fa 4009     		lsrs	r0, r0, #5
 2213 00fc FFF7FEFF 		bl	__test_assert
 2214              	.LVL104:
 2215              		.loc 1 275 68 is_stmt 1 view .LVU570
 2216              		.loc 1 276 7 view .LVU571
 2217 0100 1349     		ldr	r1, .L60+16
 2218              		.loc 1 275 7 is_stmt 0 view .LVU572
 2219 0102 0028     		cmp	r0, #0
 2220 0104 90D1     		bne	.L52
 2221              		.loc 1 276 7 view .LVU573
 2222 0106 A068     		ldr	r0, [r4, #8]
 2223 0108 B0FA80F0 		clz	r0, r0
 2224 010c 4009     		lsrs	r0, r0, #5
 2225 010e FFF7FEFF 		bl	__test_assert
 2226              	.LVL105:
 2227              		.loc 1 276 53 is_stmt 1 view .LVU574
 2228              		.loc 1 271 24 view .LVU575
 2229              		.loc 1 271 17 view .LVU576
 2230              		.loc 1 271 5 is_stmt 0 view .LVU577
 2231 0112 0135     		adds	r5, r5, #1
 2232 0114 EDB2     		uxtb	r5, r5
 2233              		.loc 1 276 7 view .LVU578
 2234 0116 0028     		cmp	r0, #0
 2235 0118 86D1     		bne	.L52
 2236              		.loc 1 271 5 view .LVU579
 2237 011a 462D     		cmp	r5, #70
 2238 011c D6D1     		bne	.L56
 2239              		.loc 1 278 5 is_stmt 1 view .LVU580
 2240 011e 1149     		ldr	r1, .L60+36
 2241 0120 1148     		ldr	r0, .L60+40
 2242 0122 FFF7FEFF 		bl	__test_assert_sequence
 2243              	.LVL106:
 2244 0126 0028     		cmp	r0, #0
 2245 0128 7FF47EAF 		bne	.L52
 2246              		.loc 1 278 54 view .LVU581
 2247              		.loc 1 279 5 view .LVU582
 2248              	.LVL107:
 2249              	.LBB678:
ARM GAS  /tmp/ccMmeZ0f.s 			page 41


 2250              	.LBI678:
 2251              		.loc 9 442 25 view .LVU583
 2252              	.LBB679:
 2253              		.loc 9 449 3 view .LVU584
 2254              		.loc 9 449 3 is_stmt 0 view .LVU585
 2255              	.LBE679:
 2256              	.LBE678:
 2257              		.loc 1 279 5 view .LVU586
 2258 012c 0F4A     		ldr	r2, .L60+44
 2259 012e 08F6D811 		addw	r1, r8, #2520
 2260 0132 08F6C410 		addw	r0, r8, #2500
 2261              	.LBE659:
 2262              	.LBE658:
 2263              		.loc 1 284 1 view .LVU587
 2264 0136 02B0     		add	sp, sp, #8
 2265              		.cfi_def_cfa_offset 24
 2266              		@ sp needed
 2267 0138 BDE8F041 		pop	{r4, r5, r6, r7, r8, lr}
 2268              		.cfi_restore 14
 2269              		.cfi_restore 8
 2270              		.cfi_restore 7
 2271              		.cfi_restore 6
 2272              		.cfi_restore 5
 2273              		.cfi_restore 4
 2274              		.cfi_def_cfa_offset 0
 2275              	.LVL108:
 2276              	.LBB681:
 2277              	.LBB680:
 2278              		.loc 1 279 5 view .LVU588
 2279 013c FFF7FEBF 		b	__test_assert_time_window
 2280              	.LVL109:
 2281              	.L61:
 2282              		.loc 1 279 5 view .LVU589
 2283              		.align	2
 2284              	.L60:
 2285 0140 00000000 		.word	.LANCHOR0
 2286 0144 00000000 		.word	chtest
 2287 0148 00000000 		.word	.LC12
 2288 014c 00000000 		.word	.LC0
 2289 0150 10000000 		.word	.LC1
 2290 0154 00000000 		.word	ch0
 2291 0158 00000000 		.word	wa
 2292 015c 00000000 		.word	thread2
 2293 0160 00000000 		.word	threads
 2294 0164 14000000 		.word	.LC6
 2295 0168 10000000 		.word	.LC11
 2296 016c 18000000 		.word	.LC13
 2297              	.LBE680:
 2298              	.LBE681:
 2299              		.cfi_endproc
 2300              	.LFE414:
 2301              		.size	rt_test_007_003_execute, .-rt_test_007_003_execute
 2302              		.section	.text.rt_test_007_006_teardown,"ax",%progbits
 2303              		.align	1
 2304              		.p2align 4,,15
 2305              		.syntax unified
 2306              		.thumb
ARM GAS  /tmp/ccMmeZ0f.s 			page 42


 2307              		.thumb_func
 2308              		.fpu softvfp
 2309              		.type	rt_test_007_006_teardown, %function
 2310              	rt_test_007_006_teardown:
 2311              	.LFB430:
 2312              		.cfi_startproc
 2313              		@ args = 0, pretend = 0, frame = 0
 2314              		@ frame_needed = 0, uses_anonymous_args = 0
 2315              		@ link register save eliminated.
 2316 0000 FFF7FEBF 		b	test_wait_threads
 2317              		.cfi_endproc
 2318              	.LFE430:
 2319              		.size	rt_test_007_006_teardown, .-rt_test_007_006_teardown
 2320              		.section	.text.thread4,"ax",%progbits
 2321              		.align	1
 2322              		.p2align 4,,15
 2323              		.syntax unified
 2324              		.thumb
 2325              		.thumb_func
 2326              		.fpu softvfp
 2327              		.type	thread4, %function
 2328              	thread4:
 2329              	.LVL110:
 2330              	.LFB407:
 2331              		.loc 1 81 33 is_stmt 1 view -0
 2332              		.cfi_startproc
 2333              		@ args = 0, pretend = 0, frame = 0
 2334              		@ frame_needed = 0, uses_anonymous_args = 0
 2335              		.loc 1 83 3 view .LVU591
 2336              	.LBB695:
 2337              	.LBI695:
 2338              		.file 10 "../ChibiOS/os/oslib/include/chbsem.h"
 2339              		.loc 10 282 20 view .LVU592
 2340              	.LBB696:
 2341              		.loc 10 284 3 view .LVU593
 2342              	.LBB697:
 2343              	.LBI697:
 2344              		.loc 7 407 20 view .LVU594
 2345              	.LBE697:
 2346              	.LBE696:
 2347              	.LBE695:
 2348              		.loc 7 409 3 view .LVU595
 2349              	.LBB735:
 2350              	.LBB728:
 2351              	.LBB705:
 2352              	.LBB698:
 2353              	.LBI698:
 2354              		.loc 8 806 27 view .LVU596
 2355              	.LBE698:
 2356              	.LBE705:
 2357              	.LBE728:
 2358              	.LBE735:
 2359              		.loc 8 814 3 view .LVU597
 2360              	.LBB736:
 2361              	.LBB729:
 2362              	.LBB706:
 2363              	.LBB703:
ARM GAS  /tmp/ccMmeZ0f.s 			page 43


 2364              	.LBB699:
 2365              	.LBI699:
 2366              		.loc 5 491 27 view .LVU598
 2367              	.LBB700:
 2368              		.loc 5 493 3 view .LVU599
 2369              	.LBE700:
 2370              	.LBE699:
 2371              	.LBE703:
 2372              	.LBE706:
 2373              	.LBE729:
 2374              	.LBE736:
 2375              		.loc 1 81 33 is_stmt 0 view .LVU600
 2376 0000 08B5     		push	{r3, lr}
 2377              		.cfi_def_cfa_offset 8
 2378              		.cfi_offset 3, -8
 2379              		.cfi_offset 14, -4
 2380              	.LBB737:
 2381              	.LBB730:
 2382              	.LBB707:
 2383              	.LBB704:
 2384              	.LBB702:
 2385              	.LBB701:
 2386              		.loc 5 493 3 view .LVU601
 2387 0002 3022     		movs	r2, #48
 2388              		.syntax unified
 2389              	@ 493 "../ChibiOS/os/common/ext/ARM/CMSIS/Core/Include/cmsis_gcc.h" 1
 2390 0004 82F31188 		MSR basepri, r2
 2391              	@ 0 "" 2
 2392              	.LVL111:
 2393              		.loc 5 493 3 view .LVU602
 2394              		.thumb
 2395              		.syntax unified
 2396              	.LBE701:
 2397              	.LBE702:
 2398              	.LBE704:
 2399              	.LBE707:
 2400              	.LBE730:
 2401              	.LBE737:
 2402              		.loc 7 410 35 is_stmt 1 view .LVU603
 2403              		.loc 7 411 21 view .LVU604
 2404              	.LBB738:
 2405              	.LBB731:
 2406              		.loc 10 285 3 view .LVU605
 2407              	.LBB708:
 2408              	.LBI708:
 2409              		.loc 10 266 20 view .LVU606
 2410              	.LBB709:
 2411              		.loc 10 268 21 view .LVU607
 2412              		.loc 10 270 3 view .LVU608
 2413              		.loc 10 270 6 is_stmt 0 view .LVU609
 2414 0008 8368     		ldr	r3, [r0, #8]
 2415              	.LVL112:
 2416              		.loc 10 270 6 view .LVU610
 2417 000a 002B     		cmp	r3, #0
 2418 000c 05DD     		ble	.L66
 2419              		.loc 10 270 6 view .LVU611
 2420              	.LBE709:
ARM GAS  /tmp/ccMmeZ0f.s 			page 44


 2421              	.LBE708:
 2422              		.loc 10 286 3 is_stmt 1 view .LVU612
 2423 000e FFF7FEFF 		bl	chSchRescheduleS
 2424              	.LVL113:
 2425              		.loc 10 287 3 view .LVU613
 2426              	.LBB711:
 2427              	.LBI711:
 2428              		.loc 7 421 20 view .LVU614
 2429              	.LBB712:
 2430              		.loc 7 423 23 view .LVU615
 2431              		.loc 7 424 34 view .LVU616
 2432              		.loc 7 430 3 view .LVU617
 2433              		.loc 7 430 3 view .LVU618
 2434              		.loc 7 430 3 view .LVU619
 2435              		.loc 7 434 3 view .LVU620
 2436              	.LBB713:
 2437              	.LBI713:
 2438              		.loc 8 830 27 view .LVU621
 2439              	.LBE713:
 2440              	.LBE712:
 2441              	.LBE711:
 2442              	.LBE731:
 2443              	.LBE738:
 2444              		.loc 8 833 3 view .LVU622
 2445              	.LBB739:
 2446              	.LBB732:
 2447              	.LBB724:
 2448              	.LBB721:
 2449              	.LBB718:
 2450              	.LBB714:
 2451              	.LBI714:
 2452              		.loc 5 491 27 view .LVU623
 2453              	.LBB715:
 2454              		.loc 5 493 3 view .LVU624
 2455 0012 0023     		movs	r3, #0
 2456              		.syntax unified
 2457              	@ 493 "../ChibiOS/os/common/ext/ARM/CMSIS/Core/Include/cmsis_gcc.h" 1
 2458 0014 83F31188 		MSR basepri, r3
 2459              	@ 0 "" 2
 2460              	.LVL114:
 2461              		.loc 5 493 3 is_stmt 0 view .LVU625
 2462              		.thumb
 2463              		.syntax unified
 2464              	.LBE715:
 2465              	.LBE714:
 2466              	.LBE718:
 2467              	.LBE721:
 2468              	.LBE724:
 2469              	.LBE732:
 2470              	.LBE739:
 2471              		.loc 1 84 1 view .LVU626
 2472 0018 08BD     		pop	{r3, pc}
 2473              	.LVL115:
 2474              	.L66:
 2475              	.LBB740:
 2476              	.LBB733:
 2477              	.LBB725:
ARM GAS  /tmp/ccMmeZ0f.s 			page 45


 2478              	.LBB710:
 2479              		.loc 10 271 5 is_stmt 1 view .LVU627
 2480 001a FFF7FEFF 		bl	chSemSignalI
 2481              	.LVL116:
 2482              		.loc 10 271 5 is_stmt 0 view .LVU628
 2483              	.LBE710:
 2484              	.LBE725:
 2485              		.loc 10 286 3 is_stmt 1 view .LVU629
 2486 001e FFF7FEFF 		bl	chSchRescheduleS
 2487              	.LVL117:
 2488              		.loc 10 287 3 view .LVU630
 2489              	.LBB726:
 2490              		.loc 7 421 20 view .LVU631
 2491              	.LBB722:
 2492              		.loc 7 423 23 view .LVU632
 2493              		.loc 7 424 34 view .LVU633
 2494              		.loc 7 430 3 view .LVU634
 2495              		.loc 7 430 3 view .LVU635
 2496              		.loc 7 430 3 view .LVU636
 2497              		.loc 7 434 3 view .LVU637
 2498              	.LBB719:
 2499              		.loc 8 830 27 view .LVU638
 2500              	.LBE719:
 2501              	.LBE722:
 2502              	.LBE726:
 2503              	.LBE733:
 2504              	.LBE740:
 2505              		.loc 8 833 3 view .LVU639
 2506              	.LBB741:
 2507              	.LBB734:
 2508              	.LBB727:
 2509              	.LBB723:
 2510              	.LBB720:
 2511              	.LBB717:
 2512              		.loc 5 491 27 view .LVU640
 2513              	.LBB716:
 2514              		.loc 5 493 3 view .LVU641
 2515 0022 0023     		movs	r3, #0
 2516              		.syntax unified
 2517              	@ 493 "../ChibiOS/os/common/ext/ARM/CMSIS/Core/Include/cmsis_gcc.h" 1
 2518 0024 83F31188 		MSR basepri, r3
 2519              	@ 0 "" 2
 2520              	.LVL118:
 2521              		.loc 5 493 3 is_stmt 0 view .LVU642
 2522              		.thumb
 2523              		.syntax unified
 2524              	.LBE716:
 2525              	.LBE717:
 2526              	.LBE720:
 2527              	.LBE723:
 2528              	.LBE727:
 2529              	.LBE734:
 2530              	.LBE741:
 2531              		.loc 1 84 1 view .LVU643
 2532 0028 08BD     		pop	{r3, pc}
 2533              		.cfi_endproc
 2534              	.LFE407:
ARM GAS  /tmp/ccMmeZ0f.s 			page 46


 2535              		.size	thread4, .-thread4
 2536 002a 00BF     		.section	.text.rt_test_007_003_setup,"ax",%progbits
 2537              		.align	1
 2538              		.p2align 4,,15
 2539              		.syntax unified
 2540              		.thumb
 2541              		.thumb_func
 2542              		.fpu softvfp
 2543              		.type	rt_test_007_003_setup, %function
 2544              	rt_test_007_003_setup:
 2545              	.LFB424:
 2546              		.cfi_startproc
 2547              		@ args = 0, pretend = 0, frame = 0
 2548              		@ frame_needed = 0, uses_anonymous_args = 0
 2549              		@ link register save eliminated.
 2550 0000 0148     		ldr	r0, .L68
 2551 0002 0021     		movs	r1, #0
 2552 0004 FFF7FEBF 		b	chSemObjectInit
 2553              	.L69:
 2554              		.align	2
 2555              	.L68:
 2556 0008 00000000 		.word	.LANCHOR0
 2557              		.cfi_endproc
 2558              	.LFE424:
 2559              		.size	rt_test_007_003_setup, .-rt_test_007_003_setup
 2560              		.section	.text.rt_test_007_004_setup,"ax",%progbits
 2561              		.align	1
 2562              		.p2align 4,,15
 2563              		.syntax unified
 2564              		.thumb
 2565              		.thumb_func
 2566              		.fpu softvfp
 2567              		.type	rt_test_007_004_setup, %function
 2568              	rt_test_007_004_setup:
 2569              	.LFB426:
 2570              		.cfi_startproc
 2571              		@ args = 0, pretend = 0, frame = 0
 2572              		@ frame_needed = 0, uses_anonymous_args = 0
 2573              		@ link register save eliminated.
 2574 0000 0148     		ldr	r0, .L71
 2575 0002 0021     		movs	r1, #0
 2576 0004 FFF7FEBF 		b	chSemObjectInit
 2577              	.L72:
 2578              		.align	2
 2579              	.L71:
 2580 0008 00000000 		.word	.LANCHOR0
 2581              		.cfi_endproc
 2582              	.LFE426:
 2583              		.size	rt_test_007_004_setup, .-rt_test_007_004_setup
 2584              		.section	.text.rt_test_007_005_setup,"ax",%progbits
 2585              		.align	1
 2586              		.p2align 4,,15
 2587              		.syntax unified
 2588              		.thumb
 2589              		.thumb_func
 2590              		.fpu softvfp
 2591              		.type	rt_test_007_005_setup, %function
ARM GAS  /tmp/ccMmeZ0f.s 			page 47


 2592              	rt_test_007_005_setup:
 2593              	.LFB428:
 2594              		.cfi_startproc
 2595              		@ args = 0, pretend = 0, frame = 0
 2596              		@ frame_needed = 0, uses_anonymous_args = 0
 2597              		@ link register save eliminated.
 2598 0000 0148     		ldr	r0, .L74
 2599 0002 0021     		movs	r1, #0
 2600 0004 FFF7FEBF 		b	chSemObjectInit
 2601              	.L75:
 2602              		.align	2
 2603              	.L74:
 2604 0008 00000000 		.word	.LANCHOR0
 2605              		.cfi_endproc
 2606              	.LFE428:
 2607              		.size	rt_test_007_005_setup, .-rt_test_007_005_setup
 2608              		.section	.rodata.rt_test_007_006_execute.str1.4,"aMS",%progbits,1
 2609              		.align	2
 2610              	.LC14:
 2611 0000 6E6F7420 		.ascii	"not taken\000"
 2611      74616B65 
 2611      6E00
 2612 000a 0000     		.align	2
 2613              	.LC15:
 2614 000c 756E6578 		.ascii	"unexpected message\000"
 2614      70656374 
 2614      6564206D 
 2614      65737361 
 2614      676500
 2615 001f 00       		.align	2
 2616              	.LC16:
 2617 0020 7374696C 		.ascii	"still taken\000"
 2617      6C207461 
 2617      6B656E00 
 2618              		.align	2
 2619              	.LC17:
 2620 002c 756E6578 		.ascii	"unexpected counter\000"
 2620      70656374 
 2620      65642063 
 2620      6F756E74 
 2620      657200
 2621 003f 00       		.align	2
 2622              	.LC18:
 2623 0040 74616B65 		.ascii	"taken\000"
 2623      6E00
 2624              		.section	.text.rt_test_007_006_execute,"ax",%progbits
 2625              		.align	1
 2626              		.p2align 4,,15
 2627              		.syntax unified
 2628              		.thumb
 2629              		.thumb_func
 2630              		.fpu softvfp
 2631              		.type	rt_test_007_006_execute, %function
 2632              	rt_test_007_006_execute:
 2633              	.LFB421:
 2634              		.loc 1 441 43 is_stmt 1 view -0
 2635              		.cfi_startproc
ARM GAS  /tmp/ccMmeZ0f.s 			page 48


 2636              		@ args = 0, pretend = 0, frame = 16
 2637              		@ frame_needed = 0, uses_anonymous_args = 0
 2638              		.loc 1 442 3 view .LVU645
 2639              		.loc 1 443 3 view .LVU646
 2640              		.loc 1 447 3 view .LVU647
 2641              		.loc 1 441 43 is_stmt 0 view .LVU648
 2642 0000 F0B5     		push	{r4, r5, r6, r7, lr}
 2643              		.cfi_def_cfa_offset 20
 2644              		.cfi_offset 4, -20
 2645              		.cfi_offset 5, -16
 2646              		.cfi_offset 6, -12
 2647              		.cfi_offset 7, -8
 2648              		.cfi_offset 14, -4
 2649              		.loc 1 447 3 view .LVU649
 2650 0002 634D     		ldr	r5, .L94
 2651              		.loc 1 441 43 view .LVU650
 2652 0004 87B0     		sub	sp, sp, #28
 2653              		.cfi_def_cfa_offset 48
 2654              		.loc 1 447 3 view .LVU651
 2655 0006 0123     		movs	r3, #1
 2656              	.LBB912:
 2657              	.LBB913:
 2658              		.loc 10 126 3 view .LVU652
 2659 0008 0021     		movs	r1, #0
 2660 000a 03A8     		add	r0, sp, #12
 2661              	.LBE913:
 2662              	.LBE912:
 2663              		.loc 1 447 3 view .LVU653
 2664 000c 2B60     		str	r3, [r5]
 2665              		.loc 1 449 5 is_stmt 1 view .LVU654
 2666              	.LVL119:
 2667              	.LBB916:
 2668              	.LBI912:
 2669              		.loc 10 124 20 view .LVU655
 2670              	.LBB914:
 2671              		.loc 10 126 3 view .LVU656
 2672              	.LBE914:
 2673              	.LBE916:
 2674              	.LBB917:
 2675              	.LBB918:
 2676              	.LBB919:
 2677              	.LBB920:
 2678              	.LBB921:
 2679              		.loc 5 493 3 is_stmt 0 view .LVU657
 2680 000e 3026     		movs	r6, #48
 2681              	.LBE921:
 2682              	.LBE920:
 2683              	.LBE919:
 2684              	.LBE918:
 2685              	.LBE917:
 2686              	.LBB929:
 2687              	.LBB915:
 2688              		.loc 10 126 3 view .LVU658
 2689 0010 FFF7FEFF 		bl	chSemObjectInit
 2690              	.LVL120:
 2691              		.loc 10 126 3 view .LVU659
 2692              	.LBE915:
ARM GAS  /tmp/ccMmeZ0f.s 			page 49


 2693              	.LBE929:
 2694              		.loc 1 450 5 is_stmt 1 view .LVU660
 2695              	.LBB930:
 2696              	.LBI917:
 2697              		.loc 6 573 20 view .LVU661
 2698              	.LBE930:
 2699              		.loc 6 575 3 view .LVU662
 2700              	.LBB931:
 2701              	.LBB926:
 2702              	.LBI918:
 2703              		.loc 7 407 20 view .LVU663
 2704              	.LBE926:
 2705              	.LBE931:
 2706              		.loc 7 409 3 view .LVU664
 2707              	.LBB932:
 2708              	.LBB927:
 2709              	.LBB924:
 2710              	.LBI919:
 2711              		.loc 8 806 27 view .LVU665
 2712              	.LBE924:
 2713              	.LBE927:
 2714              	.LBE932:
 2715              		.loc 8 814 3 view .LVU666
 2716              	.LBB933:
 2717              	.LBB928:
 2718              	.LBB925:
 2719              	.LBB923:
 2720              	.LBI920:
 2721              		.loc 5 491 27 view .LVU667
 2722              	.LBB922:
 2723              		.loc 5 493 3 view .LVU668
 2724              		.syntax unified
 2725              	@ 493 "../ChibiOS/os/common/ext/ARM/CMSIS/Core/Include/cmsis_gcc.h" 1
 2726 0014 86F31188 		MSR basepri, r6
 2727              	@ 0 "" 2
 2728              	.LVL121:
 2729              		.loc 5 493 3 is_stmt 0 view .LVU669
 2730              		.thumb
 2731              		.syntax unified
 2732              	.LBE922:
 2733              	.LBE923:
 2734              	.LBE925:
 2735              	.LBE928:
 2736              	.LBE933:
 2737              		.loc 7 410 35 is_stmt 1 view .LVU670
 2738              		.loc 7 411 21 view .LVU671
 2739              		.loc 1 450 5 view .LVU672
 2740              	.LBB934:
 2741              	.LBI934:
 2742              		.loc 10 300 20 view .LVU673
 2743              	.LBB935:
 2744              		.loc 10 302 21 view .LVU674
 2745              		.loc 10 304 3 view .LVU675
 2746              		.loc 10 304 44 is_stmt 0 view .LVU676
 2747 0018 0598     		ldr	r0, [sp, #20]
 2748              	.LBE935:
 2749              	.LBE934:
ARM GAS  /tmp/ccMmeZ0f.s 			page 50


 2750              		.loc 1 450 5 view .LVU677
 2751 001a 5E49     		ldr	r1, .L94+4
 2752 001c 0028     		cmp	r0, #0
 2753 001e CCBF     		ite	gt
 2754 0020 0020     		movgt	r0, #0
 2755 0022 0120     		movle	r0, #1
 2756 0024 FFF7FEFF 		bl	__test_assert
 2757              	.LVL122:
 2758 0028 20B1     		cbz	r0, .L77
 2759              		.loc 1 450 5 is_stmt 1 view .LVU678
 2760              	.LBB936:
 2761              	.LBI936:
 2762              		.loc 6 584 20 view .LVU679
 2763              	.LBE936:
 2764              		.loc 6 586 3 view .LVU680
 2765              	.LBB945:
 2766              	.LBB937:
 2767              	.LBI937:
 2768              		.loc 7 421 20 view .LVU681
 2769              	.LBB938:
 2770              		.loc 7 423 23 view .LVU682
 2771              		.loc 7 424 34 view .LVU683
 2772              		.loc 7 430 3 view .LVU684
 2773              		.loc 7 430 3 view .LVU685
 2774              		.loc 7 430 3 view .LVU686
 2775              		.loc 7 434 3 view .LVU687
 2776              	.LBB939:
 2777              	.LBI939:
 2778              		.loc 8 830 27 view .LVU688
 2779              	.LBE939:
 2780              	.LBE938:
 2781              	.LBE937:
 2782              	.LBE945:
 2783              		.loc 8 833 3 view .LVU689
 2784              	.LVL123:
 2785              	.LBB946:
 2786              	.LBB944:
 2787              	.LBB943:
 2788              	.LBB942:
 2789              	.LBB940:
 2790              	.LBI940:
 2791              		.loc 5 491 27 view .LVU690
 2792              	.LBB941:
 2793              		.loc 5 493 3 view .LVU691
 2794 002a 0023     		movs	r3, #0
 2795              		.syntax unified
 2796              	@ 493 "../ChibiOS/os/common/ext/ARM/CMSIS/Core/Include/cmsis_gcc.h" 1
 2797 002c 83F31188 		MSR basepri, r3
 2798              	@ 0 "" 2
 2799              	.LVL124:
 2800              		.loc 5 493 3 is_stmt 0 view .LVU692
 2801              		.thumb
 2802              		.syntax unified
 2803              	.LBE941:
 2804              	.LBE940:
 2805              	.LBE942:
 2806              	.LBE943:
ARM GAS  /tmp/ccMmeZ0f.s 			page 51


 2807              	.LBE944:
 2808              	.LBE946:
 2809              		.loc 1 450 5 is_stmt 1 view .LVU693
 2810              	.L76:
 2811              		.loc 1 501 1 is_stmt 0 view .LVU694
 2812 0030 07B0     		add	sp, sp, #28
 2813              		.cfi_remember_state
 2814              		.cfi_def_cfa_offset 20
 2815              		@ sp needed
 2816 0032 F0BD     		pop	{r4, r5, r6, r7, pc}
 2817              	.L77:
 2818              		.cfi_restore_state
 2819              		.loc 1 450 5 is_stmt 1 view .LVU695
 2820              	.LBB947:
 2821              	.LBI947:
 2822              		.loc 6 584 20 view .LVU696
 2823              	.LBE947:
 2824              		.loc 6 586 3 view .LVU697
 2825              	.LBB956:
 2826              	.LBB948:
 2827              	.LBI948:
 2828              		.loc 7 421 20 view .LVU698
 2829              	.LBB949:
 2830              		.loc 7 423 23 view .LVU699
 2831              		.loc 7 424 34 view .LVU700
 2832              		.loc 7 430 3 view .LVU701
 2833              		.loc 7 430 3 view .LVU702
 2834              		.loc 7 430 3 view .LVU703
 2835              		.loc 7 434 3 view .LVU704
 2836              	.LBB950:
 2837              	.LBI950:
 2838              		.loc 8 830 27 view .LVU705
 2839              	.LBE950:
 2840              	.LBE949:
 2841              	.LBE948:
 2842              	.LBE956:
 2843              		.loc 8 833 3 view .LVU706
 2844              	.LVL125:
 2845              	.LBB957:
 2846              	.LBB955:
 2847              	.LBB954:
 2848              	.LBB953:
 2849              	.LBB951:
 2850              	.LBI951:
 2851              		.loc 5 491 27 view .LVU707
 2852              	.LBB952:
 2853              		.loc 5 493 3 view .LVU708
 2854 0034 0446     		mov	r4, r0
 2855              		.syntax unified
 2856              	@ 493 "../ChibiOS/os/common/ext/ARM/CMSIS/Core/Include/cmsis_gcc.h" 1
 2857 0036 80F31188 		MSR basepri, r0
 2858              	@ 0 "" 2
 2859              	.LVL126:
 2860              		.loc 5 493 3 is_stmt 0 view .LVU709
 2861              		.thumb
 2862              		.syntax unified
 2863              	.LBE952:
ARM GAS  /tmp/ccMmeZ0f.s 			page 52


 2864              	.LBE951:
 2865              	.LBE953:
 2866              	.LBE954:
 2867              	.LBE955:
 2868              	.LBE957:
 2869              		.loc 1 450 66 is_stmt 1 view .LVU710
 2870              		.loc 1 452 3 view .LVU711
 2871              		.loc 1 452 19 view .LVU712
 2872              		.loc 1 456 3 view .LVU713
 2873 003a 0223     		movs	r3, #2
 2874              	.LBB958:
 2875              	.LBB959:
 2876              	.LBB960:
 2877              		.loc 2 125 3 is_stmt 0 view .LVU714
 2878 003c 0146     		mov	r1, r0
 2879 003e 6FF00102 		mvn	r2, #1
 2880 0042 03A8     		add	r0, sp, #12
 2881              	.LBE960:
 2882              	.LBE959:
 2883              	.LBE958:
 2884              		.loc 1 456 3 view .LVU715
 2885 0044 2B60     		str	r3, [r5]
 2886              		.loc 1 458 5 is_stmt 1 view .LVU716
 2887              	.LVL127:
 2888              	.LBB963:
 2889              	.LBI958:
 2890              		.loc 10 253 20 view .LVU717
 2891              	.LBE963:
 2892              		.loc 10 255 3 view .LVU718
 2893              	.LBB964:
 2894              	.LBB962:
 2895              	.LBI959:
 2896              		.loc 2 123 20 view .LVU719
 2897              	.LBB961:
 2898              		.loc 2 125 3 view .LVU720
 2899 0046 FFF7FEFF 		bl	chSemResetWithMessage
 2900              	.LVL128:
 2901              		.loc 2 125 3 is_stmt 0 view .LVU721
 2902              	.LBE961:
 2903              	.LBE962:
 2904              	.LBE964:
 2905              		.loc 1 459 5 is_stmt 1 view .LVU722
 2906              	.LBB965:
 2907              	.LBI965:
 2908              		.loc 6 573 20 view .LVU723
 2909              	.LBE965:
 2910              		.loc 6 575 3 view .LVU724
 2911              	.LBB973:
 2912              	.LBB966:
 2913              	.LBI966:
 2914              		.loc 7 407 20 view .LVU725
 2915              	.LBE966:
 2916              	.LBE973:
 2917              		.loc 7 409 3 view .LVU726
 2918              	.LBB974:
 2919              	.LBB971:
 2920              	.LBB967:
ARM GAS  /tmp/ccMmeZ0f.s 			page 53


 2921              	.LBI967:
 2922              		.loc 8 806 27 view .LVU727
 2923              	.LBE967:
 2924              	.LBE971:
 2925              	.LBE974:
 2926              		.loc 8 814 3 view .LVU728
 2927              	.LBB975:
 2928              	.LBB972:
 2929              	.LBB970:
 2930              	.LBB968:
 2931              	.LBI968:
 2932              		.loc 5 491 27 view .LVU729
 2933              	.LBB969:
 2934              		.loc 5 493 3 view .LVU730
 2935              		.syntax unified
 2936              	@ 493 "../ChibiOS/os/common/ext/ARM/CMSIS/Core/Include/cmsis_gcc.h" 1
 2937 004a 86F31188 		MSR basepri, r6
 2938              	@ 0 "" 2
 2939              	.LVL129:
 2940              		.loc 5 493 3 is_stmt 0 view .LVU731
 2941              		.thumb
 2942              		.syntax unified
 2943              	.LBE969:
 2944              	.LBE968:
 2945              	.LBE970:
 2946              	.LBE972:
 2947              	.LBE975:
 2948              		.loc 7 410 35 is_stmt 1 view .LVU732
 2949              		.loc 7 411 21 view .LVU733
 2950              		.loc 1 459 5 view .LVU734
 2951              	.LBB976:
 2952              	.LBI976:
 2953              		.loc 10 300 20 view .LVU735
 2954              	.LBB977:
 2955              		.loc 10 302 21 view .LVU736
 2956              		.loc 10 304 3 view .LVU737
 2957              		.loc 10 304 44 is_stmt 0 view .LVU738
 2958 004e 0598     		ldr	r0, [sp, #20]
 2959              	.LBE977:
 2960              	.LBE976:
 2961              		.loc 1 459 5 view .LVU739
 2962 0050 5049     		ldr	r1, .L94+4
 2963 0052 0028     		cmp	r0, #0
 2964 0054 CCBF     		ite	gt
 2965 0056 0020     		movgt	r0, #0
 2966 0058 0120     		movle	r0, #1
 2967 005a FFF7FEFF 		bl	__test_assert
 2968              	.LVL130:
 2969 005e 0746     		mov	r7, r0
 2970 0060 38BB     		cbnz	r0, .L91
 2971              		.loc 1 459 5 is_stmt 1 view .LVU740
 2972              	.LBB978:
 2973              	.LBI978:
 2974              		.loc 6 584 20 view .LVU741
 2975              	.LBE978:
 2976              		.loc 6 586 3 view .LVU742
 2977              	.LBB987:
ARM GAS  /tmp/ccMmeZ0f.s 			page 54


 2978              	.LBB979:
 2979              	.LBI979:
 2980              		.loc 7 421 20 view .LVU743
 2981              	.LBB980:
 2982              		.loc 7 423 23 view .LVU744
 2983              		.loc 7 424 34 view .LVU745
 2984              		.loc 7 430 3 view .LVU746
 2985              		.loc 7 430 3 view .LVU747
 2986              		.loc 7 430 3 view .LVU748
 2987              		.loc 7 434 3 view .LVU749
 2988              	.LBB981:
 2989              	.LBI981:
 2990              		.loc 8 830 27 view .LVU750
 2991              	.LBE981:
 2992              	.LBE980:
 2993              	.LBE979:
 2994              	.LBE987:
 2995              		.loc 8 833 3 view .LVU751
 2996              	.LVL131:
 2997              	.LBB988:
 2998              	.LBB986:
 2999              	.LBB985:
 3000              	.LBB984:
 3001              	.LBB982:
 3002              	.LBI982:
 3003              		.loc 5 491 27 view .LVU752
 3004              	.LBB983:
 3005              		.loc 5 493 3 view .LVU753
 3006              		.syntax unified
 3007              	@ 493 "../ChibiOS/os/common/ext/ARM/CMSIS/Core/Include/cmsis_gcc.h" 1
 3008 0062 80F31188 		MSR basepri, r0
 3009              	@ 0 "" 2
 3010              	.LVL132:
 3011              		.loc 5 493 3 is_stmt 0 view .LVU754
 3012              		.thumb
 3013              		.syntax unified
 3014              	.LBE983:
 3015              	.LBE982:
 3016              	.LBE984:
 3017              	.LBE985:
 3018              	.LBE986:
 3019              	.LBE988:
 3020              		.loc 1 459 66 is_stmt 1 view .LVU755
 3021              		.loc 1 461 3 view .LVU756
 3022              		.loc 1 461 19 view .LVU757
 3023              		.loc 1 464 3 view .LVU758
 3024 0066 0323     		movs	r3, #3
 3025 0068 2B60     		str	r3, [r5]
 3026              		.loc 1 466 5 view .LVU759
 3027              	.LBB989:
 3028              	.LBI989:
 3029              		.loc 3 354 23 view .LVU760
 3030              	.LBB990:
 3031              		.loc 3 356 3 view .LVU761
 3032              	.LBB991:
 3033              	.LBI991:
 3034              		.loc 3 341 25 view .LVU762
ARM GAS  /tmp/ccMmeZ0f.s 			page 55


 3035              	.LBB992:
 3036              		.loc 3 343 3 view .LVU763
 3037              		.loc 3 343 10 is_stmt 0 view .LVU764
 3038 006a 4B4B     		ldr	r3, .L94+8
 3039              	.LBE992:
 3040              	.LBE991:
 3041              		.loc 3 356 37 view .LVU765
 3042 006c DB68     		ldr	r3, [r3, #12]
 3043              	.LBE990:
 3044              	.LBE989:
 3045              		.loc 1 466 18 view .LVU766
 3046 006e 9A68     		ldr	r2, [r3, #8]
 3047 0070 03AB     		add	r3, sp, #12
 3048 0072 0093     		str	r3, [sp]
 3049 0074 494B     		ldr	r3, .L94+12
 3050 0076 013A     		subs	r2, r2, #1
 3051 0078 4FF4B871 		mov	r1, #368
 3052 007c 1868     		ldr	r0, [r3]
 3053 007e 484B     		ldr	r3, .L94+16
 3054 0080 FFF7FEFF 		bl	chThdCreateStatic
 3055              	.LVL133:
 3056              		.loc 1 466 16 view .LVU767
 3057 0084 474B     		ldr	r3, .L94+20
 3058 0086 1860     		str	r0, [r3]
 3059              		.loc 1 469 3 is_stmt 1 view .LVU768
 3060              		.loc 1 469 19 view .LVU769
 3061              		.loc 1 473 3 view .LVU770
 3062 0088 0423     		movs	r3, #4
 3063              	.LBB993:
 3064              	.LBB994:
 3065              		.loc 10 143 10 is_stmt 0 view .LVU771
 3066 008a 03A8     		add	r0, sp, #12
 3067              	.LBE994:
 3068              	.LBE993:
 3069              		.loc 1 473 3 view .LVU772
 3070 008c 2B60     		str	r3, [r5]
 3071              		.loc 1 475 5 is_stmt 1 view .LVU773
 3072              	.LVL134:
 3073              	.LBB996:
 3074              	.LBI993:
 3075              		.loc 10 141 21 view .LVU774
 3076              	.LBB995:
 3077              		.loc 10 143 3 view .LVU775
 3078              		.loc 10 143 10 is_stmt 0 view .LVU776
 3079 008e FFF7FEFF 		bl	chSemWait
 3080              	.LVL135:
 3081              		.loc 10 143 10 view .LVU777
 3082 0092 0446     		mov	r4, r0
 3083              	.LVL136:
 3084              		.loc 10 143 10 view .LVU778
 3085              	.LBE995:
 3086              	.LBE996:
 3087              		.loc 1 476 5 is_stmt 1 view .LVU779
 3088              	.LBB997:
 3089              	.LBI997:
 3090              		.loc 6 573 20 view .LVU780
 3091              	.LBE997:
ARM GAS  /tmp/ccMmeZ0f.s 			page 56


 3092              		.loc 6 575 3 view .LVU781
 3093              	.LBB1005:
 3094              	.LBB998:
 3095              	.LBI998:
 3096              		.loc 7 407 20 view .LVU782
 3097              	.LBE998:
 3098              	.LBE1005:
 3099              		.loc 7 409 3 view .LVU783
 3100              	.LBB1006:
 3101              	.LBB1003:
 3102              	.LBB999:
 3103              	.LBI999:
 3104              		.loc 8 806 27 view .LVU784
 3105              	.LBE999:
 3106              	.LBE1003:
 3107              	.LBE1006:
 3108              		.loc 8 814 3 view .LVU785
 3109              	.LBB1007:
 3110              	.LBB1004:
 3111              	.LBB1002:
 3112              	.LBB1000:
 3113              	.LBI1000:
 3114              		.loc 5 491 27 view .LVU786
 3115              	.LBB1001:
 3116              		.loc 5 493 3 view .LVU787
 3117              		.syntax unified
 3118              	@ 493 "../ChibiOS/os/common/ext/ARM/CMSIS/Core/Include/cmsis_gcc.h" 1
 3119 0094 86F31188 		MSR basepri, r6
 3120              	@ 0 "" 2
 3121              	.LVL137:
 3122              		.loc 5 493 3 is_stmt 0 view .LVU788
 3123              		.thumb
 3124              		.syntax unified
 3125              	.LBE1001:
 3126              	.LBE1000:
 3127              	.LBE1002:
 3128              	.LBE1004:
 3129              	.LBE1007:
 3130              		.loc 7 410 35 is_stmt 1 view .LVU789
 3131              		.loc 7 411 21 view .LVU790
 3132              		.loc 1 476 5 view .LVU791
 3133              	.LBB1008:
 3134              	.LBI1008:
 3135              		.loc 10 300 20 view .LVU792
 3136              	.LBB1009:
 3137              		.loc 10 302 21 view .LVU793
 3138              		.loc 10 304 3 view .LVU794
 3139              		.loc 10 304 44 is_stmt 0 view .LVU795
 3140 0098 0598     		ldr	r0, [sp, #20]
 3141              	.LVL138:
 3142              		.loc 10 304 44 view .LVU796
 3143              	.LBE1009:
 3144              	.LBE1008:
 3145              		.loc 1 476 5 view .LVU797
 3146 009a 3E49     		ldr	r1, .L94+4
 3147 009c 0028     		cmp	r0, #0
 3148 009e CCBF     		ite	gt
ARM GAS  /tmp/ccMmeZ0f.s 			page 57


 3149 00a0 0020     		movgt	r0, #0
 3150 00a2 0120     		movle	r0, #1
 3151 00a4 FFF7FEFF 		bl	__test_assert
 3152              	.LVL139:
 3153 00a8 38B1     		cbz	r0, .L80
 3154              	.LVL140:
 3155              	.L90:
 3156              		.loc 1 487 5 is_stmt 1 view .LVU798
 3157              	.LBB1010:
 3158              	.LBI1010:
 3159              		.loc 6 584 20 view .LVU799
 3160              	.LBE1010:
 3161              		.loc 6 586 3 view .LVU800
 3162              	.LBB1019:
 3163              	.LBB1011:
 3164              	.LBI1011:
 3165              		.loc 7 421 20 view .LVU801
 3166              	.LBB1012:
 3167              		.loc 7 423 23 view .LVU802
 3168              		.loc 7 424 34 view .LVU803
 3169              		.loc 7 430 3 view .LVU804
 3170              		.loc 7 430 3 view .LVU805
 3171              		.loc 7 430 3 view .LVU806
 3172              		.loc 7 434 3 view .LVU807
 3173              	.LBB1013:
 3174              	.LBI1013:
 3175              		.loc 8 830 27 view .LVU808
 3176              	.LBE1013:
 3177              	.LBE1012:
 3178              	.LBE1011:
 3179              	.LBE1019:
 3180              		.loc 8 833 3 view .LVU809
 3181              	.LBB1020:
 3182              	.LBB1018:
 3183              	.LBB1017:
 3184              	.LBB1016:
 3185              	.LBB1014:
 3186              	.LBI1014:
 3187              		.loc 5 491 27 view .LVU810
 3188              	.LBB1015:
 3189              		.loc 5 493 3 view .LVU811
 3190              		.syntax unified
 3191              	@ 493 "../ChibiOS/os/common/ext/ARM/CMSIS/Core/Include/cmsis_gcc.h" 1
 3192 00aa 87F31188 		MSR basepri, r7
 3193              	@ 0 "" 2
 3194              	.LVL141:
 3195              		.loc 5 493 3 is_stmt 0 view .LVU812
 3196              		.thumb
 3197              		.syntax unified
 3198              	.LBE1015:
 3199              	.LBE1014:
 3200              	.LBE1016:
 3201              	.LBE1017:
 3202              	.LBE1018:
 3203              	.LBE1020:
 3204              		.loc 1 487 5 is_stmt 1 view .LVU813
 3205              		.loc 1 501 1 is_stmt 0 view .LVU814
ARM GAS  /tmp/ccMmeZ0f.s 			page 58


 3206 00ae 07B0     		add	sp, sp, #28
 3207              		.cfi_remember_state
 3208              		.cfi_def_cfa_offset 20
 3209              		@ sp needed
 3210 00b0 F0BD     		pop	{r4, r5, r6, r7, pc}
 3211              	.L91:
 3212              		.cfi_restore_state
 3213              		.loc 1 498 5 is_stmt 1 view .LVU815
 3214              	.LBB1021:
 3215              	.LBI1021:
 3216              		.loc 6 584 20 view .LVU816
 3217              	.LBE1021:
 3218              		.loc 6 586 3 view .LVU817
 3219              	.LBB1030:
 3220              	.LBB1022:
 3221              	.LBI1022:
 3222              		.loc 7 421 20 view .LVU818
 3223              	.LBB1023:
 3224              		.loc 7 423 23 view .LVU819
 3225              		.loc 7 424 34 view .LVU820
 3226              		.loc 7 430 3 view .LVU821
 3227              		.loc 7 430 3 view .LVU822
 3228              		.loc 7 430 3 view .LVU823
 3229              		.loc 7 434 3 view .LVU824
 3230              	.LBB1024:
 3231              	.LBI1024:
 3232              		.loc 8 830 27 view .LVU825
 3233              	.LBE1024:
 3234              	.LBE1023:
 3235              	.LBE1022:
 3236              	.LBE1030:
 3237              		.loc 8 833 3 view .LVU826
 3238              	.LVL142:
 3239              	.LBB1031:
 3240              	.LBB1029:
 3241              	.LBB1028:
 3242              	.LBB1027:
 3243              	.LBB1025:
 3244              	.LBI1025:
 3245              		.loc 5 491 27 view .LVU827
 3246              	.LBB1026:
 3247              		.loc 5 493 3 view .LVU828
 3248              		.syntax unified
 3249              	@ 493 "../ChibiOS/os/common/ext/ARM/CMSIS/Core/Include/cmsis_gcc.h" 1
 3250 00b2 84F31188 		MSR basepri, r4
 3251              	@ 0 "" 2
 3252              	.LVL143:
 3253              		.loc 5 493 3 is_stmt 0 view .LVU829
 3254              		.thumb
 3255              		.syntax unified
 3256              	.LBE1026:
 3257              	.LBE1025:
 3258              	.LBE1027:
 3259              	.LBE1028:
 3260              	.LBE1029:
 3261              	.LBE1031:
 3262              		.loc 1 498 5 is_stmt 1 view .LVU830
ARM GAS  /tmp/ccMmeZ0f.s 			page 59


 3263              		.loc 1 501 1 is_stmt 0 view .LVU831
 3264 00b6 07B0     		add	sp, sp, #28
 3265              		.cfi_remember_state
 3266              		.cfi_def_cfa_offset 20
 3267              		@ sp needed
 3268 00b8 F0BD     		pop	{r4, r5, r6, r7, pc}
 3269              	.LVL144:
 3270              	.L80:
 3271              		.cfi_restore_state
 3272              		.loc 1 476 5 is_stmt 1 view .LVU832
 3273              	.LBB1032:
 3274              	.LBI1032:
 3275              		.loc 6 584 20 view .LVU833
 3276              	.LBE1032:
 3277              		.loc 6 586 3 view .LVU834
 3278              	.LBB1041:
 3279              	.LBB1033:
 3280              	.LBI1033:
 3281              		.loc 7 421 20 view .LVU835
 3282              	.LBB1034:
 3283              		.loc 7 423 23 view .LVU836
 3284              		.loc 7 424 34 view .LVU837
 3285              		.loc 7 430 3 view .LVU838
 3286              		.loc 7 430 3 view .LVU839
 3287              		.loc 7 430 3 view .LVU840
 3288              		.loc 7 434 3 view .LVU841
 3289              	.LBB1035:
 3290              	.LBI1035:
 3291              		.loc 8 830 27 view .LVU842
 3292              	.LBE1035:
 3293              	.LBE1034:
 3294              	.LBE1033:
 3295              	.LBE1041:
 3296              		.loc 8 833 3 view .LVU843
 3297              	.LBB1042:
 3298              	.LBB1040:
 3299              	.LBB1039:
 3300              	.LBB1038:
 3301              	.LBB1036:
 3302              	.LBI1036:
 3303              		.loc 5 491 27 view .LVU844
 3304              	.LBB1037:
 3305              		.loc 5 493 3 view .LVU845
 3306              		.syntax unified
 3307              	@ 493 "../ChibiOS/os/common/ext/ARM/CMSIS/Core/Include/cmsis_gcc.h" 1
 3308 00ba 80F31188 		MSR basepri, r0
 3309              	@ 0 "" 2
 3310              	.LVL145:
 3311              		.loc 5 493 3 is_stmt 0 view .LVU846
 3312              		.thumb
 3313              		.syntax unified
 3314              	.LBE1037:
 3315              	.LBE1036:
 3316              	.LBE1038:
 3317              	.LBE1039:
 3318              	.LBE1040:
 3319              	.LBE1042:
ARM GAS  /tmp/ccMmeZ0f.s 			page 60


 3320              		.loc 1 476 66 is_stmt 1 view .LVU847
 3321              		.loc 1 477 5 view .LVU848
 3322 00be B4FA84F0 		clz	r0, r4
 3323 00c2 3949     		ldr	r1, .L94+24
 3324 00c4 4009     		lsrs	r0, r0, #5
 3325 00c6 FFF7FEFF 		bl	__test_assert
 3326              	.LVL146:
 3327 00ca 0028     		cmp	r0, #0
 3328 00cc B0D1     		bne	.L76
 3329              		.loc 1 477 53 discriminator 2 view .LVU849
 3330              		.loc 1 479 3 discriminator 2 view .LVU850
 3331              		.loc 1 479 19 discriminator 2 view .LVU851
 3332              		.loc 1 484 3 discriminator 2 view .LVU852
 3333 00ce 0523     		movs	r3, #5
 3334 00d0 2B60     		str	r3, [r5]
 3335              		.loc 1 486 5 discriminator 2 view .LVU853
 3336              	.LVL147:
 3337              	.LBB1043:
 3338              	.LBI1043:
 3339              		.loc 10 282 20 discriminator 2 view .LVU854
 3340              	.LBB1044:
 3341              		.loc 10 284 3 discriminator 2 view .LVU855
 3342              	.LBB1045:
 3343              	.LBI1045:
 3344              		.loc 7 407 20 discriminator 2 view .LVU856
 3345              	.LBE1045:
 3346              	.LBE1044:
 3347              	.LBE1043:
 3348              		.loc 7 409 3 discriminator 2 view .LVU857
 3349              	.LBB1069:
 3350              	.LBB1064:
 3351              	.LBB1050:
 3352              	.LBB1046:
 3353              	.LBI1046:
 3354              		.loc 8 806 27 discriminator 2 view .LVU858
 3355              	.LBE1046:
 3356              	.LBE1050:
 3357              	.LBE1064:
 3358              	.LBE1069:
 3359              		.loc 8 814 3 discriminator 2 view .LVU859
 3360              	.LBB1070:
 3361              	.LBB1065:
 3362              	.LBB1051:
 3363              	.LBB1049:
 3364              	.LBB1047:
 3365              	.LBI1047:
 3366              		.loc 5 491 27 discriminator 2 view .LVU860
 3367              	.LBB1048:
 3368              		.loc 5 493 3 discriminator 2 view .LVU861
 3369              		.syntax unified
 3370              	@ 493 "../ChibiOS/os/common/ext/ARM/CMSIS/Core/Include/cmsis_gcc.h" 1
 3371 00d2 86F31188 		MSR basepri, r6
 3372              	@ 0 "" 2
 3373              	.LVL148:
 3374              		.loc 5 493 3 is_stmt 0 discriminator 2 view .LVU862
 3375              		.thumb
 3376              		.syntax unified
ARM GAS  /tmp/ccMmeZ0f.s 			page 61


 3377              	.LBE1048:
 3378              	.LBE1047:
 3379              	.LBE1049:
 3380              	.LBE1051:
 3381              	.LBE1065:
 3382              	.LBE1070:
 3383              		.loc 7 410 35 is_stmt 1 discriminator 2 view .LVU863
 3384              		.loc 7 411 21 discriminator 2 view .LVU864
 3385              	.LBB1071:
 3386              	.LBB1066:
 3387              		.loc 10 285 3 discriminator 2 view .LVU865
 3388              	.LBB1052:
 3389              	.LBI1052:
 3390              		.loc 10 266 20 discriminator 2 view .LVU866
 3391              	.LBB1053:
 3392              		.loc 10 268 21 discriminator 2 view .LVU867
 3393              		.loc 10 270 3 discriminator 2 view .LVU868
 3394              		.loc 10 270 6 is_stmt 0 discriminator 2 view .LVU869
 3395 00d6 059B     		ldr	r3, [sp, #20]
 3396 00d8 002B     		cmp	r3, #0
 3397 00da 3FDD     		ble	.L92
 3398              	.L81:
 3399              	.LVL149:
 3400              		.loc 10 270 6 discriminator 2 view .LVU870
 3401              	.LBE1053:
 3402              	.LBE1052:
 3403              		.loc 10 286 3 is_stmt 1 view .LVU871
 3404 00dc FFF7FEFF 		bl	chSchRescheduleS
 3405              	.LVL150:
 3406              		.loc 10 287 3 view .LVU872
 3407              	.LBB1055:
 3408              	.LBI1055:
 3409              		.loc 7 421 20 view .LVU873
 3410              	.LBB1056:
 3411              		.loc 7 423 23 view .LVU874
 3412              		.loc 7 424 34 view .LVU875
 3413              		.loc 7 430 3 view .LVU876
 3414              		.loc 7 430 3 view .LVU877
 3415              		.loc 7 430 3 view .LVU878
 3416              		.loc 7 434 3 view .LVU879
 3417              	.LBB1057:
 3418              	.LBI1057:
 3419              		.loc 8 830 27 view .LVU880
 3420              	.LBE1057:
 3421              	.LBE1056:
 3422              	.LBE1055:
 3423              	.LBE1066:
 3424              	.LBE1071:
 3425              		.loc 8 833 3 view .LVU881
 3426              	.LBB1072:
 3427              	.LBB1067:
 3428              	.LBB1062:
 3429              	.LBB1061:
 3430              	.LBB1060:
 3431              	.LBB1058:
 3432              	.LBI1058:
 3433              		.loc 5 491 27 view .LVU882
ARM GAS  /tmp/ccMmeZ0f.s 			page 62


 3434              	.LBB1059:
 3435              		.loc 5 493 3 view .LVU883
 3436 00e0 0027     		movs	r7, #0
 3437              		.syntax unified
 3438              	@ 493 "../ChibiOS/os/common/ext/ARM/CMSIS/Core/Include/cmsis_gcc.h" 1
 3439 00e2 87F31188 		MSR basepri, r7
 3440              	@ 0 "" 2
 3441              	.LVL151:
 3442              		.loc 5 493 3 is_stmt 0 view .LVU884
 3443              		.thumb
 3444              		.syntax unified
 3445              	.LBE1059:
 3446              	.LBE1058:
 3447              	.LBE1060:
 3448              	.LBE1061:
 3449              	.LBE1062:
 3450              	.LBE1067:
 3451              	.LBE1072:
 3452              		.loc 1 487 5 is_stmt 1 view .LVU885
 3453              	.LBB1073:
 3454              	.LBI1073:
 3455              		.loc 6 573 20 view .LVU886
 3456              	.LBE1073:
 3457              		.loc 6 575 3 view .LVU887
 3458              	.LBB1081:
 3459              	.LBB1074:
 3460              	.LBI1074:
 3461              		.loc 7 407 20 view .LVU888
 3462              	.LBE1074:
 3463              	.LBE1081:
 3464              		.loc 7 409 3 view .LVU889
 3465              	.LBB1082:
 3466              	.LBB1079:
 3467              	.LBB1075:
 3468              	.LBI1075:
 3469              		.loc 8 806 27 view .LVU890
 3470              	.LBE1075:
 3471              	.LBE1079:
 3472              	.LBE1082:
 3473              		.loc 8 814 3 view .LVU891
 3474              	.LBB1083:
 3475              	.LBB1080:
 3476              	.LBB1078:
 3477              	.LBB1076:
 3478              	.LBI1076:
 3479              		.loc 5 491 27 view .LVU892
 3480              	.LBB1077:
 3481              		.loc 5 493 3 view .LVU893
 3482 00e6 3026     		movs	r6, #48
 3483              		.syntax unified
 3484              	@ 493 "../ChibiOS/os/common/ext/ARM/CMSIS/Core/Include/cmsis_gcc.h" 1
 3485 00e8 86F31188 		MSR basepri, r6
 3486              	@ 0 "" 2
 3487              	.LVL152:
 3488              		.loc 5 493 3 is_stmt 0 view .LVU894
 3489              		.thumb
 3490              		.syntax unified
ARM GAS  /tmp/ccMmeZ0f.s 			page 63


 3491              	.LBE1077:
 3492              	.LBE1076:
 3493              	.LBE1078:
 3494              	.LBE1080:
 3495              	.LBE1083:
 3496              		.loc 7 410 35 is_stmt 1 view .LVU895
 3497              		.loc 7 411 21 view .LVU896
 3498              		.loc 1 487 5 view .LVU897
 3499              	.LBB1084:
 3500              	.LBI1084:
 3501              		.loc 10 300 20 view .LVU898
 3502              	.LBB1085:
 3503              		.loc 10 302 21 view .LVU899
 3504              		.loc 10 304 3 view .LVU900
 3505              		.loc 10 304 3 is_stmt 0 view .LVU901
 3506              	.LBE1085:
 3507              	.LBE1084:
 3508              		.loc 1 487 5 view .LVU902
 3509 00ec 0598     		ldr	r0, [sp, #20]
 3510 00ee 2F49     		ldr	r1, .L94+28
 3511 00f0 B842     		cmp	r0, r7
 3512 00f2 D4BF     		ite	le
 3513 00f4 0020     		movle	r0, #0
 3514 00f6 0120     		movgt	r0, #1
 3515 00f8 FFF7FEFF 		bl	__test_assert
 3516              	.LVL153:
 3517 00fc 0446     		mov	r4, r0
 3518              	.LVL154:
 3519              		.loc 1 487 5 view .LVU903
 3520 00fe 0028     		cmp	r0, #0
 3521 0100 D3D1     		bne	.L90
 3522              		.loc 1 487 5 is_stmt 1 view .LVU904
 3523              	.LBB1086:
 3524              	.LBI1086:
 3525              		.loc 6 584 20 view .LVU905
 3526              	.LBE1086:
 3527              		.loc 6 586 3 view .LVU906
 3528              	.LBB1095:
 3529              	.LBB1087:
 3530              	.LBI1087:
 3531              		.loc 7 421 20 view .LVU907
 3532              	.LBB1088:
 3533              		.loc 7 423 23 view .LVU908
 3534              		.loc 7 424 34 view .LVU909
 3535              		.loc 7 430 3 view .LVU910
 3536              		.loc 7 430 3 view .LVU911
 3537              		.loc 7 430 3 view .LVU912
 3538              		.loc 7 434 3 view .LVU913
 3539              	.LBB1089:
 3540              	.LBI1089:
 3541              		.loc 8 830 27 view .LVU914
 3542              	.LBE1089:
 3543              	.LBE1088:
 3544              	.LBE1087:
 3545              	.LBE1095:
 3546              		.loc 8 833 3 view .LVU915
 3547              	.LVL155:
ARM GAS  /tmp/ccMmeZ0f.s 			page 64


 3548              	.LBB1096:
 3549              	.LBB1094:
 3550              	.LBB1093:
 3551              	.LBB1092:
 3552              	.LBB1090:
 3553              	.LBI1090:
 3554              		.loc 5 491 27 view .LVU916
 3555              	.LBB1091:
 3556              		.loc 5 493 3 view .LVU917
 3557              		.syntax unified
 3558              	@ 493 "../ChibiOS/os/common/ext/ARM/CMSIS/Core/Include/cmsis_gcc.h" 1
 3559 0102 80F31188 		MSR basepri, r0
 3560              	@ 0 "" 2
 3561              	.LVL156:
 3562              		.loc 5 493 3 is_stmt 0 view .LVU918
 3563              		.thumb
 3564              		.syntax unified
 3565              	.LBE1091:
 3566              	.LBE1090:
 3567              	.LBE1092:
 3568              	.LBE1093:
 3569              	.LBE1094:
 3570              	.LBE1096:
 3571              		.loc 1 487 68 is_stmt 1 view .LVU919
 3572              		.loc 1 488 5 view .LVU920
 3573              	.LBB1097:
 3574              	.LBI1097:
 3575              		.loc 6 573 20 view .LVU921
 3576              	.LBE1097:
 3577              		.loc 6 575 3 view .LVU922
 3578              	.LBB1105:
 3579              	.LBB1098:
 3580              	.LBI1098:
 3581              		.loc 7 407 20 view .LVU923
 3582              	.LBE1098:
 3583              	.LBE1105:
 3584              		.loc 7 409 3 view .LVU924
 3585              	.LBB1106:
 3586              	.LBB1103:
 3587              	.LBB1099:
 3588              	.LBI1099:
 3589              		.loc 8 806 27 view .LVU925
 3590              	.LBE1099:
 3591              	.LBE1103:
 3592              	.LBE1106:
 3593              		.loc 8 814 3 view .LVU926
 3594              	.LBB1107:
 3595              	.LBB1104:
 3596              	.LBB1102:
 3597              	.LBB1100:
 3598              	.LBI1100:
 3599              		.loc 5 491 27 view .LVU927
 3600              	.LBB1101:
 3601              		.loc 5 493 3 view .LVU928
 3602              		.syntax unified
 3603              	@ 493 "../ChibiOS/os/common/ext/ARM/CMSIS/Core/Include/cmsis_gcc.h" 1
 3604 0106 86F31188 		MSR basepri, r6
ARM GAS  /tmp/ccMmeZ0f.s 			page 65


 3605              	@ 0 "" 2
 3606              	.LVL157:
 3607              		.loc 5 493 3 is_stmt 0 view .LVU929
 3608              		.thumb
 3609              		.syntax unified
 3610              	.LBE1101:
 3611              	.LBE1100:
 3612              	.LBE1102:
 3613              	.LBE1104:
 3614              	.LBE1107:
 3615              		.loc 7 410 35 is_stmt 1 view .LVU930
 3616              		.loc 7 411 21 view .LVU931
 3617              		.loc 1 488 5 view .LVU932
 3618              	.LBB1108:
 3619              	.LBI1108:
 3620              		.loc 2 189 21 view .LVU933
 3621              	.LBB1109:
 3622              		.loc 2 191 21 view .LVU934
 3623              		.loc 2 193 3 view .LVU935
 3624              		.loc 2 193 3 is_stmt 0 view .LVU936
 3625              	.LBE1109:
 3626              	.LBE1108:
 3627              		.loc 1 488 5 view .LVU937
 3628 010a 0598     		ldr	r0, [sp, #20]
 3629 010c 2849     		ldr	r1, .L94+32
 3630 010e A0F10100 		sub	r0, #1
 3631 0112 B0FA80F0 		clz	r0, r0
 3632 0116 4009     		lsrs	r0, r0, #5
 3633 0118 FFF7FEFF 		bl	__test_assert
 3634              	.LVL158:
 3635 011c 0028     		cmp	r0, #0
 3636 011e C8D1     		bne	.L91
 3637              		.loc 1 488 5 is_stmt 1 view .LVU938
 3638              	.LBB1110:
 3639              	.LBI1110:
 3640              		.loc 6 584 20 view .LVU939
 3641              	.LBE1110:
 3642              		.loc 6 586 3 view .LVU940
 3643              	.LBB1119:
 3644              	.LBB1111:
 3645              	.LBI1111:
 3646              		.loc 7 421 20 view .LVU941
 3647              	.LBB1112:
 3648              		.loc 7 423 23 view .LVU942
 3649              		.loc 7 424 34 view .LVU943
 3650              		.loc 7 430 3 view .LVU944
 3651              		.loc 7 430 3 view .LVU945
 3652              		.loc 7 430 3 view .LVU946
 3653              		.loc 7 434 3 view .LVU947
 3654              	.LBB1113:
 3655              	.LBI1113:
 3656              		.loc 8 830 27 view .LVU948
 3657              	.LBE1113:
 3658              	.LBE1112:
 3659              	.LBE1111:
 3660              	.LBE1119:
 3661              		.loc 8 833 3 view .LVU949
ARM GAS  /tmp/ccMmeZ0f.s 			page 66


 3662              	.LVL159:
 3663              	.LBB1120:
 3664              	.LBB1118:
 3665              	.LBB1117:
 3666              	.LBB1116:
 3667              	.LBB1114:
 3668              	.LBI1114:
 3669              		.loc 5 491 27 view .LVU950
 3670              	.LBB1115:
 3671              		.loc 5 493 3 view .LVU951
 3672              		.syntax unified
 3673              	@ 493 "../ChibiOS/os/common/ext/ARM/CMSIS/Core/Include/cmsis_gcc.h" 1
 3674 0120 80F31188 		MSR basepri, r0
 3675              	@ 0 "" 2
 3676              	.LVL160:
 3677              		.loc 5 493 3 is_stmt 0 view .LVU952
 3678              		.thumb
 3679              		.syntax unified
 3680              	.LBE1115:
 3681              	.LBE1114:
 3682              	.LBE1116:
 3683              	.LBE1117:
 3684              	.LBE1118:
 3685              	.LBE1120:
 3686              		.loc 1 488 77 is_stmt 1 view .LVU953
 3687              		.loc 1 490 3 view .LVU954
 3688              		.loc 1 490 19 view .LVU955
 3689              		.loc 1 494 3 view .LVU956
 3690 0124 0623     		movs	r3, #6
 3691 0126 2B60     		str	r3, [r5]
 3692              		.loc 1 496 5 view .LVU957
 3693              	.LVL161:
 3694              	.LBB1121:
 3695              	.LBI1121:
 3696              		.loc 10 282 20 view .LVU958
 3697              	.LBB1122:
 3698              		.loc 10 284 3 view .LVU959
 3699              	.LBB1123:
 3700              	.LBI1123:
 3701              		.loc 7 407 20 view .LVU960
 3702              	.LBE1123:
 3703              	.LBE1122:
 3704              	.LBE1121:
 3705              		.loc 7 409 3 view .LVU961
 3706              	.LBB1147:
 3707              	.LBB1142:
 3708              	.LBB1128:
 3709              	.LBB1124:
 3710              	.LBI1124:
 3711              		.loc 8 806 27 view .LVU962
 3712              	.LBE1124:
 3713              	.LBE1128:
 3714              	.LBE1142:
 3715              	.LBE1147:
 3716              		.loc 8 814 3 view .LVU963
 3717              	.LBB1148:
 3718              	.LBB1143:
ARM GAS  /tmp/ccMmeZ0f.s 			page 67


 3719              	.LBB1129:
 3720              	.LBB1127:
 3721              	.LBB1125:
 3722              	.LBI1125:
 3723              		.loc 5 491 27 view .LVU964
 3724              	.LBB1126:
 3725              		.loc 5 493 3 view .LVU965
 3726              		.syntax unified
 3727              	@ 493 "../ChibiOS/os/common/ext/ARM/CMSIS/Core/Include/cmsis_gcc.h" 1
 3728 0128 86F31188 		MSR basepri, r6
 3729              	@ 0 "" 2
 3730              	.LVL162:
 3731              		.loc 5 493 3 is_stmt 0 view .LVU966
 3732              		.thumb
 3733              		.syntax unified
 3734              	.LBE1126:
 3735              	.LBE1125:
 3736              	.LBE1127:
 3737              	.LBE1129:
 3738              	.LBE1143:
 3739              	.LBE1148:
 3740              		.loc 7 410 35 is_stmt 1 view .LVU967
 3741              		.loc 7 411 21 view .LVU968
 3742              	.LBB1149:
 3743              	.LBB1144:
 3744              		.loc 10 285 3 view .LVU969
 3745              	.LBB1130:
 3746              	.LBI1130:
 3747              		.loc 10 266 20 view .LVU970
 3748              	.LBB1131:
 3749              		.loc 10 268 21 view .LVU971
 3750              		.loc 10 270 3 view .LVU972
 3751              		.loc 10 270 6 is_stmt 0 view .LVU973
 3752 012c 059B     		ldr	r3, [sp, #20]
 3753 012e 002B     		cmp	r3, #0
 3754 0130 2ADD     		ble	.L93
 3755              	.L84:
 3756              	.LVL163:
 3757              		.loc 10 270 6 view .LVU974
 3758              	.LBE1131:
 3759              	.LBE1130:
 3760              		.loc 10 286 3 is_stmt 1 view .LVU975
 3761 0132 FFF7FEFF 		bl	chSchRescheduleS
 3762              	.LVL164:
 3763              		.loc 10 287 3 view .LVU976
 3764              	.LBB1133:
 3765              	.LBI1133:
 3766              		.loc 7 421 20 view .LVU977
 3767              	.LBB1134:
 3768              		.loc 7 423 23 view .LVU978
 3769              		.loc 7 424 34 view .LVU979
 3770              		.loc 7 430 3 view .LVU980
 3771              		.loc 7 430 3 view .LVU981
 3772              		.loc 7 430 3 view .LVU982
 3773              		.loc 7 434 3 view .LVU983
 3774              	.LBB1135:
 3775              	.LBI1135:
ARM GAS  /tmp/ccMmeZ0f.s 			page 68


 3776              		.loc 8 830 27 view .LVU984
 3777              	.LBE1135:
 3778              	.LBE1134:
 3779              	.LBE1133:
 3780              	.LBE1144:
 3781              	.LBE1149:
 3782              		.loc 8 833 3 view .LVU985
 3783              	.LBB1150:
 3784              	.LBB1145:
 3785              	.LBB1140:
 3786              	.LBB1139:
 3787              	.LBB1138:
 3788              	.LBB1136:
 3789              	.LBI1136:
 3790              		.loc 5 491 27 view .LVU986
 3791              	.LBB1137:
 3792              		.loc 5 493 3 view .LVU987
 3793 0136 0025     		movs	r5, #0
 3794              		.syntax unified
 3795              	@ 493 "../ChibiOS/os/common/ext/ARM/CMSIS/Core/Include/cmsis_gcc.h" 1
 3796 0138 85F31188 		MSR basepri, r5
 3797              	@ 0 "" 2
 3798              	.LVL165:
 3799              		.loc 5 493 3 is_stmt 0 view .LVU988
 3800              		.thumb
 3801              		.syntax unified
 3802              	.LBE1137:
 3803              	.LBE1136:
 3804              	.LBE1138:
 3805              	.LBE1139:
 3806              	.LBE1140:
 3807              	.LBE1145:
 3808              	.LBE1150:
 3809              		.loc 1 497 5 is_stmt 1 view .LVU989
 3810              	.LBB1151:
 3811              	.LBI1151:
 3812              		.loc 6 573 20 view .LVU990
 3813              	.LBE1151:
 3814              		.loc 6 575 3 view .LVU991
 3815              	.LBB1159:
 3816              	.LBB1152:
 3817              	.LBI1152:
 3818              		.loc 7 407 20 view .LVU992
 3819              	.LBE1152:
 3820              	.LBE1159:
 3821              		.loc 7 409 3 view .LVU993
 3822              	.LBB1160:
 3823              	.LBB1157:
 3824              	.LBB1153:
 3825              	.LBI1153:
 3826              		.loc 8 806 27 view .LVU994
 3827              	.LBE1153:
 3828              	.LBE1157:
 3829              	.LBE1160:
 3830              		.loc 8 814 3 view .LVU995
 3831              	.LBB1161:
 3832              	.LBB1158:
ARM GAS  /tmp/ccMmeZ0f.s 			page 69


 3833              	.LBB1156:
 3834              	.LBB1154:
 3835              	.LBI1154:
 3836              		.loc 5 491 27 view .LVU996
 3837              	.LBB1155:
 3838              		.loc 5 493 3 view .LVU997
 3839 013c 3026     		movs	r6, #48
 3840              		.syntax unified
 3841              	@ 493 "../ChibiOS/os/common/ext/ARM/CMSIS/Core/Include/cmsis_gcc.h" 1
 3842 013e 86F31188 		MSR basepri, r6
 3843              	@ 0 "" 2
 3844              	.LVL166:
 3845              		.loc 5 493 3 is_stmt 0 view .LVU998
 3846              		.thumb
 3847              		.syntax unified
 3848              	.LBE1155:
 3849              	.LBE1154:
 3850              	.LBE1156:
 3851              	.LBE1158:
 3852              	.LBE1161:
 3853              		.loc 7 410 35 is_stmt 1 view .LVU999
 3854              		.loc 7 411 21 view .LVU1000
 3855              		.loc 1 497 5 view .LVU1001
 3856              	.LBB1162:
 3857              	.LBI1162:
 3858              		.loc 10 300 20 view .LVU1002
 3859              	.LBB1163:
 3860              		.loc 10 302 21 view .LVU1003
 3861              		.loc 10 304 3 view .LVU1004
 3862              		.loc 10 304 3 is_stmt 0 view .LVU1005
 3863              	.LBE1163:
 3864              	.LBE1162:
 3865              		.loc 1 497 5 view .LVU1006
 3866 0142 0598     		ldr	r0, [sp, #20]
 3867 0144 1B49     		ldr	r1, .L94+36
 3868 0146 A842     		cmp	r0, r5
 3869 0148 D4BF     		ite	le
 3870 014a 0020     		movle	r0, #0
 3871 014c 0120     		movgt	r0, #1
 3872 014e FFF7FEFF 		bl	__test_assert
 3873              	.LVL167:
 3874 0152 0446     		mov	r4, r0
 3875 0154 30B1     		cbz	r0, .L85
 3876              		.loc 1 497 5 is_stmt 1 view .LVU1007
 3877              	.LBB1164:
 3878              	.LBI1164:
 3879              		.loc 6 584 20 view .LVU1008
 3880              	.LBE1164:
 3881              		.loc 6 586 3 view .LVU1009
 3882              	.LBB1173:
 3883              	.LBB1165:
 3884              	.LBI1165:
 3885              		.loc 7 421 20 view .LVU1010
 3886              	.LBB1166:
 3887              		.loc 7 423 23 view .LVU1011
 3888              		.loc 7 424 34 view .LVU1012
 3889              		.loc 7 430 3 view .LVU1013
ARM GAS  /tmp/ccMmeZ0f.s 			page 70


 3890              		.loc 7 430 3 view .LVU1014
 3891              		.loc 7 430 3 view .LVU1015
 3892              		.loc 7 434 3 view .LVU1016
 3893              	.LBB1167:
 3894              	.LBI1167:
 3895              		.loc 8 830 27 view .LVU1017
 3896              	.LBE1167:
 3897              	.LBE1166:
 3898              	.LBE1165:
 3899              	.LBE1173:
 3900              		.loc 8 833 3 view .LVU1018
 3901              	.LVL168:
 3902              	.LBB1174:
 3903              	.LBB1172:
 3904              	.LBB1171:
 3905              	.LBB1170:
 3906              	.LBB1168:
 3907              	.LBI1168:
 3908              		.loc 5 491 27 view .LVU1019
 3909              	.LBB1169:
 3910              		.loc 5 493 3 view .LVU1020
 3911              		.syntax unified
 3912              	@ 493 "../ChibiOS/os/common/ext/ARM/CMSIS/Core/Include/cmsis_gcc.h" 1
 3913 0156 85F31188 		MSR basepri, r5
 3914              	@ 0 "" 2
 3915              	.LVL169:
 3916              		.loc 5 493 3 is_stmt 0 view .LVU1021
 3917              		.thumb
 3918              		.syntax unified
 3919              	.LBE1169:
 3920              	.LBE1168:
 3921              	.LBE1170:
 3922              	.LBE1171:
 3923              	.LBE1172:
 3924              	.LBE1174:
 3925              		.loc 1 497 5 is_stmt 1 view .LVU1022
 3926 015a 69E7     		b	.L76
 3927              	.LVL170:
 3928              	.L92:
 3929              	.LBB1175:
 3930              	.LBB1068:
 3931              	.LBB1063:
 3932              	.LBB1054:
 3933              		.loc 10 271 5 view .LVU1023
 3934 015c 03A8     		add	r0, sp, #12
 3935              	.LVL171:
 3936              		.loc 10 271 5 is_stmt 0 view .LVU1024
 3937 015e FFF7FEFF 		bl	chSemSignalI
 3938              	.LVL172:
 3939              		.loc 10 271 5 view .LVU1025
 3940 0162 BBE7     		b	.L81
 3941              	.LVL173:
 3942              	.L85:
 3943              		.loc 10 271 5 view .LVU1026
 3944              	.LBE1054:
 3945              	.LBE1063:
 3946              	.LBE1068:
ARM GAS  /tmp/ccMmeZ0f.s 			page 71


 3947              	.LBE1175:
 3948              		.loc 1 497 5 is_stmt 1 view .LVU1027
 3949              	.LBB1176:
 3950              	.LBI1176:
 3951              		.loc 6 584 20 view .LVU1028
 3952              	.LBE1176:
 3953              		.loc 6 586 3 view .LVU1029
 3954              	.LBB1185:
 3955              	.LBB1177:
 3956              	.LBI1177:
 3957              		.loc 7 421 20 view .LVU1030
 3958              	.LBB1178:
 3959              		.loc 7 423 23 view .LVU1031
 3960              		.loc 7 424 34 view .LVU1032
 3961              		.loc 7 430 3 view .LVU1033
 3962              		.loc 7 430 3 view .LVU1034
 3963              		.loc 7 430 3 view .LVU1035
 3964              		.loc 7 434 3 view .LVU1036
 3965              	.LBB1179:
 3966              	.LBI1179:
 3967              		.loc 8 830 27 view .LVU1037
 3968              	.LBE1179:
 3969              	.LBE1178:
 3970              	.LBE1177:
 3971              	.LBE1185:
 3972              		.loc 8 833 3 view .LVU1038
 3973              	.LBB1186:
 3974              	.LBB1184:
 3975              	.LBB1183:
 3976              	.LBB1182:
 3977              	.LBB1180:
 3978              	.LBI1180:
 3979              		.loc 5 491 27 view .LVU1039
 3980              	.LBB1181:
 3981              		.loc 5 493 3 view .LVU1040
 3982              		.syntax unified
 3983              	@ 493 "../ChibiOS/os/common/ext/ARM/CMSIS/Core/Include/cmsis_gcc.h" 1
 3984 0164 80F31188 		MSR basepri, r0
 3985              	@ 0 "" 2
 3986              	.LVL174:
 3987              		.loc 5 493 3 is_stmt 0 view .LVU1041
 3988              		.thumb
 3989              		.syntax unified
 3990              	.LBE1181:
 3991              	.LBE1180:
 3992              	.LBE1182:
 3993              	.LBE1183:
 3994              	.LBE1184:
 3995              	.LBE1186:
 3996              		.loc 1 497 63 is_stmt 1 view .LVU1042
 3997              		.loc 1 498 5 view .LVU1043
 3998              	.LBB1187:
 3999              	.LBI1187:
 4000              		.loc 6 573 20 view .LVU1044
 4001              	.LBE1187:
 4002              		.loc 6 575 3 view .LVU1045
 4003              	.LBB1195:
ARM GAS  /tmp/ccMmeZ0f.s 			page 72


 4004              	.LBB1188:
 4005              	.LBI1188:
 4006              		.loc 7 407 20 view .LVU1046
 4007              	.LBE1188:
 4008              	.LBE1195:
 4009              		.loc 7 409 3 view .LVU1047
 4010              	.LBB1196:
 4011              	.LBB1193:
 4012              	.LBB1189:
 4013              	.LBI1189:
 4014              		.loc 8 806 27 view .LVU1048
 4015              	.LBE1189:
 4016              	.LBE1193:
 4017              	.LBE1196:
 4018              		.loc 8 814 3 view .LVU1049
 4019              	.LBB1197:
 4020              	.LBB1194:
 4021              	.LBB1192:
 4022              	.LBB1190:
 4023              	.LBI1190:
 4024              		.loc 5 491 27 view .LVU1050
 4025              	.LBB1191:
 4026              		.loc 5 493 3 view .LVU1051
 4027              		.syntax unified
 4028              	@ 493 "../ChibiOS/os/common/ext/ARM/CMSIS/Core/Include/cmsis_gcc.h" 1
 4029 0168 86F31188 		MSR basepri, r6
 4030              	@ 0 "" 2
 4031              	.LVL175:
 4032              		.loc 5 493 3 is_stmt 0 view .LVU1052
 4033              		.thumb
 4034              		.syntax unified
 4035              	.LBE1191:
 4036              	.LBE1190:
 4037              	.LBE1192:
 4038              	.LBE1194:
 4039              	.LBE1197:
 4040              		.loc 7 410 35 is_stmt 1 view .LVU1053
 4041              		.loc 7 411 21 view .LVU1054
 4042              		.loc 1 498 5 view .LVU1055
 4043              	.LBB1198:
 4044              	.LBI1198:
 4045              		.loc 2 189 21 view .LVU1056
 4046              	.LBB1199:
 4047              		.loc 2 191 21 view .LVU1057
 4048              		.loc 2 193 3 view .LVU1058
 4049              		.loc 2 193 3 is_stmt 0 view .LVU1059
 4050              	.LBE1199:
 4051              	.LBE1198:
 4052              		.loc 1 498 5 view .LVU1060
 4053 016c 0598     		ldr	r0, [sp, #20]
 4054 016e 1049     		ldr	r1, .L94+32
 4055 0170 A0F10100 		sub	r0, #1
 4056 0174 B0FA80F0 		clz	r0, r0
 4057 0178 4009     		lsrs	r0, r0, #5
 4058 017a FFF7FEFF 		bl	__test_assert
 4059              	.LVL176:
 4060 017e 0028     		cmp	r0, #0
ARM GAS  /tmp/ccMmeZ0f.s 			page 73


 4061 0180 97D1     		bne	.L91
 4062              		.loc 1 498 5 is_stmt 1 view .LVU1061
 4063              	.LBB1200:
 4064              	.LBI1200:
 4065              		.loc 6 584 20 view .LVU1062
 4066              	.LBE1200:
 4067              		.loc 6 586 3 view .LVU1063
 4068              	.LBB1209:
 4069              	.LBB1201:
 4070              	.LBI1201:
 4071              		.loc 7 421 20 view .LVU1064
 4072              	.LBB1202:
 4073              		.loc 7 423 23 view .LVU1065
 4074              		.loc 7 424 34 view .LVU1066
 4075              		.loc 7 430 3 view .LVU1067
 4076              		.loc 7 430 3 view .LVU1068
 4077              		.loc 7 430 3 view .LVU1069
 4078              		.loc 7 434 3 view .LVU1070
 4079              	.LBB1203:
 4080              	.LBI1203:
 4081              		.loc 8 830 27 view .LVU1071
 4082              	.LBE1203:
 4083              	.LBE1202:
 4084              	.LBE1201:
 4085              	.LBE1209:
 4086              		.loc 8 833 3 view .LVU1072
 4087              	.LVL177:
 4088              	.LBB1210:
 4089              	.LBB1208:
 4090              	.LBB1207:
 4091              	.LBB1206:
 4092              	.LBB1204:
 4093              	.LBI1204:
 4094              		.loc 5 491 27 view .LVU1073
 4095              	.LBB1205:
 4096              		.loc 5 493 3 view .LVU1074
 4097              		.syntax unified
 4098              	@ 493 "../ChibiOS/os/common/ext/ARM/CMSIS/Core/Include/cmsis_gcc.h" 1
 4099 0182 80F31188 		MSR basepri, r0
 4100              	@ 0 "" 2
 4101              	.LVL178:
 4102              		.loc 5 493 3 is_stmt 0 view .LVU1075
 4103              		.thumb
 4104              		.syntax unified
 4105              	.LBE1205:
 4106              	.LBE1204:
 4107              	.LBE1206:
 4108              	.LBE1207:
 4109              	.LBE1208:
 4110              	.LBE1210:
 4111              		.loc 1 498 77 is_stmt 1 view .LVU1076
 4112              		.loc 1 500 3 view .LVU1077
 4113              		.loc 1 500 19 view .LVU1078
 4114 0186 53E7     		b	.L76
 4115              	.LVL179:
 4116              	.L93:
 4117              	.LBB1211:
ARM GAS  /tmp/ccMmeZ0f.s 			page 74


 4118              	.LBB1146:
 4119              	.LBB1141:
 4120              	.LBB1132:
 4121              		.loc 10 271 5 view .LVU1079
 4122 0188 03A8     		add	r0, sp, #12
 4123              	.LVL180:
 4124              		.loc 10 271 5 is_stmt 0 view .LVU1080
 4125 018a FFF7FEFF 		bl	chSemSignalI
 4126              	.LVL181:
 4127              		.loc 10 271 5 view .LVU1081
 4128 018e D0E7     		b	.L84
 4129              	.L95:
 4130              		.align	2
 4131              	.L94:
 4132 0190 00000000 		.word	chtest
 4133 0194 00000000 		.word	.LC14
 4134 0198 00000000 		.word	ch0
 4135 019c 00000000 		.word	wa
 4136 01a0 00000000 		.word	thread4
 4137 01a4 00000000 		.word	threads
 4138 01a8 0C000000 		.word	.LC15
 4139 01ac 20000000 		.word	.LC16
 4140 01b0 2C000000 		.word	.LC17
 4141 01b4 40000000 		.word	.LC18
 4142              	.LBE1132:
 4143              	.LBE1141:
 4144              	.LBE1146:
 4145              	.LBE1211:
 4146              		.cfi_endproc
 4147              	.LFE421:
 4148              		.size	rt_test_007_006_execute, .-rt_test_007_006_execute
 4149              		.global	rt_test_sequence_007
 4150              		.section	.rodata.str1.4,"aMS",%progbits,1
 4151              		.align	2
 4152              	.LC19:
 4153 0000 436F756E 		.ascii	"Counter Semaphores\000"
 4153      74657220 
 4153      53656D61 
 4153      70686F72 
 4153      657300
 4154              		.global	rt_test_sequence_007_array
 4155 0013 00       		.align	2
 4156              	.LC20:
 4157 0014 54657374 		.ascii	"Testing Binary Semaphores special case\000"
 4157      696E6720 
 4157      42696E61 
 4157      72792053 
 4157      656D6170 
 4158 003b 00       		.align	2
 4159              	.LC21:
 4160 003c 54657374 		.ascii	"Testing chSemWaitSignal() functionality\000"
 4160      696E6720 
 4160      63685365 
 4160      6D576169 
 4160      74536967 
 4161              		.align	2
 4162              	.LC22:
ARM GAS  /tmp/ccMmeZ0f.s 			page 75


 4163 0064 54657374 		.ascii	"Testing chSemAddCounterI() functionality\000"
 4163      696E6720 
 4163      63685365 
 4163      6D416464 
 4163      436F756E 
 4164 008d 000000   		.align	2
 4165              	.LC23:
 4166 0090 53656D61 		.ascii	"Semaphore timeout test\000"
 4166      70686F72 
 4166      65207469 
 4166      6D656F75 
 4166      74207465 
 4167 00a7 00       		.align	2
 4168              	.LC24:
 4169 00a8 53656D61 		.ascii	"Semaphore enqueuing test\000"
 4169      70686F72 
 4169      6520656E 
 4169      71756575 
 4169      696E6720 
 4170 00c1 000000   		.align	2
 4171              	.LC25:
 4172 00c4 53656D61 		.ascii	"Semaphore primitives, no state change\000"
 4172      70686F72 
 4172      65207072 
 4172      696D6974 
 4172      69766573 
 4173              		.section	.bss.sem1,"aw",%nobits
 4174              		.align	2
 4175              		.set	.LANCHOR0,. + 0
 4176              		.type	sem1, %object
 4177              		.size	sem1, 12
 4178              	sem1:
 4179 0000 00000000 		.space	12
 4179      00000000 
 4179      00000000 
 4180              		.section	.rodata.rt_test_007_001,"a"
 4181              		.align	2
 4182              		.type	rt_test_007_001, %object
 4183              		.size	rt_test_007_001, 16
 4184              	rt_test_007_001:
 4185 0000 C4000000 		.word	.LC25
 4186 0004 00000000 		.word	rt_test_007_001_setup
 4187 0008 00000000 		.word	rt_test_007_001_teardown
 4188 000c 00000000 		.word	rt_test_007_001_execute
 4189              		.section	.rodata.rt_test_007_002,"a"
 4190              		.align	2
 4191              		.type	rt_test_007_002, %object
 4192              		.size	rt_test_007_002, 16
 4193              	rt_test_007_002:
 4194 0000 A8000000 		.word	.LC24
 4195 0004 00000000 		.word	rt_test_007_002_setup
 4196 0008 00000000 		.word	0
 4197 000c 00000000 		.word	rt_test_007_002_execute
 4198              		.section	.rodata.rt_test_007_003,"a"
 4199              		.align	2
 4200              		.type	rt_test_007_003, %object
 4201              		.size	rt_test_007_003, 16
ARM GAS  /tmp/ccMmeZ0f.s 			page 76


 4202              	rt_test_007_003:
 4203 0000 90000000 		.word	.LC23
 4204 0004 00000000 		.word	rt_test_007_003_setup
 4205 0008 00000000 		.word	0
 4206 000c 00000000 		.word	rt_test_007_003_execute
 4207              		.section	.rodata.rt_test_007_004,"a"
 4208              		.align	2
 4209              		.type	rt_test_007_004, %object
 4210              		.size	rt_test_007_004, 16
 4211              	rt_test_007_004:
 4212 0000 64000000 		.word	.LC22
 4213 0004 00000000 		.word	rt_test_007_004_setup
 4214 0008 00000000 		.word	0
 4215 000c 00000000 		.word	rt_test_007_004_execute
 4216              		.section	.rodata.rt_test_007_005,"a"
 4217              		.align	2
 4218              		.type	rt_test_007_005, %object
 4219              		.size	rt_test_007_005, 16
 4220              	rt_test_007_005:
 4221 0000 3C000000 		.word	.LC21
 4222 0004 00000000 		.word	rt_test_007_005_setup
 4223 0008 00000000 		.word	rt_test_007_005_teardown
 4224 000c 00000000 		.word	rt_test_007_005_execute
 4225              		.section	.rodata.rt_test_007_006,"a"
 4226              		.align	2
 4227              		.type	rt_test_007_006, %object
 4228              		.size	rt_test_007_006, 16
 4229              	rt_test_007_006:
 4230 0000 14000000 		.word	.LC20
 4231 0004 00000000 		.word	0
 4232 0008 00000000 		.word	rt_test_007_006_teardown
 4233 000c 00000000 		.word	rt_test_007_006_execute
 4234              		.section	.rodata.rt_test_sequence_007,"a"
 4235              		.align	2
 4236              		.type	rt_test_sequence_007, %object
 4237              		.size	rt_test_sequence_007, 8
 4238              	rt_test_sequence_007:
 4239 0000 00000000 		.word	.LC19
 4240 0004 00000000 		.word	rt_test_sequence_007_array
 4241              		.section	.rodata.rt_test_sequence_007_array,"a"
 4242              		.align	2
 4243              		.type	rt_test_sequence_007_array, %object
 4244              		.size	rt_test_sequence_007_array, 28
 4245              	rt_test_sequence_007_array:
 4246 0000 00000000 		.word	rt_test_007_001
 4247 0004 00000000 		.word	rt_test_007_002
 4248 0008 00000000 		.word	rt_test_007_003
 4249 000c 00000000 		.word	rt_test_007_004
 4250 0010 00000000 		.word	rt_test_007_005
 4251 0014 00000000 		.word	rt_test_007_006
 4252 0018 00000000 		.word	0
 4253              		.text
 4254              	.Letext0:
 4255              		.file 11 "/opt/gcc-arm-none-eabi/gcc-arm-none-eabi-10.3-2021.07/lib/gcc/arm-none-eabi/10.3.1/inclu
 4256              		.file 12 "/opt/gcc-arm-none-eabi/gcc-arm-none-eabi-10.3-2021.07/arm-none-eabi/include/machine/_def
 4257              		.file 13 "/opt/gcc-arm-none-eabi/gcc-arm-none-eabi-10.3-2021.07/arm-none-eabi/include/sys/_stdint.
 4258              		.file 14 "../ChibiOS/os/common/ports/ARM-common/chtypes.h"
ARM GAS  /tmp/ccMmeZ0f.s 			page 77


 4259              		.file 15 "../ChibiOS/os/rt/include/chearly.h"
 4260              		.file 16 "../ChibiOS/os/rt/include/chobjects.h"
 4261              		.file 17 "../ChibiOS/os/rt/include/chrfcu.h"
 4262              		.file 18 "../ChibiOS/os/rt/include/chdebug.h"
 4263              		.file 19 "../ChibiOS/os/rt/include/chmtx.h"
 4264              		.file 20 "../ChibiOS/os/hal/include/hal_streams.h"
 4265              		.file 21 "../ChibiOS/os/test/include/ch_test.h"
 4266              		.file 22 "../ChibiOS/test/rt/source/test/rt_test_sequence_007.h"
 4267              		.file 23 "../ChibiOS/test/rt/source/test/rt_test_root.h"
 4268              		.file 24 "../ChibiOS/os/rt/include/chschd.h"