ARM GAS  /tmp/ccLmd5D2.s 			page 1


   1              		.cpu cortex-m4
   2              		.eabi_attribute 20, 1
   3              		.eabi_attribute 21, 1
   4              		.eabi_attribute 23, 3
   5              		.eabi_attribute 24, 1
   6              		.eabi_attribute 25, 1
   7              		.eabi_attribute 26, 1
   8              		.eabi_attribute 30, 2
   9              		.eabi_attribute 34, 1
  10              		.eabi_attribute 18, 4
  11              		.file	"rt_test_sequence_009.c"
  12              		.text
  13              	.Ltext0:
  14              		.cfi_sections	.debug_frame
  15              		.section	.text.msg_thread1,"ax",%progbits
  16              		.align	1
  17              		.p2align 4,,15
  18              		.arch armv7e-m
  19              		.syntax unified
  20              		.thumb
  21              		.thumb_func
  22              		.fpu softvfp
  23              		.type	msg_thread1, %function
  24              	msg_thread1:
  25              	.LVL0:
  26              	.LFB404:
  27              		.file 1 "../ChibiOS/test/rt/source/test/rt_test_sequence_009.c"
  28              		.loc 1 49 37 view -0
  29              		.cfi_startproc
  30              		@ args = 0, pretend = 0, frame = 0
  31              		@ frame_needed = 0, uses_anonymous_args = 0
  32              		.loc 1 51 3 view .LVU1
  33              		.loc 1 49 37 is_stmt 0 view .LVU2
  34 0000 10B5     		push	{r4, lr}
  35              		.cfi_def_cfa_offset 8
  36              		.cfi_offset 4, -8
  37              		.cfi_offset 14, -4
  38              		.loc 1 51 3 view .LVU3
  39 0002 4121     		movs	r1, #65
  40              		.loc 1 49 37 view .LVU4
  41 0004 0446     		mov	r4, r0
  42              		.loc 1 51 3 view .LVU5
  43 0006 FFF7FEFF 		bl	chMsgSend
  44              	.LVL1:
  45              		.loc 1 52 3 is_stmt 1 view .LVU6
  46 000a 4221     		movs	r1, #66
  47 000c 2046     		mov	r0, r4
  48 000e FFF7FEFF 		bl	chMsgSend
  49              	.LVL2:
  50              		.loc 1 53 3 view .LVU7
  51 0012 4321     		movs	r1, #67
  52 0014 2046     		mov	r0, r4
  53 0016 FFF7FEFF 		bl	chMsgSend
  54              	.LVL3:
  55              		.loc 1 54 3 view .LVU8
  56 001a 2046     		mov	r0, r4
  57 001c 4421     		movs	r1, #68
ARM GAS  /tmp/ccLmd5D2.s 			page 2


  58              		.loc 1 55 1 is_stmt 0 view .LVU9
  59 001e BDE81040 		pop	{r4, lr}
  60              		.cfi_restore 14
  61              		.cfi_restore 4
  62              		.cfi_def_cfa_offset 0
  63              	.LVL4:
  64              		.loc 1 54 3 view .LVU10
  65 0022 FFF7FEBF 		b	chMsgSend
  66              	.LVL5:
  67              		.loc 1 54 3 view .LVU11
  68              		.cfi_endproc
  69              	.LFE404:
  70              		.size	msg_thread1, .-msg_thread1
  71 0026 00BF     		.section	.rodata.rt_test_009_001_execute.str1.4,"aMS",%progbits,1
  72              		.align	2
  73              	.LC0:
  74 0000 696E7661 		.ascii	"invalid sequence\000"
  74      6C696420 
  74      73657175 
  74      656E6365 
  74      00
  75 0011 000000   		.align	2
  76              	.LC1:
  77 0014 41424344 		.ascii	"ABCD\000"
  77      00
  78              		.section	.text.rt_test_009_001_execute,"ax",%progbits
  79              		.align	1
  80              		.p2align 4,,15
  81              		.syntax unified
  82              		.thumb
  83              		.thumb_func
  84              		.fpu softvfp
  85              		.type	rt_test_009_001_execute, %function
  86              	rt_test_009_001_execute:
  87              	.LFB405:
  88              		.loc 1 75 43 is_stmt 1 view -0
  89              		.cfi_startproc
  90              		@ args = 0, pretend = 0, frame = 0
  91              		@ frame_needed = 0, uses_anonymous_args = 0
  92              		.loc 1 76 3 view .LVU13
  93              		.loc 1 77 3 view .LVU14
  94              		.loc 1 80 3 view .LVU15
  95              		.loc 1 75 43 is_stmt 0 view .LVU16
  96 0000 F0B5     		push	{r4, r5, r6, r7, lr}
  97              		.cfi_def_cfa_offset 20
  98              		.cfi_offset 4, -20
  99              		.cfi_offset 5, -16
 100              		.cfi_offset 6, -12
 101              		.cfi_offset 7, -8
 102              		.cfi_offset 14, -4
 103              	.LBB46:
 104              	.LBB47:
 105              	.LBB48:
 106              	.LBB49:
 107              		.file 2 "../ChibiOS/os/rt/include/chthreads.h"
 108              		.loc 2 343 10 view .LVU17
 109 0002 174B     		ldr	r3, .L8
ARM GAS  /tmp/ccLmd5D2.s 			page 3


 110              	.LBE49:
 111              	.LBE48:
 112              	.LBE47:
 113              	.LBE46:
 114              		.loc 1 80 3 view .LVU18
 115 0004 174C     		ldr	r4, .L8+4
 116              	.LBB56:
 117              	.LBB54:
 118              	.LBB52:
 119              	.LBB50:
 120              		.loc 2 343 10 view .LVU19
 121 0006 D968     		ldr	r1, [r3, #12]
 122              	.LBE50:
 123              	.LBE52:
 124              	.LBE54:
 125              	.LBE56:
 126              		.loc 1 82 18 view .LVU20
 127 0008 1748     		ldr	r0, .L8+8
 128 000a 8A68     		ldr	r2, [r1, #8]
 129 000c 174B     		ldr	r3, .L8+12
 130 000e 0068     		ldr	r0, [r0]
 131              		.loc 1 75 43 view .LVU21
 132 0010 83B0     		sub	sp, sp, #12
 133              		.cfi_def_cfa_offset 32
 134              		.loc 1 80 3 view .LVU22
 135 0012 0125     		movs	r5, #1
 136              		.loc 1 82 18 view .LVU23
 137 0014 0091     		str	r1, [sp]
 138 0016 2A44     		add	r2, r2, r5
 139              		.loc 1 80 3 view .LVU24
 140 0018 2560     		str	r5, [r4]
 141              		.loc 1 82 5 is_stmt 1 view .LVU25
 142              	.LBB57:
 143              	.LBI46:
 144              		.loc 2 354 23 view .LVU26
 145              	.LBB55:
 146              		.loc 2 356 3 view .LVU27
 147              	.LBB53:
 148              	.LBI48:
 149              		.loc 2 341 25 view .LVU28
 150              	.LBB51:
 151              		.loc 2 343 3 view .LVU29
 152              	.LBE51:
 153              	.LBE53:
 154              	.LBE55:
 155              	.LBE57:
 156              		.loc 2 343 3 view .LVU30
 157              		.loc 1 82 18 is_stmt 0 view .LVU31
 158 001a 4FF4B871 		mov	r1, #368
 159 001e FFF7FEFF 		bl	chThdCreateStatic
 160              	.LVL6:
 161              		.loc 1 82 16 view .LVU32
 162 0022 134A     		ldr	r2, .L8+16
 163              		.loc 1 89 3 view .LVU33
 164 0024 0223     		movs	r3, #2
 165 0026 2360     		str	r3, [r4]
 166              		.loc 1 82 16 view .LVU34
ARM GAS  /tmp/ccLmd5D2.s 			page 4


 167 0028 1060     		str	r0, [r2]
 168              		.loc 1 85 3 is_stmt 1 view .LVU35
 169              		.loc 1 85 19 view .LVU36
 170              		.loc 1 89 3 view .LVU37
 171              	.LBB58:
 172              		.loc 1 91 5 view .LVU38
 173              		.loc 1 93 5 view .LVU39
 174              	.LVL7:
 175              		.loc 1 93 17 view .LVU40
 176              	.LBE58:
 177              		.loc 1 89 3 is_stmt 0 view .LVU41
 178 002a 0424     		movs	r4, #4
 179              	.LBB97:
 180              	.LBB59:
 181              	.LBB60:
 182              	.LBB61:
 183              	.LBB62:
 184              	.LBB63:
 185              	.LBB64:
 186              		.file 3 "../ChibiOS/os/common/ext/ARM/CMSIS/Core/Include/cmsis_gcc.h"
 187              		.loc 3 493 3 view .LVU42
 188 002c 3027     		movs	r7, #48
 189              	.LBE64:
 190              	.LBE63:
 191              	.LBE62:
 192              	.LBE61:
 193              	.LBB69:
 194              	.LBB70:
 195              	.LBB71:
 196              	.LBB72:
 197              	.LBB73:
 198 002e 0026     		movs	r6, #0
 199              	.LVL8:
 200              	.L5:
 201              		.loc 3 493 3 view .LVU43
 202              	.LBE73:
 203              	.LBE72:
 204              	.LBE71:
 205              	.LBE70:
 206              	.LBE69:
 207              	.LBE60:
 208              	.LBE59:
 209              		.loc 1 94 7 is_stmt 1 view .LVU44
 210              	.LBB90:
 211              	.LBI59:
 212              		.file 4 "../ChibiOS/os/rt/include/chmsg.h"
 213              		.loc 4 95 25 view .LVU45
 214              	.LBB85:
 215              		.loc 4 96 3 view .LVU46
 216              		.loc 4 98 3 view .LVU47
 217              	.LBB80:
 218              	.LBI61:
 219              		.file 5 "../ChibiOS/os/rt/include/chsys.h"
 220              		.loc 5 407 20 view .LVU48
 221              	.LBE80:
 222              	.LBE85:
 223              	.LBE90:
ARM GAS  /tmp/ccLmd5D2.s 			page 5


 224              	.LBE97:
 225              		.loc 5 409 3 view .LVU49
 226              	.LBB98:
 227              	.LBB91:
 228              	.LBB86:
 229              	.LBB81:
 230              	.LBB67:
 231              	.LBI62:
 232              		.file 6 "../ChibiOS/os/common/ports/ARMv7-M/chcore.h"
 233              		.loc 6 806 27 view .LVU50
 234              	.LBE67:
 235              	.LBE81:
 236              	.LBE86:
 237              	.LBE91:
 238              	.LBE98:
 239              		.loc 6 814 3 view .LVU51
 240              	.LBB99:
 241              	.LBB92:
 242              	.LBB87:
 243              	.LBB82:
 244              	.LBB68:
 245              	.LBB66:
 246              	.LBI63:
 247              		.loc 3 491 27 view .LVU52
 248              	.LBB65:
 249              		.loc 3 493 3 view .LVU53
 250              		.syntax unified
 251              	@ 493 "../ChibiOS/os/common/ext/ARM/CMSIS/Core/Include/cmsis_gcc.h" 1
 252 0030 87F31188 		MSR basepri, r7
 253              	@ 0 "" 2
 254              	.LVL9:
 255              		.loc 3 493 3 is_stmt 0 view .LVU54
 256              		.thumb
 257              		.syntax unified
 258              	.LBE65:
 259              	.LBE66:
 260              	.LBE68:
 261              	.LBE82:
 262              	.LBE87:
 263              	.LBE92:
 264              	.LBE99:
 265              		.loc 5 410 35 is_stmt 1 view .LVU55
 266              		.loc 5 411 21 view .LVU56
 267              	.LBB100:
 268              	.LBB93:
 269              	.LBB88:
 270              		.loc 4 99 3 view .LVU57
 271              		.loc 4 99 8 is_stmt 0 view .LVU58
 272 0034 FFF7FEFF 		bl	chMsgWaitS
 273              	.LVL10:
 274              		.loc 4 100 3 is_stmt 1 view .LVU59
 275              	.LBB83:
 276              	.LBI69:
 277              		.loc 5 421 20 view .LVU60
 278              	.LBB78:
 279              		.loc 5 423 23 view .LVU61
 280              		.loc 5 424 34 view .LVU62
ARM GAS  /tmp/ccLmd5D2.s 			page 6


 281              		.loc 5 430 3 view .LVU63
 282              		.loc 5 430 3 view .LVU64
 283              		.loc 5 430 3 view .LVU65
 284              		.loc 5 434 3 view .LVU66
 285              	.LBB76:
 286              	.LBI71:
 287              		.loc 6 830 27 view .LVU67
 288              	.LBE76:
 289              	.LBE78:
 290              	.LBE83:
 291              	.LBE88:
 292              	.LBE93:
 293              	.LBE100:
 294              		.loc 6 833 3 view .LVU68
 295              	.LBB101:
 296              	.LBB94:
 297              	.LBB89:
 298              	.LBB84:
 299              	.LBB79:
 300              	.LBB77:
 301              	.LBB75:
 302              	.LBI72:
 303              		.loc 3 491 27 view .LVU69
 304              	.LBB74:
 305              		.loc 3 493 3 view .LVU70
 306              		.syntax unified
 307              	@ 493 "../ChibiOS/os/common/ext/ARM/CMSIS/Core/Include/cmsis_gcc.h" 1
 308 0038 86F31188 		MSR basepri, r6
 309              	@ 0 "" 2
 310              	.LVL11:
 311              		.loc 3 493 3 is_stmt 0 view .LVU71
 312              		.thumb
 313              		.syntax unified
 314              	.LBE74:
 315              	.LBE75:
 316              	.LBE77:
 317              	.LBE79:
 318              	.LBE84:
 319              		.loc 4 102 3 is_stmt 1 view .LVU72
 320              		.loc 4 102 3 is_stmt 0 view .LVU73
 321              	.LBE89:
 322              	.LBE94:
 323              		.loc 1 95 7 is_stmt 1 view .LVU74
 324              	.LBB95:
 325              	.LBI95:
 326              		.loc 4 190 21 view .LVU75
 327              	.LBB96:
 328              		.loc 4 192 3 view .LVU76
 329              		.loc 4 192 3 view .LVU77
 330              		.loc 4 192 3 view .LVU78
 331              		.loc 4 194 3 view .LVU79
 332              		.loc 4 194 15 is_stmt 0 view .LVU80
 333 003c 856A     		ldr	r5, [r0, #40]
 334              	.LVL12:
 335              		.loc 4 194 15 view .LVU81
 336              	.LBE96:
 337              	.LBE95:
ARM GAS  /tmp/ccLmd5D2.s 			page 7


 338              		.loc 1 96 7 is_stmt 1 view .LVU82
 339 003e 2946     		mov	r1, r5
 340 0040 FFF7FEFF 		bl	chMsgRelease
 341              	.LVL13:
 342              		.loc 1 97 7 view .LVU83
 343 0044 E8B2     		uxtb	r0, r5
 344 0046 FFF7FEFF 		bl	test_emit_token
 345              	.LVL14:
 346              		.loc 1 93 24 view .LVU84
 347              		.loc 1 93 17 view .LVU85
 348              		.loc 1 93 5 is_stmt 0 view .LVU86
 349 004a 013C     		subs	r4, r4, #1
 350              	.LVL15:
 351              		.loc 1 93 5 view .LVU87
 352 004c F0D1     		bne	.L5
 353              		.loc 1 99 5 is_stmt 1 view .LVU88
 354 004e FFF7FEFF 		bl	test_wait_threads
 355              	.LVL16:
 356              		.loc 1 100 5 view .LVU89
 357 0052 0849     		ldr	r1, .L8+20
 358 0054 0848     		ldr	r0, .L8+24
 359              	.LBE101:
 360              		.loc 1 103 1 is_stmt 0 view .LVU90
 361 0056 03B0     		add	sp, sp, #12
 362              		.cfi_def_cfa_offset 20
 363              		@ sp needed
 364 0058 BDE8F040 		pop	{r4, r5, r6, r7, lr}
 365              		.cfi_restore 14
 366              		.cfi_restore 7
 367              		.cfi_restore 6
 368              		.cfi_restore 5
 369              		.cfi_restore 4
 370              		.cfi_def_cfa_offset 0
 371              	.LVL17:
 372              	.LBB102:
 373              		.loc 1 100 5 view .LVU91
 374 005c FFF7FEBF 		b	__test_assert_sequence
 375              	.LVL18:
 376              	.L9:
 377              		.align	2
 378              	.L8:
 379 0060 00000000 		.word	ch0
 380 0064 00000000 		.word	chtest
 381 0068 00000000 		.word	wa
 382 006c 00000000 		.word	msg_thread1
 383 0070 00000000 		.word	threads
 384 0074 00000000 		.word	.LC0
 385 0078 14000000 		.word	.LC1
 386              	.LBE102:
 387              		.cfi_endproc
 388              	.LFE405:
 389              		.size	rt_test_009_001_execute, .-rt_test_009_001_execute
 390              		.global	rt_test_sequence_009
 391              		.section	.rodata.str1.4,"aMS",%progbits,1
 392              		.align	2
 393              	.LC2:
 394 0000 53796E63 		.ascii	"Synchronous Messages\000"
ARM GAS  /tmp/ccLmd5D2.s 			page 8


 394      68726F6E 
 394      6F757320 
 394      4D657373 
 394      61676573 
 395              		.global	rt_test_sequence_009_array
 396 0015 000000   		.align	2
 397              	.LC3:
 398 0018 4D657373 		.ascii	"Messages Server loop\000"
 398      61676573 
 398      20536572 
 398      76657220 
 398      6C6F6F70 
 399              		.section	.rodata.rt_test_009_001,"a"
 400              		.align	2
 401              		.type	rt_test_009_001, %object
 402              		.size	rt_test_009_001, 16
 403              	rt_test_009_001:
 404 0000 18000000 		.word	.LC3
 405 0004 00000000 		.word	0
 406 0008 00000000 		.word	0
 407 000c 00000000 		.word	rt_test_009_001_execute
 408              		.section	.rodata.rt_test_sequence_009,"a"
 409              		.align	2
 410              		.type	rt_test_sequence_009, %object
 411              		.size	rt_test_sequence_009, 8
 412              	rt_test_sequence_009:
 413 0000 00000000 		.word	.LC2
 414 0004 00000000 		.word	rt_test_sequence_009_array
 415              		.section	.rodata.rt_test_sequence_009_array,"a"
 416              		.align	2
 417              		.type	rt_test_sequence_009_array, %object
 418              		.size	rt_test_sequence_009_array, 8
 419              	rt_test_sequence_009_array:
 420 0000 00000000 		.word	rt_test_009_001
 421 0004 00000000 		.word	0
 422              		.text
 423              	.Letext0:
 424              		.file 7 "/opt/gcc-arm-none-eabi/gcc-arm-none-eabi-10.3-2021.07/lib/gcc/arm-none-eabi/10.3.1/includ
 425              		.file 8 "/opt/gcc-arm-none-eabi/gcc-arm-none-eabi-10.3-2021.07/arm-none-eabi/include/machine/_defa
 426              		.file 9 "/opt/gcc-arm-none-eabi/gcc-arm-none-eabi-10.3-2021.07/arm-none-eabi/include/sys/_stdint.h
 427              		.file 10 "../ChibiOS/os/common/ports/ARM-common/chtypes.h"
 428              		.file 11 "../ChibiOS/os/rt/include/chearly.h"
 429              		.file 12 "../ChibiOS/os/rt/include/chobjects.h"
 430              		.file 13 "../ChibiOS/os/rt/include/chrfcu.h"
 431              		.file 14 "../ChibiOS/os/rt/include/chdebug.h"
 432              		.file 15 "../ChibiOS/os/rt/include/chtime.h"
 433              		.file 16 "../ChibiOS/os/rt/include/chlists.h"
 434              		.file 17 "../ChibiOS/os/rt/include/chsem.h"
 435              		.file 18 "../ChibiOS/os/rt/include/chmtx.h"
 436              		.file 19 "../ChibiOS/os/hal/include/hal_streams.h"
 437              		.file 20 "../ChibiOS/os/test/include/ch_test.h"
 438              		.file 21 "../ChibiOS/test/rt/source/test/rt_test_sequence_009.h"
 439              		.file 22 "../ChibiOS/test/rt/source/test/rt_test_root.h"