ARM GAS  /tmp/ccAplwQ4.s 			page 1


   1              		.cpu cortex-m4
   2              		.eabi_attribute 20, 1
   3              		.eabi_attribute 21, 1
   4              		.eabi_attribute 23, 3
   5              		.eabi_attribute 24, 1
   6              		.eabi_attribute 25, 1
   7              		.eabi_attribute 26, 1
   8              		.eabi_attribute 30, 2
   9              		.eabi_attribute 34, 1
  10              		.eabi_attribute 18, 4
  11              		.file	"rt_test_sequence_004.c"
  12              		.text
  13              	.Ltext0:
  14              		.cfi_sections	.debug_frame
  15              		.section	.rodata.rt_test_004_001_execute.str1.4,"aMS",%progbits,1
  16              		.align	2
  17              	.LC0:
  18 0000 6E6F7420 		.ascii	"not monotonic\000"
  18      6D6F6E6F 
  18      746F6E69 
  18      6300
  19              		.section	.text.rt_test_004_001_execute,"ax",%progbits
  20              		.align	1
  21              		.p2align 4,,15
  22              		.arch armv7e-m
  23              		.syntax unified
  24              		.thumb
  25              		.thumb_func
  26              		.fpu softvfp
  27              		.type	rt_test_004_001_execute, %function
  28              	rt_test_004_001_execute:
  29              	.LFB404:
  30              		.file 1 "../ChibiOS/test/rt/source/test/rt_test_sequence_004.c"
  31              		.loc 1 58 43 view -0
  32              		.cfi_startproc
  33              		@ args = 0, pretend = 0, frame = 0
  34              		@ frame_needed = 0, uses_anonymous_args = 0
  35              		.loc 1 61 3 view .LVU1
  36              		.loc 1 58 43 is_stmt 0 view .LVU2
  37 0000 2DE9F843 		push	{r3, r4, r5, r6, r7, r8, r9, lr}
  38              		.cfi_def_cfa_offset 32
  39              		.cfi_offset 3, -32
  40              		.cfi_offset 4, -28
  41              		.cfi_offset 5, -24
  42              		.cfi_offset 6, -20
  43              		.cfi_offset 7, -16
  44              		.cfi_offset 8, -12
  45              		.cfi_offset 9, -8
  46              		.cfi_offset 14, -4
  47              		.loc 1 61 3 view .LVU3
  48 0004 184B     		ldr	r3, .L8
  49 0006 0122     		movs	r2, #1
  50 0008 1A60     		str	r2, [r3]
  51              	.LBB64:
  52              		.loc 1 63 5 is_stmt 1 view .LVU4
  53              		.loc 1 64 5 view .LVU5
  54              		.loc 1 66 5 view .LVU6
ARM GAS  /tmp/ccAplwQ4.s 			page 2


  55              	.LBB65:
  56              	.LBI65:
  57              		.file 2 "../ChibiOS/os/rt/include/chvt.h"
  58              		.loc 2 474 30 view .LVU7
  59              	.LBB66:
  60              		.loc 2 475 3 view .LVU8
  61              		.loc 2 477 3 view .LVU9
  62              	.LBB67:
  63              	.LBI67:
  64              		.file 3 "../ChibiOS/os/rt/include/chsys.h"
  65              		.loc 3 407 20 view .LVU10
  66              	.LBE67:
  67              	.LBE66:
  68              	.LBE65:
  69              	.LBE64:
  70              		.loc 3 409 3 view .LVU11
  71              	.LBB136:
  72              	.LBB91:
  73              	.LBB87:
  74              	.LBB72:
  75              	.LBB68:
  76              	.LBI68:
  77              		.file 4 "../ChibiOS/os/common/ports/ARMv7-M/chcore.h"
  78              		.loc 4 806 27 view .LVU12
  79              	.LBE68:
  80              	.LBE72:
  81              	.LBE87:
  82              	.LBE91:
  83              	.LBE136:
  84              		.loc 4 814 3 view .LVU13
  85              	.LVL0:
  86              	.LBB137:
  87              	.LBB92:
  88              	.LBB88:
  89              	.LBB73:
  90              	.LBB71:
  91              	.LBB69:
  92              	.LBI69:
  93              		.file 5 "../ChibiOS/os/common/ext/ARM/CMSIS/Core/Include/cmsis_gcc.h"
  94              		.loc 5 491 27 view .LVU14
  95              	.LBB70:
  96              		.loc 5 493 3 view .LVU15
  97 000a 4FF03008 		mov	r8, #48
  98              		.syntax unified
  99              	@ 493 "../ChibiOS/os/common/ext/ARM/CMSIS/Core/Include/cmsis_gcc.h" 1
 100 000e 88F31188 		MSR basepri, r8
 101              	@ 0 "" 2
 102              	.LVL1:
 103              		.loc 5 493 3 is_stmt 0 view .LVU16
 104              		.thumb
 105              		.syntax unified
 106              	.LBE70:
 107              	.LBE69:
 108              	.LBE71:
 109              	.LBE73:
 110              	.LBE88:
 111              	.LBE92:
ARM GAS  /tmp/ccAplwQ4.s 			page 3


 112              	.LBE137:
 113              		.loc 3 410 35 is_stmt 1 view .LVU17
 114              		.loc 3 411 21 view .LVU18
 115              	.LBB138:
 116              	.LBB93:
 117              	.LBB89:
 118              		.loc 2 479 3 view .LVU19
 119              		.loc 2 479 11 is_stmt 0 view .LVU20
 120 0012 FFF7FEFF 		bl	chVTGetTimeStampI
 121              	.LVL2:
 122              	.LBB74:
 123              	.LBB75:
 124              	.LBB76:
 125              	.LBB77:
 126              	.LBB78:
 127              		.loc 5 493 3 view .LVU21
 128 0016 0027     		movs	r7, #0
 129              	.LBE78:
 130              	.LBE77:
 131              	.LBE76:
 132              	.LBE75:
 133              	.LBE74:
 134              		.loc 2 479 11 view .LVU22
 135 0018 0546     		mov	r5, r0
 136 001a 0C46     		mov	r4, r1
 137              	.LVL3:
 138              		.loc 2 481 3 is_stmt 1 view .LVU23
 139              	.LBB85:
 140              	.LBI74:
 141              		.loc 3 421 20 view .LVU24
 142              	.LBB83:
 143              		.loc 3 423 23 view .LVU25
 144              		.loc 3 424 34 view .LVU26
 145              		.loc 3 430 3 view .LVU27
 146              		.loc 3 430 3 view .LVU28
 147              		.loc 3 430 3 view .LVU29
 148              		.loc 3 434 3 view .LVU30
 149              	.LBB81:
 150              	.LBI76:
 151              		.loc 4 830 27 view .LVU31
 152              	.LBE81:
 153              	.LBE83:
 154              	.LBE85:
 155              	.LBE89:
 156              	.LBE93:
 157              	.LBE138:
 158              		.loc 4 833 3 view .LVU32
 159              	.LBB139:
 160              	.LBB94:
 161              	.LBB90:
 162              	.LBB86:
 163              	.LBB84:
 164              	.LBB82:
 165              	.LBB80:
 166              	.LBI77:
 167              		.loc 5 491 27 view .LVU33
 168              	.LBB79:
ARM GAS  /tmp/ccAplwQ4.s 			page 4


 169              		.loc 5 493 3 view .LVU34
 170              		.syntax unified
 171              	@ 493 "../ChibiOS/os/common/ext/ARM/CMSIS/Core/Include/cmsis_gcc.h" 1
 172 001c 87F31188 		MSR basepri, r7
 173              	@ 0 "" 2
 174              	.LVL4:
 175              		.loc 5 493 3 is_stmt 0 view .LVU35
 176              		.thumb
 177              		.syntax unified
 178              	.LBE79:
 179              	.LBE80:
 180              	.LBE82:
 181              	.LBE84:
 182              	.LBE86:
 183              		.loc 2 483 3 is_stmt 1 view .LVU36
 184              		.loc 2 483 3 is_stmt 0 view .LVU37
 185              	.LBE90:
 186              	.LBE94:
 187              		.loc 1 67 5 is_stmt 1 view .LVU38
 188              		.loc 1 67 13 is_stmt 0 view .LVU39
 189 0020 FFF7FEFF 		bl	test_wait_tick
 190              	.LVL5:
 191              		.loc 1 71 7 view .LVU40
 192 0024 DFF84490 		ldr	r9, .L8+4
 193              		.loc 1 67 13 view .LVU41
 194 0028 0646     		mov	r6, r0
 195              	.LVL6:
 196              		.loc 1 68 5 is_stmt 1 view .LVU42
 197              		.loc 1 68 5 is_stmt 0 view .LVU43
 198              	.LBE139:
 199              		.file 6 "../ChibiOS/os/rt/include/chtime.h"
 200              		.loc 6 449 3 is_stmt 1 view .LVU44
 201              		.loc 6 449 3 is_stmt 0 view .LVU45
 202 002a 06E0     		b	.L3
 203              	.LVL7:
 204              	.L7:
 205              	.LBB140:
 206              	.LBB95:
 207              	.LBB96:
 208              	.LBB97:
 209              	.LBB98:
 210              		.file 7 "../ChibiOS/os/hal/osal/rt-nil/chcore_timer.h"
 211              		.loc 7 113 10 discriminator 2 view .LVU46
 212 002c FFF7FEFF 		bl	stGetCounter
 213              	.LVL8:
 214              		.loc 7 113 10 discriminator 2 view .LVU47
 215              	.LBE98:
 216              	.LBE97:
 217              	.LBE96:
 218              	.LBB101:
 219              	.LBI101:
 220              		.loc 6 484 20 is_stmt 1 discriminator 2 view .LVU48
 221              	.LBB102:
 222              		.loc 6 488 3 discriminator 2 view .LVU49
 223              		.loc 6 488 3 is_stmt 0 discriminator 2 view .LVU50
 224              	.LBE102:
 225              	.LBE101:
ARM GAS  /tmp/ccAplwQ4.s 			page 5


 226              	.LBE95:
 227              		.loc 1 76 5 discriminator 2 view .LVU51
 228 0030 42F20F73 		movw	r3, #9999
 229              	.LBB107:
 230              	.LBB104:
 231              	.LBB103:
 232              		.loc 6 488 17 discriminator 2 view .LVU52
 233 0034 801B     		subs	r0, r0, r6
 234              	.LBE103:
 235              	.LBE104:
 236              	.LBE107:
 237              		.loc 1 76 5 discriminator 2 view .LVU53
 238 0036 9842     		cmp	r0, r3
 239 0038 14D8     		bhi	.L1
 240              	.LVL9:
 241              	.L3:
 242              		.loc 1 69 5 is_stmt 1 view .LVU54
 243              		.loc 1 70 7 view .LVU55
 244              	.LBB108:
 245              	.LBI108:
 246              		.loc 2 474 30 view .LVU56
 247              	.LBB109:
 248              		.loc 2 475 3 view .LVU57
 249              		.loc 2 477 3 view .LVU58
 250              	.LBB110:
 251              	.LBI110:
 252              		.loc 3 407 20 view .LVU59
 253              	.LBE110:
 254              	.LBE109:
 255              	.LBE108:
 256              	.LBE140:
 257              		.loc 3 409 3 view .LVU60
 258              	.LBB141:
 259              	.LBB129:
 260              	.LBB125:
 261              	.LBB115:
 262              	.LBB111:
 263              	.LBI111:
 264              		.loc 4 806 27 view .LVU61
 265              	.LBE111:
 266              	.LBE115:
 267              	.LBE125:
 268              	.LBE129:
 269              	.LBE141:
 270              		.loc 4 814 3 view .LVU62
 271              	.LBB142:
 272              	.LBB130:
 273              	.LBB126:
 274              	.LBB116:
 275              	.LBB114:
 276              	.LBB112:
 277              	.LBI112:
 278              		.loc 5 491 27 view .LVU63
 279              	.LBB113:
 280              		.loc 5 493 3 view .LVU64
 281              		.syntax unified
 282              	@ 493 "../ChibiOS/os/common/ext/ARM/CMSIS/Core/Include/cmsis_gcc.h" 1
ARM GAS  /tmp/ccAplwQ4.s 			page 6


 283 003a 88F31188 		MSR basepri, r8
 284              	@ 0 "" 2
 285              	.LVL10:
 286              		.loc 5 493 3 is_stmt 0 view .LVU65
 287              		.thumb
 288              		.syntax unified
 289              	.LBE113:
 290              	.LBE112:
 291              	.LBE114:
 292              	.LBE116:
 293              	.LBE126:
 294              	.LBE130:
 295              	.LBE142:
 296              		.loc 3 410 35 is_stmt 1 view .LVU66
 297              		.loc 3 411 21 view .LVU67
 298              	.LBB143:
 299              	.LBB131:
 300              	.LBB127:
 301              		.loc 2 479 3 view .LVU68
 302              		.loc 2 479 11 is_stmt 0 view .LVU69
 303 003e FFF7FEFF 		bl	chVTGetTimeStampI
 304              	.LVL11:
 305 0042 2A46     		mov	r2, r5
 306 0044 2346     		mov	r3, r4
 307 0046 0546     		mov	r5, r0
 308              	.LVL12:
 309              		.loc 2 479 11 view .LVU70
 310 0048 0C46     		mov	r4, r1
 311              	.LVL13:
 312              		.loc 2 481 3 is_stmt 1 view .LVU71
 313              	.LBB117:
 314              	.LBI117:
 315              		.loc 3 421 20 view .LVU72
 316              	.LBB118:
 317              		.loc 3 423 23 view .LVU73
 318              		.loc 3 424 34 view .LVU74
 319              		.loc 3 430 3 view .LVU75
 320              		.loc 3 430 3 view .LVU76
 321              		.loc 3 430 3 view .LVU77
 322              		.loc 3 434 3 view .LVU78
 323              	.LBB119:
 324              	.LBI119:
 325              		.loc 4 830 27 view .LVU79
 326              	.LBE119:
 327              	.LBE118:
 328              	.LBE117:
 329              	.LBE127:
 330              	.LBE131:
 331              	.LBE143:
 332              		.loc 4 833 3 view .LVU80
 333              	.LBB144:
 334              	.LBB132:
 335              	.LBB128:
 336              	.LBB124:
 337              	.LBB123:
 338              	.LBB122:
 339              	.LBB120:
ARM GAS  /tmp/ccAplwQ4.s 			page 7


 340              	.LBI120:
 341              		.loc 5 491 27 view .LVU81
 342              	.LBB121:
 343              		.loc 5 493 3 view .LVU82
 344              		.syntax unified
 345              	@ 493 "../ChibiOS/os/common/ext/ARM/CMSIS/Core/Include/cmsis_gcc.h" 1
 346 004a 87F31188 		MSR basepri, r7
 347              	@ 0 "" 2
 348              	.LVL14:
 349              		.loc 5 493 3 is_stmt 0 view .LVU83
 350              		.thumb
 351              		.syntax unified
 352              	.LBE121:
 353              	.LBE120:
 354              	.LBE122:
 355              	.LBE123:
 356              	.LBE124:
 357              		.loc 2 483 3 is_stmt 1 view .LVU84
 358              		.loc 2 483 3 is_stmt 0 view .LVU85
 359              	.LBE128:
 360              	.LBE132:
 361              		.loc 1 71 7 is_stmt 1 view .LVU86
 362 004e 9042     		cmp	r0, r2
 363 0050 71EB0303 		sbcs	r3, r1, r3
 364              	.LVL15:
 365              		.loc 1 71 7 is_stmt 0 view .LVU87
 366 0054 2CBF     		ite	cs
 367 0056 0120     		movcs	r0, #1
 368              	.LVL16:
 369              		.loc 1 71 7 view .LVU88
 370 0058 0020     		movcc	r0, #0
 371 005a 4946     		mov	r1, r9
 372              	.LVL17:
 373              		.loc 1 71 7 view .LVU89
 374 005c FFF7FEFF 		bl	__test_assert
 375              	.LVL18:
 376              		.loc 1 71 48 is_stmt 1 view .LVU90
 377              		.loc 1 72 7 view .LVU91
 378              		.loc 1 76 13 view .LVU92
 379              	.LBB133:
 380              	.LBI95:
 381              		.loc 2 177 20 view .LVU93
 382              	.LBE133:
 383              	.LBE144:
 384              		.loc 2 179 3 view .LVU94
 385              	.LBB145:
 386              	.LBB134:
 387              	.LBB105:
 388              	.LBI96:
 389              		.loc 2 122 25 view .LVU95
 390              	.LBE105:
 391              	.LBE134:
 392              	.LBE145:
 393              		.loc 2 127 3 view .LVU96
 394              	.LBB146:
 395              	.LBB135:
 396              	.LBB106:
ARM GAS  /tmp/ccAplwQ4.s 			page 8


 397              	.LBB100:
 398              	.LBI97:
 399              		.loc 7 111 25 view .LVU97
 400              	.LBB99:
 401              		.loc 7 113 3 view .LVU98
 402              	.LBE99:
 403              	.LBE100:
 404              	.LBE106:
 405              	.LBE135:
 406              		.loc 1 71 7 is_stmt 0 view .LVU99
 407 0060 0028     		cmp	r0, #0
 408 0062 E3D0     		beq	.L7
 409              	.LVL19:
 410              	.L1:
 411              		.loc 1 71 7 view .LVU100
 412              	.LBE146:
 413              		.loc 1 79 1 view .LVU101
 414 0064 BDE8F883 		pop	{r3, r4, r5, r6, r7, r8, r9, pc}
 415              	.LVL20:
 416              	.L9:
 417              		.loc 1 79 1 view .LVU102
 418              		.align	2
 419              	.L8:
 420 0068 00000000 		.word	chtest
 421 006c 00000000 		.word	.LC0
 422              		.cfi_endproc
 423              	.LFE404:
 424              		.size	rt_test_004_001_execute, .-rt_test_004_001_execute
 425              		.global	rt_test_sequence_004
 426              		.section	.rodata.str1.4,"aMS",%progbits,1
 427              		.align	2
 428              	.LC1:
 429 0000 54696D65 		.ascii	"Time Stamps Functionality\000"
 429      20537461 
 429      6D707320 
 429      46756E63 
 429      74696F6E 
 430              		.global	rt_test_sequence_004_array
 431 001a 0000     		.align	2
 432              	.LC2:
 433 001c 54696D65 		.ascii	"Time Stamps functionality\000"
 433      20537461 
 433      6D707320 
 433      66756E63 
 433      74696F6E 
 434              		.section	.rodata.rt_test_004_001,"a"
 435              		.align	2
 436              		.type	rt_test_004_001, %object
 437              		.size	rt_test_004_001, 16
 438              	rt_test_004_001:
 439 0000 1C000000 		.word	.LC2
 440 0004 00000000 		.word	0
 441 0008 00000000 		.word	0
 442 000c 00000000 		.word	rt_test_004_001_execute
 443              		.section	.rodata.rt_test_sequence_004,"a"
 444              		.align	2
 445              		.type	rt_test_sequence_004, %object
ARM GAS  /tmp/ccAplwQ4.s 			page 9


 446              		.size	rt_test_sequence_004, 8
 447              	rt_test_sequence_004:
 448 0000 00000000 		.word	.LC1
 449 0004 00000000 		.word	rt_test_sequence_004_array
 450              		.section	.rodata.rt_test_sequence_004_array,"a"
 451              		.align	2
 452              		.type	rt_test_sequence_004_array, %object
 453              		.size	rt_test_sequence_004_array, 8
 454              	rt_test_sequence_004_array:
 455 0000 00000000 		.word	rt_test_004_001
 456 0004 00000000 		.word	0
 457              		.text
 458              	.Letext0:
 459              		.file 8 "/opt/gcc-arm-none-eabi/gcc-arm-none-eabi-10.3-2021.07/lib/gcc/arm-none-eabi/10.3.1/includ
 460              		.file 9 "/opt/gcc-arm-none-eabi/gcc-arm-none-eabi-10.3-2021.07/arm-none-eabi/include/machine/_defa
 461              		.file 10 "/opt/gcc-arm-none-eabi/gcc-arm-none-eabi-10.3-2021.07/arm-none-eabi/include/sys/_stdint.
 462              		.file 11 "../ChibiOS/os/rt/include/chearly.h"
 463              		.file 12 "../ChibiOS/os/hal/include/hal_streams.h"
 464              		.file 13 "../ChibiOS/os/test/include/ch_test.h"
 465              		.file 14 "../ChibiOS/test/rt/source/test/rt_test_sequence_004.h"
 466              		.file 15 "../ChibiOS/os/hal/include/hal_st.h"
 467              		.file 16 "../ChibiOS/test/rt/source/test/rt_test_root.h"