ARM GAS  /tmp/cctCj4Ha.s 			page 1


   1              		.cpu cortex-m4
   2              		.eabi_attribute 20, 1
   3              		.eabi_attribute 21, 1
   4              		.eabi_attribute 23, 3
   5              		.eabi_attribute 24, 1
   6              		.eabi_attribute 25, 1
   7              		.eabi_attribute 26, 1
   8              		.eabi_attribute 30, 2
   9              		.eabi_attribute 34, 1
  10              		.eabi_attribute 18, 4
  11              		.file	"rt_test_sequence_006.c"
  12              		.text
  13              	.Ltext0:
  14              		.cfi_sections	.debug_frame
  15              		.section	.text.rt_test_006_001_setup,"ax",%progbits
  16              		.align	1
  17              		.p2align 4,,15
  18              		.arch armv7e-m
  19              		.syntax unified
  20              		.thumb
  21              		.thumb_func
  22              		.fpu softvfp
  23              		.type	rt_test_006_001_setup, %function
  24              	rt_test_006_001_setup:
  25              	.LFB405:
  26              		.file 1 "../ChibiOS/test/rt/source/test/rt_test_sequence_006.c"
  27              		.loc 1 73 41 view -0
  28              		.cfi_startproc
  29              		@ args = 0, pretend = 0, frame = 0
  30              		@ frame_needed = 0, uses_anonymous_args = 0
  31              		@ link register save eliminated.
  32              		.loc 1 74 3 view .LVU1
  33              		.loc 1 74 7 is_stmt 0 view .LVU2
  34 0000 014B     		ldr	r3, .L3
  35 0002 0022     		movs	r2, #0
  36 0004 1A60     		str	r2, [r3]
  37              		.loc 1 75 1 view .LVU3
  38 0006 7047     		bx	lr
  39              	.L4:
  40              		.align	2
  41              	.L3:
  42 0008 00000000 		.word	.LANCHOR0
  43              		.cfi_endproc
  44              	.LFE405:
  45              		.size	rt_test_006_001_setup, .-rt_test_006_001_setup
  46              		.section	.text.thread1,"ax",%progbits
  47              		.align	1
  48              		.p2align 4,,15
  49              		.syntax unified
  50              		.thumb
  51              		.thumb_func
  52              		.fpu softvfp
  53              		.type	thread1, %function
  54              	thread1:
  55              	.LVL0:
  56              	.LFB404:
  57              		.loc 1 43 33 is_stmt 1 view -0
ARM GAS  /tmp/cctCj4Ha.s 			page 2


  58              		.cfi_startproc
  59              		@ args = 0, pretend = 0, frame = 0
  60              		@ frame_needed = 0, uses_anonymous_args = 0
  61              		.loc 1 45 3 view .LVU5
  62              	.LBB60:
  63              	.LBI60:
  64              		.file 2 "../ChibiOS/os/rt/include/chsys.h"
  65              		.loc 2 407 20 view .LVU6
  66              	.LBE60:
  67              		.loc 2 409 3 view .LVU7
  68              	.LBB71:
  69              	.LBB61:
  70              	.LBI61:
  71              		.file 3 "../ChibiOS/os/common/ports/ARMv7-M/chcore.h"
  72              		.loc 3 806 27 view .LVU8
  73              	.LBE61:
  74              	.LBE71:
  75              		.loc 3 814 3 view .LVU9
  76              	.LBB72:
  77              	.LBB68:
  78              	.LBB62:
  79              	.LBI62:
  80              		.file 4 "../ChibiOS/os/common/ext/ARM/CMSIS/Core/Include/cmsis_gcc.h"
  81              		.loc 4 491 27 view .LVU10
  82              	.LBB63:
  83              		.loc 4 493 3 view .LVU11
  84              	.LBE63:
  85              	.LBE62:
  86              	.LBE68:
  87              	.LBE72:
  88              		.loc 1 43 33 is_stmt 0 view .LVU12
  89 0000 10B5     		push	{r4, lr}
  90              		.cfi_def_cfa_offset 8
  91              		.cfi_offset 4, -8
  92              		.cfi_offset 14, -4
  93              	.LBB73:
  94              	.LBB69:
  95              	.LBB66:
  96              	.LBB64:
  97              		.loc 4 493 3 view .LVU13
  98 0002 3023     		movs	r3, #48
  99              	.LBE64:
 100              	.LBE66:
 101              	.LBE69:
 102              	.LBE73:
 103              		.loc 1 43 33 view .LVU14
 104 0004 0446     		mov	r4, r0
 105              	.LBB74:
 106              	.LBB70:
 107              	.LBB67:
 108              	.LBB65:
 109              		.loc 4 493 3 view .LVU15
 110              		.syntax unified
 111              	@ 493 "../ChibiOS/os/common/ext/ARM/CMSIS/Core/Include/cmsis_gcc.h" 1
 112 0006 83F31188 		MSR basepri, r3
 113              	@ 0 "" 2
 114              	.LVL1:
ARM GAS  /tmp/cctCj4Ha.s 			page 3


 115              		.loc 4 493 3 view .LVU16
 116              		.thumb
 117              		.syntax unified
 118              	.LBE65:
 119              	.LBE67:
 120              	.LBE70:
 121              	.LBE74:
 122              		.loc 2 410 35 is_stmt 1 view .LVU17
 123              		.loc 2 411 21 view .LVU18
 124              		.loc 1 46 3 view .LVU19
 125 000a 0748     		ldr	r0, .L7
 126              	.LVL2:
 127              		.loc 1 46 3 is_stmt 0 view .LVU20
 128 000c 0021     		movs	r1, #0
 129 000e FFF7FEFF 		bl	chThdResumeI
 130              	.LVL3:
 131              		.loc 1 47 3 is_stmt 1 view .LVU21
 132 0012 FFF7FEFF 		bl	chSchRescheduleS
 133              	.LVL4:
 134              		.loc 1 48 3 view .LVU22
 135              	.LBB75:
 136              	.LBI75:
 137              		.loc 2 421 20 view .LVU23
 138              	.LBB76:
 139              		.loc 2 423 23 view .LVU24
 140              		.loc 2 424 34 view .LVU25
 141              		.loc 2 430 3 view .LVU26
 142              		.loc 2 430 3 view .LVU27
 143              		.loc 2 430 3 view .LVU28
 144              		.loc 2 434 3 view .LVU29
 145              	.LBB77:
 146              	.LBI77:
 147              		.loc 3 830 27 view .LVU30
 148              	.LBE77:
 149              	.LBE76:
 150              	.LBE75:
 151              		.loc 3 833 3 view .LVU31
 152              	.LBB82:
 153              	.LBB81:
 154              	.LBB80:
 155              	.LBB78:
 156              	.LBI78:
 157              		.loc 4 491 27 view .LVU32
 158              	.LBB79:
 159              		.loc 4 493 3 view .LVU33
 160 0016 0023     		movs	r3, #0
 161              		.syntax unified
 162              	@ 493 "../ChibiOS/os/common/ext/ARM/CMSIS/Core/Include/cmsis_gcc.h" 1
 163 0018 83F31188 		MSR basepri, r3
 164              	@ 0 "" 2
 165              	.LVL5:
 166              		.loc 4 493 3 is_stmt 0 view .LVU34
 167              		.thumb
 168              		.syntax unified
 169              	.LBE79:
 170              	.LBE78:
 171              	.LBE80:
ARM GAS  /tmp/cctCj4Ha.s 			page 4


 172              	.LBE81:
 173              	.LBE82:
 174              		.loc 1 49 3 is_stmt 1 view .LVU35
 175 001c 2078     		ldrb	r0, [r4]	@ zero_extendqisi2
 176              		.loc 1 50 1 is_stmt 0 view .LVU36
 177 001e BDE81040 		pop	{r4, lr}
 178              		.cfi_restore 14
 179              		.cfi_restore 4
 180              		.cfi_def_cfa_offset 0
 181              	.LVL6:
 182              		.loc 1 49 3 view .LVU37
 183 0022 FFF7FEBF 		b	test_emit_token
 184              	.LVL7:
 185              	.L8:
 186 0026 00BF     		.align	2
 187              	.L7:
 188 0028 00000000 		.word	.LANCHOR0
 189              		.cfi_endproc
 190              	.LFE404:
 191              		.size	thread1, .-thread1
 192              		.section	.rodata.rt_test_006_001_execute.str1.4,"aMS",%progbits,1
 193              		.align	2
 194              	.LC0:
 195 0000 4100     		.ascii	"A\000"
 196 0002 0000     		.align	2
 197              	.LC1:
 198 0004 6E6F7420 		.ascii	"not NULL\000"
 198      4E554C4C 
 198      00
 199 000d 000000   		.align	2
 200              	.LC2:
 201 0010 77726F6E 		.ascii	"wrong returned message\000"
 201      67207265 
 201      7475726E 
 201      6564206D 
 201      65737361 
 202 0027 00       		.align	2
 203              	.LC3:
 204 0028 6F757420 		.ascii	"out of time window\000"
 204      6F662074 
 204      696D6520 
 204      77696E64 
 204      6F7700
 205              		.section	.text.rt_test_006_001_execute,"ax",%progbits
 206              		.align	1
 207              		.p2align 4,,15
 208              		.syntax unified
 209              		.thumb
 210              		.thumb_func
 211              		.fpu softvfp
 212              		.type	rt_test_006_001_execute, %function
 213              	rt_test_006_001_execute:
 214              	.LFB406:
 215              		.loc 1 77 43 is_stmt 1 view -0
 216              		.cfi_startproc
 217              		@ args = 0, pretend = 0, frame = 0
 218              		@ frame_needed = 0, uses_anonymous_args = 0
ARM GAS  /tmp/cctCj4Ha.s 			page 5


 219              		.loc 1 78 3 view .LVU39
 220              		.loc 1 79 3 view .LVU40
 221              		.loc 1 84 3 view .LVU41
 222              		.loc 1 77 43 is_stmt 0 view .LVU42
 223 0000 F0B5     		push	{r4, r5, r6, r7, lr}
 224              		.cfi_def_cfa_offset 20
 225              		.cfi_offset 4, -20
 226              		.cfi_offset 5, -16
 227              		.cfi_offset 6, -12
 228              		.cfi_offset 7, -8
 229              		.cfi_offset 14, -4
 230              	.LBB83:
 231              	.LBB84:
 232              	.LBB85:
 233              	.LBB86:
 234              		.file 5 "../ChibiOS/os/rt/include/chthreads.h"
 235              		.loc 5 343 10 view .LVU43
 236 0002 314B     		ldr	r3, .L15
 237              	.LBE86:
 238              	.LBE85:
 239              	.LBE84:
 240              	.LBE83:
 241              		.loc 1 86 18 view .LVU44
 242 0004 3149     		ldr	r1, .L15+4
 243              	.LBB91:
 244              	.LBB89:
 245              		.loc 5 356 37 view .LVU45
 246 0006 DB68     		ldr	r3, [r3, #12]
 247              	.LBE89:
 248              	.LBE91:
 249              		.loc 1 84 3 view .LVU46
 250 0008 314F     		ldr	r7, .L15+8
 251              		.loc 1 86 18 view .LVU47
 252 000a 9A68     		ldr	r2, [r3, #8]
 253 000c 314C     		ldr	r4, .L15+12
 254 000e 0868     		ldr	r0, [r1]
 255 0010 314B     		ldr	r3, .L15+16
 256              		.loc 1 77 43 view .LVU48
 257 0012 83B0     		sub	sp, sp, #12
 258              		.cfi_def_cfa_offset 32
 259              		.loc 1 84 3 view .LVU49
 260 0014 0121     		movs	r1, #1
 261              		.loc 1 86 18 view .LVU50
 262 0016 0094     		str	r4, [sp]
 263 0018 013A     		subs	r2, r2, #1
 264              		.loc 1 84 3 view .LVU51
 265 001a 3960     		str	r1, [r7]
 266              		.loc 1 86 5 is_stmt 1 view .LVU52
 267              	.LBB92:
 268              	.LBI83:
 269              		.loc 5 354 23 view .LVU53
 270              	.LBB90:
 271              		.loc 5 356 3 view .LVU54
 272              	.LBB88:
 273              	.LBI85:
 274              		.loc 5 341 25 view .LVU55
 275              	.LBB87:
ARM GAS  /tmp/cctCj4Ha.s 			page 6


 276              		.loc 5 343 3 view .LVU56
 277              	.LBE87:
 278              	.LBE88:
 279              	.LBE90:
 280              	.LBE92:
 281              		.loc 1 86 18 is_stmt 0 view .LVU57
 282 001c 4FF4B871 		mov	r1, #368
 283 0020 FFF7FEFF 		bl	chThdCreateStatic
 284              	.LVL8:
 285              		.loc 1 86 16 view .LVU58
 286 0024 2D4B     		ldr	r3, .L15+20
 287              	.LBB93:
 288              	.LBB94:
 289              	.LBB95:
 290              	.LBB96:
 291              		.loc 4 493 3 view .LVU59
 292 0026 3026     		movs	r6, #48
 293              	.LBE96:
 294              	.LBE95:
 295              	.LBE94:
 296              	.LBE93:
 297              		.loc 1 86 16 view .LVU60
 298 0028 1860     		str	r0, [r3]
 299              		.loc 1 87 5 is_stmt 1 view .LVU61
 300              	.LBB101:
 301              	.LBI93:
 302              		.loc 2 407 20 view .LVU62
 303              	.LBE101:
 304              		.loc 2 409 3 view .LVU63
 305              	.LBB102:
 306              	.LBB99:
 307              	.LBI94:
 308              		.loc 3 806 27 view .LVU64
 309              	.LBE99:
 310              	.LBE102:
 311              		.loc 3 814 3 view .LVU65
 312              	.LVL9:
 313              	.LBB103:
 314              	.LBB100:
 315              	.LBB98:
 316              	.LBI95:
 317              		.loc 4 491 27 view .LVU66
 318              	.LBB97:
 319              		.loc 4 493 3 view .LVU67
 320              		.syntax unified
 321              	@ 493 "../ChibiOS/os/common/ext/ARM/CMSIS/Core/Include/cmsis_gcc.h" 1
 322 002a 86F31188 		MSR basepri, r6
 323              	@ 0 "" 2
 324              	.LVL10:
 325              		.loc 4 493 3 is_stmt 0 view .LVU68
 326              		.thumb
 327              		.syntax unified
 328              	.LBE97:
 329              	.LBE98:
 330              	.LBE100:
 331              	.LBE103:
 332              		.loc 2 410 35 is_stmt 1 view .LVU69
ARM GAS  /tmp/cctCj4Ha.s 			page 7


 333              		.loc 2 411 21 view .LVU70
 334              		.loc 1 88 5 view .LVU71
 335              		.loc 1 88 11 is_stmt 0 view .LVU72
 336 002e 2C4D     		ldr	r5, .L15+24
 337 0030 4FF0FF31 		mov	r1, #-1
 338 0034 2846     		mov	r0, r5
 339 0036 FFF7FEFF 		bl	chThdSuspendTimeoutS
 340              	.LVL11:
 341              	.LBB104:
 342              	.LBB105:
 343              	.LBB106:
 344              	.LBB107:
 345              	.LBB108:
 346              		.loc 4 493 3 view .LVU73
 347 003a 0023     		movs	r3, #0
 348              	.LBE108:
 349              	.LBE107:
 350              	.LBE106:
 351              	.LBE105:
 352              	.LBE104:
 353              		.loc 1 88 11 view .LVU74
 354 003c 0446     		mov	r4, r0
 355              	.LVL12:
 356              		.loc 1 89 5 is_stmt 1 view .LVU75
 357              	.LBB115:
 358              	.LBI104:
 359              		.loc 2 421 20 view .LVU76
 360              	.LBB113:
 361              		.loc 2 423 23 view .LVU77
 362              		.loc 2 424 34 view .LVU78
 363              		.loc 2 430 3 view .LVU79
 364              		.loc 2 430 3 view .LVU80
 365              		.loc 2 430 3 view .LVU81
 366              		.loc 2 434 3 view .LVU82
 367              	.LBB111:
 368              	.LBI106:
 369              		.loc 3 830 27 view .LVU83
 370              	.LBE111:
 371              	.LBE113:
 372              	.LBE115:
 373              		.loc 3 833 3 view .LVU84
 374              	.LBB116:
 375              	.LBB114:
 376              	.LBB112:
 377              	.LBB110:
 378              	.LBI107:
 379              		.loc 4 491 27 view .LVU85
 380              	.LBB109:
 381              		.loc 4 493 3 view .LVU86
 382              		.syntax unified
 383              	@ 493 "../ChibiOS/os/common/ext/ARM/CMSIS/Core/Include/cmsis_gcc.h" 1
 384 003e 83F31188 		MSR basepri, r3
 385              	@ 0 "" 2
 386              	.LVL13:
 387              		.loc 4 493 3 is_stmt 0 view .LVU87
 388              		.thumb
 389              		.syntax unified
ARM GAS  /tmp/cctCj4Ha.s 			page 8


 390              	.LBE109:
 391              	.LBE110:
 392              	.LBE112:
 393              	.LBE114:
 394              	.LBE116:
 395              		.loc 1 90 5 is_stmt 1 view .LVU88
 396 0042 2868     		ldr	r0, [r5]
 397              	.LVL14:
 398              		.loc 1 90 5 is_stmt 0 view .LVU89
 399 0044 2749     		ldr	r1, .L15+28
 400 0046 B0FA80F0 		clz	r0, r0
 401 004a 4009     		lsrs	r0, r0, #5
 402 004c FFF7FEFF 		bl	__test_assert
 403              	.LVL15:
 404 0050 08B1     		cbz	r0, .L14
 405              	.LVL16:
 406              	.L9:
 407              		.loc 1 112 1 view .LVU90
 408 0052 03B0     		add	sp, sp, #12
 409              		.cfi_remember_state
 410              		.cfi_def_cfa_offset 20
 411              		@ sp needed
 412 0054 F0BD     		pop	{r4, r5, r6, r7, pc}
 413              	.LVL17:
 414              	.L14:
 415              		.cfi_restore_state
 416              		.loc 1 90 41 is_stmt 1 discriminator 2 view .LVU91
 417              		.loc 1 91 5 discriminator 2 view .LVU92
 418 0056 B4FA84F0 		clz	r0, r4
 419 005a 2349     		ldr	r1, .L15+32
 420 005c 4009     		lsrs	r0, r0, #5
 421 005e FFF7FEFF 		bl	__test_assert
 422              	.LVL18:
 423 0062 0446     		mov	r4, r0
 424              	.LVL19:
 425              		.loc 1 91 5 is_stmt 0 discriminator 2 view .LVU93
 426 0064 0028     		cmp	r0, #0
 427 0066 F4D1     		bne	.L9
 428              		.loc 1 91 56 is_stmt 1 discriminator 2 view .LVU94
 429              		.loc 1 92 5 discriminator 2 view .LVU95
 430 0068 FFF7FEFF 		bl	test_wait_threads
 431              	.LVL20:
 432              		.loc 1 94 3 discriminator 2 view .LVU96
 433              		.loc 1 94 19 discriminator 2 view .LVU97
 434              		.loc 1 99 3 discriminator 2 view .LVU98
 435 006c 0223     		movs	r3, #2
 436 006e 3B60     		str	r3, [r7]
 437              		.loc 1 101 5 discriminator 2 view .LVU99
 438              	.LBB117:
 439              	.LBI117:
 440              		.loc 2 407 20 discriminator 2 view .LVU100
 441              	.LBE117:
 442              		.loc 2 409 3 discriminator 2 view .LVU101
 443              	.LBB122:
 444              	.LBB118:
 445              	.LBI118:
 446              		.loc 3 806 27 discriminator 2 view .LVU102
ARM GAS  /tmp/cctCj4Ha.s 			page 9


 447              	.LBE118:
 448              	.LBE122:
 449              		.loc 3 814 3 discriminator 2 view .LVU103
 450              	.LVL21:
 451              	.LBB123:
 452              	.LBB121:
 453              	.LBB119:
 454              	.LBI119:
 455              		.loc 4 491 27 discriminator 2 view .LVU104
 456              	.LBB120:
 457              		.loc 4 493 3 discriminator 2 view .LVU105
 458              		.syntax unified
 459              	@ 493 "../ChibiOS/os/common/ext/ARM/CMSIS/Core/Include/cmsis_gcc.h" 1
 460 0070 86F31188 		MSR basepri, r6
 461              	@ 0 "" 2
 462              	.LVL22:
 463              		.loc 4 493 3 is_stmt 0 discriminator 2 view .LVU106
 464              		.thumb
 465              		.syntax unified
 466              	.LBE120:
 467              	.LBE119:
 468              	.LBE121:
 469              	.LBE123:
 470              		.loc 2 410 35 is_stmt 1 discriminator 2 view .LVU107
 471              		.loc 2 411 21 discriminator 2 view .LVU108
 472              		.loc 1 102 5 discriminator 2 view .LVU109
 473              	.LBB124:
 474              	.LBI124:
 475              		.file 6 "../ChibiOS/os/rt/include/chvt.h"
 476              		.loc 6 122 25 discriminator 2 view .LVU110
 477              	.LBE124:
 478              		.loc 6 127 3 discriminator 2 view .LVU111
 479              	.LBB129:
 480              	.LBB125:
 481              	.LBI125:
 482              		.file 7 "../ChibiOS/os/hal/osal/rt-nil/chcore_timer.h"
 483              		.loc 7 111 25 discriminator 2 view .LVU112
 484              	.LBB126:
 485              		.loc 7 113 3 discriminator 2 view .LVU113
 486              		.loc 7 113 10 is_stmt 0 discriminator 2 view .LVU114
 487 0074 FFF7FEFF 		bl	stGetCounter
 488              	.LVL23:
 489              	.LBE126:
 490              	.LBE125:
 491              	.LBE129:
 492              		.loc 1 103 11 discriminator 2 view .LVU115
 493 0078 42F21071 		movw	r1, #10000
 494              	.LBB130:
 495              	.LBB128:
 496              	.LBB127:
 497              		.loc 7 113 10 discriminator 2 view .LVU116
 498 007c 0646     		mov	r6, r0
 499              	.LBE127:
 500              	.LBE128:
 501              	.LBE130:
 502              		.loc 1 103 11 discriminator 2 view .LVU117
 503 007e 2846     		mov	r0, r5
ARM GAS  /tmp/cctCj4Ha.s 			page 10


 504              	.LVL24:
 505              		.loc 1 103 5 is_stmt 1 discriminator 2 view .LVU118
 506              		.loc 1 103 11 is_stmt 0 discriminator 2 view .LVU119
 507 0080 FFF7FEFF 		bl	chThdSuspendTimeoutS
 508              	.LVL25:
 509 0084 0746     		mov	r7, r0
 510              	.LVL26:
 511              		.loc 1 104 5 is_stmt 1 discriminator 2 view .LVU120
 512              	.LBB131:
 513              	.LBI131:
 514              		.loc 2 421 20 discriminator 2 view .LVU121
 515              	.LBB132:
 516              		.loc 2 423 23 discriminator 2 view .LVU122
 517              		.loc 2 424 34 discriminator 2 view .LVU123
 518              		.loc 2 430 3 discriminator 2 view .LVU124
 519              		.loc 2 430 3 discriminator 2 view .LVU125
 520              		.loc 2 430 3 discriminator 2 view .LVU126
 521              		.loc 2 434 3 discriminator 2 view .LVU127
 522              	.LBB133:
 523              	.LBI133:
 524              		.loc 3 830 27 discriminator 2 view .LVU128
 525              	.LBE133:
 526              	.LBE132:
 527              	.LBE131:
 528              		.loc 3 833 3 discriminator 2 view .LVU129
 529              	.LBB138:
 530              	.LBB137:
 531              	.LBB136:
 532              	.LBB134:
 533              	.LBI134:
 534              		.loc 4 491 27 discriminator 2 view .LVU130
 535              	.LBB135:
 536              		.loc 4 493 3 discriminator 2 view .LVU131
 537              		.syntax unified
 538              	@ 493 "../ChibiOS/os/common/ext/ARM/CMSIS/Core/Include/cmsis_gcc.h" 1
 539 0086 84F31188 		MSR basepri, r4
 540              	@ 0 "" 2
 541              	.LVL27:
 542              		.loc 4 493 3 is_stmt 0 discriminator 2 view .LVU132
 543              		.thumb
 544              		.syntax unified
 545              	.LBE135:
 546              	.LBE134:
 547              	.LBE136:
 548              	.LBE137:
 549              	.LBE138:
 550              		.loc 1 105 5 is_stmt 1 discriminator 2 view .LVU133
 551              	.LBB139:
 552              	.LBI139:
 553              		.file 8 "../ChibiOS/os/rt/include/chtime.h"
 554              		.loc 8 442 25 discriminator 2 view .LVU134
 555              	.LBB140:
 556              		.loc 8 449 3 discriminator 2 view .LVU135
 557              		.loc 8 449 3 is_stmt 0 discriminator 2 view .LVU136
 558              	.LBE140:
 559              	.LBE139:
 560              	.LBB141:
ARM GAS  /tmp/cctCj4Ha.s 			page 11


 561              	.LBI141:
 562              		.loc 8 442 25 is_stmt 1 discriminator 2 view .LVU137
 563              	.LBB142:
 564              		.loc 8 449 3 discriminator 2 view .LVU138
 565              		.loc 8 449 3 is_stmt 0 discriminator 2 view .LVU139
 566              	.LBE142:
 567              	.LBE141:
 568              		.loc 1 105 5 discriminator 2 view .LVU140
 569 008a 06F51C51 		add	r1, r6, #9984
 570 008e 0846     		mov	r0, r1
 571              	.LVL28:
 572              		.loc 1 105 5 discriminator 2 view .LVU141
 573 0090 164A     		ldr	r2, .L15+36
 574 0092 1331     		adds	r1, r1, #19
 575 0094 1030     		adds	r0, r0, #16
 576 0096 FFF7FEFF 		bl	__test_assert_time_window
 577              	.LVL29:
 578 009a 0028     		cmp	r0, #0
 579 009c D9D1     		bne	.L9
 580              		.loc 1 107 50 is_stmt 1 view .LVU142
 581              		.loc 1 108 5 view .LVU143
 582 009e 2868     		ldr	r0, [r5]
 583 00a0 1049     		ldr	r1, .L15+28
 584 00a2 B0FA80F0 		clz	r0, r0
 585 00a6 4009     		lsrs	r0, r0, #5
 586 00a8 FFF7FEFF 		bl	__test_assert
 587              	.LVL30:
 588 00ac 0028     		cmp	r0, #0
 589 00ae D0D1     		bne	.L9
 590              		.loc 1 108 41 discriminator 2 view .LVU144
 591              		.loc 1 109 5 discriminator 2 view .LVU145
 592 00b0 A7F1FF30 		sub	r0, r7, #-1
 593 00b4 0C49     		ldr	r1, .L15+32
 594 00b6 B0FA80F0 		clz	r0, r0
 595 00ba 4009     		lsrs	r0, r0, #5
 596              		.loc 1 112 1 is_stmt 0 discriminator 2 view .LVU146
 597 00bc 03B0     		add	sp, sp, #12
 598              		.cfi_def_cfa_offset 20
 599              		@ sp needed
 600 00be BDE8F040 		pop	{r4, r5, r6, r7, lr}
 601              		.cfi_restore 14
 602              		.cfi_restore 7
 603              		.cfi_restore 6
 604              		.cfi_restore 5
 605              		.cfi_restore 4
 606              		.cfi_def_cfa_offset 0
 607              	.LVL31:
 608              		.loc 1 109 5 discriminator 2 view .LVU147
 609 00c2 FFF7FEBF 		b	__test_assert
 610              	.LVL32:
 611              	.L16:
 612 00c6 00BF     		.align	2
 613              	.L15:
 614 00c8 00000000 		.word	ch0
 615 00cc 00000000 		.word	wa
 616 00d0 00000000 		.word	chtest
 617 00d4 00000000 		.word	.LC0
ARM GAS  /tmp/cctCj4Ha.s 			page 12


 618 00d8 00000000 		.word	thread1
 619 00dc 00000000 		.word	threads
 620 00e0 00000000 		.word	.LANCHOR0
 621 00e4 04000000 		.word	.LC1
 622 00e8 10000000 		.word	.LC2
 623 00ec 28000000 		.word	.LC3
 624              		.cfi_endproc
 625              	.LFE406:
 626              		.size	rt_test_006_001_execute, .-rt_test_006_001_execute
 627              		.global	rt_test_sequence_006
 628              		.section	.rodata.str1.4,"aMS",%progbits,1
 629              		.align	2
 630              	.LC4:
 631 0000 53757370 		.ascii	"Suspend/Resume\000"
 631      656E642F 
 631      52657375 
 631      6D6500
 632              		.global	rt_test_sequence_006_array
 633 000f 00       		.align	2
 634              	.LC5:
 635 0010 53757370 		.ascii	"Suspend and Resume functionality\000"
 635      656E6420 
 635      616E6420 
 635      52657375 
 635      6D652066 
 636              		.section	.bss.tr1,"aw",%nobits
 637              		.align	2
 638              		.set	.LANCHOR0,. + 0
 639              		.type	tr1, %object
 640              		.size	tr1, 4
 641              	tr1:
 642 0000 00000000 		.space	4
 643              		.section	.rodata.rt_test_006_001,"a"
 644              		.align	2
 645              		.type	rt_test_006_001, %object
 646              		.size	rt_test_006_001, 16
 647              	rt_test_006_001:
 648 0000 10000000 		.word	.LC5
 649 0004 00000000 		.word	rt_test_006_001_setup
 650 0008 00000000 		.word	0
 651 000c 00000000 		.word	rt_test_006_001_execute
 652              		.section	.rodata.rt_test_sequence_006,"a"
 653              		.align	2
 654              		.type	rt_test_sequence_006, %object
 655              		.size	rt_test_sequence_006, 8
 656              	rt_test_sequence_006:
 657 0000 00000000 		.word	.LC4
 658 0004 00000000 		.word	rt_test_sequence_006_array
 659              		.section	.rodata.rt_test_sequence_006_array,"a"
 660              		.align	2
 661              		.type	rt_test_sequence_006_array, %object
 662              		.size	rt_test_sequence_006_array, 8
 663              	rt_test_sequence_006_array:
 664 0000 00000000 		.word	rt_test_006_001
 665 0004 00000000 		.word	0
 666              		.text
 667              	.Letext0:
ARM GAS  /tmp/cctCj4Ha.s 			page 13


 668              		.file 9 "/opt/gcc-arm-none-eabi/gcc-arm-none-eabi-10.3-2021.07/lib/gcc/arm-none-eabi/10.3.1/includ
 669              		.file 10 "/opt/gcc-arm-none-eabi/gcc-arm-none-eabi-10.3-2021.07/arm-none-eabi/include/machine/_def
 670              		.file 11 "/opt/gcc-arm-none-eabi/gcc-arm-none-eabi-10.3-2021.07/arm-none-eabi/include/sys/_stdint.
 671              		.file 12 "../ChibiOS/os/common/ports/ARM-common/chtypes.h"
 672              		.file 13 "../ChibiOS/os/rt/include/chearly.h"
 673              		.file 14 "../ChibiOS/os/rt/include/chobjects.h"
 674              		.file 15 "../ChibiOS/os/rt/include/chrfcu.h"
 675              		.file 16 "../ChibiOS/os/rt/include/chdebug.h"
 676              		.file 17 "../ChibiOS/os/rt/include/chlists.h"
 677              		.file 18 "../ChibiOS/os/rt/include/chsem.h"
 678              		.file 19 "../ChibiOS/os/rt/include/chmtx.h"
 679              		.file 20 "../ChibiOS/os/hal/include/hal_streams.h"
 680              		.file 21 "../ChibiOS/os/test/include/ch_test.h"
 681              		.file 22 "../ChibiOS/test/rt/source/test/rt_test_sequence_006.h"
 682              		.file 23 "../ChibiOS/test/rt/source/test/rt_test_root.h"
 683              		.file 24 "../ChibiOS/os/hal/include/hal_st.h"
 684              		.file 25 "../ChibiOS/os/rt/include/chschd.h"