ARM GAS  /tmp/ccuqlnP4.s 			page 1


   1              		.cpu cortex-m4
   2              		.eabi_attribute 20, 1
   3              		.eabi_attribute 21, 1
   4              		.eabi_attribute 23, 3
   5              		.eabi_attribute 24, 1
   6              		.eabi_attribute 25, 1
   7              		.eabi_attribute 26, 1
   8              		.eabi_attribute 30, 2
   9              		.eabi_attribute 34, 1
  10              		.eabi_attribute 18, 4
  11              		.file	"rt_test_sequence_012.c"
  12              		.text
  13              	.Ltext0:
  14              		.cfi_sections	.debug_frame
  15              		.section	.text.tmo,"ax",%progbits
  16              		.align	1
  17              		.p2align 4,,15
  18              		.arch armv7e-m
  19              		.syntax unified
  20              		.thumb
  21              		.thumb_func
  22              		.fpu softvfp
  23              		.type	tmo, %function
  24              	tmo:
  25              	.LVL0:
  26              	.LFB404:
  27              		.file 1 "../ChibiOS/test/rt/source/test/rt_test_sequence_012.c"
  28              		.loc 1 63 52 view -0
  29              		.cfi_startproc
  30              		@ args = 0, pretend = 0, frame = 0
  31              		@ frame_needed = 0, uses_anonymous_args = 0
  32              		@ link register save eliminated.
  33              		.loc 1 65 3 view .LVU1
  34              		.loc 1 66 3 view .LVU2
  35              		.loc 1 67 1 is_stmt 0 view .LVU3
  36 0000 7047     		bx	lr
  37              		.cfi_endproc
  38              	.LFE404:
  39              		.size	tmo, .-tmo
  40 0002 00BF     		.section	.rodata.rt_test_012_012_execute.str1.4,"aMS",%progbits,1
  41              		.align	2
  42              	.LC0:
  43 0000 2D2D2D20 		.ascii	"--- OS    : \000"
  43      4F532020 
  43      20203A20 
  43      00
  44 000d 000000   		.align	2
  45              	.LC1:
  46 0010 257300   		.ascii	"%s\000"
  47 0013 00       		.align	2
  48              	.LC2:
  49 0014 257500   		.ascii	"%u\000"
  50 0017 00       		.align	2
  51              	.LC3:
  52 0018 20627974 		.ascii	" bytes\000"
  52      657300
  53 001f 00       		.align	2
ARM GAS  /tmp/ccuqlnP4.s 			page 2


  54              	.LC4:
  55 0020 25730D0A 		.ascii	"%s\015\012\000"
  55      00
  56 0025 000000   		.align	2
  57              	.LC5:
  58 0028 2D2D2D20 		.ascii	"--- Thread: \000"
  58      54687265 
  58      61643A20 
  58      00
  59 0035 000000   		.align	2
  60              	.LC6:
  61 0038 2D2D2D20 		.ascii	"--- Timer : \000"
  61      54696D65 
  61      72203A20 
  61      00
  62 0045 000000   		.align	2
  63              	.LC7:
  64 0048 2D2D2D20 		.ascii	"--- Semaph: \000"
  64      53656D61 
  64      70683A20 
  64      00
  65 0055 000000   		.align	2
  66              	.LC8:
  67 0058 2D2D2D20 		.ascii	"--- Mutex : \000"
  67      4D757465 
  67      78203A20 
  67      00
  68 0065 000000   		.align	2
  69              	.LC9:
  70 0068 2D2D2D20 		.ascii	"--- CondV.: \000"
  70      436F6E64 
  70      562E3A20 
  70      00
  71 0075 000000   		.align	2
  72              	.LC10:
  73 0078 2D2D2D20 		.ascii	"--- EventS: \000"
  73      4576656E 
  73      74533A20 
  73      00
  74 0085 000000   		.align	2
  75              	.LC11:
  76 0088 2D2D2D20 		.ascii	"--- EventL: \000"
  76      4576656E 
  76      744C3A20 
  76      00
  77 0095 000000   		.align	2
  78              	.LC12:
  79 0098 2D2D2D20 		.ascii	"--- MailB.: \000"
  79      4D61696C 
  79      422E3A20 
  79      00
  80              		.section	.text.rt_test_012_012_execute,"ax",%progbits
  81              		.align	1
  82              		.p2align 4,,15
  83              		.syntax unified
  84              		.thumb
  85              		.thumb_func
ARM GAS  /tmp/ccuqlnP4.s 			page 3


  86              		.fpu softvfp
  87              		.type	rt_test_012_012_execute, %function
  88              	rt_test_012_012_execute:
  89              	.LFB425:
  90              		.loc 1 938 43 is_stmt 1 view -0
  91              		.cfi_startproc
  92              		@ args = 0, pretend = 0, frame = 0
  93              		@ frame_needed = 0, uses_anonymous_args = 0
  94              		.loc 1 941 3 view .LVU5
  95              		.loc 1 938 43 is_stmt 0 view .LVU6
  96 0000 2DE9F843 		push	{r3, r4, r5, r6, r7, r8, r9, lr}
  97              		.cfi_def_cfa_offset 32
  98              		.cfi_offset 3, -32
  99              		.cfi_offset 4, -28
 100              		.cfi_offset 5, -24
 101              		.cfi_offset 6, -20
 102              		.cfi_offset 7, -16
 103              		.cfi_offset 8, -12
 104              		.cfi_offset 9, -8
 105              		.cfi_offset 14, -4
 106              	.LBB396:
 107              	.LBB397:
 108              		.file 2 "../ChibiOS/os/test/include/ch_test.h"
 109              		.loc 2 371 3 view .LVU7
 110 0004 DFF80C81 		ldr	r8, .L5
 111              	.LBE397:
 112              	.LBE396:
 113              		.loc 1 941 3 view .LVU8
 114 0008 434F     		ldr	r7, .L5+4
 115              	.LBB401:
 116              	.LBB402:
 117              		.loc 2 359 3 view .LVU9
 118 000a 444E     		ldr	r6, .L5+8
 119              	.LBE402:
 120              	.LBE401:
 121              	.LBB404:
 122              	.LBB405:
 123              		.loc 2 383 3 view .LVU10
 124 000c 444D     		ldr	r5, .L5+12
 125 000e 454C     		ldr	r4, .L5+16
 126              	.LBE405:
 127              	.LBE404:
 128              	.LBB407:
 129              	.LBB398:
 130              		.loc 2 371 3 view .LVU11
 131 0010 4549     		ldr	r1, .L5+20
 132              	.LBE398:
 133              	.LBE407:
 134              		.loc 1 941 3 view .LVU12
 135 0012 0123     		movs	r3, #1
 136              	.LBB408:
 137              	.LBB399:
 138              		.loc 2 371 3 view .LVU13
 139 0014 4046     		mov	r0, r8
 140              	.LBE399:
 141              	.LBE408:
 142              		.loc 1 941 3 view .LVU14
ARM GAS  /tmp/ccuqlnP4.s 			page 4


 143 0016 3B60     		str	r3, [r7]
 144              		.loc 1 943 5 is_stmt 1 view .LVU15
 145              	.LVL1:
 146              	.LBB409:
 147              	.LBI396:
 148              		.loc 2 369 20 view .LVU16
 149              	.LBB400:
 150              		.loc 2 371 3 view .LVU17
 151 0018 FFF7FEFF 		bl	test_printf
 152              	.LVL2:
 153              		.loc 2 371 3 is_stmt 0 view .LVU18
 154              	.LBE400:
 155              	.LBE409:
 156              		.loc 1 944 5 is_stmt 1 view .LVU19
 157              	.LBB410:
 158              	.LBI401:
 159              		.loc 2 357 20 view .LVU20
 160              	.LBB403:
 161              		.loc 2 359 3 view .LVU21
 162 001c 8821     		movs	r1, #136
 163 001e 3046     		mov	r0, r6
 164 0020 FFF7FEFF 		bl	test_printf
 165              	.LVL3:
 166              		.loc 2 359 3 is_stmt 0 view .LVU22
 167              	.LBE403:
 168              	.LBE410:
 169              		.loc 1 945 5 is_stmt 1 view .LVU23
 170              	.LBB411:
 171              	.LBI404:
 172              		.loc 2 381 20 view .LVU24
 173              	.LBB406:
 174              		.loc 2 383 3 view .LVU25
 175 0024 2946     		mov	r1, r5
 176 0026 2046     		mov	r0, r4
 177 0028 FFF7FEFF 		bl	test_printf
 178              	.LVL4:
 179              		.loc 2 383 3 is_stmt 0 view .LVU26
 180              	.LBE406:
 181              	.LBE411:
 182              		.loc 1 947 3 is_stmt 1 view .LVU27
 183              		.loc 1 947 19 view .LVU28
 184              		.loc 1 950 3 view .LVU29
 185 002c 0223     		movs	r3, #2
 186              	.LBB412:
 187              	.LBB413:
 188              		.loc 2 371 3 is_stmt 0 view .LVU30
 189 002e 3F49     		ldr	r1, .L5+24
 190              	.LBE413:
 191              	.LBE412:
 192              		.loc 1 950 3 view .LVU31
 193 0030 3B60     		str	r3, [r7]
 194              		.loc 1 952 5 is_stmt 1 view .LVU32
 195              	.LVL5:
 196              	.LBB415:
 197              	.LBI412:
 198              		.loc 2 369 20 view .LVU33
 199              	.LBB414:
ARM GAS  /tmp/ccuqlnP4.s 			page 5


 200              		.loc 2 371 3 view .LVU34
 201 0032 4046     		mov	r0, r8
 202 0034 FFF7FEFF 		bl	test_printf
 203              	.LVL6:
 204              		.loc 2 371 3 is_stmt 0 view .LVU35
 205              	.LBE414:
 206              	.LBE415:
 207              		.loc 1 953 5 is_stmt 1 view .LVU36
 208              	.LBB416:
 209              	.LBI416:
 210              		.loc 2 357 20 view .LVU37
 211              	.LBB417:
 212              		.loc 2 359 3 view .LVU38
 213 0038 4821     		movs	r1, #72
 214 003a 3046     		mov	r0, r6
 215 003c FFF7FEFF 		bl	test_printf
 216              	.LVL7:
 217              		.loc 2 359 3 is_stmt 0 view .LVU39
 218              	.LBE417:
 219              	.LBE416:
 220              		.loc 1 954 5 is_stmt 1 view .LVU40
 221              	.LBB418:
 222              	.LBI418:
 223              		.loc 2 381 20 view .LVU41
 224              	.LBB419:
 225              		.loc 2 383 3 view .LVU42
 226 0040 2946     		mov	r1, r5
 227 0042 2046     		mov	r0, r4
 228 0044 FFF7FEFF 		bl	test_printf
 229              	.LVL8:
 230              		.loc 2 383 3 is_stmt 0 view .LVU43
 231              	.LBE419:
 232              	.LBE418:
 233              		.loc 1 956 3 is_stmt 1 view .LVU44
 234              		.loc 1 956 19 view .LVU45
 235              		.loc 1 959 3 view .LVU46
 236 0048 0323     		movs	r3, #3
 237              	.LBB420:
 238              	.LBB421:
 239              		.loc 2 371 3 is_stmt 0 view .LVU47
 240 004a 3949     		ldr	r1, .L5+28
 241              	.LBE421:
 242              	.LBE420:
 243              		.loc 1 959 3 view .LVU48
 244 004c 3B60     		str	r3, [r7]
 245              		.loc 1 961 5 is_stmt 1 view .LVU49
 246              	.LVL9:
 247              	.LBB423:
 248              	.LBI420:
 249              		.loc 2 369 20 view .LVU50
 250              	.LBB422:
 251              		.loc 2 371 3 view .LVU51
 252 004e 4046     		mov	r0, r8
 253 0050 FFF7FEFF 		bl	test_printf
 254              	.LVL10:
 255              		.loc 2 371 3 is_stmt 0 view .LVU52
 256              	.LBE422:
ARM GAS  /tmp/ccuqlnP4.s 			page 6


 257              	.LBE423:
 258              		.loc 1 962 5 is_stmt 1 view .LVU53
 259              	.LBB424:
 260              	.LBI424:
 261              		.loc 2 357 20 view .LVU54
 262              	.LBB425:
 263              		.loc 2 359 3 view .LVU55
 264 0054 1821     		movs	r1, #24
 265 0056 3046     		mov	r0, r6
 266 0058 FFF7FEFF 		bl	test_printf
 267              	.LVL11:
 268              		.loc 2 359 3 is_stmt 0 view .LVU56
 269              	.LBE425:
 270              	.LBE424:
 271              		.loc 1 963 5 is_stmt 1 view .LVU57
 272              	.LBB426:
 273              	.LBI426:
 274              		.loc 2 381 20 view .LVU58
 275              	.LBB427:
 276              		.loc 2 383 3 view .LVU59
 277 005c 2946     		mov	r1, r5
 278 005e 2046     		mov	r0, r4
 279 0060 FFF7FEFF 		bl	test_printf
 280              	.LVL12:
 281              		.loc 2 383 3 is_stmt 0 view .LVU60
 282              	.LBE427:
 283              	.LBE426:
 284              		.loc 1 965 3 is_stmt 1 view .LVU61
 285              		.loc 1 965 19 view .LVU62
 286              		.loc 1 968 3 view .LVU63
 287 0064 4FF00409 		mov	r9, #4
 288              	.LBB428:
 289              	.LBB429:
 290              		.loc 2 371 3 is_stmt 0 view .LVU64
 291 0068 3249     		ldr	r1, .L5+32
 292              	.LBE429:
 293              	.LBE428:
 294              		.loc 1 968 3 view .LVU65
 295 006a C7F80090 		str	r9, [r7]
 296              		.loc 1 971 5 is_stmt 1 view .LVU66
 297              	.LVL13:
 298              	.LBB431:
 299              	.LBI428:
 300              		.loc 2 369 20 view .LVU67
 301              	.LBB430:
 302              		.loc 2 371 3 view .LVU68
 303 006e 4046     		mov	r0, r8
 304 0070 FFF7FEFF 		bl	test_printf
 305              	.LVL14:
 306              		.loc 2 371 3 is_stmt 0 view .LVU69
 307              	.LBE430:
 308              	.LBE431:
 309              		.loc 1 972 5 is_stmt 1 view .LVU70
 310              	.LBB432:
 311              	.LBI432:
 312              		.loc 2 357 20 view .LVU71
 313              	.LBB433:
ARM GAS  /tmp/ccuqlnP4.s 			page 7


 314              		.loc 2 359 3 view .LVU72
 315 0074 0C21     		movs	r1, #12
 316 0076 3046     		mov	r0, r6
 317 0078 FFF7FEFF 		bl	test_printf
 318              	.LVL15:
 319              		.loc 2 359 3 is_stmt 0 view .LVU73
 320              	.LBE433:
 321              	.LBE432:
 322              		.loc 1 973 5 is_stmt 1 view .LVU74
 323              	.LBB434:
 324              	.LBI434:
 325              		.loc 2 381 20 view .LVU75
 326              	.LBB435:
 327              		.loc 2 383 3 view .LVU76
 328 007c 2946     		mov	r1, r5
 329 007e 2046     		mov	r0, r4
 330 0080 FFF7FEFF 		bl	test_printf
 331              	.LVL16:
 332              		.loc 2 383 3 is_stmt 0 view .LVU77
 333              	.LBE435:
 334              	.LBE434:
 335              		.loc 1 976 3 is_stmt 1 view .LVU78
 336              		.loc 1 976 19 view .LVU79
 337              		.loc 1 979 3 view .LVU80
 338 0084 0523     		movs	r3, #5
 339              	.LBB436:
 340              	.LBB437:
 341              		.loc 2 371 3 is_stmt 0 view .LVU81
 342 0086 2C49     		ldr	r1, .L5+36
 343              	.LBE437:
 344              	.LBE436:
 345              		.loc 1 979 3 view .LVU82
 346 0088 3B60     		str	r3, [r7]
 347              		.loc 1 982 5 is_stmt 1 view .LVU83
 348              	.LVL17:
 349              	.LBB439:
 350              	.LBI436:
 351              		.loc 2 369 20 view .LVU84
 352              	.LBB438:
 353              		.loc 2 371 3 view .LVU85
 354 008a 4046     		mov	r0, r8
 355 008c FFF7FEFF 		bl	test_printf
 356              	.LVL18:
 357              		.loc 2 371 3 is_stmt 0 view .LVU86
 358              	.LBE438:
 359              	.LBE439:
 360              		.loc 1 983 5 is_stmt 1 view .LVU87
 361              	.LBB440:
 362              	.LBI440:
 363              		.loc 2 357 20 view .LVU88
 364              	.LBB441:
 365              		.loc 2 359 3 view .LVU89
 366 0090 1021     		movs	r1, #16
 367 0092 3046     		mov	r0, r6
 368 0094 FFF7FEFF 		bl	test_printf
 369              	.LVL19:
 370              		.loc 2 359 3 is_stmt 0 view .LVU90
ARM GAS  /tmp/ccuqlnP4.s 			page 8


 371              	.LBE441:
 372              	.LBE440:
 373              		.loc 1 984 5 is_stmt 1 view .LVU91
 374              	.LBB442:
 375              	.LBI442:
 376              		.loc 2 381 20 view .LVU92
 377              	.LBB443:
 378              		.loc 2 383 3 view .LVU93
 379 0098 2946     		mov	r1, r5
 380 009a 2046     		mov	r0, r4
 381 009c FFF7FEFF 		bl	test_printf
 382              	.LVL20:
 383              		.loc 2 383 3 is_stmt 0 view .LVU94
 384              	.LBE443:
 385              	.LBE442:
 386              		.loc 1 987 3 is_stmt 1 view .LVU95
 387              		.loc 1 987 19 view .LVU96
 388              		.loc 1 990 3 view .LVU97
 389 00a0 0623     		movs	r3, #6
 390              	.LBB444:
 391              	.LBB445:
 392              		.loc 2 371 3 is_stmt 0 view .LVU98
 393 00a2 2649     		ldr	r1, .L5+40
 394              	.LBE445:
 395              	.LBE444:
 396              		.loc 1 990 3 view .LVU99
 397 00a4 3B60     		str	r3, [r7]
 398              		.loc 1 993 5 is_stmt 1 view .LVU100
 399              	.LVL21:
 400              	.LBB447:
 401              	.LBI444:
 402              		.loc 2 369 20 view .LVU101
 403              	.LBB446:
 404              		.loc 2 371 3 view .LVU102
 405 00a6 4046     		mov	r0, r8
 406 00a8 FFF7FEFF 		bl	test_printf
 407              	.LVL22:
 408              		.loc 2 371 3 is_stmt 0 view .LVU103
 409              	.LBE446:
 410              	.LBE447:
 411              		.loc 1 994 5 is_stmt 1 view .LVU104
 412              	.LBB448:
 413              	.LBI448:
 414              		.loc 2 357 20 view .LVU105
 415              	.LBB449:
 416              		.loc 2 359 3 view .LVU106
 417 00ac 0821     		movs	r1, #8
 418 00ae 3046     		mov	r0, r6
 419 00b0 FFF7FEFF 		bl	test_printf
 420              	.LVL23:
 421              		.loc 2 359 3 is_stmt 0 view .LVU107
 422              	.LBE449:
 423              	.LBE448:
 424              		.loc 1 995 5 is_stmt 1 view .LVU108
 425              	.LBB450:
 426              	.LBI450:
 427              		.loc 2 381 20 view .LVU109
ARM GAS  /tmp/ccuqlnP4.s 			page 9


 428              	.LBB451:
 429              		.loc 2 383 3 view .LVU110
 430 00b4 2946     		mov	r1, r5
 431 00b6 2046     		mov	r0, r4
 432 00b8 FFF7FEFF 		bl	test_printf
 433              	.LVL24:
 434              		.loc 2 383 3 is_stmt 0 view .LVU111
 435              	.LBE451:
 436              	.LBE450:
 437              		.loc 1 998 3 is_stmt 1 view .LVU112
 438              		.loc 1 998 19 view .LVU113
 439              		.loc 1 1001 3 view .LVU114
 440 00bc 0723     		movs	r3, #7
 441              	.LBB452:
 442              	.LBB453:
 443              		.loc 2 371 3 is_stmt 0 view .LVU115
 444 00be 2049     		ldr	r1, .L5+44
 445              	.LBE453:
 446              	.LBE452:
 447              		.loc 1 1001 3 view .LVU116
 448 00c0 3B60     		str	r3, [r7]
 449              		.loc 1 1004 5 is_stmt 1 view .LVU117
 450              	.LVL25:
 451              	.LBB455:
 452              	.LBI452:
 453              		.loc 2 369 20 view .LVU118
 454              	.LBB454:
 455              		.loc 2 371 3 view .LVU119
 456 00c2 4046     		mov	r0, r8
 457 00c4 FFF7FEFF 		bl	test_printf
 458              	.LVL26:
 459              		.loc 2 371 3 is_stmt 0 view .LVU120
 460              	.LBE454:
 461              	.LBE455:
 462              		.loc 1 1005 5 is_stmt 1 view .LVU121
 463              	.LBB456:
 464              	.LBI456:
 465              		.loc 2 357 20 view .LVU122
 466              	.LBB457:
 467              		.loc 2 359 3 view .LVU123
 468 00c8 4946     		mov	r1, r9
 469 00ca 3046     		mov	r0, r6
 470 00cc FFF7FEFF 		bl	test_printf
 471              	.LVL27:
 472              		.loc 2 359 3 is_stmt 0 view .LVU124
 473              	.LBE457:
 474              	.LBE456:
 475              		.loc 1 1006 5 is_stmt 1 view .LVU125
 476              	.LBB458:
 477              	.LBI458:
 478              		.loc 2 381 20 view .LVU126
 479              	.LBB459:
 480              		.loc 2 383 3 view .LVU127
 481 00d0 2946     		mov	r1, r5
 482 00d2 2046     		mov	r0, r4
 483 00d4 FFF7FEFF 		bl	test_printf
 484              	.LVL28:
ARM GAS  /tmp/ccuqlnP4.s 			page 10


 485              		.loc 2 383 3 is_stmt 0 view .LVU128
 486              	.LBE459:
 487              	.LBE458:
 488              		.loc 1 1009 3 is_stmt 1 view .LVU129
 489              		.loc 1 1009 19 view .LVU130
 490              		.loc 1 1012 3 view .LVU131
 491 00d8 0823     		movs	r3, #8
 492              	.LBB460:
 493              	.LBB461:
 494              		.loc 2 371 3 is_stmt 0 view .LVU132
 495 00da 1A49     		ldr	r1, .L5+48
 496              	.LBE461:
 497              	.LBE460:
 498              		.loc 1 1012 3 view .LVU133
 499 00dc 3B60     		str	r3, [r7]
 500              		.loc 1 1015 5 is_stmt 1 view .LVU134
 501              	.LVL29:
 502              	.LBB463:
 503              	.LBI460:
 504              		.loc 2 369 20 view .LVU135
 505              	.LBB462:
 506              		.loc 2 371 3 view .LVU136
 507 00de 4046     		mov	r0, r8
 508 00e0 FFF7FEFF 		bl	test_printf
 509              	.LVL30:
 510              		.loc 2 371 3 is_stmt 0 view .LVU137
 511              	.LBE462:
 512              	.LBE463:
 513              		.loc 1 1016 5 is_stmt 1 view .LVU138
 514              	.LBB464:
 515              	.LBI464:
 516              		.loc 2 357 20 view .LVU139
 517              	.LBB465:
 518              		.loc 2 359 3 view .LVU140
 519 00e4 1421     		movs	r1, #20
 520 00e6 3046     		mov	r0, r6
 521 00e8 FFF7FEFF 		bl	test_printf
 522              	.LVL31:
 523              		.loc 2 359 3 is_stmt 0 view .LVU141
 524              	.LBE465:
 525              	.LBE464:
 526              		.loc 1 1017 5 is_stmt 1 view .LVU142
 527              	.LBB466:
 528              	.LBI466:
 529              		.loc 2 381 20 view .LVU143
 530              	.LBB467:
 531              		.loc 2 383 3 view .LVU144
 532 00ec 2946     		mov	r1, r5
 533 00ee 2046     		mov	r0, r4
 534 00f0 FFF7FEFF 		bl	test_printf
 535              	.LVL32:
 536              		.loc 2 383 3 is_stmt 0 view .LVU145
 537              	.LBE467:
 538              	.LBE466:
 539              		.loc 1 1020 3 is_stmt 1 view .LVU146
 540              		.loc 1 1020 19 view .LVU147
 541              		.loc 1 1023 3 view .LVU148
ARM GAS  /tmp/ccuqlnP4.s 			page 11


 542 00f4 0923     		movs	r3, #9
 543              	.LBB468:
 544              	.LBB469:
 545              		.loc 2 371 3 is_stmt 0 view .LVU149
 546 00f6 1449     		ldr	r1, .L5+52
 547              	.LBE469:
 548              	.LBE468:
 549              		.loc 1 1023 3 view .LVU150
 550 00f8 3B60     		str	r3, [r7]
 551              		.loc 1 1026 5 is_stmt 1 view .LVU151
 552              	.LVL33:
 553              	.LBB471:
 554              	.LBI468:
 555              		.loc 2 369 20 view .LVU152
 556              	.LBB470:
 557              		.loc 2 371 3 view .LVU153
 558 00fa 4046     		mov	r0, r8
 559 00fc FFF7FEFF 		bl	test_printf
 560              	.LVL34:
 561              		.loc 2 371 3 is_stmt 0 view .LVU154
 562              	.LBE470:
 563              	.LBE471:
 564              		.loc 1 1027 5 is_stmt 1 view .LVU155
 565              	.LBB472:
 566              	.LBI472:
 567              		.loc 2 357 20 view .LVU156
 568              	.LBB473:
 569              		.loc 2 359 3 view .LVU157
 570 0100 2821     		movs	r1, #40
 571 0102 3046     		mov	r0, r6
 572 0104 FFF7FEFF 		bl	test_printf
 573              	.LVL35:
 574              		.loc 2 359 3 is_stmt 0 view .LVU158
 575              	.LBE473:
 576              	.LBE472:
 577              		.loc 1 1028 5 is_stmt 1 view .LVU159
 578              	.LBB474:
 579              	.LBI474:
 580              		.loc 2 381 20 view .LVU160
 581              	.LBB475:
 582              		.loc 2 383 3 view .LVU161
 583 0108 2946     		mov	r1, r5
 584 010a 2046     		mov	r0, r4
 585              	.LBE475:
 586              	.LBE474:
 587              		.loc 1 1032 1 is_stmt 0 view .LVU162
 588 010c BDE8F843 		pop	{r3, r4, r5, r6, r7, r8, r9, lr}
 589              		.cfi_restore 14
 590              		.cfi_restore 9
 591              		.cfi_restore 8
 592              		.cfi_restore 7
 593              		.cfi_restore 6
 594              		.cfi_restore 5
 595              		.cfi_restore 4
 596              		.cfi_restore 3
 597              		.cfi_def_cfa_offset 0
 598              	.LBB477:
ARM GAS  /tmp/ccuqlnP4.s 			page 12


 599              	.LBB476:
 600              		.loc 2 383 3 view .LVU163
 601 0110 FFF7FEBF 		b	test_printf
 602              	.LVL36:
 603              	.L6:
 604              		.align	2
 605              	.L5:
 606 0114 10000000 		.word	.LC1
 607 0118 00000000 		.word	chtest
 608 011c 14000000 		.word	.LC2
 609 0120 18000000 		.word	.LC3
 610 0124 20000000 		.word	.LC4
 611 0128 00000000 		.word	.LC0
 612 012c 28000000 		.word	.LC5
 613 0130 38000000 		.word	.LC6
 614 0134 48000000 		.word	.LC7
 615 0138 58000000 		.word	.LC8
 616 013c 68000000 		.word	.LC9
 617 0140 78000000 		.word	.LC10
 618 0144 88000000 		.word	.LC11
 619 0148 98000000 		.word	.LC12
 620              	.LBE476:
 621              	.LBE477:
 622              		.cfi_endproc
 623              	.LFE425:
 624              		.size	rt_test_012_012_execute, .-rt_test_012_012_execute
 625              		.section	.rodata.rt_test_012_011_execute.str1.4,"aMS",%progbits,1
 626              		.align	2
 627              	.LC13:
 628 0000 2D2D2D20 		.ascii	"--- Score : \000"
 628      53636F72 
 628      65203A20 
 628      00
 629 000d 000000   		.align	2
 630              	.LC14:
 631 0010 206C6F63 		.ascii	" lock+unlock/S\000"
 631      6B2B756E 
 631      6C6F636B 
 631      2F5300
 632              		.section	.text.rt_test_012_011_execute,"ax",%progbits
 633              		.align	1
 634              		.p2align 4,,15
 635              		.syntax unified
 636              		.thumb
 637              		.thumb_func
 638              		.fpu softvfp
 639              		.type	rt_test_012_011_execute, %function
 640              	rt_test_012_011_execute:
 641              	.LFB424:
 642              		.loc 1 872 43 is_stmt 1 view -0
 643              		.cfi_startproc
 644              		@ args = 0, pretend = 0, frame = 0
 645              		@ frame_needed = 0, uses_anonymous_args = 0
 646              		.loc 1 873 3 view .LVU165
 647              		.loc 1 877 3 view .LVU166
 648              		.loc 1 872 43 is_stmt 0 view .LVU167
 649 0000 2DE9F041 		push	{r4, r5, r6, r7, r8, lr}
ARM GAS  /tmp/ccuqlnP4.s 			page 13


 650              		.cfi_def_cfa_offset 24
 651              		.cfi_offset 4, -24
 652              		.cfi_offset 5, -20
 653              		.cfi_offset 6, -16
 654              		.cfi_offset 7, -12
 655              		.cfi_offset 8, -8
 656              		.cfi_offset 14, -4
 657              		.loc 1 877 3 view .LVU168
 658 0004 DFF87480 		ldr	r8, .L11
 659              	.LBB478:
 660              		.loc 1 885 7 view .LVU169
 661 0008 1D4C     		ldr	r4, .L11+4
 662              	.LBE478:
 663              		.loc 1 877 3 view .LVU170
 664 000a 0123     		movs	r3, #1
 665 000c C8F80030 		str	r3, [r8]
 666              	.LBB494:
 667              		.loc 1 879 5 is_stmt 1 view .LVU171
 668              		.loc 1 881 5 view .LVU172
 669              	.LVL37:
 670              		.loc 1 882 5 view .LVU173
 671              		.loc 1 882 13 is_stmt 0 view .LVU174
 672 0010 FFF7FEFF 		bl	test_wait_tick
 673              	.LVL38:
 674              		.loc 1 881 7 view .LVU175
 675 0014 0025     		movs	r5, #0
 676              		.loc 1 882 13 view .LVU176
 677 0016 0646     		mov	r6, r0
 678              	.LVL39:
 679              		.loc 1 883 5 is_stmt 1 view .LVU177
 680              		.loc 1 883 5 is_stmt 0 view .LVU178
 681              	.LBE494:
 682              		.file 3 "../ChibiOS/os/rt/include/chtime.h"
 683              		.loc 3 449 3 is_stmt 1 view .LVU179
 684              	.LBB495:
 685              		.loc 1 897 5 is_stmt 0 view .LVU180
 686 0018 42F20F77 		movw	r7, #9999
 687              	.LVL40:
 688              	.L8:
 689              		.loc 1 884 5 is_stmt 1 discriminator 1 view .LVU181
 690              		.loc 1 885 7 discriminator 1 view .LVU182
 691 001c 2046     		mov	r0, r4
 692 001e FFF7FEFF 		bl	chMtxLock
 693              	.LVL41:
 694              		.loc 1 886 7 discriminator 1 view .LVU183
 695 0022 2046     		mov	r0, r4
 696 0024 FFF7FEFF 		bl	chMtxUnlock
 697              	.LVL42:
 698              		.loc 1 887 7 discriminator 1 view .LVU184
 699 0028 2046     		mov	r0, r4
 700 002a FFF7FEFF 		bl	chMtxLock
 701              	.LVL43:
 702              		.loc 1 888 7 discriminator 1 view .LVU185
 703 002e 2046     		mov	r0, r4
 704 0030 FFF7FEFF 		bl	chMtxUnlock
 705              	.LVL44:
 706              		.loc 1 889 7 discriminator 1 view .LVU186
ARM GAS  /tmp/ccuqlnP4.s 			page 14


 707 0034 2046     		mov	r0, r4
 708 0036 FFF7FEFF 		bl	chMtxLock
 709              	.LVL45:
 710              		.loc 1 890 7 discriminator 1 view .LVU187
 711 003a 2046     		mov	r0, r4
 712 003c FFF7FEFF 		bl	chMtxUnlock
 713              	.LVL46:
 714              		.loc 1 891 7 discriminator 1 view .LVU188
 715 0040 2046     		mov	r0, r4
 716 0042 FFF7FEFF 		bl	chMtxLock
 717              	.LVL47:
 718              		.loc 1 892 7 discriminator 1 view .LVU189
 719 0046 2046     		mov	r0, r4
 720 0048 FFF7FEFF 		bl	chMtxUnlock
 721              	.LVL48:
 722              		.loc 1 893 7 discriminator 1 view .LVU190
 723              	.LBB479:
 724              	.LBB480:
 725              	.LBB481:
 726              	.LBB482:
 727              		.file 4 "../ChibiOS/os/hal/osal/rt-nil/chcore_timer.h"
 728              		.loc 4 113 10 is_stmt 0 discriminator 1 view .LVU191
 729 004c FFF7FEFF 		bl	stGetCounter
 730              	.LVL49:
 731              	.LBE482:
 732              	.LBE481:
 733              	.LBE480:
 734              	.LBB485:
 735              	.LBB486:
 736              		.loc 3 488 17 discriminator 1 view .LVU192
 737 0050 801B     		subs	r0, r0, r6
 738              	.LBE486:
 739              	.LBE485:
 740              	.LBE479:
 741              		.loc 1 897 5 discriminator 1 view .LVU193
 742 0052 B842     		cmp	r0, r7
 743              		.loc 1 893 8 discriminator 1 view .LVU194
 744 0054 05F10105 		add	r5, r5, #1
 745              	.LVL50:
 746              		.loc 1 897 13 is_stmt 1 discriminator 1 view .LVU195
 747              	.LBB491:
 748              	.LBI479:
 749              		.file 5 "../ChibiOS/os/rt/include/chvt.h"
 750              		.loc 5 177 20 discriminator 1 view .LVU196
 751              	.LBE491:
 752              	.LBE495:
 753              		.loc 5 179 3 discriminator 1 view .LVU197
 754              	.LBB496:
 755              	.LBB492:
 756              	.LBB488:
 757              	.LBI480:
 758              		.loc 5 122 25 discriminator 1 view .LVU198
 759              	.LBE488:
 760              	.LBE492:
 761              	.LBE496:
 762              		.loc 5 127 3 discriminator 1 view .LVU199
 763              	.LBB497:
ARM GAS  /tmp/ccuqlnP4.s 			page 15


 764              	.LBB493:
 765              	.LBB489:
 766              	.LBB484:
 767              	.LBI481:
 768              		.loc 4 111 25 discriminator 1 view .LVU200
 769              	.LBB483:
 770              		.loc 4 113 3 discriminator 1 view .LVU201
 771              		.loc 4 113 3 is_stmt 0 discriminator 1 view .LVU202
 772              	.LBE483:
 773              	.LBE484:
 774              	.LBE489:
 775              	.LBB490:
 776              	.LBI485:
 777              		.loc 3 484 20 is_stmt 1 discriminator 1 view .LVU203
 778              	.LBB487:
 779              		.loc 3 488 3 discriminator 1 view .LVU204
 780              		.loc 3 488 3 is_stmt 0 discriminator 1 view .LVU205
 781              	.LBE487:
 782              	.LBE490:
 783              	.LBE493:
 784              		.loc 1 897 5 discriminator 1 view .LVU206
 785 0058 E0D9     		bls	.L8
 786              	.LBE497:
 787              		.loc 1 899 3 is_stmt 1 view .LVU207
 788              		.loc 1 899 19 view .LVU208
 789              		.loc 1 902 3 view .LVU209
 790 005a 0223     		movs	r3, #2
 791              	.LBB498:
 792              	.LBB499:
 793              		.loc 2 371 3 is_stmt 0 view .LVU210
 794 005c 0949     		ldr	r1, .L11+8
 795 005e 0A48     		ldr	r0, .L11+12
 796              	.LBE499:
 797              	.LBE498:
 798              		.loc 1 902 3 view .LVU211
 799 0060 C8F80030 		str	r3, [r8]
 800              		.loc 1 904 5 is_stmt 1 view .LVU212
 801              	.LVL51:
 802              	.LBB501:
 803              	.LBI498:
 804              		.loc 2 369 20 view .LVU213
 805              	.LBB500:
 806              		.loc 2 371 3 view .LVU214
 807 0064 FFF7FEFF 		bl	test_printf
 808              	.LVL52:
 809              		.loc 2 371 3 is_stmt 0 view .LVU215
 810              	.LBE500:
 811              	.LBE501:
 812              		.loc 1 905 5 is_stmt 1 view .LVU216
 813              	.LBB502:
 814              	.LBI502:
 815              		.loc 2 357 20 view .LVU217
 816              	.LBB503:
 817              		.loc 2 359 3 view .LVU218
 818 0068 A900     		lsls	r1, r5, #2
 819              	.LVL53:
 820              		.loc 2 359 3 is_stmt 0 view .LVU219
ARM GAS  /tmp/ccuqlnP4.s 			page 16


 821 006a 0848     		ldr	r0, .L11+16
 822 006c FFF7FEFF 		bl	test_printf
 823              	.LVL54:
 824              		.loc 2 359 3 view .LVU220
 825              	.LBE503:
 826              	.LBE502:
 827              		.loc 1 906 5 is_stmt 1 view .LVU221
 828              	.LBB504:
 829              	.LBI504:
 830              		.loc 2 381 20 view .LVU222
 831              	.LBB505:
 832              		.loc 2 383 3 view .LVU223
 833              	.LBE505:
 834              	.LBE504:
 835              		.loc 1 909 1 is_stmt 0 view .LVU224
 836 0070 BDE8F041 		pop	{r4, r5, r6, r7, r8, lr}
 837              		.cfi_restore 14
 838              		.cfi_restore 8
 839              		.cfi_restore 7
 840              		.cfi_restore 6
 841              		.cfi_restore 5
 842              		.cfi_restore 4
 843              		.cfi_def_cfa_offset 0
 844              	.LVL55:
 845              	.LBB507:
 846              	.LBB506:
 847              		.loc 2 383 3 view .LVU225
 848 0074 0649     		ldr	r1, .L11+20
 849 0076 0748     		ldr	r0, .L11+24
 850 0078 FFF7FEBF 		b	test_printf
 851              	.LVL56:
 852              	.L12:
 853              		.align	2
 854              	.L11:
 855 007c 00000000 		.word	chtest
 856 0080 00000000 		.word	.LANCHOR0
 857 0084 00000000 		.word	.LC13
 858 0088 10000000 		.word	.LC1
 859 008c 14000000 		.word	.LC2
 860 0090 10000000 		.word	.LC14
 861 0094 20000000 		.word	.LC4
 862              	.LBE506:
 863              	.LBE507:
 864              		.cfi_endproc
 865              	.LFE424:
 866              		.size	rt_test_012_011_execute, .-rt_test_012_011_execute
 867              		.section	.text.rt_test_012_011_setup,"ax",%progbits
 868              		.align	1
 869              		.p2align 4,,15
 870              		.syntax unified
 871              		.thumb
 872              		.thumb_func
 873              		.fpu softvfp
 874              		.type	rt_test_012_011_setup, %function
 875              	rt_test_012_011_setup:
 876              	.LFB423:
 877              		.loc 1 868 41 is_stmt 1 view -0
ARM GAS  /tmp/ccuqlnP4.s 			page 17


 878              		.cfi_startproc
 879              		@ args = 0, pretend = 0, frame = 0
 880              		@ frame_needed = 0, uses_anonymous_args = 0
 881              		@ link register save eliminated.
 882              		.loc 1 869 3 view .LVU227
 883 0000 0148     		ldr	r0, .L14
 884 0002 FFF7FEBF 		b	chMtxObjectInit
 885              	.LVL57:
 886              	.L15:
 887 0006 00BF     		.align	2
 888              	.L14:
 889 0008 00000000 		.word	.LANCHOR0
 890              		.cfi_endproc
 891              	.LFE423:
 892              		.size	rt_test_012_011_setup, .-rt_test_012_011_setup
 893              		.section	.text.bmk_thread7,"ax",%progbits
 894              		.align	1
 895              		.p2align 4,,15
 896              		.syntax unified
 897              		.thumb
 898              		.thumb_func
 899              		.fpu softvfp
 900              		.type	bmk_thread7, %function
 901              	bmk_thread7:
 902              	.LVL58:
 903              	.LFB409:
 904              		.loc 1 119 37 view -0
 905              		.cfi_startproc
 906              		@ args = 0, pretend = 0, frame = 0
 907              		@ frame_needed = 0, uses_anonymous_args = 0
 908              		.loc 1 121 3 view .LVU229
 909              		.loc 1 122 3 view .LVU230
 910              		.loc 1 122 9 view .LVU231
 911              	.LBB508:
 912              	.LBI508:
 913              		.file 6 "../ChibiOS/os/rt/include/chthreads.h"
 914              		.loc 6 414 20 view .LVU232
 915              	.LBB509:
 916              		.loc 6 416 3 view .LVU233
 917              	.LBB510:
 918              	.LBI510:
 919              		.loc 6 341 25 view .LVU234
 920              	.LBB511:
 921              		.loc 6 343 3 view .LVU235
 922              	.LBE511:
 923              	.LBE510:
 924              	.LBE509:
 925              	.LBE508:
 926              		.loc 1 119 37 is_stmt 0 view .LVU236
 927 0000 38B5     		push	{r3, r4, r5, lr}
 928              		.cfi_def_cfa_offset 16
 929              		.cfi_offset 3, -16
 930              		.cfi_offset 4, -12
 931              		.cfi_offset 5, -8
 932              		.cfi_offset 14, -4
 933              	.LBB518:
 934              	.LBB516:
ARM GAS  /tmp/ccuqlnP4.s 			page 18


 935              	.LBB514:
 936              	.LBB512:
 937              		.loc 6 343 10 view .LVU237
 938 0002 084C     		ldr	r4, .L22
 939              	.LBE512:
 940              	.LBE514:
 941              		.loc 6 416 33 view .LVU238
 942 0004 E368     		ldr	r3, [r4, #12]
 943              	.LBE516:
 944              	.LBE518:
 945              		.loc 1 122 9 view .LVU239
 946 0006 93F82530 		ldrb	r3, [r3, #37]	@ zero_extendqisi2
 947 000a 5A07     		lsls	r2, r3, #29
 948 000c 08D4     		bmi	.L16
 949              		.loc 1 123 5 view .LVU240
 950 000e 064D     		ldr	r5, .L22+4
 951              	.LVL59:
 952              	.L18:
 953              		.loc 1 123 5 is_stmt 1 view .LVU241
 954 0010 2846     		mov	r0, r5
 955 0012 FFF7FEFF 		bl	chSemWait
 956              	.LVL60:
 957              		.loc 1 122 9 view .LVU242
 958              	.LBB519:
 959              		.loc 6 414 20 view .LVU243
 960              	.LBB517:
 961              		.loc 6 416 3 view .LVU244
 962              	.LBB515:
 963              		.loc 6 341 25 view .LVU245
 964              	.LBB513:
 965              		.loc 6 343 3 view .LVU246
 966              	.LBE513:
 967              	.LBE515:
 968              		.loc 6 416 33 is_stmt 0 view .LVU247
 969 0016 E368     		ldr	r3, [r4, #12]
 970              	.LBE517:
 971              	.LBE519:
 972              		.loc 1 122 9 view .LVU248
 973 0018 93F82530 		ldrb	r3, [r3, #37]	@ zero_extendqisi2
 974 001c 5B07     		lsls	r3, r3, #29
 975 001e F7D5     		bpl	.L18
 976              	.L16:
 977              		.loc 1 124 1 view .LVU249
 978 0020 38BD     		pop	{r3, r4, r5, pc}
 979              	.L23:
 980 0022 00BF     		.align	2
 981              	.L22:
 982 0024 00000000 		.word	ch0
 983 0028 00000000 		.word	.LANCHOR1
 984              		.cfi_endproc
 985              	.LFE409:
 986              		.size	bmk_thread7, .-bmk_thread7
 987              		.section	.rodata.rt_test_012_010_execute.str1.4,"aMS",%progbits,1
 988              		.align	2
 989              	.LC15:
 990 0000 20776169 		.ascii	" wait+signal/S\000"
 990      742B7369 
ARM GAS  /tmp/ccuqlnP4.s 			page 19


 990      676E616C 
 990      2F5300
 991              		.section	.text.rt_test_012_010_execute,"ax",%progbits
 992              		.align	1
 993              		.p2align 4,,15
 994              		.syntax unified
 995              		.thumb
 996              		.thumb_func
 997              		.fpu softvfp
 998              		.type	rt_test_012_010_execute, %function
 999              	rt_test_012_010_execute:
 1000              	.LFB422:
 1001              		.loc 1 798 43 is_stmt 1 view -0
 1002              		.cfi_startproc
 1003              		@ args = 0, pretend = 0, frame = 0
 1004              		@ frame_needed = 0, uses_anonymous_args = 0
 1005              		.loc 1 799 3 view .LVU251
 1006              		.loc 1 803 3 view .LVU252
 1007              		.loc 1 798 43 is_stmt 0 view .LVU253
 1008 0000 2DE9F041 		push	{r4, r5, r6, r7, r8, lr}
 1009              		.cfi_def_cfa_offset 24
 1010              		.cfi_offset 4, -24
 1011              		.cfi_offset 5, -20
 1012              		.cfi_offset 6, -16
 1013              		.cfi_offset 7, -12
 1014              		.cfi_offset 8, -8
 1015              		.cfi_offset 14, -4
 1016              		.loc 1 803 3 view .LVU254
 1017 0004 DFF87480 		ldr	r8, .L28
 1018              	.LBB520:
 1019              		.loc 1 811 7 view .LVU255
 1020 0008 1D4C     		ldr	r4, .L28+4
 1021              	.LBE520:
 1022              		.loc 1 803 3 view .LVU256
 1023 000a 0123     		movs	r3, #1
 1024 000c C8F80030 		str	r3, [r8]
 1025              	.LBB536:
 1026              		.loc 1 805 5 is_stmt 1 view .LVU257
 1027              		.loc 1 807 5 view .LVU258
 1028              	.LVL61:
 1029              		.loc 1 808 5 view .LVU259
 1030              		.loc 1 808 13 is_stmt 0 view .LVU260
 1031 0010 FFF7FEFF 		bl	test_wait_tick
 1032              	.LVL62:
 1033              		.loc 1 807 7 view .LVU261
 1034 0014 0025     		movs	r5, #0
 1035              		.loc 1 808 13 view .LVU262
 1036 0016 0646     		mov	r6, r0
 1037              	.LVL63:
 1038              		.loc 1 809 5 is_stmt 1 view .LVU263
 1039              		.loc 1 809 5 is_stmt 0 view .LVU264
 1040              	.LBE536:
 1041              		.loc 3 449 3 is_stmt 1 view .LVU265
 1042              	.LBB537:
 1043              		.loc 1 823 5 is_stmt 0 view .LVU266
 1044 0018 42F20F77 		movw	r7, #9999
 1045              	.LVL64:
ARM GAS  /tmp/ccuqlnP4.s 			page 20


 1046              	.L25:
 1047              		.loc 1 810 5 is_stmt 1 discriminator 1 view .LVU267
 1048              		.loc 1 811 7 discriminator 1 view .LVU268
 1049 001c 2046     		mov	r0, r4
 1050 001e FFF7FEFF 		bl	chSemWait
 1051              	.LVL65:
 1052              		.loc 1 812 7 discriminator 1 view .LVU269
 1053 0022 2046     		mov	r0, r4
 1054 0024 FFF7FEFF 		bl	chSemSignal
 1055              	.LVL66:
 1056              		.loc 1 813 7 discriminator 1 view .LVU270
 1057 0028 2046     		mov	r0, r4
 1058 002a FFF7FEFF 		bl	chSemWait
 1059              	.LVL67:
 1060              		.loc 1 814 7 discriminator 1 view .LVU271
 1061 002e 2046     		mov	r0, r4
 1062 0030 FFF7FEFF 		bl	chSemSignal
 1063              	.LVL68:
 1064              		.loc 1 815 7 discriminator 1 view .LVU272
 1065 0034 2046     		mov	r0, r4
 1066 0036 FFF7FEFF 		bl	chSemWait
 1067              	.LVL69:
 1068              		.loc 1 816 7 discriminator 1 view .LVU273
 1069 003a 2046     		mov	r0, r4
 1070 003c FFF7FEFF 		bl	chSemSignal
 1071              	.LVL70:
 1072              		.loc 1 817 7 discriminator 1 view .LVU274
 1073 0040 2046     		mov	r0, r4
 1074 0042 FFF7FEFF 		bl	chSemWait
 1075              	.LVL71:
 1076              		.loc 1 818 7 discriminator 1 view .LVU275
 1077 0046 2046     		mov	r0, r4
 1078 0048 FFF7FEFF 		bl	chSemSignal
 1079              	.LVL72:
 1080              		.loc 1 819 7 discriminator 1 view .LVU276
 1081              	.LBB521:
 1082              	.LBB522:
 1083              	.LBB523:
 1084              	.LBB524:
 1085              		.loc 4 113 10 is_stmt 0 discriminator 1 view .LVU277
 1086 004c FFF7FEFF 		bl	stGetCounter
 1087              	.LVL73:
 1088              	.LBE524:
 1089              	.LBE523:
 1090              	.LBE522:
 1091              	.LBB527:
 1092              	.LBB528:
 1093              		.loc 3 488 17 discriminator 1 view .LVU278
 1094 0050 801B     		subs	r0, r0, r6
 1095              	.LBE528:
 1096              	.LBE527:
 1097              	.LBE521:
 1098              		.loc 1 823 5 discriminator 1 view .LVU279
 1099 0052 B842     		cmp	r0, r7
 1100              		.loc 1 819 8 discriminator 1 view .LVU280
 1101 0054 05F10105 		add	r5, r5, #1
 1102              	.LVL74:
ARM GAS  /tmp/ccuqlnP4.s 			page 21


 1103              		.loc 1 823 13 is_stmt 1 discriminator 1 view .LVU281
 1104              	.LBB533:
 1105              	.LBI521:
 1106              		.loc 5 177 20 discriminator 1 view .LVU282
 1107              	.LBE533:
 1108              	.LBE537:
 1109              		.loc 5 179 3 discriminator 1 view .LVU283
 1110              	.LBB538:
 1111              	.LBB534:
 1112              	.LBB530:
 1113              	.LBI522:
 1114              		.loc 5 122 25 discriminator 1 view .LVU284
 1115              	.LBE530:
 1116              	.LBE534:
 1117              	.LBE538:
 1118              		.loc 5 127 3 discriminator 1 view .LVU285
 1119              	.LBB539:
 1120              	.LBB535:
 1121              	.LBB531:
 1122              	.LBB526:
 1123              	.LBI523:
 1124              		.loc 4 111 25 discriminator 1 view .LVU286
 1125              	.LBB525:
 1126              		.loc 4 113 3 discriminator 1 view .LVU287
 1127              		.loc 4 113 3 is_stmt 0 discriminator 1 view .LVU288
 1128              	.LBE525:
 1129              	.LBE526:
 1130              	.LBE531:
 1131              	.LBB532:
 1132              	.LBI527:
 1133              		.loc 3 484 20 is_stmt 1 discriminator 1 view .LVU289
 1134              	.LBB529:
 1135              		.loc 3 488 3 discriminator 1 view .LVU290
 1136              		.loc 3 488 3 is_stmt 0 discriminator 1 view .LVU291
 1137              	.LBE529:
 1138              	.LBE532:
 1139              	.LBE535:
 1140              		.loc 1 823 5 discriminator 1 view .LVU292
 1141 0058 E0D9     		bls	.L25
 1142              	.LBE539:
 1143              		.loc 1 825 3 is_stmt 1 view .LVU293
 1144              		.loc 1 825 19 view .LVU294
 1145              		.loc 1 828 3 view .LVU295
 1146 005a 0223     		movs	r3, #2
 1147              	.LBB540:
 1148              	.LBB541:
 1149              		.loc 2 371 3 is_stmt 0 view .LVU296
 1150 005c 0949     		ldr	r1, .L28+8
 1151 005e 0A48     		ldr	r0, .L28+12
 1152              	.LBE541:
 1153              	.LBE540:
 1154              		.loc 1 828 3 view .LVU297
 1155 0060 C8F80030 		str	r3, [r8]
 1156              		.loc 1 830 5 is_stmt 1 view .LVU298
 1157              	.LVL75:
 1158              	.LBB543:
 1159              	.LBI540:
ARM GAS  /tmp/ccuqlnP4.s 			page 22


 1160              		.loc 2 369 20 view .LVU299
 1161              	.LBB542:
 1162              		.loc 2 371 3 view .LVU300
 1163 0064 FFF7FEFF 		bl	test_printf
 1164              	.LVL76:
 1165              		.loc 2 371 3 is_stmt 0 view .LVU301
 1166              	.LBE542:
 1167              	.LBE543:
 1168              		.loc 1 831 5 is_stmt 1 view .LVU302
 1169              	.LBB544:
 1170              	.LBI544:
 1171              		.loc 2 357 20 view .LVU303
 1172              	.LBB545:
 1173              		.loc 2 359 3 view .LVU304
 1174 0068 A900     		lsls	r1, r5, #2
 1175              	.LVL77:
 1176              		.loc 2 359 3 is_stmt 0 view .LVU305
 1177 006a 0848     		ldr	r0, .L28+16
 1178 006c FFF7FEFF 		bl	test_printf
 1179              	.LVL78:
 1180              		.loc 2 359 3 view .LVU306
 1181              	.LBE545:
 1182              	.LBE544:
 1183              		.loc 1 832 5 is_stmt 1 view .LVU307
 1184              	.LBB546:
 1185              	.LBI546:
 1186              		.loc 2 381 20 view .LVU308
 1187              	.LBB547:
 1188              		.loc 2 383 3 view .LVU309
 1189              	.LBE547:
 1190              	.LBE546:
 1191              		.loc 1 835 1 is_stmt 0 view .LVU310
 1192 0070 BDE8F041 		pop	{r4, r5, r6, r7, r8, lr}
 1193              		.cfi_restore 14
 1194              		.cfi_restore 8
 1195              		.cfi_restore 7
 1196              		.cfi_restore 6
 1197              		.cfi_restore 5
 1198              		.cfi_restore 4
 1199              		.cfi_def_cfa_offset 0
 1200              	.LVL79:
 1201              	.LBB549:
 1202              	.LBB548:
 1203              		.loc 2 383 3 view .LVU311
 1204 0074 0649     		ldr	r1, .L28+20
 1205 0076 0748     		ldr	r0, .L28+24
 1206 0078 FFF7FEBF 		b	test_printf
 1207              	.LVL80:
 1208              	.L29:
 1209              		.align	2
 1210              	.L28:
 1211 007c 00000000 		.word	chtest
 1212 0080 00000000 		.word	.LANCHOR1
 1213 0084 00000000 		.word	.LC13
 1214 0088 10000000 		.word	.LC1
 1215 008c 14000000 		.word	.LC2
 1216 0090 00000000 		.word	.LC15
ARM GAS  /tmp/ccuqlnP4.s 			page 23


 1217 0094 20000000 		.word	.LC4
 1218              	.LBE548:
 1219              	.LBE549:
 1220              		.cfi_endproc
 1221              	.LFE422:
 1222              		.size	rt_test_012_010_execute, .-rt_test_012_010_execute
 1223              		.section	.text.rt_test_012_010_setup,"ax",%progbits
 1224              		.align	1
 1225              		.p2align 4,,15
 1226              		.syntax unified
 1227              		.thumb
 1228              		.thumb_func
 1229              		.fpu softvfp
 1230              		.type	rt_test_012_010_setup, %function
 1231              	rt_test_012_010_setup:
 1232              	.LFB421:
 1233              		.loc 1 794 41 is_stmt 1 view -0
 1234              		.cfi_startproc
 1235              		@ args = 0, pretend = 0, frame = 0
 1236              		@ frame_needed = 0, uses_anonymous_args = 0
 1237              		@ link register save eliminated.
 1238              		.loc 1 795 3 view .LVU313
 1239 0000 0148     		ldr	r0, .L31
 1240 0002 0121     		movs	r1, #1
 1241 0004 FFF7FEBF 		b	chSemObjectInit
 1242              	.LVL81:
 1243              	.L32:
 1244              		.align	2
 1245              	.L31:
 1246 0008 00000000 		.word	.LANCHOR1
 1247              		.cfi_endproc
 1248              	.LFE421:
 1249              		.size	rt_test_012_010_setup, .-rt_test_012_010_setup
 1250              		.section	.text.rt_test_012_007_setup,"ax",%progbits
 1251              		.align	1
 1252              		.p2align 4,,15
 1253              		.syntax unified
 1254              		.thumb
 1255              		.thumb_func
 1256              		.fpu softvfp
 1257              		.type	rt_test_012_007_setup, %function
 1258              	rt_test_012_007_setup:
 1259              	.LFB417:
 1260              		.loc 1 580 41 view -0
 1261              		.cfi_startproc
 1262              		@ args = 0, pretend = 0, frame = 0
 1263              		@ frame_needed = 0, uses_anonymous_args = 0
 1264              		@ link register save eliminated.
 1265              		.loc 1 581 3 view .LVU315
 1266 0000 0148     		ldr	r0, .L34
 1267 0002 0021     		movs	r1, #0
 1268 0004 FFF7FEBF 		b	chSemObjectInit
 1269              	.LVL82:
 1270              	.L35:
 1271              		.align	2
 1272              	.L34:
 1273 0008 00000000 		.word	.LANCHOR1
ARM GAS  /tmp/ccuqlnP4.s 			page 24


 1274              		.cfi_endproc
 1275              	.LFE417:
 1276              		.size	rt_test_012_007_setup, .-rt_test_012_007_setup
 1277              		.section	.rodata.rt_test_012_009_execute.str1.4,"aMS",%progbits,1
 1278              		.align	2
 1279              	.LC16:
 1280 0000 2074696D 		.ascii	" timers/S\000"
 1280      6572732F 
 1280      5300
 1281              		.section	.text.rt_test_012_009_execute,"ax",%progbits
 1282              		.align	1
 1283              		.p2align 4,,15
 1284              		.syntax unified
 1285              		.thumb
 1286              		.thumb_func
 1287              		.fpu softvfp
 1288              		.type	rt_test_012_009_execute, %function
 1289              	rt_test_012_009_execute:
 1290              	.LFB420:
 1291              		.loc 1 725 43 view -0
 1292              		.cfi_startproc
 1293              		@ args = 0, pretend = 0, frame = 0
 1294              		@ frame_needed = 0, uses_anonymous_args = 0
 1295              		.loc 1 726 3 view .LVU317
 1296              		.loc 1 727 3 view .LVU318
 1297              		.loc 1 732 3 view .LVU319
 1298              		.loc 1 725 43 is_stmt 0 view .LVU320
 1299 0000 2DE9F84F 		push	{r3, r4, r5, r6, r7, r8, r9, r10, fp, lr}
 1300              		.cfi_def_cfa_offset 40
 1301              		.cfi_offset 3, -40
 1302              		.cfi_offset 4, -36
 1303              		.cfi_offset 5, -32
 1304              		.cfi_offset 6, -28
 1305              		.cfi_offset 7, -24
 1306              		.cfi_offset 8, -20
 1307              		.cfi_offset 9, -16
 1308              		.cfi_offset 10, -12
 1309              		.cfi_offset 11, -8
 1310              		.cfi_offset 14, -4
 1311              		.loc 1 732 3 view .LVU321
 1312 0004 DFF880A0 		ldr	r10, .L40
 1313              	.LBB550:
 1314              		.loc 1 741 7 view .LVU322
 1315 0008 DFF880B0 		ldr	fp, .L40+4
 1316 000c 204E     		ldr	r6, .L40+8
 1317              		.loc 1 742 7 view .LVU323
 1318 000e 214D     		ldr	r5, .L40+12
 1319              	.LBE550:
 1320              		.loc 1 732 3 view .LVU324
 1321 0010 0123     		movs	r3, #1
 1322 0012 CAF80030 		str	r3, [r10]
 1323              	.LBB586:
 1324              		.loc 1 734 5 is_stmt 1 view .LVU325
 1325              		.loc 1 736 5 view .LVU326
 1326              	.LVL83:
 1327              		.loc 1 737 5 view .LVU327
 1328              		.loc 1 737 13 is_stmt 0 view .LVU328
ARM GAS  /tmp/ccuqlnP4.s 			page 25


 1329 0016 FFF7FEFF 		bl	test_wait_tick
 1330              	.LVL84:
 1331              		.loc 1 736 7 view .LVU329
 1332 001a 0024     		movs	r4, #0
 1333              		.loc 1 737 13 view .LVU330
 1334 001c 0746     		mov	r7, r0
 1335              	.LVL85:
 1336              		.loc 1 738 5 is_stmt 1 view .LVU331
 1337              		.loc 1 738 5 is_stmt 0 view .LVU332
 1338              	.LBE586:
 1339              		.loc 3 449 3 is_stmt 1 view .LVU333
 1340              	.LBB587:
 1341              	.LBB551:
 1342              	.LBB552:
 1343              	.LBB553:
 1344              	.LBB554:
 1345              		.file 7 "../ChibiOS/os/common/ext/ARM/CMSIS/Core/Include/cmsis_gcc.h"
 1346              		.loc 7 493 3 is_stmt 0 view .LVU334
 1347 001e 4FF03009 		mov	r9, #48
 1348              	.LBE554:
 1349              	.LBE553:
 1350              	.LBE552:
 1351              	.LBE551:
 1352              		.loc 1 741 7 view .LVU335
 1353 0022 A046     		mov	r8, r4
 1354              	.LVL86:
 1355              	.L37:
 1356              		.loc 1 739 5 is_stmt 1 discriminator 1 view .LVU336
 1357              		.loc 1 740 7 discriminator 1 view .LVU337
 1358              	.LBB559:
 1359              	.LBI551:
 1360              		.file 8 "../ChibiOS/os/rt/include/chsys.h"
 1361              		.loc 8 407 20 discriminator 1 view .LVU338
 1362              	.LBE559:
 1363              	.LBE587:
 1364              		.loc 8 409 3 discriminator 1 view .LVU339
 1365              	.LBB588:
 1366              	.LBB560:
 1367              	.LBB557:
 1368              	.LBI552:
 1369              		.file 9 "../ChibiOS/os/common/ports/ARMv7-M/chcore.h"
 1370              		.loc 9 806 27 discriminator 1 view .LVU340
 1371              	.LBE557:
 1372              	.LBE560:
 1373              	.LBE588:
 1374              		.loc 9 814 3 discriminator 1 view .LVU341
 1375              	.LBB589:
 1376              	.LBB561:
 1377              	.LBB558:
 1378              	.LBB556:
 1379              	.LBI553:
 1380              		.loc 7 491 27 discriminator 1 view .LVU342
 1381              	.LBB555:
 1382              		.loc 7 493 3 discriminator 1 view .LVU343
 1383              		.syntax unified
 1384              	@ 493 "../ChibiOS/os/common/ext/ARM/CMSIS/Core/Include/cmsis_gcc.h" 1
 1385 0024 89F31188 		MSR basepri, r9
ARM GAS  /tmp/ccuqlnP4.s 			page 26


 1386              	@ 0 "" 2
 1387              	.LVL87:
 1388              		.loc 7 493 3 is_stmt 0 discriminator 1 view .LVU344
 1389              		.thumb
 1390              		.syntax unified
 1391              	.LBE555:
 1392              	.LBE556:
 1393              	.LBE558:
 1394              	.LBE561:
 1395              	.LBE589:
 1396              		.loc 8 410 35 is_stmt 1 discriminator 1 view .LVU345
 1397              		.loc 8 411 21 discriminator 1 view .LVU346
 1398              	.LBB590:
 1399              		.loc 1 741 7 discriminator 1 view .LVU347
 1400 0028 0023     		movs	r3, #0
 1401 002a 5A46     		mov	r2, fp
 1402 002c 3046     		mov	r0, r6
 1403 002e 0121     		movs	r1, #1
 1404 0030 FFF7FEFF 		bl	chVTDoSetI
 1405              	.LVL88:
 1406              		.loc 1 742 7 discriminator 1 view .LVU348
 1407 0034 0023     		movs	r3, #0
 1408 0036 5A46     		mov	r2, fp
 1409 0038 42F21071 		movw	r1, #10000
 1410 003c 2846     		mov	r0, r5
 1411 003e FFF7FEFF 		bl	chVTDoSetI
 1412              	.LVL89:
 1413              		.loc 1 743 7 discriminator 1 view .LVU349
 1414 0042 3046     		mov	r0, r6
 1415 0044 FFF7FEFF 		bl	chVTDoResetI
 1416              	.LVL90:
 1417              		.loc 1 744 7 discriminator 1 view .LVU350
 1418 0048 2846     		mov	r0, r5
 1419 004a FFF7FEFF 		bl	chVTDoResetI
 1420              	.LVL91:
 1421              		.loc 1 745 7 discriminator 1 view .LVU351
 1422              	.LBB562:
 1423              	.LBI562:
 1424              		.loc 8 421 20 discriminator 1 view .LVU352
 1425              	.LBB563:
 1426              		.loc 8 423 23 discriminator 1 view .LVU353
 1427              		.loc 8 424 34 discriminator 1 view .LVU354
 1428              		.loc 8 430 3 discriminator 1 view .LVU355
 1429              		.loc 8 430 3 discriminator 1 view .LVU356
 1430              		.loc 8 430 3 discriminator 1 view .LVU357
 1431              		.loc 8 434 3 discriminator 1 view .LVU358
 1432              	.LBB564:
 1433              	.LBI564:
 1434              		.loc 9 830 27 discriminator 1 view .LVU359
 1435              	.LBE564:
 1436              	.LBE563:
 1437              	.LBE562:
 1438              	.LBE590:
 1439              		.loc 9 833 3 discriminator 1 view .LVU360
 1440              	.LBB591:
 1441              	.LBB569:
 1442              	.LBB568:
ARM GAS  /tmp/ccuqlnP4.s 			page 27


 1443              	.LBB567:
 1444              	.LBB565:
 1445              	.LBI565:
 1446              		.loc 7 491 27 discriminator 1 view .LVU361
 1447              	.LBB566:
 1448              		.loc 7 493 3 discriminator 1 view .LVU362
 1449              		.syntax unified
 1450              	@ 493 "../ChibiOS/os/common/ext/ARM/CMSIS/Core/Include/cmsis_gcc.h" 1
 1451 004e 88F31188 		MSR basepri, r8
 1452              	@ 0 "" 2
 1453              	.LVL92:
 1454              		.loc 7 493 3 is_stmt 0 discriminator 1 view .LVU363
 1455              		.thumb
 1456              		.syntax unified
 1457              	.LBE566:
 1458              	.LBE565:
 1459              	.LBE567:
 1460              	.LBE568:
 1461              	.LBE569:
 1462              		.loc 1 746 7 is_stmt 1 discriminator 1 view .LVU364
 1463              	.LBB570:
 1464              	.LBB571:
 1465              	.LBB572:
 1466              	.LBB573:
 1467              		.loc 4 113 10 is_stmt 0 discriminator 1 view .LVU365
 1468 0052 FFF7FEFF 		bl	stGetCounter
 1469              	.LVL93:
 1470              	.LBE573:
 1471              	.LBE572:
 1472              	.LBE571:
 1473              	.LBE570:
 1474              		.loc 1 750 5 discriminator 1 view .LVU366
 1475 0056 42F20F73 		movw	r3, #9999
 1476              	.LBB582:
 1477              	.LBB576:
 1478              	.LBB577:
 1479              		.loc 3 488 17 discriminator 1 view .LVU367
 1480 005a C01B     		subs	r0, r0, r7
 1481              	.LBE577:
 1482              	.LBE576:
 1483              	.LBE582:
 1484              		.loc 1 750 5 discriminator 1 view .LVU368
 1485 005c 9842     		cmp	r0, r3
 1486              		.loc 1 746 8 discriminator 1 view .LVU369
 1487 005e 04F10104 		add	r4, r4, #1
 1488              	.LVL94:
 1489              		.loc 1 750 13 is_stmt 1 discriminator 1 view .LVU370
 1490              	.LBB583:
 1491              	.LBI570:
 1492              		.loc 5 177 20 discriminator 1 view .LVU371
 1493              	.LBE583:
 1494              	.LBE591:
 1495              		.loc 5 179 3 discriminator 1 view .LVU372
 1496              	.LBB592:
 1497              	.LBB584:
 1498              	.LBB579:
 1499              	.LBI571:
ARM GAS  /tmp/ccuqlnP4.s 			page 28


 1500              		.loc 5 122 25 discriminator 1 view .LVU373
 1501              	.LBE579:
 1502              	.LBE584:
 1503              	.LBE592:
 1504              		.loc 5 127 3 discriminator 1 view .LVU374
 1505              	.LBB593:
 1506              	.LBB585:
 1507              	.LBB580:
 1508              	.LBB575:
 1509              	.LBI572:
 1510              		.loc 4 111 25 discriminator 1 view .LVU375
 1511              	.LBB574:
 1512              		.loc 4 113 3 discriminator 1 view .LVU376
 1513              		.loc 4 113 3 is_stmt 0 discriminator 1 view .LVU377
 1514              	.LBE574:
 1515              	.LBE575:
 1516              	.LBE580:
 1517              	.LBB581:
 1518              	.LBI576:
 1519              		.loc 3 484 20 is_stmt 1 discriminator 1 view .LVU378
 1520              	.LBB578:
 1521              		.loc 3 488 3 discriminator 1 view .LVU379
 1522              		.loc 3 488 3 is_stmt 0 discriminator 1 view .LVU380
 1523              	.LBE578:
 1524              	.LBE581:
 1525              	.LBE585:
 1526              		.loc 1 750 5 discriminator 1 view .LVU381
 1527 0062 DFD9     		bls	.L37
 1528              	.LBE593:
 1529              		.loc 1 752 3 is_stmt 1 view .LVU382
 1530              		.loc 1 752 19 view .LVU383
 1531              		.loc 1 755 3 view .LVU384
 1532 0064 0223     		movs	r3, #2
 1533              	.LBB594:
 1534              	.LBB595:
 1535              		.loc 2 371 3 is_stmt 0 view .LVU385
 1536 0066 0C49     		ldr	r1, .L40+16
 1537 0068 0C48     		ldr	r0, .L40+20
 1538              	.LBE595:
 1539              	.LBE594:
 1540              		.loc 1 755 3 view .LVU386
 1541 006a CAF80030 		str	r3, [r10]
 1542              		.loc 1 757 5 is_stmt 1 view .LVU387
 1543              	.LVL95:
 1544              	.LBB597:
 1545              	.LBI594:
 1546              		.loc 2 369 20 view .LVU388
 1547              	.LBB596:
 1548              		.loc 2 371 3 view .LVU389
 1549 006e FFF7FEFF 		bl	test_printf
 1550              	.LVL96:
 1551              		.loc 2 371 3 is_stmt 0 view .LVU390
 1552              	.LBE596:
 1553              	.LBE597:
 1554              		.loc 1 758 5 is_stmt 1 view .LVU391
 1555              	.LBB598:
 1556              	.LBI598:
ARM GAS  /tmp/ccuqlnP4.s 			page 29


 1557              		.loc 2 357 20 view .LVU392
 1558              	.LBB599:
 1559              		.loc 2 359 3 view .LVU393
 1560 0072 6100     		lsls	r1, r4, #1
 1561              	.LVL97:
 1562              		.loc 2 359 3 is_stmt 0 view .LVU394
 1563 0074 0A48     		ldr	r0, .L40+24
 1564 0076 FFF7FEFF 		bl	test_printf
 1565              	.LVL98:
 1566              		.loc 2 359 3 view .LVU395
 1567              	.LBE599:
 1568              	.LBE598:
 1569              		.loc 1 759 5 is_stmt 1 view .LVU396
 1570              	.LBB600:
 1571              	.LBI600:
 1572              		.loc 2 381 20 view .LVU397
 1573              	.LBB601:
 1574              		.loc 2 383 3 view .LVU398
 1575              	.LBE601:
 1576              	.LBE600:
 1577              		.loc 1 762 1 is_stmt 0 view .LVU399
 1578 007a BDE8F84F 		pop	{r3, r4, r5, r6, r7, r8, r9, r10, fp, lr}
 1579              		.cfi_restore 14
 1580              		.cfi_restore 11
 1581              		.cfi_restore 10
 1582              		.cfi_restore 9
 1583              		.cfi_restore 8
 1584              		.cfi_restore 7
 1585              		.cfi_restore 6
 1586              		.cfi_restore 5
 1587              		.cfi_restore 4
 1588              		.cfi_restore 3
 1589              		.cfi_def_cfa_offset 0
 1590              	.LVL99:
 1591              	.LBB603:
 1592              	.LBB602:
 1593              		.loc 2 383 3 view .LVU400
 1594 007e 0949     		ldr	r1, .L40+28
 1595 0080 0948     		ldr	r0, .L40+32
 1596 0082 FFF7FEBF 		b	test_printf
 1597              	.LVL100:
 1598              	.L41:
 1599 0086 00BF     		.align	2
 1600              	.L40:
 1601 0088 00000000 		.word	chtest
 1602 008c 00000000 		.word	tmo
 1603 0090 00000000 		.word	.LANCHOR2
 1604 0094 00000000 		.word	.LANCHOR3
 1605 0098 00000000 		.word	.LC13
 1606 009c 10000000 		.word	.LC1
 1607 00a0 14000000 		.word	.LC2
 1608 00a4 00000000 		.word	.LC16
 1609 00a8 20000000 		.word	.LC4
 1610              	.LBE602:
 1611              	.LBE603:
 1612              		.cfi_endproc
 1613              	.LFE420:
ARM GAS  /tmp/ccuqlnP4.s 			page 30


 1614              		.size	rt_test_012_009_execute, .-rt_test_012_009_execute
 1615              		.section	.rodata.rt_test_012_008_execute.str1.4,"aMS",%progbits,1
 1616              		.align	2
 1617              	.LC17:
 1618 0000 20637478 		.ascii	" ctxswc/S\000"
 1618      7377632F 
 1618      5300
 1619              		.section	.text.rt_test_012_008_execute,"ax",%progbits
 1620              		.align	1
 1621              		.p2align 4,,15
 1622              		.syntax unified
 1623              		.thumb
 1624              		.thumb_func
 1625              		.fpu softvfp
 1626              		.type	rt_test_012_008_execute, %function
 1627              	rt_test_012_008_execute:
 1628              	.LFB419:
 1629              		.loc 1 665 43 is_stmt 1 view -0
 1630              		.cfi_startproc
 1631              		@ args = 0, pretend = 0, frame = 8
 1632              		@ frame_needed = 0, uses_anonymous_args = 0
 1633              		.loc 1 666 3 view .LVU402
 1634              		.loc 1 671 3 view .LVU403
 1635              		.loc 1 665 43 is_stmt 0 view .LVU404
 1636 0000 2DE9F043 		push	{r4, r5, r6, r7, r8, r9, lr}
 1637              		.cfi_def_cfa_offset 28
 1638              		.cfi_offset 4, -28
 1639              		.cfi_offset 5, -24
 1640              		.cfi_offset 6, -20
 1641              		.cfi_offset 7, -16
 1642              		.cfi_offset 8, -12
 1643              		.cfi_offset 9, -8
 1644              		.cfi_offset 14, -4
 1645              	.LBB604:
 1646              	.LBB605:
 1647              	.LBB606:
 1648              	.LBB607:
 1649              		.loc 6 343 10 view .LVU405
 1650 0004 DFF8D080 		ldr	r8, .L44
 1651              	.LBE607:
 1652              	.LBE606:
 1653              	.LBE605:
 1654              	.LBE604:
 1655              		.loc 1 671 3 view .LVU406
 1656 0008 DFF8D090 		ldr	r9, .L44+4
 1657              		.loc 1 674 35 view .LVU407
 1658 000c 344F     		ldr	r7, .L44+8
 1659 000e 354D     		ldr	r5, .L44+12
 1660              		.loc 1 674 33 view .LVU408
 1661 0010 354C     		ldr	r4, .L44+16
 1662              		.loc 1 665 43 view .LVU409
 1663 0012 85B0     		sub	sp, sp, #20
 1664              		.cfi_def_cfa_offset 48
 1665              		.loc 1 671 3 view .LVU410
 1666 0014 0122     		movs	r2, #1
 1667              		.loc 1 673 7 view .LVU411
 1668 0016 0023     		movs	r3, #0
ARM GAS  /tmp/ccuqlnP4.s 			page 31


 1669              		.loc 1 671 3 view .LVU412
 1670 0018 C9F80020 		str	r2, [r9]
 1671              		.loc 1 673 5 is_stmt 1 view .LVU413
 1672              		.loc 1 673 7 is_stmt 0 view .LVU414
 1673 001c 0393     		str	r3, [sp, #12]
 1674              		.loc 1 674 5 is_stmt 1 view .LVU415
 1675 001e FFF7FEFF 		bl	test_wait_tick
 1676              	.LVL101:
 1677              		.loc 1 674 22 view .LVU416
 1678              	.LBB611:
 1679              	.LBI604:
 1680              		.loc 6 354 23 view .LVU417
 1681              	.LBB610:
 1682              		.loc 6 356 3 view .LVU418
 1683              	.LBB609:
 1684              	.LBI606:
 1685              		.loc 6 341 25 view .LVU419
 1686              	.LBB608:
 1687              		.loc 6 343 3 view .LVU420
 1688              	.LBE608:
 1689              	.LBE609:
 1690              		.loc 6 356 37 is_stmt 0 view .LVU421
 1691 0022 D8F80C30 		ldr	r3, [r8, #12]
 1692              	.LBE610:
 1693              	.LBE611:
 1694              		.loc 1 674 35 view .LVU422
 1695 0026 2868     		ldr	r0, [r5]
 1696 0028 9A68     		ldr	r2, [r3, #8]
 1697 002a 03AE     		add	r6, sp, #12
 1698 002c 3B46     		mov	r3, r7
 1699 002e 013A     		subs	r2, r2, #1
 1700 0030 0096     		str	r6, [sp]
 1701 0032 4FF4B871 		mov	r1, #368
 1702 0036 FFF7FEFF 		bl	chThdCreateStatic
 1703              	.LVL102:
 1704              	.LBB612:
 1705              	.LBB613:
 1706              		.loc 6 356 37 view .LVU423
 1707 003a D8F80C30 		ldr	r3, [r8, #12]
 1708              	.LBE613:
 1709              	.LBE612:
 1710              		.loc 1 674 33 view .LVU424
 1711 003e 2060     		str	r0, [r4]
 1712              		.loc 1 676 5 is_stmt 1 view .LVU425
 1713              	.LBB617:
 1714              	.LBI612:
 1715              		.loc 6 354 23 view .LVU426
 1716              	.LBB616:
 1717              		.loc 6 356 3 view .LVU427
 1718              	.LBB614:
 1719              	.LBI614:
 1720              		.loc 6 341 25 view .LVU428
 1721              	.LBB615:
 1722              		.loc 6 343 3 view .LVU429
 1723              	.LBE615:
 1724              	.LBE614:
 1725              	.LBE616:
ARM GAS  /tmp/ccuqlnP4.s 			page 32


 1726              	.LBE617:
 1727              		.loc 1 676 18 is_stmt 0 view .LVU430
 1728 0040 9A68     		ldr	r2, [r3, #8]
 1729 0042 6868     		ldr	r0, [r5, #4]
 1730 0044 0096     		str	r6, [sp]
 1731 0046 3B46     		mov	r3, r7
 1732 0048 013A     		subs	r2, r2, #1
 1733 004a 4FF4B871 		mov	r1, #368
 1734 004e FFF7FEFF 		bl	chThdCreateStatic
 1735              	.LVL103:
 1736              	.LBB618:
 1737              	.LBB619:
 1738              		.loc 6 356 37 view .LVU431
 1739 0052 D8F80C30 		ldr	r3, [r8, #12]
 1740              	.LBE619:
 1741              	.LBE618:
 1742              		.loc 1 676 16 view .LVU432
 1743 0056 6060     		str	r0, [r4, #4]
 1744              		.loc 1 677 5 is_stmt 1 view .LVU433
 1745              	.LBB623:
 1746              	.LBI618:
 1747              		.loc 6 354 23 view .LVU434
 1748              	.LBB622:
 1749              		.loc 6 356 3 view .LVU435
 1750              	.LBB620:
 1751              	.LBI620:
 1752              		.loc 6 341 25 view .LVU436
 1753              	.LBB621:
 1754              		.loc 6 343 3 view .LVU437
 1755              	.LBE621:
 1756              	.LBE620:
 1757              	.LBE622:
 1758              	.LBE623:
 1759              		.loc 1 677 18 is_stmt 0 view .LVU438
 1760 0058 9A68     		ldr	r2, [r3, #8]
 1761 005a A868     		ldr	r0, [r5, #8]
 1762 005c 0096     		str	r6, [sp]
 1763 005e 3B46     		mov	r3, r7
 1764 0060 013A     		subs	r2, r2, #1
 1765 0062 4FF4B871 		mov	r1, #368
 1766 0066 FFF7FEFF 		bl	chThdCreateStatic
 1767              	.LVL104:
 1768              	.LBB624:
 1769              	.LBB625:
 1770              		.loc 6 356 37 view .LVU439
 1771 006a D8F80C30 		ldr	r3, [r8, #12]
 1772              	.LBE625:
 1773              	.LBE624:
 1774              		.loc 1 677 16 view .LVU440
 1775 006e A060     		str	r0, [r4, #8]
 1776              		.loc 1 678 5 is_stmt 1 view .LVU441
 1777              	.LBB629:
 1778              	.LBI624:
 1779              		.loc 6 354 23 view .LVU442
 1780              	.LBB628:
 1781              		.loc 6 356 3 view .LVU443
 1782              	.LBB626:
ARM GAS  /tmp/ccuqlnP4.s 			page 33


 1783              	.LBI626:
 1784              		.loc 6 341 25 view .LVU444
 1785              	.LBB627:
 1786              		.loc 6 343 3 view .LVU445
 1787              	.LBE627:
 1788              	.LBE626:
 1789              	.LBE628:
 1790              	.LBE629:
 1791              		.loc 1 678 18 is_stmt 0 view .LVU446
 1792 0070 9A68     		ldr	r2, [r3, #8]
 1793 0072 E868     		ldr	r0, [r5, #12]
 1794 0074 0096     		str	r6, [sp]
 1795 0076 3B46     		mov	r3, r7
 1796 0078 013A     		subs	r2, r2, #1
 1797 007a 4FF4B871 		mov	r1, #368
 1798 007e FFF7FEFF 		bl	chThdCreateStatic
 1799              	.LVL105:
 1800              	.LBB630:
 1801              	.LBB631:
 1802              		.loc 6 356 37 view .LVU447
 1803 0082 D8F80C20 		ldr	r2, [r8, #12]
 1804              	.LBE631:
 1805              	.LBE630:
 1806              		.loc 1 678 16 view .LVU448
 1807 0086 E060     		str	r0, [r4, #12]
 1808              		.loc 1 679 5 is_stmt 1 view .LVU449
 1809              	.LBB635:
 1810              	.LBI630:
 1811              		.loc 6 354 23 view .LVU450
 1812              	.LBB634:
 1813              		.loc 6 356 3 view .LVU451
 1814              	.LBB632:
 1815              	.LBI632:
 1816              		.loc 6 341 25 view .LVU452
 1817              	.LBB633:
 1818              		.loc 6 343 3 view .LVU453
 1819              	.LBE633:
 1820              	.LBE632:
 1821              	.LBE634:
 1822              	.LBE635:
 1823              		.loc 1 679 18 is_stmt 0 view .LVU454
 1824 0088 9268     		ldr	r2, [r2, #8]
 1825 008a 2869     		ldr	r0, [r5, #16]
 1826 008c 0096     		str	r6, [sp]
 1827 008e 4FF4B871 		mov	r1, #368
 1828 0092 3B46     		mov	r3, r7
 1829 0094 013A     		subs	r2, r2, #1
 1830 0096 FFF7FEFF 		bl	chThdCreateStatic
 1831              	.LVL106:
 1832              		.loc 1 684 3 view .LVU455
 1833 009a 0223     		movs	r3, #2
 1834              		.loc 1 679 18 view .LVU456
 1835 009c 0246     		mov	r2, r0
 1836              		.loc 1 686 5 view .LVU457
 1837 009e 42F21070 		movw	r0, #10000
 1838              		.loc 1 679 16 view .LVU458
 1839 00a2 2261     		str	r2, [r4, #16]
ARM GAS  /tmp/ccuqlnP4.s 			page 34


 1840              		.loc 1 681 3 is_stmt 1 view .LVU459
 1841              		.loc 1 681 19 view .LVU460
 1842              		.loc 1 684 3 view .LVU461
 1843 00a4 C9F80030 		str	r3, [r9]
 1844              		.loc 1 686 5 view .LVU462
 1845 00a8 FFF7FEFF 		bl	chThdSleep
 1846              	.LVL107:
 1847              		.loc 1 687 5 view .LVU463
 1848 00ac FFF7FEFF 		bl	test_terminate_threads
 1849              	.LVL108:
 1850              		.loc 1 688 5 view .LVU464
 1851 00b0 FFF7FEFF 		bl	test_wait_threads
 1852              	.LVL109:
 1853              		.loc 1 690 3 view .LVU465
 1854              		.loc 1 690 19 view .LVU466
 1855              		.loc 1 693 3 view .LVU467
 1856 00b4 0323     		movs	r3, #3
 1857              	.LBB636:
 1858              	.LBB637:
 1859              		.loc 2 371 3 is_stmt 0 view .LVU468
 1860 00b6 0D49     		ldr	r1, .L44+20
 1861 00b8 0D48     		ldr	r0, .L44+24
 1862              	.LBE637:
 1863              	.LBE636:
 1864              		.loc 1 693 3 view .LVU469
 1865 00ba C9F80030 		str	r3, [r9]
 1866              		.loc 1 695 5 is_stmt 1 view .LVU470
 1867              	.LVL110:
 1868              	.LBB639:
 1869              	.LBI636:
 1870              		.loc 2 369 20 view .LVU471
 1871              	.LBB638:
 1872              		.loc 2 371 3 view .LVU472
 1873 00be FFF7FEFF 		bl	test_printf
 1874              	.LVL111:
 1875              		.loc 2 371 3 is_stmt 0 view .LVU473
 1876              	.LBE638:
 1877              	.LBE639:
 1878              		.loc 1 696 5 is_stmt 1 view .LVU474
 1879              	.LBB640:
 1880              	.LBI640:
 1881              		.loc 2 357 20 view .LVU475
 1882              	.LBB641:
 1883              		.loc 2 359 3 view .LVU476
 1884 00c2 0399     		ldr	r1, [sp, #12]
 1885 00c4 0B48     		ldr	r0, .L44+28
 1886 00c6 FFF7FEFF 		bl	test_printf
 1887              	.LVL112:
 1888              		.loc 2 359 3 is_stmt 0 view .LVU477
 1889              	.LBE641:
 1890              	.LBE640:
 1891              		.loc 1 697 5 is_stmt 1 view .LVU478
 1892              	.LBB642:
 1893              	.LBI642:
 1894              		.loc 2 381 20 view .LVU479
 1895              	.LBB643:
 1896              		.loc 2 383 3 view .LVU480
ARM GAS  /tmp/ccuqlnP4.s 			page 35


 1897 00ca 0B49     		ldr	r1, .L44+32
 1898 00cc 0B48     		ldr	r0, .L44+36
 1899 00ce FFF7FEFF 		bl	test_printf
 1900              	.LVL113:
 1901              		.loc 2 383 3 is_stmt 0 view .LVU481
 1902              	.LBE643:
 1903              	.LBE642:
 1904              		.loc 1 699 3 is_stmt 1 view .LVU482
 1905              		.loc 1 699 19 view .LVU483
 1906              		.loc 1 700 1 is_stmt 0 view .LVU484
 1907 00d2 05B0     		add	sp, sp, #20
 1908              		.cfi_def_cfa_offset 28
 1909              		@ sp needed
 1910 00d4 BDE8F083 		pop	{r4, r5, r6, r7, r8, r9, pc}
 1911              	.L45:
 1912              		.align	2
 1913              	.L44:
 1914 00d8 00000000 		.word	ch0
 1915 00dc 00000000 		.word	chtest
 1916 00e0 00000000 		.word	bmk_thread8
 1917 00e4 00000000 		.word	wa
 1918 00e8 00000000 		.word	threads
 1919 00ec 00000000 		.word	.LC13
 1920 00f0 10000000 		.word	.LC1
 1921 00f4 14000000 		.word	.LC2
 1922 00f8 00000000 		.word	.LC17
 1923 00fc 20000000 		.word	.LC4
 1924              		.cfi_endproc
 1925              	.LFE419:
 1926              		.size	rt_test_012_008_execute, .-rt_test_012_008_execute
 1927              		.section	.text.bmk_thread8,"ax",%progbits
 1928              		.align	1
 1929              		.p2align 4,,15
 1930              		.syntax unified
 1931              		.thumb
 1932              		.thumb_func
 1933              		.fpu softvfp
 1934              		.type	bmk_thread8, %function
 1935              	bmk_thread8:
 1936              	.LVL114:
 1937              	.LFB410:
 1938              		.loc 1 127 37 is_stmt 1 view -0
 1939              		.cfi_startproc
 1940              		@ args = 0, pretend = 0, frame = 0
 1941              		@ frame_needed = 0, uses_anonymous_args = 0
 1942              		.loc 1 127 37 is_stmt 0 view .LVU486
 1943 0000 38B5     		push	{r3, r4, r5, lr}
 1944              		.cfi_def_cfa_offset 16
 1945              		.cfi_offset 3, -16
 1946              		.cfi_offset 4, -12
 1947              		.cfi_offset 5, -8
 1948              		.cfi_offset 14, -4
 1949 0002 094D     		ldr	r5, .L51
 1950              		.loc 1 127 37 view .LVU487
 1951 0004 0446     		mov	r4, r0
 1952              	.LVL115:
 1953              	.L47:
ARM GAS  /tmp/ccuqlnP4.s 			page 36


 1954              		.loc 1 129 3 is_stmt 1 discriminator 1 view .LVU488
 1955              		.loc 1 130 5 discriminator 1 view .LVU489
 1956 0006 FFF7FEFF 		bl	chThdYield
 1957              	.LVL116:
 1958              		.loc 1 131 5 discriminator 1 view .LVU490
 1959 000a FFF7FEFF 		bl	chThdYield
 1960              	.LVL117:
 1961              		.loc 1 132 5 discriminator 1 view .LVU491
 1962 000e FFF7FEFF 		bl	chThdYield
 1963              	.LVL118:
 1964              		.loc 1 133 5 discriminator 1 view .LVU492
 1965 0012 FFF7FEFF 		bl	chThdYield
 1966              	.LVL119:
 1967              		.loc 1 134 5 discriminator 1 view .LVU493
 1968              		.loc 1 134 22 is_stmt 0 discriminator 1 view .LVU494
 1969 0016 2368     		ldr	r3, [r4]
 1970              	.LBB644:
 1971              	.LBB645:
 1972              		.loc 6 416 33 discriminator 1 view .LVU495
 1973 0018 EA68     		ldr	r2, [r5, #12]
 1974              	.LBE645:
 1975              	.LBE644:
 1976              		.loc 1 134 22 discriminator 1 view .LVU496
 1977 001a 0433     		adds	r3, r3, #4
 1978 001c 2360     		str	r3, [r4]
 1979              		.loc 1 138 10 is_stmt 1 discriminator 1 view .LVU497
 1980              	.LBB649:
 1981              	.LBI644:
 1982              		.loc 6 414 20 discriminator 1 view .LVU498
 1983              	.LBB648:
 1984              		.loc 6 416 3 discriminator 1 view .LVU499
 1985              	.LBB646:
 1986              	.LBI646:
 1987              		.loc 6 341 25 discriminator 1 view .LVU500
 1988              	.LBB647:
 1989              		.loc 6 343 3 discriminator 1 view .LVU501
 1990              	.LBE647:
 1991              	.LBE646:
 1992              	.LBE648:
 1993              	.LBE649:
 1994              		.loc 1 138 3 is_stmt 0 discriminator 1 view .LVU502
 1995 001e 92F82530 		ldrb	r3, [r2, #37]	@ zero_extendqisi2
 1996 0022 5B07     		lsls	r3, r3, #29
 1997 0024 EFD5     		bpl	.L47
 1998              		.loc 1 139 1 view .LVU503
 1999 0026 38BD     		pop	{r3, r4, r5, pc}
 2000              	.LVL120:
 2001              	.L52:
 2002              		.loc 1 139 1 view .LVU504
 2003              		.align	2
 2004              	.L51:
 2005 0028 00000000 		.word	ch0
 2006              		.cfi_endproc
 2007              	.LFE410:
 2008              		.size	bmk_thread8, .-bmk_thread8
 2009              		.section	.rodata.rt_test_012_007_execute.str1.4,"aMS",%progbits,1
 2010              		.align	2
ARM GAS  /tmp/ccuqlnP4.s 			page 37


 2011              	.LC18:
 2012 0000 20726573 		.ascii	" reschedules/S, \000"
 2012      63686564 
 2012      756C6573 
 2012      2F532C20 
 2012      00
 2013              		.section	.text.rt_test_012_007_execute,"ax",%progbits
 2014              		.align	1
 2015              		.p2align 4,,15
 2016              		.syntax unified
 2017              		.thumb
 2018              		.thumb_func
 2019              		.fpu softvfp
 2020              		.type	rt_test_012_007_execute, %function
 2021              	rt_test_012_007_execute:
 2022              	.LFB418:
 2023              		.loc 1 584 43 is_stmt 1 view -0
 2024              		.cfi_startproc
 2025              		@ args = 0, pretend = 0, frame = 0
 2026              		@ frame_needed = 0, uses_anonymous_args = 0
 2027              		.loc 1 585 3 view .LVU506
 2028              		.loc 1 589 3 view .LVU507
 2029              		.loc 1 584 43 is_stmt 0 view .LVU508
 2030 0000 2DE9F041 		push	{r4, r5, r6, r7, r8, lr}
 2031              		.cfi_def_cfa_offset 24
 2032              		.cfi_offset 4, -24
 2033              		.cfi_offset 5, -20
 2034              		.cfi_offset 6, -16
 2035              		.cfi_offset 7, -12
 2036              		.cfi_offset 8, -8
 2037              		.cfi_offset 14, -4
 2038              	.LBB650:
 2039              	.LBB651:
 2040              	.LBB652:
 2041              	.LBB653:
 2042              		.loc 6 343 10 view .LVU509
 2043 0004 DFF80081 		ldr	r8, .L57
 2044              	.LBE653:
 2045              	.LBE652:
 2046              	.LBE651:
 2047              	.LBE650:
 2048              		.loc 1 591 18 view .LVU510
 2049 0008 404E     		ldr	r6, .L57+4
 2050              	.LBB658:
 2051              	.LBB656:
 2052              		.loc 6 356 37 view .LVU511
 2053 000a D8F80C30 		ldr	r3, [r8, #12]
 2054              	.LBE656:
 2055              	.LBE658:
 2056              		.loc 1 589 3 view .LVU512
 2057 000e 404F     		ldr	r7, .L57+8
 2058              		.loc 1 591 18 view .LVU513
 2059 0010 9A68     		ldr	r2, [r3, #8]
 2060 0012 3068     		ldr	r0, [r6]
 2061 0014 3F4B     		ldr	r3, .L57+12
 2062              		.loc 1 584 43 view .LVU514
 2063 0016 82B0     		sub	sp, sp, #8
ARM GAS  /tmp/ccuqlnP4.s 			page 38


 2064              		.cfi_def_cfa_offset 32
 2065              		.loc 1 591 18 view .LVU515
 2066 0018 0024     		movs	r4, #0
 2067 001a 0532     		adds	r2, r2, #5
 2068 001c 4FF4B871 		mov	r1, #368
 2069              		.loc 1 589 3 view .LVU516
 2070 0020 0125     		movs	r5, #1
 2071              		.loc 1 591 18 view .LVU517
 2072 0022 0094     		str	r4, [sp]
 2073              		.loc 1 589 3 view .LVU518
 2074 0024 3D60     		str	r5, [r7]
 2075              		.loc 1 591 5 is_stmt 1 view .LVU519
 2076              	.LBB659:
 2077              	.LBI650:
 2078              		.loc 6 354 23 view .LVU520
 2079              	.LBB657:
 2080              		.loc 6 356 3 view .LVU521
 2081              	.LBB655:
 2082              	.LBI652:
 2083              		.loc 6 341 25 view .LVU522
 2084              	.LBB654:
 2085              		.loc 6 343 3 view .LVU523
 2086              	.LBE654:
 2087              	.LBE655:
 2088              	.LBE657:
 2089              	.LBE659:
 2090              		.loc 1 591 18 is_stmt 0 view .LVU524
 2091 0026 FFF7FEFF 		bl	chThdCreateStatic
 2092              	.LVL121:
 2093              	.LBB660:
 2094              	.LBB661:
 2095              		.loc 6 356 37 view .LVU525
 2096 002a D8F80C30 		ldr	r3, [r8, #12]
 2097              	.LBE661:
 2098              	.LBE660:
 2099              		.loc 1 591 16 view .LVU526
 2100 002e 3A4D     		ldr	r5, .L57+16
 2101              		.loc 1 592 18 view .LVU527
 2102 0030 9A68     		ldr	r2, [r3, #8]
 2103 0032 384B     		ldr	r3, .L57+12
 2104 0034 0094     		str	r4, [sp]
 2105 0036 0432     		adds	r2, r2, #4
 2106              		.loc 1 591 16 view .LVU528
 2107 0038 2860     		str	r0, [r5]
 2108              		.loc 1 592 5 is_stmt 1 view .LVU529
 2109              	.LBB665:
 2110              	.LBI660:
 2111              		.loc 6 354 23 view .LVU530
 2112              	.LBB664:
 2113              		.loc 6 356 3 view .LVU531
 2114              	.LBB662:
 2115              	.LBI662:
 2116              		.loc 6 341 25 view .LVU532
 2117              	.LBB663:
 2118              		.loc 6 343 3 view .LVU533
 2119              	.LBE663:
 2120              	.LBE662:
ARM GAS  /tmp/ccuqlnP4.s 			page 39


 2121              	.LBE664:
 2122              	.LBE665:
 2123              		.loc 1 592 18 is_stmt 0 view .LVU534
 2124 003a 4FF4B871 		mov	r1, #368
 2125 003e 7068     		ldr	r0, [r6, #4]
 2126 0040 FFF7FEFF 		bl	chThdCreateStatic
 2127              	.LVL122:
 2128              	.LBB666:
 2129              	.LBB667:
 2130              		.loc 6 356 37 view .LVU535
 2131 0044 D8F80C30 		ldr	r3, [r8, #12]
 2132              	.LBE667:
 2133              	.LBE666:
 2134              		.loc 1 592 16 view .LVU536
 2135 0048 6860     		str	r0, [r5, #4]
 2136              		.loc 1 593 5 is_stmt 1 view .LVU537
 2137              	.LBB671:
 2138              	.LBI666:
 2139              		.loc 6 354 23 view .LVU538
 2140              	.LBB670:
 2141              		.loc 6 356 3 view .LVU539
 2142              	.LBB668:
 2143              	.LBI668:
 2144              		.loc 6 341 25 view .LVU540
 2145              	.LBB669:
 2146              		.loc 6 343 3 view .LVU541
 2147              	.LBE669:
 2148              	.LBE668:
 2149              	.LBE670:
 2150              	.LBE671:
 2151              		.loc 1 593 18 is_stmt 0 view .LVU542
 2152 004a 9A68     		ldr	r2, [r3, #8]
 2153 004c B068     		ldr	r0, [r6, #8]
 2154 004e 314B     		ldr	r3, .L57+12
 2155 0050 0094     		str	r4, [sp]
 2156 0052 0332     		adds	r2, r2, #3
 2157 0054 4FF4B871 		mov	r1, #368
 2158 0058 FFF7FEFF 		bl	chThdCreateStatic
 2159              	.LVL123:
 2160              	.LBB672:
 2161              	.LBB673:
 2162              		.loc 6 356 37 view .LVU543
 2163 005c D8F80C30 		ldr	r3, [r8, #12]
 2164              	.LBE673:
 2165              	.LBE672:
 2166              		.loc 1 593 16 view .LVU544
 2167 0060 A860     		str	r0, [r5, #8]
 2168              		.loc 1 594 5 is_stmt 1 view .LVU545
 2169              	.LBB677:
 2170              	.LBI672:
 2171              		.loc 6 354 23 view .LVU546
 2172              	.LBB676:
 2173              		.loc 6 356 3 view .LVU547
 2174              	.LBB674:
 2175              	.LBI674:
 2176              		.loc 6 341 25 view .LVU548
 2177              	.LBB675:
ARM GAS  /tmp/ccuqlnP4.s 			page 40


 2178              		.loc 6 343 3 view .LVU549
 2179              	.LBE675:
 2180              	.LBE674:
 2181              	.LBE676:
 2182              	.LBE677:
 2183              		.loc 1 594 18 is_stmt 0 view .LVU550
 2184 0062 9A68     		ldr	r2, [r3, #8]
 2185 0064 F068     		ldr	r0, [r6, #12]
 2186 0066 2B4B     		ldr	r3, .L57+12
 2187 0068 0094     		str	r4, [sp]
 2188 006a 0232     		adds	r2, r2, #2
 2189 006c 4FF4B871 		mov	r1, #368
 2190 0070 FFF7FEFF 		bl	chThdCreateStatic
 2191              	.LVL124:
 2192              	.LBB678:
 2193              	.LBB679:
 2194              		.loc 6 356 37 view .LVU551
 2195 0074 D8F80C30 		ldr	r3, [r8, #12]
 2196              	.LBE679:
 2197              	.LBE678:
 2198              		.loc 1 594 16 view .LVU552
 2199 0078 E860     		str	r0, [r5, #12]
 2200              		.loc 1 595 5 is_stmt 1 view .LVU553
 2201              	.LBB683:
 2202              	.LBI678:
 2203              		.loc 6 354 23 view .LVU554
 2204              	.LBB682:
 2205              		.loc 6 356 3 view .LVU555
 2206              	.LBB680:
 2207              	.LBI680:
 2208              		.loc 6 341 25 view .LVU556
 2209              	.LBB681:
 2210              		.loc 6 343 3 view .LVU557
 2211              	.LBE681:
 2212              	.LBE680:
 2213              	.LBE682:
 2214              	.LBE683:
 2215              		.loc 1 595 18 is_stmt 0 view .LVU558
 2216 007a 9A68     		ldr	r2, [r3, #8]
 2217 007c 3069     		ldr	r0, [r6, #16]
 2218 007e 254B     		ldr	r3, .L57+12
 2219 0080 0094     		str	r4, [sp]
 2220 0082 0132     		adds	r2, r2, #1
 2221 0084 4FF4B871 		mov	r1, #368
 2222 0088 FFF7FEFF 		bl	chThdCreateStatic
 2223              	.LVL125:
 2224              		.loc 1 601 3 view .LVU559
 2225 008c 0223     		movs	r3, #2
 2226              		.loc 1 595 16 view .LVU560
 2227 008e 2861     		str	r0, [r5, #16]
 2228              		.loc 1 597 3 is_stmt 1 view .LVU561
 2229              		.loc 1 597 19 view .LVU562
 2230              		.loc 1 601 3 view .LVU563
 2231 0090 3B60     		str	r3, [r7]
 2232              	.LBB684:
 2233              		.loc 1 603 5 view .LVU564
 2234              		.loc 1 605 5 view .LVU565
ARM GAS  /tmp/ccuqlnP4.s 			page 41


 2235              	.LVL126:
 2236              		.loc 1 606 5 view .LVU566
 2237              		.loc 1 606 13 is_stmt 0 view .LVU567
 2238 0092 FFF7FEFF 		bl	test_wait_tick
 2239              	.LVL127:
 2240              	.LBB685:
 2241              	.LBB686:
 2242              		.file 10 "../ChibiOS/os/rt/include/chsem.h"
 2243              		.loc 10 125 3 view .LVU568
 2244 0096 214E     		ldr	r6, .L57+20
 2245              	.LBE686:
 2246              	.LBE685:
 2247              		.loc 1 606 13 view .LVU569
 2248 0098 0546     		mov	r5, r0
 2249              	.LVL128:
 2250              		.loc 1 607 5 is_stmt 1 view .LVU570
 2251              		.loc 1 607 5 is_stmt 0 view .LVU571
 2252              	.LBE684:
 2253              		.loc 3 449 3 is_stmt 1 view .LVU572
 2254              	.L54:
 2255              	.LBB705:
 2256              		.loc 1 608 5 discriminator 1 view .LVU573
 2257              		.loc 1 609 7 discriminator 1 view .LVU574
 2258              	.LBB688:
 2259              	.LBI685:
 2260              		.loc 10 123 20 discriminator 1 view .LVU575
 2261              	.LBB687:
 2262              		.loc 10 125 3 discriminator 1 view .LVU576
 2263 009a 6FF00102 		mvn	r2, #1
 2264 009e 0021     		movs	r1, #0
 2265 00a0 3046     		mov	r0, r6
 2266 00a2 FFF7FEFF 		bl	chSemResetWithMessage
 2267              	.LVL129:
 2268              		.loc 10 125 3 is_stmt 0 discriminator 1 view .LVU577
 2269              	.LBE687:
 2270              	.LBE688:
 2271              		.loc 1 610 7 is_stmt 1 discriminator 1 view .LVU578
 2272              	.LBB689:
 2273              	.LBB690:
 2274              	.LBB691:
 2275              	.LBB692:
 2276              		.loc 4 113 10 is_stmt 0 discriminator 1 view .LVU579
 2277 00a6 FFF7FEFF 		bl	stGetCounter
 2278              	.LVL130:
 2279              	.LBE692:
 2280              	.LBE691:
 2281              	.LBE690:
 2282              	.LBE689:
 2283              		.loc 1 614 5 discriminator 1 view .LVU580
 2284 00aa 42F20F73 		movw	r3, #9999
 2285              	.LBB701:
 2286              	.LBB695:
 2287              	.LBB696:
 2288              		.loc 3 488 17 discriminator 1 view .LVU581
 2289 00ae 401B     		subs	r0, r0, r5
 2290              	.LBE696:
 2291              	.LBE695:
ARM GAS  /tmp/ccuqlnP4.s 			page 42


 2292              	.LBE701:
 2293              		.loc 1 614 5 discriminator 1 view .LVU582
 2294 00b0 9842     		cmp	r0, r3
 2295              		.loc 1 610 8 discriminator 1 view .LVU583
 2296 00b2 04F10104 		add	r4, r4, #1
 2297              	.LVL131:
 2298              		.loc 1 614 13 is_stmt 1 discriminator 1 view .LVU584
 2299              	.LBB702:
 2300              	.LBI689:
 2301              		.loc 5 177 20 discriminator 1 view .LVU585
 2302              	.LBE702:
 2303              	.LBE705:
 2304              		.loc 5 179 3 discriminator 1 view .LVU586
 2305              	.LBB706:
 2306              	.LBB703:
 2307              	.LBB698:
 2308              	.LBI690:
 2309              		.loc 5 122 25 discriminator 1 view .LVU587
 2310              	.LBE698:
 2311              	.LBE703:
 2312              	.LBE706:
 2313              		.loc 5 127 3 discriminator 1 view .LVU588
 2314              	.LBB707:
 2315              	.LBB704:
 2316              	.LBB699:
 2317              	.LBB694:
 2318              	.LBI691:
 2319              		.loc 4 111 25 discriminator 1 view .LVU589
 2320              	.LBB693:
 2321              		.loc 4 113 3 discriminator 1 view .LVU590
 2322              		.loc 4 113 3 is_stmt 0 discriminator 1 view .LVU591
 2323              	.LBE693:
 2324              	.LBE694:
 2325              	.LBE699:
 2326              	.LBB700:
 2327              	.LBI695:
 2328              		.loc 3 484 20 is_stmt 1 discriminator 1 view .LVU592
 2329              	.LBB697:
 2330              		.loc 3 488 3 discriminator 1 view .LVU593
 2331              		.loc 3 488 3 is_stmt 0 discriminator 1 view .LVU594
 2332              	.LBE697:
 2333              	.LBE700:
 2334              	.LBE704:
 2335              		.loc 1 614 5 discriminator 1 view .LVU595
 2336 00b6 F0D9     		bls	.L54
 2337              	.LBE707:
 2338              		.loc 1 616 3 is_stmt 1 view .LVU596
 2339              		.loc 1 616 19 view .LVU597
 2340              		.loc 1 619 3 view .LVU598
 2341 00b8 0323     		movs	r3, #3
 2342 00ba 3B60     		str	r3, [r7]
 2343              		.loc 1 621 5 view .LVU599
 2344 00bc FFF7FEFF 		bl	test_terminate_threads
 2345              	.LVL132:
 2346              		.loc 1 622 5 view .LVU600
 2347              	.LBB708:
 2348              	.LBI708:
ARM GAS  /tmp/ccuqlnP4.s 			page 43


 2349              		.loc 10 123 20 view .LVU601
 2350              	.LBB709:
 2351              		.loc 10 125 3 view .LVU602
 2352 00c0 6FF00102 		mvn	r2, #1
 2353 00c4 1548     		ldr	r0, .L57+20
 2354 00c6 0021     		movs	r1, #0
 2355 00c8 FFF7FEFF 		bl	chSemResetWithMessage
 2356              	.LVL133:
 2357              		.loc 10 125 3 is_stmt 0 view .LVU603
 2358              	.LBE709:
 2359              	.LBE708:
 2360              		.loc 1 623 5 is_stmt 1 view .LVU604
 2361 00cc FFF7FEFF 		bl	test_wait_threads
 2362              	.LVL134:
 2363              		.loc 1 625 3 view .LVU605
 2364              		.loc 1 625 19 view .LVU606
 2365              		.loc 1 628 3 view .LVU607
 2366 00d0 0423     		movs	r3, #4
 2367              	.LBB710:
 2368              	.LBB711:
 2369              		.loc 2 371 3 is_stmt 0 view .LVU608
 2370 00d2 1349     		ldr	r1, .L57+24
 2371 00d4 1348     		ldr	r0, .L57+28
 2372              	.LBE711:
 2373              	.LBE710:
 2374              		.loc 1 628 3 view .LVU609
 2375 00d6 3B60     		str	r3, [r7]
 2376              		.loc 1 630 5 is_stmt 1 view .LVU610
 2377              	.LVL135:
 2378              	.LBB713:
 2379              	.LBI710:
 2380              		.loc 2 369 20 view .LVU611
 2381              	.LBB712:
 2382              		.loc 2 371 3 view .LVU612
 2383 00d8 FFF7FEFF 		bl	test_printf
 2384              	.LVL136:
 2385              		.loc 2 371 3 is_stmt 0 view .LVU613
 2386              	.LBE712:
 2387              	.LBE713:
 2388              		.loc 1 631 5 is_stmt 1 view .LVU614
 2389              	.LBB714:
 2390              	.LBI714:
 2391              		.loc 2 357 20 view .LVU615
 2392              	.LBB715:
 2393              		.loc 2 359 3 view .LVU616
 2394 00dc 2146     		mov	r1, r4
 2395 00de 1248     		ldr	r0, .L57+32
 2396 00e0 FFF7FEFF 		bl	test_printf
 2397              	.LVL137:
 2398              		.loc 2 359 3 is_stmt 0 view .LVU617
 2399              	.LBE715:
 2400              	.LBE714:
 2401              		.loc 1 632 5 is_stmt 1 view .LVU618
 2402              	.LBB716:
 2403              	.LBI716:
 2404              		.loc 2 369 20 view .LVU619
 2405              	.LBB717:
ARM GAS  /tmp/ccuqlnP4.s 			page 44


 2406              		.loc 2 371 3 view .LVU620
 2407              	.LBE717:
 2408              	.LBE716:
 2409              		.loc 1 633 5 is_stmt 0 view .LVU621
 2410 00e4 04EB4404 		add	r4, r4, r4, lsl #1
 2411              	.LVL138:
 2412              	.LBB719:
 2413              	.LBB718:
 2414              		.loc 2 371 3 view .LVU622
 2415 00e8 1049     		ldr	r1, .L57+36
 2416 00ea 0E48     		ldr	r0, .L57+28
 2417 00ec FFF7FEFF 		bl	test_printf
 2418              	.LVL139:
 2419              		.loc 2 371 3 view .LVU623
 2420              	.LBE718:
 2421              	.LBE719:
 2422              		.loc 1 633 5 is_stmt 1 view .LVU624
 2423              	.LBB720:
 2424              	.LBI720:
 2425              		.loc 2 357 20 view .LVU625
 2426              	.LBB721:
 2427              		.loc 2 359 3 view .LVU626
 2428 00f0 6100     		lsls	r1, r4, #1
 2429 00f2 0D48     		ldr	r0, .L57+32
 2430 00f4 FFF7FEFF 		bl	test_printf
 2431              	.LVL140:
 2432              	.LBE721:
 2433              	.LBE720:
 2434              		.loc 1 634 5 view .LVU627
 2435              	.LBB722:
 2436              	.LBI722:
 2437              		.loc 2 381 20 view .LVU628
 2438              	.LBB723:
 2439              		.loc 2 383 3 view .LVU629
 2440 00f8 0D49     		ldr	r1, .L57+40
 2441 00fa 0E48     		ldr	r0, .L57+44
 2442              	.LBE723:
 2443              	.LBE722:
 2444              		.loc 1 637 1 is_stmt 0 view .LVU630
 2445 00fc 02B0     		add	sp, sp, #8
 2446              		.cfi_def_cfa_offset 24
 2447              		@ sp needed
 2448 00fe BDE8F041 		pop	{r4, r5, r6, r7, r8, lr}
 2449              		.cfi_restore 14
 2450              		.cfi_restore 8
 2451              		.cfi_restore 7
 2452              		.cfi_restore 6
 2453              		.cfi_restore 5
 2454              		.cfi_restore 4
 2455              		.cfi_def_cfa_offset 0
 2456              	.LVL141:
 2457              	.LBB725:
 2458              	.LBB724:
 2459              		.loc 2 383 3 view .LVU631
 2460 0102 FFF7FEBF 		b	test_printf
 2461              	.LVL142:
 2462              	.L58:
ARM GAS  /tmp/ccuqlnP4.s 			page 45


 2463 0106 00BF     		.align	2
 2464              	.L57:
 2465 0108 00000000 		.word	ch0
 2466 010c 00000000 		.word	wa
 2467 0110 00000000 		.word	chtest
 2468 0114 00000000 		.word	bmk_thread7
 2469 0118 00000000 		.word	threads
 2470 011c 00000000 		.word	.LANCHOR1
 2471 0120 00000000 		.word	.LC13
 2472 0124 10000000 		.word	.LC1
 2473 0128 14000000 		.word	.LC2
 2474 012c 00000000 		.word	.LC18
 2475 0130 00000000 		.word	.LC17
 2476 0134 20000000 		.word	.LC4
 2477              	.LBE724:
 2478              	.LBE725:
 2479              		.cfi_endproc
 2480              	.LFE418:
 2481              		.size	rt_test_012_007_execute, .-rt_test_012_007_execute
 2482              		.section	.rodata.rt_test_012_006_execute.str1.4,"aMS",%progbits,1
 2483              		.align	2
 2484              	.LC19:
 2485 0000 20746872 		.ascii	" threads/S\000"
 2485      65616473 
 2485      2F5300
 2486              		.section	.text.rt_test_012_006_execute,"ax",%progbits
 2487              		.align	1
 2488              		.p2align 4,,15
 2489              		.syntax unified
 2490              		.thumb
 2491              		.thumb_func
 2492              		.fpu softvfp
 2493              		.type	rt_test_012_006_execute, %function
 2494              	rt_test_012_006_execute:
 2495              	.LFB416:
 2496              		.loc 1 510 43 is_stmt 1 view -0
 2497              		.cfi_startproc
 2498              		@ args = 0, pretend = 0, frame = 0
 2499              		@ frame_needed = 0, uses_anonymous_args = 0
 2500              		.loc 1 511 3 view .LVU633
 2501              		.loc 1 512 3 view .LVU634
 2502              	.LBB726:
 2503              	.LBI726:
 2504              		.loc 6 354 23 view .LVU635
 2505              	.LBB727:
 2506              		.loc 6 356 3 view .LVU636
 2507              	.LBB728:
 2508              	.LBI728:
 2509              		.loc 6 341 25 view .LVU637
 2510              	.LBB729:
 2511              		.loc 6 343 3 view .LVU638
 2512              	.LBE729:
 2513              	.LBE728:
 2514              	.LBE727:
 2515              	.LBE726:
 2516              		.loc 1 510 43 is_stmt 0 view .LVU639
 2517 0000 2DE9F047 		push	{r4, r5, r6, r7, r8, r9, r10, lr}
ARM GAS  /tmp/ccuqlnP4.s 			page 46


 2518              		.cfi_def_cfa_offset 32
 2519              		.cfi_offset 4, -32
 2520              		.cfi_offset 5, -28
 2521              		.cfi_offset 6, -24
 2522              		.cfi_offset 7, -20
 2523              		.cfi_offset 8, -16
 2524              		.cfi_offset 9, -12
 2525              		.cfi_offset 10, -8
 2526              		.cfi_offset 14, -4
 2527              	.LBB734:
 2528              	.LBB732:
 2529              	.LBB731:
 2530              	.LBB730:
 2531              		.loc 6 343 10 view .LVU640
 2532 0004 1C4B     		ldr	r3, .L63
 2533              	.LBE730:
 2534              	.LBE731:
 2535              	.LBE732:
 2536              	.LBE734:
 2537              		.loc 1 518 3 view .LVU641
 2538 0006 DFF87490 		ldr	r9, .L63+4
 2539              	.LBB735:
 2540              	.LBB733:
 2541              		.loc 6 356 37 view .LVU642
 2542 000a DA68     		ldr	r2, [r3, #12]
 2543              	.LBE733:
 2544              	.LBE735:
 2545              		.loc 1 525 7 view .LVU643
 2546 000c DFF870A0 		ldr	r10, .L63+8
 2547              		.loc 1 512 11 view .LVU644
 2548 0010 9668     		ldr	r6, [r2, #8]
 2549              		.loc 1 518 3 view .LVU645
 2550 0012 0123     		movs	r3, #1
 2551              		.loc 1 510 43 view .LVU646
 2552 0014 82B0     		sub	sp, sp, #8
 2553              		.cfi_def_cfa_offset 40
 2554              		.loc 1 518 3 view .LVU647
 2555 0016 C9F80030 		str	r3, [r9]
 2556              		.loc 1 512 11 view .LVU648
 2557 001a 1E44     		add	r6, r6, r3
 2558              	.LVL143:
 2559              		.loc 1 513 3 is_stmt 1 view .LVU649
 2560              		.loc 1 518 3 view .LVU650
 2561              		.loc 1 520 5 view .LVU651
 2562              		.loc 1 521 5 view .LVU652
 2563              		.loc 1 521 13 is_stmt 0 view .LVU653
 2564 001c FFF7FEFF 		bl	test_wait_tick
 2565              	.LVL144:
 2566              		.loc 1 525 7 view .LVU654
 2567 0020 184B     		ldr	r3, .L63+12
 2568              		.loc 1 520 7 view .LVU655
 2569 0022 0024     		movs	r4, #0
 2570              		.loc 1 525 7 view .LVU656
 2571 0024 D3F80080 		ldr	r8, [r3]
 2572              		.loc 1 521 13 view .LVU657
 2573 0028 0546     		mov	r5, r0
 2574              	.LVL145:
ARM GAS  /tmp/ccuqlnP4.s 			page 47


 2575              		.loc 1 522 5 is_stmt 1 view .LVU658
 2576              		.loc 3 449 3 view .LVU659
 2577              		.loc 1 525 7 is_stmt 0 view .LVU660
 2578 002a 2746     		mov	r7, r4
 2579              	.LVL146:
 2580              	.L60:
 2581              		.loc 1 523 5 is_stmt 1 discriminator 1 view .LVU661
 2582              		.loc 1 525 7 discriminator 1 view .LVU662
 2583 002c 5346     		mov	r3, r10
 2584 002e 3246     		mov	r2, r6
 2585 0030 4FF4B871 		mov	r1, #368
 2586 0034 0097     		str	r7, [sp]
 2587 0036 4046     		mov	r0, r8
 2588 0038 FFF7FEFF 		bl	chThdCreateStatic
 2589              	.LVL147:
 2590 003c FFF7FEFF 		bl	chThdRelease
 2591              	.LVL148:
 2592              		.loc 1 529 7 discriminator 1 view .LVU663
 2593              	.LBB736:
 2594              	.LBB737:
 2595              	.LBB738:
 2596              	.LBB739:
 2597              		.loc 4 113 10 is_stmt 0 discriminator 1 view .LVU664
 2598 0040 FFF7FEFF 		bl	stGetCounter
 2599              	.LVL149:
 2600              	.LBE739:
 2601              	.LBE738:
 2602              	.LBE737:
 2603              	.LBE736:
 2604              		.loc 1 533 5 discriminator 1 view .LVU665
 2605 0044 42F20F73 		movw	r3, #9999
 2606              	.LBB748:
 2607              	.LBB742:
 2608              	.LBB743:
 2609              		.loc 3 488 17 discriminator 1 view .LVU666
 2610 0048 401B     		subs	r0, r0, r5
 2611              	.LBE743:
 2612              	.LBE742:
 2613              	.LBE748:
 2614              		.loc 1 533 5 discriminator 1 view .LVU667
 2615 004a 9842     		cmp	r0, r3
 2616              		.loc 1 529 8 discriminator 1 view .LVU668
 2617 004c 04F10104 		add	r4, r4, #1
 2618              	.LVL150:
 2619              		.loc 1 533 13 is_stmt 1 discriminator 1 view .LVU669
 2620              	.LBB749:
 2621              	.LBI736:
 2622              		.loc 5 177 20 discriminator 1 view .LVU670
 2623              	.LBE749:
 2624              		.loc 5 179 3 discriminator 1 view .LVU671
 2625              	.LBB750:
 2626              	.LBB745:
 2627              	.LBI737:
 2628              		.loc 5 122 25 discriminator 1 view .LVU672
 2629              	.LBE745:
 2630              	.LBE750:
 2631              		.loc 5 127 3 discriminator 1 view .LVU673
ARM GAS  /tmp/ccuqlnP4.s 			page 48


 2632              	.LBB751:
 2633              	.LBB746:
 2634              	.LBB741:
 2635              	.LBI738:
 2636              		.loc 4 111 25 discriminator 1 view .LVU674
 2637              	.LBB740:
 2638              		.loc 4 113 3 discriminator 1 view .LVU675
 2639              		.loc 4 113 3 is_stmt 0 discriminator 1 view .LVU676
 2640              	.LBE740:
 2641              	.LBE741:
 2642              	.LBE746:
 2643              	.LBB747:
 2644              	.LBI742:
 2645              		.loc 3 484 20 is_stmt 1 discriminator 1 view .LVU677
 2646              	.LBB744:
 2647              		.loc 3 488 3 discriminator 1 view .LVU678
 2648              		.loc 3 488 3 is_stmt 0 discriminator 1 view .LVU679
 2649              	.LBE744:
 2650              	.LBE747:
 2651              	.LBE751:
 2652              		.loc 1 533 5 discriminator 1 view .LVU680
 2653 0050 ECD9     		bls	.L60
 2654              		.loc 1 535 3 is_stmt 1 view .LVU681
 2655              		.loc 1 535 19 view .LVU682
 2656              		.loc 1 538 3 view .LVU683
 2657 0052 0223     		movs	r3, #2
 2658              	.LBB752:
 2659              	.LBB753:
 2660              		.loc 2 371 3 is_stmt 0 view .LVU684
 2661 0054 0C49     		ldr	r1, .L63+16
 2662 0056 0D48     		ldr	r0, .L63+20
 2663              	.LBE753:
 2664              	.LBE752:
 2665              		.loc 1 538 3 view .LVU685
 2666 0058 C9F80030 		str	r3, [r9]
 2667              		.loc 1 540 5 is_stmt 1 view .LVU686
 2668              	.LVL151:
 2669              	.LBB755:
 2670              	.LBI752:
 2671              		.loc 2 369 20 view .LVU687
 2672              	.LBB754:
 2673              		.loc 2 371 3 view .LVU688
 2674 005c FFF7FEFF 		bl	test_printf
 2675              	.LVL152:
 2676              		.loc 2 371 3 is_stmt 0 view .LVU689
 2677              	.LBE754:
 2678              	.LBE755:
 2679              		.loc 1 541 5 is_stmt 1 view .LVU690
 2680              	.LBB756:
 2681              	.LBI756:
 2682              		.loc 2 357 20 view .LVU691
 2683              	.LBB757:
 2684              		.loc 2 359 3 view .LVU692
 2685 0060 2146     		mov	r1, r4
 2686 0062 0B48     		ldr	r0, .L63+24
 2687 0064 FFF7FEFF 		bl	test_printf
 2688              	.LVL153:
ARM GAS  /tmp/ccuqlnP4.s 			page 49


 2689              		.loc 2 359 3 is_stmt 0 view .LVU693
 2690              	.LBE757:
 2691              	.LBE756:
 2692              		.loc 1 542 5 is_stmt 1 view .LVU694
 2693              	.LBB758:
 2694              	.LBI758:
 2695              		.loc 2 381 20 view .LVU695
 2696              	.LBB759:
 2697              		.loc 2 383 3 view .LVU696
 2698 0068 0A49     		ldr	r1, .L63+28
 2699 006a 0B48     		ldr	r0, .L63+32
 2700              	.LBE759:
 2701              	.LBE758:
 2702              		.loc 1 545 1 is_stmt 0 view .LVU697
 2703 006c 02B0     		add	sp, sp, #8
 2704              		.cfi_def_cfa_offset 32
 2705              		@ sp needed
 2706 006e BDE8F047 		pop	{r4, r5, r6, r7, r8, r9, r10, lr}
 2707              		.cfi_restore 14
 2708              		.cfi_restore 10
 2709              		.cfi_restore 9
 2710              		.cfi_restore 8
 2711              		.cfi_restore 7
 2712              		.cfi_restore 6
 2713              		.cfi_restore 5
 2714              		.cfi_restore 4
 2715              		.cfi_def_cfa_offset 0
 2716              	.LVL154:
 2717              	.LBB761:
 2718              	.LBB760:
 2719              		.loc 2 383 3 view .LVU698
 2720 0072 FFF7FEBF 		b	test_printf
 2721              	.LVL155:
 2722              	.L64:
 2723 0076 00BF     		.align	2
 2724              	.L63:
 2725 0078 00000000 		.word	ch0
 2726 007c 00000000 		.word	chtest
 2727 0080 00000000 		.word	bmk_thread3
 2728 0084 00000000 		.word	wa
 2729 0088 00000000 		.word	.LC13
 2730 008c 10000000 		.word	.LC1
 2731 0090 14000000 		.word	.LC2
 2732 0094 00000000 		.word	.LC19
 2733 0098 20000000 		.word	.LC4
 2734              	.LBE760:
 2735              	.LBE761:
 2736              		.cfi_endproc
 2737              	.LFE416:
 2738              		.size	rt_test_012_006_execute, .-rt_test_012_006_execute
 2739              		.section	.text.bmk_thread3,"ax",%progbits
 2740              		.align	1
 2741              		.p2align 4,,15
 2742              		.syntax unified
 2743              		.thumb
 2744              		.thumb_func
 2745              		.fpu softvfp
ARM GAS  /tmp/ccuqlnP4.s 			page 50


 2746              		.type	bmk_thread3, %function
 2747              	bmk_thread3:
 2748              	.LVL156:
 2749              	.LFB407:
 2750              		.loc 1 100 37 is_stmt 1 view -0
 2751              		.cfi_startproc
 2752              		@ args = 0, pretend = 0, frame = 0
 2753              		@ frame_needed = 0, uses_anonymous_args = 0
 2754              		@ link register save eliminated.
 2755              		.loc 1 102 3 view .LVU700
 2756 0000 FFF7FEBF 		b	chThdExit
 2757              	.LVL157:
 2758              		.loc 1 102 3 is_stmt 0 view .LVU701
 2759              		.cfi_endproc
 2760              	.LFE407:
 2761              		.size	bmk_thread3, .-bmk_thread3
 2762              		.section	.text.rt_test_012_005_execute,"ax",%progbits
 2763              		.align	1
 2764              		.p2align 4,,15
 2765              		.syntax unified
 2766              		.thumb
 2767              		.thumb_func
 2768              		.fpu softvfp
 2769              		.type	rt_test_012_005_execute, %function
 2770              	rt_test_012_005_execute:
 2771              	.LFB415:
 2772              		.loc 1 451 43 is_stmt 1 view -0
 2773              		.cfi_startproc
 2774              		@ args = 0, pretend = 0, frame = 0
 2775              		@ frame_needed = 0, uses_anonymous_args = 0
 2776              		.loc 1 452 3 view .LVU703
 2777              		.loc 1 453 3 view .LVU704
 2778              	.LBB762:
 2779              	.LBI762:
 2780              		.loc 6 354 23 view .LVU705
 2781              	.LBB763:
 2782              		.loc 6 356 3 view .LVU706
 2783              	.LBB764:
 2784              	.LBI764:
 2785              		.loc 6 341 25 view .LVU707
 2786              	.LBB765:
 2787              		.loc 6 343 3 view .LVU708
 2788              	.LBE765:
 2789              	.LBE764:
 2790              	.LBE763:
 2791              	.LBE762:
 2792              		.loc 1 451 43 is_stmt 0 view .LVU709
 2793 0000 2DE9F047 		push	{r4, r5, r6, r7, r8, r9, r10, lr}
 2794              		.cfi_def_cfa_offset 32
 2795              		.cfi_offset 4, -32
 2796              		.cfi_offset 5, -28
 2797              		.cfi_offset 6, -24
 2798              		.cfi_offset 7, -20
 2799              		.cfi_offset 8, -16
 2800              		.cfi_offset 9, -12
 2801              		.cfi_offset 10, -8
 2802              		.cfi_offset 14, -4
ARM GAS  /tmp/ccuqlnP4.s 			page 51


 2803              	.LBB770:
 2804              	.LBB768:
 2805              	.LBB767:
 2806              	.LBB766:
 2807              		.loc 6 343 10 view .LVU710
 2808 0004 1C4B     		ldr	r3, .L70
 2809              	.LBE766:
 2810              	.LBE767:
 2811              	.LBE768:
 2812              	.LBE770:
 2813              		.loc 1 459 3 view .LVU711
 2814 0006 DFF87490 		ldr	r9, .L70+4
 2815              	.LBB771:
 2816              	.LBB769:
 2817              		.loc 6 356 37 view .LVU712
 2818 000a DA68     		ldr	r2, [r3, #12]
 2819              	.LBE769:
 2820              	.LBE771:
 2821              		.loc 1 465 7 view .LVU713
 2822 000c DFF870A0 		ldr	r10, .L70+8
 2823              		.loc 1 453 11 view .LVU714
 2824 0010 9668     		ldr	r6, [r2, #8]
 2825              		.loc 1 459 3 view .LVU715
 2826 0012 0123     		movs	r3, #1
 2827              		.loc 1 451 43 view .LVU716
 2828 0014 82B0     		sub	sp, sp, #8
 2829              		.cfi_def_cfa_offset 40
 2830              		.loc 1 459 3 view .LVU717
 2831 0016 C9F80030 		str	r3, [r9]
 2832              		.loc 1 462 13 view .LVU718
 2833 001a FFF7FEFF 		bl	test_wait_tick
 2834              	.LVL158:
 2835              		.loc 1 465 7 view .LVU719
 2836 001e 194B     		ldr	r3, .L70+12
 2837              		.loc 1 461 7 view .LVU720
 2838 0020 0024     		movs	r4, #0
 2839              		.loc 1 465 7 view .LVU721
 2840 0022 D3F80080 		ldr	r8, [r3]
 2841              		.loc 1 453 11 view .LVU722
 2842 0026 013E     		subs	r6, r6, #1
 2843              	.LVL159:
 2844              		.loc 1 454 3 is_stmt 1 view .LVU723
 2845              		.loc 1 459 3 view .LVU724
 2846              		.loc 1 461 5 view .LVU725
 2847              		.loc 1 462 5 view .LVU726
 2848              		.loc 1 462 13 is_stmt 0 view .LVU727
 2849 0028 0546     		mov	r5, r0
 2850              	.LVL160:
 2851              		.loc 1 463 5 is_stmt 1 view .LVU728
 2852              		.loc 3 449 3 view .LVU729
 2853              		.loc 1 465 7 is_stmt 0 view .LVU730
 2854 002a 2746     		mov	r7, r4
 2855              	.LVL161:
 2856              	.L67:
 2857              		.loc 1 464 5 is_stmt 1 discriminator 1 view .LVU731
 2858              		.loc 1 465 7 discriminator 1 view .LVU732
 2859 002c 5346     		mov	r3, r10
ARM GAS  /tmp/ccuqlnP4.s 			page 52


 2860 002e 3246     		mov	r2, r6
 2861 0030 4FF4B871 		mov	r1, #368
 2862 0034 0097     		str	r7, [sp]
 2863 0036 4046     		mov	r0, r8
 2864 0038 FFF7FEFF 		bl	chThdCreateStatic
 2865              	.LVL162:
 2866 003c FFF7FEFF 		bl	chThdWait
 2867              	.LVL163:
 2868              		.loc 1 466 7 discriminator 1 view .LVU733
 2869              	.LBB772:
 2870              	.LBB773:
 2871              	.LBB774:
 2872              	.LBB775:
 2873              		.loc 4 113 10 is_stmt 0 discriminator 1 view .LVU734
 2874 0040 FFF7FEFF 		bl	stGetCounter
 2875              	.LVL164:
 2876              	.LBE775:
 2877              	.LBE774:
 2878              	.LBE773:
 2879              	.LBE772:
 2880              		.loc 1 470 5 discriminator 1 view .LVU735
 2881 0044 42F20F73 		movw	r3, #9999
 2882              	.LBB784:
 2883              	.LBB778:
 2884              	.LBB779:
 2885              		.loc 3 488 17 discriminator 1 view .LVU736
 2886 0048 401B     		subs	r0, r0, r5
 2887              	.LBE779:
 2888              	.LBE778:
 2889              	.LBE784:
 2890              		.loc 1 470 5 discriminator 1 view .LVU737
 2891 004a 9842     		cmp	r0, r3
 2892              		.loc 1 466 8 discriminator 1 view .LVU738
 2893 004c 04F10104 		add	r4, r4, #1
 2894              	.LVL165:
 2895              		.loc 1 470 13 is_stmt 1 discriminator 1 view .LVU739
 2896              	.LBB785:
 2897              	.LBI772:
 2898              		.loc 5 177 20 discriminator 1 view .LVU740
 2899              	.LBE785:
 2900              		.loc 5 179 3 discriminator 1 view .LVU741
 2901              	.LBB786:
 2902              	.LBB781:
 2903              	.LBI773:
 2904              		.loc 5 122 25 discriminator 1 view .LVU742
 2905              	.LBE781:
 2906              	.LBE786:
 2907              		.loc 5 127 3 discriminator 1 view .LVU743
 2908              	.LBB787:
 2909              	.LBB782:
 2910              	.LBB777:
 2911              	.LBI774:
 2912              		.loc 4 111 25 discriminator 1 view .LVU744
 2913              	.LBB776:
 2914              		.loc 4 113 3 discriminator 1 view .LVU745
 2915              		.loc 4 113 3 is_stmt 0 discriminator 1 view .LVU746
 2916              	.LBE776:
ARM GAS  /tmp/ccuqlnP4.s 			page 53


 2917              	.LBE777:
 2918              	.LBE782:
 2919              	.LBB783:
 2920              	.LBI778:
 2921              		.loc 3 484 20 is_stmt 1 discriminator 1 view .LVU747
 2922              	.LBB780:
 2923              		.loc 3 488 3 discriminator 1 view .LVU748
 2924              		.loc 3 488 3 is_stmt 0 discriminator 1 view .LVU749
 2925              	.LBE780:
 2926              	.LBE783:
 2927              	.LBE787:
 2928              		.loc 1 470 5 discriminator 1 view .LVU750
 2929 0050 ECD9     		bls	.L67
 2930              		.loc 1 472 3 is_stmt 1 view .LVU751
 2931              		.loc 1 472 19 view .LVU752
 2932              		.loc 1 475 3 view .LVU753
 2933 0052 0223     		movs	r3, #2
 2934              	.LBB788:
 2935              	.LBB789:
 2936              		.loc 2 371 3 is_stmt 0 view .LVU754
 2937 0054 0C49     		ldr	r1, .L70+16
 2938 0056 0D48     		ldr	r0, .L70+20
 2939              	.LBE789:
 2940              	.LBE788:
 2941              		.loc 1 475 3 view .LVU755
 2942 0058 C9F80030 		str	r3, [r9]
 2943              		.loc 1 477 5 is_stmt 1 view .LVU756
 2944              	.LVL166:
 2945              	.LBB791:
 2946              	.LBI788:
 2947              		.loc 2 369 20 view .LVU757
 2948              	.LBB790:
 2949              		.loc 2 371 3 view .LVU758
 2950 005c FFF7FEFF 		bl	test_printf
 2951              	.LVL167:
 2952              		.loc 2 371 3 is_stmt 0 view .LVU759
 2953              	.LBE790:
 2954              	.LBE791:
 2955              		.loc 1 478 5 is_stmt 1 view .LVU760
 2956              	.LBB792:
 2957              	.LBI792:
 2958              		.loc 2 357 20 view .LVU761
 2959              	.LBB793:
 2960              		.loc 2 359 3 view .LVU762
 2961 0060 2146     		mov	r1, r4
 2962 0062 0B48     		ldr	r0, .L70+24
 2963 0064 FFF7FEFF 		bl	test_printf
 2964              	.LVL168:
 2965              		.loc 2 359 3 is_stmt 0 view .LVU763
 2966              	.LBE793:
 2967              	.LBE792:
 2968              		.loc 1 479 5 is_stmt 1 view .LVU764
 2969              	.LBB794:
 2970              	.LBI794:
 2971              		.loc 2 381 20 view .LVU765
 2972              	.LBB795:
 2973              		.loc 2 383 3 view .LVU766
ARM GAS  /tmp/ccuqlnP4.s 			page 54


 2974 0068 0A49     		ldr	r1, .L70+28
 2975 006a 0B48     		ldr	r0, .L70+32
 2976              	.LBE795:
 2977              	.LBE794:
 2978              		.loc 1 482 1 is_stmt 0 view .LVU767
 2979 006c 02B0     		add	sp, sp, #8
 2980              		.cfi_def_cfa_offset 32
 2981              		@ sp needed
 2982 006e BDE8F047 		pop	{r4, r5, r6, r7, r8, r9, r10, lr}
 2983              		.cfi_restore 14
 2984              		.cfi_restore 10
 2985              		.cfi_restore 9
 2986              		.cfi_restore 8
 2987              		.cfi_restore 7
 2988              		.cfi_restore 6
 2989              		.cfi_restore 5
 2990              		.cfi_restore 4
 2991              		.cfi_def_cfa_offset 0
 2992              	.LVL169:
 2993              	.LBB797:
 2994              	.LBB796:
 2995              		.loc 2 383 3 view .LVU768
 2996 0072 FFF7FEBF 		b	test_printf
 2997              	.LVL170:
 2998              	.L71:
 2999 0076 00BF     		.align	2
 3000              	.L70:
 3001 0078 00000000 		.word	ch0
 3002 007c 00000000 		.word	chtest
 3003 0080 00000000 		.word	bmk_thread3
 3004 0084 00000000 		.word	wa
 3005 0088 00000000 		.word	.LC13
 3006 008c 10000000 		.word	.LC1
 3007 0090 14000000 		.word	.LC2
 3008 0094 00000000 		.word	.LC19
 3009 0098 20000000 		.word	.LC4
 3010              	.LBE796:
 3011              	.LBE797:
 3012              		.cfi_endproc
 3013              	.LFE415:
 3014              		.size	rt_test_012_005_execute, .-rt_test_012_005_execute
 3015              		.section	.text.rt_test_012_004_execute,"ax",%progbits
 3016              		.align	1
 3017              		.p2align 4,,15
 3018              		.syntax unified
 3019              		.thumb
 3020              		.thumb_func
 3021              		.fpu softvfp
 3022              		.type	rt_test_012_004_execute, %function
 3023              	rt_test_012_004_execute:
 3024              	.LFB414:
 3025              		.loc 1 370 43 is_stmt 1 view -0
 3026              		.cfi_startproc
 3027              		@ args = 0, pretend = 0, frame = 0
 3028              		@ frame_needed = 0, uses_anonymous_args = 0
 3029              		.loc 1 371 3 view .LVU770
 3030              		.loc 1 372 3 view .LVU771
ARM GAS  /tmp/ccuqlnP4.s 			page 55


 3031              		.loc 1 375 3 view .LVU772
 3032              		.loc 1 370 43 is_stmt 0 view .LVU773
 3033 0000 2DE9F047 		push	{r4, r5, r6, r7, r8, r9, r10, lr}
 3034              		.cfi_def_cfa_offset 32
 3035              		.cfi_offset 4, -32
 3036              		.cfi_offset 5, -28
 3037              		.cfi_offset 6, -24
 3038              		.cfi_offset 7, -20
 3039              		.cfi_offset 8, -16
 3040              		.cfi_offset 9, -12
 3041              		.cfi_offset 10, -8
 3042              		.cfi_offset 14, -4
 3043              	.LBB798:
 3044              	.LBB799:
 3045              	.LBB800:
 3046              	.LBB801:
 3047              		.loc 6 343 10 view .LVU774
 3048 0004 2D4B     		ldr	r3, .L76
 3049              	.LBE801:
 3050              	.LBE800:
 3051              	.LBE799:
 3052              	.LBE798:
 3053              		.loc 1 377 23 view .LVU775
 3054 0006 2E49     		ldr	r1, .L76+4
 3055              	.LBB806:
 3056              	.LBB804:
 3057              		.loc 6 356 37 view .LVU776
 3058 0008 DB68     		ldr	r3, [r3, #12]
 3059              	.LBE804:
 3060              	.LBE806:
 3061              		.loc 1 375 3 view .LVU777
 3062 000a DFF8B8A0 		ldr	r10, .L76+8
 3063              		.loc 1 377 23 view .LVU778
 3064 000e 9A68     		ldr	r2, [r3, #8]
 3065 0010 0868     		ldr	r0, [r1]
 3066 0012 2D4B     		ldr	r3, .L76+12
 3067              		.loc 1 370 43 view .LVU779
 3068 0014 82B0     		sub	sp, sp, #8
 3069              		.cfi_def_cfa_offset 40
 3070              		.loc 1 377 23 view .LVU780
 3071 0016 0025     		movs	r5, #0
 3072              		.loc 1 375 3 view .LVU781
 3073 0018 0121     		movs	r1, #1
 3074              		.loc 1 377 23 view .LVU782
 3075 001a 0132     		adds	r2, r2, #1
 3076              		.loc 1 375 3 view .LVU783
 3077 001c CAF80010 		str	r1, [r10]
 3078              		.loc 1 377 5 is_stmt 1 view .LVU784
 3079              	.LBB807:
 3080              	.LBI798:
 3081              		.loc 6 354 23 view .LVU785
 3082              	.LBB805:
 3083              		.loc 6 356 3 view .LVU786
 3084              	.LBB803:
 3085              	.LBI800:
 3086              		.loc 6 341 25 view .LVU787
 3087              	.LBB802:
ARM GAS  /tmp/ccuqlnP4.s 			page 56


 3088              		.loc 6 343 3 view .LVU788
 3089              	.LBE802:
 3090              	.LBE803:
 3091              	.LBE805:
 3092              	.LBE807:
 3093              		.loc 1 377 23 is_stmt 0 view .LVU789
 3094 0020 0095     		str	r5, [sp]
 3095 0022 4FF4B871 		mov	r1, #368
 3096 0026 FFF7FEFF 		bl	chThdCreateStatic
 3097              	.LVL171:
 3098              		.loc 1 377 21 view .LVU790
 3099 002a 284A     		ldr	r2, .L76+16
 3100              		.loc 1 384 3 view .LVU791
 3101 002c 0223     		movs	r3, #2
 3102              		.loc 1 377 21 view .LVU792
 3103 002e 1060     		str	r0, [r2]
 3104              		.loc 1 377 23 view .LVU793
 3105 0030 0446     		mov	r4, r0
 3106              	.LVL172:
 3107              		.loc 1 380 3 is_stmt 1 view .LVU794
 3108              		.loc 1 380 19 view .LVU795
 3109              		.loc 1 384 3 view .LVU796
 3110 0032 CAF80030 		str	r3, [r10]
 3111              	.LBB808:
 3112              		.loc 1 386 5 view .LVU797
 3113              		.loc 1 388 5 view .LVU798
 3114              	.LVL173:
 3115              		.loc 1 389 5 view .LVU799
 3116              		.loc 1 389 13 is_stmt 0 view .LVU800
 3117 0036 FFF7FEFF 		bl	test_wait_tick
 3118              	.LVL174:
 3119              	.LBB809:
 3120              	.LBB810:
 3121              	.LBB811:
 3122              	.LBB812:
 3123              		.loc 7 493 3 view .LVU801
 3124 003a 4FF03008 		mov	r8, #48
 3125              	.LBE812:
 3126              	.LBE811:
 3127              	.LBE810:
 3128              	.LBE809:
 3129              		.loc 1 389 13 view .LVU802
 3130 003e 0646     		mov	r6, r0
 3131              	.LVL175:
 3132              		.loc 1 390 5 is_stmt 1 view .LVU803
 3133              		.loc 1 390 5 is_stmt 0 view .LVU804
 3134              	.LBE808:
 3135              		.loc 3 449 3 is_stmt 1 view .LVU805
 3136              	.LBB843:
 3137              		.loc 1 393 7 is_stmt 0 view .LVU806
 3138 0040 2F46     		mov	r7, r5
 3139              		.loc 1 402 5 view .LVU807
 3140 0042 42F20F79 		movw	r9, #9999
 3141              	.LVL176:
 3142              	.L73:
 3143              		.loc 1 391 5 is_stmt 1 discriminator 1 view .LVU808
 3144              		.loc 1 392 7 discriminator 1 view .LVU809
ARM GAS  /tmp/ccuqlnP4.s 			page 57


 3145              	.LBB817:
 3146              	.LBI809:
 3147              		.loc 8 407 20 discriminator 1 view .LVU810
 3148              	.LBE817:
 3149              	.LBE843:
 3150              		.loc 8 409 3 discriminator 1 view .LVU811
 3151              	.LBB844:
 3152              	.LBB818:
 3153              	.LBB815:
 3154              	.LBI810:
 3155              		.loc 9 806 27 discriminator 1 view .LVU812
 3156              	.LBE815:
 3157              	.LBE818:
 3158              	.LBE844:
 3159              		.loc 9 814 3 discriminator 1 view .LVU813
 3160              	.LBB845:
 3161              	.LBB819:
 3162              	.LBB816:
 3163              	.LBB814:
 3164              	.LBI811:
 3165              		.loc 7 491 27 discriminator 1 view .LVU814
 3166              	.LBB813:
 3167              		.loc 7 493 3 discriminator 1 view .LVU815
 3168              		.syntax unified
 3169              	@ 493 "../ChibiOS/os/common/ext/ARM/CMSIS/Core/Include/cmsis_gcc.h" 1
 3170 0046 88F31188 		MSR basepri, r8
 3171              	@ 0 "" 2
 3172              	.LVL177:
 3173              		.loc 7 493 3 is_stmt 0 discriminator 1 view .LVU816
 3174              		.thumb
 3175              		.syntax unified
 3176              	.LBE813:
 3177              	.LBE814:
 3178              	.LBE816:
 3179              	.LBE819:
 3180              	.LBE845:
 3181              		.loc 8 410 35 is_stmt 1 discriminator 1 view .LVU817
 3182              		.loc 8 411 21 discriminator 1 view .LVU818
 3183              	.LBB846:
 3184              		.loc 1 393 7 discriminator 1 view .LVU819
 3185 004a 0021     		movs	r1, #0
 3186 004c 2046     		mov	r0, r4
 3187 004e FFF7FEFF 		bl	chSchWakeupS
 3188              	.LVL178:
 3189              		.loc 1 394 7 discriminator 1 view .LVU820
 3190 0052 2046     		mov	r0, r4
 3191 0054 0021     		movs	r1, #0
 3192 0056 FFF7FEFF 		bl	chSchWakeupS
 3193              	.LVL179:
 3194              		.loc 1 395 7 discriminator 1 view .LVU821
 3195 005a 2046     		mov	r0, r4
 3196 005c 0021     		movs	r1, #0
 3197 005e FFF7FEFF 		bl	chSchWakeupS
 3198              	.LVL180:
 3199              		.loc 1 396 7 discriminator 1 view .LVU822
 3200 0062 0021     		movs	r1, #0
 3201 0064 2046     		mov	r0, r4
ARM GAS  /tmp/ccuqlnP4.s 			page 58


 3202 0066 FFF7FEFF 		bl	chSchWakeupS
 3203              	.LVL181:
 3204              		.loc 1 397 7 discriminator 1 view .LVU823
 3205              	.LBB820:
 3206              	.LBI820:
 3207              		.loc 8 421 20 discriminator 1 view .LVU824
 3208              	.LBB821:
 3209              		.loc 8 423 23 discriminator 1 view .LVU825
 3210              		.loc 8 424 34 discriminator 1 view .LVU826
 3211              		.loc 8 430 3 discriminator 1 view .LVU827
 3212              		.loc 8 430 3 discriminator 1 view .LVU828
 3213              		.loc 8 430 3 discriminator 1 view .LVU829
 3214              		.loc 8 434 3 discriminator 1 view .LVU830
 3215              	.LBB822:
 3216              	.LBI822:
 3217              		.loc 9 830 27 discriminator 1 view .LVU831
 3218              	.LBE822:
 3219              	.LBE821:
 3220              	.LBE820:
 3221              	.LBE846:
 3222              		.loc 9 833 3 discriminator 1 view .LVU832
 3223              	.LBB847:
 3224              	.LBB827:
 3225              	.LBB826:
 3226              	.LBB825:
 3227              	.LBB823:
 3228              	.LBI823:
 3229              		.loc 7 491 27 discriminator 1 view .LVU833
 3230              	.LBB824:
 3231              		.loc 7 493 3 discriminator 1 view .LVU834
 3232              		.syntax unified
 3233              	@ 493 "../ChibiOS/os/common/ext/ARM/CMSIS/Core/Include/cmsis_gcc.h" 1
 3234 006a 87F31188 		MSR basepri, r7
 3235              	@ 0 "" 2
 3236              	.LVL182:
 3237              		.loc 7 493 3 is_stmt 0 discriminator 1 view .LVU835
 3238              		.thumb
 3239              		.syntax unified
 3240              	.LBE824:
 3241              	.LBE823:
 3242              	.LBE825:
 3243              	.LBE826:
 3244              	.LBE827:
 3245              		.loc 1 398 7 is_stmt 1 discriminator 1 view .LVU836
 3246              	.LBB828:
 3247              	.LBB829:
 3248              	.LBB830:
 3249              	.LBB831:
 3250              		.loc 4 113 10 is_stmt 0 discriminator 1 view .LVU837
 3251 006e FFF7FEFF 		bl	stGetCounter
 3252              	.LVL183:
 3253              	.LBE831:
 3254              	.LBE830:
 3255              	.LBE829:
 3256              	.LBB834:
 3257              	.LBB835:
 3258              		.loc 3 488 17 discriminator 1 view .LVU838
ARM GAS  /tmp/ccuqlnP4.s 			page 59


 3259 0072 801B     		subs	r0, r0, r6
 3260              	.LBE835:
 3261              	.LBE834:
 3262              	.LBE828:
 3263              		.loc 1 402 5 discriminator 1 view .LVU839
 3264 0074 4845     		cmp	r0, r9
 3265              		.loc 1 398 9 discriminator 1 view .LVU840
 3266 0076 05F10405 		add	r5, r5, #4
 3267              	.LVL184:
 3268              		.loc 1 402 13 is_stmt 1 discriminator 1 view .LVU841
 3269              	.LBB840:
 3270              	.LBI828:
 3271              		.loc 5 177 20 discriminator 1 view .LVU842
 3272              	.LBE840:
 3273              	.LBE847:
 3274              		.loc 5 179 3 discriminator 1 view .LVU843
 3275              	.LBB848:
 3276              	.LBB841:
 3277              	.LBB837:
 3278              	.LBI829:
 3279              		.loc 5 122 25 discriminator 1 view .LVU844
 3280              	.LBE837:
 3281              	.LBE841:
 3282              	.LBE848:
 3283              		.loc 5 127 3 discriminator 1 view .LVU845
 3284              	.LBB849:
 3285              	.LBB842:
 3286              	.LBB838:
 3287              	.LBB833:
 3288              	.LBI830:
 3289              		.loc 4 111 25 discriminator 1 view .LVU846
 3290              	.LBB832:
 3291              		.loc 4 113 3 discriminator 1 view .LVU847
 3292              		.loc 4 113 3 is_stmt 0 discriminator 1 view .LVU848
 3293              	.LBE832:
 3294              	.LBE833:
 3295              	.LBE838:
 3296              	.LBB839:
 3297              	.LBI834:
 3298              		.loc 3 484 20 is_stmt 1 discriminator 1 view .LVU849
 3299              	.LBB836:
 3300              		.loc 3 488 3 discriminator 1 view .LVU850
 3301              		.loc 3 488 3 is_stmt 0 discriminator 1 view .LVU851
 3302              	.LBE836:
 3303              	.LBE839:
 3304              	.LBE842:
 3305              		.loc 1 402 5 discriminator 1 view .LVU852
 3306 007a E4D9     		bls	.L73
 3307              	.LBE849:
 3308              		.loc 1 404 3 is_stmt 1 view .LVU853
 3309              		.loc 1 404 19 view .LVU854
 3310              		.loc 1 407 3 view .LVU855
 3311 007c 0323     		movs	r3, #3
 3312 007e CAF80030 		str	r3, [r10]
 3313              		.loc 1 409 5 view .LVU856
 3314              	.LBB850:
 3315              	.LBI850:
ARM GAS  /tmp/ccuqlnP4.s 			page 60


 3316              		.loc 8 407 20 view .LVU857
 3317              	.LBE850:
 3318              		.loc 8 409 3 view .LVU858
 3319              	.LBB855:
 3320              	.LBB851:
 3321              	.LBI851:
 3322              		.loc 9 806 27 view .LVU859
 3323              	.LBE851:
 3324              	.LBE855:
 3325              		.loc 9 814 3 view .LVU860
 3326              	.LVL185:
 3327              	.LBB856:
 3328              	.LBB854:
 3329              	.LBB852:
 3330              	.LBI852:
 3331              		.loc 7 491 27 view .LVU861
 3332              	.LBB853:
 3333              		.loc 7 493 3 view .LVU862
 3334              		.syntax unified
 3335              	@ 493 "../ChibiOS/os/common/ext/ARM/CMSIS/Core/Include/cmsis_gcc.h" 1
 3336 0082 88F31188 		MSR basepri, r8
 3337              	@ 0 "" 2
 3338              	.LVL186:
 3339              		.loc 7 493 3 is_stmt 0 view .LVU863
 3340              		.thumb
 3341              		.syntax unified
 3342              	.LBE853:
 3343              	.LBE852:
 3344              	.LBE854:
 3345              	.LBE856:
 3346              		.loc 8 410 35 is_stmt 1 view .LVU864
 3347              		.loc 8 411 21 view .LVU865
 3348              		.loc 1 410 5 view .LVU866
 3349 0086 4FF0FF31 		mov	r1, #-1
 3350 008a 2046     		mov	r0, r4
 3351 008c FFF7FEFF 		bl	chSchWakeupS
 3352              	.LVL187:
 3353              		.loc 1 411 5 view .LVU867
 3354              	.LBB857:
 3355              	.LBI857:
 3356              		.loc 8 421 20 view .LVU868
 3357              	.LBB858:
 3358              		.loc 8 423 23 view .LVU869
 3359              		.loc 8 424 34 view .LVU870
 3360              		.loc 8 430 3 view .LVU871
 3361              		.loc 8 430 3 view .LVU872
 3362              		.loc 8 430 3 view .LVU873
 3363              		.loc 8 434 3 view .LVU874
 3364              	.LBB859:
 3365              	.LBI859:
 3366              		.loc 9 830 27 view .LVU875
 3367              	.LBE859:
 3368              	.LBE858:
 3369              	.LBE857:
 3370              		.loc 9 833 3 view .LVU876
 3371              	.LBB864:
 3372              	.LBB863:
ARM GAS  /tmp/ccuqlnP4.s 			page 61


 3373              	.LBB862:
 3374              	.LBB860:
 3375              	.LBI860:
 3376              		.loc 7 491 27 view .LVU877
 3377              	.LBB861:
 3378              		.loc 7 493 3 view .LVU878
 3379              		.syntax unified
 3380              	@ 493 "../ChibiOS/os/common/ext/ARM/CMSIS/Core/Include/cmsis_gcc.h" 1
 3381 0090 87F31188 		MSR basepri, r7
 3382              	@ 0 "" 2
 3383              	.LVL188:
 3384              		.loc 7 493 3 is_stmt 0 view .LVU879
 3385              		.thumb
 3386              		.syntax unified
 3387              	.LBE861:
 3388              	.LBE860:
 3389              	.LBE862:
 3390              	.LBE863:
 3391              	.LBE864:
 3392              		.loc 1 412 5 is_stmt 1 view .LVU880
 3393 0094 FFF7FEFF 		bl	test_wait_threads
 3394              	.LVL189:
 3395              		.loc 1 414 3 view .LVU881
 3396              		.loc 1 414 19 view .LVU882
 3397              		.loc 1 417 3 view .LVU883
 3398 0098 0423     		movs	r3, #4
 3399              	.LBB865:
 3400              	.LBB866:
 3401              		.loc 2 371 3 is_stmt 0 view .LVU884
 3402 009a 0D49     		ldr	r1, .L76+20
 3403 009c 0D48     		ldr	r0, .L76+24
 3404              	.LBE866:
 3405              	.LBE865:
 3406              		.loc 1 417 3 view .LVU885
 3407 009e CAF80030 		str	r3, [r10]
 3408              		.loc 1 419 5 is_stmt 1 view .LVU886
 3409              	.LVL190:
 3410              	.LBB868:
 3411              	.LBI865:
 3412              		.loc 2 369 20 view .LVU887
 3413              	.LBB867:
 3414              		.loc 2 371 3 view .LVU888
 3415 00a2 FFF7FEFF 		bl	test_printf
 3416              	.LVL191:
 3417              		.loc 2 371 3 is_stmt 0 view .LVU889
 3418              	.LBE867:
 3419              	.LBE868:
 3420              		.loc 1 420 5 is_stmt 1 view .LVU890
 3421              	.LBB869:
 3422              	.LBI869:
 3423              		.loc 2 357 20 view .LVU891
 3424              	.LBB870:
 3425              		.loc 2 359 3 view .LVU892
 3426 00a6 6900     		lsls	r1, r5, #1
 3427              	.LVL192:
 3428              		.loc 2 359 3 is_stmt 0 view .LVU893
 3429 00a8 0B48     		ldr	r0, .L76+28
ARM GAS  /tmp/ccuqlnP4.s 			page 62


 3430 00aa FFF7FEFF 		bl	test_printf
 3431              	.LVL193:
 3432              		.loc 2 359 3 view .LVU894
 3433              	.LBE870:
 3434              	.LBE869:
 3435              		.loc 1 421 5 is_stmt 1 view .LVU895
 3436              	.LBB871:
 3437              	.LBI871:
 3438              		.loc 2 381 20 view .LVU896
 3439              	.LBB872:
 3440              		.loc 2 383 3 view .LVU897
 3441 00ae 0B49     		ldr	r1, .L76+32
 3442 00b0 0B48     		ldr	r0, .L76+36
 3443              	.LBE872:
 3444              	.LBE871:
 3445              		.loc 1 424 1 is_stmt 0 view .LVU898
 3446 00b2 02B0     		add	sp, sp, #8
 3447              		.cfi_def_cfa_offset 32
 3448              		@ sp needed
 3449 00b4 BDE8F047 		pop	{r4, r5, r6, r7, r8, r9, r10, lr}
 3450              		.cfi_restore 14
 3451              		.cfi_restore 10
 3452              		.cfi_restore 9
 3453              		.cfi_restore 8
 3454              		.cfi_restore 7
 3455              		.cfi_restore 6
 3456              		.cfi_restore 5
 3457              		.cfi_restore 4
 3458              		.cfi_def_cfa_offset 0
 3459              	.LVL194:
 3460              	.LBB874:
 3461              	.LBB873:
 3462              		.loc 2 383 3 view .LVU899
 3463 00b8 FFF7FEBF 		b	test_printf
 3464              	.LVL195:
 3465              	.L77:
 3466              		.align	2
 3467              	.L76:
 3468 00bc 00000000 		.word	ch0
 3469 00c0 00000000 		.word	wa
 3470 00c4 00000000 		.word	chtest
 3471 00c8 00000000 		.word	bmk_thread4
 3472 00cc 00000000 		.word	threads
 3473 00d0 00000000 		.word	.LC13
 3474 00d4 10000000 		.word	.LC1
 3475 00d8 14000000 		.word	.LC2
 3476 00dc 00000000 		.word	.LC17
 3477 00e0 20000000 		.word	.LC4
 3478              	.LBE873:
 3479              	.LBE874:
 3480              		.cfi_endproc
 3481              	.LFE414:
 3482              		.size	rt_test_012_004_execute, .-rt_test_012_004_execute
 3483              		.section	.text.bmk_thread4,"ax",%progbits
 3484              		.align	1
 3485              		.p2align 4,,15
 3486              		.syntax unified
ARM GAS  /tmp/ccuqlnP4.s 			page 63


 3487              		.thumb
 3488              		.thumb_func
 3489              		.fpu softvfp
 3490              		.type	bmk_thread4, %function
 3491              	bmk_thread4:
 3492              	.LVL196:
 3493              	.LFB408:
 3494              		.loc 1 105 37 is_stmt 1 view -0
 3495              		.cfi_startproc
 3496              		@ args = 0, pretend = 0, frame = 0
 3497              		@ frame_needed = 0, uses_anonymous_args = 0
 3498              		.loc 1 106 3 view .LVU901
 3499              		.loc 1 107 3 view .LVU902
 3500              	.LBB875:
 3501              	.LBI875:
 3502              		.loc 6 341 25 view .LVU903
 3503              	.LBB876:
 3504              		.loc 6 343 3 view .LVU904
 3505              		.loc 6 343 10 is_stmt 0 view .LVU905
 3506 0000 074A     		ldr	r2, .L83
 3507              	.LBE876:
 3508              	.LBE875:
 3509              		.loc 1 105 37 view .LVU906
 3510 0002 10B5     		push	{r4, lr}
 3511              		.cfi_def_cfa_offset 8
 3512              		.cfi_offset 4, -8
 3513              		.cfi_offset 14, -4
 3514              	.LBB878:
 3515              	.LBB879:
 3516              	.LBB880:
 3517              	.LBB881:
 3518              	.LBB882:
 3519              		.loc 7 493 3 view .LVU907
 3520 0004 3023     		movs	r3, #48
 3521              	.LBE882:
 3522              	.LBE881:
 3523              	.LBE880:
 3524              	.LBE879:
 3525              	.LBE878:
 3526              	.LBB889:
 3527              	.LBB877:
 3528              		.loc 6 343 10 view .LVU908
 3529 0006 D468     		ldr	r4, [r2, #12]
 3530              	.LVL197:
 3531              		.loc 6 343 10 view .LVU909
 3532              	.LBE877:
 3533              	.LBE889:
 3534              		.loc 1 109 3 is_stmt 1 view .LVU910
 3535              		.loc 1 110 3 view .LVU911
 3536              	.LBB890:
 3537              	.LBI878:
 3538              		.loc 8 407 20 view .LVU912
 3539              	.LBB887:
 3540              		.loc 8 409 3 view .LVU913
 3541              	.LBB885:
 3542              	.LBI880:
 3543              		.loc 9 806 27 view .LVU914
ARM GAS  /tmp/ccuqlnP4.s 			page 64


 3544              	.LBE885:
 3545              	.LBE887:
 3546              	.LBE890:
 3547              		.loc 9 814 3 view .LVU915
 3548              	.LBB891:
 3549              	.LBB888:
 3550              	.LBB886:
 3551              	.LBB884:
 3552              	.LBI881:
 3553              		.loc 7 491 27 view .LVU916
 3554              	.LBB883:
 3555              		.loc 7 493 3 view .LVU917
 3556              		.syntax unified
 3557              	@ 493 "../ChibiOS/os/common/ext/ARM/CMSIS/Core/Include/cmsis_gcc.h" 1
 3558 0008 83F31188 		MSR basepri, r3
 3559              	@ 0 "" 2
 3560              	.LVL198:
 3561              		.loc 7 493 3 is_stmt 0 view .LVU918
 3562              		.thumb
 3563              		.syntax unified
 3564              	.LBE883:
 3565              	.LBE884:
 3566              	.LBE886:
 3567              		.loc 8 410 35 is_stmt 1 view .LVU919
 3568              		.loc 8 411 21 view .LVU920
 3569              	.L79:
 3570              		.loc 8 411 21 is_stmt 0 view .LVU921
 3571              	.LBE888:
 3572              	.LBE891:
 3573              		.loc 1 111 3 is_stmt 1 discriminator 1 view .LVU922
 3574              		.loc 1 112 5 discriminator 1 view .LVU923
 3575 000c 0320     		movs	r0, #3
 3576 000e FFF7FEFF 		bl	chSchGoSleepS
 3577              	.LVL199:
 3578              		.loc 1 113 5 discriminator 1 view .LVU924
 3579              		.loc 1 114 11 discriminator 1 view .LVU925
 3580              		.loc 1 114 3 is_stmt 0 discriminator 1 view .LVU926
 3581 0012 A36A     		ldr	r3, [r4, #40]
 3582 0014 002B     		cmp	r3, #0
 3583 0016 F9D0     		beq	.L79
 3584              		.loc 1 115 3 is_stmt 1 view .LVU927
 3585              	.LBB892:
 3586              	.LBI892:
 3587              		.loc 8 421 20 view .LVU928
 3588              	.LBB893:
 3589              		.loc 8 423 23 view .LVU929
 3590              		.loc 8 424 34 view .LVU930
 3591              		.loc 8 430 3 view .LVU931
 3592              		.loc 8 430 3 view .LVU932
 3593              		.loc 8 430 3 view .LVU933
 3594              		.loc 8 434 3 view .LVU934
 3595              	.LBB894:
 3596              	.LBI894:
 3597              		.loc 9 830 27 view .LVU935
 3598              	.LBE894:
 3599              	.LBE893:
 3600              	.LBE892:
ARM GAS  /tmp/ccuqlnP4.s 			page 65


 3601              		.loc 9 833 3 view .LVU936
 3602              	.LVL200:
 3603              	.LBB899:
 3604              	.LBB898:
 3605              	.LBB897:
 3606              	.LBB895:
 3607              	.LBI895:
 3608              		.loc 7 491 27 view .LVU937
 3609              	.LBB896:
 3610              		.loc 7 493 3 view .LVU938
 3611 0018 0023     		movs	r3, #0
 3612              		.syntax unified
 3613              	@ 493 "../ChibiOS/os/common/ext/ARM/CMSIS/Core/Include/cmsis_gcc.h" 1
 3614 001a 83F31188 		MSR basepri, r3
 3615              	@ 0 "" 2
 3616              	.LVL201:
 3617              		.loc 7 493 3 is_stmt 0 view .LVU939
 3618              		.thumb
 3619              		.syntax unified
 3620              	.LBE896:
 3621              	.LBE895:
 3622              	.LBE897:
 3623              	.LBE898:
 3624              	.LBE899:
 3625              		.loc 1 116 1 view .LVU940
 3626 001e 10BD     		pop	{r4, pc}
 3627              	.LVL202:
 3628              	.L84:
 3629              		.loc 1 116 1 view .LVU941
 3630              		.align	2
 3631              	.L83:
 3632 0020 00000000 		.word	ch0
 3633              		.cfi_endproc
 3634              	.LFE408:
 3635              		.size	bmk_thread4, .-bmk_thread4
 3636              		.section	.text.bmk_thread1,"ax",%progbits
 3637              		.align	1
 3638              		.p2align 4,,15
 3639              		.syntax unified
 3640              		.thumb
 3641              		.thumb_func
 3642              		.fpu softvfp
 3643              		.type	bmk_thread1, %function
 3644              	bmk_thread1:
 3645              	.LVL203:
 3646              	.LFB405:
 3647              		.loc 1 70 37 is_stmt 1 view -0
 3648              		.cfi_startproc
 3649              		@ args = 0, pretend = 0, frame = 0
 3650              		@ frame_needed = 0, uses_anonymous_args = 0
 3651              		.loc 1 70 37 is_stmt 0 view .LVU943
 3652 0000 70B5     		push	{r4, r5, r6, lr}
 3653              		.cfi_def_cfa_offset 16
 3654              		.cfi_offset 4, -16
 3655              		.cfi_offset 5, -12
 3656              		.cfi_offset 6, -8
 3657              		.cfi_offset 14, -4
ARM GAS  /tmp/ccuqlnP4.s 			page 66


 3658              	.LBB900:
 3659              	.LBB901:
 3660              	.LBB902:
 3661              	.LBB903:
 3662              	.LBB904:
 3663              	.LBB905:
 3664              		.loc 7 493 3 view .LVU944
 3665 0002 3026     		movs	r6, #48
 3666              	.LBE905:
 3667              	.LBE904:
 3668              	.LBE903:
 3669              	.LBE902:
 3670              	.LBB910:
 3671              	.LBB911:
 3672              	.LBB912:
 3673              	.LBB913:
 3674              	.LBB914:
 3675 0004 0025     		movs	r5, #0
 3676              	.LVL204:
 3677              	.L86:
 3678              		.loc 7 493 3 view .LVU945
 3679              	.LBE914:
 3680              	.LBE913:
 3681              	.LBE912:
 3682              	.LBE911:
 3683              	.LBE910:
 3684              	.LBE901:
 3685              	.LBE900:
 3686              		.loc 1 71 3 is_stmt 1 discriminator 1 view .LVU946
 3687              		.loc 1 72 3 discriminator 1 view .LVU947
 3688              		.loc 1 74 3 discriminator 1 view .LVU948
 3689              		.loc 1 75 3 discriminator 1 view .LVU949
 3690              		.loc 1 76 5 discriminator 1 view .LVU950
 3691              	.LBB931:
 3692              	.LBI900:
 3693              		.file 11 "../ChibiOS/os/rt/include/chmsg.h"
 3694              		.loc 11 95 25 discriminator 1 view .LVU951
 3695              	.LBB926:
 3696              		.loc 11 96 3 discriminator 1 view .LVU952
 3697              		.loc 11 98 3 discriminator 1 view .LVU953
 3698              	.LBB921:
 3699              	.LBI902:
 3700              		.loc 8 407 20 discriminator 1 view .LVU954
 3701              	.LBE921:
 3702              	.LBE926:
 3703              	.LBE931:
 3704              		.loc 8 409 3 discriminator 1 view .LVU955
 3705              	.LBB932:
 3706              	.LBB927:
 3707              	.LBB922:
 3708              	.LBB908:
 3709              	.LBI903:
 3710              		.loc 9 806 27 discriminator 1 view .LVU956
 3711              	.LBE908:
 3712              	.LBE922:
 3713              	.LBE927:
 3714              	.LBE932:
ARM GAS  /tmp/ccuqlnP4.s 			page 67


 3715              		.loc 9 814 3 discriminator 1 view .LVU957
 3716              	.LBB933:
 3717              	.LBB928:
 3718              	.LBB923:
 3719              	.LBB909:
 3720              	.LBB907:
 3721              	.LBI904:
 3722              		.loc 7 491 27 discriminator 1 view .LVU958
 3723              	.LBB906:
 3724              		.loc 7 493 3 discriminator 1 view .LVU959
 3725              		.syntax unified
 3726              	@ 493 "../ChibiOS/os/common/ext/ARM/CMSIS/Core/Include/cmsis_gcc.h" 1
 3727 0006 86F31188 		MSR basepri, r6
 3728              	@ 0 "" 2
 3729              	.LVL205:
 3730              		.loc 7 493 3 is_stmt 0 discriminator 1 view .LVU960
 3731              		.thumb
 3732              		.syntax unified
 3733              	.LBE906:
 3734              	.LBE907:
 3735              	.LBE909:
 3736              	.LBE923:
 3737              	.LBE928:
 3738              	.LBE933:
 3739              		.loc 8 410 35 is_stmt 1 discriminator 1 view .LVU961
 3740              		.loc 8 411 21 discriminator 1 view .LVU962
 3741              	.LBB934:
 3742              	.LBB929:
 3743              		.loc 11 99 3 discriminator 1 view .LVU963
 3744              		.loc 11 99 8 is_stmt 0 discriminator 1 view .LVU964
 3745 000a FFF7FEFF 		bl	chMsgWaitS
 3746              	.LVL206:
 3747              		.loc 11 100 3 is_stmt 1 discriminator 1 view .LVU965
 3748              	.LBB924:
 3749              	.LBI910:
 3750              		.loc 8 421 20 discriminator 1 view .LVU966
 3751              	.LBB919:
 3752              		.loc 8 423 23 discriminator 1 view .LVU967
 3753              		.loc 8 424 34 discriminator 1 view .LVU968
 3754              		.loc 8 430 3 discriminator 1 view .LVU969
 3755              		.loc 8 430 3 discriminator 1 view .LVU970
 3756              		.loc 8 430 3 discriminator 1 view .LVU971
 3757              		.loc 8 434 3 discriminator 1 view .LVU972
 3758              	.LBB917:
 3759              	.LBI912:
 3760              		.loc 9 830 27 discriminator 1 view .LVU973
 3761              	.LBE917:
 3762              	.LBE919:
 3763              	.LBE924:
 3764              	.LBE929:
 3765              	.LBE934:
 3766              		.loc 9 833 3 discriminator 1 view .LVU974
 3767              	.LBB935:
 3768              	.LBB930:
 3769              	.LBB925:
 3770              	.LBB920:
 3771              	.LBB918:
ARM GAS  /tmp/ccuqlnP4.s 			page 68


 3772              	.LBB916:
 3773              	.LBI913:
 3774              		.loc 7 491 27 discriminator 1 view .LVU975
 3775              	.LBB915:
 3776              		.loc 7 493 3 discriminator 1 view .LVU976
 3777              		.syntax unified
 3778              	@ 493 "../ChibiOS/os/common/ext/ARM/CMSIS/Core/Include/cmsis_gcc.h" 1
 3779 000e 85F31188 		MSR basepri, r5
 3780              	@ 0 "" 2
 3781              	.LVL207:
 3782              		.loc 7 493 3 is_stmt 0 discriminator 1 view .LVU977
 3783              		.thumb
 3784              		.syntax unified
 3785              	.LBE915:
 3786              	.LBE916:
 3787              	.LBE918:
 3788              	.LBE920:
 3789              	.LBE925:
 3790              		.loc 11 102 3 is_stmt 1 discriminator 1 view .LVU978
 3791              		.loc 11 102 3 is_stmt 0 discriminator 1 view .LVU979
 3792              	.LBE930:
 3793              	.LBE935:
 3794              		.loc 1 77 5 is_stmt 1 discriminator 1 view .LVU980
 3795              	.LBB936:
 3796              	.LBI936:
 3797              		.loc 11 190 21 discriminator 1 view .LVU981
 3798              	.LBB937:
 3799              		.loc 11 192 3 discriminator 1 view .LVU982
 3800              		.loc 11 192 3 discriminator 1 view .LVU983
 3801              		.loc 11 192 3 discriminator 1 view .LVU984
 3802              		.loc 11 194 3 discriminator 1 view .LVU985
 3803              		.loc 11 194 15 is_stmt 0 discriminator 1 view .LVU986
 3804 0012 846A     		ldr	r4, [r0, #40]
 3805              	.LVL208:
 3806              		.loc 11 194 15 discriminator 1 view .LVU987
 3807              	.LBE937:
 3808              	.LBE936:
 3809              		.loc 1 78 5 is_stmt 1 discriminator 1 view .LVU988
 3810 0014 2146     		mov	r1, r4
 3811 0016 FFF7FEFF 		bl	chMsgRelease
 3812              	.LVL209:
 3813              		.loc 1 79 11 discriminator 1 view .LVU989
 3814              		.loc 1 79 3 is_stmt 0 discriminator 1 view .LVU990
 3815 001a 002C     		cmp	r4, #0
 3816 001c F3D1     		bne	.L86
 3817              		.loc 1 80 1 view .LVU991
 3818 001e 70BD     		pop	{r4, r5, r6, pc}
 3819              		.loc 1 80 1 view .LVU992
 3820              		.cfi_endproc
 3821              	.LFE405:
 3822              		.size	bmk_thread1, .-bmk_thread1
 3823              		.section	.text.msg_loop_test,"ax",%progbits
 3824              		.align	1
 3825              		.p2align 4,,15
 3826              		.syntax unified
 3827              		.thumb
 3828              		.thumb_func
ARM GAS  /tmp/ccuqlnP4.s 			page 69


 3829              		.fpu softvfp
 3830              		.type	msg_loop_test, %function
 3831              	msg_loop_test:
 3832              	.LVL210:
 3833              	.LFB406:
 3834              		.loc 1 82 58 is_stmt 1 view -0
 3835              		.cfi_startproc
 3836              		@ args = 0, pretend = 0, frame = 0
 3837              		@ frame_needed = 0, uses_anonymous_args = 0
 3838              		.loc 1 83 3 view .LVU994
 3839              		.loc 1 85 3 view .LVU995
 3840              		.loc 1 86 3 view .LVU996
 3841              		.loc 1 82 58 is_stmt 0 view .LVU997
 3842 0000 F8B5     		push	{r3, r4, r5, r6, r7, lr}
 3843              		.cfi_def_cfa_offset 24
 3844              		.cfi_offset 3, -24
 3845              		.cfi_offset 4, -20
 3846              		.cfi_offset 5, -16
 3847              		.cfi_offset 6, -12
 3848              		.cfi_offset 7, -8
 3849              		.cfi_offset 14, -4
 3850              		.loc 1 82 58 view .LVU998
 3851 0002 0546     		mov	r5, r0
 3852              		.loc 1 86 11 view .LVU999
 3853 0004 FFF7FEFF 		bl	test_wait_tick
 3854              	.LVL211:
 3855              		.loc 1 85 12 view .LVU1000
 3856 0008 0024     		movs	r4, #0
 3857              		.loc 1 86 11 view .LVU1001
 3858 000a 0646     		mov	r6, r0
 3859              	.LVL212:
 3860              		.loc 1 87 3 is_stmt 1 view .LVU1002
 3861              		.loc 3 449 3 view .LVU1003
 3862              		.loc 1 94 3 is_stmt 0 view .LVU1004
 3863 000c 42F20F77 		movw	r7, #9999
 3864              	.LVL213:
 3865              	.L90:
 3866              		.loc 1 88 3 is_stmt 1 discriminator 1 view .LVU1005
 3867              		.loc 1 89 5 discriminator 1 view .LVU1006
 3868              		.loc 1 89 11 is_stmt 0 discriminator 1 view .LVU1007
 3869 0010 0121     		movs	r1, #1
 3870 0012 2846     		mov	r0, r5
 3871 0014 FFF7FEFF 		bl	chMsgSend
 3872              	.LVL214:
 3873              		.loc 1 90 5 is_stmt 1 discriminator 1 view .LVU1008
 3874              	.LBB938:
 3875              	.LBB939:
 3876              	.LBB940:
 3877              	.LBB941:
 3878              		.loc 4 113 10 is_stmt 0 discriminator 1 view .LVU1009
 3879 0018 FFF7FEFF 		bl	stGetCounter
 3880              	.LVL215:
 3881              	.LBE941:
 3882              	.LBE940:
 3883              	.LBE939:
 3884              	.LBB944:
 3885              	.LBB945:
ARM GAS  /tmp/ccuqlnP4.s 			page 70


 3886              		.loc 3 488 17 discriminator 1 view .LVU1010
 3887 001c 801B     		subs	r0, r0, r6
 3888              	.LBE945:
 3889              	.LBE944:
 3890              	.LBE938:
 3891              		.loc 1 94 3 discriminator 1 view .LVU1011
 3892 001e B842     		cmp	r0, r7
 3893              		.loc 1 90 6 discriminator 1 view .LVU1012
 3894 0020 04F10104 		add	r4, r4, #1
 3895              	.LVL216:
 3896              		.loc 1 94 11 is_stmt 1 discriminator 1 view .LVU1013
 3897              	.LBB950:
 3898              	.LBI938:
 3899              		.loc 5 177 20 discriminator 1 view .LVU1014
 3900              	.LBE950:
 3901              		.loc 5 179 3 discriminator 1 view .LVU1015
 3902              	.LBB951:
 3903              	.LBB947:
 3904              	.LBI939:
 3905              		.loc 5 122 25 discriminator 1 view .LVU1016
 3906              	.LBE947:
 3907              	.LBE951:
 3908              		.loc 5 127 3 discriminator 1 view .LVU1017
 3909              	.LBB952:
 3910              	.LBB948:
 3911              	.LBB943:
 3912              	.LBI940:
 3913              		.loc 4 111 25 discriminator 1 view .LVU1018
 3914              	.LBB942:
 3915              		.loc 4 113 3 discriminator 1 view .LVU1019
 3916              		.loc 4 113 3 is_stmt 0 discriminator 1 view .LVU1020
 3917              	.LBE942:
 3918              	.LBE943:
 3919              	.LBE948:
 3920              	.LBB949:
 3921              	.LBI944:
 3922              		.loc 3 484 20 is_stmt 1 discriminator 1 view .LVU1021
 3923              	.LBB946:
 3924              		.loc 3 488 3 discriminator 1 view .LVU1022
 3925              		.loc 3 488 3 is_stmt 0 discriminator 1 view .LVU1023
 3926              	.LBE946:
 3927              	.LBE949:
 3928              	.LBE952:
 3929              		.loc 1 94 3 discriminator 1 view .LVU1024
 3930 0024 F4D9     		bls	.L90
 3931              		.loc 1 95 3 is_stmt 1 view .LVU1025
 3932              		.loc 1 95 9 is_stmt 0 view .LVU1026
 3933 0026 0021     		movs	r1, #0
 3934 0028 2846     		mov	r0, r5
 3935 002a FFF7FEFF 		bl	chMsgSend
 3936              	.LVL217:
 3937              		.loc 1 96 3 is_stmt 1 view .LVU1027
 3938              		.loc 1 97 1 is_stmt 0 view .LVU1028
 3939 002e 2046     		mov	r0, r4
 3940 0030 F8BD     		pop	{r3, r4, r5, r6, r7, pc}
 3941              		.loc 1 97 1 view .LVU1029
 3942              		.cfi_endproc
ARM GAS  /tmp/ccuqlnP4.s 			page 71


 3943              	.LFE406:
 3944              		.size	msg_loop_test, .-msg_loop_test
 3945 0032 00BF     		.section	.rodata.rt_test_012_003_execute.str1.4,"aMS",%progbits,1
 3946              		.align	2
 3947              	.LC20:
 3948 0000 206D7367 		.ascii	" msgs/S, \000"
 3948      732F532C 
 3948      2000
 3949              		.section	.text.rt_test_012_003_execute,"ax",%progbits
 3950              		.align	1
 3951              		.p2align 4,,15
 3952              		.syntax unified
 3953              		.thumb
 3954              		.thumb_func
 3955              		.fpu softvfp
 3956              		.type	rt_test_012_003_execute, %function
 3957              	rt_test_012_003_execute:
 3958              	.LFB413:
 3959              		.loc 1 300 43 is_stmt 1 view -0
 3960              		.cfi_startproc
 3961              		@ args = 0, pretend = 0, frame = 0
 3962              		@ frame_needed = 0, uses_anonymous_args = 0
 3963              		.loc 1 301 3 view .LVU1031
 3964              		.loc 1 305 3 view .LVU1032
 3965              		.loc 1 300 43 is_stmt 0 view .LVU1033
 3966 0000 2DE9F043 		push	{r4, r5, r6, r7, r8, r9, lr}
 3967              		.cfi_def_cfa_offset 28
 3968              		.cfi_offset 4, -28
 3969              		.cfi_offset 5, -24
 3970              		.cfi_offset 6, -20
 3971              		.cfi_offset 7, -16
 3972              		.cfi_offset 8, -12
 3973              		.cfi_offset 9, -8
 3974              		.cfi_offset 14, -4
 3975              	.LBB953:
 3976              	.LBB954:
 3977              	.LBB955:
 3978              	.LBB956:
 3979              		.loc 6 343 10 view .LVU1034
 3980 0004 364F     		ldr	r7, .L95
 3981              	.LBE956:
 3982              	.LBE955:
 3983              	.LBE954:
 3984              	.LBE953:
 3985              		.loc 1 307 18 view .LVU1035
 3986 0006 374D     		ldr	r5, .L95+4
 3987              	.LBB961:
 3988              	.LBB959:
 3989              		.loc 6 356 37 view .LVU1036
 3990 0008 FB68     		ldr	r3, [r7, #12]
 3991              	.LBE959:
 3992              	.LBE961:
 3993              		.loc 1 305 3 view .LVU1037
 3994 000a DFF8DC80 		ldr	r8, .L95+8
 3995              		.loc 1 307 18 view .LVU1038
 3996 000e 9A68     		ldr	r2, [r3, #8]
 3997 0010 2868     		ldr	r0, [r5]
ARM GAS  /tmp/ccuqlnP4.s 			page 72


 3998 0012 364B     		ldr	r3, .L95+12
 3999              		.loc 1 315 18 view .LVU1039
 4000 0014 DFF8D890 		ldr	r9, .L95+16
 4001              		.loc 1 300 43 view .LVU1040
 4002 0018 83B0     		sub	sp, sp, #12
 4003              		.cfi_def_cfa_offset 40
 4004              		.loc 1 307 18 view .LVU1041
 4005 001a 0026     		movs	r6, #0
 4006 001c 0096     		str	r6, [sp]
 4007 001e 0132     		adds	r2, r2, #1
 4008 0020 4FF4B871 		mov	r1, #368
 4009              		.loc 1 305 3 view .LVU1042
 4010 0024 0124     		movs	r4, #1
 4011 0026 C8F80040 		str	r4, [r8]
 4012              		.loc 1 307 5 is_stmt 1 view .LVU1043
 4013              	.LBB962:
 4014              	.LBI953:
 4015              		.loc 6 354 23 view .LVU1044
 4016              	.LBB960:
 4017              		.loc 6 356 3 view .LVU1045
 4018              	.LBB958:
 4019              	.LBI955:
 4020              		.loc 6 341 25 view .LVU1046
 4021              	.LBB957:
 4022              		.loc 6 343 3 view .LVU1047
 4023              	.LBE957:
 4024              	.LBE958:
 4025              	.LBE960:
 4026              	.LBE962:
 4027              		.loc 1 307 18 is_stmt 0 view .LVU1048
 4028 002a FFF7FEFF 		bl	chThdCreateStatic
 4029              	.LVL218:
 4030              	.LBB963:
 4031              	.LBB964:
 4032              		.loc 6 356 37 view .LVU1049
 4033 002e FB68     		ldr	r3, [r7, #12]
 4034              	.LBE964:
 4035              	.LBE963:
 4036              		.loc 1 307 16 view .LVU1050
 4037 0030 304C     		ldr	r4, .L95+20
 4038              		.loc 1 315 18 view .LVU1051
 4039 0032 9A68     		ldr	r2, [r3, #8]
 4040 0034 0096     		str	r6, [sp]
 4041              		.loc 1 313 3 view .LVU1052
 4042 0036 4FF0020C 		mov	ip, #2
 4043              		.loc 1 307 16 view .LVU1053
 4044 003a 2060     		str	r0, [r4]
 4045              		.loc 1 309 3 is_stmt 1 view .LVU1054
 4046              		.loc 1 309 19 view .LVU1055
 4047              		.loc 1 313 3 view .LVU1056
 4048              		.loc 1 315 18 is_stmt 0 view .LVU1057
 4049 003c 4B46     		mov	r3, r9
 4050 003e 6868     		ldr	r0, [r5, #4]
 4051              		.loc 1 313 3 view .LVU1058
 4052 0040 C8F800C0 		str	ip, [r8]
 4053              		.loc 1 315 5 is_stmt 1 view .LVU1059
 4054              	.LBB968:
ARM GAS  /tmp/ccuqlnP4.s 			page 73


 4055              	.LBI963:
 4056              		.loc 6 354 23 view .LVU1060
 4057              	.LBB967:
 4058              		.loc 6 356 3 view .LVU1061
 4059              	.LBB965:
 4060              	.LBI965:
 4061              		.loc 6 341 25 view .LVU1062
 4062              	.LBB966:
 4063              		.loc 6 343 3 view .LVU1063
 4064              	.LBE966:
 4065              	.LBE965:
 4066              	.LBE967:
 4067              	.LBE968:
 4068              		.loc 1 315 18 is_stmt 0 view .LVU1064
 4069 0044 023A     		subs	r2, r2, #2
 4070 0046 4FF4B871 		mov	r1, #368
 4071 004a FFF7FEFF 		bl	chThdCreateStatic
 4072              	.LVL219:
 4073              	.LBB969:
 4074              	.LBB970:
 4075              		.loc 6 356 37 view .LVU1065
 4076 004e FB68     		ldr	r3, [r7, #12]
 4077              	.LBE970:
 4078              	.LBE969:
 4079              		.loc 1 315 16 view .LVU1066
 4080 0050 6060     		str	r0, [r4, #4]
 4081              		.loc 1 316 5 is_stmt 1 view .LVU1067
 4082              	.LBB974:
 4083              	.LBI969:
 4084              		.loc 6 354 23 view .LVU1068
 4085              	.LBB973:
 4086              		.loc 6 356 3 view .LVU1069
 4087              	.LBB971:
 4088              	.LBI971:
 4089              		.loc 6 341 25 view .LVU1070
 4090              	.LBB972:
 4091              		.loc 6 343 3 view .LVU1071
 4092              	.LBE972:
 4093              	.LBE971:
 4094              	.LBE973:
 4095              	.LBE974:
 4096              		.loc 1 316 18 is_stmt 0 view .LVU1072
 4097 0052 9A68     		ldr	r2, [r3, #8]
 4098 0054 A868     		ldr	r0, [r5, #8]
 4099 0056 0096     		str	r6, [sp]
 4100 0058 4B46     		mov	r3, r9
 4101 005a 033A     		subs	r2, r2, #3
 4102 005c 4FF4B871 		mov	r1, #368
 4103 0060 FFF7FEFF 		bl	chThdCreateStatic
 4104              	.LVL220:
 4105              	.LBB975:
 4106              	.LBB976:
 4107              		.loc 6 356 37 view .LVU1073
 4108 0064 FB68     		ldr	r3, [r7, #12]
 4109              	.LBE976:
 4110              	.LBE975:
 4111              		.loc 1 316 16 view .LVU1074
ARM GAS  /tmp/ccuqlnP4.s 			page 74


 4112 0066 A060     		str	r0, [r4, #8]
 4113              		.loc 1 317 5 is_stmt 1 view .LVU1075
 4114              	.LBB980:
 4115              	.LBI975:
 4116              		.loc 6 354 23 view .LVU1076
 4117              	.LBB979:
 4118              		.loc 6 356 3 view .LVU1077
 4119              	.LBB977:
 4120              	.LBI977:
 4121              		.loc 6 341 25 view .LVU1078
 4122              	.LBB978:
 4123              		.loc 6 343 3 view .LVU1079
 4124              	.LBE978:
 4125              	.LBE977:
 4126              	.LBE979:
 4127              	.LBE980:
 4128              		.loc 1 317 18 is_stmt 0 view .LVU1080
 4129 0068 9A68     		ldr	r2, [r3, #8]
 4130 006a E868     		ldr	r0, [r5, #12]
 4131 006c 0096     		str	r6, [sp]
 4132 006e 4B46     		mov	r3, r9
 4133 0070 043A     		subs	r2, r2, #4
 4134 0072 4FF4B871 		mov	r1, #368
 4135 0076 FFF7FEFF 		bl	chThdCreateStatic
 4136              	.LVL221:
 4137              	.LBB981:
 4138              	.LBB982:
 4139              		.loc 6 356 37 view .LVU1081
 4140 007a FA68     		ldr	r2, [r7, #12]
 4141              	.LBE982:
 4142              	.LBE981:
 4143              		.loc 1 317 16 view .LVU1082
 4144 007c E060     		str	r0, [r4, #12]
 4145              		.loc 1 318 5 is_stmt 1 view .LVU1083
 4146              	.LBB986:
 4147              	.LBI981:
 4148              		.loc 6 354 23 view .LVU1084
 4149              	.LBB985:
 4150              		.loc 6 356 3 view .LVU1085
 4151              	.LBB983:
 4152              	.LBI983:
 4153              		.loc 6 341 25 view .LVU1086
 4154              	.LBB984:
 4155              		.loc 6 343 3 view .LVU1087
 4156              	.LBE984:
 4157              	.LBE983:
 4158              	.LBE985:
 4159              	.LBE986:
 4160              		.loc 1 318 18 is_stmt 0 view .LVU1088
 4161 007e 9268     		ldr	r2, [r2, #8]
 4162 0080 2869     		ldr	r0, [r5, #16]
 4163 0082 0096     		str	r6, [sp]
 4164 0084 4FF4B871 		mov	r1, #368
 4165 0088 4B46     		mov	r3, r9
 4166 008a 053A     		subs	r2, r2, #5
 4167 008c FFF7FEFF 		bl	chThdCreateStatic
 4168              	.LVL222:
ARM GAS  /tmp/ccuqlnP4.s 			page 75


 4169 0090 0346     		mov	r3, r0
 4170              		.loc 1 324 3 view .LVU1089
 4171 0092 0322     		movs	r2, #3
 4172              		.loc 1 318 16 view .LVU1090
 4173 0094 2361     		str	r3, [r4, #16]
 4174              		.loc 1 320 3 is_stmt 1 view .LVU1091
 4175              		.loc 1 320 19 view .LVU1092
 4176              		.loc 1 324 3 view .LVU1093
 4177              		.loc 1 326 5 view .LVU1094
 4178              		.loc 1 326 9 is_stmt 0 view .LVU1095
 4179 0096 2068     		ldr	r0, [r4]
 4180              		.loc 1 324 3 view .LVU1096
 4181 0098 C8F80020 		str	r2, [r8]
 4182              		.loc 1 326 9 view .LVU1097
 4183 009c FFF7FEFF 		bl	msg_loop_test
 4184              	.LVL223:
 4185              	.LBB987:
 4186              	.LBB988:
 4187              		.loc 2 371 3 view .LVU1098
 4188 00a0 154E     		ldr	r6, .L95+24
 4189              	.LBE988:
 4190              	.LBE987:
 4191              	.LBB991:
 4192              	.LBB992:
 4193              		.loc 2 359 3 view .LVU1099
 4194 00a2 164D     		ldr	r5, .L95+28
 4195              	.LBE992:
 4196              	.LBE991:
 4197              		.loc 1 326 9 view .LVU1100
 4198 00a4 0446     		mov	r4, r0
 4199              	.LVL224:
 4200              		.loc 1 327 5 is_stmt 1 view .LVU1101
 4201 00a6 FFF7FEFF 		bl	test_wait_threads
 4202              	.LVL225:
 4203              		.loc 1 329 3 view .LVU1102
 4204              		.loc 1 329 19 view .LVU1103
 4205              		.loc 1 332 3 view .LVU1104
 4206 00aa 0423     		movs	r3, #4
 4207              	.LBB994:
 4208              	.LBB989:
 4209              		.loc 2 371 3 is_stmt 0 view .LVU1105
 4210 00ac 1449     		ldr	r1, .L95+32
 4211              	.LBE989:
 4212              	.LBE994:
 4213              		.loc 1 332 3 view .LVU1106
 4214 00ae C8F80030 		str	r3, [r8]
 4215              		.loc 1 334 5 is_stmt 1 view .LVU1107
 4216              	.LVL226:
 4217              	.LBB995:
 4218              	.LBI987:
 4219              		.loc 2 369 20 view .LVU1108
 4220              	.LBB990:
 4221              		.loc 2 371 3 view .LVU1109
 4222 00b2 3046     		mov	r0, r6
 4223 00b4 FFF7FEFF 		bl	test_printf
 4224              	.LVL227:
 4225              		.loc 2 371 3 is_stmt 0 view .LVU1110
ARM GAS  /tmp/ccuqlnP4.s 			page 76


 4226              	.LBE990:
 4227              	.LBE995:
 4228              		.loc 1 335 5 is_stmt 1 view .LVU1111
 4229              	.LBB996:
 4230              	.LBI991:
 4231              		.loc 2 357 20 view .LVU1112
 4232              	.LBB993:
 4233              		.loc 2 359 3 view .LVU1113
 4234 00b8 2146     		mov	r1, r4
 4235 00ba 2846     		mov	r0, r5
 4236 00bc FFF7FEFF 		bl	test_printf
 4237              	.LVL228:
 4238              		.loc 2 359 3 is_stmt 0 view .LVU1114
 4239              	.LBE993:
 4240              	.LBE996:
 4241              		.loc 1 336 5 is_stmt 1 view .LVU1115
 4242              	.LBB997:
 4243              	.LBI997:
 4244              		.loc 2 369 20 view .LVU1116
 4245              	.LBB998:
 4246              		.loc 2 371 3 view .LVU1117
 4247 00c0 1049     		ldr	r1, .L95+36
 4248 00c2 3046     		mov	r0, r6
 4249 00c4 FFF7FEFF 		bl	test_printf
 4250              	.LVL229:
 4251              		.loc 2 371 3 is_stmt 0 view .LVU1118
 4252              	.LBE998:
 4253              	.LBE997:
 4254              		.loc 1 337 5 is_stmt 1 view .LVU1119
 4255              	.LBB999:
 4256              	.LBI999:
 4257              		.loc 2 357 20 view .LVU1120
 4258              	.LBB1000:
 4259              		.loc 2 359 3 view .LVU1121
 4260 00c8 6100     		lsls	r1, r4, #1
 4261              	.LVL230:
 4262              		.loc 2 359 3 is_stmt 0 view .LVU1122
 4263 00ca 2846     		mov	r0, r5
 4264 00cc FFF7FEFF 		bl	test_printf
 4265              	.LVL231:
 4266              		.loc 2 359 3 view .LVU1123
 4267              	.LBE1000:
 4268              	.LBE999:
 4269              		.loc 1 338 5 is_stmt 1 view .LVU1124
 4270              	.LBB1001:
 4271              	.LBI1001:
 4272              		.loc 2 381 20 view .LVU1125
 4273              	.LBB1002:
 4274              		.loc 2 383 3 view .LVU1126
 4275 00d0 0D49     		ldr	r1, .L95+40
 4276 00d2 0E48     		ldr	r0, .L95+44
 4277              	.LBE1002:
 4278              	.LBE1001:
 4279              		.loc 1 341 1 is_stmt 0 view .LVU1127
 4280 00d4 03B0     		add	sp, sp, #12
 4281              		.cfi_def_cfa_offset 28
 4282              		@ sp needed
ARM GAS  /tmp/ccuqlnP4.s 			page 77


 4283 00d6 BDE8F043 		pop	{r4, r5, r6, r7, r8, r9, lr}
 4284              		.cfi_restore 14
 4285              		.cfi_restore 9
 4286              		.cfi_restore 8
 4287              		.cfi_restore 7
 4288              		.cfi_restore 6
 4289              		.cfi_restore 5
 4290              		.cfi_restore 4
 4291              		.cfi_def_cfa_offset 0
 4292              	.LVL232:
 4293              	.LBB1004:
 4294              	.LBB1003:
 4295              		.loc 2 383 3 view .LVU1128
 4296 00da FFF7FEBF 		b	test_printf
 4297              	.LVL233:
 4298              	.L96:
 4299 00de 00BF     		.align	2
 4300              	.L95:
 4301 00e0 00000000 		.word	ch0
 4302 00e4 00000000 		.word	wa
 4303 00e8 00000000 		.word	chtest
 4304 00ec 00000000 		.word	bmk_thread1
 4305 00f0 00000000 		.word	bmk_thread3
 4306 00f4 00000000 		.word	threads
 4307 00f8 10000000 		.word	.LC1
 4308 00fc 14000000 		.word	.LC2
 4309 0100 00000000 		.word	.LC13
 4310 0104 00000000 		.word	.LC20
 4311 0108 00000000 		.word	.LC17
 4312 010c 20000000 		.word	.LC4
 4313              	.LBE1003:
 4314              	.LBE1004:
 4315              		.cfi_endproc
 4316              	.LFE413:
 4317              		.size	rt_test_012_003_execute, .-rt_test_012_003_execute
 4318              		.section	.text.rt_test_012_002_execute,"ax",%progbits
 4319              		.align	1
 4320              		.p2align 4,,15
 4321              		.syntax unified
 4322              		.thumb
 4323              		.thumb_func
 4324              		.fpu softvfp
 4325              		.type	rt_test_012_002_execute, %function
 4326              	rt_test_012_002_execute:
 4327              	.LFB412:
 4328              		.loc 1 233 43 is_stmt 1 view -0
 4329              		.cfi_startproc
 4330              		@ args = 0, pretend = 0, frame = 0
 4331              		@ frame_needed = 0, uses_anonymous_args = 0
 4332              		.loc 1 234 3 view .LVU1130
 4333              		.loc 1 238 3 view .LVU1131
 4334              		.loc 1 233 43 is_stmt 0 view .LVU1132
 4335 0000 F0B5     		push	{r4, r5, r6, r7, lr}
 4336              		.cfi_def_cfa_offset 20
 4337              		.cfi_offset 4, -20
 4338              		.cfi_offset 5, -16
 4339              		.cfi_offset 6, -12
ARM GAS  /tmp/ccuqlnP4.s 			page 78


 4340              		.cfi_offset 7, -8
 4341              		.cfi_offset 14, -4
 4342              	.LBB1005:
 4343              	.LBB1006:
 4344              	.LBB1007:
 4345              	.LBB1008:
 4346              		.loc 6 343 10 view .LVU1133
 4347 0002 1A4B     		ldr	r3, .L99
 4348              	.LBE1008:
 4349              	.LBE1007:
 4350              	.LBE1006:
 4351              	.LBE1005:
 4352              		.loc 1 240 18 view .LVU1134
 4353 0004 1A49     		ldr	r1, .L99+4
 4354              	.LBB1013:
 4355              	.LBB1011:
 4356              		.loc 6 356 37 view .LVU1135
 4357 0006 DB68     		ldr	r3, [r3, #12]
 4358              	.LBE1011:
 4359              	.LBE1013:
 4360              		.loc 1 238 3 view .LVU1136
 4361 0008 1A4D     		ldr	r5, .L99+8
 4362              		.loc 1 240 18 view .LVU1137
 4363 000a 9A68     		ldr	r2, [r3, #8]
 4364 000c 0868     		ldr	r0, [r1]
 4365 000e 1A4B     		ldr	r3, .L99+12
 4366              	.LBB1014:
 4367              	.LBB1015:
 4368              		.loc 2 371 3 view .LVU1138
 4369 0010 1A4F     		ldr	r7, .L99+16
 4370              	.LBE1015:
 4371              	.LBE1014:
 4372              	.LBB1018:
 4373              	.LBB1019:
 4374              		.loc 2 359 3 view .LVU1139
 4375 0012 1B4E     		ldr	r6, .L99+20
 4376              	.LBE1019:
 4377              	.LBE1018:
 4378              		.loc 1 233 43 view .LVU1140
 4379 0014 83B0     		sub	sp, sp, #12
 4380              		.cfi_def_cfa_offset 32
 4381              		.loc 1 240 18 view .LVU1141
 4382 0016 0024     		movs	r4, #0
 4383              		.loc 1 238 3 view .LVU1142
 4384 0018 0121     		movs	r1, #1
 4385              		.loc 1 240 18 view .LVU1143
 4386 001a 0094     		str	r4, [sp]
 4387              		.loc 1 238 3 view .LVU1144
 4388 001c 2960     		str	r1, [r5]
 4389              		.loc 1 240 5 is_stmt 1 view .LVU1145
 4390              	.LBB1021:
 4391              	.LBI1005:
 4392              		.loc 6 354 23 view .LVU1146
 4393              	.LBB1012:
 4394              		.loc 6 356 3 view .LVU1147
 4395              	.LBB1010:
 4396              	.LBI1007:
ARM GAS  /tmp/ccuqlnP4.s 			page 79


 4397              		.loc 6 341 25 view .LVU1148
 4398              	.LBB1009:
 4399              		.loc 6 343 3 view .LVU1149
 4400              	.LBE1009:
 4401              	.LBE1010:
 4402              	.LBE1012:
 4403              	.LBE1021:
 4404              		.loc 1 240 18 is_stmt 0 view .LVU1150
 4405 001e 0132     		adds	r2, r2, #1
 4406 0020 4FF4B871 		mov	r1, #368
 4407 0024 FFF7FEFF 		bl	chThdCreateStatic
 4408              	.LVL234:
 4409              		.loc 1 240 16 view .LVU1151
 4410 0028 164B     		ldr	r3, .L99+24
 4411              		.loc 1 246 3 view .LVU1152
 4412 002a 0222     		movs	r2, #2
 4413              		.loc 1 240 16 view .LVU1153
 4414 002c 1860     		str	r0, [r3]
 4415              		.loc 1 242 3 is_stmt 1 view .LVU1154
 4416              		.loc 1 242 19 view .LVU1155
 4417              		.loc 1 246 3 view .LVU1156
 4418              		.loc 1 248 5 view .LVU1157
 4419              		.loc 1 246 3 is_stmt 0 view .LVU1158
 4420 002e 2A60     		str	r2, [r5]
 4421              		.loc 1 248 9 view .LVU1159
 4422 0030 FFF7FEFF 		bl	msg_loop_test
 4423              	.LVL235:
 4424 0034 0446     		mov	r4, r0
 4425              	.LVL236:
 4426              		.loc 1 249 5 is_stmt 1 view .LVU1160
 4427 0036 FFF7FEFF 		bl	test_wait_threads
 4428              	.LVL237:
 4429              		.loc 1 251 3 view .LVU1161
 4430              		.loc 1 251 19 view .LVU1162
 4431              		.loc 1 254 3 view .LVU1163
 4432 003a 0323     		movs	r3, #3
 4433              	.LBB1022:
 4434              	.LBB1016:
 4435              		.loc 2 371 3 is_stmt 0 view .LVU1164
 4436 003c 1249     		ldr	r1, .L99+28
 4437              	.LBE1016:
 4438              	.LBE1022:
 4439              		.loc 1 254 3 view .LVU1165
 4440 003e 2B60     		str	r3, [r5]
 4441              		.loc 1 256 5 is_stmt 1 view .LVU1166
 4442              	.LVL238:
 4443              	.LBB1023:
 4444              	.LBI1014:
 4445              		.loc 2 369 20 view .LVU1167
 4446              	.LBB1017:
 4447              		.loc 2 371 3 view .LVU1168
 4448 0040 3846     		mov	r0, r7
 4449 0042 FFF7FEFF 		bl	test_printf
 4450              	.LVL239:
 4451              		.loc 2 371 3 is_stmt 0 view .LVU1169
 4452              	.LBE1017:
 4453              	.LBE1023:
ARM GAS  /tmp/ccuqlnP4.s 			page 80


 4454              		.loc 1 257 5 is_stmt 1 view .LVU1170
 4455              	.LBB1024:
 4456              	.LBI1018:
 4457              		.loc 2 357 20 view .LVU1171
 4458              	.LBB1020:
 4459              		.loc 2 359 3 view .LVU1172
 4460 0046 2146     		mov	r1, r4
 4461 0048 3046     		mov	r0, r6
 4462 004a FFF7FEFF 		bl	test_printf
 4463              	.LVL240:
 4464              		.loc 2 359 3 is_stmt 0 view .LVU1173
 4465              	.LBE1020:
 4466              	.LBE1024:
 4467              		.loc 1 258 5 is_stmt 1 view .LVU1174
 4468              	.LBB1025:
 4469              	.LBI1025:
 4470              		.loc 2 369 20 view .LVU1175
 4471              	.LBB1026:
 4472              		.loc 2 371 3 view .LVU1176
 4473 004e 0F49     		ldr	r1, .L99+32
 4474 0050 3846     		mov	r0, r7
 4475 0052 FFF7FEFF 		bl	test_printf
 4476              	.LVL241:
 4477              		.loc 2 371 3 is_stmt 0 view .LVU1177
 4478              	.LBE1026:
 4479              	.LBE1025:
 4480              		.loc 1 259 5 is_stmt 1 view .LVU1178
 4481              	.LBB1027:
 4482              	.LBI1027:
 4483              		.loc 2 357 20 view .LVU1179
 4484              	.LBB1028:
 4485              		.loc 2 359 3 view .LVU1180
 4486 0056 6100     		lsls	r1, r4, #1
 4487              	.LVL242:
 4488              		.loc 2 359 3 is_stmt 0 view .LVU1181
 4489 0058 3046     		mov	r0, r6
 4490 005a FFF7FEFF 		bl	test_printf
 4491              	.LVL243:
 4492              		.loc 2 359 3 view .LVU1182
 4493              	.LBE1028:
 4494              	.LBE1027:
 4495              		.loc 1 260 5 is_stmt 1 view .LVU1183
 4496              	.LBB1029:
 4497              	.LBI1029:
 4498              		.loc 2 381 20 view .LVU1184
 4499              	.LBB1030:
 4500              		.loc 2 383 3 view .LVU1185
 4501 005e 0C49     		ldr	r1, .L99+36
 4502 0060 0C48     		ldr	r0, .L99+40
 4503              	.LBE1030:
 4504              	.LBE1029:
 4505              		.loc 1 263 1 is_stmt 0 view .LVU1186
 4506 0062 03B0     		add	sp, sp, #12
 4507              		.cfi_def_cfa_offset 20
 4508              		@ sp needed
 4509 0064 BDE8F040 		pop	{r4, r5, r6, r7, lr}
 4510              		.cfi_restore 14
ARM GAS  /tmp/ccuqlnP4.s 			page 81


 4511              		.cfi_restore 7
 4512              		.cfi_restore 6
 4513              		.cfi_restore 5
 4514              		.cfi_restore 4
 4515              		.cfi_def_cfa_offset 0
 4516              	.LVL244:
 4517              	.LBB1032:
 4518              	.LBB1031:
 4519              		.loc 2 383 3 view .LVU1187
 4520 0068 FFF7FEBF 		b	test_printf
 4521              	.LVL245:
 4522              	.L100:
 4523              		.align	2
 4524              	.L99:
 4525 006c 00000000 		.word	ch0
 4526 0070 00000000 		.word	wa
 4527 0074 00000000 		.word	chtest
 4528 0078 00000000 		.word	bmk_thread1
 4529 007c 10000000 		.word	.LC1
 4530 0080 14000000 		.word	.LC2
 4531 0084 00000000 		.word	threads
 4532 0088 00000000 		.word	.LC13
 4533 008c 00000000 		.word	.LC20
 4534 0090 00000000 		.word	.LC17
 4535 0094 20000000 		.word	.LC4
 4536              	.LBE1031:
 4537              	.LBE1032:
 4538              		.cfi_endproc
 4539              	.LFE412:
 4540              		.size	rt_test_012_002_execute, .-rt_test_012_002_execute
 4541              		.section	.text.rt_test_012_001_execute,"ax",%progbits
 4542              		.align	1
 4543              		.p2align 4,,15
 4544              		.syntax unified
 4545              		.thumb
 4546              		.thumb_func
 4547              		.fpu softvfp
 4548              		.type	rt_test_012_001_execute, %function
 4549              	rt_test_012_001_execute:
 4550              	.LFB411:
 4551              		.loc 1 169 43 is_stmt 1 view -0
 4552              		.cfi_startproc
 4553              		@ args = 0, pretend = 0, frame = 0
 4554              		@ frame_needed = 0, uses_anonymous_args = 0
 4555              		.loc 1 170 3 view .LVU1189
 4556              		.loc 1 174 3 view .LVU1190
 4557              		.loc 1 169 43 is_stmt 0 view .LVU1191
 4558 0000 F0B5     		push	{r4, r5, r6, r7, lr}
 4559              		.cfi_def_cfa_offset 20
 4560              		.cfi_offset 4, -20
 4561              		.cfi_offset 5, -16
 4562              		.cfi_offset 6, -12
 4563              		.cfi_offset 7, -8
 4564              		.cfi_offset 14, -4
 4565              	.LBB1033:
 4566              	.LBB1034:
 4567              	.LBB1035:
ARM GAS  /tmp/ccuqlnP4.s 			page 82


 4568              	.LBB1036:
 4569              		.loc 6 343 10 view .LVU1192
 4570 0002 1A4B     		ldr	r3, .L103
 4571              	.LBE1036:
 4572              	.LBE1035:
 4573              	.LBE1034:
 4574              	.LBE1033:
 4575              		.loc 1 176 18 view .LVU1193
 4576 0004 1A49     		ldr	r1, .L103+4
 4577              	.LBB1041:
 4578              	.LBB1039:
 4579              		.loc 6 356 37 view .LVU1194
 4580 0006 DB68     		ldr	r3, [r3, #12]
 4581              	.LBE1039:
 4582              	.LBE1041:
 4583              		.loc 1 174 3 view .LVU1195
 4584 0008 1A4D     		ldr	r5, .L103+8
 4585              		.loc 1 176 18 view .LVU1196
 4586 000a 9A68     		ldr	r2, [r3, #8]
 4587 000c 0868     		ldr	r0, [r1]
 4588 000e 1A4B     		ldr	r3, .L103+12
 4589              	.LBB1042:
 4590              	.LBB1043:
 4591              		.loc 2 371 3 view .LVU1197
 4592 0010 1A4F     		ldr	r7, .L103+16
 4593              	.LBE1043:
 4594              	.LBE1042:
 4595              	.LBB1046:
 4596              	.LBB1047:
 4597              		.loc 2 359 3 view .LVU1198
 4598 0012 1B4E     		ldr	r6, .L103+20
 4599              	.LBE1047:
 4600              	.LBE1046:
 4601              		.loc 1 169 43 view .LVU1199
 4602 0014 83B0     		sub	sp, sp, #12
 4603              		.cfi_def_cfa_offset 32
 4604              		.loc 1 176 18 view .LVU1200
 4605 0016 0024     		movs	r4, #0
 4606              		.loc 1 174 3 view .LVU1201
 4607 0018 0121     		movs	r1, #1
 4608              		.loc 1 176 18 view .LVU1202
 4609 001a 0094     		str	r4, [sp]
 4610              		.loc 1 174 3 view .LVU1203
 4611 001c 2960     		str	r1, [r5]
 4612              		.loc 1 176 5 is_stmt 1 view .LVU1204
 4613              	.LBB1049:
 4614              	.LBI1033:
 4615              		.loc 6 354 23 view .LVU1205
 4616              	.LBB1040:
 4617              		.loc 6 356 3 view .LVU1206
 4618              	.LBB1038:
 4619              	.LBI1035:
 4620              		.loc 6 341 25 view .LVU1207
 4621              	.LBB1037:
 4622              		.loc 6 343 3 view .LVU1208
 4623              	.LBE1037:
 4624              	.LBE1038:
ARM GAS  /tmp/ccuqlnP4.s 			page 83


 4625              	.LBE1040:
 4626              	.LBE1049:
 4627              		.loc 1 176 18 is_stmt 0 view .LVU1209
 4628 001e 013A     		subs	r2, r2, #1
 4629 0020 4FF4B871 		mov	r1, #368
 4630 0024 FFF7FEFF 		bl	chThdCreateStatic
 4631              	.LVL246:
 4632              		.loc 1 176 16 view .LVU1210
 4633 0028 164B     		ldr	r3, .L103+24
 4634              		.loc 1 182 3 view .LVU1211
 4635 002a 0222     		movs	r2, #2
 4636              		.loc 1 176 16 view .LVU1212
 4637 002c 1860     		str	r0, [r3]
 4638              		.loc 1 178 3 is_stmt 1 view .LVU1213
 4639              		.loc 1 178 19 view .LVU1214
 4640              		.loc 1 182 3 view .LVU1215
 4641              		.loc 1 184 5 view .LVU1216
 4642              		.loc 1 182 3 is_stmt 0 view .LVU1217
 4643 002e 2A60     		str	r2, [r5]
 4644              		.loc 1 184 9 view .LVU1218
 4645 0030 FFF7FEFF 		bl	msg_loop_test
 4646              	.LVL247:
 4647 0034 0446     		mov	r4, r0
 4648              	.LVL248:
 4649              		.loc 1 185 5 is_stmt 1 view .LVU1219
 4650 0036 FFF7FEFF 		bl	test_wait_threads
 4651              	.LVL249:
 4652              		.loc 1 187 3 view .LVU1220
 4653              		.loc 1 187 19 view .LVU1221
 4654              		.loc 1 190 3 view .LVU1222
 4655 003a 0323     		movs	r3, #3
 4656              	.LBB1050:
 4657              	.LBB1044:
 4658              		.loc 2 371 3 is_stmt 0 view .LVU1223
 4659 003c 1249     		ldr	r1, .L103+28
 4660              	.LBE1044:
 4661              	.LBE1050:
 4662              		.loc 1 190 3 view .LVU1224
 4663 003e 2B60     		str	r3, [r5]
 4664              		.loc 1 192 5 is_stmt 1 view .LVU1225
 4665              	.LVL250:
 4666              	.LBB1051:
 4667              	.LBI1042:
 4668              		.loc 2 369 20 view .LVU1226
 4669              	.LBB1045:
 4670              		.loc 2 371 3 view .LVU1227
 4671 0040 3846     		mov	r0, r7
 4672 0042 FFF7FEFF 		bl	test_printf
 4673              	.LVL251:
 4674              		.loc 2 371 3 is_stmt 0 view .LVU1228
 4675              	.LBE1045:
 4676              	.LBE1051:
 4677              		.loc 1 193 5 is_stmt 1 view .LVU1229
 4678              	.LBB1052:
 4679              	.LBI1046:
 4680              		.loc 2 357 20 view .LVU1230
 4681              	.LBB1048:
ARM GAS  /tmp/ccuqlnP4.s 			page 84


 4682              		.loc 2 359 3 view .LVU1231
 4683 0046 2146     		mov	r1, r4
 4684 0048 3046     		mov	r0, r6
 4685 004a FFF7FEFF 		bl	test_printf
 4686              	.LVL252:
 4687              		.loc 2 359 3 is_stmt 0 view .LVU1232
 4688              	.LBE1048:
 4689              	.LBE1052:
 4690              		.loc 1 194 5 is_stmt 1 view .LVU1233
 4691              	.LBB1053:
 4692              	.LBI1053:
 4693              		.loc 2 369 20 view .LVU1234
 4694              	.LBB1054:
 4695              		.loc 2 371 3 view .LVU1235
 4696 004e 0F49     		ldr	r1, .L103+32
 4697 0050 3846     		mov	r0, r7
 4698 0052 FFF7FEFF 		bl	test_printf
 4699              	.LVL253:
 4700              		.loc 2 371 3 is_stmt 0 view .LVU1236
 4701              	.LBE1054:
 4702              	.LBE1053:
 4703              		.loc 1 195 5 is_stmt 1 view .LVU1237
 4704              	.LBB1055:
 4705              	.LBI1055:
 4706              		.loc 2 357 20 view .LVU1238
 4707              	.LBB1056:
 4708              		.loc 2 359 3 view .LVU1239
 4709 0056 6100     		lsls	r1, r4, #1
 4710              	.LVL254:
 4711              		.loc 2 359 3 is_stmt 0 view .LVU1240
 4712 0058 3046     		mov	r0, r6
 4713 005a FFF7FEFF 		bl	test_printf
 4714              	.LVL255:
 4715              		.loc 2 359 3 view .LVU1241
 4716              	.LBE1056:
 4717              	.LBE1055:
 4718              		.loc 1 196 5 is_stmt 1 view .LVU1242
 4719              	.LBB1057:
 4720              	.LBI1057:
 4721              		.loc 2 381 20 view .LVU1243
 4722              	.LBB1058:
 4723              		.loc 2 383 3 view .LVU1244
 4724 005e 0C49     		ldr	r1, .L103+36
 4725 0060 0C48     		ldr	r0, .L103+40
 4726              	.LBE1058:
 4727              	.LBE1057:
 4728              		.loc 1 199 1 is_stmt 0 view .LVU1245
 4729 0062 03B0     		add	sp, sp, #12
 4730              		.cfi_def_cfa_offset 20
 4731              		@ sp needed
 4732 0064 BDE8F040 		pop	{r4, r5, r6, r7, lr}
 4733              		.cfi_restore 14
 4734              		.cfi_restore 7
 4735              		.cfi_restore 6
 4736              		.cfi_restore 5
 4737              		.cfi_restore 4
 4738              		.cfi_def_cfa_offset 0
ARM GAS  /tmp/ccuqlnP4.s 			page 85


 4739              	.LVL256:
 4740              	.LBB1060:
 4741              	.LBB1059:
 4742              		.loc 2 383 3 view .LVU1246
 4743 0068 FFF7FEBF 		b	test_printf
 4744              	.LVL257:
 4745              	.L104:
 4746              		.align	2
 4747              	.L103:
 4748 006c 00000000 		.word	ch0
 4749 0070 00000000 		.word	wa
 4750 0074 00000000 		.word	chtest
 4751 0078 00000000 		.word	bmk_thread1
 4752 007c 10000000 		.word	.LC1
 4753 0080 14000000 		.word	.LC2
 4754 0084 00000000 		.word	threads
 4755 0088 00000000 		.word	.LC13
 4756 008c 00000000 		.word	.LC20
 4757 0090 00000000 		.word	.LC17
 4758 0094 20000000 		.word	.LC4
 4759              	.LBE1059:
 4760              	.LBE1060:
 4761              		.cfi_endproc
 4762              	.LFE411:
 4763              		.size	rt_test_012_001_execute, .-rt_test_012_001_execute
 4764              		.global	rt_test_sequence_012
 4765              		.section	.rodata.str1.4,"aMS",%progbits,1
 4766              		.align	2
 4767              	.LC21:
 4768 0000 42656E63 		.ascii	"Benchmarks\000"
 4768      686D6172 
 4768      6B7300
 4769              		.global	rt_test_sequence_012_array
 4770 000b 00       		.align	2
 4771              	.LC22:
 4772 000c 52414D20 		.ascii	"RAM Footprint\000"
 4772      466F6F74 
 4772      7072696E 
 4772      7400
 4773 001a 0000     		.align	2
 4774              	.LC23:
 4775 001c 4D757465 		.ascii	"Mutexes lock/unlock performance\000"
 4775      78657320 
 4775      6C6F636B 
 4775      2F756E6C 
 4775      6F636B20 
 4776              		.align	2
 4777              	.LC24:
 4778 003c 53656D61 		.ascii	"Semaphores wait/signal performance\000"
 4778      70686F72 
 4778      65732077 
 4778      6169742F 
 4778      7369676E 
 4779 005f 00       		.align	2
 4780              	.LC25:
 4781 0060 56697274 		.ascii	"Virtual Timers set/reset performance\000"
 4781      75616C20 
ARM GAS  /tmp/ccuqlnP4.s 			page 86


 4781      54696D65 
 4781      72732073 
 4781      65742F72 
 4782 0085 000000   		.align	2
 4783              	.LC26:
 4784 0088 526F756E 		.ascii	"Round-Robin voluntary reschedule\000"
 4784      642D526F 
 4784      62696E20 
 4784      766F6C75 
 4784      6E746172 
 4785 00a9 000000   		.align	2
 4786              	.LC27:
 4787 00ac 4D617373 		.ascii	"Mass reschedule performance\000"
 4787      20726573 
 4787      63686564 
 4787      756C6520 
 4787      70657266 
 4788              		.align	2
 4789              	.LC28:
 4790 00c8 54687265 		.ascii	"Threads performance, create/exit only\000"
 4790      61647320 
 4790      70657266 
 4790      6F726D61 
 4790      6E63652C 
 4791 00ee 0000     		.align	2
 4792              	.LC29:
 4793 00f0 54687265 		.ascii	"Threads performance, full cycle\000"
 4793      61647320 
 4793      70657266 
 4793      6F726D61 
 4793      6E63652C 
 4794              		.align	2
 4795              	.LC30:
 4796 0110 436F6E74 		.ascii	"Context Switch performance\000"
 4796      65787420 
 4796      53776974 
 4796      63682070 
 4796      6572666F 
 4797 012b 00       		.align	2
 4798              	.LC31:
 4799 012c 4D657373 		.ascii	"Messages performance #3\000"
 4799      61676573 
 4799      20706572 
 4799      666F726D 
 4799      616E6365 
 4800              		.align	2
 4801              	.LC32:
 4802 0144 4D657373 		.ascii	"Messages performance #2\000"
 4802      61676573 
 4802      20706572 
 4802      666F726D 
 4802      616E6365 
 4803              		.align	2
 4804              	.LC33:
 4805 015c 4D657373 		.ascii	"Messages performance #1\000"
 4805      61676573 
 4805      20706572 
ARM GAS  /tmp/ccuqlnP4.s 			page 87


 4805      666F726D 
 4805      616E6365 
 4806              		.section	.bss.mtx1,"aw",%nobits
 4807              		.align	2
 4808              		.set	.LANCHOR0,. + 0
 4809              		.type	mtx1, %object
 4810              		.size	mtx1, 16
 4811              	mtx1:
 4812 0000 00000000 		.space	16
 4812      00000000 
 4812      00000000 
 4812      00000000 
 4813              		.section	.bss.sem1,"aw",%nobits
 4814              		.align	2
 4815              		.set	.LANCHOR1,. + 0
 4816              		.type	sem1, %object
 4817              		.size	sem1, 12
 4818              	sem1:
 4819 0000 00000000 		.space	12
 4819      00000000 
 4819      00000000 
 4820              		.section	.bss.vt1.1,"aw",%nobits
 4821              		.align	2
 4822              		.set	.LANCHOR2,. + 0
 4823              		.type	vt1.1, %object
 4824              		.size	vt1.1, 24
 4825              	vt1.1:
 4826 0000 00000000 		.space	24
 4826      00000000 
 4826      00000000 
 4826      00000000 
 4826      00000000 
 4827              		.section	.bss.vt2.0,"aw",%nobits
 4828              		.align	2
 4829              		.set	.LANCHOR3,. + 0
 4830              		.type	vt2.0, %object
 4831              		.size	vt2.0, 24
 4832              	vt2.0:
 4833 0000 00000000 		.space	24
 4833      00000000 
 4833      00000000 
 4833      00000000 
 4833      00000000 
 4834              		.section	.rodata.rt_test_012_001,"a"
 4835              		.align	2
 4836              		.type	rt_test_012_001, %object
 4837              		.size	rt_test_012_001, 16
 4838              	rt_test_012_001:
 4839 0000 5C010000 		.word	.LC33
 4840 0004 00000000 		.word	0
 4841 0008 00000000 		.word	0
 4842 000c 00000000 		.word	rt_test_012_001_execute
 4843              		.section	.rodata.rt_test_012_002,"a"
 4844              		.align	2
 4845              		.type	rt_test_012_002, %object
 4846              		.size	rt_test_012_002, 16
 4847              	rt_test_012_002:
ARM GAS  /tmp/ccuqlnP4.s 			page 88


 4848 0000 44010000 		.word	.LC32
 4849 0004 00000000 		.word	0
 4850 0008 00000000 		.word	0
 4851 000c 00000000 		.word	rt_test_012_002_execute
 4852              		.section	.rodata.rt_test_012_003,"a"
 4853              		.align	2
 4854              		.type	rt_test_012_003, %object
 4855              		.size	rt_test_012_003, 16
 4856              	rt_test_012_003:
 4857 0000 2C010000 		.word	.LC31
 4858 0004 00000000 		.word	0
 4859 0008 00000000 		.word	0
 4860 000c 00000000 		.word	rt_test_012_003_execute
 4861              		.section	.rodata.rt_test_012_004,"a"
 4862              		.align	2
 4863              		.type	rt_test_012_004, %object
 4864              		.size	rt_test_012_004, 16
 4865              	rt_test_012_004:
 4866 0000 10010000 		.word	.LC30
 4867 0004 00000000 		.word	0
 4868 0008 00000000 		.word	0
 4869 000c 00000000 		.word	rt_test_012_004_execute
 4870              		.section	.rodata.rt_test_012_005,"a"
 4871              		.align	2
 4872              		.type	rt_test_012_005, %object
 4873              		.size	rt_test_012_005, 16
 4874              	rt_test_012_005:
 4875 0000 F0000000 		.word	.LC29
 4876 0004 00000000 		.word	0
 4877 0008 00000000 		.word	0
 4878 000c 00000000 		.word	rt_test_012_005_execute
 4879              		.section	.rodata.rt_test_012_006,"a"
 4880              		.align	2
 4881              		.type	rt_test_012_006, %object
 4882              		.size	rt_test_012_006, 16
 4883              	rt_test_012_006:
 4884 0000 C8000000 		.word	.LC28
 4885 0004 00000000 		.word	0
 4886 0008 00000000 		.word	0
 4887 000c 00000000 		.word	rt_test_012_006_execute
 4888              		.section	.rodata.rt_test_012_007,"a"
 4889              		.align	2
 4890              		.type	rt_test_012_007, %object
 4891              		.size	rt_test_012_007, 16
 4892              	rt_test_012_007:
 4893 0000 AC000000 		.word	.LC27
 4894 0004 00000000 		.word	rt_test_012_007_setup
 4895 0008 00000000 		.word	0
 4896 000c 00000000 		.word	rt_test_012_007_execute
 4897              		.section	.rodata.rt_test_012_008,"a"
 4898              		.align	2
 4899              		.type	rt_test_012_008, %object
 4900              		.size	rt_test_012_008, 16
 4901              	rt_test_012_008:
 4902 0000 88000000 		.word	.LC26
 4903 0004 00000000 		.word	0
 4904 0008 00000000 		.word	0
ARM GAS  /tmp/ccuqlnP4.s 			page 89


 4905 000c 00000000 		.word	rt_test_012_008_execute
 4906              		.section	.rodata.rt_test_012_009,"a"
 4907              		.align	2
 4908              		.type	rt_test_012_009, %object
 4909              		.size	rt_test_012_009, 16
 4910              	rt_test_012_009:
 4911 0000 60000000 		.word	.LC25
 4912 0004 00000000 		.word	0
 4913 0008 00000000 		.word	0
 4914 000c 00000000 		.word	rt_test_012_009_execute
 4915              		.section	.rodata.rt_test_012_010,"a"
 4916              		.align	2
 4917              		.type	rt_test_012_010, %object
 4918              		.size	rt_test_012_010, 16
 4919              	rt_test_012_010:
 4920 0000 3C000000 		.word	.LC24
 4921 0004 00000000 		.word	rt_test_012_010_setup
 4922 0008 00000000 		.word	0
 4923 000c 00000000 		.word	rt_test_012_010_execute
 4924              		.section	.rodata.rt_test_012_011,"a"
 4925              		.align	2
 4926              		.type	rt_test_012_011, %object
 4927              		.size	rt_test_012_011, 16
 4928              	rt_test_012_011:
 4929 0000 1C000000 		.word	.LC23
 4930 0004 00000000 		.word	rt_test_012_011_setup
 4931 0008 00000000 		.word	0
 4932 000c 00000000 		.word	rt_test_012_011_execute
 4933              		.section	.rodata.rt_test_012_012,"a"
 4934              		.align	2
 4935              		.type	rt_test_012_012, %object
 4936              		.size	rt_test_012_012, 16
 4937              	rt_test_012_012:
 4938 0000 0C000000 		.word	.LC22
 4939 0004 00000000 		.word	0
 4940 0008 00000000 		.word	0
 4941 000c 00000000 		.word	rt_test_012_012_execute
 4942              		.section	.rodata.rt_test_sequence_012,"a"
 4943              		.align	2
 4944              		.type	rt_test_sequence_012, %object
 4945              		.size	rt_test_sequence_012, 8
 4946              	rt_test_sequence_012:
 4947 0000 00000000 		.word	.LC21
 4948 0004 00000000 		.word	rt_test_sequence_012_array
 4949              		.section	.rodata.rt_test_sequence_012_array,"a"
 4950              		.align	2
 4951              		.type	rt_test_sequence_012_array, %object
 4952              		.size	rt_test_sequence_012_array, 52
 4953              	rt_test_sequence_012_array:
 4954 0000 00000000 		.word	rt_test_012_001
 4955 0004 00000000 		.word	rt_test_012_002
 4956 0008 00000000 		.word	rt_test_012_003
 4957 000c 00000000 		.word	rt_test_012_004
 4958 0010 00000000 		.word	rt_test_012_005
 4959 0014 00000000 		.word	rt_test_012_006
 4960 0018 00000000 		.word	rt_test_012_007
 4961 001c 00000000 		.word	rt_test_012_008
ARM GAS  /tmp/ccuqlnP4.s 			page 90


 4962 0020 00000000 		.word	rt_test_012_009
 4963 0024 00000000 		.word	rt_test_012_010
 4964 0028 00000000 		.word	rt_test_012_011
 4965 002c 00000000 		.word	rt_test_012_012
 4966 0030 00000000 		.word	0
 4967              		.text
 4968              	.Letext0:
 4969              		.file 12 "/opt/gcc-arm-none-eabi/gcc-arm-none-eabi-10.3-2021.07/lib/gcc/arm-none-eabi/10.3.1/inclu
 4970              		.file 13 "/opt/gcc-arm-none-eabi/gcc-arm-none-eabi-10.3-2021.07/arm-none-eabi/include/machine/_def
 4971              		.file 14 "/opt/gcc-arm-none-eabi/gcc-arm-none-eabi-10.3-2021.07/arm-none-eabi/include/sys/_stdint.
 4972              		.file 15 "../ChibiOS/os/common/ports/ARM-common/chtypes.h"
 4973              		.file 16 "../ChibiOS/os/rt/include/chearly.h"
 4974              		.file 17 "../ChibiOS/os/rt/include/chobjects.h"
 4975              		.file 18 "../ChibiOS/os/rt/include/chrfcu.h"
 4976              		.file 19 "../ChibiOS/os/rt/include/chdebug.h"
 4977              		.file 20 "../ChibiOS/os/rt/include/chlists.h"
 4978              		.file 21 "../ChibiOS/os/rt/include/chmtx.h"
 4979              		.file 22 "../ChibiOS/os/hal/include/hal_streams.h"
 4980              		.file 23 "../ChibiOS/test/rt/source/test/rt_test_sequence_012.h"
 4981              		.file 24 "../ChibiOS/test/rt/source/test/rt_test_root.h"
 4982              		.file 25 "../ChibiOS/os/hal/include/hal_st.h"
 4983              		.file 26 "../ChibiOS/os/rt/include/chschd.h"