ARM GAS  /tmp/ccuvAGn4.s 			page 1


   1              		.cpu cortex-m4
   2              		.eabi_attribute 20, 1
   3              		.eabi_attribute 21, 1
   4              		.eabi_attribute 23, 3
   5              		.eabi_attribute 24, 1
   6              		.eabi_attribute 25, 1
   7              		.eabi_attribute 26, 1
   8              		.eabi_attribute 30, 2
   9              		.eabi_attribute 34, 1
  10              		.eabi_attribute 18, 4
  11              		.file	"rt_test_root.c"
  12              		.text
  13              	.Ltext0:
  14              		.cfi_sections	.debug_frame
  15              		.section	.text.test_terminate_threads,"ax",%progbits
  16              		.align	1
  17              		.p2align 4,,15
  18              		.global	test_terminate_threads
  19              		.arch armv7e-m
  20              		.syntax unified
  21              		.thumb
  22              		.thumb_func
  23              		.fpu softvfp
  24              		.type	test_terminate_threads, %function
  25              	test_terminate_threads:
  26              	.LFB404:
  27              		.file 1 "../ChibiOS/test/rt/source/test/rt_test_root.c"
  28              		.loc 1 116 35 view -0
  29              		.cfi_startproc
  30              		@ args = 0, pretend = 0, frame = 0
  31              		@ frame_needed = 0, uses_anonymous_args = 0
  32              		.loc 1 117 3 view .LVU1
  33              		.loc 1 119 3 view .LVU2
  34              	.LVL0:
  35              		.loc 1 119 15 view .LVU3
  36              		.loc 1 116 35 is_stmt 0 view .LVU4
  37 0000 38B5     		push	{r3, r4, r5, lr}
  38              		.cfi_def_cfa_offset 16
  39              		.cfi_offset 3, -16
  40              		.cfi_offset 4, -12
  41              		.cfi_offset 5, -8
  42              		.cfi_offset 14, -4
  43 0002 054C     		ldr	r4, .L10
  44 0004 04F11405 		add	r5, r4, #20
  45              	.LVL1:
  46              	.L3:
  47              		.loc 1 120 5 is_stmt 1 view .LVU5
  48              		.loc 1 121 7 view .LVU6
  49              		.loc 1 120 16 is_stmt 0 view .LVU7
  50 0008 54F8040B 		ldr	r0, [r4], #4
  51              		.loc 1 120 8 view .LVU8
  52 000c 08B1     		cbz	r0, .L2
  53              		.loc 1 121 7 view .LVU9
  54 000e FFF7FEFF 		bl	chThdTerminate
  55              	.LVL2:
  56              	.L2:
  57              		.loc 1 119 32 is_stmt 1 discriminator 2 view .LVU10
ARM GAS  /tmp/ccuvAGn4.s 			page 2


  58              		.loc 1 119 15 discriminator 2 view .LVU11
  59              		.loc 1 119 3 is_stmt 0 discriminator 2 view .LVU12
  60 0012 AC42     		cmp	r4, r5
  61 0014 F8D1     		bne	.L3
  62              		.loc 1 122 1 view .LVU13
  63 0016 38BD     		pop	{r3, r4, r5, pc}
  64              	.L11:
  65              		.align	2
  66              	.L10:
  67 0018 00000000 		.word	.LANCHOR0
  68              		.cfi_endproc
  69              	.LFE404:
  70              		.size	test_terminate_threads, .-test_terminate_threads
  71              		.section	.text.test_wait_threads,"ax",%progbits
  72              		.align	1
  73              		.p2align 4,,15
  74              		.global	test_wait_threads
  75              		.syntax unified
  76              		.thumb
  77              		.thumb_func
  78              		.fpu softvfp
  79              		.type	test_wait_threads, %function
  80              	test_wait_threads:
  81              	.LFB405:
  82              		.loc 1 127 30 is_stmt 1 view -0
  83              		.cfi_startproc
  84              		@ args = 0, pretend = 0, frame = 0
  85              		@ frame_needed = 0, uses_anonymous_args = 0
  86              		.loc 1 128 3 view .LVU15
  87              		.loc 1 130 3 view .LVU16
  88              	.LVL3:
  89              		.loc 1 130 15 view .LVU17
  90              		.loc 1 127 30 is_stmt 0 view .LVU18
  91 0000 70B5     		push	{r4, r5, r6, lr}
  92              		.cfi_def_cfa_offset 16
  93              		.cfi_offset 4, -16
  94              		.cfi_offset 5, -12
  95              		.cfi_offset 6, -8
  96              		.cfi_offset 14, -4
  97 0002 074C     		ldr	r4, .L20
  98              		.loc 1 133 18 view .LVU19
  99 0004 0026     		movs	r6, #0
 100 0006 04F11405 		add	r5, r4, #20
 101              	.LVL4:
 102              	.L14:
 103              		.loc 1 131 5 is_stmt 1 view .LVU20
 104              		.loc 1 132 7 view .LVU21
 105              		.loc 1 131 16 is_stmt 0 view .LVU22
 106 000a 54F8040B 		ldr	r0, [r4], #4
 107              		.loc 1 131 8 view .LVU23
 108 000e 18B1     		cbz	r0, .L13
 109              		.loc 1 132 7 view .LVU24
 110 0010 FFF7FEFF 		bl	chThdWait
 111              	.LVL5:
 112              		.loc 1 133 7 is_stmt 1 view .LVU25
 113              		.loc 1 133 18 is_stmt 0 view .LVU26
 114 0014 44F8046C 		str	r6, [r4, #-4]
ARM GAS  /tmp/ccuvAGn4.s 			page 3


 115              	.L13:
 116              		.loc 1 130 32 is_stmt 1 discriminator 2 view .LVU27
 117              		.loc 1 130 15 discriminator 2 view .LVU28
 118              		.loc 1 130 3 is_stmt 0 discriminator 2 view .LVU29
 119 0018 AC42     		cmp	r4, r5
 120 001a F6D1     		bne	.L14
 121              		.loc 1 135 1 view .LVU30
 122 001c 70BD     		pop	{r4, r5, r6, pc}
 123              	.L21:
 124 001e 00BF     		.align	2
 125              	.L20:
 126 0020 00000000 		.word	.LANCHOR0
 127              		.cfi_endproc
 128              	.LFE405:
 129              		.size	test_wait_threads, .-test_wait_threads
 130              		.section	.text.test_wait_tick,"ax",%progbits
 131              		.align	1
 132              		.p2align 4,,15
 133              		.global	test_wait_tick
 134              		.syntax unified
 135              		.thumb
 136              		.thumb_func
 137              		.fpu softvfp
 138              		.type	test_wait_tick, %function
 139              	test_wait_tick:
 140              	.LFB406:
 141              		.loc 1 140 32 is_stmt 1 view -0
 142              		.cfi_startproc
 143              		@ args = 0, pretend = 0, frame = 0
 144              		@ frame_needed = 0, uses_anonymous_args = 0
 145              		.loc 1 142 3 view .LVU32
 146              		.loc 1 140 32 is_stmt 0 view .LVU33
 147 0000 08B5     		push	{r3, lr}
 148              		.cfi_def_cfa_offset 8
 149              		.cfi_offset 3, -8
 150              		.cfi_offset 14, -4
 151              		.loc 1 142 3 view .LVU34
 152 0002 0120     		movs	r0, #1
 153 0004 FFF7FEFF 		bl	chThdSleep
 154              	.LVL6:
 155              		.loc 1 143 3 is_stmt 1 view .LVU35
 156              	.LBB44:
 157              	.LBI44:
 158              		.file 2 "../ChibiOS/os/rt/include/chvt.h"
 159              		.loc 2 141 25 view .LVU36
 160              	.LBB45:
 161              		.loc 2 142 3 view .LVU37
 162              		.loc 2 144 3 view .LVU38
 163              	.LBB46:
 164              	.LBI46:
 165              		.file 3 "../ChibiOS/os/rt/include/chsys.h"
 166              		.loc 3 407 20 view .LVU39
 167              	.LBE46:
 168              	.LBE45:
 169              	.LBE44:
 170              		.loc 3 409 3 view .LVU40
 171              	.LBB70:
ARM GAS  /tmp/ccuvAGn4.s 			page 4


 172              	.LBB65:
 173              	.LBB51:
 174              	.LBB47:
 175              	.LBI47:
 176              		.file 4 "../ChibiOS/os/common/ports/ARMv7-M/chcore.h"
 177              		.loc 4 806 27 view .LVU41
 178              	.LBE47:
 179              	.LBE51:
 180              	.LBE65:
 181              	.LBE70:
 182              		.loc 4 814 3 view .LVU42
 183              	.LBB71:
 184              	.LBB66:
 185              	.LBB52:
 186              	.LBB50:
 187              	.LBB48:
 188              	.LBI48:
 189              		.file 5 "../ChibiOS/os/common/ext/ARM/CMSIS/Core/Include/cmsis_gcc.h"
 190              		.loc 5 491 27 view .LVU43
 191              	.LBB49:
 192              		.loc 5 493 3 view .LVU44
 193 0008 3023     		movs	r3, #48
 194              		.syntax unified
 195              	@ 493 "../ChibiOS/os/common/ext/ARM/CMSIS/Core/Include/cmsis_gcc.h" 1
 196 000a 83F31188 		MSR basepri, r3
 197              	@ 0 "" 2
 198              	.LVL7:
 199              		.loc 5 493 3 is_stmt 0 view .LVU45
 200              		.thumb
 201              		.syntax unified
 202              	.LBE49:
 203              	.LBE48:
 204              	.LBE50:
 205              	.LBE52:
 206              	.LBE66:
 207              	.LBE71:
 208              		.loc 3 410 35 is_stmt 1 view .LVU46
 209              		.loc 3 411 21 view .LVU47
 210              	.LBB72:
 211              	.LBB67:
 212              		.loc 2 145 3 view .LVU48
 213              	.LBB53:
 214              	.LBI53:
 215              		.loc 2 122 25 view .LVU49
 216              	.LBE53:
 217              	.LBE67:
 218              	.LBE72:
 219              		.loc 2 127 3 view .LVU50
 220              	.LBB73:
 221              	.LBB68:
 222              	.LBB56:
 223              	.LBB54:
 224              	.LBI54:
 225              		.file 6 "../ChibiOS/os/hal/osal/rt-nil/chcore_timer.h"
 226              		.loc 6 111 25 view .LVU51
 227              	.LBB55:
 228              		.loc 6 113 3 view .LVU52
ARM GAS  /tmp/ccuvAGn4.s 			page 5


 229              		.loc 6 113 10 is_stmt 0 view .LVU53
 230 000e FFF7FEFF 		bl	stGetCounter
 231              	.LVL8:
 232              		.loc 6 113 10 view .LVU54
 233              	.LBE55:
 234              	.LBE54:
 235              	.LBE56:
 236              		.loc 2 146 3 is_stmt 1 view .LVU55
 237              	.LBB57:
 238              	.LBI57:
 239              		.loc 3 421 20 view .LVU56
 240              	.LBB58:
 241              		.loc 3 423 23 view .LVU57
 242              		.loc 3 424 34 view .LVU58
 243              		.loc 3 430 3 view .LVU59
 244              		.loc 3 430 3 view .LVU60
 245              		.loc 3 430 3 view .LVU61
 246              		.loc 3 434 3 view .LVU62
 247              	.LBB59:
 248              	.LBI59:
 249              		.loc 4 830 27 view .LVU63
 250              	.LBE59:
 251              	.LBE58:
 252              	.LBE57:
 253              	.LBE68:
 254              	.LBE73:
 255              		.loc 4 833 3 view .LVU64
 256              	.LBB74:
 257              	.LBB69:
 258              	.LBB64:
 259              	.LBB63:
 260              	.LBB62:
 261              	.LBB60:
 262              	.LBI60:
 263              		.loc 5 491 27 view .LVU65
 264              	.LBB61:
 265              		.loc 5 493 3 view .LVU66
 266 0012 0023     		movs	r3, #0
 267              		.syntax unified
 268              	@ 493 "../ChibiOS/os/common/ext/ARM/CMSIS/Core/Include/cmsis_gcc.h" 1
 269 0014 83F31188 		MSR basepri, r3
 270              	@ 0 "" 2
 271              	.LVL9:
 272              		.loc 5 493 3 is_stmt 0 view .LVU67
 273              		.thumb
 274              		.syntax unified
 275              	.LBE61:
 276              	.LBE60:
 277              	.LBE62:
 278              	.LBE63:
 279              	.LBE64:
 280              		.loc 2 148 3 is_stmt 1 view .LVU68
 281              	.LBE69:
 282              	.LBE74:
 283              		.loc 1 144 1 is_stmt 0 view .LVU69
 284 0018 08BD     		pop	{r3, pc}
 285              		.cfi_endproc
ARM GAS  /tmp/ccuvAGn4.s 			page 6


 286              	.LFE406:
 287              		.size	test_wait_tick, .-test_wait_tick
 288              		.global	wa
 289              		.global	threads
 290              		.global	test_buffer
 291              		.global	rt_test_suite
 292 001a 00BF     		.section	.rodata.str1.4,"aMS",%progbits,1
 293              		.align	2
 294              	.LC0:
 295 0000 43686962 		.ascii	"ChibiOS/RT Test Suite\000"
 295      694F532F 
 295      52542054 
 295      65737420 
 295      53756974 
 296              		.global	rt_test_suite_array
 297              		.section	.bss.test_buffer,"aw",%nobits
 298              		.align	3
 299              		.type	test_buffer, %object
 300              		.size	test_buffer, 1840
 301              	test_buffer:
 302 0000 00000000 		.space	1840
 302      00000000 
 302      00000000 
 302      00000000 
 302      00000000 
 303              		.section	.bss.threads,"aw",%nobits
 304              		.align	2
 305              		.set	.LANCHOR0,. + 0
 306              		.type	threads, %object
 307              		.size	threads, 20
 308              	threads:
 309 0000 00000000 		.space	20
 309      00000000 
 309      00000000 
 309      00000000 
 309      00000000 
 310              		.section	.rodata.rt_test_suite,"a"
 311              		.align	2
 312              		.type	rt_test_suite, %object
 313              		.size	rt_test_suite, 8
 314              	rt_test_suite:
 315 0000 00000000 		.word	.LC0
 316 0004 00000000 		.word	rt_test_suite_array
 317              		.section	.rodata.rt_test_suite_array,"a"
 318              		.align	2
 319              		.type	rt_test_suite_array, %object
 320              		.size	rt_test_suite_array, 52
 321              	rt_test_suite_array:
 322 0000 00000000 		.word	rt_test_sequence_001
 323 0004 00000000 		.word	rt_test_sequence_002
 324 0008 00000000 		.word	rt_test_sequence_003
 325 000c 00000000 		.word	rt_test_sequence_004
 326 0010 00000000 		.word	rt_test_sequence_005
 327 0014 00000000 		.word	rt_test_sequence_006
 328 0018 00000000 		.word	rt_test_sequence_007
 329 001c 00000000 		.word	rt_test_sequence_008
 330 0020 00000000 		.word	rt_test_sequence_009
ARM GAS  /tmp/ccuvAGn4.s 			page 7


 331 0024 00000000 		.word	rt_test_sequence_010
 332 0028 00000000 		.word	rt_test_sequence_011
 333 002c 00000000 		.word	rt_test_sequence_012
 334 0030 00000000 		.word	0
 335              		.section	.rodata.wa,"a"
 336              		.align	2
 337              		.type	wa, %object
 338              		.size	wa, 20
 339              	wa:
 340 0000 00000000 		.word	test_buffer
 341 0004 70010000 		.word	test_buffer+368
 342 0008 E0020000 		.word	test_buffer+736
 343 000c 50040000 		.word	test_buffer+1104
 344 0010 C0050000 		.word	test_buffer+1472
 345              		.text
 346              	.Letext0:
 347              		.file 7 "/opt/gcc-arm-none-eabi/gcc-arm-none-eabi-10.3-2021.07/lib/gcc/arm-none-eabi/10.3.1/includ
 348              		.file 8 "/opt/gcc-arm-none-eabi/gcc-arm-none-eabi-10.3-2021.07/arm-none-eabi/include/machine/_defa
 349              		.file 9 "/opt/gcc-arm-none-eabi/gcc-arm-none-eabi-10.3-2021.07/arm-none-eabi/include/sys/_stdint.h
 350              		.file 10 "../ChibiOS/os/common/ports/ARM-common/chtypes.h"
 351              		.file 11 "../ChibiOS/os/rt/include/chearly.h"
 352              		.file 12 "../ChibiOS/os/rt/include/chobjects.h"
 353              		.file 13 "../ChibiOS/os/rt/include/chrfcu.h"
 354              		.file 14 "../ChibiOS/os/rt/include/chdebug.h"
 355              		.file 15 "../ChibiOS/os/rt/include/chtime.h"
 356              		.file 16 "../ChibiOS/os/rt/include/chlists.h"
 357              		.file 17 "../ChibiOS/os/rt/include/chsem.h"
 358              		.file 18 "../ChibiOS/os/rt/include/chmtx.h"
 359              		.file 19 "../ChibiOS/os/test/include/ch_test.h"
 360              		.file 20 "../ChibiOS/test/rt/source/test/rt_test_sequence_001.h"
 361              		.file 21 "../ChibiOS/test/rt/source/test/rt_test_sequence_002.h"
 362              		.file 22 "../ChibiOS/test/rt/source/test/rt_test_sequence_003.h"
 363              		.file 23 "../ChibiOS/test/rt/source/test/rt_test_sequence_004.h"
 364              		.file 24 "../ChibiOS/test/rt/source/test/rt_test_sequence_005.h"
 365              		.file 25 "../ChibiOS/test/rt/source/test/rt_test_sequence_006.h"
 366              		.file 26 "../ChibiOS/test/rt/source/test/rt_test_sequence_007.h"
 367              		.file 27 "../ChibiOS/test/rt/source/test/rt_test_sequence_008.h"
 368              		.file 28 "../ChibiOS/test/rt/source/test/rt_test_sequence_009.h"
 369              		.file 29 "../ChibiOS/test/rt/source/test/rt_test_sequence_010.h"
 370              		.file 30 "../ChibiOS/test/rt/source/test/rt_test_sequence_011.h"
 371              		.file 31 "../ChibiOS/test/rt/source/test/rt_test_sequence_012.h"
 372              		.file 32 "../ChibiOS/test/rt/source/test/rt_test_root.h"
 373              		.file 33 "../ChibiOS/os/hal/include/hal_st.h"
 374              		.file 34 "../ChibiOS/os/rt/include/chthreads.h"