ARM GAS  /tmp/ccTPRGr7.s 			page 1


   1              		.cpu cortex-m4
   2              		.eabi_attribute 20, 1
   3              		.eabi_attribute 21, 1
   4              		.eabi_attribute 23, 3
   5              		.eabi_attribute 24, 1
   6              		.eabi_attribute 25, 1
   7              		.eabi_attribute 26, 1
   8              		.eabi_attribute 30, 2
   9              		.eabi_attribute 34, 1
  10              		.eabi_attribute 18, 4
  11              		.file	"rt_test_sequence_010.c"
  12              		.text
  13              	.Ltext0:
  14              		.cfi_sections	.debug_frame
  15              		.section	.text.rt_test_010_007_setup,"ax",%progbits
  16              		.align	1
  17              		.p2align 4,,15
  18              		.arch armv7e-m
  19              		.syntax unified
  20              		.thumb
  21              		.thumb_func
  22              		.fpu softvfp
  23              		.type	rt_test_010_007_setup, %function
  24              	rt_test_010_007_setup:
  25              	.LFB420:
  26              		.file 1 "../ChibiOS/test/rt/source/test/rt_test_sequence_010.c"
  27              		.loc 1 512 41 view -0
  28              		.cfi_startproc
  29              		@ args = 0, pretend = 0, frame = 0
  30              		@ frame_needed = 0, uses_anonymous_args = 0
  31              		.loc 1 513 3 view .LVU1
  32              		.loc 1 512 41 is_stmt 0 view .LVU2
  33 0000 08B5     		push	{r3, lr}
  34              		.cfi_def_cfa_offset 8
  35              		.cfi_offset 3, -8
  36              		.cfi_offset 14, -4
  37              		.loc 1 513 3 view .LVU3
  38 0002 4FF0FF30 		mov	r0, #-1
  39 0006 FFF7FEFF 		bl	chEvtGetAndClearEvents
  40              	.LVL0:
  41              		.loc 1 514 3 is_stmt 1 view .LVU4
  42              	.LBB182:
  43              	.LBI182:
  44              		.file 2 "../ChibiOS/os/rt/include/chevents.h"
  45              		.loc 2 175 20 view .LVU5
  46              	.LBB183:
  47              		.loc 2 177 3 view .LVU6
  48              		.loc 2 177 13 is_stmt 0 view .LVU7
  49 000a 024A     		ldr	r2, .L4
  50              	.LBE183:
  51              	.LBE182:
  52              	.LBB185:
  53              	.LBB186:
  54 000c 024B     		ldr	r3, .L4+4
  55              	.LBE186:
  56              	.LBE185:
  57              	.LBB188:
ARM GAS  /tmp/ccTPRGr7.s 			page 2


  58              	.LBB184:
  59 000e 1260     		str	r2, [r2]
  60              	.LVL1:
  61              		.loc 2 177 13 view .LVU8
  62              	.LBE184:
  63              	.LBE188:
  64              		.loc 1 515 3 is_stmt 1 view .LVU9
  65              	.LBB189:
  66              	.LBI185:
  67              		.loc 2 175 20 view .LVU10
  68              	.LBB187:
  69              		.loc 2 177 3 view .LVU11
  70              		.loc 2 177 13 is_stmt 0 view .LVU12
  71 0010 1B60     		str	r3, [r3]
  72              	.LVL2:
  73              		.loc 2 177 13 view .LVU13
  74              	.LBE187:
  75              	.LBE189:
  76              		.loc 1 516 1 view .LVU14
  77 0012 08BD     		pop	{r3, pc}
  78              	.L5:
  79              		.align	2
  80              	.L4:
  81 0014 00000000 		.word	.LANCHOR0
  82 0018 00000000 		.word	.LANCHOR1
  83              		.cfi_endproc
  84              	.LFE420:
  85              		.size	rt_test_010_007_setup, .-rt_test_010_007_setup
  86              		.section	.text.rt_test_010_002_setup,"ax",%progbits
  87              		.align	1
  88              		.p2align 4,,15
  89              		.syntax unified
  90              		.thumb
  91              		.thumb_func
  92              		.fpu softvfp
  93              		.type	rt_test_010_002_setup, %function
  94              	rt_test_010_002_setup:
  95              	.LFB410:
  96              		.loc 1 160 41 is_stmt 1 view -0
  97              		.cfi_startproc
  98              		@ args = 0, pretend = 0, frame = 0
  99              		@ frame_needed = 0, uses_anonymous_args = 0
 100              		@ link register save eliminated.
 101              		.loc 1 161 3 view .LVU16
 102 0000 4FF0FF30 		mov	r0, #-1
 103 0004 FFF7FEBF 		b	chEvtGetAndClearEvents
 104              	.LVL3:
 105              		.cfi_endproc
 106              	.LFE410:
 107              		.size	rt_test_010_002_setup, .-rt_test_010_002_setup
 108              		.section	.text.evt_thread7,"ax",%progbits
 109              		.align	1
 110              		.p2align 4,,15
 111              		.syntax unified
 112              		.thumb
 113              		.thumb_func
 114              		.fpu softvfp
ARM GAS  /tmp/ccTPRGr7.s 			page 3


 115              		.type	evt_thread7, %function
 116              	evt_thread7:
 117              	.LVL4:
 118              	.LFB408:
 119              		.loc 1 68 37 view -0
 120              		.cfi_startproc
 121              		@ args = 0, pretend = 0, frame = 0
 122              		@ frame_needed = 0, uses_anonymous_args = 0
 123              		.loc 1 70 3 view .LVU18
 124              		.loc 1 71 3 view .LVU19
 125              	.LBB190:
 126              	.LBI190:
 127              		.loc 2 242 20 view .LVU20
 128              	.LBB191:
 129              		.loc 2 244 3 view .LVU21
 130              	.LBE191:
 131              	.LBE190:
 132              		.loc 1 68 37 is_stmt 0 view .LVU22
 133 0000 08B5     		push	{r3, lr}
 134              		.cfi_def_cfa_offset 8
 135              		.cfi_offset 3, -8
 136              		.cfi_offset 14, -4
 137              	.LBB193:
 138              	.LBB192:
 139              		.loc 2 244 3 view .LVU23
 140 0002 0021     		movs	r1, #0
 141 0004 0648     		ldr	r0, .L9
 142              	.LVL5:
 143              		.loc 2 244 3 view .LVU24
 144 0006 FFF7FEFF 		bl	chEvtBroadcastFlags
 145              	.LVL6:
 146              		.loc 2 244 3 view .LVU25
 147              	.LBE192:
 148              	.LBE193:
 149              		.loc 1 72 3 is_stmt 1 view .LVU26
 150 000a 4FF4FA70 		mov	r0, #500
 151 000e FFF7FEFF 		bl	chThdSleep
 152              	.LVL7:
 153              		.loc 1 73 3 view .LVU27
 154              	.LBB194:
 155              	.LBI194:
 156              		.loc 2 242 20 view .LVU28
 157              	.LBB195:
 158              		.loc 2 244 3 view .LVU29
 159              	.LBE195:
 160              	.LBE194:
 161              		.loc 1 74 1 is_stmt 0 view .LVU30
 162 0012 BDE80840 		pop	{r3, lr}
 163              		.cfi_restore 14
 164              		.cfi_restore 3
 165              		.cfi_def_cfa_offset 0
 166              	.LBB197:
 167              	.LBB196:
 168              		.loc 2 244 3 view .LVU31
 169 0016 0348     		ldr	r0, .L9+4
 170 0018 0021     		movs	r1, #0
 171 001a FFF7FEBF 		b	chEvtBroadcastFlags
ARM GAS  /tmp/ccTPRGr7.s 			page 4


 172              	.LVL8:
 173              	.L10:
 174 001e 00BF     		.align	2
 175              	.L9:
 176 0020 00000000 		.word	.LANCHOR0
 177 0024 00000000 		.word	.LANCHOR1
 178              	.LBE196:
 179              	.LBE197:
 180              		.cfi_endproc
 181              	.LFE408:
 182              		.size	evt_thread7, .-evt_thread7
 183              		.section	.rodata.rt_test_010_007_execute.str1.4,"aMS",%progbits,1
 184              		.align	2
 185              	.LC0:
 186 0000 4100     		.ascii	"A\000"
 187 0002 0000     		.align	2
 188              	.LC1:
 189 0004 6F757420 		.ascii	"out of time window\000"
 189      6F662074 
 189      696D6520 
 189      77696E64 
 189      6F7700
 190 0017 00       		.align	2
 191              	.LC2:
 192 0018 73747563 		.ascii	"stuck event\000"
 192      6B206576 
 192      656E7400 
 193              		.align	2
 194              	.LC3:
 195 0024 73747563 		.ascii	"stuck listener\000"
 195      6B206C69 
 195      7374656E 
 195      657200
 196              		.section	.text.rt_test_010_007_execute,"ax",%progbits
 197              		.align	1
 198              		.p2align 4,,15
 199              		.syntax unified
 200              		.thumb
 201              		.thumb_func
 202              		.fpu softvfp
 203              		.type	rt_test_010_007_execute, %function
 204              	rt_test_010_007_execute:
 205              	.LFB421:
 206              		.loc 1 518 43 is_stmt 1 view -0
 207              		.cfi_startproc
 208              		@ args = 0, pretend = 0, frame = 40
 209              		@ frame_needed = 0, uses_anonymous_args = 0
 210              		.loc 1 519 3 view .LVU33
 211              		.loc 1 520 3 view .LVU34
 212              		.loc 1 521 3 view .LVU35
 213              		.loc 1 525 3 view .LVU36
 214              		.loc 1 518 43 is_stmt 0 view .LVU37
 215 0000 F0B5     		push	{r4, r5, r6, r7, lr}
 216              		.cfi_def_cfa_offset 20
 217              		.cfi_offset 4, -20
 218              		.cfi_offset 5, -16
 219              		.cfi_offset 6, -12
ARM GAS  /tmp/ccTPRGr7.s 			page 5


 220              		.cfi_offset 7, -8
 221              		.cfi_offset 14, -4
 222              	.LBB198:
 223              	.LBB199:
 224              		.loc 2 198 3 view .LVU38
 225 0002 304E     		ldr	r6, .L17
 226              	.LBE199:
 227              	.LBE198:
 228              		.loc 1 525 3 view .LVU39
 229 0004 304D     		ldr	r5, .L17+4
 230              	.LBB202:
 231              	.LBB203:
 232              		.loc 2 198 3 view .LVU40
 233 0006 314F     		ldr	r7, .L17+8
 234              	.LBE203:
 235              	.LBE202:
 236              		.loc 1 518 43 view .LVU41
 237 0008 8DB0     		sub	sp, sp, #52
 238              		.cfi_def_cfa_offset 72
 239              		.loc 1 525 3 view .LVU42
 240 000a 0122     		movs	r2, #1
 241              	.LBB205:
 242              	.LBB200:
 243              		.loc 2 198 3 view .LVU43
 244 000c 4FF0FF33 		mov	r3, #-1
 245 0010 02A9     		add	r1, sp, #8
 246 0012 3046     		mov	r0, r6
 247              	.LBE200:
 248              	.LBE205:
 249              		.loc 1 525 3 view .LVU44
 250 0014 2A60     		str	r2, [r5]
 251              		.loc 1 527 5 is_stmt 1 view .LVU45
 252              	.LVL9:
 253              	.LBB206:
 254              	.LBI198:
 255              		.loc 2 194 20 view .LVU46
 256              	.LBB201:
 257              		.loc 2 198 3 view .LVU47
 258 0016 FFF7FEFF 		bl	chEvtRegisterMaskWithFlags
 259              	.LVL10:
 260              		.loc 2 198 3 is_stmt 0 view .LVU48
 261              	.LBE201:
 262              	.LBE206:
 263              		.loc 1 528 5 is_stmt 1 view .LVU49
 264              	.LBB207:
 265              	.LBI202:
 266              		.loc 2 194 20 view .LVU50
 267              	.LBB204:
 268              		.loc 2 198 3 view .LVU51
 269 001a 0422     		movs	r2, #4
 270 001c 07A9     		add	r1, sp, #28
 271              	.LVL11:
 272              		.loc 2 198 3 is_stmt 0 view .LVU52
 273 001e 4FF0FF33 		mov	r3, #-1
 274 0022 3846     		mov	r0, r7
 275 0024 FFF7FEFF 		bl	chEvtRegisterMaskWithFlags
 276              	.LVL12:
ARM GAS  /tmp/ccTPRGr7.s 			page 6


 277              		.loc 2 198 3 view .LVU53
 278              	.LBE204:
 279              	.LBE207:
 280              		.loc 1 530 3 is_stmt 1 view .LVU54
 281              		.loc 1 530 19 view .LVU55
 282              		.loc 1 535 3 view .LVU56
 283 0028 0223     		movs	r3, #2
 284 002a 2B60     		str	r3, [r5]
 285              		.loc 1 537 5 view .LVU57
 286              		.loc 1 537 19 is_stmt 0 view .LVU58
 287 002c FFF7FEFF 		bl	test_wait_tick
 288              	.LVL13:
 289              	.LBB208:
 290              	.LBB209:
 291              	.LBB210:
 292              	.LBB211:
 293              		.file 3 "../ChibiOS/os/rt/include/chthreads.h"
 294              		.loc 3 343 10 view .LVU59
 295 0030 274B     		ldr	r3, .L17+12
 296              	.LBE211:
 297              	.LBE210:
 298              		.loc 3 356 37 view .LVU60
 299 0032 DB68     		ldr	r3, [r3, #12]
 300              	.LBE209:
 301              	.LBE208:
 302              		.loc 1 538 18 view .LVU61
 303 0034 9A68     		ldr	r2, [r3, #8]
 304 0036 274B     		ldr	r3, .L17+16
 305              		.loc 1 537 19 view .LVU62
 306 0038 0446     		mov	r4, r0
 307              	.LVL14:
 308              	.LBB215:
 309              	.LBI215:
 310              		.file 4 "../ChibiOS/os/rt/include/chtime.h"
 311              		.loc 4 442 25 is_stmt 1 view .LVU63
 312              	.LBB216:
 313              		.loc 4 449 3 view .LVU64
 314              		.loc 4 449 3 is_stmt 0 view .LVU65
 315              	.LBE216:
 316              	.LBE215:
 317              		.loc 1 538 5 is_stmt 1 view .LVU66
 318              	.LBB217:
 319              	.LBI208:
 320              		.loc 3 354 23 view .LVU67
 321              	.LBB214:
 322              		.loc 3 356 3 view .LVU68
 323              	.LBB213:
 324              	.LBI210:
 325              		.loc 3 341 25 view .LVU69
 326              	.LBB212:
 327              		.loc 3 343 3 view .LVU70
 328              	.LBE212:
 329              	.LBE213:
 330              	.LBE214:
 331              	.LBE217:
 332              		.loc 1 538 18 is_stmt 0 view .LVU71
 333 003a 1868     		ldr	r0, [r3]
ARM GAS  /tmp/ccTPRGr7.s 			page 7


 334              	.LVL15:
 335              		.loc 1 538 18 view .LVU72
 336 003c 264B     		ldr	r3, .L17+20
 337 003e 0093     		str	r3, [sp]
 338 0040 013A     		subs	r2, r2, #1
 339 0042 4FF4B871 		mov	r1, #368
 340 0046 254B     		ldr	r3, .L17+24
 341 0048 FFF7FEFF 		bl	chThdCreateStatic
 342              	.LVL16:
 343              		.loc 1 538 16 view .LVU73
 344 004c 244B     		ldr	r3, .L17+28
 345 004e 1860     		str	r0, [r3]
 346              		.loc 1 541 3 is_stmt 1 view .LVU74
 347              		.loc 1 541 19 view .LVU75
 348              		.loc 1 546 3 view .LVU76
 349 0050 0323     		movs	r3, #3
 350              		.loc 1 548 9 is_stmt 0 view .LVU77
 351 0052 0520     		movs	r0, #5
 352              		.loc 1 546 3 view .LVU78
 353 0054 2B60     		str	r3, [r5]
 354              		.loc 1 548 5 is_stmt 1 view .LVU79
 355              		.loc 1 548 9 is_stmt 0 view .LVU80
 356 0056 FFF7FEFF 		bl	chEvtWaitAll
 357              	.LVL17:
 358              		.loc 1 549 5 is_stmt 1 view .LVU81
 359              	.LBB218:
 360              	.LBI218:
 361              		.loc 4 442 25 view .LVU82
 362              	.LBB219:
 363              		.loc 4 449 3 view .LVU83
 364              		.loc 4 449 3 is_stmt 0 view .LVU84
 365              	.LBE219:
 366              	.LBE218:
 367              		.loc 1 549 5 view .LVU85
 368 005a 224A     		ldr	r2, .L17+32
 369 005c 04F50271 		add	r1, r4, #520
 370 0060 04F5FA70 		add	r0, r4, #500
 371              	.LVL18:
 372              		.loc 1 549 5 view .LVU86
 373 0064 FFF7FEFF 		bl	__test_assert_time_window
 374              	.LVL19:
 375              		.loc 1 549 5 view .LVU87
 376 0068 08B1     		cbz	r0, .L16
 377              	.L11:
 378              		.loc 1 567 1 view .LVU88
 379 006a 0DB0     		add	sp, sp, #52
 380              		.cfi_remember_state
 381              		.cfi_def_cfa_offset 20
 382              		@ sp needed
 383 006c F0BD     		pop	{r4, r5, r6, r7, pc}
 384              	.LVL20:
 385              	.L16:
 386              		.cfi_restore_state
 387              		.loc 1 551 50 is_stmt 1 view .LVU89
 388              		.loc 1 552 5 view .LVU90
 389              		.loc 1 552 9 is_stmt 0 view .LVU91
 390 006e 4FF0FF30 		mov	r0, #-1
ARM GAS  /tmp/ccTPRGr7.s 			page 8


 391 0072 FFF7FEFF 		bl	chEvtGetAndClearEvents
 392              	.LVL21:
 393              		.loc 1 553 5 is_stmt 1 view .LVU92
 394 0076 B0FA80F0 		clz	r0, r0
 395              	.LVL22:
 396              		.loc 1 553 5 is_stmt 0 view .LVU93
 397 007a 1B49     		ldr	r1, .L17+36
 398 007c 4009     		lsrs	r0, r0, #5
 399 007e FFF7FEFF 		bl	__test_assert
 400              	.LVL23:
 401 0082 0028     		cmp	r0, #0
 402 0084 F1D1     		bne	.L11
 403              		.loc 1 553 39 is_stmt 1 discriminator 2 view .LVU94
 404              		.loc 1 554 5 discriminator 2 view .LVU95
 405 0086 FFF7FEFF 		bl	test_wait_threads
 406              	.LVL24:
 407              		.loc 1 556 3 discriminator 2 view .LVU96
 408              		.loc 1 556 19 discriminator 2 view .LVU97
 409              		.loc 1 559 3 discriminator 2 view .LVU98
 410 008a 0423     		movs	r3, #4
 411              		.loc 1 561 5 is_stmt 0 discriminator 2 view .LVU99
 412 008c 02A9     		add	r1, sp, #8
 413 008e 3046     		mov	r0, r6
 414              		.loc 1 559 3 discriminator 2 view .LVU100
 415 0090 2B60     		str	r3, [r5]
 416              		.loc 1 561 5 is_stmt 1 discriminator 2 view .LVU101
 417 0092 FFF7FEFF 		bl	chEvtUnregister
 418              	.LVL25:
 419              		.loc 1 562 5 discriminator 2 view .LVU102
 420 0096 07A9     		add	r1, sp, #28
 421 0098 3846     		mov	r0, r7
 422 009a FFF7FEFF 		bl	chEvtUnregister
 423              	.LVL26:
 424              		.loc 1 563 5 discriminator 2 view .LVU103
 425              	.LBB220:
 426              	.LBI220:
 427              		.loc 2 229 20 discriminator 2 view .LVU104
 428              	.LBB221:
 429              		.loc 2 231 3 discriminator 2 view .LVU105
 430              		.loc 2 231 3 is_stmt 0 discriminator 2 view .LVU106
 431              	.LBE221:
 432              	.LBE220:
 433              		.loc 1 563 5 discriminator 2 view .LVU107
 434 009e 3068     		ldr	r0, [r6]
 435 00a0 1249     		ldr	r1, .L17+40
 436 00a2 801B     		subs	r0, r0, r6
 437 00a4 B0FA80F0 		clz	r0, r0
 438 00a8 4009     		lsrs	r0, r0, #5
 439 00aa FFF7FEFF 		bl	__test_assert
 440              	.LVL27:
 441 00ae 0028     		cmp	r0, #0
 442 00b0 DBD1     		bne	.L11
 443              		.loc 1 563 60 is_stmt 1 view .LVU108
 444              		.loc 1 564 5 view .LVU109
 445              	.LVL28:
 446              	.LBB222:
 447              	.LBI222:
ARM GAS  /tmp/ccTPRGr7.s 			page 9


 448              		.loc 2 229 20 view .LVU110
 449              	.LBB223:
 450              		.loc 2 231 3 view .LVU111
 451              		.loc 2 231 3 is_stmt 0 view .LVU112
 452              	.LBE223:
 453              	.LBE222:
 454              		.loc 1 564 5 view .LVU113
 455 00b2 3868     		ldr	r0, [r7]
 456 00b4 0D49     		ldr	r1, .L17+40
 457 00b6 C01B     		subs	r0, r0, r7
 458 00b8 B0FA80F0 		clz	r0, r0
 459 00bc 4009     		lsrs	r0, r0, #5
 460 00be FFF7FEFF 		bl	__test_assert
 461              	.LVL29:
 462              		.loc 1 564 5 is_stmt 1 view .LVU114
 463 00c2 D2E7     		b	.L11
 464              	.L18:
 465              		.align	2
 466              	.L17:
 467 00c4 00000000 		.word	.LANCHOR0
 468 00c8 00000000 		.word	chtest
 469 00cc 00000000 		.word	.LANCHOR1
 470 00d0 00000000 		.word	ch0
 471 00d4 00000000 		.word	wa
 472 00d8 00000000 		.word	.LC0
 473 00dc 00000000 		.word	evt_thread7
 474 00e0 00000000 		.word	threads
 475 00e4 04000000 		.word	.LC1
 476 00e8 18000000 		.word	.LC2
 477 00ec 24000000 		.word	.LC3
 478              		.cfi_endproc
 479              	.LFE421:
 480              		.size	rt_test_010_007_execute, .-rt_test_010_007_execute
 481              		.section	.rodata.rt_test_010_001_execute.str1.4,"aMS",%progbits,1
 482              		.align	2
 483              	.LC4:
 484 0000 6E6F206C 		.ascii	"no listener\000"
 484      69737465 
 484      6E657200 
 485              		.section	.text.rt_test_010_001_execute,"ax",%progbits
 486              		.align	1
 487              		.p2align 4,,15
 488              		.syntax unified
 489              		.thumb
 490              		.thumb_func
 491              		.fpu softvfp
 492              		.type	rt_test_010_001_execute, %function
 493              	rt_test_010_001_execute:
 494              	.LFB409:
 495              		.loc 1 101 43 view -0
 496              		.cfi_startproc
 497              		@ args = 0, pretend = 0, frame = 40
 498              		@ frame_needed = 0, uses_anonymous_args = 0
 499              		.loc 1 102 3 view .LVU116
 500              		.loc 1 105 3 view .LVU117
 501              		.loc 1 107 5 view .LVU118
 502              	.LVL30:
ARM GAS  /tmp/ccTPRGr7.s 			page 10


 503              	.LBB224:
 504              	.LBI224:
 505              		.loc 2 175 20 view .LVU119
 506              	.LBB225:
 507              		.loc 2 177 3 view .LVU120
 508              	.LBE225:
 509              	.LBE224:
 510              		.loc 1 101 43 is_stmt 0 view .LVU121
 511 0000 2DE9F041 		push	{r4, r5, r6, r7, r8, lr}
 512              		.cfi_def_cfa_offset 24
 513              		.cfi_offset 4, -24
 514              		.cfi_offset 5, -20
 515              		.cfi_offset 6, -16
 516              		.cfi_offset 7, -12
 517              		.cfi_offset 8, -8
 518              		.cfi_offset 14, -4
 519              	.LBB228:
 520              	.LBB226:
 521              		.loc 2 177 13 view .LVU122
 522 0004 2C4C     		ldr	r4, .L27
 523              	.LBE226:
 524              	.LBE228:
 525              		.loc 1 113 3 view .LVU123
 526 0006 2D4F     		ldr	r7, .L27+4
 527              	.LBB229:
 528              	.LBB227:
 529              		.loc 2 177 13 view .LVU124
 530 0008 2460     		str	r4, [r4]
 531              	.LVL31:
 532              		.loc 2 177 13 view .LVU125
 533              	.LBE227:
 534              	.LBE229:
 535              		.loc 1 109 3 is_stmt 1 view .LVU126
 536              		.loc 1 109 19 view .LVU127
 537              		.loc 1 113 3 view .LVU128
 538              		.loc 1 101 43 is_stmt 0 view .LVU129
 539 000a 8AB0     		sub	sp, sp, #40
 540              		.cfi_def_cfa_offset 64
 541              		.loc 1 113 3 view .LVU130
 542 000c 0225     		movs	r5, #2
 543              	.LBB230:
 544              	.LBB231:
 545              		.loc 2 198 3 view .LVU131
 546 000e 6946     		mov	r1, sp
 547 0010 2046     		mov	r0, r4
 548 0012 4FF0FF33 		mov	r3, #-1
 549 0016 0122     		movs	r2, #1
 550              	.LBE231:
 551              	.LBE230:
 552              		.loc 1 113 3 view .LVU132
 553 0018 3D60     		str	r5, [r7]
 554              		.loc 1 115 5 is_stmt 1 view .LVU133
 555              	.LVL32:
 556              	.LBB233:
 557              	.LBI230:
 558              		.loc 2 194 20 view .LVU134
 559              	.LBB232:
ARM GAS  /tmp/ccTPRGr7.s 			page 11


 560              		.loc 2 198 3 view .LVU135
 561 001a FFF7FEFF 		bl	chEvtRegisterMaskWithFlags
 562              	.LVL33:
 563              		.loc 2 198 3 is_stmt 0 view .LVU136
 564              	.LBE232:
 565              	.LBE233:
 566              		.loc 1 116 5 is_stmt 1 view .LVU137
 567              	.LBB234:
 568              	.LBI234:
 569              		.loc 2 194 20 view .LVU138
 570              	.LBB235:
 571              		.loc 2 198 3 view .LVU139
 572 001e 2A46     		mov	r2, r5
 573 0020 4FF0FF33 		mov	r3, #-1
 574 0024 05A9     		add	r1, sp, #20
 575              	.LVL34:
 576              		.loc 2 198 3 is_stmt 0 view .LVU140
 577 0026 2046     		mov	r0, r4
 578 0028 FFF7FEFF 		bl	chEvtRegisterMaskWithFlags
 579              	.LVL35:
 580              		.loc 2 198 3 view .LVU141
 581              	.LBE235:
 582              	.LBE234:
 583              		.loc 1 117 5 is_stmt 1 view .LVU142
 584              	.LBB236:
 585              	.LBI236:
 586              		.file 5 "../ChibiOS/os/hal/osal/rt-nil/osal.h"
 587              		.loc 5 573 20 view .LVU143
 588              	.LBE236:
 589              		.loc 5 575 3 view .LVU144
 590              	.LBB244:
 591              	.LBB237:
 592              	.LBI237:
 593              		.file 6 "../ChibiOS/os/rt/include/chsys.h"
 594              		.loc 6 407 20 view .LVU145
 595              	.LBE237:
 596              	.LBE244:
 597              		.loc 6 409 3 view .LVU146
 598              	.LBB245:
 599              	.LBB242:
 600              	.LBB238:
 601              	.LBI238:
 602              		.file 7 "../ChibiOS/os/common/ports/ARMv7-M/chcore.h"
 603              		.loc 7 806 27 view .LVU147
 604              	.LBE238:
 605              	.LBE242:
 606              	.LBE245:
 607              		.loc 7 814 3 view .LVU148
 608              	.LBB246:
 609              	.LBB243:
 610              	.LBB241:
 611              	.LBB239:
 612              	.LBI239:
 613              		.file 8 "../ChibiOS/os/common/ext/ARM/CMSIS/Core/Include/cmsis_gcc.h"
 614              		.loc 8 491 27 view .LVU149
 615              	.LBB240:
 616              		.loc 8 493 3 view .LVU150
ARM GAS  /tmp/ccTPRGr7.s 			page 12


 617 002c 3026     		movs	r6, #48
 618              		.syntax unified
 619              	@ 493 "../ChibiOS/os/common/ext/ARM/CMSIS/Core/Include/cmsis_gcc.h" 1
 620 002e 86F31188 		MSR basepri, r6
 621              	@ 0 "" 2
 622              	.LVL36:
 623              		.loc 8 493 3 is_stmt 0 view .LVU151
 624              		.thumb
 625              		.syntax unified
 626              	.LBE240:
 627              	.LBE239:
 628              	.LBE241:
 629              	.LBE243:
 630              	.LBE246:
 631              		.loc 6 410 35 is_stmt 1 view .LVU152
 632              		.loc 6 411 21 view .LVU153
 633              		.loc 1 117 5 view .LVU154
 634              	.LBB247:
 635              	.LBI247:
 636              		.loc 2 229 20 view .LVU155
 637              	.LBB248:
 638              		.loc 2 231 3 view .LVU156
 639              		.loc 2 231 10 is_stmt 0 view .LVU157
 640 0032 2068     		ldr	r0, [r4]
 641              	.LBE248:
 642              	.LBE247:
 643              		.loc 1 117 5 view .LVU158
 644 0034 2249     		ldr	r1, .L27+8
 645 0036 001B     		subs	r0, r0, r4
 646 0038 18BF     		it	ne
 647 003a 0120     		movne	r0, #1
 648 003c FFF7FEFF 		bl	__test_assert
 649              	.LVL37:
 650 0040 28B1     		cbz	r0, .L20
 651              		.loc 1 117 5 is_stmt 1 view .LVU159
 652              	.LBB249:
 653              	.LBI249:
 654              		.loc 5 584 20 view .LVU160
 655              	.LBE249:
 656              		.loc 5 586 3 view .LVU161
 657              	.LBB258:
 658              	.LBB250:
 659              	.LBI250:
 660              		.loc 6 421 20 view .LVU162
 661              	.LBB251:
 662              		.loc 6 423 23 view .LVU163
 663              		.loc 6 424 34 view .LVU164
 664              		.loc 6 430 3 view .LVU165
 665              		.loc 6 430 3 view .LVU166
 666              		.loc 6 430 3 view .LVU167
 667              		.loc 6 434 3 view .LVU168
 668              	.LBB252:
 669              	.LBI252:
 670              		.loc 7 830 27 view .LVU169
 671              	.LBE252:
 672              	.LBE251:
 673              	.LBE250:
ARM GAS  /tmp/ccTPRGr7.s 			page 13


 674              	.LBE258:
 675              		.loc 7 833 3 view .LVU170
 676              	.LVL38:
 677              	.LBB259:
 678              	.LBB257:
 679              	.LBB256:
 680              	.LBB255:
 681              	.LBB253:
 682              	.LBI253:
 683              		.loc 8 491 27 view .LVU171
 684              	.LBB254:
 685              		.loc 8 493 3 view .LVU172
 686 0042 0023     		movs	r3, #0
 687              		.syntax unified
 688              	@ 493 "../ChibiOS/os/common/ext/ARM/CMSIS/Core/Include/cmsis_gcc.h" 1
 689 0044 83F31188 		MSR basepri, r3
 690              	@ 0 "" 2
 691              	.LVL39:
 692              		.loc 8 493 3 is_stmt 0 view .LVU173
 693              		.thumb
 694              		.syntax unified
 695              	.LBE254:
 696              	.LBE253:
 697              	.LBE255:
 698              	.LBE256:
 699              	.LBE257:
 700              	.LBE259:
 701              		.loc 1 117 5 is_stmt 1 view .LVU174
 702              	.L19:
 703              		.loc 1 138 1 is_stmt 0 view .LVU175
 704 0048 0AB0     		add	sp, sp, #40
 705              		.cfi_remember_state
 706              		.cfi_def_cfa_offset 24
 707              		@ sp needed
 708 004a BDE8F081 		pop	{r4, r5, r6, r7, r8, pc}
 709              	.L20:
 710              		.cfi_restore_state
 711              		.loc 1 117 5 is_stmt 1 view .LVU176
 712              	.LBB260:
 713              	.LBI260:
 714              		.loc 5 584 20 view .LVU177
 715              	.LBE260:
 716              		.loc 5 586 3 view .LVU178
 717              	.LBB269:
 718              	.LBB261:
 719              	.LBI261:
 720              		.loc 6 421 20 view .LVU179
 721              	.LBB262:
 722              		.loc 6 423 23 view .LVU180
 723              		.loc 6 424 34 view .LVU181
 724              		.loc 6 430 3 view .LVU182
 725              		.loc 6 430 3 view .LVU183
 726              		.loc 6 430 3 view .LVU184
 727              		.loc 6 434 3 view .LVU185
 728              	.LBB263:
 729              	.LBI263:
 730              		.loc 7 830 27 view .LVU186
ARM GAS  /tmp/ccTPRGr7.s 			page 14


 731              	.LBE263:
 732              	.LBE262:
 733              	.LBE261:
 734              	.LBE269:
 735              		.loc 7 833 3 view .LVU187
 736              	.LVL40:
 737              	.LBB270:
 738              	.LBB268:
 739              	.LBB267:
 740              	.LBB266:
 741              	.LBB264:
 742              	.LBI264:
 743              		.loc 8 491 27 view .LVU188
 744              	.LBB265:
 745              		.loc 8 493 3 view .LVU189
 746 004e 0546     		mov	r5, r0
 747              		.syntax unified
 748              	@ 493 "../ChibiOS/os/common/ext/ARM/CMSIS/Core/Include/cmsis_gcc.h" 1
 749 0050 80F31188 		MSR basepri, r0
 750              	@ 0 "" 2
 751              	.LVL41:
 752              		.loc 8 493 3 is_stmt 0 view .LVU190
 753              		.thumb
 754              		.syntax unified
 755              	.LBE265:
 756              	.LBE264:
 757              	.LBE266:
 758              	.LBE267:
 759              	.LBE268:
 760              	.LBE270:
 761              		.loc 1 117 61 is_stmt 1 view .LVU191
 762              		.loc 1 119 3 view .LVU192
 763              		.loc 1 119 19 view .LVU193
 764              		.loc 1 123 3 view .LVU194
 765 0054 0323     		movs	r3, #3
 766              		.loc 1 125 5 is_stmt 0 view .LVU195
 767 0056 6946     		mov	r1, sp
 768 0058 2046     		mov	r0, r4
 769              		.loc 1 123 3 view .LVU196
 770 005a 3B60     		str	r3, [r7]
 771              		.loc 1 125 5 is_stmt 1 view .LVU197
 772 005c FFF7FEFF 		bl	chEvtUnregister
 773              	.LVL42:
 774              		.loc 1 126 5 view .LVU198
 775              	.LBB271:
 776              	.LBI271:
 777              		.loc 5 573 20 view .LVU199
 778              	.LBE271:
 779              		.loc 5 575 3 view .LVU200
 780              	.LBB279:
 781              	.LBB272:
 782              	.LBI272:
 783              		.loc 6 407 20 view .LVU201
 784              	.LBE272:
 785              	.LBE279:
 786              		.loc 6 409 3 view .LVU202
 787              	.LBB280:
ARM GAS  /tmp/ccTPRGr7.s 			page 15


 788              	.LBB277:
 789              	.LBB273:
 790              	.LBI273:
 791              		.loc 7 806 27 view .LVU203
 792              	.LBE273:
 793              	.LBE277:
 794              	.LBE280:
 795              		.loc 7 814 3 view .LVU204
 796              	.LBB281:
 797              	.LBB278:
 798              	.LBB276:
 799              	.LBB274:
 800              	.LBI274:
 801              		.loc 8 491 27 view .LVU205
 802              	.LBB275:
 803              		.loc 8 493 3 view .LVU206
 804              		.syntax unified
 805              	@ 493 "../ChibiOS/os/common/ext/ARM/CMSIS/Core/Include/cmsis_gcc.h" 1
 806 0060 86F31188 		MSR basepri, r6
 807              	@ 0 "" 2
 808              	.LVL43:
 809              		.loc 8 493 3 is_stmt 0 view .LVU207
 810              		.thumb
 811              		.syntax unified
 812              	.LBE275:
 813              	.LBE274:
 814              	.LBE276:
 815              	.LBE278:
 816              	.LBE281:
 817              		.loc 6 410 35 is_stmt 1 view .LVU208
 818              		.loc 6 411 21 view .LVU209
 819              		.loc 1 126 5 view .LVU210
 820              	.LBB282:
 821              	.LBI282:
 822              		.loc 2 229 20 view .LVU211
 823              	.LBB283:
 824              		.loc 2 231 3 view .LVU212
 825              		.loc 2 231 10 is_stmt 0 view .LVU213
 826 0064 2068     		ldr	r0, [r4]
 827              	.LBE283:
 828              	.LBE282:
 829              		.loc 1 126 5 view .LVU214
 830 0066 1649     		ldr	r1, .L27+8
 831 0068 001B     		subs	r0, r0, r4
 832 006a 18BF     		it	ne
 833 006c 0120     		movne	r0, #1
 834 006e FFF7FEFF 		bl	__test_assert
 835              	.LVL44:
 836 0072 8046     		mov	r8, r0
 837 0074 20B1     		cbz	r0, .L22
 838              		.loc 1 126 5 is_stmt 1 view .LVU215
 839              	.LBB284:
 840              	.LBI284:
 841              		.loc 5 584 20 view .LVU216
 842              	.LBE284:
 843              		.loc 5 586 3 view .LVU217
 844              	.LBB293:
ARM GAS  /tmp/ccTPRGr7.s 			page 16


 845              	.LBB285:
 846              	.LBI285:
 847              		.loc 6 421 20 view .LVU218
 848              	.LBB286:
 849              		.loc 6 423 23 view .LVU219
 850              		.loc 6 424 34 view .LVU220
 851              		.loc 6 430 3 view .LVU221
 852              		.loc 6 430 3 view .LVU222
 853              		.loc 6 430 3 view .LVU223
 854              		.loc 6 434 3 view .LVU224
 855              	.LBB287:
 856              	.LBI287:
 857              		.loc 7 830 27 view .LVU225
 858              	.LBE287:
 859              	.LBE286:
 860              	.LBE285:
 861              	.LBE293:
 862              		.loc 7 833 3 view .LVU226
 863              	.LVL45:
 864              	.LBB294:
 865              	.LBB292:
 866              	.LBB291:
 867              	.LBB290:
 868              	.LBB288:
 869              	.LBI288:
 870              		.loc 8 491 27 view .LVU227
 871              	.LBB289:
 872              		.loc 8 493 3 view .LVU228
 873              		.syntax unified
 874              	@ 493 "../ChibiOS/os/common/ext/ARM/CMSIS/Core/Include/cmsis_gcc.h" 1
 875 0076 85F31188 		MSR basepri, r5
 876              	@ 0 "" 2
 877              	.LVL46:
 878              		.loc 8 493 3 is_stmt 0 view .LVU229
 879              		.thumb
 880              		.syntax unified
 881              	.LBE289:
 882              	.LBE288:
 883              	.LBE290:
 884              	.LBE291:
 885              	.LBE292:
 886              	.LBE294:
 887              		.loc 1 126 5 is_stmt 1 view .LVU230
 888              		.loc 1 138 1 is_stmt 0 view .LVU231
 889 007a 0AB0     		add	sp, sp, #40
 890              		.cfi_remember_state
 891              		.cfi_def_cfa_offset 24
 892              		@ sp needed
 893 007c BDE8F081 		pop	{r4, r5, r6, r7, r8, pc}
 894              	.L22:
 895              		.cfi_restore_state
 896              		.loc 1 126 5 is_stmt 1 view .LVU232
 897              	.LBB295:
 898              	.LBI295:
 899              		.loc 5 584 20 view .LVU233
 900              	.LBE295:
 901              		.loc 5 586 3 view .LVU234
ARM GAS  /tmp/ccTPRGr7.s 			page 17


 902              	.LBB304:
 903              	.LBB296:
 904              	.LBI296:
 905              		.loc 6 421 20 view .LVU235
 906              	.LBB297:
 907              		.loc 6 423 23 view .LVU236
 908              		.loc 6 424 34 view .LVU237
 909              		.loc 6 430 3 view .LVU238
 910              		.loc 6 430 3 view .LVU239
 911              		.loc 6 430 3 view .LVU240
 912              		.loc 6 434 3 view .LVU241
 913              	.LBB298:
 914              	.LBI298:
 915              		.loc 7 830 27 view .LVU242
 916              	.LBE298:
 917              	.LBE297:
 918              	.LBE296:
 919              	.LBE304:
 920              		.loc 7 833 3 view .LVU243
 921              	.LVL47:
 922              	.LBB305:
 923              	.LBB303:
 924              	.LBB302:
 925              	.LBB301:
 926              	.LBB299:
 927              	.LBI299:
 928              		.loc 8 491 27 view .LVU244
 929              	.LBB300:
 930              		.loc 8 493 3 view .LVU245
 931              		.syntax unified
 932              	@ 493 "../ChibiOS/os/common/ext/ARM/CMSIS/Core/Include/cmsis_gcc.h" 1
 933 0080 80F31188 		MSR basepri, r0
 934              	@ 0 "" 2
 935              	.LVL48:
 936              		.loc 8 493 3 is_stmt 0 view .LVU246
 937              		.thumb
 938              		.syntax unified
 939              	.LBE300:
 940              	.LBE299:
 941              	.LBE301:
 942              	.LBE302:
 943              	.LBE303:
 944              	.LBE305:
 945              		.loc 1 126 61 is_stmt 1 view .LVU247
 946              		.loc 1 128 3 view .LVU248
 947              		.loc 1 128 19 view .LVU249
 948              		.loc 1 132 3 view .LVU250
 949 0084 0423     		movs	r3, #4
 950              		.loc 1 134 5 is_stmt 0 view .LVU251
 951 0086 05A9     		add	r1, sp, #20
 952 0088 2046     		mov	r0, r4
 953              		.loc 1 132 3 view .LVU252
 954 008a 3B60     		str	r3, [r7]
 955              		.loc 1 134 5 is_stmt 1 view .LVU253
 956 008c FFF7FEFF 		bl	chEvtUnregister
 957              	.LVL49:
 958              		.loc 1 135 5 view .LVU254
ARM GAS  /tmp/ccTPRGr7.s 			page 18


 959              	.LBB306:
 960              	.LBI306:
 961              		.loc 5 573 20 view .LVU255
 962              	.LBE306:
 963              		.loc 5 575 3 view .LVU256
 964              	.LBB314:
 965              	.LBB307:
 966              	.LBI307:
 967              		.loc 6 407 20 view .LVU257
 968              	.LBE307:
 969              	.LBE314:
 970              		.loc 6 409 3 view .LVU258
 971              	.LBB315:
 972              	.LBB312:
 973              	.LBB308:
 974              	.LBI308:
 975              		.loc 7 806 27 view .LVU259
 976              	.LBE308:
 977              	.LBE312:
 978              	.LBE315:
 979              		.loc 7 814 3 view .LVU260
 980              	.LBB316:
 981              	.LBB313:
 982              	.LBB311:
 983              	.LBB309:
 984              	.LBI309:
 985              		.loc 8 491 27 view .LVU261
 986              	.LBB310:
 987              		.loc 8 493 3 view .LVU262
 988              		.syntax unified
 989              	@ 493 "../ChibiOS/os/common/ext/ARM/CMSIS/Core/Include/cmsis_gcc.h" 1
 990 0090 86F31188 		MSR basepri, r6
 991              	@ 0 "" 2
 992              	.LVL50:
 993              		.loc 8 493 3 is_stmt 0 view .LVU263
 994              		.thumb
 995              		.syntax unified
 996              	.LBE310:
 997              	.LBE309:
 998              	.LBE311:
 999              	.LBE313:
 1000              	.LBE316:
 1001              		.loc 6 410 35 is_stmt 1 view .LVU264
 1002              		.loc 6 411 21 view .LVU265
 1003              		.loc 1 135 5 view .LVU266
 1004              	.LBB317:
 1005              	.LBI317:
 1006              		.loc 2 229 20 view .LVU267
 1007              	.LBB318:
 1008              		.loc 2 231 3 view .LVU268
 1009              		.loc 2 231 3 is_stmt 0 view .LVU269
 1010              	.LBE318:
 1011              	.LBE317:
 1012              		.loc 1 135 5 view .LVU270
 1013 0094 2068     		ldr	r0, [r4]
 1014 0096 0B49     		ldr	r1, .L27+12
 1015 0098 001B     		subs	r0, r0, r4
ARM GAS  /tmp/ccTPRGr7.s 			page 19


 1016 009a B0FA80F0 		clz	r0, r0
 1017 009e 4009     		lsrs	r0, r0, #5
 1018 00a0 FFF7FEFF 		bl	__test_assert
 1019              	.LVL51:
 1020 00a4 20B9     		cbnz	r0, .L26
 1021              		.loc 1 135 5 is_stmt 1 view .LVU271
 1022              	.LBB319:
 1023              	.LBI319:
 1024              		.loc 5 584 20 view .LVU272
 1025              	.LBE319:
 1026              		.loc 5 586 3 view .LVU273
 1027              	.LBB328:
 1028              	.LBB320:
 1029              	.LBI320:
 1030              		.loc 6 421 20 view .LVU274
 1031              	.LBB321:
 1032              		.loc 6 423 23 view .LVU275
 1033              		.loc 6 424 34 view .LVU276
 1034              		.loc 6 430 3 view .LVU277
 1035              		.loc 6 430 3 view .LVU278
 1036              		.loc 6 430 3 view .LVU279
 1037              		.loc 6 434 3 view .LVU280
 1038              	.LBB322:
 1039              	.LBI322:
 1040              		.loc 7 830 27 view .LVU281
 1041              	.LBE322:
 1042              	.LBE321:
 1043              	.LBE320:
 1044              	.LBE328:
 1045              		.loc 7 833 3 view .LVU282
 1046              	.LVL52:
 1047              	.LBB329:
 1048              	.LBB327:
 1049              	.LBB326:
 1050              	.LBB325:
 1051              	.LBB323:
 1052              	.LBI323:
 1053              		.loc 8 491 27 view .LVU283
 1054              	.LBB324:
 1055              		.loc 8 493 3 view .LVU284
 1056              		.syntax unified
 1057              	@ 493 "../ChibiOS/os/common/ext/ARM/CMSIS/Core/Include/cmsis_gcc.h" 1
 1058 00a6 80F31188 		MSR basepri, r0
 1059              	@ 0 "" 2
 1060              	.LVL53:
 1061              		.loc 8 493 3 is_stmt 0 view .LVU285
 1062              		.thumb
 1063              		.syntax unified
 1064              	.LBE324:
 1065              	.LBE323:
 1066              	.LBE325:
 1067              	.LBE326:
 1068              	.LBE327:
 1069              	.LBE329:
 1070              		.loc 1 135 65 is_stmt 1 view .LVU286
 1071              		.loc 1 137 3 view .LVU287
 1072              		.loc 1 137 19 view .LVU288
ARM GAS  /tmp/ccTPRGr7.s 			page 20


 1073              		.loc 1 138 1 is_stmt 0 view .LVU289
 1074 00aa 0AB0     		add	sp, sp, #40
 1075              		.cfi_remember_state
 1076              		.cfi_def_cfa_offset 24
 1077              		@ sp needed
 1078 00ac BDE8F081 		pop	{r4, r5, r6, r7, r8, pc}
 1079              	.L26:
 1080              		.cfi_restore_state
 1081              		.loc 1 135 5 is_stmt 1 view .LVU290
 1082              	.LBB330:
 1083              	.LBI330:
 1084              		.loc 5 584 20 view .LVU291
 1085              	.LBE330:
 1086              		.loc 5 586 3 view .LVU292
 1087              	.LBB339:
 1088              	.LBB331:
 1089              	.LBI331:
 1090              		.loc 6 421 20 view .LVU293
 1091              	.LBB332:
 1092              		.loc 6 423 23 view .LVU294
 1093              		.loc 6 424 34 view .LVU295
 1094              		.loc 6 430 3 view .LVU296
 1095              		.loc 6 430 3 view .LVU297
 1096              		.loc 6 430 3 view .LVU298
 1097              		.loc 6 434 3 view .LVU299
 1098              	.LBB333:
 1099              	.LBI333:
 1100              		.loc 7 830 27 view .LVU300
 1101              	.LBE333:
 1102              	.LBE332:
 1103              	.LBE331:
 1104              	.LBE339:
 1105              		.loc 7 833 3 view .LVU301
 1106              	.LVL54:
 1107              	.LBB340:
 1108              	.LBB338:
 1109              	.LBB337:
 1110              	.LBB336:
 1111              	.LBB334:
 1112              	.LBI334:
 1113              		.loc 8 491 27 view .LVU302
 1114              	.LBB335:
 1115              		.loc 8 493 3 view .LVU303
 1116              		.syntax unified
 1117              	@ 493 "../ChibiOS/os/common/ext/ARM/CMSIS/Core/Include/cmsis_gcc.h" 1
 1118 00b0 88F31188 		MSR basepri, r8
 1119              	@ 0 "" 2
 1120              	.LVL55:
 1121              		.loc 8 493 3 is_stmt 0 view .LVU304
 1122              		.thumb
 1123              		.syntax unified
 1124              	.LBE335:
 1125              	.LBE334:
 1126              	.LBE336:
 1127              	.LBE337:
 1128              	.LBE338:
 1129              	.LBE340:
ARM GAS  /tmp/ccTPRGr7.s 			page 21


 1130              		.loc 1 135 5 is_stmt 1 view .LVU305
 1131 00b4 C8E7     		b	.L19
 1132              	.L28:
 1133 00b6 00BF     		.align	2
 1134              	.L27:
 1135 00b8 00000000 		.word	.LANCHOR0
 1136 00bc 00000000 		.word	chtest
 1137 00c0 00000000 		.word	.LC4
 1138 00c4 24000000 		.word	.LC3
 1139              		.cfi_endproc
 1140              	.LFE409:
 1141              		.size	rt_test_010_001_execute, .-rt_test_010_001_execute
 1142              		.section	.text.evt_thread3,"ax",%progbits
 1143              		.align	1
 1144              		.p2align 4,,15
 1145              		.syntax unified
 1146              		.thumb
 1147              		.thumb_func
 1148              		.fpu softvfp
 1149              		.type	evt_thread3, %function
 1150              	evt_thread3:
 1151              	.LVL56:
 1152              	.LFB407:
 1153              		.loc 1 62 37 view -0
 1154              		.cfi_startproc
 1155              		@ args = 0, pretend = 0, frame = 0
 1156              		@ frame_needed = 0, uses_anonymous_args = 0
 1157              		.loc 1 64 3 view .LVU307
 1158              		.loc 1 62 37 is_stmt 0 view .LVU308
 1159 0000 10B5     		push	{r4, lr}
 1160              		.cfi_def_cfa_offset 8
 1161              		.cfi_offset 4, -8
 1162              		.cfi_offset 14, -4
 1163              		.loc 1 62 37 view .LVU309
 1164 0002 0446     		mov	r4, r0
 1165              		.loc 1 64 3 view .LVU310
 1166 0004 4FF4FA70 		mov	r0, #500
 1167              	.LVL57:
 1168              		.loc 1 64 3 view .LVU311
 1169 0008 FFF7FEFF 		bl	chThdSleep
 1170              	.LVL58:
 1171              		.loc 1 65 3 is_stmt 1 view .LVU312
 1172 000c 2046     		mov	r0, r4
 1173 000e 0121     		movs	r1, #1
 1174              		.loc 1 66 1 is_stmt 0 view .LVU313
 1175 0010 BDE81040 		pop	{r4, lr}
 1176              		.cfi_restore 14
 1177              		.cfi_restore 4
 1178              		.cfi_def_cfa_offset 0
 1179              	.LVL59:
 1180              		.loc 1 65 3 view .LVU314
 1181 0014 FFF7FEBF 		b	chEvtSignal
 1182              	.LVL60:
 1183              		.loc 1 65 3 view .LVU315
 1184              		.cfi_endproc
 1185              	.LFE407:
 1186              		.size	evt_thread3, .-evt_thread3
ARM GAS  /tmp/ccTPRGr7.s 			page 22


 1187              		.section	.rodata.rt_test_010_002_execute.str1.4,"aMS",%progbits,1
 1188              		.align	2
 1189              	.LC5:
 1190 0000 696E7661 		.ascii	"invalid sequence\000"
 1190      6C696420 
 1190      73657175 
 1190      656E6365 
 1190      00
 1191 0011 000000   		.align	2
 1192              	.LC6:
 1193 0014 41424300 		.ascii	"ABC\000"
 1194              		.section	.text.rt_test_010_002_execute,"ax",%progbits
 1195              		.align	1
 1196              		.p2align 4,,15
 1197              		.syntax unified
 1198              		.thumb
 1199              		.thumb_func
 1200              		.fpu softvfp
 1201              		.type	rt_test_010_002_execute, %function
 1202              	rt_test_010_002_execute:
 1203              	.LFB411:
 1204              		.loc 1 164 43 is_stmt 1 view -0
 1205              		.cfi_startproc
 1206              		@ args = 0, pretend = 0, frame = 0
 1207              		@ frame_needed = 0, uses_anonymous_args = 0
 1208              		.loc 1 168 3 view .LVU317
 1209              		.loc 1 164 43 is_stmt 0 view .LVU318
 1210 0000 08B5     		push	{r3, lr}
 1211              		.cfi_def_cfa_offset 8
 1212              		.cfi_offset 3, -8
 1213              		.cfi_offset 14, -4
 1214              		.loc 1 168 3 view .LVU319
 1215 0002 064B     		ldr	r3, .L33
 1216              		.loc 1 170 5 view .LVU320
 1217 0004 0648     		ldr	r0, .L33+4
 1218 0006 0721     		movs	r1, #7
 1219              		.loc 1 168 3 view .LVU321
 1220 0008 0122     		movs	r2, #1
 1221 000a 1A60     		str	r2, [r3]
 1222              		.loc 1 170 5 is_stmt 1 view .LVU322
 1223 000c FFF7FEFF 		bl	chEvtDispatch
 1224              	.LVL61:
 1225              		.loc 1 171 5 view .LVU323
 1226              		.loc 1 174 1 is_stmt 0 view .LVU324
 1227 0010 BDE80840 		pop	{r3, lr}
 1228              		.cfi_restore 14
 1229              		.cfi_restore 3
 1230              		.cfi_def_cfa_offset 0
 1231              		.loc 1 171 5 view .LVU325
 1232 0014 0349     		ldr	r1, .L33+8
 1233 0016 0448     		ldr	r0, .L33+12
 1234 0018 FFF7FEBF 		b	__test_assert_sequence
 1235              	.LVL62:
 1236              	.L34:
 1237              		.align	2
 1238              	.L33:
 1239 001c 00000000 		.word	chtest
ARM GAS  /tmp/ccTPRGr7.s 			page 23


 1240 0020 00000000 		.word	.LANCHOR2
 1241 0024 00000000 		.word	.LC5
 1242 0028 14000000 		.word	.LC6
 1243              		.cfi_endproc
 1244              	.LFE411:
 1245              		.size	rt_test_010_002_execute, .-rt_test_010_002_execute
 1246              		.section	.text.h3,"ax",%progbits
 1247              		.align	1
 1248              		.p2align 4,,15
 1249              		.syntax unified
 1250              		.thumb
 1251              		.thumb_func
 1252              		.fpu softvfp
 1253              		.type	h3, %function
 1254              	h3:
 1255              	.LVL63:
 1256              	.LFB406:
 1257              		.loc 1 59 30 is_stmt 1 view -0
 1258              		.cfi_startproc
 1259              		@ args = 0, pretend = 0, frame = 0
 1260              		@ frame_needed = 0, uses_anonymous_args = 0
 1261              		@ link register save eliminated.
 1262              		.loc 1 59 31 view .LVU327
 1263              		.loc 1 59 40 view .LVU328
 1264 0000 4320     		movs	r0, #67
 1265              	.LVL64:
 1266              		.loc 1 59 40 is_stmt 0 view .LVU329
 1267 0002 FFF7FEBF 		b	test_emit_token
 1268              	.LVL65:
 1269              		.cfi_endproc
 1270              	.LFE406:
 1271              		.size	h3, .-h3
 1272 0006 00BF     		.section	.text.h2,"ax",%progbits
 1273              		.align	1
 1274              		.p2align 4,,15
 1275              		.syntax unified
 1276              		.thumb
 1277              		.thumb_func
 1278              		.fpu softvfp
 1279              		.type	h2, %function
 1280              	h2:
 1281              	.LVL66:
 1282              	.LFB405:
 1283              		.loc 1 58 30 is_stmt 1 view -0
 1284              		.cfi_startproc
 1285              		@ args = 0, pretend = 0, frame = 0
 1286              		@ frame_needed = 0, uses_anonymous_args = 0
 1287              		@ link register save eliminated.
 1288              		.loc 1 58 31 view .LVU331
 1289              		.loc 1 58 40 view .LVU332
 1290 0000 4220     		movs	r0, #66
 1291              	.LVL67:
 1292              		.loc 1 58 40 is_stmt 0 view .LVU333
 1293 0002 FFF7FEBF 		b	test_emit_token
 1294              	.LVL68:
 1295              		.cfi_endproc
 1296              	.LFE405:
ARM GAS  /tmp/ccTPRGr7.s 			page 24


 1297              		.size	h2, .-h2
 1298 0006 00BF     		.section	.text.h1,"ax",%progbits
 1299              		.align	1
 1300              		.p2align 4,,15
 1301              		.syntax unified
 1302              		.thumb
 1303              		.thumb_func
 1304              		.fpu softvfp
 1305              		.type	h1, %function
 1306              	h1:
 1307              	.LVL69:
 1308              	.LFB404:
 1309              		.loc 1 57 30 is_stmt 1 view -0
 1310              		.cfi_startproc
 1311              		@ args = 0, pretend = 0, frame = 0
 1312              		@ frame_needed = 0, uses_anonymous_args = 0
 1313              		@ link register save eliminated.
 1314              		.loc 1 57 31 view .LVU335
 1315              		.loc 1 57 40 view .LVU336
 1316 0000 4120     		movs	r0, #65
 1317              	.LVL70:
 1318              		.loc 1 57 40 is_stmt 0 view .LVU337
 1319 0002 FFF7FEBF 		b	test_emit_token
 1320              	.LVL71:
 1321              		.cfi_endproc
 1322              	.LFE404:
 1323              		.size	h1, .-h1
 1324 0006 00BF     		.section	.rodata.rt_test_010_006_execute.str1.4,"aMS",%progbits,1
 1325              		.align	2
 1326              	.LC7:
 1327 0000 73707572 		.ascii	"spurious event\000"
 1327      696F7573 
 1327      20657665 
 1327      6E7400
 1328              		.section	.text.rt_test_010_006_execute,"ax",%progbits
 1329              		.align	1
 1330              		.p2align 4,,15
 1331              		.syntax unified
 1332              		.thumb
 1333              		.thumb_func
 1334              		.fpu softvfp
 1335              		.type	rt_test_010_006_execute, %function
 1336              	rt_test_010_006_execute:
 1337              	.LFB419:
 1338              		.loc 1 455 43 is_stmt 1 view -0
 1339              		.cfi_startproc
 1340              		@ args = 0, pretend = 0, frame = 0
 1341              		@ frame_needed = 0, uses_anonymous_args = 0
 1342              		.loc 1 456 3 view .LVU339
 1343              		.loc 1 460 3 view .LVU340
 1344              		.loc 1 455 43 is_stmt 0 view .LVU341
 1345 0000 10B5     		push	{r4, lr}
 1346              		.cfi_def_cfa_offset 8
 1347              		.cfi_offset 4, -8
 1348              		.cfi_offset 14, -4
 1349              		.loc 1 460 3 view .LVU342
 1350 0002 2B4C     		ldr	r4, .L44
ARM GAS  /tmp/ccTPRGr7.s 			page 25


 1351              		.loc 1 462 9 view .LVU343
 1352 0004 0021     		movs	r1, #0
 1353              		.loc 1 460 3 view .LVU344
 1354 0006 0123     		movs	r3, #1
 1355              		.loc 1 462 9 view .LVU345
 1356 0008 4FF0FF30 		mov	r0, #-1
 1357              		.loc 1 460 3 view .LVU346
 1358 000c 2360     		str	r3, [r4]
 1359              		.loc 1 462 5 is_stmt 1 view .LVU347
 1360              		.loc 1 462 9 is_stmt 0 view .LVU348
 1361 000e FFF7FEFF 		bl	chEvtWaitOneTimeout
 1362              	.LVL72:
 1363              		.loc 1 463 5 is_stmt 1 view .LVU349
 1364 0012 B0FA80F0 		clz	r0, r0
 1365              	.LVL73:
 1366              		.loc 1 463 5 is_stmt 0 view .LVU350
 1367 0016 2749     		ldr	r1, .L44+4
 1368 0018 4009     		lsrs	r0, r0, #5
 1369 001a FFF7FEFF 		bl	__test_assert
 1370              	.LVL74:
 1371 001e 00B1     		cbz	r0, .L43
 1372              	.L38:
 1373              		.loc 1 483 1 view .LVU351
 1374 0020 10BD     		pop	{r4, pc}
 1375              	.L43:
 1376              	.LBB343:
 1377              	.LBI343:
 1378              		.loc 1 455 13 is_stmt 1 view .LVU352
 1379              	.LBB344:
 1380              		.loc 1 463 42 view .LVU353
 1381              		.loc 1 464 5 view .LVU354
 1382              		.loc 1 464 9 is_stmt 0 view .LVU355
 1383 0022 0146     		mov	r1, r0
 1384 0024 4FF0FF30 		mov	r0, #-1
 1385 0028 FFF7FEFF 		bl	chEvtWaitAnyTimeout
 1386              	.LVL75:
 1387              		.loc 1 465 5 is_stmt 1 view .LVU356
 1388 002c B0FA80F0 		clz	r0, r0
 1389              	.LVL76:
 1390              		.loc 1 465 5 is_stmt 0 view .LVU357
 1391 0030 2049     		ldr	r1, .L44+4
 1392 0032 4009     		lsrs	r0, r0, #5
 1393 0034 FFF7FEFF 		bl	__test_assert
 1394              	.LVL77:
 1395 0038 0028     		cmp	r0, #0
 1396 003a F1D1     		bne	.L38
 1397              		.loc 1 465 42 is_stmt 1 view .LVU358
 1398              		.loc 1 466 5 view .LVU359
 1399              		.loc 1 466 9 is_stmt 0 view .LVU360
 1400 003c 0146     		mov	r1, r0
 1401 003e 4FF0FF30 		mov	r0, #-1
 1402 0042 FFF7FEFF 		bl	chEvtWaitAllTimeout
 1403              	.LVL78:
 1404              		.loc 1 467 5 is_stmt 1 view .LVU361
 1405 0046 B0FA80F0 		clz	r0, r0
 1406              	.LVL79:
 1407              		.loc 1 467 5 is_stmt 0 view .LVU362
ARM GAS  /tmp/ccTPRGr7.s 			page 26


 1408 004a 1A49     		ldr	r1, .L44+4
 1409 004c 4009     		lsrs	r0, r0, #5
 1410 004e FFF7FEFF 		bl	__test_assert
 1411              	.LVL80:
 1412 0052 0028     		cmp	r0, #0
 1413 0054 E4D1     		bne	.L38
 1414              		.loc 1 467 42 is_stmt 1 view .LVU363
 1415              		.loc 1 469 3 view .LVU364
 1416              		.loc 1 469 19 view .LVU365
 1417              		.loc 1 473 3 view .LVU366
 1418              		.loc 1 475 9 is_stmt 0 view .LVU367
 1419 0056 4FF4FA71 		mov	r1, #500
 1420              		.loc 1 473 3 view .LVU368
 1421 005a 0223     		movs	r3, #2
 1422              		.loc 1 475 9 view .LVU369
 1423 005c 4FF0FF30 		mov	r0, #-1
 1424              		.loc 1 473 3 view .LVU370
 1425 0060 2360     		str	r3, [r4]
 1426              		.loc 1 475 5 is_stmt 1 view .LVU371
 1427              		.loc 1 475 9 is_stmt 0 view .LVU372
 1428 0062 FFF7FEFF 		bl	chEvtWaitOneTimeout
 1429              	.LVL81:
 1430              		.loc 1 476 5 is_stmt 1 view .LVU373
 1431 0066 B0FA80F0 		clz	r0, r0
 1432              	.LVL82:
 1433              		.loc 1 476 5 is_stmt 0 view .LVU374
 1434 006a 1249     		ldr	r1, .L44+4
 1435 006c 4009     		lsrs	r0, r0, #5
 1436 006e FFF7FEFF 		bl	__test_assert
 1437              	.LVL83:
 1438 0072 0028     		cmp	r0, #0
 1439 0074 D4D1     		bne	.L38
 1440              		.loc 1 476 42 is_stmt 1 view .LVU375
 1441              		.loc 1 477 5 view .LVU376
 1442              		.loc 1 477 9 is_stmt 0 view .LVU377
 1443 0076 4FF4FA71 		mov	r1, #500
 1444 007a 4FF0FF30 		mov	r0, #-1
 1445 007e FFF7FEFF 		bl	chEvtWaitAnyTimeout
 1446              	.LVL84:
 1447              		.loc 1 478 5 is_stmt 1 view .LVU378
 1448 0082 B0FA80F0 		clz	r0, r0
 1449              	.LVL85:
 1450              		.loc 1 478 5 is_stmt 0 view .LVU379
 1451 0086 0B49     		ldr	r1, .L44+4
 1452 0088 4009     		lsrs	r0, r0, #5
 1453 008a FFF7FEFF 		bl	__test_assert
 1454              	.LVL86:
 1455 008e 0028     		cmp	r0, #0
 1456 0090 C6D1     		bne	.L38
 1457              		.loc 1 478 42 is_stmt 1 view .LVU380
 1458              		.loc 1 479 5 view .LVU381
 1459              		.loc 1 479 9 is_stmt 0 view .LVU382
 1460 0092 4FF4FA71 		mov	r1, #500
 1461 0096 4FF0FF30 		mov	r0, #-1
 1462 009a FFF7FEFF 		bl	chEvtWaitAllTimeout
 1463              	.LVL87:
 1464              		.loc 1 480 5 is_stmt 1 view .LVU383
ARM GAS  /tmp/ccTPRGr7.s 			page 27


 1465 009e B0FA80F0 		clz	r0, r0
 1466              	.LVL88:
 1467              		.loc 1 480 5 is_stmt 0 view .LVU384
 1468              	.LBE344:
 1469              	.LBE343:
 1470              		.loc 1 483 1 view .LVU385
 1471 00a2 BDE81040 		pop	{r4, lr}
 1472              		.cfi_restore 14
 1473              		.cfi_restore 4
 1474              		.cfi_def_cfa_offset 0
 1475              	.LBB346:
 1476              	.LBB345:
 1477              		.loc 1 480 5 view .LVU386
 1478 00a6 0349     		ldr	r1, .L44+4
 1479 00a8 4009     		lsrs	r0, r0, #5
 1480 00aa FFF7FEBF 		b	__test_assert
 1481              	.LVL89:
 1482              	.L45:
 1483 00ae 00BF     		.align	2
 1484              	.L44:
 1485 00b0 00000000 		.word	chtest
 1486 00b4 00000000 		.word	.LC7
 1487              	.LBE345:
 1488              	.LBE346:
 1489              		.cfi_endproc
 1490              	.LFE419:
 1491              		.size	rt_test_010_006_execute, .-rt_test_010_006_execute
 1492              		.section	.rodata.rt_test_010_005_execute.str1.4,"aMS",%progbits,1
 1493              		.align	2
 1494              	.LC8:
 1495 0000 756E6578 		.ascii	"unexpected pending bit\000"
 1495      70656374 
 1495      65642070 
 1495      656E6469 
 1495      6E672062 
 1496 0017 00       		.align	2
 1497              	.LC9:
 1498 0018 6576656E 		.ascii	"event flags error\000"
 1498      7420666C 
 1498      61677320 
 1498      6572726F 
 1498      7200
 1499              		.section	.text.rt_test_010_005_execute,"ax",%progbits
 1500              		.align	1
 1501              		.p2align 4,,15
 1502              		.syntax unified
 1503              		.thumb
 1504              		.thumb_func
 1505              		.fpu softvfp
 1506              		.type	rt_test_010_005_execute, %function
 1507              	rt_test_010_005_execute:
 1508              	.LFB417:
 1509              		.loc 1 366 43 is_stmt 1 view -0
 1510              		.cfi_startproc
 1511              		@ args = 0, pretend = 0, frame = 0
 1512              		@ frame_needed = 0, uses_anonymous_args = 0
 1513              		.loc 1 367 3 view .LVU388
ARM GAS  /tmp/ccTPRGr7.s 			page 28


 1514              		.loc 1 368 3 view .LVU389
 1515              		.loc 1 371 3 view .LVU390
 1516              		.loc 1 366 43 is_stmt 0 view .LVU391
 1517 0000 30B5     		push	{r4, r5, lr}
 1518              		.cfi_def_cfa_offset 12
 1519              		.cfi_offset 4, -12
 1520              		.cfi_offset 5, -8
 1521              		.cfi_offset 14, -4
 1522              		.loc 1 371 3 view .LVU392
 1523 0002 324C     		ldr	r4, .L52
 1524              		.loc 1 366 43 view .LVU393
 1525 0004 83B0     		sub	sp, sp, #12
 1526              		.cfi_def_cfa_offset 24
 1527              		.loc 1 371 3 view .LVU394
 1528 0006 0123     		movs	r3, #1
 1529              		.loc 1 373 5 view .LVU395
 1530 0008 0520     		movs	r0, #5
 1531              		.loc 1 371 3 view .LVU396
 1532 000a 2360     		str	r3, [r4]
 1533              		.loc 1 373 5 is_stmt 1 view .LVU397
 1534 000c FFF7FEFF 		bl	chEvtAddEvents
 1535              	.LVL90:
 1536              		.loc 1 375 3 view .LVU398
 1537              		.loc 1 375 19 view .LVU399
 1538              		.loc 1 379 3 view .LVU400
 1539 0010 0223     		movs	r3, #2
 1540              		.loc 1 381 9 is_stmt 0 view .LVU401
 1541 0012 0520     		movs	r0, #5
 1542              		.loc 1 379 3 view .LVU402
 1543 0014 2360     		str	r3, [r4]
 1544              		.loc 1 381 5 is_stmt 1 view .LVU403
 1545              		.loc 1 381 9 is_stmt 0 view .LVU404
 1546 0016 FFF7FEFF 		bl	chEvtWaitAll
 1547              	.LVL91:
 1548              		.loc 1 382 5 is_stmt 1 view .LVU405
 1549 001a A0F10500 		sub	r0, #5
 1550              	.LVL92:
 1551              		.loc 1 382 5 is_stmt 0 view .LVU406
 1552 001e B0FA80F0 		clz	r0, r0
 1553              	.LVL93:
 1554              		.loc 1 382 5 view .LVU407
 1555 0022 2B49     		ldr	r1, .L52+4
 1556 0024 4009     		lsrs	r0, r0, #5
 1557 0026 FFF7FEFF 		bl	__test_assert
 1558              	.LVL94:
 1559 002a 08B1     		cbz	r0, .L51
 1560              	.L46:
 1561              		.loc 1 420 1 view .LVU408
 1562 002c 03B0     		add	sp, sp, #12
 1563              		.cfi_remember_state
 1564              		.cfi_def_cfa_offset 12
 1565              		@ sp needed
 1566 002e 30BD     		pop	{r4, r5, pc}
 1567              	.L51:
 1568              		.cfi_restore_state
 1569              	.LBB359:
 1570              	.LBI359:
ARM GAS  /tmp/ccTPRGr7.s 			page 29


 1571              		.loc 1 366 13 is_stmt 1 view .LVU409
 1572              	.LBB360:
 1573              		.loc 1 382 50 view .LVU410
 1574              		.loc 1 383 5 view .LVU411
 1575              		.loc 1 383 9 is_stmt 0 view .LVU412
 1576 0030 4FF0FF30 		mov	r0, #-1
 1577 0034 FFF7FEFF 		bl	chEvtGetAndClearEvents
 1578              	.LVL95:
 1579              		.loc 1 384 5 is_stmt 1 view .LVU413
 1580 0038 B0FA80F0 		clz	r0, r0
 1581              	.LVL96:
 1582              		.loc 1 384 5 is_stmt 0 view .LVU414
 1583 003c 2549     		ldr	r1, .L52+8
 1584 003e 4009     		lsrs	r0, r0, #5
 1585 0040 FFF7FEFF 		bl	__test_assert
 1586              	.LVL97:
 1587 0044 0028     		cmp	r0, #0
 1588 0046 F1D1     		bne	.L46
 1589              		.loc 1 384 39 is_stmt 1 view .LVU415
 1590              		.loc 1 386 3 view .LVU416
 1591              		.loc 1 386 19 view .LVU417
 1592              		.loc 1 389 3 view .LVU418
 1593 0048 0323     		movs	r3, #3
 1594              		.loc 1 391 5 is_stmt 0 view .LVU419
 1595 004a 0420     		movs	r0, #4
 1596              		.loc 1 389 3 view .LVU420
 1597 004c 2360     		str	r3, [r4]
 1598              		.loc 1 391 5 is_stmt 1 view .LVU421
 1599 004e FFF7FEFF 		bl	chEvtAddEvents
 1600              	.LVL98:
 1601              		.loc 1 393 3 view .LVU422
 1602              		.loc 1 393 19 view .LVU423
 1603              		.loc 1 397 3 view .LVU424
 1604 0052 0423     		movs	r3, #4
 1605 0054 2360     		str	r3, [r4]
 1606              		.loc 1 399 5 view .LVU425
 1607              		.loc 1 399 19 is_stmt 0 view .LVU426
 1608 0056 FFF7FEFF 		bl	test_wait_tick
 1609              	.LVL99:
 1610              	.LBB361:
 1611              	.LBB362:
 1612              	.LBB363:
 1613              	.LBB364:
 1614              		.loc 3 343 10 view .LVU427
 1615 005a 1F4B     		ldr	r3, .L52+12
 1616 005c D968     		ldr	r1, [r3, #12]
 1617              	.LBE364:
 1618              	.LBE363:
 1619              	.LBE362:
 1620              	.LBE361:
 1621              		.loc 1 400 18 view .LVU428
 1622 005e 1F4B     		ldr	r3, .L52+16
 1623 0060 8A68     		ldr	r2, [r1, #8]
 1624 0062 0091     		str	r1, [sp]
 1625              		.loc 1 399 19 view .LVU429
 1626 0064 0546     		mov	r5, r0
 1627              		.loc 1 400 18 view .LVU430
ARM GAS  /tmp/ccTPRGr7.s 			page 30


 1628 0066 1E48     		ldr	r0, .L52+20
 1629 0068 4FF4B871 		mov	r1, #368
 1630 006c 013A     		subs	r2, r2, #1
 1631 006e 0068     		ldr	r0, [r0]
 1632              	.LVL100:
 1633              	.LBB368:
 1634              	.LBI368:
 1635              		.loc 4 442 25 is_stmt 1 view .LVU431
 1636              	.LBB369:
 1637              		.loc 4 449 3 view .LVU432
 1638              		.loc 4 449 3 is_stmt 0 view .LVU433
 1639              	.LBE369:
 1640              	.LBE368:
 1641              		.loc 1 400 5 is_stmt 1 view .LVU434
 1642              	.LBB370:
 1643              	.LBI361:
 1644              		.loc 3 354 23 view .LVU435
 1645              	.LBB367:
 1646              		.loc 3 356 3 view .LVU436
 1647              	.LBB366:
 1648              	.LBI363:
 1649              		.loc 3 341 25 view .LVU437
 1650              	.LBB365:
 1651              		.loc 3 343 3 view .LVU438
 1652              	.LBE365:
 1653              	.LBE366:
 1654              	.LBE367:
 1655              	.LBE370:
 1656              	.LBE360:
 1657              	.LBE359:
 1658              		.loc 3 343 3 view .LVU439
 1659              	.LBB375:
 1660              	.LBB373:
 1661              		.loc 1 400 18 is_stmt 0 view .LVU440
 1662 0070 FFF7FEFF 		bl	chThdCreateStatic
 1663              	.LVL101:
 1664              		.loc 1 400 16 view .LVU441
 1665 0074 1B4B     		ldr	r3, .L52+24
 1666              		.loc 1 400 18 view .LVU442
 1667 0076 0246     		mov	r2, r0
 1668              		.loc 1 400 16 view .LVU443
 1669 0078 1A60     		str	r2, [r3]
 1670              		.loc 1 403 3 is_stmt 1 view .LVU444
 1671              		.loc 1 403 19 view .LVU445
 1672              		.loc 1 408 3 view .LVU446
 1673              		.loc 1 410 5 view .LVU447
 1674              		.loc 1 408 3 is_stmt 0 view .LVU448
 1675 007a 0520     		movs	r0, #5
 1676 007c 2060     		str	r0, [r4]
 1677              		.loc 1 410 9 view .LVU449
 1678 007e FFF7FEFF 		bl	chEvtWaitAll
 1679              	.LVL102:
 1680              		.loc 1 411 5 view .LVU450
 1681 0082 194A     		ldr	r2, .L52+28
 1682              		.loc 1 410 9 view .LVU451
 1683 0084 0446     		mov	r4, r0
 1684              		.loc 1 411 5 view .LVU452
ARM GAS  /tmp/ccTPRGr7.s 			page 31


 1685 0086 05F50271 		add	r1, r5, #520
 1686 008a 05F5FA70 		add	r0, r5, #500
 1687              	.LVL103:
 1688              		.loc 1 411 5 is_stmt 1 view .LVU453
 1689              	.LBB371:
 1690              	.LBI371:
 1691              		.loc 4 442 25 view .LVU454
 1692              	.LBB372:
 1693              		.loc 4 449 3 view .LVU455
 1694              		.loc 4 449 3 is_stmt 0 view .LVU456
 1695              	.LBE372:
 1696              	.LBE371:
 1697              		.loc 1 411 5 view .LVU457
 1698 008e FFF7FEFF 		bl	__test_assert_time_window
 1699              	.LVL104:
 1700              		.loc 1 411 5 view .LVU458
 1701 0092 0028     		cmp	r0, #0
 1702 0094 CAD1     		bne	.L46
 1703              		.loc 1 413 50 is_stmt 1 view .LVU459
 1704              		.loc 1 414 5 view .LVU460
 1705 0096 A4F10500 		sub	r0, r4, #5
 1706 009a B0FA80F0 		clz	r0, r0
 1707 009e 1349     		ldr	r1, .L52+32
 1708 00a0 4009     		lsrs	r0, r0, #5
 1709 00a2 FFF7FEFF 		bl	__test_assert
 1710              	.LVL105:
 1711 00a6 0028     		cmp	r0, #0
 1712 00a8 C0D1     		bne	.L46
 1713              		.loc 1 414 45 view .LVU461
 1714              		.loc 1 415 5 view .LVU462
 1715              		.loc 1 415 9 is_stmt 0 view .LVU463
 1716 00aa 4FF0FF30 		mov	r0, #-1
 1717 00ae FFF7FEFF 		bl	chEvtGetAndClearEvents
 1718              	.LVL106:
 1719              		.loc 1 416 5 is_stmt 1 view .LVU464
 1720 00b2 B0FA80F0 		clz	r0, r0
 1721              	.LVL107:
 1722              		.loc 1 416 5 is_stmt 0 view .LVU465
 1723 00b6 0749     		ldr	r1, .L52+8
 1724 00b8 4009     		lsrs	r0, r0, #5
 1725 00ba FFF7FEFF 		bl	__test_assert
 1726              	.LVL108:
 1727 00be 0028     		cmp	r0, #0
 1728 00c0 B4D1     		bne	.L46
 1729              		.loc 1 416 39 is_stmt 1 view .LVU466
 1730              		.loc 1 417 5 view .LVU467
 1731              	.LBE373:
 1732              	.LBE375:
 1733              		.loc 1 420 1 is_stmt 0 view .LVU468
 1734 00c2 03B0     		add	sp, sp, #12
 1735              		.cfi_def_cfa_offset 12
 1736              		@ sp needed
 1737 00c4 BDE83040 		pop	{r4, r5, lr}
 1738              		.cfi_restore 14
 1739              		.cfi_restore 5
 1740              		.cfi_restore 4
 1741              		.cfi_def_cfa_offset 0
ARM GAS  /tmp/ccTPRGr7.s 			page 32


 1742              	.LVL109:
 1743              	.LBB376:
 1744              	.LBB374:
 1745              		.loc 1 417 5 view .LVU469
 1746 00c8 FFF7FEBF 		b	test_wait_threads
 1747              	.LVL110:
 1748              	.L53:
 1749              		.align	2
 1750              	.L52:
 1751 00cc 00000000 		.word	chtest
 1752 00d0 00000000 		.word	.LC8
 1753 00d4 18000000 		.word	.LC2
 1754 00d8 00000000 		.word	ch0
 1755 00dc 00000000 		.word	evt_thread3
 1756 00e0 00000000 		.word	wa
 1757 00e4 00000000 		.word	threads
 1758 00e8 04000000 		.word	.LC1
 1759 00ec 18000000 		.word	.LC9
 1760              	.LBE374:
 1761              	.LBE376:
 1762              		.cfi_endproc
 1763              	.LFE417:
 1764              		.size	rt_test_010_005_execute, .-rt_test_010_005_execute
 1765              		.section	.rodata.rt_test_010_004_execute.str1.4,"aMS",%progbits,1
 1766              		.align	2
 1767              	.LC10:
 1768 0000 6576656E 		.ascii	"event flag error\000"
 1768      7420666C 
 1768      61672065 
 1768      72726F72 
 1768      00
 1769              		.section	.text.rt_test_010_004_execute,"ax",%progbits
 1770              		.align	1
 1771              		.p2align 4,,15
 1772              		.syntax unified
 1773              		.thumb
 1774              		.thumb_func
 1775              		.fpu softvfp
 1776              		.type	rt_test_010_004_execute, %function
 1777              	rt_test_010_004_execute:
 1778              	.LFB415:
 1779              		.loc 1 287 43 is_stmt 1 view -0
 1780              		.cfi_startproc
 1781              		@ args = 0, pretend = 0, frame = 0
 1782              		@ frame_needed = 0, uses_anonymous_args = 0
 1783              		.loc 1 288 3 view .LVU471
 1784              		.loc 1 289 3 view .LVU472
 1785              		.loc 1 292 3 view .LVU473
 1786              		.loc 1 287 43 is_stmt 0 view .LVU474
 1787 0000 30B5     		push	{r4, r5, lr}
 1788              		.cfi_def_cfa_offset 12
 1789              		.cfi_offset 4, -12
 1790              		.cfi_offset 5, -8
 1791              		.cfi_offset 14, -4
 1792              		.loc 1 292 3 view .LVU475
 1793 0002 314C     		ldr	r4, .L60
 1794              		.loc 1 287 43 view .LVU476
ARM GAS  /tmp/ccTPRGr7.s 			page 33


 1795 0004 83B0     		sub	sp, sp, #12
 1796              		.cfi_def_cfa_offset 24
 1797              		.loc 1 292 3 view .LVU477
 1798 0006 0123     		movs	r3, #1
 1799              		.loc 1 294 5 view .LVU478
 1800 0008 0520     		movs	r0, #5
 1801              		.loc 1 292 3 view .LVU479
 1802 000a 2360     		str	r3, [r4]
 1803              		.loc 1 294 5 is_stmt 1 view .LVU480
 1804 000c FFF7FEFF 		bl	chEvtAddEvents
 1805              	.LVL111:
 1806              		.loc 1 296 3 view .LVU481
 1807              		.loc 1 296 19 view .LVU482
 1808              		.loc 1 300 3 view .LVU483
 1809 0010 0223     		movs	r3, #2
 1810              		.loc 1 302 9 is_stmt 0 view .LVU484
 1811 0012 4FF0FF30 		mov	r0, #-1
 1812              		.loc 1 300 3 view .LVU485
 1813 0016 2360     		str	r3, [r4]
 1814              		.loc 1 302 5 is_stmt 1 view .LVU486
 1815              		.loc 1 302 9 is_stmt 0 view .LVU487
 1816 0018 FFF7FEFF 		bl	chEvtWaitAny
 1817              	.LVL112:
 1818              		.loc 1 303 5 is_stmt 1 view .LVU488
 1819 001c A0F10500 		sub	r0, #5
 1820              	.LVL113:
 1821              		.loc 1 303 5 is_stmt 0 view .LVU489
 1822 0020 B0FA80F0 		clz	r0, r0
 1823              	.LVL114:
 1824              		.loc 1 303 5 view .LVU490
 1825 0024 2949     		ldr	r1, .L60+4
 1826 0026 4009     		lsrs	r0, r0, #5
 1827 0028 FFF7FEFF 		bl	__test_assert
 1828              	.LVL115:
 1829 002c 08B1     		cbz	r0, .L59
 1830              	.L54:
 1831              		.loc 1 334 1 view .LVU491
 1832 002e 03B0     		add	sp, sp, #12
 1833              		.cfi_remember_state
 1834              		.cfi_def_cfa_offset 12
 1835              		@ sp needed
 1836 0030 30BD     		pop	{r4, r5, pc}
 1837              	.L59:
 1838              		.cfi_restore_state
 1839              	.LBB389:
 1840              	.LBI389:
 1841              		.loc 1 287 13 is_stmt 1 view .LVU492
 1842              	.LBB390:
 1843              		.loc 1 303 50 view .LVU493
 1844              		.loc 1 304 5 view .LVU494
 1845              		.loc 1 304 9 is_stmt 0 view .LVU495
 1846 0032 4FF0FF30 		mov	r0, #-1
 1847 0036 FFF7FEFF 		bl	chEvtGetAndClearEvents
 1848              	.LVL116:
 1849              		.loc 1 305 5 is_stmt 1 view .LVU496
 1850 003a B0FA80F0 		clz	r0, r0
 1851              	.LVL117:
ARM GAS  /tmp/ccTPRGr7.s 			page 34


 1852              		.loc 1 305 5 is_stmt 0 view .LVU497
 1853 003e 2449     		ldr	r1, .L60+8
 1854 0040 4009     		lsrs	r0, r0, #5
 1855 0042 FFF7FEFF 		bl	__test_assert
 1856              	.LVL118:
 1857 0046 0028     		cmp	r0, #0
 1858 0048 F1D1     		bne	.L54
 1859              		.loc 1 305 39 is_stmt 1 view .LVU498
 1860              		.loc 1 307 3 view .LVU499
 1861              		.loc 1 307 19 view .LVU500
 1862              		.loc 1 311 3 view .LVU501
 1863 004a 0323     		movs	r3, #3
 1864 004c 2360     		str	r3, [r4]
 1865              		.loc 1 313 5 view .LVU502
 1866              		.loc 1 313 19 is_stmt 0 view .LVU503
 1867 004e FFF7FEFF 		bl	test_wait_tick
 1868              	.LVL119:
 1869              	.LBB391:
 1870              	.LBB392:
 1871              	.LBB393:
 1872              	.LBB394:
 1873              		.loc 3 343 10 view .LVU504
 1874 0052 204B     		ldr	r3, .L60+12
 1875 0054 D968     		ldr	r1, [r3, #12]
 1876              	.LBE394:
 1877              	.LBE393:
 1878              	.LBE392:
 1879              	.LBE391:
 1880              		.loc 1 314 18 view .LVU505
 1881 0056 204B     		ldr	r3, .L60+16
 1882 0058 8A68     		ldr	r2, [r1, #8]
 1883 005a 0091     		str	r1, [sp]
 1884              		.loc 1 313 19 view .LVU506
 1885 005c 0546     		mov	r5, r0
 1886              		.loc 1 314 18 view .LVU507
 1887 005e 1F48     		ldr	r0, .L60+20
 1888 0060 4FF4B871 		mov	r1, #368
 1889 0064 013A     		subs	r2, r2, #1
 1890 0066 0068     		ldr	r0, [r0]
 1891              	.LVL120:
 1892              	.LBB398:
 1893              	.LBI398:
 1894              		.loc 4 442 25 is_stmt 1 view .LVU508
 1895              	.LBB399:
 1896              		.loc 4 449 3 view .LVU509
 1897              		.loc 4 449 3 is_stmt 0 view .LVU510
 1898              	.LBE399:
 1899              	.LBE398:
 1900              		.loc 1 314 5 is_stmt 1 view .LVU511
 1901              	.LBB400:
 1902              	.LBI391:
 1903              		.loc 3 354 23 view .LVU512
 1904              	.LBB397:
 1905              		.loc 3 356 3 view .LVU513
 1906              	.LBB396:
 1907              	.LBI393:
 1908              		.loc 3 341 25 view .LVU514
ARM GAS  /tmp/ccTPRGr7.s 			page 35


 1909              	.LBB395:
 1910              		.loc 3 343 3 view .LVU515
 1911              	.LBE395:
 1912              	.LBE396:
 1913              	.LBE397:
 1914              	.LBE400:
 1915              	.LBE390:
 1916              	.LBE389:
 1917              		.loc 3 343 3 view .LVU516
 1918              	.LBB405:
 1919              	.LBB403:
 1920              		.loc 1 314 18 is_stmt 0 view .LVU517
 1921 0068 FFF7FEFF 		bl	chThdCreateStatic
 1922              	.LVL121:
 1923              		.loc 1 314 16 view .LVU518
 1924 006c 1C4A     		ldr	r2, .L60+24
 1925              		.loc 1 322 3 view .LVU519
 1926 006e 0423     		movs	r3, #4
 1927              		.loc 1 314 16 view .LVU520
 1928 0070 1060     		str	r0, [r2]
 1929              		.loc 1 317 3 is_stmt 1 view .LVU521
 1930              		.loc 1 317 19 view .LVU522
 1931              		.loc 1 322 3 view .LVU523
 1932              		.loc 1 324 9 is_stmt 0 view .LVU524
 1933 0072 4FF0FF30 		mov	r0, #-1
 1934              		.loc 1 322 3 view .LVU525
 1935 0076 2360     		str	r3, [r4]
 1936              		.loc 1 324 5 is_stmt 1 view .LVU526
 1937              		.loc 1 324 9 is_stmt 0 view .LVU527
 1938 0078 FFF7FEFF 		bl	chEvtWaitAny
 1939              	.LVL122:
 1940              		.loc 1 325 5 view .LVU528
 1941 007c 194A     		ldr	r2, .L60+28
 1942              		.loc 1 324 9 view .LVU529
 1943 007e 0446     		mov	r4, r0
 1944              		.loc 1 325 5 view .LVU530
 1945 0080 05F50271 		add	r1, r5, #520
 1946 0084 05F5FA70 		add	r0, r5, #500
 1947              	.LVL123:
 1948              		.loc 1 325 5 is_stmt 1 view .LVU531
 1949              	.LBB401:
 1950              	.LBI401:
 1951              		.loc 4 442 25 view .LVU532
 1952              	.LBB402:
 1953              		.loc 4 449 3 view .LVU533
 1954              		.loc 4 449 3 is_stmt 0 view .LVU534
 1955              	.LBE402:
 1956              	.LBE401:
 1957              		.loc 1 325 5 view .LVU535
 1958 0088 FFF7FEFF 		bl	__test_assert_time_window
 1959              	.LVL124:
 1960              		.loc 1 325 5 view .LVU536
 1961 008c 0028     		cmp	r0, #0
 1962 008e CED1     		bne	.L54
 1963              		.loc 1 327 50 is_stmt 1 view .LVU537
 1964              		.loc 1 328 5 view .LVU538
 1965 0090 A4F10100 		sub	r0, r4, #1
ARM GAS  /tmp/ccTPRGr7.s 			page 36


 1966 0094 B0FA80F0 		clz	r0, r0
 1967 0098 1349     		ldr	r1, .L60+32
 1968 009a 4009     		lsrs	r0, r0, #5
 1969 009c FFF7FEFF 		bl	__test_assert
 1970              	.LVL125:
 1971 00a0 0028     		cmp	r0, #0
 1972 00a2 C4D1     		bne	.L54
 1973              		.loc 1 328 44 view .LVU539
 1974              		.loc 1 329 5 view .LVU540
 1975              		.loc 1 329 9 is_stmt 0 view .LVU541
 1976 00a4 4FF0FF30 		mov	r0, #-1
 1977 00a8 FFF7FEFF 		bl	chEvtGetAndClearEvents
 1978              	.LVL126:
 1979              		.loc 1 330 5 is_stmt 1 view .LVU542
 1980 00ac B0FA80F0 		clz	r0, r0
 1981              	.LVL127:
 1982              		.loc 1 330 5 is_stmt 0 view .LVU543
 1983 00b0 0749     		ldr	r1, .L60+8
 1984 00b2 4009     		lsrs	r0, r0, #5
 1985 00b4 FFF7FEFF 		bl	__test_assert
 1986              	.LVL128:
 1987 00b8 0028     		cmp	r0, #0
 1988 00ba B8D1     		bne	.L54
 1989              		.loc 1 330 39 is_stmt 1 view .LVU544
 1990              		.loc 1 331 5 view .LVU545
 1991              	.LBE403:
 1992              	.LBE405:
 1993              		.loc 1 334 1 is_stmt 0 view .LVU546
 1994 00bc 03B0     		add	sp, sp, #12
 1995              		.cfi_def_cfa_offset 12
 1996              		@ sp needed
 1997 00be BDE83040 		pop	{r4, r5, lr}
 1998              		.cfi_restore 14
 1999              		.cfi_restore 5
 2000              		.cfi_restore 4
 2001              		.cfi_def_cfa_offset 0
 2002              	.LVL129:
 2003              	.LBB406:
 2004              	.LBB404:
 2005              		.loc 1 331 5 view .LVU547
 2006 00c2 FFF7FEBF 		b	test_wait_threads
 2007              	.LVL130:
 2008              	.L61:
 2009 00c6 00BF     		.align	2
 2010              	.L60:
 2011 00c8 00000000 		.word	chtest
 2012 00cc 00000000 		.word	.LC8
 2013 00d0 18000000 		.word	.LC2
 2014 00d4 00000000 		.word	ch0
 2015 00d8 00000000 		.word	evt_thread3
 2016 00dc 00000000 		.word	wa
 2017 00e0 00000000 		.word	threads
 2018 00e4 04000000 		.word	.LC1
 2019 00e8 00000000 		.word	.LC10
 2020              	.LBE404:
 2021              	.LBE406:
 2022              		.cfi_endproc
ARM GAS  /tmp/ccTPRGr7.s 			page 37


 2023              	.LFE415:
 2024              		.size	rt_test_010_004_execute, .-rt_test_010_004_execute
 2025              		.section	.rodata.rt_test_010_003_execute.str1.4,"aMS",%progbits,1
 2026              		.align	2
 2027              	.LC11:
 2028 0000 73696E67 		.ascii	"single event error\000"
 2028      6C652065 
 2028      76656E74 
 2028      20657272 
 2028      6F7200
 2029              		.section	.text.rt_test_010_003_execute,"ax",%progbits
 2030              		.align	1
 2031              		.p2align 4,,15
 2032              		.syntax unified
 2033              		.thumb
 2034              		.thumb_func
 2035              		.fpu softvfp
 2036              		.type	rt_test_010_003_execute, %function
 2037              	rt_test_010_003_execute:
 2038              	.LFB413:
 2039              		.loc 1 205 43 is_stmt 1 view -0
 2040              		.cfi_startproc
 2041              		@ args = 0, pretend = 0, frame = 0
 2042              		@ frame_needed = 0, uses_anonymous_args = 0
 2043              		.loc 1 206 3 view .LVU549
 2044              		.loc 1 207 3 view .LVU550
 2045              		.loc 1 210 3 view .LVU551
 2046              		.loc 1 205 43 is_stmt 0 view .LVU552
 2047 0000 30B5     		push	{r4, r5, lr}
 2048              		.cfi_def_cfa_offset 12
 2049              		.cfi_offset 4, -12
 2050              		.cfi_offset 5, -8
 2051              		.cfi_offset 14, -4
 2052              		.loc 1 210 3 view .LVU553
 2053 0002 3F4C     		ldr	r4, .L68
 2054              		.loc 1 205 43 view .LVU554
 2055 0004 83B0     		sub	sp, sp, #12
 2056              		.cfi_def_cfa_offset 24
 2057              		.loc 1 210 3 view .LVU555
 2058 0006 0123     		movs	r3, #1
 2059              		.loc 1 212 5 view .LVU556
 2060 0008 0720     		movs	r0, #7
 2061              		.loc 1 210 3 view .LVU557
 2062 000a 2360     		str	r3, [r4]
 2063              		.loc 1 212 5 is_stmt 1 view .LVU558
 2064 000c FFF7FEFF 		bl	chEvtAddEvents
 2065              	.LVL131:
 2066              		.loc 1 214 3 view .LVU559
 2067              		.loc 1 214 19 view .LVU560
 2068              		.loc 1 218 3 view .LVU561
 2069 0010 0223     		movs	r3, #2
 2070              		.loc 1 220 9 is_stmt 0 view .LVU562
 2071 0012 4FF0FF30 		mov	r0, #-1
 2072              		.loc 1 218 3 view .LVU563
 2073 0016 2360     		str	r3, [r4]
 2074              		.loc 1 220 5 is_stmt 1 view .LVU564
 2075              		.loc 1 220 9 is_stmt 0 view .LVU565
ARM GAS  /tmp/ccTPRGr7.s 			page 38


 2076 0018 FFF7FEFF 		bl	chEvtWaitOne
 2077              	.LVL132:
 2078              		.loc 1 221 5 is_stmt 1 view .LVU566
 2079 001c A0F10100 		sub	r0, #1
 2080              	.LVL133:
 2081              		.loc 1 221 5 is_stmt 0 view .LVU567
 2082 0020 B0FA80F0 		clz	r0, r0
 2083              	.LVL134:
 2084              		.loc 1 221 5 view .LVU568
 2085 0024 3749     		ldr	r1, .L68+4
 2086 0026 4009     		lsrs	r0, r0, #5
 2087 0028 FFF7FEFF 		bl	__test_assert
 2088              	.LVL135:
 2089 002c 08B1     		cbz	r0, .L67
 2090              	.L62:
 2091              		.loc 1 256 1 view .LVU569
 2092 002e 03B0     		add	sp, sp, #12
 2093              		.cfi_remember_state
 2094              		.cfi_def_cfa_offset 12
 2095              		@ sp needed
 2096 0030 30BD     		pop	{r4, r5, pc}
 2097              	.L67:
 2098              		.cfi_restore_state
 2099              	.LBB419:
 2100              	.LBI419:
 2101              		.loc 1 205 13 is_stmt 1 view .LVU570
 2102              	.LBB420:
 2103              		.loc 1 221 46 view .LVU571
 2104              		.loc 1 222 5 view .LVU572
 2105              		.loc 1 222 9 is_stmt 0 view .LVU573
 2106 0032 4FF0FF30 		mov	r0, #-1
 2107 0036 FFF7FEFF 		bl	chEvtWaitOne
 2108              	.LVL136:
 2109              		.loc 1 223 5 is_stmt 1 view .LVU574
 2110 003a A0F10200 		sub	r0, #2
 2111              	.LVL137:
 2112              		.loc 1 223 5 is_stmt 0 view .LVU575
 2113 003e B0FA80F0 		clz	r0, r0
 2114              	.LVL138:
 2115              		.loc 1 223 5 view .LVU576
 2116 0042 3049     		ldr	r1, .L68+4
 2117 0044 4009     		lsrs	r0, r0, #5
 2118 0046 FFF7FEFF 		bl	__test_assert
 2119              	.LVL139:
 2120 004a 0028     		cmp	r0, #0
 2121 004c EFD1     		bne	.L62
 2122              		.loc 1 223 46 is_stmt 1 view .LVU577
 2123              		.loc 1 224 5 view .LVU578
 2124              		.loc 1 224 9 is_stmt 0 view .LVU579
 2125 004e 4FF0FF30 		mov	r0, #-1
 2126 0052 FFF7FEFF 		bl	chEvtWaitOne
 2127              	.LVL140:
 2128              		.loc 1 225 5 is_stmt 1 view .LVU580
 2129 0056 A0F10400 		sub	r0, #4
 2130              	.LVL141:
 2131              		.loc 1 225 5 is_stmt 0 view .LVU581
 2132 005a B0FA80F0 		clz	r0, r0
ARM GAS  /tmp/ccTPRGr7.s 			page 39


 2133              	.LVL142:
 2134              		.loc 1 225 5 view .LVU582
 2135 005e 2949     		ldr	r1, .L68+4
 2136 0060 4009     		lsrs	r0, r0, #5
 2137 0062 FFF7FEFF 		bl	__test_assert
 2138              	.LVL143:
 2139 0066 0028     		cmp	r0, #0
 2140 0068 E1D1     		bne	.L62
 2141              		.loc 1 225 46 is_stmt 1 view .LVU583
 2142              		.loc 1 226 5 view .LVU584
 2143              		.loc 1 226 9 is_stmt 0 view .LVU585
 2144 006a 4FF0FF30 		mov	r0, #-1
 2145 006e FFF7FEFF 		bl	chEvtGetAndClearEvents
 2146              	.LVL144:
 2147              		.loc 1 227 5 is_stmt 1 view .LVU586
 2148 0072 B0FA80F0 		clz	r0, r0
 2149              	.LVL145:
 2150              		.loc 1 227 5 is_stmt 0 view .LVU587
 2151 0076 2449     		ldr	r1, .L68+8
 2152 0078 4009     		lsrs	r0, r0, #5
 2153 007a FFF7FEFF 		bl	__test_assert
 2154              	.LVL146:
 2155 007e 0028     		cmp	r0, #0
 2156 0080 D5D1     		bne	.L62
 2157              		.loc 1 227 39 is_stmt 1 view .LVU588
 2158              		.loc 1 229 3 view .LVU589
 2159              		.loc 1 229 19 view .LVU590
 2160              		.loc 1 233 3 view .LVU591
 2161 0082 0323     		movs	r3, #3
 2162 0084 2360     		str	r3, [r4]
 2163              		.loc 1 235 5 view .LVU592
 2164              		.loc 1 235 19 is_stmt 0 view .LVU593
 2165 0086 FFF7FEFF 		bl	test_wait_tick
 2166              	.LVL147:
 2167              	.LBB421:
 2168              	.LBB422:
 2169              	.LBB423:
 2170              	.LBB424:
 2171              		.loc 3 343 10 view .LVU594
 2172 008a 204B     		ldr	r3, .L68+12
 2173 008c D968     		ldr	r1, [r3, #12]
 2174              	.LBE424:
 2175              	.LBE423:
 2176              	.LBE422:
 2177              	.LBE421:
 2178              		.loc 1 236 18 view .LVU595
 2179 008e 204B     		ldr	r3, .L68+16
 2180 0090 8A68     		ldr	r2, [r1, #8]
 2181 0092 0091     		str	r1, [sp]
 2182              		.loc 1 235 19 view .LVU596
 2183 0094 0546     		mov	r5, r0
 2184              		.loc 1 236 18 view .LVU597
 2185 0096 1F48     		ldr	r0, .L68+20
 2186 0098 4FF4B871 		mov	r1, #368
 2187 009c 013A     		subs	r2, r2, #1
 2188 009e 0068     		ldr	r0, [r0]
 2189              	.LVL148:
ARM GAS  /tmp/ccTPRGr7.s 			page 40


 2190              	.LBB428:
 2191              	.LBI428:
 2192              		.loc 4 442 25 is_stmt 1 view .LVU598
 2193              	.LBB429:
 2194              		.loc 4 449 3 view .LVU599
 2195              		.loc 4 449 3 is_stmt 0 view .LVU600
 2196              	.LBE429:
 2197              	.LBE428:
 2198              		.loc 1 236 5 is_stmt 1 view .LVU601
 2199              	.LBB430:
 2200              	.LBI421:
 2201              		.loc 3 354 23 view .LVU602
 2202              	.LBB427:
 2203              		.loc 3 356 3 view .LVU603
 2204              	.LBB426:
 2205              	.LBI423:
 2206              		.loc 3 341 25 view .LVU604
 2207              	.LBB425:
 2208              		.loc 3 343 3 view .LVU605
 2209              	.LBE425:
 2210              	.LBE426:
 2211              	.LBE427:
 2212              	.LBE430:
 2213              	.LBE420:
 2214              	.LBE419:
 2215              		.loc 3 343 3 view .LVU606
 2216              	.LBB435:
 2217              	.LBB433:
 2218              		.loc 1 236 18 is_stmt 0 view .LVU607
 2219 00a0 FFF7FEFF 		bl	chThdCreateStatic
 2220              	.LVL149:
 2221              		.loc 1 236 16 view .LVU608
 2222 00a4 1C4A     		ldr	r2, .L68+24
 2223              		.loc 1 244 3 view .LVU609
 2224 00a6 0423     		movs	r3, #4
 2225              		.loc 1 236 16 view .LVU610
 2226 00a8 1060     		str	r0, [r2]
 2227              		.loc 1 239 3 is_stmt 1 view .LVU611
 2228              		.loc 1 239 19 view .LVU612
 2229              		.loc 1 244 3 view .LVU613
 2230              		.loc 1 246 9 is_stmt 0 view .LVU614
 2231 00aa 4FF0FF30 		mov	r0, #-1
 2232              		.loc 1 244 3 view .LVU615
 2233 00ae 2360     		str	r3, [r4]
 2234              		.loc 1 246 5 is_stmt 1 view .LVU616
 2235              		.loc 1 246 9 is_stmt 0 view .LVU617
 2236 00b0 FFF7FEFF 		bl	chEvtWaitOne
 2237              	.LVL150:
 2238              		.loc 1 247 5 view .LVU618
 2239 00b4 194A     		ldr	r2, .L68+28
 2240              		.loc 1 246 9 view .LVU619
 2241 00b6 0446     		mov	r4, r0
 2242              		.loc 1 247 5 view .LVU620
 2243 00b8 05F50271 		add	r1, r5, #520
 2244 00bc 05F5FA70 		add	r0, r5, #500
 2245              	.LVL151:
 2246              		.loc 1 247 5 is_stmt 1 view .LVU621
ARM GAS  /tmp/ccTPRGr7.s 			page 41


 2247              	.LBB431:
 2248              	.LBI431:
 2249              		.loc 4 442 25 view .LVU622
 2250              	.LBB432:
 2251              		.loc 4 449 3 view .LVU623
 2252              		.loc 4 449 3 is_stmt 0 view .LVU624
 2253              	.LBE432:
 2254              	.LBE431:
 2255              		.loc 1 247 5 view .LVU625
 2256 00c0 FFF7FEFF 		bl	__test_assert_time_window
 2257              	.LVL152:
 2258              		.loc 1 247 5 view .LVU626
 2259 00c4 0028     		cmp	r0, #0
 2260 00c6 B2D1     		bne	.L62
 2261              		.loc 1 249 50 is_stmt 1 view .LVU627
 2262              		.loc 1 250 5 view .LVU628
 2263 00c8 A4F10100 		sub	r0, r4, #1
 2264 00cc B0FA80F0 		clz	r0, r0
 2265 00d0 1349     		ldr	r1, .L68+32
 2266 00d2 4009     		lsrs	r0, r0, #5
 2267 00d4 FFF7FEFF 		bl	__test_assert
 2268              	.LVL153:
 2269 00d8 0028     		cmp	r0, #0
 2270 00da A8D1     		bne	.L62
 2271              		.loc 1 250 44 view .LVU629
 2272              		.loc 1 251 5 view .LVU630
 2273              		.loc 1 251 9 is_stmt 0 view .LVU631
 2274 00dc 4FF0FF30 		mov	r0, #-1
 2275 00e0 FFF7FEFF 		bl	chEvtGetAndClearEvents
 2276              	.LVL154:
 2277              		.loc 1 252 5 is_stmt 1 view .LVU632
 2278 00e4 B0FA80F0 		clz	r0, r0
 2279              	.LVL155:
 2280              		.loc 1 252 5 is_stmt 0 view .LVU633
 2281 00e8 0749     		ldr	r1, .L68+8
 2282 00ea 4009     		lsrs	r0, r0, #5
 2283 00ec FFF7FEFF 		bl	__test_assert
 2284              	.LVL156:
 2285 00f0 0028     		cmp	r0, #0
 2286 00f2 9CD1     		bne	.L62
 2287              		.loc 1 252 39 is_stmt 1 view .LVU634
 2288              		.loc 1 253 5 view .LVU635
 2289              	.LBE433:
 2290              	.LBE435:
 2291              		.loc 1 256 1 is_stmt 0 view .LVU636
 2292 00f4 03B0     		add	sp, sp, #12
 2293              		.cfi_def_cfa_offset 12
 2294              		@ sp needed
 2295 00f6 BDE83040 		pop	{r4, r5, lr}
 2296              		.cfi_restore 14
 2297              		.cfi_restore 5
 2298              		.cfi_restore 4
 2299              		.cfi_def_cfa_offset 0
 2300              	.LVL157:
 2301              	.LBB436:
 2302              	.LBB434:
 2303              		.loc 1 253 5 view .LVU637
ARM GAS  /tmp/ccTPRGr7.s 			page 42


 2304 00fa FFF7FEBF 		b	test_wait_threads
 2305              	.LVL158:
 2306              	.L69:
 2307 00fe 00BF     		.align	2
 2308              	.L68:
 2309 0100 00000000 		.word	chtest
 2310 0104 00000000 		.word	.LC11
 2311 0108 18000000 		.word	.LC2
 2312 010c 00000000 		.word	ch0
 2313 0110 00000000 		.word	evt_thread3
 2314 0114 00000000 		.word	wa
 2315 0118 00000000 		.word	threads
 2316 011c 04000000 		.word	.LC1
 2317 0120 00000000 		.word	.LC10
 2318              	.LBE434:
 2319              	.LBE436:
 2320              		.cfi_endproc
 2321              	.LFE413:
 2322              		.size	rt_test_010_003_execute, .-rt_test_010_003_execute
 2323              		.section	.text.rt_test_010_006_setup,"ax",%progbits
 2324              		.align	1
 2325              		.p2align 4,,15
 2326              		.syntax unified
 2327              		.thumb
 2328              		.thumb_func
 2329              		.fpu softvfp
 2330              		.type	rt_test_010_006_setup, %function
 2331              	rt_test_010_006_setup:
 2332              	.LFB433:
 2333              		.cfi_startproc
 2334              		@ args = 0, pretend = 0, frame = 0
 2335              		@ frame_needed = 0, uses_anonymous_args = 0
 2336              		@ link register save eliminated.
 2337 0000 4FF0FF30 		mov	r0, #-1
 2338 0004 FFF7FEBF 		b	chEvtGetAndClearEvents
 2339              		.cfi_endproc
 2340              	.LFE433:
 2341              		.size	rt_test_010_006_setup, .-rt_test_010_006_setup
 2342              		.section	.text.rt_test_010_003_setup,"ax",%progbits
 2343              		.align	1
 2344              		.p2align 4,,15
 2345              		.syntax unified
 2346              		.thumb
 2347              		.thumb_func
 2348              		.fpu softvfp
 2349              		.type	rt_test_010_003_setup, %function
 2350              	rt_test_010_003_setup:
 2351              	.LFB427:
 2352              		.cfi_startproc
 2353              		@ args = 0, pretend = 0, frame = 0
 2354              		@ frame_needed = 0, uses_anonymous_args = 0
 2355              		@ link register save eliminated.
 2356 0000 4FF0FF30 		mov	r0, #-1
 2357 0004 FFF7FEBF 		b	chEvtGetAndClearEvents
 2358              		.cfi_endproc
 2359              	.LFE427:
 2360              		.size	rt_test_010_003_setup, .-rt_test_010_003_setup
ARM GAS  /tmp/ccTPRGr7.s 			page 43


 2361              		.section	.text.rt_test_010_004_setup,"ax",%progbits
 2362              		.align	1
 2363              		.p2align 4,,15
 2364              		.syntax unified
 2365              		.thumb
 2366              		.thumb_func
 2367              		.fpu softvfp
 2368              		.type	rt_test_010_004_setup, %function
 2369              	rt_test_010_004_setup:
 2370              	.LFB429:
 2371              		.cfi_startproc
 2372              		@ args = 0, pretend = 0, frame = 0
 2373              		@ frame_needed = 0, uses_anonymous_args = 0
 2374              		@ link register save eliminated.
 2375 0000 4FF0FF30 		mov	r0, #-1
 2376 0004 FFF7FEBF 		b	chEvtGetAndClearEvents
 2377              		.cfi_endproc
 2378              	.LFE429:
 2379              		.size	rt_test_010_004_setup, .-rt_test_010_004_setup
 2380              		.section	.text.rt_test_010_005_setup,"ax",%progbits
 2381              		.align	1
 2382              		.p2align 4,,15
 2383              		.syntax unified
 2384              		.thumb
 2385              		.thumb_func
 2386              		.fpu softvfp
 2387              		.type	rt_test_010_005_setup, %function
 2388              	rt_test_010_005_setup:
 2389              	.LFB431:
 2390              		.cfi_startproc
 2391              		@ args = 0, pretend = 0, frame = 0
 2392              		@ frame_needed = 0, uses_anonymous_args = 0
 2393              		@ link register save eliminated.
 2394 0000 4FF0FF30 		mov	r0, #-1
 2395 0004 FFF7FEBF 		b	chEvtGetAndClearEvents
 2396              		.cfi_endproc
 2397              	.LFE431:
 2398              		.size	rt_test_010_005_setup, .-rt_test_010_005_setup
 2399              		.global	rt_test_sequence_010
 2400              		.section	.rodata.str1.4,"aMS",%progbits,1
 2401              		.align	2
 2402              	.LC12:
 2403 0000 4576656E 		.ascii	"Event Sources and Event Flags\000"
 2403      7420536F 
 2403      75726365 
 2403      7320616E 
 2403      64204576 
 2404              		.global	rt_test_sequence_010_array
 2405 001e 0000     		.align	2
 2406              	.LC13:
 2407 0020 42726F61 		.ascii	"Broadcasting using chEvtBroadcast()\000"
 2407      64636173 
 2407      74696E67 
 2407      20757369 
 2407      6E672063 
 2408              		.align	2
 2409              	.LC14:
ARM GAS  /tmp/ccTPRGr7.s 			page 44


 2410 0044 4576656E 		.ascii	"Events Flags wait timeouts\000"
 2410      74732046 
 2410      6C616773 
 2410      20776169 
 2410      74207469 
 2411 005f 00       		.align	2
 2412              	.LC15:
 2413 0060 4576656E 		.ascii	"Events Flags wait using chEvtWaitAll()\000"
 2413      74732046 
 2413      6C616773 
 2413      20776169 
 2413      74207573 
 2414 0087 00       		.align	2
 2415              	.LC16:
 2416 0088 4576656E 		.ascii	"Events Flags wait using chEvtWaitAny()\000"
 2416      74732046 
 2416      6C616773 
 2416      20776169 
 2416      74207573 
 2417 00af 00       		.align	2
 2418              	.LC17:
 2419 00b0 4576656E 		.ascii	"Events Flags wait using chEvtWaitOne()\000"
 2419      74732046 
 2419      6C616773 
 2419      20776169 
 2419      74207573 
 2420 00d7 00       		.align	2
 2421              	.LC18:
 2422 00d8 4576656E 		.ascii	"Event Flags dispatching\000"
 2422      7420466C 
 2422      61677320 
 2422      64697370 
 2422      61746368 
 2423              		.align	2
 2424              	.LC19:
 2425 00f0 4576656E 		.ascii	"Events registration\000"
 2425      74732072 
 2425      65676973 
 2425      74726174 
 2425      696F6E00 
 2426              		.section	.data.es1,"aw"
 2427              		.align	2
 2428              		.set	.LANCHOR0,. + 0
 2429              		.type	es1, %object
 2430              		.size	es1, 4
 2431              	es1:
 2432 0000 00000000 		.word	es1
 2433              		.section	.data.es2,"aw"
 2434              		.align	2
 2435              		.set	.LANCHOR1,. + 0
 2436              		.type	es2, %object
 2437              		.size	es2, 4
 2438              	es2:
 2439 0000 00000000 		.word	es2
 2440              		.section	.rodata.evhndl,"a"
 2441              		.align	2
 2442              		.set	.LANCHOR2,. + 0
ARM GAS  /tmp/ccTPRGr7.s 			page 45


 2443              		.type	evhndl, %object
 2444              		.size	evhndl, 12
 2445              	evhndl:
 2446 0000 00000000 		.word	h1
 2447 0004 00000000 		.word	h2
 2448 0008 00000000 		.word	h3
 2449              		.section	.rodata.rt_test_010_001,"a"
 2450              		.align	2
 2451              		.type	rt_test_010_001, %object
 2452              		.size	rt_test_010_001, 16
 2453              	rt_test_010_001:
 2454 0000 F0000000 		.word	.LC19
 2455 0004 00000000 		.word	0
 2456 0008 00000000 		.word	0
 2457 000c 00000000 		.word	rt_test_010_001_execute
 2458              		.section	.rodata.rt_test_010_002,"a"
 2459              		.align	2
 2460              		.type	rt_test_010_002, %object
 2461              		.size	rt_test_010_002, 16
 2462              	rt_test_010_002:
 2463 0000 D8000000 		.word	.LC18
 2464 0004 00000000 		.word	rt_test_010_002_setup
 2465 0008 00000000 		.word	0
 2466 000c 00000000 		.word	rt_test_010_002_execute
 2467              		.section	.rodata.rt_test_010_003,"a"
 2468              		.align	2
 2469              		.type	rt_test_010_003, %object
 2470              		.size	rt_test_010_003, 16
 2471              	rt_test_010_003:
 2472 0000 B0000000 		.word	.LC17
 2473 0004 00000000 		.word	rt_test_010_003_setup
 2474 0008 00000000 		.word	0
 2475 000c 00000000 		.word	rt_test_010_003_execute
 2476              		.section	.rodata.rt_test_010_004,"a"
 2477              		.align	2
 2478              		.type	rt_test_010_004, %object
 2479              		.size	rt_test_010_004, 16
 2480              	rt_test_010_004:
 2481 0000 88000000 		.word	.LC16
 2482 0004 00000000 		.word	rt_test_010_004_setup
 2483 0008 00000000 		.word	0
 2484 000c 00000000 		.word	rt_test_010_004_execute
 2485              		.section	.rodata.rt_test_010_005,"a"
 2486              		.align	2
 2487              		.type	rt_test_010_005, %object
 2488              		.size	rt_test_010_005, 16
 2489              	rt_test_010_005:
 2490 0000 60000000 		.word	.LC15
 2491 0004 00000000 		.word	rt_test_010_005_setup
 2492 0008 00000000 		.word	0
 2493 000c 00000000 		.word	rt_test_010_005_execute
 2494              		.section	.rodata.rt_test_010_006,"a"
 2495              		.align	2
 2496              		.type	rt_test_010_006, %object
 2497              		.size	rt_test_010_006, 16
 2498              	rt_test_010_006:
 2499 0000 44000000 		.word	.LC14
ARM GAS  /tmp/ccTPRGr7.s 			page 46


 2500 0004 00000000 		.word	rt_test_010_006_setup
 2501 0008 00000000 		.word	0
 2502 000c 00000000 		.word	rt_test_010_006_execute
 2503              		.section	.rodata.rt_test_010_007,"a"
 2504              		.align	2
 2505              		.type	rt_test_010_007, %object
 2506              		.size	rt_test_010_007, 16
 2507              	rt_test_010_007:
 2508 0000 20000000 		.word	.LC13
 2509 0004 00000000 		.word	rt_test_010_007_setup
 2510 0008 00000000 		.word	0
 2511 000c 00000000 		.word	rt_test_010_007_execute
 2512              		.section	.rodata.rt_test_sequence_010,"a"
 2513              		.align	2
 2514              		.type	rt_test_sequence_010, %object
 2515              		.size	rt_test_sequence_010, 8
 2516              	rt_test_sequence_010:
 2517 0000 00000000 		.word	.LC12
 2518 0004 00000000 		.word	rt_test_sequence_010_array
 2519              		.section	.rodata.rt_test_sequence_010_array,"a"
 2520              		.align	2
 2521              		.type	rt_test_sequence_010_array, %object
 2522              		.size	rt_test_sequence_010_array, 32
 2523              	rt_test_sequence_010_array:
 2524 0000 00000000 		.word	rt_test_010_001
 2525 0004 00000000 		.word	rt_test_010_002
 2526 0008 00000000 		.word	rt_test_010_003
 2527 000c 00000000 		.word	rt_test_010_004
 2528 0010 00000000 		.word	rt_test_010_005
 2529 0014 00000000 		.word	rt_test_010_006
 2530 0018 00000000 		.word	rt_test_010_007
 2531 001c 00000000 		.word	0
 2532              		.text
 2533              	.Letext0:
 2534              		.file 9 "/opt/gcc-arm-none-eabi/gcc-arm-none-eabi-10.3-2021.07/lib/gcc/arm-none-eabi/10.3.1/includ
 2535              		.file 10 "/opt/gcc-arm-none-eabi/gcc-arm-none-eabi-10.3-2021.07/arm-none-eabi/include/machine/_def
 2536              		.file 11 "/opt/gcc-arm-none-eabi/gcc-arm-none-eabi-10.3-2021.07/arm-none-eabi/include/sys/_stdint.
 2537              		.file 12 "../ChibiOS/os/common/ports/ARM-common/chtypes.h"
 2538              		.file 13 "../ChibiOS/os/rt/include/chearly.h"
 2539              		.file 14 "../ChibiOS/os/rt/include/chobjects.h"
 2540              		.file 15 "../ChibiOS/os/rt/include/chrfcu.h"
 2541              		.file 16 "../ChibiOS/os/rt/include/chdebug.h"
 2542              		.file 17 "../ChibiOS/os/rt/include/chlists.h"
 2543              		.file 18 "../ChibiOS/os/rt/include/chsem.h"
 2544              		.file 19 "../ChibiOS/os/rt/include/chmtx.h"
 2545              		.file 20 "../ChibiOS/os/hal/include/hal_streams.h"
 2546              		.file 21 "../ChibiOS/os/test/include/ch_test.h"
 2547              		.file 22 "../ChibiOS/test/rt/source/test/rt_test_sequence_010.h"
 2548              		.file 23 "../ChibiOS/test/rt/source/test/rt_test_root.h"