ARM GAS  /tmp/ccEV1Zdm.s 			page 1


   1              		.cpu cortex-m4
   2              		.eabi_attribute 20, 1
   3              		.eabi_attribute 21, 1
   4              		.eabi_attribute 23, 3
   5              		.eabi_attribute 24, 1
   6              		.eabi_attribute 25, 1
   7              		.eabi_attribute 26, 1
   8              		.eabi_attribute 30, 2
   9              		.eabi_attribute 34, 1
  10              		.eabi_attribute 18, 4
  11              		.file	"rt_test_sequence_005.c"
  12              		.text
  13              	.Ltext0:
  14              		.cfi_sections	.debug_frame
  15              		.section	.rodata.rt_test_005_004_execute.str1.4,"aMS",%progbits,1
  16              		.align	2
  17              	.LC0:
  18 0000 756E6578 		.ascii	"unexpected priority level\000"
  18      70656374 
  18      65642070 
  18      72696F72 
  18      69747920 
  19 001a 0000     		.align	2
  20              	.LC1:
  21 001c 756E6578 		.ascii	"unexpected returned priority level\000"
  21      70656374 
  21      65642072 
  21      65747572 
  21      6E656420 
  22 003f 00       		.align	2
  23              	.LC2:
  24 0040 756E6578 		.ascii	"unexpected returned real priority level\000"
  24      70656374 
  24      65642072 
  24      65747572 
  24      6E656420 
  25              		.align	2
  26              	.LC3:
  27 0068 756E6578 		.ascii	"unexpected real priority level\000"
  27      70656374 
  27      65642072 
  27      65616C20 
  27      7072696F 
  28              		.section	.text.rt_test_005_004_execute,"ax",%progbits
  29              		.align	1
  30              		.p2align 4,,15
  31              		.arch armv7e-m
  32              		.syntax unified
  33              		.thumb
  34              		.thumb_func
  35              		.fpu softvfp
  36              		.type	rt_test_005_004_execute, %function
  37              	rt_test_005_004_execute:
  38              	.LFB408:
  39              		.file 1 "../ChibiOS/test/rt/source/test/rt_test_sequence_005.c"
  40              		.loc 1 290 43 view -0
  41              		.cfi_startproc
ARM GAS  /tmp/ccEV1Zdm.s 			page 2


  42              		@ args = 0, pretend = 0, frame = 0
  43              		@ frame_needed = 0, uses_anonymous_args = 0
  44              		.loc 1 291 3 view .LVU1
  45              		.loc 1 294 3 view .LVU2
  46              		.loc 1 290 43 is_stmt 0 view .LVU3
  47 0000 2DE9F041 		push	{r4, r5, r6, r7, r8, lr}
  48              		.cfi_def_cfa_offset 24
  49              		.cfi_offset 4, -24
  50              		.cfi_offset 5, -20
  51              		.cfi_offset 6, -16
  52              		.cfi_offset 7, -12
  53              		.cfi_offset 8, -8
  54              		.cfi_offset 14, -4
  55              	.LBB201:
  56              	.LBB202:
  57              	.LBB203:
  58              	.LBB204:
  59              		.file 2 "../ChibiOS/os/rt/include/chthreads.h"
  60              		.loc 2 343 10 view .LVU4
  61 0004 324E     		ldr	r6, .L8
  62              	.LBE204:
  63              	.LBE203:
  64              	.LBE202:
  65              	.LBE201:
  66              		.loc 1 294 3 view .LVU5
  67 0006 334D     		ldr	r5, .L8+4
  68              	.LBB212:
  69              	.LBB209:
  70              	.LBB207:
  71              	.LBB205:
  72              		.loc 2 343 10 view .LVU6
  73 0008 F368     		ldr	r3, [r6, #12]
  74              	.LBE205:
  75              	.LBE207:
  76              	.LBE209:
  77              	.LBE212:
  78              		.loc 1 298 5 view .LVU7
  79 000a 3349     		ldr	r1, .L8+8
  80              	.LBB213:
  81              	.LBB210:
  82              		.loc 2 356 37 view .LVU8
  83 000c 9C68     		ldr	r4, [r3, #8]
  84              	.LBE210:
  85              	.LBE213:
  86              		.loc 1 297 38 view .LVU9
  87 000e A71C     		adds	r7, r4, #2
  88              		.loc 1 294 3 view .LVU10
  89 0010 0120     		movs	r0, #1
  90              		.loc 1 297 38 view .LVU11
  91 0012 9F60     		str	r7, [r3, #8]
  92              		.loc 1 294 3 view .LVU12
  93 0014 2860     		str	r0, [r5]
  94              		.loc 1 296 5 is_stmt 1 view .LVU13
  95              	.LBB214:
  96              	.LBI201:
  97              		.loc 2 354 23 view .LVU14
  98              	.LBB211:
ARM GAS  /tmp/ccEV1Zdm.s 			page 3


  99              		.loc 2 356 3 view .LVU15
 100              	.LBB208:
 101              	.LBI203:
 102              		.loc 2 341 25 view .LVU16
 103              	.LBB206:
 104              		.loc 2 343 3 view .LVU17
 105              	.LVL0:
 106              		.loc 2 343 3 is_stmt 0 view .LVU18
 107              	.LBE206:
 108              	.LBE208:
 109              	.LBE211:
 110              	.LBE214:
 111              		.loc 1 297 5 is_stmt 1 view .LVU19
 112              		.loc 2 343 3 view .LVU20
 113              		.loc 1 298 5 view .LVU21
 114              		.loc 2 356 3 view .LVU22
 115              		.loc 2 343 3 view .LVU23
 116              		.loc 1 298 5 is_stmt 0 view .LVU24
 117 0016 FFF7FEFF 		bl	__test_assert
 118              	.LVL1:
 119 001a 08B1     		cbz	r0, .L7
 120              	.L1:
 121              		.loc 1 332 1 view .LVU25
 122 001c BDE8F081 		pop	{r4, r5, r6, r7, r8, pc}
 123              	.LVL2:
 124              	.L7:
 125              		.loc 1 298 78 is_stmt 1 discriminator 2 view .LVU26
 126              		.loc 1 300 3 discriminator 2 view .LVU27
 127              		.loc 1 300 19 discriminator 2 view .LVU28
 128              		.loc 1 304 3 discriminator 2 view .LVU29
 129              		.loc 1 306 10 is_stmt 0 discriminator 2 view .LVU30
 130 0020 04F10108 		add	r8, r4, #1
 131              		.loc 1 304 3 discriminator 2 view .LVU31
 132 0024 0223     		movs	r3, #2
 133              		.loc 1 306 10 discriminator 2 view .LVU32
 134 0026 4046     		mov	r0, r8
 135              		.loc 1 304 3 discriminator 2 view .LVU33
 136 0028 2B60     		str	r3, [r5]
 137              		.loc 1 306 5 is_stmt 1 discriminator 2 view .LVU34
 138              		.loc 1 306 10 is_stmt 0 discriminator 2 view .LVU35
 139 002a FFF7FEFF 		bl	chThdSetPriority
 140              	.LVL3:
 141              		.loc 1 307 5 is_stmt 1 discriminator 2 view .LVU36
 142 002e 001B     		subs	r0, r0, r4
 143              	.LVL4:
 144              		.loc 1 307 5 is_stmt 0 discriminator 2 view .LVU37
 145 0030 B0FA80F0 		clz	r0, r0
 146 0034 2949     		ldr	r1, .L8+12
 147 0036 4009     		lsrs	r0, r0, #5
 148 0038 FFF7FEFF 		bl	__test_assert
 149              	.LVL5:
 150 003c 0028     		cmp	r0, #0
 151 003e EDD1     		bne	.L1
 152              		.loc 1 307 66 is_stmt 1 view .LVU38
 153              		.loc 1 308 5 view .LVU39
 154              	.LBB215:
 155              	.LBI215:
ARM GAS  /tmp/ccEV1Zdm.s 			page 4


 156              		.loc 2 341 25 view .LVU40
 157              	.LBB216:
 158              		.loc 2 343 3 view .LVU41
 159              	.LBE216:
 160              	.LBE215:
 161              		.loc 1 308 5 is_stmt 0 view .LVU42
 162 0040 F368     		ldr	r3, [r6, #12]
 163 0042 2549     		ldr	r1, .L8+8
 164 0044 9868     		ldr	r0, [r3, #8]
 165 0046 C01B     		subs	r0, r0, r7
 166 0048 B0FA80F0 		clz	r0, r0
 167 004c 4009     		lsrs	r0, r0, #5
 168 004e FFF7FEFF 		bl	__test_assert
 169              	.LVL6:
 170 0052 0028     		cmp	r0, #0
 171 0054 E2D1     		bne	.L1
 172              		.loc 1 308 91 is_stmt 1 view .LVU43
 173              		.loc 1 309 5 view .LVU44
 174              	.LBB217:
 175              	.LBI217:
 176              		.loc 2 341 25 view .LVU45
 177              	.LBB218:
 178              		.loc 2 343 3 view .LVU46
 179              	.LBE218:
 180              	.LBE217:
 181              		.loc 1 309 5 is_stmt 0 view .LVU47
 182 0056 F368     		ldr	r3, [r6, #12]
 183 0058 2149     		ldr	r1, .L8+16
 184 005a 186C     		ldr	r0, [r3, #64]
 185 005c A0EB0800 		sub	r0, r0, r8
 186 0060 B0FA80F0 		clz	r0, r0
 187 0064 4009     		lsrs	r0, r0, #5
 188 0066 FFF7FEFF 		bl	__test_assert
 189              	.LVL7:
 190 006a 0028     		cmp	r0, #0
 191 006c D6D1     		bne	.L1
 192              		.loc 1 309 98 is_stmt 1 discriminator 2 view .LVU48
 193              		.loc 1 311 3 discriminator 2 view .LVU49
 194              		.loc 1 311 19 discriminator 2 view .LVU50
 195              		.loc 1 314 3 discriminator 2 view .LVU51
 196 006e 0323     		movs	r3, #3
 197              		.loc 1 316 10 is_stmt 0 discriminator 2 view .LVU52
 198 0070 E718     		adds	r7, r4, r3
 199 0072 3846     		mov	r0, r7
 200              		.loc 1 314 3 discriminator 2 view .LVU53
 201 0074 2B60     		str	r3, [r5]
 202              		.loc 1 316 5 is_stmt 1 discriminator 2 view .LVU54
 203              		.loc 1 316 10 is_stmt 0 discriminator 2 view .LVU55
 204 0076 FFF7FEFF 		bl	chThdSetPriority
 205              	.LVL8:
 206              		.loc 1 317 5 is_stmt 1 discriminator 2 view .LVU56
 207 007a A8EB0000 		sub	r0, r8, r0
 208              	.LVL9:
 209              		.loc 1 317 5 is_stmt 0 discriminator 2 view .LVU57
 210 007e B0FA80F0 		clz	r0, r0
 211 0082 1649     		ldr	r1, .L8+12
 212 0084 4009     		lsrs	r0, r0, #5
ARM GAS  /tmp/ccEV1Zdm.s 			page 5


 213 0086 FFF7FEFF 		bl	__test_assert
 214              	.LVL10:
 215 008a 0028     		cmp	r0, #0
 216 008c C6D1     		bne	.L1
 217              		.loc 1 317 70 is_stmt 1 view .LVU58
 218              		.loc 1 318 5 view .LVU59
 219              	.LBB219:
 220              	.LBI219:
 221              		.loc 2 341 25 view .LVU60
 222              	.LBB220:
 223              		.loc 2 343 3 view .LVU61
 224              	.LBE220:
 225              	.LBE219:
 226              		.loc 1 318 5 is_stmt 0 view .LVU62
 227 008e F368     		ldr	r3, [r6, #12]
 228 0090 1149     		ldr	r1, .L8+8
 229 0092 9868     		ldr	r0, [r3, #8]
 230 0094 C01B     		subs	r0, r0, r7
 231 0096 B0FA80F0 		clz	r0, r0
 232 009a 4009     		lsrs	r0, r0, #5
 233 009c FFF7FEFF 		bl	__test_assert
 234              	.LVL11:
 235 00a0 0028     		cmp	r0, #0
 236 00a2 BBD1     		bne	.L1
 237              		.loc 1 318 91 is_stmt 1 view .LVU63
 238              		.loc 1 319 5 view .LVU64
 239              	.LBB221:
 240              	.LBI221:
 241              		.loc 2 341 25 view .LVU65
 242              	.LBB222:
 243              		.loc 2 343 3 view .LVU66
 244              	.LBE222:
 245              	.LBE221:
 246              		.loc 1 319 5 is_stmt 0 view .LVU67
 247 00a4 F368     		ldr	r3, [r6, #12]
 248 00a6 0F49     		ldr	r1, .L8+20
 249 00a8 186C     		ldr	r0, [r3, #64]
 250 00aa C01B     		subs	r0, r0, r7
 251 00ac B0FA80F0 		clz	r0, r0
 252 00b0 4009     		lsrs	r0, r0, #5
 253 00b2 FFF7FEFF 		bl	__test_assert
 254              	.LVL12:
 255 00b6 0028     		cmp	r0, #0
 256 00b8 B0D1     		bne	.L1
 257              		.loc 1 319 89 is_stmt 1 discriminator 2 view .LVU68
 258              		.loc 1 321 3 discriminator 2 view .LVU69
 259              		.loc 1 321 19 discriminator 2 view .LVU70
 260              		.loc 1 324 3 discriminator 2 view .LVU71
 261 00ba 0423     		movs	r3, #4
 262 00bc 2B60     		str	r3, [r5]
 263              		.loc 1 326 5 discriminator 2 view .LVU72
 264              	.LBB223:
 265              	.LBI223:
 266              		.file 3 "../ChibiOS/os/rt/include/chsys.h"
 267              		.loc 3 407 20 discriminator 2 view .LVU73
 268              	.LBE223:
 269              		.loc 3 409 3 discriminator 2 view .LVU74
ARM GAS  /tmp/ccEV1Zdm.s 			page 6


 270              	.LBB228:
 271              	.LBB224:
 272              	.LBI224:
 273              		.file 4 "../ChibiOS/os/common/ports/ARMv7-M/chcore.h"
 274              		.loc 4 806 27 discriminator 2 view .LVU75
 275              	.LBE224:
 276              	.LBE228:
 277              		.loc 4 814 3 discriminator 2 view .LVU76
 278              	.LVL13:
 279              	.LBB229:
 280              	.LBB227:
 281              	.LBB225:
 282              	.LBI225:
 283              		.file 5 "../ChibiOS/os/common/ext/ARM/CMSIS/Core/Include/cmsis_gcc.h"
 284              		.loc 5 491 27 discriminator 2 view .LVU77
 285              	.LBB226:
 286              		.loc 5 493 3 discriminator 2 view .LVU78
 287 00be 3023     		movs	r3, #48
 288              		.syntax unified
 289              	@ 493 "../ChibiOS/os/common/ext/ARM/CMSIS/Core/Include/cmsis_gcc.h" 1
 290 00c0 83F31188 		MSR basepri, r3
 291              	@ 0 "" 2
 292              	.LVL14:
 293              		.loc 5 493 3 is_stmt 0 discriminator 2 view .LVU79
 294              		.thumb
 295              		.syntax unified
 296              	.LBE226:
 297              	.LBE225:
 298              	.LBE227:
 299              	.LBE229:
 300              		.loc 3 410 35 is_stmt 1 discriminator 2 view .LVU80
 301              		.loc 3 411 21 discriminator 2 view .LVU81
 302              		.loc 1 327 5 discriminator 2 view .LVU82
 303              	.LBB230:
 304              	.LBI230:
 305              		.loc 2 341 25 discriminator 2 view .LVU83
 306              	.LBB231:
 307              		.loc 2 343 3 discriminator 2 view .LVU84
 308              		.loc 2 343 10 is_stmt 0 discriminator 2 view .LVU85
 309 00c4 F368     		ldr	r3, [r6, #12]
 310              	.LBE231:
 311              	.LBE230:
 312              		.loc 1 327 38 discriminator 2 view .LVU86
 313 00c6 9C60     		str	r4, [r3, #8]
 314              		.loc 1 328 5 is_stmt 1 discriminator 2 view .LVU87
 315              		.loc 2 343 3 discriminator 2 view .LVU88
 316              		.loc 1 328 31 is_stmt 0 discriminator 2 view .LVU89
 317 00c8 1C64     		str	r4, [r3, #64]
 318              		.loc 1 329 5 is_stmt 1 discriminator 2 view .LVU90
 319              	.LBB232:
 320              	.LBI232:
 321              		.loc 3 421 20 discriminator 2 view .LVU91
 322              	.LBB233:
 323              		.loc 3 423 23 discriminator 2 view .LVU92
 324              		.loc 3 424 34 discriminator 2 view .LVU93
 325              		.loc 3 430 3 discriminator 2 view .LVU94
 326              		.loc 3 430 3 discriminator 2 view .LVU95
ARM GAS  /tmp/ccEV1Zdm.s 			page 7


 327              		.loc 3 430 3 discriminator 2 view .LVU96
 328              		.loc 3 434 3 discriminator 2 view .LVU97
 329              	.LBB234:
 330              	.LBI234:
 331              		.loc 4 830 27 discriminator 2 view .LVU98
 332              	.LBE234:
 333              	.LBE233:
 334              	.LBE232:
 335              		.loc 4 833 3 discriminator 2 view .LVU99
 336              	.LVL15:
 337              	.LBB240:
 338              	.LBB238:
 339              	.LBB237:
 340              	.LBB235:
 341              	.LBI235:
 342              		.loc 5 491 27 discriminator 2 view .LVU100
 343              	.LBB236:
 344              		.loc 5 493 3 discriminator 2 view .LVU101
 345              		.syntax unified
 346              	@ 493 "../ChibiOS/os/common/ext/ARM/CMSIS/Core/Include/cmsis_gcc.h" 1
 347 00ca 80F31188 		MSR basepri, r0
 348              	@ 0 "" 2
 349              	.LVL16:
 350              		.loc 5 493 3 is_stmt 0 discriminator 2 view .LVU102
 351              		.thumb
 352              		.syntax unified
 353              	.LBE236:
 354              	.LBE235:
 355              	.LBE237:
 356              	.LBE238:
 357              	.LBE240:
 358              		.loc 1 331 3 is_stmt 1 discriminator 2 view .LVU103
 359              		.loc 1 331 19 discriminator 2 view .LVU104
 360              	.LBB241:
 361              	.LBB239:
 362              		.loc 3 435 1 is_stmt 0 discriminator 2 view .LVU105
 363 00ce A5E7     		b	.L1
 364              	.L9:
 365              		.align	2
 366              	.L8:
 367 00d0 00000000 		.word	ch0
 368 00d4 00000000 		.word	chtest
 369 00d8 00000000 		.word	.LC0
 370 00dc 1C000000 		.word	.LC1
 371 00e0 40000000 		.word	.LC2
 372 00e4 68000000 		.word	.LC3
 373              	.LBE239:
 374              	.LBE241:
 375              		.cfi_endproc
 376              	.LFE408:
 377              		.size	rt_test_005_004_execute, .-rt_test_005_004_execute
 378              		.section	.text.rt_test_005_003_execute,"ax",%progbits
 379              		.align	1
 380              		.p2align 4,,15
 381              		.syntax unified
 382              		.thumb
 383              		.thumb_func
ARM GAS  /tmp/ccEV1Zdm.s 			page 8


 384              		.fpu softvfp
 385              		.type	rt_test_005_003_execute, %function
 386              	rt_test_005_003_execute:
 387              	.LFB407:
 388              		.loc 1 235 43 is_stmt 1 view -0
 389              		.cfi_startproc
 390              		@ args = 0, pretend = 0, frame = 0
 391              		@ frame_needed = 0, uses_anonymous_args = 0
 392              		.loc 1 236 3 view .LVU107
 393              		.loc 1 240 3 view .LVU108
 394              		.loc 1 235 43 is_stmt 0 view .LVU109
 395 0000 2DE9F041 		push	{r4, r5, r6, r7, r8, lr}
 396              		.cfi_def_cfa_offset 24
 397              		.cfi_offset 4, -24
 398              		.cfi_offset 5, -20
 399              		.cfi_offset 6, -16
 400              		.cfi_offset 7, -12
 401              		.cfi_offset 8, -8
 402              		.cfi_offset 14, -4
 403              	.LBB242:
 404              	.LBB243:
 405              	.LBB244:
 406              	.LBB245:
 407              		.loc 2 343 10 view .LVU110
 408 0004 1D4F     		ldr	r7, .L16
 409              	.LBE245:
 410              	.LBE244:
 411              	.LBE243:
 412              	.LBE242:
 413              		.loc 1 240 3 view .LVU111
 414 0006 DFF87880 		ldr	r8, .L16+4
 415              	.LBB250:
 416              	.LBB248:
 417              		.loc 2 356 37 view .LVU112
 418 000a FA68     		ldr	r2, [r7, #12]
 419 000c 9668     		ldr	r6, [r2, #8]
 420              	.LBE248:
 421              	.LBE250:
 422              		.loc 1 240 3 view .LVU113
 423 000e 0123     		movs	r3, #1
 424              		.loc 1 243 10 view .LVU114
 425 0010 F518     		adds	r5, r6, r3
 426 0012 2846     		mov	r0, r5
 427              		.loc 1 240 3 view .LVU115
 428 0014 C8F80030 		str	r3, [r8]
 429              		.loc 1 242 5 is_stmt 1 view .LVU116
 430              	.LBB251:
 431              	.LBI242:
 432              		.loc 2 354 23 view .LVU117
 433              	.LBB249:
 434              		.loc 2 356 3 view .LVU118
 435              	.LBB247:
 436              	.LBI244:
 437              		.loc 2 341 25 view .LVU119
 438              	.LBB246:
 439              		.loc 2 343 3 view .LVU120
 440              	.LVL17:
ARM GAS  /tmp/ccEV1Zdm.s 			page 9


 441              		.loc 2 343 3 is_stmt 0 view .LVU121
 442              	.LBE246:
 443              	.LBE247:
 444              	.LBE249:
 445              	.LBE251:
 446              		.loc 1 243 5 is_stmt 1 view .LVU122
 447              		.loc 1 243 10 is_stmt 0 view .LVU123
 448 0018 FFF7FEFF 		bl	chThdSetPriority
 449              	.LVL18:
 450 001c 0446     		mov	r4, r0
 451              	.LVL19:
 452              		.loc 1 244 5 is_stmt 1 view .LVU124
 453 001e 801B     		subs	r0, r0, r6
 454              	.LVL20:
 455              		.loc 1 244 5 is_stmt 0 view .LVU125
 456 0020 B0FA80F0 		clz	r0, r0
 457 0024 1749     		ldr	r1, .L16+8
 458 0026 4009     		lsrs	r0, r0, #5
 459 0028 FFF7FEFF 		bl	__test_assert
 460              	.LVL21:
 461 002c 08B1     		cbz	r0, .L15
 462              	.LVL22:
 463              	.L10:
 464              		.loc 1 258 1 view .LVU126
 465 002e BDE8F081 		pop	{r4, r5, r6, r7, r8, pc}
 466              	.LVL23:
 467              	.L15:
 468              		.loc 1 244 66 is_stmt 1 view .LVU127
 469              		.loc 1 245 5 view .LVU128
 470              	.LBB252:
 471              	.LBI252:
 472              		.loc 2 354 23 view .LVU129
 473              	.LBB253:
 474              		.loc 2 356 3 view .LVU130
 475              	.LBB254:
 476              	.LBI254:
 477              		.loc 2 341 25 view .LVU131
 478              	.LBB255:
 479              		.loc 2 343 3 view .LVU132
 480              	.LBE255:
 481              	.LBE254:
 482              		.loc 2 356 37 is_stmt 0 view .LVU133
 483 0032 FB68     		ldr	r3, [r7, #12]
 484              	.LBE253:
 485              	.LBE252:
 486              		.loc 1 245 5 view .LVU134
 487 0034 1449     		ldr	r1, .L16+12
 488 0036 9868     		ldr	r0, [r3, #8]
 489 0038 401B     		subs	r0, r0, r5
 490 003a B0FA80F0 		clz	r0, r0
 491 003e 4009     		lsrs	r0, r0, #5
 492 0040 FFF7FEFF 		bl	__test_assert
 493              	.LVL24:
 494 0044 0028     		cmp	r0, #0
 495 0046 F2D1     		bne	.L10
 496              		.loc 1 245 78 is_stmt 1 discriminator 2 view .LVU135
 497              		.loc 1 247 3 discriminator 2 view .LVU136
ARM GAS  /tmp/ccEV1Zdm.s 			page 10


 498              		.loc 1 247 19 discriminator 2 view .LVU137
 499              		.loc 1 251 3 discriminator 2 view .LVU138
 500 0048 0223     		movs	r3, #2
 501              		.loc 1 253 10 is_stmt 0 discriminator 2 view .LVU139
 502 004a 2046     		mov	r0, r4
 503              		.loc 1 251 3 discriminator 2 view .LVU140
 504 004c C8F80030 		str	r3, [r8]
 505              		.loc 1 253 5 is_stmt 1 discriminator 2 view .LVU141
 506              		.loc 1 253 10 is_stmt 0 discriminator 2 view .LVU142
 507 0050 FFF7FEFF 		bl	chThdSetPriority
 508              	.LVL25:
 509              		.loc 1 254 5 is_stmt 1 discriminator 2 view .LVU143
 510 0054 281A     		subs	r0, r5, r0
 511              	.LVL26:
 512              		.loc 1 254 5 is_stmt 0 discriminator 2 view .LVU144
 513 0056 B0FA80F0 		clz	r0, r0
 514 005a 0A49     		ldr	r1, .L16+8
 515 005c 4009     		lsrs	r0, r0, #5
 516 005e FFF7FEFF 		bl	__test_assert
 517              	.LVL27:
 518 0062 0028     		cmp	r0, #0
 519 0064 E3D1     		bne	.L10
 520              		.loc 1 254 70 is_stmt 1 view .LVU145
 521              		.loc 1 255 5 view .LVU146
 522              	.LBB256:
 523              	.LBI256:
 524              		.loc 2 354 23 view .LVU147
 525              	.LBB257:
 526              		.loc 2 356 3 view .LVU148
 527              	.LBB258:
 528              	.LBI258:
 529              		.loc 2 341 25 view .LVU149
 530              	.LBB259:
 531              		.loc 2 343 3 view .LVU150
 532              	.LBE259:
 533              	.LBE258:
 534              		.loc 2 356 37 is_stmt 0 view .LVU151
 535 0066 FB68     		ldr	r3, [r7, #12]
 536              	.LBE257:
 537              	.LBE256:
 538              		.loc 1 255 5 view .LVU152
 539 0068 0749     		ldr	r1, .L16+12
 540 006a 9868     		ldr	r0, [r3, #8]
 541 006c 801B     		subs	r0, r0, r6
 542 006e B0FA80F0 		clz	r0, r0
 543              		.loc 1 258 1 view .LVU153
 544 0072 BDE8F041 		pop	{r4, r5, r6, r7, r8, lr}
 545              		.cfi_restore 14
 546              		.cfi_restore 8
 547              		.cfi_restore 7
 548              		.cfi_restore 6
 549              		.cfi_restore 5
 550              		.cfi_restore 4
 551              		.cfi_def_cfa_offset 0
 552              	.LVL28:
 553              		.loc 1 255 5 view .LVU154
 554 0076 4009     		lsrs	r0, r0, #5
ARM GAS  /tmp/ccEV1Zdm.s 			page 11


 555 0078 FFF7FEBF 		b	__test_assert
 556              	.LVL29:
 557              	.L17:
 558              		.align	2
 559              	.L16:
 560 007c 00000000 		.word	ch0
 561 0080 00000000 		.word	chtest
 562 0084 1C000000 		.word	.LC1
 563 0088 00000000 		.word	.LC0
 564              		.cfi_endproc
 565              	.LFE407:
 566              		.size	rt_test_005_003_execute, .-rt_test_005_003_execute
 567              		.section	.rodata.rt_test_005_002_execute.str1.4,"aMS",%progbits,1
 568              		.align	2
 569              	.LC4:
 570 0000 4500     		.ascii	"E\000"
 571 0002 0000     		.align	2
 572              	.LC5:
 573 0004 4400     		.ascii	"D\000"
 574 0006 0000     		.align	2
 575              	.LC6:
 576 0008 4300     		.ascii	"C\000"
 577 000a 0000     		.align	2
 578              	.LC7:
 579 000c 4200     		.ascii	"B\000"
 580 000e 0000     		.align	2
 581              	.LC8:
 582 0010 4100     		.ascii	"A\000"
 583 0012 0000     		.align	2
 584              	.LC9:
 585 0014 696E7661 		.ascii	"invalid sequence\000"
 585      6C696420 
 585      73657175 
 585      656E6365 
 585      00
 586 0025 000000   		.align	2
 587              	.LC10:
 588 0028 41424344 		.ascii	"ABCDE\000"
 588      4500
 589              		.section	.text.rt_test_005_002_execute,"ax",%progbits
 590              		.align	1
 591              		.p2align 4,,15
 592              		.syntax unified
 593              		.thumb
 594              		.thumb_func
 595              		.fpu softvfp
 596              		.type	rt_test_005_002_execute, %function
 597              	rt_test_005_002_execute:
 598              	.LFB406:
 599              		.loc 1 168 43 is_stmt 1 view -0
 600              		.cfi_startproc
 601              		@ args = 0, pretend = 0, frame = 24
 602              		@ frame_needed = 0, uses_anonymous_args = 0
 603              		.loc 1 172 3 view .LVU156
 604              		.loc 1 168 43 is_stmt 0 view .LVU157
 605 0000 2DE9F04F 		push	{r4, r5, r6, r7, r8, r9, r10, fp, lr}
 606              		.cfi_def_cfa_offset 36
ARM GAS  /tmp/ccEV1Zdm.s 			page 12


 607              		.cfi_offset 4, -36
 608              		.cfi_offset 5, -32
 609              		.cfi_offset 6, -28
 610              		.cfi_offset 7, -24
 611              		.cfi_offset 8, -20
 612              		.cfi_offset 9, -16
 613              		.cfi_offset 10, -12
 614              		.cfi_offset 11, -8
 615              		.cfi_offset 14, -4
 616              	.LBB260:
 617              	.LBB261:
 618              	.LBB262:
 619              	.LBB263:
 620              		.loc 2 343 10 view .LVU158
 621 0004 784D     		ldr	r5, .L24
 622              	.LBE263:
 623              	.LBE262:
 624              	.LBE261:
 625              	.LBE260:
 626              		.loc 1 174 18 view .LVU159
 627 0006 794F     		ldr	r7, .L24+4
 628              	.LBB268:
 629              	.LBB266:
 630              		.loc 2 356 37 view .LVU160
 631 0008 EB68     		ldr	r3, [r5, #12]
 632              	.LBE266:
 633              	.LBE268:
 634              		.loc 1 174 18 view .LVU161
 635 000a 3C68     		ldr	r4, [r7]
 636 000c 9A68     		ldr	r2, [r3, #8]
 637              		.loc 1 172 3 view .LVU162
 638 000e DFF8E0A1 		ldr	r10, .L24+8
 639              		.loc 1 174 18 view .LVU163
 640 0012 DFF8E091 		ldr	r9, .L24+12
 641 0016 784B     		ldr	r3, .L24+16
 642              		.loc 1 175 18 view .LVU164
 643 0018 DFF8E0B1 		ldr	fp, .L24+20
 644              		.loc 1 176 18 view .LVU165
 645 001c DFF8E081 		ldr	r8, .L24+24
 646              		.loc 1 168 43 view .LVU166
 647 0020 89B0     		sub	sp, sp, #36
 648              		.cfi_def_cfa_offset 72
 649              		.loc 1 172 3 view .LVU167
 650 0022 0120     		movs	r0, #1
 651              		.loc 1 174 18 view .LVU168
 652 0024 053A     		subs	r2, r2, #5
 653 0026 4FF4B871 		mov	r1, #368
 654              		.loc 1 172 3 view .LVU169
 655 002a CAF80000 		str	r0, [r10]
 656              		.loc 1 174 5 is_stmt 1 view .LVU170
 657              	.LBB269:
 658              	.LBI260:
 659              		.loc 2 354 23 view .LVU171
 660              	.LBB267:
 661              		.loc 2 356 3 view .LVU172
 662              	.LBB265:
 663              	.LBI262:
ARM GAS  /tmp/ccEV1Zdm.s 			page 13


 664              		.loc 2 341 25 view .LVU173
 665              	.LBB264:
 666              		.loc 2 343 3 view .LVU174
 667              	.LBE264:
 668              	.LBE265:
 669              	.LBE267:
 670              	.LBE269:
 671              		.loc 1 174 18 is_stmt 0 view .LVU175
 672 002e CDF80090 		str	r9, [sp]
 673 0032 2046     		mov	r0, r4
 674 0034 0394     		str	r4, [sp, #12]
 675 0036 FFF7FEFF 		bl	chThdCreateStatic
 676              	.LVL30:
 677              	.LBB270:
 678              	.LBB271:
 679              		.loc 2 356 37 view .LVU176
 680 003a EB68     		ldr	r3, [r5, #12]
 681              	.LBE271:
 682              	.LBE270:
 683              		.loc 1 175 18 view .LVU177
 684 003c 7E68     		ldr	r6, [r7, #4]
 685              		.loc 1 174 16 view .LVU178
 686 003e 714C     		ldr	r4, .L24+28
 687              		.loc 1 175 18 view .LVU179
 688 0040 9A68     		ldr	r2, [r3, #8]
 689              		.loc 1 174 16 view .LVU180
 690 0042 2060     		str	r0, [r4]
 691              		.loc 1 175 5 is_stmt 1 view .LVU181
 692              	.LBB275:
 693              	.LBI270:
 694              		.loc 2 354 23 view .LVU182
 695              	.LBB274:
 696              		.loc 2 356 3 view .LVU183
 697              	.LBB272:
 698              	.LBI272:
 699              		.loc 2 341 25 view .LVU184
 700              	.LBB273:
 701              		.loc 2 343 3 view .LVU185
 702              	.LBE273:
 703              	.LBE272:
 704              	.LBE274:
 705              	.LBE275:
 706              		.loc 1 175 18 is_stmt 0 view .LVU186
 707 0044 6C4B     		ldr	r3, .L24+16
 708 0046 CDF800B0 		str	fp, [sp]
 709 004a 043A     		subs	r2, r2, #4
 710 004c 4FF4B871 		mov	r1, #368
 711 0050 3046     		mov	r0, r6
 712 0052 0496     		str	r6, [sp, #16]
 713 0054 FFF7FEFF 		bl	chThdCreateStatic
 714              	.LVL31:
 715              	.LBB276:
 716              	.LBB277:
 717              		.loc 2 356 37 view .LVU187
 718 0058 EB68     		ldr	r3, [r5, #12]
 719              	.LBE277:
 720              	.LBE276:
ARM GAS  /tmp/ccEV1Zdm.s 			page 14


 721              		.loc 1 175 16 view .LVU188
 722 005a 6060     		str	r0, [r4, #4]
 723              		.loc 1 176 5 is_stmt 1 view .LVU189
 724              	.LBB281:
 725              	.LBI276:
 726              		.loc 2 354 23 view .LVU190
 727              	.LBB280:
 728              		.loc 2 356 3 view .LVU191
 729              	.LBB278:
 730              	.LBI278:
 731              		.loc 2 341 25 view .LVU192
 732              	.LBB279:
 733              		.loc 2 343 3 view .LVU193
 734              	.LBE279:
 735              	.LBE278:
 736              	.LBE280:
 737              	.LBE281:
 738              		.loc 1 176 18 is_stmt 0 view .LVU194
 739 005c 9A68     		ldr	r2, [r3, #8]
 740 005e BB68     		ldr	r3, [r7, #8]
 741 0060 CDF80080 		str	r8, [sp]
 742 0064 9C46     		mov	ip, r3
 743 0066 6046     		mov	r0, ip
 744 0068 634B     		ldr	r3, .L24+16
 745 006a CDF814C0 		str	ip, [sp, #20]
 746 006e 033A     		subs	r2, r2, #3
 747 0070 4FF4B871 		mov	r1, #368
 748 0074 FFF7FEFF 		bl	chThdCreateStatic
 749              	.LVL32:
 750              	.LBB282:
 751              	.LBB283:
 752              		.loc 2 356 37 view .LVU195
 753 0078 EB68     		ldr	r3, [r5, #12]
 754              	.LBE283:
 755              	.LBE282:
 756              		.loc 1 177 18 view .LVU196
 757 007a 634E     		ldr	r6, .L24+32
 758 007c 9A68     		ldr	r2, [r3, #8]
 759 007e FB68     		ldr	r3, [r7, #12]
 760              		.loc 1 176 16 view .LVU197
 761 0080 A060     		str	r0, [r4, #8]
 762              		.loc 1 177 5 is_stmt 1 view .LVU198
 763              	.LBB287:
 764              	.LBI282:
 765              		.loc 2 354 23 view .LVU199
 766              	.LBB286:
 767              		.loc 2 356 3 view .LVU200
 768              	.LBB284:
 769              	.LBI284:
 770              		.loc 2 341 25 view .LVU201
 771              	.LBB285:
 772              		.loc 2 343 3 view .LVU202
 773              	.LBE285:
 774              	.LBE284:
 775              	.LBE286:
 776              	.LBE287:
 777              		.loc 1 177 18 is_stmt 0 view .LVU203
ARM GAS  /tmp/ccEV1Zdm.s 			page 15


 778 0082 9E46     		mov	lr, r3
 779 0084 7046     		mov	r0, lr
 780 0086 5C4B     		ldr	r3, .L24+16
 781 0088 0096     		str	r6, [sp]
 782 008a 023A     		subs	r2, r2, #2
 783 008c 4FF4B871 		mov	r1, #368
 784 0090 CDF818E0 		str	lr, [sp, #24]
 785 0094 FFF7FEFF 		bl	chThdCreateStatic
 786              	.LVL33:
 787              		.loc 1 178 18 view .LVU204
 788 0098 3B69     		ldr	r3, [r7, #16]
 789 009a 5C4F     		ldr	r7, .L24+36
 790              		.loc 1 177 16 view .LVU205
 791 009c E060     		str	r0, [r4, #12]
 792              		.loc 1 178 5 is_stmt 1 view .LVU206
 793              	.LBB288:
 794              	.LBI288:
 795              		.loc 2 354 23 view .LVU207
 796              	.LBB289:
 797              		.loc 2 356 3 view .LVU208
 798              	.LBB290:
 799              	.LBI290:
 800              		.loc 2 341 25 view .LVU209
 801              	.LBB291:
 802              		.loc 2 343 3 view .LVU210
 803              	.LBE291:
 804              	.LBE290:
 805              	.LBE289:
 806              	.LBE288:
 807              		.loc 1 178 18 is_stmt 0 view .LVU211
 808 009e 9C46     		mov	ip, r3
 809              	.LBB293:
 810              	.LBB292:
 811              		.loc 2 356 37 view .LVU212
 812 00a0 EB68     		ldr	r3, [r5, #12]
 813              	.LBE292:
 814              	.LBE293:
 815              		.loc 1 178 18 view .LVU213
 816 00a2 CDF81CC0 		str	ip, [sp, #28]
 817 00a6 9A68     		ldr	r2, [r3, #8]
 818 00a8 534B     		ldr	r3, .L24+16
 819 00aa 0097     		str	r7, [sp]
 820 00ac 4FF4B871 		mov	r1, #368
 821 00b0 013A     		subs	r2, r2, #1
 822 00b2 6046     		mov	r0, ip
 823 00b4 FFF7FEFF 		bl	chThdCreateStatic
 824              	.LVL34:
 825              		.loc 1 178 16 view .LVU214
 826 00b8 2061     		str	r0, [r4, #16]
 827              		.loc 1 179 5 is_stmt 1 view .LVU215
 828 00ba FFF7FEFF 		bl	test_wait_threads
 829              	.LVL35:
 830              		.loc 1 180 5 view .LVU216
 831 00be 5449     		ldr	r1, .L24+40
 832 00c0 5448     		ldr	r0, .L24+44
 833 00c2 FFF7FEFF 		bl	__test_assert_sequence
 834              	.LVL36:
ARM GAS  /tmp/ccEV1Zdm.s 			page 16


 835 00c6 10B1     		cbz	r0, .L23
 836              	.L18:
 837              		.loc 1 211 1 is_stmt 0 view .LVU217
 838 00c8 09B0     		add	sp, sp, #36
 839              		.cfi_remember_state
 840              		.cfi_def_cfa_offset 36
 841              		@ sp needed
 842 00ca BDE8F08F 		pop	{r4, r5, r6, r7, r8, r9, r10, fp, pc}
 843              	.L23:
 844              		.cfi_restore_state
 845              		.loc 1 180 54 is_stmt 1 discriminator 2 view .LVU218
 846              		.loc 1 182 3 discriminator 2 view .LVU219
 847              		.loc 1 182 19 discriminator 2 view .LVU220
 848              		.loc 1 186 3 discriminator 2 view .LVU221
 849              	.LBB294:
 850              	.LBB295:
 851              		.loc 2 356 37 is_stmt 0 discriminator 2 view .LVU222
 852 00ce EB68     		ldr	r3, [r5, #12]
 853              	.LBE295:
 854              	.LBE294:
 855              		.loc 1 188 18 discriminator 2 view .LVU223
 856 00d0 9A68     		ldr	r2, [r3, #8]
 857 00d2 494B     		ldr	r3, .L24+16
 858 00d4 0097     		str	r7, [sp]
 859              		.loc 1 186 3 discriminator 2 view .LVU224
 860 00d6 0220     		movs	r0, #2
 861              		.loc 1 188 18 discriminator 2 view .LVU225
 862 00d8 013A     		subs	r2, r2, #1
 863 00da 4FF4B871 		mov	r1, #368
 864              		.loc 1 186 3 discriminator 2 view .LVU226
 865 00de CAF80000 		str	r0, [r10]
 866              		.loc 1 188 5 is_stmt 1 discriminator 2 view .LVU227
 867              	.LBB299:
 868              	.LBI294:
 869              		.loc 2 354 23 discriminator 2 view .LVU228
 870              	.LBB298:
 871              		.loc 2 356 3 discriminator 2 view .LVU229
 872              	.LBB296:
 873              	.LBI296:
 874              		.loc 2 341 25 discriminator 2 view .LVU230
 875              	.LBB297:
 876              		.loc 2 343 3 discriminator 2 view .LVU231
 877              	.LBE297:
 878              	.LBE296:
 879              	.LBE298:
 880              	.LBE299:
 881              		.loc 1 188 18 is_stmt 0 discriminator 2 view .LVU232
 882 00e2 0798     		ldr	r0, [sp, #28]
 883 00e4 FFF7FEFF 		bl	chThdCreateStatic
 884              	.LVL37:
 885              	.LBB300:
 886              	.LBB301:
 887              		.loc 2 356 37 discriminator 2 view .LVU233
 888 00e8 EB68     		ldr	r3, [r5, #12]
 889              	.LBE301:
 890              	.LBE300:
 891              		.loc 1 188 16 discriminator 2 view .LVU234
ARM GAS  /tmp/ccEV1Zdm.s 			page 17


 892 00ea 2061     		str	r0, [r4, #16]
 893              		.loc 1 189 5 is_stmt 1 discriminator 2 view .LVU235
 894              	.LBB305:
 895              	.LBI300:
 896              		.loc 2 354 23 discriminator 2 view .LVU236
 897              	.LBB304:
 898              		.loc 2 356 3 discriminator 2 view .LVU237
 899              	.LBB302:
 900              	.LBI302:
 901              		.loc 2 341 25 discriminator 2 view .LVU238
 902              	.LBB303:
 903              		.loc 2 343 3 discriminator 2 view .LVU239
 904              	.LBE303:
 905              	.LBE302:
 906              	.LBE304:
 907              	.LBE305:
 908              		.loc 1 189 18 is_stmt 0 discriminator 2 view .LVU240
 909 00ec 9A68     		ldr	r2, [r3, #8]
 910 00ee 0698     		ldr	r0, [sp, #24]
 911 00f0 414B     		ldr	r3, .L24+16
 912 00f2 0096     		str	r6, [sp]
 913 00f4 023A     		subs	r2, r2, #2
 914 00f6 4FF4B871 		mov	r1, #368
 915 00fa FFF7FEFF 		bl	chThdCreateStatic
 916              	.LVL38:
 917              	.LBB306:
 918              	.LBB307:
 919              		.loc 2 356 37 discriminator 2 view .LVU241
 920 00fe EB68     		ldr	r3, [r5, #12]
 921              	.LBE307:
 922              	.LBE306:
 923              		.loc 1 189 16 discriminator 2 view .LVU242
 924 0100 E060     		str	r0, [r4, #12]
 925              		.loc 1 190 5 is_stmt 1 discriminator 2 view .LVU243
 926              	.LBB311:
 927              	.LBI306:
 928              		.loc 2 354 23 discriminator 2 view .LVU244
 929              	.LBB310:
 930              		.loc 2 356 3 discriminator 2 view .LVU245
 931              	.LBB308:
 932              	.LBI308:
 933              		.loc 2 341 25 discriminator 2 view .LVU246
 934              	.LBB309:
 935              		.loc 2 343 3 discriminator 2 view .LVU247
 936              	.LBE309:
 937              	.LBE308:
 938              	.LBE310:
 939              	.LBE311:
 940              		.loc 1 190 18 is_stmt 0 discriminator 2 view .LVU248
 941 0102 9A68     		ldr	r2, [r3, #8]
 942 0104 0598     		ldr	r0, [sp, #20]
 943 0106 3C4B     		ldr	r3, .L24+16
 944 0108 CDF80080 		str	r8, [sp]
 945 010c 033A     		subs	r2, r2, #3
 946 010e 4FF4B871 		mov	r1, #368
 947 0112 FFF7FEFF 		bl	chThdCreateStatic
 948              	.LVL39:
ARM GAS  /tmp/ccEV1Zdm.s 			page 18


 949              	.LBB312:
 950              	.LBB313:
 951              		.loc 2 356 37 discriminator 2 view .LVU249
 952 0116 EB68     		ldr	r3, [r5, #12]
 953              	.LBE313:
 954              	.LBE312:
 955              		.loc 1 190 16 discriminator 2 view .LVU250
 956 0118 A060     		str	r0, [r4, #8]
 957              		.loc 1 191 5 is_stmt 1 discriminator 2 view .LVU251
 958              	.LBB317:
 959              	.LBI312:
 960              		.loc 2 354 23 discriminator 2 view .LVU252
 961              	.LBB316:
 962              		.loc 2 356 3 discriminator 2 view .LVU253
 963              	.LBB314:
 964              	.LBI314:
 965              		.loc 2 341 25 discriminator 2 view .LVU254
 966              	.LBB315:
 967              		.loc 2 343 3 discriminator 2 view .LVU255
 968              	.LBE315:
 969              	.LBE314:
 970              	.LBE316:
 971              	.LBE317:
 972              		.loc 1 191 18 is_stmt 0 discriminator 2 view .LVU256
 973 011a 9A68     		ldr	r2, [r3, #8]
 974 011c 0498     		ldr	r0, [sp, #16]
 975 011e 364B     		ldr	r3, .L24+16
 976 0120 CDF800B0 		str	fp, [sp]
 977 0124 043A     		subs	r2, r2, #4
 978 0126 4FF4B871 		mov	r1, #368
 979 012a FFF7FEFF 		bl	chThdCreateStatic
 980              	.LVL40:
 981              	.LBB318:
 982              	.LBB319:
 983              		.loc 2 356 37 discriminator 2 view .LVU257
 984 012e EB68     		ldr	r3, [r5, #12]
 985              	.LBE319:
 986              	.LBE318:
 987              		.loc 1 191 16 discriminator 2 view .LVU258
 988 0130 6060     		str	r0, [r4, #4]
 989              		.loc 1 192 5 is_stmt 1 discriminator 2 view .LVU259
 990              	.LBB323:
 991              	.LBI318:
 992              		.loc 2 354 23 discriminator 2 view .LVU260
 993              	.LBB322:
 994              		.loc 2 356 3 discriminator 2 view .LVU261
 995              	.LBB320:
 996              	.LBI320:
 997              		.loc 2 341 25 discriminator 2 view .LVU262
 998              	.LBB321:
 999              		.loc 2 343 3 discriminator 2 view .LVU263
 1000              	.LBE321:
 1001              	.LBE320:
 1002              	.LBE322:
 1003              	.LBE323:
 1004              		.loc 1 192 18 is_stmt 0 discriminator 2 view .LVU264
 1005 0132 9A68     		ldr	r2, [r3, #8]
ARM GAS  /tmp/ccEV1Zdm.s 			page 19


 1006 0134 0398     		ldr	r0, [sp, #12]
 1007 0136 304B     		ldr	r3, .L24+16
 1008 0138 CDF80090 		str	r9, [sp]
 1009 013c 4FF4B871 		mov	r1, #368
 1010 0140 053A     		subs	r2, r2, #5
 1011 0142 FFF7FEFF 		bl	chThdCreateStatic
 1012              	.LVL41:
 1013              		.loc 1 192 16 discriminator 2 view .LVU265
 1014 0146 2060     		str	r0, [r4]
 1015              		.loc 1 193 5 is_stmt 1 discriminator 2 view .LVU266
 1016 0148 FFF7FEFF 		bl	test_wait_threads
 1017              	.LVL42:
 1018              		.loc 1 194 5 discriminator 2 view .LVU267
 1019 014c 3049     		ldr	r1, .L24+40
 1020 014e 3148     		ldr	r0, .L24+44
 1021 0150 FFF7FEFF 		bl	__test_assert_sequence
 1022              	.LVL43:
 1023 0154 0028     		cmp	r0, #0
 1024 0156 B7D1     		bne	.L18
 1025              		.loc 1 194 54 discriminator 2 view .LVU268
 1026              		.loc 1 196 3 discriminator 2 view .LVU269
 1027              		.loc 1 196 19 discriminator 2 view .LVU270
 1028              		.loc 1 200 3 discriminator 2 view .LVU271
 1029              	.LBB324:
 1030              	.LBB325:
 1031              		.loc 2 356 37 is_stmt 0 discriminator 2 view .LVU272
 1032 0158 EB68     		ldr	r3, [r5, #12]
 1033              	.LBE325:
 1034              	.LBE324:
 1035              		.loc 1 202 18 discriminator 2 view .LVU273
 1036 015a 0498     		ldr	r0, [sp, #16]
 1037 015c 9A68     		ldr	r2, [r3, #8]
 1038 015e 264B     		ldr	r3, .L24+16
 1039 0160 CDF800B0 		str	fp, [sp]
 1040              		.loc 1 200 3 discriminator 2 view .LVU274
 1041 0164 4FF0030C 		mov	ip, #3
 1042              		.loc 1 202 18 discriminator 2 view .LVU275
 1043 0168 043A     		subs	r2, r2, #4
 1044 016a 4FF4B871 		mov	r1, #368
 1045              		.loc 1 200 3 discriminator 2 view .LVU276
 1046 016e CAF800C0 		str	ip, [r10]
 1047              		.loc 1 202 5 is_stmt 1 discriminator 2 view .LVU277
 1048              	.LBB329:
 1049              	.LBI324:
 1050              		.loc 2 354 23 discriminator 2 view .LVU278
 1051              	.LBB328:
 1052              		.loc 2 356 3 discriminator 2 view .LVU279
 1053              	.LBB326:
 1054              	.LBI326:
 1055              		.loc 2 341 25 discriminator 2 view .LVU280
 1056              	.LBB327:
 1057              		.loc 2 343 3 discriminator 2 view .LVU281
 1058              	.LBE327:
 1059              	.LBE326:
 1060              	.LBE328:
 1061              	.LBE329:
 1062              		.loc 1 202 18 is_stmt 0 discriminator 2 view .LVU282
ARM GAS  /tmp/ccEV1Zdm.s 			page 20


 1063 0172 FFF7FEFF 		bl	chThdCreateStatic
 1064              	.LVL44:
 1065              	.LBB330:
 1066              	.LBB331:
 1067              		.loc 2 356 37 discriminator 2 view .LVU283
 1068 0176 EB68     		ldr	r3, [r5, #12]
 1069              	.LBE331:
 1070              	.LBE330:
 1071              		.loc 1 202 16 discriminator 2 view .LVU284
 1072 0178 6060     		str	r0, [r4, #4]
 1073              		.loc 1 203 5 is_stmt 1 discriminator 2 view .LVU285
 1074              	.LBB335:
 1075              	.LBI330:
 1076              		.loc 2 354 23 discriminator 2 view .LVU286
 1077              	.LBB334:
 1078              		.loc 2 356 3 discriminator 2 view .LVU287
 1079              	.LBB332:
 1080              	.LBI332:
 1081              		.loc 2 341 25 discriminator 2 view .LVU288
 1082              	.LBB333:
 1083              		.loc 2 343 3 discriminator 2 view .LVU289
 1084              	.LBE333:
 1085              	.LBE332:
 1086              	.LBE334:
 1087              	.LBE335:
 1088              		.loc 1 203 18 is_stmt 0 discriminator 2 view .LVU290
 1089 017a 9A68     		ldr	r2, [r3, #8]
 1090 017c 0398     		ldr	r0, [sp, #12]
 1091 017e 1E4B     		ldr	r3, .L24+16
 1092 0180 CDF80090 		str	r9, [sp]
 1093 0184 053A     		subs	r2, r2, #5
 1094 0186 4FF4B871 		mov	r1, #368
 1095 018a FFF7FEFF 		bl	chThdCreateStatic
 1096              	.LVL45:
 1097              	.LBB336:
 1098              	.LBB337:
 1099              		.loc 2 356 37 discriminator 2 view .LVU291
 1100 018e EB68     		ldr	r3, [r5, #12]
 1101              	.LBE337:
 1102              	.LBE336:
 1103              		.loc 1 203 16 discriminator 2 view .LVU292
 1104 0190 2060     		str	r0, [r4]
 1105              		.loc 1 204 5 is_stmt 1 discriminator 2 view .LVU293
 1106              	.LBB341:
 1107              	.LBI336:
 1108              		.loc 2 354 23 discriminator 2 view .LVU294
 1109              	.LBB340:
 1110              		.loc 2 356 3 discriminator 2 view .LVU295
 1111              	.LBB338:
 1112              	.LBI338:
 1113              		.loc 2 341 25 discriminator 2 view .LVU296
 1114              	.LBB339:
 1115              		.loc 2 343 3 discriminator 2 view .LVU297
 1116              	.LBE339:
 1117              	.LBE338:
 1118              	.LBE340:
 1119              	.LBE341:
ARM GAS  /tmp/ccEV1Zdm.s 			page 21


 1120              		.loc 1 204 18 is_stmt 0 discriminator 2 view .LVU298
 1121 0192 9A68     		ldr	r2, [r3, #8]
 1122 0194 0798     		ldr	r0, [sp, #28]
 1123 0196 184B     		ldr	r3, .L24+16
 1124 0198 0097     		str	r7, [sp]
 1125 019a 013A     		subs	r2, r2, #1
 1126 019c 4FF4B871 		mov	r1, #368
 1127 01a0 FFF7FEFF 		bl	chThdCreateStatic
 1128              	.LVL46:
 1129              	.LBB342:
 1130              	.LBB343:
 1131              		.loc 2 356 37 discriminator 2 view .LVU299
 1132 01a4 EB68     		ldr	r3, [r5, #12]
 1133              	.LBE343:
 1134              	.LBE342:
 1135              		.loc 1 204 16 discriminator 2 view .LVU300
 1136 01a6 2061     		str	r0, [r4, #16]
 1137              		.loc 1 205 5 is_stmt 1 discriminator 2 view .LVU301
 1138              	.LBB347:
 1139              	.LBI342:
 1140              		.loc 2 354 23 discriminator 2 view .LVU302
 1141              	.LBB346:
 1142              		.loc 2 356 3 discriminator 2 view .LVU303
 1143              	.LBB344:
 1144              	.LBI344:
 1145              		.loc 2 341 25 discriminator 2 view .LVU304
 1146              	.LBB345:
 1147              		.loc 2 343 3 discriminator 2 view .LVU305
 1148              	.LBE345:
 1149              	.LBE344:
 1150              	.LBE346:
 1151              	.LBE347:
 1152              		.loc 1 205 18 is_stmt 0 discriminator 2 view .LVU306
 1153 01a8 9A68     		ldr	r2, [r3, #8]
 1154 01aa 0698     		ldr	r0, [sp, #24]
 1155 01ac 124B     		ldr	r3, .L24+16
 1156 01ae 0096     		str	r6, [sp]
 1157 01b0 023A     		subs	r2, r2, #2
 1158 01b2 4FF4B871 		mov	r1, #368
 1159 01b6 FFF7FEFF 		bl	chThdCreateStatic
 1160              	.LVL47:
 1161              	.LBB348:
 1162              	.LBB349:
 1163              		.loc 2 356 37 discriminator 2 view .LVU307
 1164 01ba EB68     		ldr	r3, [r5, #12]
 1165              	.LBE349:
 1166              	.LBE348:
 1167              		.loc 1 206 18 discriminator 2 view .LVU308
 1168 01bc 9A68     		ldr	r2, [r3, #8]
 1169 01be 0E4B     		ldr	r3, .L24+16
 1170 01c0 CDF80080 		str	r8, [sp]
 1171              		.loc 1 205 18 discriminator 2 view .LVU309
 1172 01c4 0146     		mov	r1, r0
 1173              		.loc 1 206 18 discriminator 2 view .LVU310
 1174 01c6 033A     		subs	r2, r2, #3
 1175              		.loc 1 205 16 discriminator 2 view .LVU311
 1176 01c8 E160     		str	r1, [r4, #12]
ARM GAS  /tmp/ccEV1Zdm.s 			page 22


 1177              		.loc 1 206 5 is_stmt 1 discriminator 2 view .LVU312
 1178              	.LBB353:
 1179              	.LBI348:
 1180              		.loc 2 354 23 discriminator 2 view .LVU313
 1181              	.LBB352:
 1182              		.loc 2 356 3 discriminator 2 view .LVU314
 1183              	.LBB350:
 1184              	.LBI350:
 1185              		.loc 2 341 25 discriminator 2 view .LVU315
 1186              	.LBB351:
 1187              		.loc 2 343 3 discriminator 2 view .LVU316
 1188              	.LBE351:
 1189              	.LBE350:
 1190              	.LBE352:
 1191              	.LBE353:
 1192              		.loc 1 206 18 is_stmt 0 discriminator 2 view .LVU317
 1193 01ca 0598     		ldr	r0, [sp, #20]
 1194 01cc 4FF4B871 		mov	r1, #368
 1195 01d0 FFF7FEFF 		bl	chThdCreateStatic
 1196              	.LVL48:
 1197              		.loc 1 206 16 discriminator 2 view .LVU318
 1198 01d4 A060     		str	r0, [r4, #8]
 1199              		.loc 1 207 5 is_stmt 1 discriminator 2 view .LVU319
 1200 01d6 FFF7FEFF 		bl	test_wait_threads
 1201              	.LVL49:
 1202              		.loc 1 208 5 discriminator 2 view .LVU320
 1203 01da 0D49     		ldr	r1, .L24+40
 1204 01dc 0D48     		ldr	r0, .L24+44
 1205              		.loc 1 211 1 is_stmt 0 discriminator 2 view .LVU321
 1206 01de 09B0     		add	sp, sp, #36
 1207              		.cfi_def_cfa_offset 36
 1208              		@ sp needed
 1209 01e0 BDE8F04F 		pop	{r4, r5, r6, r7, r8, r9, r10, fp, lr}
 1210              		.cfi_restore 14
 1211              		.cfi_restore 11
 1212              		.cfi_restore 10
 1213              		.cfi_restore 9
 1214              		.cfi_restore 8
 1215              		.cfi_restore 7
 1216              		.cfi_restore 6
 1217              		.cfi_restore 5
 1218              		.cfi_restore 4
 1219              		.cfi_def_cfa_offset 0
 1220              		.loc 1 208 5 discriminator 2 view .LVU322
 1221 01e4 FFF7FEBF 		b	__test_assert_sequence
 1222              	.LVL50:
 1223              	.L25:
 1224              		.align	2
 1225              	.L24:
 1226 01e8 00000000 		.word	ch0
 1227 01ec 00000000 		.word	wa
 1228 01f0 00000000 		.word	chtest
 1229 01f4 00000000 		.word	.LC4
 1230 01f8 00000000 		.word	thread
 1231 01fc 04000000 		.word	.LC5
 1232 0200 08000000 		.word	.LC6
 1233 0204 00000000 		.word	threads
ARM GAS  /tmp/ccEV1Zdm.s 			page 23


 1234 0208 0C000000 		.word	.LC7
 1235 020c 10000000 		.word	.LC8
 1236 0210 14000000 		.word	.LC9
 1237 0214 28000000 		.word	.LC10
 1238              		.cfi_endproc
 1239              	.LFE406:
 1240              		.size	rt_test_005_002_execute, .-rt_test_005_002_execute
 1241              		.section	.text.thread,"ax",%progbits
 1242              		.align	1
 1243              		.p2align 4,,15
 1244              		.syntax unified
 1245              		.thumb
 1246              		.thumb_func
 1247              		.fpu softvfp
 1248              		.type	thread, %function
 1249              	thread:
 1250              	.LVL51:
 1251              	.LFB404:
 1252              		.loc 1 44 32 is_stmt 1 view -0
 1253              		.cfi_startproc
 1254              		@ args = 0, pretend = 0, frame = 0
 1255              		@ frame_needed = 0, uses_anonymous_args = 0
 1256              		@ link register save eliminated.
 1257              		.loc 1 46 3 view .LVU324
 1258 0000 0078     		ldrb	r0, [r0]	@ zero_extendqisi2
 1259              	.LVL52:
 1260              		.loc 1 46 3 is_stmt 0 view .LVU325
 1261 0002 FFF7FEBF 		b	test_emit_token
 1262              	.LVL53:
 1263              		.cfi_endproc
 1264              	.LFE404:
 1265              		.size	thread, .-thread
 1266 0006 00BF     		.section	.rodata.rt_test_005_001_execute.str1.4,"aMS",%progbits,1
 1267              		.align	2
 1268              	.LC11:
 1269 0000 6F757420 		.ascii	"out of time window\000"
 1269      6F662074 
 1269      696D6520 
 1269      77696E64 
 1269      6F7700
 1270              		.section	.text.rt_test_005_001_execute,"ax",%progbits
 1271              		.align	1
 1272              		.p2align 4,,15
 1273              		.syntax unified
 1274              		.thumb
 1275              		.thumb_func
 1276              		.fpu softvfp
 1277              		.type	rt_test_005_001_execute, %function
 1278              	rt_test_005_001_execute:
 1279              	.LFB405:
 1280              		.loc 1 76 43 is_stmt 1 view -0
 1281              		.cfi_startproc
 1282              		@ args = 0, pretend = 0, frame = 0
 1283              		@ frame_needed = 0, uses_anonymous_args = 0
 1284              		.loc 1 77 3 view .LVU327
 1285              		.loc 1 82 3 view .LVU328
 1286              		.loc 1 76 43 is_stmt 0 view .LVU329
ARM GAS  /tmp/ccEV1Zdm.s 			page 24


 1287 0000 38B5     		push	{r3, r4, r5, lr}
 1288              		.cfi_def_cfa_offset 16
 1289              		.cfi_offset 3, -16
 1290              		.cfi_offset 4, -12
 1291              		.cfi_offset 5, -8
 1292              		.cfi_offset 14, -4
 1293              		.loc 1 82 3 view .LVU330
 1294 0002 2D4D     		ldr	r5, .L33
 1295 0004 0123     		movs	r3, #1
 1296 0006 2B60     		str	r3, [r5]
 1297              		.loc 1 84 5 is_stmt 1 view .LVU331
 1298              	.LBB400:
 1299              	.LBI400:
 1300              		.file 6 "../ChibiOS/os/rt/include/chvt.h"
 1301              		.loc 6 122 25 view .LVU332
 1302              	.LBE400:
 1303              		.loc 6 127 3 view .LVU333
 1304              	.LBB403:
 1305              	.LBB401:
 1306              	.LBI401:
 1307              		.file 7 "../ChibiOS/os/hal/osal/rt-nil/chcore_timer.h"
 1308              		.loc 7 111 25 view .LVU334
 1309              	.LBB402:
 1310              		.loc 7 113 3 view .LVU335
 1311              		.loc 7 113 10 is_stmt 0 view .LVU336
 1312 0008 FFF7FEFF 		bl	stGetCounter
 1313              	.LVL54:
 1314 000c 0446     		mov	r4, r0
 1315              	.LVL55:
 1316              		.loc 7 113 10 view .LVU337
 1317              	.LBE402:
 1318              	.LBE401:
 1319              	.LBE403:
 1320              		.loc 1 85 5 is_stmt 1 view .LVU338
 1321 000e 6420     		movs	r0, #100
 1322              	.LVL56:
 1323              		.loc 1 85 5 is_stmt 0 view .LVU339
 1324 0010 FFF7FEFF 		bl	chThdSleep
 1325              	.LVL57:
 1326              		.loc 1 86 5 is_stmt 1 view .LVU340
 1327              	.LBB404:
 1328              	.LBI404:
 1329              		.file 8 "../ChibiOS/os/rt/include/chtime.h"
 1330              		.loc 8 442 25 view .LVU341
 1331              	.LBB405:
 1332              		.loc 8 449 3 view .LVU342
 1333              		.loc 8 449 3 is_stmt 0 view .LVU343
 1334              	.LBE405:
 1335              	.LBE404:
 1336              	.LBB406:
 1337              	.LBI406:
 1338              		.loc 8 442 25 is_stmt 1 view .LVU344
 1339              	.LBB407:
 1340              		.loc 8 449 3 view .LVU345
 1341              		.loc 8 449 3 is_stmt 0 view .LVU346
 1342              	.LBE407:
 1343              	.LBE406:
ARM GAS  /tmp/ccEV1Zdm.s 			page 25


 1344              		.loc 1 86 5 view .LVU347
 1345 0014 294A     		ldr	r2, .L33+4
 1346 0016 04F16701 		add	r1, r4, #103
 1347 001a 04F16400 		add	r0, r4, #100
 1348 001e FFF7FEFF 		bl	__test_assert_time_window
 1349              	.LVL58:
 1350 0022 00B1     		cbz	r0, .L32
 1351              	.LVL59:
 1352              	.L27:
 1353              		.loc 1 141 1 view .LVU348
 1354 0024 38BD     		pop	{r3, r4, r5, pc}
 1355              	.LVL60:
 1356              	.L32:
 1357              	.LBB408:
 1358              	.LBI408:
 1359              		.loc 1 76 13 is_stmt 1 view .LVU349
 1360              	.LBB409:
 1361              		.loc 1 88 50 view .LVU350
 1362              		.loc 1 90 3 view .LVU351
 1363              		.loc 1 90 19 view .LVU352
 1364              		.loc 1 95 3 view .LVU353
 1365 0026 0223     		movs	r3, #2
 1366 0028 2B60     		str	r3, [r5]
 1367              		.loc 1 97 5 view .LVU354
 1368              	.LBB410:
 1369              	.LBI410:
 1370              		.loc 6 122 25 view .LVU355
 1371              	.LBE410:
 1372              	.LBE409:
 1373              	.LBE408:
 1374              		.loc 6 127 3 view .LVU356
 1375              	.LBB453:
 1376              	.LBB447:
 1377              	.LBB413:
 1378              	.LBB411:
 1379              	.LBI411:
 1380              		.loc 7 111 25 view .LVU357
 1381              	.LBB412:
 1382              		.loc 7 113 3 view .LVU358
 1383              		.loc 7 113 10 is_stmt 0 view .LVU359
 1384 002a FFF7FEFF 		bl	stGetCounter
 1385              	.LVL61:
 1386 002e 0446     		mov	r4, r0
 1387              	.LVL62:
 1388              		.loc 7 113 10 view .LVU360
 1389              	.LBE412:
 1390              	.LBE411:
 1391              	.LBE413:
 1392              		.loc 1 98 5 is_stmt 1 view .LVU361
 1393 0030 4FF47A70 		mov	r0, #1000
 1394              	.LVL63:
 1395              		.loc 1 98 5 is_stmt 0 view .LVU362
 1396 0034 FFF7FEFF 		bl	chThdSleep
 1397              	.LVL64:
 1398              		.loc 1 99 5 is_stmt 1 view .LVU363
 1399              	.LBB414:
 1400              	.LBI414:
ARM GAS  /tmp/ccEV1Zdm.s 			page 26


 1401              		.loc 8 442 25 view .LVU364
 1402              	.LBB415:
 1403              		.loc 8 449 3 view .LVU365
 1404              		.loc 8 449 3 is_stmt 0 view .LVU366
 1405              	.LBE415:
 1406              	.LBE414:
 1407              	.LBB416:
 1408              	.LBI416:
 1409              		.loc 8 442 25 is_stmt 1 view .LVU367
 1410              	.LBB417:
 1411              		.loc 8 449 3 view .LVU368
 1412              		.loc 8 449 3 is_stmt 0 view .LVU369
 1413              	.LBE417:
 1414              	.LBE416:
 1415              		.loc 1 99 5 view .LVU370
 1416 0038 204A     		ldr	r2, .L33+4
 1417 003a 04F2EB31 		addw	r1, r4, #1003
 1418 003e 04F57A70 		add	r0, r4, #1000
 1419 0042 FFF7FEFF 		bl	__test_assert_time_window
 1420              	.LVL65:
 1421 0046 0028     		cmp	r0, #0
 1422 0048 ECD1     		bne	.L27
 1423              		.loc 1 101 50 is_stmt 1 view .LVU371
 1424              		.loc 1 103 3 view .LVU372
 1425              		.loc 1 103 19 view .LVU373
 1426              		.loc 1 108 3 view .LVU374
 1427 004a 0323     		movs	r3, #3
 1428 004c 2B60     		str	r3, [r5]
 1429              		.loc 1 110 5 view .LVU375
 1430              	.LBB418:
 1431              	.LBI418:
 1432              		.loc 6 122 25 view .LVU376
 1433              	.LBE418:
 1434              	.LBE447:
 1435              	.LBE453:
 1436              		.loc 6 127 3 view .LVU377
 1437              	.LBB454:
 1438              	.LBB448:
 1439              	.LBB421:
 1440              	.LBB419:
 1441              	.LBI419:
 1442              		.loc 7 111 25 view .LVU378
 1443              	.LBB420:
 1444              		.loc 7 113 3 view .LVU379
 1445              		.loc 7 113 10 is_stmt 0 view .LVU380
 1446 004e FFF7FEFF 		bl	stGetCounter
 1447              	.LVL66:
 1448 0052 0446     		mov	r4, r0
 1449              	.LVL67:
 1450              		.loc 7 113 10 view .LVU381
 1451              	.LBE420:
 1452              	.LBE419:
 1453              	.LBE421:
 1454              		.loc 1 111 5 is_stmt 1 view .LVU382
 1455 0054 4FF47A70 		mov	r0, #1000
 1456              	.LVL68:
 1457              		.loc 1 111 5 is_stmt 0 view .LVU383
ARM GAS  /tmp/ccEV1Zdm.s 			page 27


 1458 0058 FFF7FEFF 		bl	chThdSleep
 1459              	.LVL69:
 1460              		.loc 1 112 5 is_stmt 1 view .LVU384
 1461              	.LBB422:
 1462              	.LBI422:
 1463              		.loc 8 442 25 view .LVU385
 1464              	.LBB423:
 1465              		.loc 8 449 3 view .LVU386
 1466              		.loc 8 449 3 is_stmt 0 view .LVU387
 1467              	.LBE423:
 1468              	.LBE422:
 1469              	.LBB424:
 1470              	.LBI424:
 1471              		.loc 8 442 25 is_stmt 1 view .LVU388
 1472              	.LBB425:
 1473              		.loc 8 449 3 view .LVU389
 1474              		.loc 8 449 3 is_stmt 0 view .LVU390
 1475              	.LBE425:
 1476              	.LBE424:
 1477              		.loc 1 112 5 view .LVU391
 1478 005c 174A     		ldr	r2, .L33+4
 1479 005e 04F2EB31 		addw	r1, r4, #1003
 1480 0062 04F57A70 		add	r0, r4, #1000
 1481 0066 FFF7FEFF 		bl	__test_assert_time_window
 1482              	.LVL70:
 1483 006a 0028     		cmp	r0, #0
 1484 006c DAD1     		bne	.L27
 1485              		.loc 1 114 50 is_stmt 1 view .LVU392
 1486              		.loc 1 116 3 view .LVU393
 1487              		.loc 1 116 19 view .LVU394
 1488              		.loc 1 120 3 view .LVU395
 1489 006e 0423     		movs	r3, #4
 1490 0070 2B60     		str	r3, [r5]
 1491              		.loc 1 122 5 view .LVU396
 1492              	.LBB426:
 1493              	.LBI426:
 1494              		.loc 6 122 25 view .LVU397
 1495              	.LBE426:
 1496              	.LBE448:
 1497              	.LBE454:
 1498              		.loc 6 127 3 view .LVU398
 1499              	.LBB455:
 1500              	.LBB449:
 1501              	.LBB429:
 1502              	.LBB427:
 1503              	.LBI427:
 1504              		.loc 7 111 25 view .LVU399
 1505              	.LBB428:
 1506              		.loc 7 113 3 view .LVU400
 1507              		.loc 7 113 10 is_stmt 0 view .LVU401
 1508 0072 FFF7FEFF 		bl	stGetCounter
 1509              	.LVL71:
 1510 0076 0446     		mov	r4, r0
 1511              	.LVL72:
 1512              		.loc 7 113 10 view .LVU402
 1513              	.LBE428:
 1514              	.LBE427:
ARM GAS  /tmp/ccEV1Zdm.s 			page 28


 1515              	.LBE429:
 1516              		.loc 1 123 5 is_stmt 1 view .LVU403
 1517 0078 42F21070 		movw	r0, #10000
 1518              	.LVL73:
 1519              		.loc 1 123 5 is_stmt 0 view .LVU404
 1520 007c FFF7FEFF 		bl	chThdSleep
 1521              	.LVL74:
 1522              		.loc 1 124 5 is_stmt 1 view .LVU405
 1523              	.LBB430:
 1524              	.LBI430:
 1525              		.loc 8 442 25 view .LVU406
 1526              	.LBB431:
 1527              		.loc 8 449 3 view .LVU407
 1528              		.loc 8 449 3 is_stmt 0 view .LVU408
 1529              	.LBE431:
 1530              	.LBE430:
 1531              	.LBB432:
 1532              	.LBI432:
 1533              		.loc 8 442 25 is_stmt 1 view .LVU409
 1534              	.LBB433:
 1535              		.loc 8 449 3 view .LVU410
 1536              		.loc 8 449 3 is_stmt 0 view .LVU411
 1537              	.LBE433:
 1538              	.LBE432:
 1539              		.loc 1 124 5 view .LVU412
 1540 0080 04F51C51 		add	r1, r4, #9984
 1541 0084 0846     		mov	r0, r1
 1542 0086 0D4A     		ldr	r2, .L33+4
 1543 0088 1331     		adds	r1, r1, #19
 1544 008a 1030     		adds	r0, r0, #16
 1545 008c FFF7FEFF 		bl	__test_assert_time_window
 1546              	.LVL75:
 1547 0090 0028     		cmp	r0, #0
 1548 0092 C7D1     		bne	.L27
 1549              		.loc 1 126 50 is_stmt 1 view .LVU413
 1550              		.loc 1 128 3 view .LVU414
 1551              		.loc 1 128 19 view .LVU415
 1552              		.loc 1 132 3 view .LVU416
 1553 0094 0523     		movs	r3, #5
 1554 0096 2B60     		str	r3, [r5]
 1555              		.loc 1 134 5 view .LVU417
 1556              	.LBB434:
 1557              	.LBI434:
 1558              		.loc 6 122 25 view .LVU418
 1559              	.LBE434:
 1560              	.LBE449:
 1561              	.LBE455:
 1562              		.loc 6 127 3 view .LVU419
 1563              	.LBB456:
 1564              	.LBB450:
 1565              	.LBB439:
 1566              	.LBB435:
 1567              	.LBI435:
 1568              		.loc 7 111 25 view .LVU420
 1569              	.LBB436:
 1570              		.loc 7 113 3 view .LVU421
 1571              		.loc 7 113 10 is_stmt 0 view .LVU422
ARM GAS  /tmp/ccEV1Zdm.s 			page 29


 1572 0098 FFF7FEFF 		bl	stGetCounter
 1573              	.LVL76:
 1574              	.LBE436:
 1575              	.LBE435:
 1576              	.LBE439:
 1577              	.LBB440:
 1578              	.LBB441:
 1579              		.loc 8 449 18 view .LVU423
 1580 009c 00F16405 		add	r5, r0, #100
 1581              	.LBE441:
 1582              	.LBE440:
 1583              	.LBB443:
 1584              	.LBB438:
 1585              	.LBB437:
 1586              		.loc 7 113 10 view .LVU424
 1587 00a0 0446     		mov	r4, r0
 1588              	.LVL77:
 1589              		.loc 7 113 10 view .LVU425
 1590              	.LBE437:
 1591              	.LBE438:
 1592              	.LBE443:
 1593              		.loc 1 135 5 is_stmt 1 view .LVU426
 1594              	.LBB444:
 1595              	.LBI440:
 1596              		.loc 8 442 25 view .LVU427
 1597              	.LBB442:
 1598              		.loc 8 449 3 view .LVU428
 1599              		.loc 8 449 3 is_stmt 0 view .LVU429
 1600              	.LBE442:
 1601              	.LBE444:
 1602              		.loc 1 135 5 view .LVU430
 1603 00a2 2846     		mov	r0, r5
 1604              	.LVL78:
 1605              		.loc 1 135 5 view .LVU431
 1606 00a4 FFF7FEFF 		bl	chThdSleepUntil
 1607              	.LVL79:
 1608              		.loc 1 136 5 is_stmt 1 view .LVU432
 1609              		.loc 1 136 5 is_stmt 0 view .LVU433
 1610              	.LBE450:
 1611              	.LBE456:
 1612              		.loc 8 449 3 is_stmt 1 view .LVU434
 1613              	.LBB457:
 1614              	.LBB451:
 1615              	.LBB445:
 1616              	.LBI445:
 1617              		.loc 8 442 25 view .LVU435
 1618              	.LBB446:
 1619              		.loc 8 449 3 view .LVU436
 1620              		.loc 8 449 3 is_stmt 0 view .LVU437
 1621              	.LBE446:
 1622              	.LBE445:
 1623              		.loc 1 136 5 view .LVU438
 1624 00a8 04F16701 		add	r1, r4, #103
 1625 00ac 2846     		mov	r0, r5
 1626 00ae 034A     		ldr	r2, .L33+4
 1627              	.LBE451:
 1628              	.LBE457:
ARM GAS  /tmp/ccEV1Zdm.s 			page 30


 1629              		.loc 1 141 1 view .LVU439
 1630 00b0 BDE83840 		pop	{r3, r4, r5, lr}
 1631              		.cfi_restore 14
 1632              		.cfi_restore 5
 1633              		.cfi_restore 4
 1634              		.cfi_restore 3
 1635              		.cfi_def_cfa_offset 0
 1636              	.LVL80:
 1637              	.LBB458:
 1638              	.LBB452:
 1639              		.loc 1 136 5 view .LVU440
 1640 00b4 FFF7FEBF 		b	__test_assert_time_window
 1641              	.LVL81:
 1642              	.L34:
 1643              		.loc 1 136 5 view .LVU441
 1644              		.align	2
 1645              	.L33:
 1646 00b8 00000000 		.word	chtest
 1647 00bc 00000000 		.word	.LC11
 1648              	.LBE452:
 1649              	.LBE458:
 1650              		.cfi_endproc
 1651              	.LFE405:
 1652              		.size	rt_test_005_001_execute, .-rt_test_005_001_execute
 1653              		.global	rt_test_sequence_005
 1654              		.section	.rodata.str1.4,"aMS",%progbits,1
 1655              		.align	2
 1656              	.LC12:
 1657 0000 54687265 		.ascii	"Threads Functionality\000"
 1657      61647320 
 1657      46756E63 
 1657      74696F6E 
 1657      616C6974 
 1658              		.global	rt_test_sequence_005_array
 1659 0016 0000     		.align	2
 1660              	.LC13:
 1661 0018 5072696F 		.ascii	"Priority change test with Priority Inheritance\000"
 1661      72697479 
 1661      20636861 
 1661      6E676520 
 1661      74657374 
 1662 0047 00       		.align	2
 1663              	.LC14:
 1664 0048 5072696F 		.ascii	"Priority change test\000"
 1664      72697479 
 1664      20636861 
 1664      6E676520 
 1664      74657374 
 1665 005d 000000   		.align	2
 1666              	.LC15:
 1667 0060 52656164 		.ascii	"Ready List functionality, threads priority order\000"
 1667      79204C69 
 1667      73742066 
 1667      756E6374 
 1667      696F6E61 
 1668 0091 000000   		.align	2
 1669              	.LC16:
ARM GAS  /tmp/ccEV1Zdm.s 			page 31


 1670 0094 54687265 		.ascii	"Thread Sleep functionality\000"
 1670      61642053 
 1670      6C656570 
 1670      2066756E 
 1670      6374696F 
 1671              		.section	.rodata.rt_test_005_001,"a"
 1672              		.align	2
 1673              		.type	rt_test_005_001, %object
 1674              		.size	rt_test_005_001, 16
 1675              	rt_test_005_001:
 1676 0000 94000000 		.word	.LC16
 1677 0004 00000000 		.word	0
 1678 0008 00000000 		.word	0
 1679 000c 00000000 		.word	rt_test_005_001_execute
 1680              		.section	.rodata.rt_test_005_002,"a"
 1681              		.align	2
 1682              		.type	rt_test_005_002, %object
 1683              		.size	rt_test_005_002, 16
 1684              	rt_test_005_002:
 1685 0000 60000000 		.word	.LC15
 1686 0004 00000000 		.word	0
 1687 0008 00000000 		.word	0
 1688 000c 00000000 		.word	rt_test_005_002_execute
 1689              		.section	.rodata.rt_test_005_003,"a"
 1690              		.align	2
 1691              		.type	rt_test_005_003, %object
 1692              		.size	rt_test_005_003, 16
 1693              	rt_test_005_003:
 1694 0000 48000000 		.word	.LC14
 1695 0004 00000000 		.word	0
 1696 0008 00000000 		.word	0
 1697 000c 00000000 		.word	rt_test_005_003_execute
 1698              		.section	.rodata.rt_test_005_004,"a"
 1699              		.align	2
 1700              		.type	rt_test_005_004, %object
 1701              		.size	rt_test_005_004, 16
 1702              	rt_test_005_004:
 1703 0000 18000000 		.word	.LC13
 1704 0004 00000000 		.word	0
 1705 0008 00000000 		.word	0
 1706 000c 00000000 		.word	rt_test_005_004_execute
 1707              		.section	.rodata.rt_test_sequence_005,"a"
 1708              		.align	2
 1709              		.type	rt_test_sequence_005, %object
 1710              		.size	rt_test_sequence_005, 8
 1711              	rt_test_sequence_005:
 1712 0000 00000000 		.word	.LC12
 1713 0004 00000000 		.word	rt_test_sequence_005_array
 1714              		.section	.rodata.rt_test_sequence_005_array,"a"
 1715              		.align	2
 1716              		.type	rt_test_sequence_005_array, %object
 1717              		.size	rt_test_sequence_005_array, 20
 1718              	rt_test_sequence_005_array:
 1719 0000 00000000 		.word	rt_test_005_001
 1720 0004 00000000 		.word	rt_test_005_002
 1721 0008 00000000 		.word	rt_test_005_003
 1722 000c 00000000 		.word	rt_test_005_004
ARM GAS  /tmp/ccEV1Zdm.s 			page 32


 1723 0010 00000000 		.word	0
 1724              		.text
 1725              	.Letext0:
 1726              		.file 9 "/opt/gcc-arm-none-eabi/gcc-arm-none-eabi-10.3-2021.07/lib/gcc/arm-none-eabi/10.3.1/includ
 1727              		.file 10 "/opt/gcc-arm-none-eabi/gcc-arm-none-eabi-10.3-2021.07/arm-none-eabi/include/machine/_def
 1728              		.file 11 "/opt/gcc-arm-none-eabi/gcc-arm-none-eabi-10.3-2021.07/arm-none-eabi/include/sys/_stdint.
 1729              		.file 12 "../ChibiOS/os/common/ports/ARM-common/chtypes.h"
 1730              		.file 13 "../ChibiOS/os/rt/include/chearly.h"
 1731              		.file 14 "../ChibiOS/os/rt/include/chobjects.h"
 1732              		.file 15 "../ChibiOS/os/rt/include/chrfcu.h"
 1733              		.file 16 "../ChibiOS/os/rt/include/chdebug.h"
 1734              		.file 17 "../ChibiOS/os/rt/include/chlists.h"
 1735              		.file 18 "../ChibiOS/os/rt/include/chsem.h"
 1736              		.file 19 "../ChibiOS/os/rt/include/chmtx.h"
 1737              		.file 20 "../ChibiOS/os/hal/include/hal_streams.h"
 1738              		.file 21 "../ChibiOS/os/test/include/ch_test.h"
 1739              		.file 22 "../ChibiOS/test/rt/source/test/rt_test_sequence_005.h"
 1740              		.file 23 "../ChibiOS/test/rt/source/test/rt_test_root.h"
 1741              		.file 24 "../ChibiOS/os/hal/include/hal_st.h"