ARM GAS  /tmp/ccLmd5D2.s 			page 1


   1              		.cpu cortex-m4
   2              		.eabi_attribute 20, 1
   3              		.eabi_attribute 21, 1
   4              		.eabi_attribute 23, 3
   5              		.eabi_attribute 24, 1
   6              		.eabi_attribute 25, 1
   7              		.eabi_attribute 26, 1
   8              		.eabi_attribute 30, 2
   9              		.eabi_attribute 34, 1
  10              		.eabi_attribute 18, 4
  11              		.file	"rt_test_sequence_009.c"
  12              		.text
  13              	.Ltext0:
  14              		.cfi_sections	.debug_frame
  15              		.section	.text.msg_thread1,"ax",%progbits
  16              		.align	1
  17              		.p2align 4,,15
  18              		.arch armv7e-m
  19              		.syntax unified
  20              		.thumb
  21              		.thumb_func
  22              		.fpu softvfp
  23              		.type	msg_thread1, %function
  24              	msg_thread1:
  25              	.LVL0:
  26              	.LFB404:
  27              		.file 1 "../ChibiOS/test/rt/source/test/rt_test_sequence_009.c"
  28              		.loc 1 49 37 view -0
  29              		.cfi_startproc
  30              		@ args = 0, pretend = 0, frame = 0
  31              		@ frame_needed = 0, uses_anonymous_args = 0
  32              		.loc 1 51 3 view .LVU1
  33              		.loc 1 49 37 is_stmt 0 view .LVU2
  34 0000 10B5     		push	{r4, lr}
  35              		.cfi_def_cfa_offset 8
  36              		.cfi_offset 4, -8
  37              		.cfi_offset 14, -4
  38              		.loc 1 51 3 view .LVU3
  39 0002 4121     		movs	r1, #65
  40              		.loc 1 49 37 view .LVU4
  41 0004 0446     		mov	r4, r0
  42              		.loc 1 51 3 view .LVU5
  43 0006 FFF7FEFF 		bl	chMsgSend
  44              	.LVL1:
  45              		.loc 1 52 3 is_stmt 1 view .LVU6
  46 000a 4221     		movs	r1, #66
  47 000c 2046     		mov	r0, r4
  48 000e FFF7FEFF 		bl	chMsgSend
  49              	.LVL2:
  50              		.loc 1 53 3 view .LVU7
  51 0012 4321     		movs	r1, #67
  52 0014 2046     		mov	r0, r4
  53 0016 FFF7FEFF 		bl	chMsgSend
  54              	.LVL3:
  55              		.loc 1 54 3 view .LVU8
  56 001a 2046     		mov	r0, r4
  57 001c 4421     		movs	r1, #68
ARM GAS  /tmp/ccLmd5D2.s 			page 2


  58              		.loc 1 55 1 is_stmt 0 view .LVU9
  59 001e BDE81040 		pop	{r4, lr}
  60              		.cfi_restore 14
  61              		.cfi_restore 4
  62              		.cfi_def_cfa_offset 0
  63              	.LVL4:
  64              		.loc 1 54 3 view .LVU10
  65 0022 FFF7FEBF 		b	chMsgSend
  66              	.LVL5:
  67              		.loc 1 54 3 view .LVU11
  68              		.cfi_endproc
  69              	.LFE404:
  70              		.size	msg_thread1, .-msg_thread1
  71 0026 00BF     		.section	.rodata.rt_test_009_001_execute.str1.4,"aMS",%progbits,1
  72              		.align	2
  73              	.LC0:
  74 0000 696E7661 		.ascii	"invalid sequence\000"
  74      6C696420 
  74      73657175 
  74      656E6365 
  74      00
  75 0011 000000   		.align	2
  76              	.LC1:
  77 0014 41424344 		.ascii	"ABCD\000"
  77      00
  78              		.section	.text.rt_test_009_001_execute,"ax",%progbits
  79              		.align	1
  80              		.p2align 4,,15
  81              		.syntax unified
  82              		.thumb
  83              		.thumb_func
  84              		.fpu softvfp
  85              		.type	rt_test_009_001_execute, %function
  86              	rt_test_009_001_execute:
  87              	.LFB405:
  88              		.loc 1 75 43 is_stmt 1 view -0
  89              		.cfi_startproc
  90              		@ args = 0, pretend = 0, frame = 0
  91              		@ frame_needed = 0, uses_anonymous_args = 0
  92              		.loc 1 76 3 view .LVU13
  93              		.loc 1 77 3 view .LVU14
  94              		.loc 1 80 3 view .LVU15
  95              		.loc 1 75 43 is_stmt 0 view .LVU16
  96 0000 F0B5     		push	{r4, r5, r6, r7, lr}
  97              		.cfi_def_cfa_offset 20
  98              		.cfi_offset 4, -20
  99              		.cfi_offset 5, -16
 100              		.cfi_offset 6, -12
 101              		.cfi_offset 7, -8
 102              		.cfi_offset 14, -4
 103              	.LBB46:
 104              	.LBB47:
 105              	.LBB48:
 106              	.LBB49:
 107              		.file 2 "../ChibiOS/os/rt/include/chthreads.h"
 108              		.loc 2 343 10 view .LVU17
 109 0002 174B     		ldr	r3, .L8
ARM GAS  /tmp/ccLmd5D2.s 			page 3


 110              	.LBE49:
 111              	.LBE48:
 112              	.LBE47:
 113              	.LBE46:
 114              		.loc 1 80 3 view .LVU18
 115 0004 174C     		ldr	r4, .L8+4
 116              	.LBB56:
 117              	.LBB54:
 118              	.LBB52:
 119              	.LBB50:
 120              		.loc 2 343 10 view .LVU19
 121 0006 D968     		ldr	r1, [r3, #12]
 122              	.LBE50:
 123              	.LBE52:
 124              	.LBE54:
 125              	.LBE56:
 126              		.loc 1 82 18 view .LVU20
 127 0008 1748     		ldr	r0, .L8+8
 128 000a 8A68     		ldr	r2, [r1, #8]
 129 000c 174B     		ldr	r3, .L8+12
 130 000e 0068     		ldr	r0, [r0]
 131              		.loc 1 75 43 view .LVU21
 132 0010 83B0     		sub	sp, sp, #12
 133              		.cfi_def_cfa_offset 32
 134              		.loc 1 80 3 view .LVU22
 135 0012 0125     		movs	r5, #1
 136              		.loc 1 82 18 view .LVU23
 137 0014 0091     		str	r1, [sp]
 138 0016 2A44     		add	r2, r2, r5
 139              		.loc 1 80 3 view .LVU24
 140 0018 2560     		str	r5, [r4]
 141              		.loc 1 82 5 is_stmt 1 view .LVU25
 142              	.LBB57:
 143              	.LBI46:
 144              		.loc 2 354 23 view .LVU26
 145              	.LBB55:
 146              		.loc 2 356 3 view .LVU27
 147              	.LBB53:
 148              	.LBI48:
 149              		.loc 2 341 25 view .LVU28
 150              	.LBB51:
 151              		.loc 2 343 3 view .LVU29
 152              	.LBE51:
 153              	.LBE53:
 154              	.LBE55:
 155              	.LBE57:
 156              		.loc 2 343 3 view .LVU30
 157              		.loc 1 82 18 is_stmt 0 view .LVU31
 158 001a 4FF4B871 		mov	r1, #368
 159 001e FFF7FEFF 		bl	chThdCreateStatic
 160              	.LVL6:
 161              		.loc 1 82 16 view .LVU32
 162 0022 134A     		ldr	r2, .L8+16
 163              		.loc 1 89 3 view .LVU33
 164 0024 0223     		movs	r3, #2
 165 0026 2360     		str	r3, [r4]
 166              		.loc 1 82 16 view .LVU34
ARM GAS  /tmp/ccLmd5D2.s 			page 4


 167 0028 1060     		str	r0, [r2]
 168              		.loc 1 85 3 is_stmt 1 view .LVU35
 169              		.loc 1 85 19 view .LVU36
 170              		.loc 1 89 3 view .LVU37
 171              	.LBB58:
 172              		.loc 1 91 5 view .LVU38
 173              		.loc 1 93 5 view .LVU39
 174              	.LVL7:
 175              		.loc 1 93 17 view .LVU40
 176              	.LBE58:
 177              		.loc 1 89 3 is_stmt 0 view .LVU41
 178 002a 0424     		movs	r4, #4
 179              	.LBB97:
 180              	.LBB59:
 181              	.LBB60:
 182              	.LBB61:
 183              	.LBB62:
 184              	.LBB63:
 185              	.LBB64:
 186              		.file 3 "../ChibiOS/os/common/ext/ARM/CMSIS/Core/Include/cmsis_gcc.h"
 187              		.loc 3 493 3 view .LVU42
 188 002c 3027     		movs	r7, #48
 189              	.LBE64:
 190              	.LBE63:
 191              	.LBE62:
 192              	.LBE61:
 193              	.LBB69:
 194              	.LBB70:
 195              	.LBB71:
 196              	.LBB72:
 197              	.LBB73:
 198 002e 0026     		movs	r6, #0
 199              	.LVL8:
 200              	.L5:
 201              		.loc 3 493 3 view .LVU43
 202              	.LBE73:
 203              	.LBE72:
 204              	.LBE71:
 205              	.LBE70:
 206              	.LBE69:
 207              	.LBE60:
 208              	.LBE59:
 209              		.loc 1 94 7 is_stmt 1 view .LVU44
 210              	.LBB90:
 211              	.LBI59:
 212              		.file 4 "../ChibiOS/os/rt/include/chmsg.h"
 213              		.loc 4 95 25 view .LVU45
 214              	.LBB85:
 215              		.loc 4 96 3 view .LVU46
 216              		.loc 4 98 3 view .LVU47
 217              	.LBB80:
 218              	.LBI61:
 219              		.file 5 "../ChibiOS/os/rt/include/chsys.h"
 220              		.loc 5 407 20 view .LVU48
 221              	.LBE80:
 222              	.LBE85:
 223              	.LBE90:
ARM GAS  /tmp/ccLmd5D2.s 			page 5


 224              	.LBE97:
 225              		.loc 5 409 3 view .LVU49
 226              	.LBB98:
 227              	.LBB91:
 228              	.LBB86:
 229              	.LBB81:
 230              	.LBB67:
 231              	.LBI62:
 232              		.file 6 "../ChibiOS/os/common/ports/ARMv7-M/chcore.h"
 233              		.loc 6 806 27 view .LVU50
 234              	.LBE67:
 235              	.LBE81:
 236              	.LBE86:
 237              	.LBE91:
 238              	.LBE98:
 239              		.loc 6 814 3 view .LVU51
 240              	.LBB99:
 241              	.LBB92:
 242              	.LBB87:
 243              	.LBB82:
 244              	.LBB68:
 245              	.LBB66:
 246              	.LBI63:
 247              		.loc 3 491 27 view .LVU52
 248              	.LBB65:
 249              		.loc 3 493 3 view .LVU53
 250              		.syntax unified
 251              	@ 493 "../ChibiOS/os/common/ext/ARM/CMSIS/Core/Include/cmsis_gcc.h" 1
 252 0030 87F31188 		MSR basepri, r7
 253              	@ 0 "" 2
 254              	.LVL9:
 255              		.loc 3 493 3 is_stmt 0 view .LVU54
 256              		.thumb
 257              		.syntax unified
 258              	.LBE65:
 259              	.LBE66:
 260              	.LBE68:
 261              	.LBE82:
 262              	.LBE87:
 263              	.LBE92:
 264              	.LBE99:
 265              		.loc 5 410 35 is_stmt 1 view .LVU55
 266              		.loc 5 411 21 view .LVU56
 267              	.LBB100:
 268              	.LBB93:
 269              	.LBB88:
 270              		.loc 4 99 3 view .LVU57
 271              		.loc 4 99 8 is_stmt 0 view .LVU58
 272 0034 FFF7FEFF 		bl	chMsgWaitS
 273              	.LVL10:
 274              		.loc 4 100 3 is_stmt 1 view .LVU59
 275              	.LBB83:
 276              	.LBI69:
 277              		.loc 5 421 20 view .LVU60
 278              	.LBB78:
 279              		.loc 5 423 23 view .LVU61
 280              		.loc 5 424 34 view .LVU62
ARM GAS  /tmp/ccLmd5D2.s 			page 6


 281              		.loc 5 430 3 view .LVU63
 282              		.loc 5 430 3 view .LVU64
 283              		.loc 5 430 3 view .LVU65
 284              		.loc 5 434 3 view .LVU66
 285              	.LBB76:
 286              	.LBI71:
 287              		.loc 6 830 27 view .LVU67
 288              	.LBE76:
 289              	.LBE78:
 290              	.LBE83:
 291              	.LBE88:
 292              	.LBE93:
 293              	.LBE100:
 294              		.loc 6 833 3 view .LVU68
 295              	.LBB101:
 296              	.LBB94:
 297              	.LBB89:
 298              	.LBB84:
 299              	.LBB79:
 300              	.LBB77:
 301              	.LBB75:
 302              	.LBI72:
 303              		.loc 3 491 27 view .LVU69
 304              	.LBB74:
 305              		.loc 3 493 3 view .LVU70
 306              		.syntax unified
 307              	@ 493 "../ChibiOS/os/common/ext/ARM/CMSIS/Core/Include/cmsis_gcc.h" 1
 308 0038 86F31188 		MSR basepri, r6
 309              	@ 0 "" 2
 310              	.LVL11:
 311              		.loc 3 493 3 is_stmt 0 view .LVU71
 312              		.thumb
 313              		.syntax unified
 314              	.LBE74:
 315              	.LBE75:
 316              	.LBE77:
 317              	.LBE79:
 318              	.LBE84:
 319              		.loc 4 102 3 is_stmt 1 view .LVU72
 320              		.loc 4 102 3 is_stmt 0 view .LVU73
 321              	.LBE89:
 322              	.LBE94:
 323              		.loc 1 95 7 is_stmt 1 view .LVU74
 324              	.LBB95:
 325              	.LBI95:
 326              		.loc 4 190 21 view .LVU75
 327              	.LBB96:
 328              		.loc 4 192 3 view .LVU76
 329              		.loc 4 192 3 view .LVU77
 330              		.loc 4 192 3 view .LVU78
 331              		.loc 4 194 3 view .LVU79
 332              		.loc 4 194 15 is_stmt 0 view .LVU80
 333 003c 856A     		ldr	r5, [r0, #40]
 334              	.LVL12:
 335              		.loc 4 194 15 view .LVU81
 336              	.LBE96:
 337              	.LBE95:
ARM GAS  /tmp/ccLmd5D2.s 			page 7


 338              		.loc 1 96 7 is_stmt 1 view .LVU82
 339 003e 2946     		mov	r1, r5
 340 0040 FFF7FEFF 		bl	chMsgRelease
 341              	.LVL13:
 342              		.loc 1 97 7 view .LVU83
 343 0044 E8B2     		uxtb	r0, r5
 344 0046 FFF7FEFF 		bl	test_emit_token
 345              	.LVL14:
 346              		.loc 1 93 24 view .LVU84
 347              		.loc 1 93 17 view .LVU85
 348              		.loc 1 93 5 is_stmt 0 view .LVU86
 349 004a 013C     		subs	r4, r4, #1
 350              	.LVL15:
 351              		.loc 1 93 5 view .LVU87
 352 004c F0D1     		bne	.L5
 353              		.loc 1 99 5 is_stmt 1 view .LVU88
 354 004e FFF7FEFF 		bl	test_wait_threads
 355              	.LVL16:
 356              		.loc 1 100 5 view .LVU89
 357 0052 0849     		ldr	r1, .L8+20
 358 0054 0848     		ldr	r0, .L8+24
 359              	.LBE101:
 360              		.loc 1 103 1 is_stmt 0 view .LVU90
 361 0056 03B0     		add	sp, sp, #12
 362              		.cfi_def_cfa_offset 20
 363              		@ sp needed
 364 0058 BDE8F040 		pop	{r4, r5, r6, r7, lr}
 365              		.cfi_restore 14
 366              		.cfi_restore 7
 367              		.cfi_restore 6
 368              		.cfi_restore 5
 369              		.cfi_restore 4
 370              		.cfi_def_cfa_offset 0
 371              	.LVL17:
 372              	.LBB102:
 373              		.loc 1 100 5 view .LVU91
 374 005c FFF7FEBF 		b	__test_assert_sequence
 375              	.LVL18:
 376              	.L9:
 377              		.align	2
 378              	.L8:
 379 0060 00000000 		.word	ch0
 380 0064 00000000 		.word	chtest
 381 0068 00000000 		.word	wa
 382 006c 00000000 		.word	msg_thread1
 383 0070 00000000 		.word	threads
 384 0074 00000000 		.word	.LC0
 385 0078 14000000 		.word	.LC1
 386              	.LBE102:
 387              		.cfi_endproc
 388              	.LFE405:
 389              		.size	rt_test_009_001_execute, .-rt_test_009_001_execute
 390              		.global	rt_test_sequence_009
 391              		.section	.rodata.str1.4,"aMS",%progbits,1
 392              		.align	2
 393              	.LC2:
 394 0000 53796E63 		.ascii	"Synchronous Messages\000"
ARM GAS  /tmp/ccLmd5D2.s 			page 8


 394      68726F6E 
 394      6F757320 
 394      4D657373 
 394      61676573 
 395              		.global	rt_test_sequence_009_array
 396 0015 000000   		.align	2
 397              	.LC3:
 398 0018 4D657373 		.ascii	"Messages Server loop\000"
 398      61676573 
 398      20536572 
 398      76657220 
 398      6C6F6F70 
 399              		.section	.rodata.rt_test_009_001,"a"
 400              		.align	2
 401              		.type	rt_test_009_001, %object
 402              		.size	rt_test_009_001, 16
 403              	rt_test_009_001:
 404 0000 18000000 		.word	.LC3
 405 0004 00000000 		.word	0
 406 0008 00000000 		.word	0
 407 000c 00000000 		.word	rt_test_009_001_execute
 408              		.section	.rodata.rt_test_sequence_009,"a"
 409              		.align	2
 410              		.type	rt_test_sequence_009, %object
 411              		.size	rt_test_sequence_009, 8
 412              	rt_test_sequence_009:
 413 0000 00000000 		.word	.LC2
 414 0004 00000000 		.word	rt_test_sequence_009_array
 415              		.section	.rodata.rt_test_sequence_009_array,"a"
 416              		.align	2
 417              		.type	rt_test_sequence_009_array, %object
 418              		.size	rt_test_sequence_009_array, 8
 419              	rt_test_sequence_009_array:
 420 0000 00000000 		.word	rt_test_009_001
 421 0004 00000000 		.word	0
 422              		.text
 423              	.Letext0:
 424              		.file 7 "/opt/gcc-arm-none-eabi/gcc-arm-none-eabi-10.3-2021.07/lib/gcc/arm-none-eabi/10.3.1/includ
 425              		.file 8 "/opt/gcc-arm-none-eabi/gcc-arm-none-eabi-10.3-2021.07/arm-none-eabi/include/machine/_defa
 426              		.file 9 "/opt/gcc-arm-none-eabi/gcc-arm-none-eabi-10.3-2021.07/arm-none-eabi/include/sys/_stdint.h
 427              		.file 10 "../ChibiOS/os/common/ports/ARM-common/chtypes.h"
 428              		.file 11 "../ChibiOS/os/rt/include/chearly.h"
 429              		.file 12 "../ChibiOS/os/rt/include/chobjects.h"
 430              		.file 13 "../ChibiOS/os/rt/include/chrfcu.h"
 431              		.file 14 "../ChibiOS/os/rt/include/chdebug.h"
 432              		.file 15 "../ChibiOS/os/rt/include/chtime.h"
 433              		.file 16 "../ChibiOS/os/rt/include/chlists.h"
 434              		.file 17 "../ChibiOS/os/rt/include/chsem.h"
 435              		.file 18 "../ChibiOS/os/rt/include/chmtx.h"
 436              		.file 19 "../ChibiOS/os/hal/include/hal_streams.h"
 437              		.file 20 "../ChibiOS/os/test/include/ch_test.h"
 438              		.file 21 "../ChibiOS/test/rt/source/test/rt_test_sequence_009.h"
 439              		.file 22 "../ChibiOS/test/rt/source/test/rt_test_root.h"
 440              		.section	.debug_info,"",%progbits
 441              	.Ldebug_info0:
 442 0000 E50D0000 		.4byte	0xde5
 443 0004 0400     		.2byte	0x4
ARM GAS  /tmp/ccLmd5D2.s 			page 9


 444 0006 00000000 		.4byte	.Ldebug_abbrev0
 445 000a 04       		.byte	0x4
 446 000b 01       		.uleb128 0x1
 447 000c D3060000 		.4byte	.LASF154
 448 0010 0C       		.byte	0xc
 449 0011 07030000 		.4byte	.LASF155
 450 0015 3C060000 		.4byte	.LASF156
 451 0019 50010000 		.4byte	.Ldebug_ranges0+0x150
 452 001d 00000000 		.4byte	0
 453 0021 00000000 		.4byte	.Ldebug_line0
 454 0025 02       		.uleb128 0x2
 455 0026 04       		.byte	0x4
 456 0027 05       		.byte	0x5
 457 0028 696E7400 		.ascii	"int\000"
 458 002c 03       		.uleb128 0x3
 459 002d 12000000 		.4byte	.LASF4
 460 0031 07       		.byte	0x7
 461 0032 D1       		.byte	0xd1
 462 0033 17       		.byte	0x17
 463 0034 38000000 		.4byte	0x38
 464 0038 04       		.uleb128 0x4
 465 0039 04       		.byte	0x4
 466 003a 07       		.byte	0x7
 467 003b 65020000 		.4byte	.LASF0
 468 003f 04       		.uleb128 0x4
 469 0040 08       		.byte	0x8
 470 0041 05       		.byte	0x5
 471 0042 01010000 		.4byte	.LASF1
 472 0046 04       		.uleb128 0x4
 473 0047 08       		.byte	0x8
 474 0048 04       		.byte	0x4
 475 0049 F9030000 		.4byte	.LASF2
 476 004d 04       		.uleb128 0x4
 477 004e 01       		.byte	0x1
 478 004f 06       		.byte	0x6
 479 0050 0F010000 		.4byte	.LASF3
 480 0054 03       		.uleb128 0x3
 481 0055 4A000000 		.4byte	.LASF5
 482 0059 08       		.byte	0x8
 483 005a 2B       		.byte	0x2b
 484 005b 18       		.byte	0x18
 485 005c 60000000 		.4byte	0x60
 486 0060 04       		.uleb128 0x4
 487 0061 01       		.byte	0x1
 488 0062 08       		.byte	0x8
 489 0063 F1040000 		.4byte	.LASF6
 490 0067 04       		.uleb128 0x4
 491 0068 02       		.byte	0x2
 492 0069 05       		.byte	0x5
 493 006a 06050000 		.4byte	.LASF7
 494 006e 04       		.uleb128 0x4
 495 006f 02       		.byte	0x2
 496 0070 07       		.byte	0x7
 497 0071 B6020000 		.4byte	.LASF8
 498 0075 03       		.uleb128 0x3
 499 0076 DC050000 		.4byte	.LASF9
 500 007a 08       		.byte	0x8
ARM GAS  /tmp/ccLmd5D2.s 			page 10


 501 007b 4D       		.byte	0x4d
 502 007c 18       		.byte	0x18
 503 007d 81000000 		.4byte	0x81
 504 0081 04       		.uleb128 0x4
 505 0082 04       		.byte	0x4
 506 0083 05       		.byte	0x5
 507 0084 A3010000 		.4byte	.LASF10
 508 0088 03       		.uleb128 0x3
 509 0089 0C020000 		.4byte	.LASF11
 510 008d 08       		.byte	0x8
 511 008e 4F       		.byte	0x4f
 512 008f 19       		.byte	0x19
 513 0090 94000000 		.4byte	0x94
 514 0094 04       		.uleb128 0x4
 515 0095 04       		.byte	0x4
 516 0096 07       		.byte	0x7
 517 0097 9E050000 		.4byte	.LASF12
 518 009b 03       		.uleb128 0x3
 519 009c 81040000 		.4byte	.LASF13
 520 00a0 08       		.byte	0x8
 521 00a1 69       		.byte	0x69
 522 00a2 19       		.byte	0x19
 523 00a3 A7000000 		.4byte	0xa7
 524 00a7 04       		.uleb128 0x4
 525 00a8 08       		.byte	0x8
 526 00a9 07       		.byte	0x7
 527 00aa 97000000 		.4byte	.LASF14
 528 00ae 03       		.uleb128 0x3
 529 00af BE060000 		.4byte	.LASF15
 530 00b3 09       		.byte	0x9
 531 00b4 18       		.byte	0x18
 532 00b5 13       		.byte	0x13
 533 00b6 54000000 		.4byte	0x54
 534 00ba 05       		.uleb128 0x5
 535 00bb AE000000 		.4byte	0xae
 536 00bf 03       		.uleb128 0x3
 537 00c0 E9040000 		.4byte	.LASF16
 538 00c4 09       		.byte	0x9
 539 00c5 2C       		.byte	0x2c
 540 00c6 13       		.byte	0x13
 541 00c7 75000000 		.4byte	0x75
 542 00cb 03       		.uleb128 0x3
 543 00cc 78050000 		.4byte	.LASF17
 544 00d0 09       		.byte	0x9
 545 00d1 30       		.byte	0x30
 546 00d2 14       		.byte	0x14
 547 00d3 88000000 		.4byte	0x88
 548 00d7 03       		.uleb128 0x3
 549 00d8 41000000 		.4byte	.LASF18
 550 00dc 09       		.byte	0x9
 551 00dd 3C       		.byte	0x3c
 552 00de 14       		.byte	0x14
 553 00df 9B000000 		.4byte	0x9b
 554 00e3 06       		.uleb128 0x6
 555 00e4 D7000000 		.4byte	0xd7
 556 00e8 03       		.uleb128 0x3
 557 00e9 88050000 		.4byte	.LASF19
ARM GAS  /tmp/ccLmd5D2.s 			page 11


 558 00ed 0A       		.byte	0xa
 559 00ee 48       		.byte	0x48
 560 00ef 1D       		.byte	0x1d
 561 00f0 D7000000 		.4byte	0xd7
 562 00f4 03       		.uleb128 0x3
 563 00f5 57030000 		.4byte	.LASF20
 564 00f9 0B       		.byte	0xb
 565 00fa 50       		.byte	0x50
 566 00fb 19       		.byte	0x19
 567 00fc E8000000 		.4byte	0xe8
 568 0100 03       		.uleb128 0x3
 569 0101 F7020000 		.4byte	.LASF21
 570 0105 0B       		.byte	0xb
 571 0106 53       		.byte	0x53
 572 0107 19       		.byte	0x19
 573 0108 AE000000 		.4byte	0xae
 574 010c 03       		.uleb128 0x3
 575 010d C2010000 		.4byte	.LASF22
 576 0111 0B       		.byte	0xb
 577 0112 54       		.byte	0x54
 578 0113 19       		.byte	0x19
 579 0114 AE000000 		.4byte	0xae
 580 0118 03       		.uleb128 0x3
 581 0119 9B040000 		.4byte	.LASF23
 582 011d 0B       		.byte	0xb
 583 011e 55       		.byte	0x55
 584 011f 19       		.byte	0x19
 585 0120 AE000000 		.4byte	0xae
 586 0124 03       		.uleb128 0x3
 587 0125 CB040000 		.4byte	.LASF24
 588 0129 0B       		.byte	0xb
 589 012a 57       		.byte	0x57
 590 012b 19       		.byte	0x19
 591 012c CB000000 		.4byte	0xcb
 592 0130 03       		.uleb128 0x3
 593 0131 D3020000 		.4byte	.LASF25
 594 0135 0B       		.byte	0xb
 595 0136 58       		.byte	0x58
 596 0137 19       		.byte	0x19
 597 0138 BF000000 		.4byte	0xbf
 598 013c 03       		.uleb128 0x3
 599 013d 4B030000 		.4byte	.LASF26
 600 0141 0B       		.byte	0xb
 601 0142 5A       		.byte	0x5a
 602 0143 19       		.byte	0x19
 603 0144 CB000000 		.4byte	0xcb
 604 0148 03       		.uleb128 0x3
 605 0149 5F020000 		.4byte	.LASF27
 606 014d 0B       		.byte	0xb
 607 014e 5C       		.byte	0x5c
 608 014f 19       		.byte	0x19
 609 0150 BF000000 		.4byte	0xbf
 610 0154 03       		.uleb128 0x3
 611 0155 91040000 		.4byte	.LASF28
 612 0159 0B       		.byte	0xb
 613 015a 80       		.byte	0x80
 614 015b 12       		.byte	0x12
ARM GAS  /tmp/ccLmd5D2.s 			page 12


 615 015c 38000000 		.4byte	0x38
 616 0160 03       		.uleb128 0x3
 617 0161 C3050000 		.4byte	.LASF29
 618 0165 0B       		.byte	0xb
 619 0166 85       		.byte	0x85
 620 0167 1A       		.byte	0x1a
 621 0168 6C010000 		.4byte	0x16c
 622 016c 07       		.uleb128 0x7
 623 016d C9020000 		.4byte	.LASF44
 624 0171 48       		.byte	0x48
 625 0172 0C       		.byte	0xc
 626 0173 9C       		.byte	0x9c
 627 0174 08       		.byte	0x8
 628 0175 4F020000 		.4byte	0x24f
 629 0179 08       		.uleb128 0x8
 630 017a 68647200 		.ascii	"hdr\000"
 631 017e 0C       		.byte	0xc
 632 017f AD       		.byte	0xad
 633 0180 05       		.byte	0x5
 634 0181 81050000 		.4byte	0x581
 635 0185 00       		.byte	0
 636 0186 08       		.uleb128 0x8
 637 0187 63747800 		.ascii	"ctx\000"
 638 018b 0C       		.byte	0xc
 639 018c B1       		.byte	0xb1
 640 018d 21       		.byte	0x21
 641 018e DE040000 		.4byte	0x4de
 642 0192 0C       		.byte	0xc
 643 0193 09       		.uleb128 0x9
 644 0194 7F020000 		.4byte	.LASF30
 645 0198 0C       		.byte	0xc
 646 0199 B6       		.byte	0xb6
 647 019a 21       		.byte	0x21
 648 019b 90030000 		.4byte	0x390
 649 019f 10       		.byte	0x10
 650 01a0 09       		.uleb128 0x9
 651 01a1 98050000 		.4byte	.LASF31
 652 01a5 0C       		.byte	0xc
 653 01a6 BB       		.byte	0xbb
 654 01a7 22       		.byte	0x22
 655 01a8 8E060000 		.4byte	0x68e
 656 01ac 18       		.byte	0x18
 657 01ad 09       		.uleb128 0x9
 658 01ae 9A020000 		.4byte	.LASF32
 659 01b2 0C       		.byte	0xc
 660 01b3 C0       		.byte	0xc0
 661 01b4 22       		.byte	0x22
 662 01b5 28030000 		.4byte	0x328
 663 01b9 1C       		.byte	0x1c
 664 01ba 09       		.uleb128 0x9
 665 01bb B0050000 		.4byte	.LASF33
 666 01bf 0C       		.byte	0xc
 667 01c0 C9       		.byte	0xc9
 668 01c1 22       		.byte	0x22
 669 01c2 94060000 		.4byte	0x694
 670 01c6 20       		.byte	0x20
 671 01c7 09       		.uleb128 0x9
ARM GAS  /tmp/ccLmd5D2.s 			page 13


 672 01c8 9D010000 		.4byte	.LASF34
 673 01cc 0C       		.byte	0xc
 674 01cd CE       		.byte	0xce
 675 01ce 21       		.byte	0x21
 676 01cf 0C010000 		.4byte	0x10c
 677 01d3 24       		.byte	0x24
 678 01d4 09       		.uleb128 0x9
 679 01d5 C6060000 		.4byte	.LASF35
 680 01d9 0C       		.byte	0xc
 681 01da D2       		.byte	0xd2
 682 01db 21       		.byte	0x21
 683 01dc 00010000 		.4byte	0x100
 684 01e0 25       		.byte	0x25
 685 01e1 09       		.uleb128 0x9
 686 01e2 EE000000 		.4byte	.LASF36
 687 01e6 0C       		.byte	0xc
 688 01e7 D7       		.byte	0xd7
 689 01e8 21       		.byte	0x21
 690 01e9 18010000 		.4byte	0x118
 691 01ed 26       		.byte	0x26
 692 01ee 0A       		.uleb128 0xa
 693 01ef 7500     		.ascii	"u\000"
 694 01f1 0C       		.byte	0xc
 695 01f2 2801     		.2byte	0x128
 696 01f4 21       		.byte	0x21
 697 01f5 AF050000 		.4byte	0x5af
 698 01f9 28       		.byte	0x28
 699 01fa 0B       		.uleb128 0xb
 700 01fb 1C020000 		.4byte	.LASF37
 701 01ff 0C       		.byte	0xc
 702 0200 2D01     		.2byte	0x12d
 703 0202 21       		.byte	0x21
 704 0203 63030000 		.4byte	0x363
 705 0207 2C       		.byte	0x2c
 706 0208 0B       		.uleb128 0xb
 707 0209 82010000 		.4byte	.LASF38
 708 020d 0C       		.byte	0xc
 709 020e 3301     		.2byte	0x133
 710 0210 21       		.byte	0x21
 711 0211 90030000 		.4byte	0x390
 712 0215 30       		.byte	0x30
 713 0216 0B       		.uleb128 0xb
 714 0217 D9020000 		.4byte	.LASF39
 715 021b 0C       		.byte	0xc
 716 021c 3901     		.2byte	0x139
 717 021e 21       		.byte	0x21
 718 021f 3C010000 		.4byte	0x13c
 719 0223 38       		.byte	0x38
 720 0224 0B       		.uleb128 0xb
 721 0225 C3040000 		.4byte	.LASF40
 722 0229 0C       		.byte	0xc
 723 022a 4001     		.2byte	0x140
 724 022c 22       		.byte	0x22
 725 022d 88060000 		.4byte	0x688
 726 0231 3C       		.byte	0x3c
 727 0232 0B       		.uleb128 0xb
 728 0233 9F030000 		.4byte	.LASF41
ARM GAS  /tmp/ccLmd5D2.s 			page 14


 729 0237 0C       		.byte	0xc
 730 0238 4401     		.2byte	0x144
 731 023a 21       		.byte	0x21
 732 023b 24010000 		.4byte	0x124
 733 023f 40       		.byte	0x40
 734 0240 0B       		.uleb128 0xb
 735 0241 A5020000 		.4byte	.LASF42
 736 0245 0C       		.byte	0xc
 737 0246 4B01     		.2byte	0x14b
 738 0248 22       		.byte	0x22
 739 0249 00050000 		.4byte	0x500
 740 024d 44       		.byte	0x44
 741 024e 00       		.byte	0
 742 024f 03       		.uleb128 0x3
 743 0250 14060000 		.4byte	.LASF43
 744 0254 0B       		.byte	0xb
 745 0255 8A       		.byte	0x8a
 746 0256 1F       		.byte	0x1f
 747 0257 5B020000 		.4byte	0x25b
 748 025b 0C       		.uleb128 0xc
 749 025c 05060000 		.4byte	.LASF45
 750 0260 88       		.byte	0x88
 751 0261 0C       		.byte	0xc
 752 0262 8A01     		.2byte	0x18a
 753 0264 08       		.byte	0x8
 754 0265 DA020000 		.4byte	0x2da
 755 0269 0B       		.uleb128 0xb
 756 026a AA060000 		.4byte	.LASF46
 757 026e 0C       		.byte	0xc
 758 026f 8E01     		.2byte	0x18e
 759 0271 21       		.byte	0x21
 760 0272 C5060000 		.4byte	0x6c5
 761 0276 00       		.byte	0
 762 0277 0B       		.uleb128 0xb
 763 0278 58010000 		.4byte	.LASF47
 764 027c 0C       		.byte	0xc
 765 027d 9201     		.2byte	0x192
 766 027f 21       		.byte	0x21
 767 0280 3C050000 		.4byte	0x53c
 768 0284 10       		.byte	0x10
 769 0285 0B       		.uleb128 0xb
 770 0286 22060000 		.4byte	.LASF48
 771 028a 0C       		.byte	0xc
 772 028b 9901     		.2byte	0x199
 773 028d 21       		.byte	0x21
 774 028e 63050000 		.4byte	0x563
 775 0292 28       		.byte	0x28
 776 0293 0B       		.uleb128 0xb
 777 0294 74000000 		.4byte	.LASF49
 778 0298 0C       		.byte	0xc
 779 0299 9E01     		.2byte	0x19e
 780 029b 21       		.byte	0x21
 781 029c 54010000 		.4byte	0x154
 782 02a0 30       		.byte	0x30
 783 02a1 0B       		.uleb128 0xb
 784 02a2 0D000000 		.4byte	.LASF50
 785 02a6 0C       		.byte	0xc
ARM GAS  /tmp/ccLmd5D2.s 			page 15


 786 02a7 A401     		.2byte	0x1a4
 787 02a9 21       		.byte	0x21
 788 02aa 01030000 		.4byte	0x301
 789 02ae 34       		.byte	0x34
 790 02af 0B       		.uleb128 0xb
 791 02b0 BC050000 		.4byte	.LASF51
 792 02b4 0C       		.byte	0xc
 793 02b5 A901     		.2byte	0x1a9
 794 02b7 22       		.byte	0x22
 795 02b8 39070000 		.4byte	0x739
 796 02bc 38       		.byte	0x38
 797 02bd 0B       		.uleb128 0xb
 798 02be B7000000 		.4byte	.LASF52
 799 02c2 0C       		.byte	0xc
 800 02c3 AD01     		.2byte	0x1ad
 801 02c5 21       		.byte	0x21
 802 02c6 60010000 		.4byte	0x160
 803 02ca 3C       		.byte	0x3c
 804 02cb 0A       		.uleb128 0xa
 805 02cc 64626700 		.ascii	"dbg\000"
 806 02d0 0C       		.byte	0xc
 807 02d1 B101     		.2byte	0x1b1
 808 02d3 21       		.byte	0x21
 809 02d4 3F030000 		.4byte	0x33f
 810 02d8 84       		.byte	0x84
 811 02d9 00       		.byte	0
 812 02da 03       		.uleb128 0x3
 813 02db A8030000 		.4byte	.LASF53
 814 02df 0D       		.byte	0xd
 815 02e0 3F       		.byte	0x3f
 816 02e1 12       		.byte	0x12
 817 02e2 CB000000 		.4byte	0xcb
 818 02e6 07       		.uleb128 0x7
 819 02e7 CB010000 		.4byte	.LASF54
 820 02eb 04       		.byte	0x4
 821 02ec 0D       		.byte	0xd
 822 02ed 44       		.byte	0x44
 823 02ee 10       		.byte	0x10
 824 02ef 01030000 		.4byte	0x301
 825 02f3 09       		.uleb128 0x9
 826 02f4 17020000 		.4byte	.LASF55
 827 02f8 0D       		.byte	0xd
 828 02f9 48       		.byte	0x48
 829 02fa 21       		.byte	0x21
 830 02fb DA020000 		.4byte	0x2da
 831 02ff 00       		.byte	0
 832 0300 00       		.byte	0
 833 0301 03       		.uleb128 0x3
 834 0302 FF040000 		.4byte	.LASF56
 835 0306 0D       		.byte	0xd
 836 0307 49       		.byte	0x49
 837 0308 03       		.byte	0x3
 838 0309 E6020000 		.4byte	0x2e6
 839 030d 07       		.uleb128 0x7
 840 030e D3040000 		.4byte	.LASF57
 841 0312 04       		.byte	0x4
 842 0313 0E       		.byte	0xe
ARM GAS  /tmp/ccLmd5D2.s 			page 16


 843 0314 3E       		.byte	0x3e
 844 0315 10       		.byte	0x10
 845 0316 28030000 		.4byte	0x328
 846 031a 09       		.uleb128 0x9
 847 031b F4050000 		.4byte	.LASF58
 848 031f 0E       		.byte	0xe
 849 0320 46       		.byte	0x46
 850 0321 24       		.byte	0x24
 851 0322 2E030000 		.4byte	0x32e
 852 0326 00       		.byte	0
 853 0327 00       		.byte	0
 854 0328 0D       		.uleb128 0xd
 855 0329 04       		.byte	0x4
 856 032a 3A030000 		.4byte	0x33a
 857 032e 06       		.uleb128 0x6
 858 032f 28030000 		.4byte	0x328
 859 0333 04       		.uleb128 0x4
 860 0334 01       		.byte	0x1
 861 0335 08       		.byte	0x8
 862 0336 B7050000 		.4byte	.LASF59
 863 033a 05       		.uleb128 0x5
 864 033b 33030000 		.4byte	0x333
 865 033f 03       		.uleb128 0x3
 866 0340 65000000 		.4byte	.LASF60
 867 0344 0E       		.byte	0xe
 868 0345 51       		.byte	0x51
 869 0346 03       		.byte	0x3
 870 0347 0D030000 		.4byte	0x30d
 871 034b 03       		.uleb128 0x3
 872 034c D2050000 		.4byte	.LASF61
 873 0350 0F       		.byte	0xf
 874 0351 6D       		.byte	0x6d
 875 0352 12       		.byte	0x12
 876 0353 CB000000 		.4byte	0xcb
 877 0357 03       		.uleb128 0x3
 878 0358 51020000 		.4byte	.LASF62
 879 035c 0F       		.byte	0xf
 880 035d 79       		.byte	0x79
 881 035e 12       		.byte	0x12
 882 035f CB000000 		.4byte	0xcb
 883 0363 03       		.uleb128 0x3
 884 0364 05040000 		.4byte	.LASF63
 885 0368 10       		.byte	0x10
 886 0369 32       		.byte	0x32
 887 036a 18       		.byte	0x18
 888 036b 6F030000 		.4byte	0x36f
 889 036f 07       		.uleb128 0x7
 890 0370 FF020000 		.4byte	.LASF64
 891 0374 04       		.byte	0x4
 892 0375 10       		.byte	0x10
 893 0376 38       		.byte	0x38
 894 0377 08       		.byte	0x8
 895 0378 8A030000 		.4byte	0x38a
 896 037c 09       		.uleb128 0x9
 897 037d E0000000 		.4byte	.LASF65
 898 0381 10       		.byte	0x10
 899 0382 39       		.byte	0x39
ARM GAS  /tmp/ccLmd5D2.s 			page 17


 900 0383 1A       		.byte	0x1a
 901 0384 8A030000 		.4byte	0x38a
 902 0388 00       		.byte	0
 903 0389 00       		.byte	0
 904 038a 0D       		.uleb128 0xd
 905 038b 04       		.byte	0x4
 906 038c 63030000 		.4byte	0x363
 907 0390 03       		.uleb128 0x3
 908 0391 86020000 		.4byte	.LASF66
 909 0395 10       		.byte	0x10
 910 0396 3F       		.byte	0x3f
 911 0397 19       		.byte	0x19
 912 0398 9C030000 		.4byte	0x39c
 913 039c 07       		.uleb128 0x7
 914 039d D3010000 		.4byte	.LASF67
 915 03a1 08       		.byte	0x8
 916 03a2 10       		.byte	0x10
 917 03a3 45       		.byte	0x45
 918 03a4 08       		.byte	0x8
 919 03a5 C4030000 		.4byte	0x3c4
 920 03a9 09       		.uleb128 0x9
 921 03aa E0000000 		.4byte	.LASF65
 922 03ae 10       		.byte	0x10
 923 03af 46       		.byte	0x46
 924 03b0 1A       		.byte	0x1a
 925 03b1 C4030000 		.4byte	0x3c4
 926 03b5 00       		.byte	0
 927 03b6 09       		.uleb128 0x9
 928 03b7 54000000 		.4byte	.LASF68
 929 03bb 10       		.byte	0x10
 930 03bc 47       		.byte	0x47
 931 03bd 1A       		.byte	0x1a
 932 03be C4030000 		.4byte	0x3c4
 933 03c2 04       		.byte	0x4
 934 03c3 00       		.byte	0
 935 03c4 0D       		.uleb128 0xd
 936 03c5 04       		.byte	0x4
 937 03c6 90030000 		.4byte	0x390
 938 03ca 03       		.uleb128 0x3
 939 03cb 83000000 		.4byte	.LASF69
 940 03cf 10       		.byte	0x10
 941 03d0 4E       		.byte	0x4e
 942 03d1 22       		.byte	0x22
 943 03d2 D6030000 		.4byte	0x3d6
 944 03d6 07       		.uleb128 0x7
 945 03d7 2A060000 		.4byte	.LASF70
 946 03db 0C       		.byte	0xc
 947 03dc 10       		.byte	0x10
 948 03dd 55       		.byte	0x55
 949 03de 08       		.byte	0x8
 950 03df 0B040000 		.4byte	0x40b
 951 03e3 09       		.uleb128 0x9
 952 03e4 E0000000 		.4byte	.LASF65
 953 03e8 10       		.byte	0x10
 954 03e9 56       		.byte	0x56
 955 03ea 1A       		.byte	0x1a
 956 03eb 0B040000 		.4byte	0x40b
ARM GAS  /tmp/ccLmd5D2.s 			page 18


 957 03ef 00       		.byte	0
 958 03f0 09       		.uleb128 0x9
 959 03f1 54000000 		.4byte	.LASF68
 960 03f5 10       		.byte	0x10
 961 03f6 57       		.byte	0x57
 962 03f7 1A       		.byte	0x1a
 963 03f8 0B040000 		.4byte	0x40b
 964 03fc 04       		.byte	0x4
 965 03fd 09       		.uleb128 0x9
 966 03fe 69040000 		.4byte	.LASF71
 967 0402 10       		.byte	0x10
 968 0403 58       		.byte	0x58
 969 0404 19       		.byte	0x19
 970 0405 24010000 		.4byte	0x124
 971 0409 08       		.byte	0x8
 972 040a 00       		.byte	0
 973 040b 0D       		.uleb128 0xd
 974 040c 04       		.byte	0x4
 975 040d CA030000 		.4byte	0x3ca
 976 0411 03       		.uleb128 0x3
 977 0412 EB010000 		.4byte	.LASF72
 978 0416 10       		.byte	0x10
 979 0417 5F       		.byte	0x5f
 980 0418 1E       		.byte	0x1e
 981 0419 1D040000 		.4byte	0x41d
 982 041d 07       		.uleb128 0x7
 983 041e 2A010000 		.4byte	.LASF73
 984 0422 0C       		.byte	0xc
 985 0423 10       		.byte	0x10
 986 0424 64       		.byte	0x64
 987 0425 08       		.byte	0x8
 988 0426 52040000 		.4byte	0x452
 989 042a 09       		.uleb128 0x9
 990 042b E0000000 		.4byte	.LASF65
 991 042f 10       		.byte	0x10
 992 0430 65       		.byte	0x65
 993 0431 1A       		.byte	0x1a
 994 0432 52040000 		.4byte	0x452
 995 0436 00       		.byte	0
 996 0437 09       		.uleb128 0x9
 997 0438 54000000 		.4byte	.LASF68
 998 043c 10       		.byte	0x10
 999 043d 66       		.byte	0x66
 1000 043e 1A       		.byte	0x1a
 1001 043f 52040000 		.4byte	0x452
 1002 0443 04       		.byte	0x4
 1003 0444 09       		.uleb128 0x9
 1004 0445 19000000 		.4byte	.LASF74
 1005 0449 10       		.byte	0x10
 1006 044a 67       		.byte	0x67
 1007 044b 19       		.byte	0x19
 1008 044c 57030000 		.4byte	0x357
 1009 0450 08       		.byte	0x8
 1010 0451 00       		.byte	0
 1011 0452 0D       		.uleb128 0xd
 1012 0453 04       		.byte	0x4
 1013 0454 11040000 		.4byte	0x411
ARM GAS  /tmp/ccLmd5D2.s 			page 19


 1014 0458 0C       		.uleb128 0xc
 1015 0459 59000000 		.4byte	.LASF75
 1016 045d 24       		.byte	0x24
 1017 045e 06       		.byte	0x6
 1018 045f E001     		.2byte	0x1e0
 1019 0461 08       		.byte	0x8
 1020 0462 DE040000 		.4byte	0x4de
 1021 0466 0A       		.uleb128 0xa
 1022 0467 723400   		.ascii	"r4\000"
 1023 046a 06       		.byte	0x6
 1024 046b F901     		.2byte	0x1f9
 1025 046d 11       		.byte	0x11
 1026 046e CB000000 		.4byte	0xcb
 1027 0472 00       		.byte	0
 1028 0473 0A       		.uleb128 0xa
 1029 0474 723500   		.ascii	"r5\000"
 1030 0477 06       		.byte	0x6
 1031 0478 FA01     		.2byte	0x1fa
 1032 047a 11       		.byte	0x11
 1033 047b CB000000 		.4byte	0xcb
 1034 047f 04       		.byte	0x4
 1035 0480 0A       		.uleb128 0xa
 1036 0481 723600   		.ascii	"r6\000"
 1037 0484 06       		.byte	0x6
 1038 0485 FB01     		.2byte	0x1fb
 1039 0487 11       		.byte	0x11
 1040 0488 CB000000 		.4byte	0xcb
 1041 048c 08       		.byte	0x8
 1042 048d 0A       		.uleb128 0xa
 1043 048e 723700   		.ascii	"r7\000"
 1044 0491 06       		.byte	0x6
 1045 0492 FC01     		.2byte	0x1fc
 1046 0494 11       		.byte	0x11
 1047 0495 CB000000 		.4byte	0xcb
 1048 0499 0C       		.byte	0xc
 1049 049a 0A       		.uleb128 0xa
 1050 049b 723800   		.ascii	"r8\000"
 1051 049e 06       		.byte	0x6
 1052 049f FD01     		.2byte	0x1fd
 1053 04a1 11       		.byte	0x11
 1054 04a2 CB000000 		.4byte	0xcb
 1055 04a6 10       		.byte	0x10
 1056 04a7 0A       		.uleb128 0xa
 1057 04a8 723900   		.ascii	"r9\000"
 1058 04ab 06       		.byte	0x6
 1059 04ac FE01     		.2byte	0x1fe
 1060 04ae 11       		.byte	0x11
 1061 04af CB000000 		.4byte	0xcb
 1062 04b3 14       		.byte	0x14
 1063 04b4 0A       		.uleb128 0xa
 1064 04b5 72313000 		.ascii	"r10\000"
 1065 04b9 06       		.byte	0x6
 1066 04ba FF01     		.2byte	0x1ff
 1067 04bc 11       		.byte	0x11
 1068 04bd CB000000 		.4byte	0xcb
 1069 04c1 18       		.byte	0x18
 1070 04c2 0A       		.uleb128 0xa
ARM GAS  /tmp/ccLmd5D2.s 			page 20


 1071 04c3 72313100 		.ascii	"r11\000"
 1072 04c7 06       		.byte	0x6
 1073 04c8 0002     		.2byte	0x200
 1074 04ca 11       		.byte	0x11
 1075 04cb CB000000 		.4byte	0xcb
 1076 04cf 1C       		.byte	0x1c
 1077 04d0 0A       		.uleb128 0xa
 1078 04d1 6C7200   		.ascii	"lr\000"
 1079 04d4 06       		.byte	0x6
 1080 04d5 0102     		.2byte	0x201
 1081 04d7 11       		.byte	0x11
 1082 04d8 CB000000 		.4byte	0xcb
 1083 04dc 20       		.byte	0x20
 1084 04dd 00       		.byte	0
 1085 04de 0C       		.uleb128 0xc
 1086 04df 44040000 		.4byte	.LASF76
 1087 04e3 04       		.byte	0x4
 1088 04e4 06       		.byte	0x6
 1089 04e5 0A02     		.2byte	0x20a
 1090 04e7 08       		.byte	0x8
 1091 04e8 FA040000 		.4byte	0x4fa
 1092 04ec 0A       		.uleb128 0xa
 1093 04ed 737000   		.ascii	"sp\000"
 1094 04f0 06       		.byte	0x6
 1095 04f1 0B02     		.2byte	0x20b
 1096 04f3 1A       		.byte	0x1a
 1097 04f4 FA040000 		.4byte	0x4fa
 1098 04f8 00       		.byte	0
 1099 04f9 00       		.byte	0
 1100 04fa 0D       		.uleb128 0xd
 1101 04fb 04       		.byte	0x4
 1102 04fc 58040000 		.4byte	0x458
 1103 0500 0E       		.uleb128 0xe
 1104 0501 04       		.byte	0x4
 1105 0502 05       		.uleb128 0x5
 1106 0503 00050000 		.4byte	0x500
 1107 0507 07       		.uleb128 0x7
 1108 0508 E2030000 		.4byte	.LASF77
 1109 050c 18       		.byte	0x18
 1110 050d 0C       		.byte	0xc
 1111 050e 64       		.byte	0x64
 1112 050f 10       		.byte	0x10
 1113 0510 3C050000 		.4byte	0x53c
 1114 0514 09       		.uleb128 0x9
 1115 0515 CC050000 		.4byte	.LASF78
 1116 0519 0C       		.byte	0xc
 1117 051a 68       		.byte	0x68
 1118 051b 21       		.byte	0x21
 1119 051c 11040000 		.4byte	0x411
 1120 0520 00       		.byte	0
 1121 0521 09       		.uleb128 0x9
 1122 0522 10050000 		.4byte	.LASF79
 1123 0526 0C       		.byte	0xc
 1124 0527 73       		.byte	0x73
 1125 0528 21       		.byte	0x21
 1126 0529 4B030000 		.4byte	0x34b
 1127 052d 0C       		.byte	0xc
ARM GAS  /tmp/ccLmd5D2.s 			page 21


 1128 052e 09       		.uleb128 0x9
 1129 052f 8F030000 		.4byte	.LASF80
 1130 0533 0C       		.byte	0xc
 1131 0534 79       		.byte	0x79
 1132 0535 21       		.byte	0x21
 1133 0536 E3000000 		.4byte	0xe3
 1134 053a 10       		.byte	0x10
 1135 053b 00       		.byte	0
 1136 053c 03       		.uleb128 0x3
 1137 053d CA000000 		.4byte	.LASF81
 1138 0541 0C       		.byte	0xc
 1139 0542 7B       		.byte	0x7b
 1140 0543 03       		.byte	0x3
 1141 0544 07050000 		.4byte	0x507
 1142 0548 07       		.uleb128 0x7
 1143 0549 00020000 		.4byte	.LASF82
 1144 054d 08       		.byte	0x8
 1145 054e 0C       		.byte	0xc
 1146 054f 80       		.byte	0x80
 1147 0550 10       		.byte	0x10
 1148 0551 63050000 		.4byte	0x563
 1149 0555 09       		.uleb128 0x9
 1150 0556 9F020000 		.4byte	.LASF83
 1151 055a 0C       		.byte	0xc
 1152 055b 84       		.byte	0x84
 1153 055c 21       		.byte	0x21
 1154 055d 90030000 		.4byte	0x390
 1155 0561 00       		.byte	0
 1156 0562 00       		.byte	0
 1157 0563 03       		.uleb128 0x3
 1158 0564 6D050000 		.4byte	.LASF84
 1159 0568 0C       		.byte	0xc
 1160 0569 85       		.byte	0x85
 1161 056a 03       		.byte	0x3
 1162 056b 48050000 		.4byte	0x548
 1163 056f 03       		.uleb128 0x3
 1164 0570 CF030000 		.4byte	.LASF85
 1165 0574 0C       		.byte	0xc
 1166 0575 8A       		.byte	0x8a
 1167 0576 14       		.byte	0x14
 1168 0577 7B050000 		.4byte	0x57b
 1169 057b 0D       		.uleb128 0xd
 1170 057c 04       		.byte	0x4
 1171 057d 60010000 		.4byte	0x160
 1172 0581 0F       		.uleb128 0xf
 1173 0582 0C       		.byte	0xc
 1174 0583 0C       		.byte	0xc
 1175 0584 A0       		.byte	0xa0
 1176 0585 03       		.byte	0x3
 1177 0586 AF050000 		.4byte	0x5af
 1178 058a 10       		.uleb128 0x10
 1179 058b AE070000 		.4byte	.LASF86
 1180 058f 0C       		.byte	0xc
 1181 0590 A4       		.byte	0xa4
 1182 0591 21       		.byte	0x21
 1183 0592 63030000 		.4byte	0x363
 1184 0596 10       		.uleb128 0x10
ARM GAS  /tmp/ccLmd5D2.s 			page 22


 1185 0597 9F020000 		.4byte	.LASF83
 1186 059b 0C       		.byte	0xc
 1187 059c A8       		.byte	0xa8
 1188 059d 21       		.byte	0x21
 1189 059e 90030000 		.4byte	0x390
 1190 05a2 10       		.uleb128 0x10
 1191 05a3 FE050000 		.4byte	.LASF87
 1192 05a7 0C       		.byte	0xc
 1193 05a8 AC       		.byte	0xac
 1194 05a9 21       		.byte	0x21
 1195 05aa CA030000 		.4byte	0x3ca
 1196 05ae 00       		.byte	0
 1197 05af 0F       		.uleb128 0xf
 1198 05b0 04       		.byte	0x4
 1199 05b1 0C       		.byte	0xc
 1200 05b2 EB       		.byte	0xeb
 1201 05b3 03       		.byte	0x3
 1202 05b4 1F060000 		.4byte	0x61f
 1203 05b8 10       		.uleb128 0x10
 1204 05b9 1F000000 		.4byte	.LASF88
 1205 05bd 0C       		.byte	0xc
 1206 05be F2       		.byte	0xf2
 1207 05bf 21       		.byte	0x21
 1208 05c0 30010000 		.4byte	0x130
 1209 05c4 10       		.uleb128 0x10
 1210 05c5 AE000000 		.4byte	.LASF89
 1211 05c9 0C       		.byte	0xc
 1212 05ca F9       		.byte	0xf9
 1213 05cb 21       		.byte	0x21
 1214 05cc 30010000 		.4byte	0x130
 1215 05d0 11       		.uleb128 0x11
 1216 05d1 CC060000 		.4byte	.LASF90
 1217 05d5 0C       		.byte	0xc
 1218 05d6 0001     		.2byte	0x100
 1219 05d8 22       		.byte	0x22
 1220 05d9 00050000 		.4byte	0x500
 1221 05dd 11       		.uleb128 0x11
 1222 05de 79020000 		.4byte	.LASF91
 1223 05e2 0C       		.byte	0xc
 1224 05e3 0701     		.2byte	0x107
 1225 05e5 22       		.byte	0x22
 1226 05e6 1F060000 		.4byte	0x61f
 1227 05ea 11       		.uleb128 0x11
 1228 05eb C2000000 		.4byte	.LASF92
 1229 05ef 0C       		.byte	0xc
 1230 05f0 0C01     		.2byte	0x10c
 1231 05f2 21       		.byte	0x21
 1232 05f3 30010000 		.4byte	0x130
 1233 05f7 11       		.uleb128 0x11
 1234 05f8 72020000 		.4byte	.LASF93
 1235 05fc 0C       		.byte	0xc
 1236 05fd 1501     		.2byte	0x115
 1237 05ff 22       		.byte	0x22
 1238 0600 4D060000 		.4byte	0x64d
 1239 0604 11       		.uleb128 0x11
 1240 0605 81050000 		.4byte	.LASF94
 1241 0609 0C       		.byte	0xc
ARM GAS  /tmp/ccLmd5D2.s 			page 23


 1242 060a 1E01     		.2byte	0x11e
 1243 060c 22       		.byte	0x22
 1244 060d 88060000 		.4byte	0x688
 1245 0611 11       		.uleb128 0x11
 1246 0612 21050000 		.4byte	.LASF95
 1247 0616 0C       		.byte	0xc
 1248 0617 2601     		.2byte	0x126
 1249 0619 21       		.byte	0x21
 1250 061a 3C010000 		.4byte	0x13c
 1251 061e 00       		.byte	0
 1252 061f 0D       		.uleb128 0xd
 1253 0620 04       		.byte	0x4
 1254 0621 6F050000 		.4byte	0x56f
 1255 0625 07       		.uleb128 0x7
 1256 0626 60050000 		.4byte	.LASF96
 1257 062a 0C       		.byte	0xc
 1258 062b 11       		.byte	0x11
 1259 062c 34       		.byte	0x34
 1260 062d 10       		.byte	0x10
 1261 062e 4D060000 		.4byte	0x64d
 1262 0632 09       		.uleb128 0x9
 1263 0633 9F020000 		.4byte	.LASF83
 1264 0637 11       		.byte	0x11
 1265 0638 35       		.byte	0x35
 1266 0639 19       		.byte	0x19
 1267 063a 90030000 		.4byte	0x390
 1268 063e 00       		.byte	0
 1269 063f 08       		.uleb128 0x8
 1270 0640 636E7400 		.ascii	"cnt\000"
 1271 0644 11       		.byte	0x11
 1272 0645 37       		.byte	0x37
 1273 0646 19       		.byte	0x19
 1274 0647 48010000 		.4byte	0x148
 1275 064b 08       		.byte	0x8
 1276 064c 00       		.byte	0
 1277 064d 0D       		.uleb128 0xd
 1278 064e 04       		.byte	0x4
 1279 064f 25060000 		.4byte	0x625
 1280 0653 07       		.uleb128 0x7
 1281 0654 99060000 		.4byte	.LASF97
 1282 0658 10       		.byte	0x10
 1283 0659 12       		.byte	0x12
 1284 065a 39       		.byte	0x39
 1285 065b 08       		.byte	0x8
 1286 065c 88060000 		.4byte	0x688
 1287 0660 09       		.uleb128 0x9
 1288 0661 9F020000 		.4byte	.LASF83
 1289 0665 12       		.byte	0x12
 1290 0666 3A       		.byte	0x3a
 1291 0667 19       		.byte	0x19
 1292 0668 90030000 		.4byte	0x390
 1293 066c 00       		.byte	0
 1294 066d 09       		.uleb128 0x9
 1295 066e 98050000 		.4byte	.LASF31
 1296 0672 12       		.byte	0x12
 1297 0673 3C       		.byte	0x3c
 1298 0674 1A       		.byte	0x1a
ARM GAS  /tmp/ccLmd5D2.s 			page 24


 1299 0675 7B050000 		.4byte	0x57b
 1300 0679 08       		.byte	0x8
 1301 067a 09       		.uleb128 0x9
 1302 067b E0000000 		.4byte	.LASF65
 1303 067f 12       		.byte	0x12
 1304 0680 3E       		.byte	0x3e
 1305 0681 1A       		.byte	0x1a
 1306 0682 58070000 		.4byte	0x758
 1307 0686 0C       		.byte	0xc
 1308 0687 00       		.byte	0
 1309 0688 0D       		.uleb128 0xd
 1310 0689 04       		.byte	0x4
 1311 068a 53060000 		.4byte	0x653
 1312 068e 0D       		.uleb128 0xd
 1313 068f 04       		.byte	0x4
 1314 0690 4F020000 		.4byte	0x24f
 1315 0694 0D       		.uleb128 0xd
 1316 0695 04       		.byte	0x4
 1317 0696 F4000000 		.4byte	0xf4
 1318 069a 0C       		.uleb128 0xc
 1319 069b 3D030000 		.4byte	.LASF98
 1320 069f 10       		.byte	0x10
 1321 06a0 0C       		.byte	0xc
 1322 06a1 5C01     		.2byte	0x15c
 1323 06a3 10       		.byte	0x10
 1324 06a4 C5060000 		.4byte	0x6c5
 1325 06a8 0B       		.uleb128 0xb
 1326 06a9 FE050000 		.4byte	.LASF87
 1327 06ad 0C       		.byte	0xc
 1328 06ae 6101     		.2byte	0x161
 1329 06b0 21       		.byte	0x21
 1330 06b1 CA030000 		.4byte	0x3ca
 1331 06b5 00       		.byte	0
 1332 06b6 0B       		.uleb128 0xb
 1333 06b7 6E040000 		.4byte	.LASF99
 1334 06bb 0C       		.byte	0xc
 1335 06bc 6501     		.2byte	0x165
 1336 06be 22       		.byte	0x22
 1337 06bf 7B050000 		.4byte	0x57b
 1338 06c3 0C       		.byte	0xc
 1339 06c4 00       		.byte	0
 1340 06c5 12       		.uleb128 0x12
 1341 06c6 00000000 		.4byte	.LASF100
 1342 06ca 0C       		.byte	0xc
 1343 06cb 6601     		.2byte	0x166
 1344 06cd 03       		.byte	0x3
 1345 06ce 9A060000 		.4byte	0x69a
 1346 06d2 0C       		.uleb128 0xc
 1347 06d3 2E040000 		.4byte	.LASF101
 1348 06d7 14       		.byte	0x14
 1349 06d8 0C       		.byte	0xc
 1350 06d9 6B01     		.2byte	0x16b
 1351 06db 10       		.byte	0x10
 1352 06dc 27070000 		.4byte	0x727
 1353 06e0 0B       		.uleb128 0xb
 1354 06e1 9A020000 		.4byte	.LASF32
 1355 06e5 0C       		.byte	0xc
ARM GAS  /tmp/ccLmd5D2.s 			page 25


 1356 06e6 6F01     		.2byte	0x16f
 1357 06e8 22       		.byte	0x22
 1358 06e9 28030000 		.4byte	0x328
 1359 06ed 00       		.byte	0
 1360 06ee 0B       		.uleb128 0xb
 1361 06ef 24020000 		.4byte	.LASF102
 1362 06f3 0C       		.byte	0xc
 1363 06f4 7501     		.2byte	0x175
 1364 06f6 22       		.byte	0x22
 1365 06f7 94060000 		.4byte	0x694
 1366 06fb 04       		.byte	0x4
 1367 06fc 0B       		.uleb128 0xb
 1368 06fd 6B060000 		.4byte	.LASF103
 1369 0701 0C       		.byte	0xc
 1370 0702 7901     		.2byte	0x179
 1371 0704 22       		.byte	0x22
 1372 0705 94060000 		.4byte	0x694
 1373 0709 08       		.byte	0x8
 1374 070a 0B       		.uleb128 0xb
 1375 070b 7F030000 		.4byte	.LASF104
 1376 070f 0C       		.byte	0xc
 1377 0710 7F01     		.2byte	0x17f
 1378 0712 22       		.byte	0x22
 1379 0713 94060000 		.4byte	0x694
 1380 0717 0C       		.byte	0xc
 1381 0718 0B       		.uleb128 0xb
 1382 0719 BD070000 		.4byte	.LASF105
 1383 071d 0C       		.byte	0xc
 1384 071e 8301     		.2byte	0x183
 1385 0720 22       		.byte	0x22
 1386 0721 94060000 		.4byte	0x694
 1387 0725 10       		.byte	0x10
 1388 0726 00       		.byte	0
 1389 0727 12       		.uleb128 0x12
 1390 0728 84060000 		.4byte	.LASF106
 1391 072c 0C       		.byte	0xc
 1392 072d 8501     		.2byte	0x185
 1393 072f 03       		.byte	0x3
 1394 0730 D2060000 		.4byte	0x6d2
 1395 0734 05       		.uleb128 0x5
 1396 0735 27070000 		.4byte	0x727
 1397 0739 0D       		.uleb128 0xd
 1398 073a 04       		.byte	0x4
 1399 073b 34070000 		.4byte	0x734
 1400 073f 13       		.uleb128 0x13
 1401 0740 63683000 		.ascii	"ch0\000"
 1402 0744 05       		.byte	0x5
 1403 0745 4101     		.2byte	0x141
 1404 0747 16       		.byte	0x16
 1405 0748 4F020000 		.4byte	0x24f
 1406 074c 03       		.uleb128 0x3
 1407 074d 34020000 		.4byte	.LASF107
 1408 0751 12       		.byte	0x12
 1409 0752 34       		.byte	0x34
 1410 0753 19       		.byte	0x19
 1411 0754 53060000 		.4byte	0x653
 1412 0758 0D       		.uleb128 0xd
ARM GAS  /tmp/ccLmd5D2.s 			page 26


 1413 0759 04       		.byte	0x4
 1414 075a 4C070000 		.4byte	0x74c
 1415 075e 04       		.uleb128 0x4
 1416 075f 01       		.byte	0x1
 1417 0760 02       		.byte	0x2
 1418 0761 E3040000 		.4byte	.LASF108
 1419 0765 0D       		.uleb128 0xd
 1420 0766 04       		.byte	0x4
 1421 0767 AE000000 		.4byte	0xae
 1422 076b 07       		.uleb128 0x7
 1423 076c 28050000 		.4byte	.LASF109
 1424 0770 14       		.byte	0x14
 1425 0771 13       		.byte	0x13
 1426 0772 48       		.byte	0x48
 1427 0773 08       		.byte	0x8
 1428 0774 BA070000 		.4byte	0x7ba
 1429 0778 09       		.uleb128 0x9
 1430 0779 9E070000 		.4byte	.LASF110
 1431 077d 13       		.byte	0x13
 1432 077e 49       		.byte	0x49
 1433 077f 03       		.byte	0x3
 1434 0780 2C000000 		.4byte	0x2c
 1435 0784 00       		.byte	0
 1436 0785 09       		.uleb128 0x9
 1437 0786 99030000 		.4byte	.LASF111
 1438 078a 13       		.byte	0x13
 1439 078b 49       		.byte	0x49
 1440 078c 03       		.byte	0x3
 1441 078d DE070000 		.4byte	0x7de
 1442 0791 04       		.byte	0x4
 1443 0792 09       		.uleb128 0x9
 1444 0793 8C040000 		.4byte	.LASF112
 1445 0797 13       		.byte	0x13
 1446 0798 49       		.byte	0x49
 1447 0799 03       		.byte	0x3
 1448 079a FD070000 		.4byte	0x7fd
 1449 079e 08       		.byte	0x8
 1450 079f 08       		.uleb128 0x8
 1451 07a0 70757400 		.ascii	"put\000"
 1452 07a4 13       		.byte	0x13
 1453 07a5 49       		.byte	0x49
 1454 07a6 03       		.byte	0x3
 1455 07a7 17080000 		.4byte	0x817
 1456 07ab 0C       		.byte	0xc
 1457 07ac 08       		.uleb128 0x8
 1458 07ad 67657400 		.ascii	"get\000"
 1459 07b1 13       		.byte	0x13
 1460 07b2 49       		.byte	0x49
 1461 07b3 03       		.byte	0x3
 1462 07b4 2C080000 		.4byte	0x82c
 1463 07b8 10       		.byte	0x10
 1464 07b9 00       		.byte	0
 1465 07ba 05       		.uleb128 0x5
 1466 07bb 6B070000 		.4byte	0x76b
 1467 07bf 14       		.uleb128 0x14
 1468 07c0 2C000000 		.4byte	0x2c
 1469 07c4 D8070000 		.4byte	0x7d8
ARM GAS  /tmp/ccLmd5D2.s 			page 27


 1470 07c8 15       		.uleb128 0x15
 1471 07c9 00050000 		.4byte	0x500
 1472 07cd 15       		.uleb128 0x15
 1473 07ce D8070000 		.4byte	0x7d8
 1474 07d2 15       		.uleb128 0x15
 1475 07d3 2C000000 		.4byte	0x2c
 1476 07d7 00       		.byte	0
 1477 07d8 0D       		.uleb128 0xd
 1478 07d9 04       		.byte	0x4
 1479 07da BA000000 		.4byte	0xba
 1480 07de 0D       		.uleb128 0xd
 1481 07df 04       		.byte	0x4
 1482 07e0 BF070000 		.4byte	0x7bf
 1483 07e4 14       		.uleb128 0x14
 1484 07e5 2C000000 		.4byte	0x2c
 1485 07e9 FD070000 		.4byte	0x7fd
 1486 07ed 15       		.uleb128 0x15
 1487 07ee 00050000 		.4byte	0x500
 1488 07f2 15       		.uleb128 0x15
 1489 07f3 65070000 		.4byte	0x765
 1490 07f7 15       		.uleb128 0x15
 1491 07f8 2C000000 		.4byte	0x2c
 1492 07fc 00       		.byte	0
 1493 07fd 0D       		.uleb128 0xd
 1494 07fe 04       		.byte	0x4
 1495 07ff E4070000 		.4byte	0x7e4
 1496 0803 14       		.uleb128 0x14
 1497 0804 30010000 		.4byte	0x130
 1498 0808 17080000 		.4byte	0x817
 1499 080c 15       		.uleb128 0x15
 1500 080d 00050000 		.4byte	0x500
 1501 0811 15       		.uleb128 0x15
 1502 0812 AE000000 		.4byte	0xae
 1503 0816 00       		.byte	0
 1504 0817 0D       		.uleb128 0xd
 1505 0818 04       		.byte	0x4
 1506 0819 03080000 		.4byte	0x803
 1507 081d 14       		.uleb128 0x14
 1508 081e 30010000 		.4byte	0x130
 1509 0822 2C080000 		.4byte	0x82c
 1510 0826 15       		.uleb128 0x15
 1511 0827 00050000 		.4byte	0x500
 1512 082b 00       		.byte	0
 1513 082c 0D       		.uleb128 0xd
 1514 082d 04       		.byte	0x4
 1515 082e 1D080000 		.4byte	0x81d
 1516 0832 16       		.uleb128 0x16
 1517 0833 04       		.byte	0x4
 1518 0834 13       		.byte	0x13
 1519 0835 53       		.byte	0x53
 1520 0836 09       		.byte	0x9
 1521 0837 49080000 		.4byte	0x849
 1522 083b 08       		.uleb128 0x8
 1523 083c 766D7400 		.ascii	"vmt\000"
 1524 0840 13       		.byte	0x13
 1525 0841 55       		.byte	0x55
 1526 0842 29       		.byte	0x29
ARM GAS  /tmp/ccLmd5D2.s 			page 28


 1527 0843 49080000 		.4byte	0x849
 1528 0847 00       		.byte	0
 1529 0848 00       		.byte	0
 1530 0849 0D       		.uleb128 0xd
 1531 084a 04       		.byte	0x4
 1532 084b BA070000 		.4byte	0x7ba
 1533 084f 03       		.uleb128 0x3
 1534 0850 3C020000 		.4byte	.LASF113
 1535 0854 13       		.byte	0x13
 1536 0855 57       		.byte	0x57
 1537 0856 03       		.byte	0x3
 1538 0857 32080000 		.4byte	0x832
 1539 085b 03       		.uleb128 0x3
 1540 085c B4030000 		.4byte	.LASF114
 1541 0860 14       		.byte	0x14
 1542 0861 7D       		.byte	0x7d
 1543 0862 0F       		.byte	0xf
 1544 0863 67080000 		.4byte	0x867
 1545 0867 0D       		.uleb128 0xd
 1546 0868 04       		.byte	0x4
 1547 0869 6D080000 		.4byte	0x86d
 1548 086d 14       		.uleb128 0x14
 1549 086e 25000000 		.4byte	0x25
 1550 0872 7C080000 		.4byte	0x87c
 1551 0876 15       		.uleb128 0x15
 1552 0877 25000000 		.4byte	0x25
 1553 087b 00       		.byte	0
 1554 087c 16       		.uleb128 0x16
 1555 087d 28       		.byte	0x28
 1556 087e 14       		.byte	0x14
 1557 087f 82       		.byte	0x82
 1558 0880 09       		.byte	0x9
 1559 0881 EE080000 		.4byte	0x8ee
 1560 0885 09       		.uleb128 0x9
 1561 0886 0F040000 		.4byte	.LASF115
 1562 088a 14       		.byte	0x14
 1563 088b 86       		.byte	0x86
 1564 088c 15       		.byte	0x15
 1565 088d 38000000 		.4byte	0x38
 1566 0891 00       		.byte	0
 1567 0892 09       		.uleb128 0x9
 1568 0893 AC010000 		.4byte	.LASF116
 1569 0897 14       		.byte	0x14
 1570 0898 8A       		.byte	0x8a
 1571 0899 15       		.byte	0x15
 1572 089a 5E070000 		.4byte	0x75e
 1573 089e 04       		.byte	0x4
 1574 089f 09       		.uleb128 0x9
 1575 08a0 76040000 		.4byte	.LASF117
 1576 08a4 14       		.byte	0x14
 1577 08a5 8E       		.byte	0x8e
 1578 08a6 15       		.byte	0x15
 1579 08a7 5E070000 		.4byte	0x75e
 1580 08ab 05       		.byte	0x5
 1581 08ac 09       		.uleb128 0x9
 1582 08ad CC070000 		.4byte	.LASF118
 1583 08b1 14       		.byte	0x14
ARM GAS  /tmp/ccLmd5D2.s 			page 29


 1584 08b2 92       		.byte	0x92
 1585 08b3 16       		.byte	0x16
 1586 08b4 28030000 		.4byte	0x328
 1587 08b8 08       		.byte	0x8
 1588 08b9 09       		.uleb128 0x9
 1589 08ba FB010000 		.4byte	.LASF119
 1590 08be 14       		.byte	0x14
 1591 08bf 96       		.byte	0x96
 1592 08c0 16       		.byte	0x16
 1593 08c1 EE080000 		.4byte	0x8ee
 1594 08c5 0C       		.byte	0xc
 1595 08c6 09       		.uleb128 0x9
 1596 08c7 F3000000 		.4byte	.LASF120
 1597 08cb 14       		.byte	0x14
 1598 08cc 9A       		.byte	0x9a
 1599 08cd 15       		.byte	0x15
 1600 08ce F4080000 		.4byte	0x8f4
 1601 08d2 10       		.byte	0x10
 1602 08d3 09       		.uleb128 0x9
 1603 08d4 DC010000 		.4byte	.LASF121
 1604 08d8 14       		.byte	0x14
 1605 08d9 9E       		.byte	0x9e
 1606 08da 15       		.byte	0x15
 1607 08db 5B080000 		.4byte	0x85b
 1608 08df 20       		.byte	0x20
 1609 08e0 09       		.uleb128 0x9
 1610 08e1 7C000000 		.4byte	.LASF122
 1611 08e5 14       		.byte	0x14
 1612 08e6 A3       		.byte	0xa3
 1613 08e7 19       		.byte	0x19
 1614 08e8 04090000 		.4byte	0x904
 1615 08ec 24       		.byte	0x24
 1616 08ed 00       		.byte	0
 1617 08ee 0D       		.uleb128 0xd
 1618 08ef 04       		.byte	0x4
 1619 08f0 33030000 		.4byte	0x333
 1620 08f4 17       		.uleb128 0x17
 1621 08f5 33030000 		.4byte	0x333
 1622 08f9 04090000 		.4byte	0x904
 1623 08fd 18       		.uleb128 0x18
 1624 08fe 38000000 		.4byte	0x38
 1625 0902 0F       		.byte	0xf
 1626 0903 00       		.byte	0
 1627 0904 0D       		.uleb128 0xd
 1628 0905 04       		.byte	0x4
 1629 0906 4F080000 		.4byte	0x84f
 1630 090a 03       		.uleb128 0x3
 1631 090b 8B010000 		.4byte	.LASF123
 1632 090f 14       		.byte	0x14
 1633 0910 A5       		.byte	0xa5
 1634 0911 03       		.byte	0x3
 1635 0912 7C080000 		.4byte	0x87c
 1636 0916 16       		.uleb128 0x16
 1637 0917 10       		.byte	0x10
 1638 0918 14       		.byte	0x14
 1639 0919 AA       		.byte	0xaa
 1640 091a 09       		.byte	0x9
ARM GAS  /tmp/ccLmd5D2.s 			page 30


 1641 091b 54090000 		.4byte	0x954
 1642 091f 09       		.uleb128 0x9
 1643 0920 9A020000 		.4byte	.LASF32
 1644 0924 14       		.byte	0x14
 1645 0925 AB       		.byte	0xab
 1646 0926 0F       		.byte	0xf
 1647 0927 28030000 		.4byte	0x328
 1648 092b 00       		.byte	0
 1649 092c 09       		.uleb128 0x9
 1650 092d 63040000 		.4byte	.LASF124
 1651 0931 14       		.byte	0x14
 1652 0932 AC       		.byte	0xac
 1653 0933 0A       		.byte	0xa
 1654 0934 55090000 		.4byte	0x955
 1655 0938 04       		.byte	0x4
 1656 0939 09       		.uleb128 0x9
 1657 093a E5000000 		.4byte	.LASF125
 1658 093e 14       		.byte	0x14
 1659 093f AD       		.byte	0xad
 1660 0940 0A       		.byte	0xa
 1661 0941 55090000 		.4byte	0x955
 1662 0945 08       		.byte	0x8
 1663 0946 09       		.uleb128 0x9
 1664 0947 BB040000 		.4byte	.LASF126
 1665 094b 14       		.byte	0x14
 1666 094c AE       		.byte	0xae
 1667 094d 0A       		.byte	0xa
 1668 094e 55090000 		.4byte	0x955
 1669 0952 0C       		.byte	0xc
 1670 0953 00       		.byte	0
 1671 0954 19       		.uleb128 0x19
 1672 0955 0D       		.uleb128 0xd
 1673 0956 04       		.byte	0x4
 1674 0957 54090000 		.4byte	0x954
 1675 095b 03       		.uleb128 0x3
 1676 095c 62030000 		.4byte	.LASF127
 1677 0960 14       		.byte	0x14
 1678 0961 AF       		.byte	0xaf
 1679 0962 03       		.byte	0x3
 1680 0963 16090000 		.4byte	0x916
 1681 0967 05       		.uleb128 0x5
 1682 0968 5B090000 		.4byte	0x95b
 1683 096c 16       		.uleb128 0x16
 1684 096d 08       		.byte	0x8
 1685 096e 14       		.byte	0x14
 1686 096f B4       		.byte	0xb4
 1687 0970 09       		.byte	0x9
 1688 0971 90090000 		.4byte	0x990
 1689 0975 09       		.uleb128 0x9
 1690 0976 9A020000 		.4byte	.LASF32
 1691 097a 14       		.byte	0x14
 1692 097b B5       		.byte	0xb5
 1693 097c 16       		.byte	0x16
 1694 097d 28030000 		.4byte	0x328
 1695 0981 00       		.byte	0
 1696 0982 09       		.uleb128 0x9
 1697 0983 DC070000 		.4byte	.LASF128
ARM GAS  /tmp/ccLmd5D2.s 			page 31


 1698 0987 14       		.byte	0x14
 1699 0988 B6       		.byte	0xb6
 1700 0989 1E       		.byte	0x1e
 1701 098a 90090000 		.4byte	0x990
 1702 098e 04       		.byte	0x4
 1703 098f 00       		.byte	0
 1704 0990 0D       		.uleb128 0xd
 1705 0991 04       		.byte	0x4
 1706 0992 9C090000 		.4byte	0x99c
 1707 0996 0D       		.uleb128 0xd
 1708 0997 04       		.byte	0x4
 1709 0998 67090000 		.4byte	0x967
 1710 099c 05       		.uleb128 0x5
 1711 099d 96090000 		.4byte	0x996
 1712 09a1 03       		.uleb128 0x3
 1713 09a2 1B010000 		.4byte	.LASF129
 1714 09a6 14       		.byte	0x14
 1715 09a7 B7       		.byte	0xb7
 1716 09a8 03       		.byte	0x3
 1717 09a9 6C090000 		.4byte	0x96c
 1718 09ad 05       		.uleb128 0x5
 1719 09ae A1090000 		.4byte	0x9a1
 1720 09b2 1A       		.uleb128 0x1a
 1721 09b3 E4010000 		.4byte	.LASF130
 1722 09b7 14       		.byte	0x14
 1723 09b8 2901     		.2byte	0x129
 1724 09ba 1A       		.byte	0x1a
 1725 09bb 0A090000 		.4byte	0x90a
 1726 09bf 1B       		.uleb128 0x1b
 1727 09c0 E2020000 		.4byte	.LASF131
 1728 09c4 15       		.byte	0x15
 1729 09c5 19       		.byte	0x19
 1730 09c6 1D       		.byte	0x1d
 1731 09c7 AD090000 		.4byte	0x9ad
 1732 09cb 17       		.uleb128 0x17
 1733 09cc 7B050000 		.4byte	0x57b
 1734 09d0 DB090000 		.4byte	0x9db
 1735 09d4 18       		.uleb128 0x18
 1736 09d5 38000000 		.4byte	0x38
 1737 09d9 04       		.byte	0x4
 1738 09da 00       		.byte	0
 1739 09db 1B       		.uleb128 0x1b
 1740 09dc 19050000 		.4byte	.LASF132
 1741 09e0 16       		.byte	0x16
 1742 09e1 5D       		.byte	0x5d
 1743 09e2 12       		.byte	0x12
 1744 09e3 CB090000 		.4byte	0x9cb
 1745 09e7 17       		.uleb128 0x17
 1746 09e8 02050000 		.4byte	0x502
 1747 09ec F7090000 		.4byte	0x9f7
 1748 09f0 18       		.uleb128 0x18
 1749 09f1 38000000 		.4byte	0x38
 1750 09f5 04       		.byte	0x4
 1751 09f6 00       		.byte	0
 1752 09f7 05       		.uleb128 0x5
 1753 09f8 E7090000 		.4byte	0x9e7
 1754 09fc 1C       		.uleb128 0x1c
ARM GAS  /tmp/ccLmd5D2.s 			page 32


 1755 09fd 776100   		.ascii	"wa\000"
 1756 0a00 16       		.byte	0x16
 1757 0a01 5E       		.byte	0x5e
 1758 0a02 18       		.byte	0x18
 1759 0a03 F7090000 		.4byte	0x9f7
 1760 0a07 1D       		.uleb128 0x1d
 1761 0a08 48010000 		.4byte	.LASF157
 1762 0a0c 01       		.byte	0x1
 1763 0a0d 69       		.byte	0x69
 1764 0a0e 19       		.byte	0x19
 1765 0a0f 67090000 		.4byte	0x967
 1766 0a13 05       		.uleb128 0x5
 1767 0a14 03       		.byte	0x3
 1768 0a15 00000000 		.4byte	rt_test_009_001
 1769 0a19 17       		.uleb128 0x17
 1770 0a1a 9C090000 		.4byte	0x99c
 1771 0a1e 290A0000 		.4byte	0xa29
 1772 0a22 18       		.uleb128 0x18
 1773 0a23 38000000 		.4byte	0x38
 1774 0a27 01       		.byte	0x1
 1775 0a28 00       		.byte	0
 1776 0a29 05       		.uleb128 0x5
 1777 0a2a 190A0000 		.4byte	0xa19
 1778 0a2e 1E       		.uleb128 0x1e
 1779 0a2f 26000000 		.4byte	.LASF133
 1780 0a33 01       		.byte	0x1
 1781 0a34 77       		.byte	0x77
 1782 0a35 1A       		.byte	0x1a
 1783 0a36 290A0000 		.4byte	0xa29
 1784 0a3a 05       		.uleb128 0x5
 1785 0a3b 03       		.byte	0x3
 1786 0a3c 00000000 		.4byte	rt_test_sequence_009_array
 1787 0a40 1F       		.uleb128 0x1f
 1788 0a41 BF090000 		.4byte	0x9bf
 1789 0a45 01       		.byte	0x1
 1790 0a46 7F       		.byte	0x7f
 1791 0a47 16       		.byte	0x16
 1792 0a48 05       		.uleb128 0x5
 1793 0a49 03       		.byte	0x3
 1794 0a4a 00000000 		.4byte	rt_test_sequence_009
 1795 0a4e 20       		.uleb128 0x20
 1796 0a4f A3040000 		.4byte	.LASF134
 1797 0a53 01       		.byte	0x1
 1798 0a54 4B       		.byte	0x4b
 1799 0a55 0D       		.byte	0xd
 1800 0a56 00000000 		.4byte	.LFB405
 1801 0a5a 7C000000 		.4byte	.LFE405-.LFB405
 1802 0a5e 01       		.uleb128 0x1
 1803 0a5f 9C       		.byte	0x9c
 1804 0a60 280C0000 		.4byte	0xc28
 1805 0a64 21       		.uleb128 0x21
 1806 0a65 747000   		.ascii	"tp\000"
 1807 0a68 01       		.byte	0x1
 1808 0a69 4C       		.byte	0x4c
 1809 0a6a 0D       		.byte	0xd
 1810 0a6b 7B050000 		.4byte	0x57b
 1811 0a6f 02000000 		.4byte	.LLST1
ARM GAS  /tmp/ccLmd5D2.s 			page 33


 1812 0a73 00000000 		.4byte	.LVUS1
 1813 0a77 21       		.uleb128 0x21
 1814 0a78 6D736700 		.ascii	"msg\000"
 1815 0a7c 01       		.byte	0x1
 1816 0a7d 4D       		.byte	0x4d
 1817 0a7e 09       		.byte	0x9
 1818 0a7f 30010000 		.4byte	0x130
 1819 0a83 17000000 		.4byte	.LLST2
 1820 0a87 15000000 		.4byte	.LVUS2
 1821 0a8b 22       		.uleb128 0x22
 1822 0a8c 40000000 		.4byte	.Ldebug_ranges0+0x40
 1823 0a90 E50B0000 		.4byte	0xbe5
 1824 0a94 21       		.uleb128 0x21
 1825 0a95 6900     		.ascii	"i\000"
 1826 0a97 01       		.byte	0x1
 1827 0a98 5B       		.byte	0x5b
 1828 0a99 0E       		.byte	0xe
 1829 0a9a 38000000 		.4byte	0x38
 1830 0a9e 32000000 		.4byte	.LLST3
 1831 0aa2 2A000000 		.4byte	.LVUS3
 1832 0aa6 23       		.uleb128 0x23
 1833 0aa7 F10C0000 		.4byte	0xcf1
 1834 0aab 30000000 		.4byte	.LBI59
 1835 0aaf 02       		.byte	.LVU45
 1836 0ab0 80000000 		.4byte	.Ldebug_ranges0+0x80
 1837 0ab4 01       		.byte	0x1
 1838 0ab5 5E       		.byte	0x5e
 1839 0ab6 0C       		.byte	0xc
 1840 0ab7 700B0000 		.4byte	0xb70
 1841 0abb 24       		.uleb128 0x24
 1842 0abc 80000000 		.4byte	.Ldebug_ranges0+0x80
 1843 0ac0 25       		.uleb128 0x25
 1844 0ac1 020D0000 		.4byte	0xd02
 1845 0ac5 75000000 		.4byte	.LLST4
 1846 0ac9 73000000 		.4byte	.LVUS4
 1847 0acd 23       		.uleb128 0x23
 1848 0ace 570D0000 		.4byte	0xd57
 1849 0ad2 30000000 		.4byte	.LBI61
 1850 0ad6 05       		.byte	.LVU48
 1851 0ad7 B8000000 		.4byte	.Ldebug_ranges0+0xb8
 1852 0adb 04       		.byte	0x4
 1853 0adc 62       		.byte	0x62
 1854 0add 03       		.byte	0x3
 1855 0ade 160B0000 		.4byte	0xb16
 1856 0ae2 26       		.uleb128 0x26
 1857 0ae3 6B0D0000 		.4byte	0xd6b
 1858 0ae7 30000000 		.4byte	.LBI62
 1859 0aeb 07       		.byte	.LVU50
 1860 0aec E0000000 		.4byte	.Ldebug_ranges0+0xe0
 1861 0af0 05       		.byte	0x5
 1862 0af1 9901     		.2byte	0x199
 1863 0af3 03       		.byte	0x3
 1864 0af4 26       		.uleb128 0x26
 1865 0af5 750D0000 		.4byte	0xd75
 1866 0af9 30000000 		.4byte	.LBI63
 1867 0afd 09       		.byte	.LVU52
 1868 0afe 00010000 		.4byte	.Ldebug_ranges0+0x100
ARM GAS  /tmp/ccLmd5D2.s 			page 34


 1869 0b02 06       		.byte	0x6
 1870 0b03 2E03     		.2byte	0x32e
 1871 0b05 03       		.byte	0x3
 1872 0b06 27       		.uleb128 0x27
 1873 0b07 830D0000 		.4byte	0xd83
 1874 0b0b 8A000000 		.4byte	.LLST5
 1875 0b0f 88000000 		.4byte	.LVUS5
 1876 0b13 00       		.byte	0
 1877 0b14 00       		.byte	0
 1878 0b15 00       		.byte	0
 1879 0b16 23       		.uleb128 0x23
 1880 0b17 2A0D0000 		.4byte	0xd2a
 1881 0b1b 38000000 		.4byte	.LBI69
 1882 0b1f 01       		.byte	.LVU60
 1883 0b20 18010000 		.4byte	.Ldebug_ranges0+0x118
 1884 0b24 04       		.byte	0x4
 1885 0b25 64       		.byte	0x64
 1886 0b26 03       		.byte	0x3
 1887 0b27 650B0000 		.4byte	0xb65
 1888 0b2b 24       		.uleb128 0x24
 1889 0b2c 18010000 		.4byte	.Ldebug_ranges0+0x118
 1890 0b30 26       		.uleb128 0x26
 1891 0b31 610D0000 		.4byte	0xd61
 1892 0b35 38000000 		.4byte	.LBI71
 1893 0b39 08       		.byte	.LVU67
 1894 0b3a 18010000 		.4byte	.Ldebug_ranges0+0x118
 1895 0b3e 05       		.byte	0x5
 1896 0b3f B201     		.2byte	0x1b2
 1897 0b41 03       		.byte	0x3
 1898 0b42 26       		.uleb128 0x26
 1899 0b43 750D0000 		.4byte	0xd75
 1900 0b47 38000000 		.4byte	.LBI72
 1901 0b4b 0A       		.byte	.LVU69
 1902 0b4c 38010000 		.4byte	.Ldebug_ranges0+0x138
 1903 0b50 06       		.byte	0x6
 1904 0b51 4103     		.2byte	0x341
 1905 0b53 03       		.byte	0x3
 1906 0b54 27       		.uleb128 0x27
 1907 0b55 830D0000 		.4byte	0xd83
 1908 0b59 A1000000 		.4byte	.LLST6
 1909 0b5d 9F000000 		.4byte	.LVUS6
 1910 0b61 00       		.byte	0
 1911 0b62 00       		.byte	0
 1912 0b63 00       		.byte	0
 1913 0b64 00       		.byte	0
 1914 0b65 28       		.uleb128 0x28
 1915 0b66 38000000 		.4byte	.LVL10
 1916 0b6a 910D0000 		.4byte	0xd91
 1917 0b6e 00       		.byte	0
 1918 0b6f 00       		.byte	0
 1919 0b70 29       		.uleb128 0x29
 1920 0b71 B60C0000 		.4byte	0xcb6
 1921 0b75 3C000000 		.4byte	.LBI95
 1922 0b79 04       		.byte	.LVU75
 1923 0b7a 3C000000 		.4byte	.LBB95
 1924 0b7e 02000000 		.4byte	.LBE95-.LBB95
 1925 0b82 01       		.byte	0x1
ARM GAS  /tmp/ccLmd5D2.s 			page 35


 1926 0b83 5F       		.byte	0x5f
 1927 0b84 0D       		.byte	0xd
 1928 0b85 970B0000 		.4byte	0xb97
 1929 0b89 27       		.uleb128 0x27
 1930 0b8a C70C0000 		.4byte	0xcc7
 1931 0b8e B7000000 		.4byte	.LLST7
 1932 0b92 B5000000 		.4byte	.LVUS7
 1933 0b96 00       		.byte	0
 1934 0b97 2A       		.uleb128 0x2a
 1935 0b98 44000000 		.4byte	.LVL13
 1936 0b9c 9D0D0000 		.4byte	0xd9d
 1937 0ba0 AB0B0000 		.4byte	0xbab
 1938 0ba4 2B       		.uleb128 0x2b
 1939 0ba5 01       		.uleb128 0x1
 1940 0ba6 51       		.byte	0x51
 1941 0ba7 02       		.uleb128 0x2
 1942 0ba8 75       		.byte	0x75
 1943 0ba9 00       		.sleb128 0
 1944 0baa 00       		.byte	0
 1945 0bab 2A       		.uleb128 0x2a
 1946 0bac 4A000000 		.4byte	.LVL14
 1947 0bb0 A90D0000 		.4byte	0xda9
 1948 0bb4 BF0B0000 		.4byte	0xbbf
 1949 0bb8 2B       		.uleb128 0x2b
 1950 0bb9 01       		.uleb128 0x1
 1951 0bba 50       		.byte	0x50
 1952 0bbb 02       		.uleb128 0x2
 1953 0bbc 75       		.byte	0x75
 1954 0bbd 00       		.sleb128 0
 1955 0bbe 00       		.byte	0
 1956 0bbf 28       		.uleb128 0x28
 1957 0bc0 52000000 		.4byte	.LVL16
 1958 0bc4 B60D0000 		.4byte	0xdb6
 1959 0bc8 2C       		.uleb128 0x2c
 1960 0bc9 60000000 		.4byte	.LVL18
 1961 0bcd C20D0000 		.4byte	0xdc2
 1962 0bd1 2B       		.uleb128 0x2b
 1963 0bd2 01       		.uleb128 0x1
 1964 0bd3 50       		.byte	0x50
 1965 0bd4 05       		.uleb128 0x5
 1966 0bd5 03       		.byte	0x3
 1967 0bd6 14000000 		.4byte	.LC1
 1968 0bda 2B       		.uleb128 0x2b
 1969 0bdb 01       		.uleb128 0x1
 1970 0bdc 51       		.byte	0x51
 1971 0bdd 05       		.uleb128 0x5
 1972 0bde 03       		.byte	0x3
 1973 0bdf 00000000 		.4byte	.LC0
 1974 0be3 00       		.byte	0
 1975 0be4 00       		.byte	0
 1976 0be5 23       		.uleb128 0x23
 1977 0be6 0E0D0000 		.4byte	0xd0e
 1978 0bea 1A000000 		.4byte	.LBI46
 1979 0bee 01       		.byte	.LVU26
 1980 0bef 00000000 		.4byte	.Ldebug_ranges0+0
 1981 0bf3 01       		.byte	0x1
 1982 0bf4 52       		.byte	0x52
ARM GAS  /tmp/ccLmd5D2.s 			page 36


 1983 0bf5 34       		.byte	0x34
 1984 0bf6 0D0C0000 		.4byte	0xc0d
 1985 0bfa 2D       		.uleb128 0x2d
 1986 0bfb 1C0D0000 		.4byte	0xd1c
 1987 0bff 1A000000 		.4byte	.LBI48
 1988 0c03 03       		.byte	.LVU28
 1989 0c04 20000000 		.4byte	.Ldebug_ranges0+0x20
 1990 0c08 02       		.byte	0x2
 1991 0c09 6401     		.2byte	0x164
 1992 0c0b 0A       		.byte	0xa
 1993 0c0c 00       		.byte	0
 1994 0c0d 2E       		.uleb128 0x2e
 1995 0c0e 22000000 		.4byte	.LVL6
 1996 0c12 CF0D0000 		.4byte	0xdcf
 1997 0c16 2B       		.uleb128 0x2b
 1998 0c17 01       		.uleb128 0x1
 1999 0c18 51       		.byte	0x51
 2000 0c19 03       		.uleb128 0x3
 2001 0c1a 0A       		.byte	0xa
 2002 0c1b 7001     		.2byte	0x170
 2003 0c1d 2B       		.uleb128 0x2b
 2004 0c1e 01       		.uleb128 0x1
 2005 0c1f 53       		.byte	0x53
 2006 0c20 05       		.uleb128 0x5
 2007 0c21 03       		.byte	0x3
 2008 0c22 00000000 		.4byte	msg_thread1
 2009 0c26 00       		.byte	0
 2010 0c27 00       		.byte	0
 2011 0c28 20       		.uleb128 0x20
 2012 0c29 C3030000 		.4byte	.LASF135
 2013 0c2d 01       		.byte	0x1
 2014 0c2e 31       		.byte	0x31
 2015 0c2f 08       		.byte	0x8
 2016 0c30 00000000 		.4byte	.LFB404
 2017 0c34 26000000 		.4byte	.LFE404-.LFB404
 2018 0c38 01       		.uleb128 0x1
 2019 0c39 9C       		.byte	0x9c
 2020 0c3a B60C0000 		.4byte	0xcb6
 2021 0c3e 2F       		.uleb128 0x2f
 2022 0c3f 7000     		.ascii	"p\000"
 2023 0c41 01       		.byte	0x1
 2024 0c42 31       		.byte	0x31
 2025 0c43 08       		.byte	0x8
 2026 0c44 00050000 		.4byte	0x500
 2027 0c48 D2000000 		.4byte	.LLST0
 2028 0c4c CA000000 		.4byte	.LVUS0
 2029 0c50 2A       		.uleb128 0x2a
 2030 0c51 0A000000 		.4byte	.LVL1
 2031 0c55 DC0D0000 		.4byte	0xddc
 2032 0c59 6A0C0000 		.4byte	0xc6a
 2033 0c5d 2B       		.uleb128 0x2b
 2034 0c5e 01       		.uleb128 0x1
 2035 0c5f 50       		.byte	0x50
 2036 0c60 02       		.uleb128 0x2
 2037 0c61 74       		.byte	0x74
 2038 0c62 00       		.sleb128 0
 2039 0c63 2B       		.uleb128 0x2b
ARM GAS  /tmp/ccLmd5D2.s 			page 37


 2040 0c64 01       		.uleb128 0x1
 2041 0c65 51       		.byte	0x51
 2042 0c66 02       		.uleb128 0x2
 2043 0c67 08       		.byte	0x8
 2044 0c68 41       		.byte	0x41
 2045 0c69 00       		.byte	0
 2046 0c6a 2A       		.uleb128 0x2a
 2047 0c6b 12000000 		.4byte	.LVL2
 2048 0c6f DC0D0000 		.4byte	0xddc
 2049 0c73 840C0000 		.4byte	0xc84
 2050 0c77 2B       		.uleb128 0x2b
 2051 0c78 01       		.uleb128 0x1
 2052 0c79 50       		.byte	0x50
 2053 0c7a 02       		.uleb128 0x2
 2054 0c7b 74       		.byte	0x74
 2055 0c7c 00       		.sleb128 0
 2056 0c7d 2B       		.uleb128 0x2b
 2057 0c7e 01       		.uleb128 0x1
 2058 0c7f 51       		.byte	0x51
 2059 0c80 02       		.uleb128 0x2
 2060 0c81 08       		.byte	0x8
 2061 0c82 42       		.byte	0x42
 2062 0c83 00       		.byte	0
 2063 0c84 2A       		.uleb128 0x2a
 2064 0c85 1A000000 		.4byte	.LVL3
 2065 0c89 DC0D0000 		.4byte	0xddc
 2066 0c8d 9E0C0000 		.4byte	0xc9e
 2067 0c91 2B       		.uleb128 0x2b
 2068 0c92 01       		.uleb128 0x1
 2069 0c93 50       		.byte	0x50
 2070 0c94 02       		.uleb128 0x2
 2071 0c95 74       		.byte	0x74
 2072 0c96 00       		.sleb128 0
 2073 0c97 2B       		.uleb128 0x2b
 2074 0c98 01       		.uleb128 0x1
 2075 0c99 51       		.byte	0x51
 2076 0c9a 02       		.uleb128 0x2
 2077 0c9b 08       		.byte	0x8
 2078 0c9c 43       		.byte	0x43
 2079 0c9d 00       		.byte	0
 2080 0c9e 2C       		.uleb128 0x2c
 2081 0c9f 26000000 		.4byte	.LVL5
 2082 0ca3 DC0D0000 		.4byte	0xddc
 2083 0ca7 2B       		.uleb128 0x2b
 2084 0ca8 01       		.uleb128 0x1
 2085 0ca9 50       		.byte	0x50
 2086 0caa 03       		.uleb128 0x3
 2087 0cab F3       		.byte	0xf3
 2088 0cac 01       		.uleb128 0x1
 2089 0cad 50       		.byte	0x50
 2090 0cae 2B       		.uleb128 0x2b
 2091 0caf 01       		.uleb128 0x1
 2092 0cb0 51       		.byte	0x51
 2093 0cb1 02       		.uleb128 0x2
 2094 0cb2 08       		.byte	0x8
 2095 0cb3 44       		.byte	0x44
 2096 0cb4 00       		.byte	0
ARM GAS  /tmp/ccLmd5D2.s 			page 38


 2097 0cb5 00       		.byte	0
 2098 0cb6 30       		.uleb128 0x30
 2099 0cb7 91020000 		.4byte	.LASF136
 2100 0cbb 04       		.byte	0x4
 2101 0cbc BE       		.byte	0xbe
 2102 0cbd 15       		.byte	0x15
 2103 0cbe 30010000 		.4byte	0x130
 2104 0cc2 03       		.byte	0x3
 2105 0cc3 DC0C0000 		.4byte	0xcdc
 2106 0cc7 31       		.uleb128 0x31
 2107 0cc8 747000   		.ascii	"tp\000"
 2108 0ccb 04       		.byte	0x4
 2109 0ccc BE       		.byte	0xbe
 2110 0ccd 28       		.byte	0x28
 2111 0cce 7B050000 		.4byte	0x57b
 2112 0cd2 32       		.uleb128 0x32
 2113 0cd3 40050000 		.4byte	.LASF140
 2114 0cd7 EC0C0000 		.4byte	0xcec
 2115 0cdb 00       		.byte	0
 2116 0cdc 17       		.uleb128 0x17
 2117 0cdd 3A030000 		.4byte	0x33a
 2118 0ce1 EC0C0000 		.4byte	0xcec
 2119 0ce5 18       		.uleb128 0x18
 2120 0ce6 38000000 		.4byte	0x38
 2121 0cea 08       		.byte	0x8
 2122 0ceb 00       		.byte	0
 2123 0cec 05       		.uleb128 0x5
 2124 0ced DC0C0000 		.4byte	0xcdc
 2125 0cf1 30       		.uleb128 0x30
 2126 0cf2 7A060000 		.4byte	.LASF137
 2127 0cf6 04       		.byte	0x4
 2128 0cf7 5F       		.byte	0x5f
 2129 0cf8 19       		.byte	0x19
 2130 0cf9 7B050000 		.4byte	0x57b
 2131 0cfd 03       		.byte	0x3
 2132 0cfe 0E0D0000 		.4byte	0xd0e
 2133 0d02 33       		.uleb128 0x33
 2134 0d03 747000   		.ascii	"tp\000"
 2135 0d06 04       		.byte	0x4
 2136 0d07 60       		.byte	0x60
 2137 0d08 0D       		.byte	0xd
 2138 0d09 7B050000 		.4byte	0x57b
 2139 0d0d 00       		.byte	0
 2140 0d0e 34       		.uleb128 0x34
 2141 0d0f 51040000 		.4byte	.LASF138
 2142 0d13 02       		.byte	0x2
 2143 0d14 6201     		.2byte	0x162
 2144 0d16 17       		.byte	0x17
 2145 0d17 24010000 		.4byte	0x124
 2146 0d1b 03       		.byte	0x3
 2147 0d1c 34       		.uleb128 0x34
 2148 0d1d B0060000 		.4byte	.LASF139
 2149 0d21 02       		.byte	0x2
 2150 0d22 5501     		.2byte	0x155
 2151 0d24 19       		.byte	0x19
 2152 0d25 7B050000 		.4byte	0x57b
 2153 0d29 03       		.byte	0x3
ARM GAS  /tmp/ccLmd5D2.s 			page 39


 2154 0d2a 35       		.uleb128 0x35
 2155 0d2b 92070000 		.4byte	.LASF144
 2156 0d2f 05       		.byte	0x5
 2157 0d30 A501     		.2byte	0x1a5
 2158 0d32 14       		.byte	0x14
 2159 0d33 03       		.byte	0x3
 2160 0d34 420D0000 		.4byte	0xd42
 2161 0d38 32       		.uleb128 0x32
 2162 0d39 40050000 		.4byte	.LASF140
 2163 0d3d 520D0000 		.4byte	0xd52
 2164 0d41 00       		.byte	0
 2165 0d42 17       		.uleb128 0x17
 2166 0d43 3A030000 		.4byte	0x33a
 2167 0d47 520D0000 		.4byte	0xd52
 2168 0d4b 18       		.uleb128 0x18
 2169 0d4c 38000000 		.4byte	0x38
 2170 0d50 0B       		.byte	0xb
 2171 0d51 00       		.byte	0
 2172 0d52 05       		.uleb128 0x5
 2173 0d53 420D0000 		.4byte	0xd42
 2174 0d57 36       		.uleb128 0x36
 2175 0d58 49050000 		.4byte	.LASF141
 2176 0d5c 05       		.byte	0x5
 2177 0d5d 9701     		.2byte	0x197
 2178 0d5f 14       		.byte	0x14
 2179 0d60 03       		.byte	0x3
 2180 0d61 36       		.uleb128 0x36
 2181 0d62 5F010000 		.4byte	.LASF142
 2182 0d66 06       		.byte	0x6
 2183 0d67 3E03     		.2byte	0x33e
 2184 0d69 1B       		.byte	0x1b
 2185 0d6a 03       		.byte	0x3
 2186 0d6b 36       		.uleb128 0x36
 2187 0d6c B3070000 		.4byte	.LASF143
 2188 0d70 06       		.byte	0x6
 2189 0d71 2603     		.2byte	0x326
 2190 0d73 1B       		.byte	0x1b
 2191 0d74 03       		.byte	0x3
 2192 0d75 35       		.uleb128 0x35
 2193 0d76 E6050000 		.4byte	.LASF145
 2194 0d7a 03       		.byte	0x3
 2195 0d7b EB01     		.2byte	0x1eb
 2196 0d7d 1B       		.byte	0x1b
 2197 0d7e 03       		.byte	0x3
 2198 0d7f 910D0000 		.4byte	0xd91
 2199 0d83 37       		.uleb128 0x37
 2200 0d84 A2060000 		.4byte	.LASF146
 2201 0d88 03       		.byte	0x3
 2202 0d89 EB01     		.2byte	0x1eb
 2203 0d8b 32       		.byte	0x32
 2204 0d8c CB000000 		.4byte	0xcb
 2205 0d90 00       		.byte	0
 2206 0d91 38       		.uleb128 0x38
 2207 0d92 AB020000 		.4byte	.LASF147
 2208 0d96 AB020000 		.4byte	.LASF147
 2209 0d9a 04       		.byte	0x4
 2210 0d9b 43       		.byte	0x43
ARM GAS  /tmp/ccLmd5D2.s 			page 40


 2211 0d9c 0D       		.byte	0xd
 2212 0d9d 38       		.uleb128 0x38
 2213 0d9e 53050000 		.4byte	.LASF148
 2214 0da2 53050000 		.4byte	.LASF148
 2215 0da6 04       		.byte	0x4
 2216 0da7 46       		.byte	0x46
 2217 0da8 08       		.byte	0x8
 2218 0da9 39       		.uleb128 0x39
 2219 0daa 38010000 		.4byte	.LASF149
 2220 0dae 38010000 		.4byte	.LASF149
 2221 0db2 14       		.byte	0x14
 2222 0db3 3A01     		.2byte	0x13a
 2223 0db5 08       		.byte	0x8
 2224 0db6 38       		.uleb128 0x38
 2225 0db7 1C040000 		.4byte	.LASF150
 2226 0dbb 1C040000 		.4byte	.LASF150
 2227 0dbf 16       		.byte	0x16
 2228 0dc0 62       		.byte	0x62
 2229 0dc1 06       		.byte	0x6
 2230 0dc2 39       		.uleb128 0x39
 2231 0dc3 6B010000 		.4byte	.LASF151
 2232 0dc7 6B010000 		.4byte	.LASF151
 2233 0dcb 14       		.byte	0x14
 2234 0dcc 3101     		.2byte	0x131
 2235 0dce 08       		.byte	0x8
 2236 0dcf 39       		.uleb128 0x39
 2237 0dd0 6D030000 		.4byte	.LASF152
 2238 0dd4 6D030000 		.4byte	.LASF152
 2239 0dd8 02       		.byte	0x2
 2240 0dd9 2C01     		.2byte	0x12c
 2241 0ddb 0D       		.byte	0xd
 2242 0ddc 38       		.uleb128 0x38
 2243 0ddd B8010000 		.4byte	.LASF153
 2244 0de1 B8010000 		.4byte	.LASF153
 2245 0de5 04       		.byte	0x4
 2246 0de6 42       		.byte	0x42
 2247 0de7 09       		.byte	0x9
 2248 0de8 00       		.byte	0
 2249              		.section	.debug_abbrev,"",%progbits
 2250              	.Ldebug_abbrev0:
 2251 0000 01       		.uleb128 0x1
 2252 0001 11       		.uleb128 0x11
 2253 0002 01       		.byte	0x1
 2254 0003 25       		.uleb128 0x25
 2255 0004 0E       		.uleb128 0xe
 2256 0005 13       		.uleb128 0x13
 2257 0006 0B       		.uleb128 0xb
 2258 0007 03       		.uleb128 0x3
 2259 0008 0E       		.uleb128 0xe
 2260 0009 1B       		.uleb128 0x1b
 2261 000a 0E       		.uleb128 0xe
 2262 000b 55       		.uleb128 0x55
 2263 000c 17       		.uleb128 0x17
 2264 000d 11       		.uleb128 0x11
 2265 000e 01       		.uleb128 0x1
 2266 000f 10       		.uleb128 0x10
 2267 0010 17       		.uleb128 0x17
ARM GAS  /tmp/ccLmd5D2.s 			page 41


 2268 0011 00       		.byte	0
 2269 0012 00       		.byte	0
 2270 0013 02       		.uleb128 0x2
 2271 0014 24       		.uleb128 0x24
 2272 0015 00       		.byte	0
 2273 0016 0B       		.uleb128 0xb
 2274 0017 0B       		.uleb128 0xb
 2275 0018 3E       		.uleb128 0x3e
 2276 0019 0B       		.uleb128 0xb
 2277 001a 03       		.uleb128 0x3
 2278 001b 08       		.uleb128 0x8
 2279 001c 00       		.byte	0
 2280 001d 00       		.byte	0
 2281 001e 03       		.uleb128 0x3
 2282 001f 16       		.uleb128 0x16
 2283 0020 00       		.byte	0
 2284 0021 03       		.uleb128 0x3
 2285 0022 0E       		.uleb128 0xe
 2286 0023 3A       		.uleb128 0x3a
 2287 0024 0B       		.uleb128 0xb
 2288 0025 3B       		.uleb128 0x3b
 2289 0026 0B       		.uleb128 0xb
 2290 0027 39       		.uleb128 0x39
 2291 0028 0B       		.uleb128 0xb
 2292 0029 49       		.uleb128 0x49
 2293 002a 13       		.uleb128 0x13
 2294 002b 00       		.byte	0
 2295 002c 00       		.byte	0
 2296 002d 04       		.uleb128 0x4
 2297 002e 24       		.uleb128 0x24
 2298 002f 00       		.byte	0
 2299 0030 0B       		.uleb128 0xb
 2300 0031 0B       		.uleb128 0xb
 2301 0032 3E       		.uleb128 0x3e
 2302 0033 0B       		.uleb128 0xb
 2303 0034 03       		.uleb128 0x3
 2304 0035 0E       		.uleb128 0xe
 2305 0036 00       		.byte	0
 2306 0037 00       		.byte	0
 2307 0038 05       		.uleb128 0x5
 2308 0039 26       		.uleb128 0x26
 2309 003a 00       		.byte	0
 2310 003b 49       		.uleb128 0x49
 2311 003c 13       		.uleb128 0x13
 2312 003d 00       		.byte	0
 2313 003e 00       		.byte	0
 2314 003f 06       		.uleb128 0x6
 2315 0040 35       		.uleb128 0x35
 2316 0041 00       		.byte	0
 2317 0042 49       		.uleb128 0x49
 2318 0043 13       		.uleb128 0x13
 2319 0044 00       		.byte	0
 2320 0045 00       		.byte	0
 2321 0046 07       		.uleb128 0x7
 2322 0047 13       		.uleb128 0x13
 2323 0048 01       		.byte	0x1
 2324 0049 03       		.uleb128 0x3
ARM GAS  /tmp/ccLmd5D2.s 			page 42


 2325 004a 0E       		.uleb128 0xe
 2326 004b 0B       		.uleb128 0xb
 2327 004c 0B       		.uleb128 0xb
 2328 004d 3A       		.uleb128 0x3a
 2329 004e 0B       		.uleb128 0xb
 2330 004f 3B       		.uleb128 0x3b
 2331 0050 0B       		.uleb128 0xb
 2332 0051 39       		.uleb128 0x39
 2333 0052 0B       		.uleb128 0xb
 2334 0053 01       		.uleb128 0x1
 2335 0054 13       		.uleb128 0x13
 2336 0055 00       		.byte	0
 2337 0056 00       		.byte	0
 2338 0057 08       		.uleb128 0x8
 2339 0058 0D       		.uleb128 0xd
 2340 0059 00       		.byte	0
 2341 005a 03       		.uleb128 0x3
 2342 005b 08       		.uleb128 0x8
 2343 005c 3A       		.uleb128 0x3a
 2344 005d 0B       		.uleb128 0xb
 2345 005e 3B       		.uleb128 0x3b
 2346 005f 0B       		.uleb128 0xb
 2347 0060 39       		.uleb128 0x39
 2348 0061 0B       		.uleb128 0xb
 2349 0062 49       		.uleb128 0x49
 2350 0063 13       		.uleb128 0x13
 2351 0064 38       		.uleb128 0x38
 2352 0065 0B       		.uleb128 0xb
 2353 0066 00       		.byte	0
 2354 0067 00       		.byte	0
 2355 0068 09       		.uleb128 0x9
 2356 0069 0D       		.uleb128 0xd
 2357 006a 00       		.byte	0
 2358 006b 03       		.uleb128 0x3
 2359 006c 0E       		.uleb128 0xe
 2360 006d 3A       		.uleb128 0x3a
 2361 006e 0B       		.uleb128 0xb
 2362 006f 3B       		.uleb128 0x3b
 2363 0070 0B       		.uleb128 0xb
 2364 0071 39       		.uleb128 0x39
 2365 0072 0B       		.uleb128 0xb
 2366 0073 49       		.uleb128 0x49
 2367 0074 13       		.uleb128 0x13
 2368 0075 38       		.uleb128 0x38
 2369 0076 0B       		.uleb128 0xb
 2370 0077 00       		.byte	0
 2371 0078 00       		.byte	0
 2372 0079 0A       		.uleb128 0xa
 2373 007a 0D       		.uleb128 0xd
 2374 007b 00       		.byte	0
 2375 007c 03       		.uleb128 0x3
 2376 007d 08       		.uleb128 0x8
 2377 007e 3A       		.uleb128 0x3a
 2378 007f 0B       		.uleb128 0xb
 2379 0080 3B       		.uleb128 0x3b
 2380 0081 05       		.uleb128 0x5
 2381 0082 39       		.uleb128 0x39
ARM GAS  /tmp/ccLmd5D2.s 			page 43


 2382 0083 0B       		.uleb128 0xb
 2383 0084 49       		.uleb128 0x49
 2384 0085 13       		.uleb128 0x13
 2385 0086 38       		.uleb128 0x38
 2386 0087 0B       		.uleb128 0xb
 2387 0088 00       		.byte	0
 2388 0089 00       		.byte	0
 2389 008a 0B       		.uleb128 0xb
 2390 008b 0D       		.uleb128 0xd
 2391 008c 00       		.byte	0
 2392 008d 03       		.uleb128 0x3
 2393 008e 0E       		.uleb128 0xe
 2394 008f 3A       		.uleb128 0x3a
 2395 0090 0B       		.uleb128 0xb
 2396 0091 3B       		.uleb128 0x3b
 2397 0092 05       		.uleb128 0x5
 2398 0093 39       		.uleb128 0x39
 2399 0094 0B       		.uleb128 0xb
 2400 0095 49       		.uleb128 0x49
 2401 0096 13       		.uleb128 0x13
 2402 0097 38       		.uleb128 0x38
 2403 0098 0B       		.uleb128 0xb
 2404 0099 00       		.byte	0
 2405 009a 00       		.byte	0
 2406 009b 0C       		.uleb128 0xc
 2407 009c 13       		.uleb128 0x13
 2408 009d 01       		.byte	0x1
 2409 009e 03       		.uleb128 0x3
 2410 009f 0E       		.uleb128 0xe
 2411 00a0 0B       		.uleb128 0xb
 2412 00a1 0B       		.uleb128 0xb
 2413 00a2 3A       		.uleb128 0x3a
 2414 00a3 0B       		.uleb128 0xb
 2415 00a4 3B       		.uleb128 0x3b
 2416 00a5 05       		.uleb128 0x5
 2417 00a6 39       		.uleb128 0x39
 2418 00a7 0B       		.uleb128 0xb
 2419 00a8 01       		.uleb128 0x1
 2420 00a9 13       		.uleb128 0x13
 2421 00aa 00       		.byte	0
 2422 00ab 00       		.byte	0
 2423 00ac 0D       		.uleb128 0xd
 2424 00ad 0F       		.uleb128 0xf
 2425 00ae 00       		.byte	0
 2426 00af 0B       		.uleb128 0xb
 2427 00b0 0B       		.uleb128 0xb
 2428 00b1 49       		.uleb128 0x49
 2429 00b2 13       		.uleb128 0x13
 2430 00b3 00       		.byte	0
 2431 00b4 00       		.byte	0
 2432 00b5 0E       		.uleb128 0xe
 2433 00b6 0F       		.uleb128 0xf
 2434 00b7 00       		.byte	0
 2435 00b8 0B       		.uleb128 0xb
 2436 00b9 0B       		.uleb128 0xb
 2437 00ba 00       		.byte	0
 2438 00bb 00       		.byte	0
ARM GAS  /tmp/ccLmd5D2.s 			page 44


 2439 00bc 0F       		.uleb128 0xf
 2440 00bd 17       		.uleb128 0x17
 2441 00be 01       		.byte	0x1
 2442 00bf 0B       		.uleb128 0xb
 2443 00c0 0B       		.uleb128 0xb
 2444 00c1 3A       		.uleb128 0x3a
 2445 00c2 0B       		.uleb128 0xb
 2446 00c3 3B       		.uleb128 0x3b
 2447 00c4 0B       		.uleb128 0xb
 2448 00c5 39       		.uleb128 0x39
 2449 00c6 0B       		.uleb128 0xb
 2450 00c7 01       		.uleb128 0x1
 2451 00c8 13       		.uleb128 0x13
 2452 00c9 00       		.byte	0
 2453 00ca 00       		.byte	0
 2454 00cb 10       		.uleb128 0x10
 2455 00cc 0D       		.uleb128 0xd
 2456 00cd 00       		.byte	0
 2457 00ce 03       		.uleb128 0x3
 2458 00cf 0E       		.uleb128 0xe
 2459 00d0 3A       		.uleb128 0x3a
 2460 00d1 0B       		.uleb128 0xb
 2461 00d2 3B       		.uleb128 0x3b
 2462 00d3 0B       		.uleb128 0xb
 2463 00d4 39       		.uleb128 0x39
 2464 00d5 0B       		.uleb128 0xb
 2465 00d6 49       		.uleb128 0x49
 2466 00d7 13       		.uleb128 0x13
 2467 00d8 00       		.byte	0
 2468 00d9 00       		.byte	0
 2469 00da 11       		.uleb128 0x11
 2470 00db 0D       		.uleb128 0xd
 2471 00dc 00       		.byte	0
 2472 00dd 03       		.uleb128 0x3
 2473 00de 0E       		.uleb128 0xe
 2474 00df 3A       		.uleb128 0x3a
 2475 00e0 0B       		.uleb128 0xb
 2476 00e1 3B       		.uleb128 0x3b
 2477 00e2 05       		.uleb128 0x5
 2478 00e3 39       		.uleb128 0x39
 2479 00e4 0B       		.uleb128 0xb
 2480 00e5 49       		.uleb128 0x49
 2481 00e6 13       		.uleb128 0x13
 2482 00e7 00       		.byte	0
 2483 00e8 00       		.byte	0
 2484 00e9 12       		.uleb128 0x12
 2485 00ea 16       		.uleb128 0x16
 2486 00eb 00       		.byte	0
 2487 00ec 03       		.uleb128 0x3
 2488 00ed 0E       		.uleb128 0xe
 2489 00ee 3A       		.uleb128 0x3a
 2490 00ef 0B       		.uleb128 0xb
 2491 00f0 3B       		.uleb128 0x3b
 2492 00f1 05       		.uleb128 0x5
 2493 00f2 39       		.uleb128 0x39
 2494 00f3 0B       		.uleb128 0xb
 2495 00f4 49       		.uleb128 0x49
ARM GAS  /tmp/ccLmd5D2.s 			page 45


 2496 00f5 13       		.uleb128 0x13
 2497 00f6 00       		.byte	0
 2498 00f7 00       		.byte	0
 2499 00f8 13       		.uleb128 0x13
 2500 00f9 34       		.uleb128 0x34
 2501 00fa 00       		.byte	0
 2502 00fb 03       		.uleb128 0x3
 2503 00fc 08       		.uleb128 0x8
 2504 00fd 3A       		.uleb128 0x3a
 2505 00fe 0B       		.uleb128 0xb
 2506 00ff 3B       		.uleb128 0x3b
 2507 0100 05       		.uleb128 0x5
 2508 0101 39       		.uleb128 0x39
 2509 0102 0B       		.uleb128 0xb
 2510 0103 49       		.uleb128 0x49
 2511 0104 13       		.uleb128 0x13
 2512 0105 3F       		.uleb128 0x3f
 2513 0106 19       		.uleb128 0x19
 2514 0107 3C       		.uleb128 0x3c
 2515 0108 19       		.uleb128 0x19
 2516 0109 00       		.byte	0
 2517 010a 00       		.byte	0
 2518 010b 14       		.uleb128 0x14
 2519 010c 15       		.uleb128 0x15
 2520 010d 01       		.byte	0x1
 2521 010e 27       		.uleb128 0x27
 2522 010f 19       		.uleb128 0x19
 2523 0110 49       		.uleb128 0x49
 2524 0111 13       		.uleb128 0x13
 2525 0112 01       		.uleb128 0x1
 2526 0113 13       		.uleb128 0x13
 2527 0114 00       		.byte	0
 2528 0115 00       		.byte	0
 2529 0116 15       		.uleb128 0x15
 2530 0117 05       		.uleb128 0x5
 2531 0118 00       		.byte	0
 2532 0119 49       		.uleb128 0x49
 2533 011a 13       		.uleb128 0x13
 2534 011b 00       		.byte	0
 2535 011c 00       		.byte	0
 2536 011d 16       		.uleb128 0x16
 2537 011e 13       		.uleb128 0x13
 2538 011f 01       		.byte	0x1
 2539 0120 0B       		.uleb128 0xb
 2540 0121 0B       		.uleb128 0xb
 2541 0122 3A       		.uleb128 0x3a
 2542 0123 0B       		.uleb128 0xb
 2543 0124 3B       		.uleb128 0x3b
 2544 0125 0B       		.uleb128 0xb
 2545 0126 39       		.uleb128 0x39
 2546 0127 0B       		.uleb128 0xb
 2547 0128 01       		.uleb128 0x1
 2548 0129 13       		.uleb128 0x13
 2549 012a 00       		.byte	0
 2550 012b 00       		.byte	0
 2551 012c 17       		.uleb128 0x17
 2552 012d 01       		.uleb128 0x1
ARM GAS  /tmp/ccLmd5D2.s 			page 46


 2553 012e 01       		.byte	0x1
 2554 012f 49       		.uleb128 0x49
 2555 0130 13       		.uleb128 0x13
 2556 0131 01       		.uleb128 0x1
 2557 0132 13       		.uleb128 0x13
 2558 0133 00       		.byte	0
 2559 0134 00       		.byte	0
 2560 0135 18       		.uleb128 0x18
 2561 0136 21       		.uleb128 0x21
 2562 0137 00       		.byte	0
 2563 0138 49       		.uleb128 0x49
 2564 0139 13       		.uleb128 0x13
 2565 013a 2F       		.uleb128 0x2f
 2566 013b 0B       		.uleb128 0xb
 2567 013c 00       		.byte	0
 2568 013d 00       		.byte	0
 2569 013e 19       		.uleb128 0x19
 2570 013f 15       		.uleb128 0x15
 2571 0140 00       		.byte	0
 2572 0141 27       		.uleb128 0x27
 2573 0142 19       		.uleb128 0x19
 2574 0143 00       		.byte	0
 2575 0144 00       		.byte	0
 2576 0145 1A       		.uleb128 0x1a
 2577 0146 34       		.uleb128 0x34
 2578 0147 00       		.byte	0
 2579 0148 03       		.uleb128 0x3
 2580 0149 0E       		.uleb128 0xe
 2581 014a 3A       		.uleb128 0x3a
 2582 014b 0B       		.uleb128 0xb
 2583 014c 3B       		.uleb128 0x3b
 2584 014d 05       		.uleb128 0x5
 2585 014e 39       		.uleb128 0x39
 2586 014f 0B       		.uleb128 0xb
 2587 0150 49       		.uleb128 0x49
 2588 0151 13       		.uleb128 0x13
 2589 0152 3F       		.uleb128 0x3f
 2590 0153 19       		.uleb128 0x19
 2591 0154 3C       		.uleb128 0x3c
 2592 0155 19       		.uleb128 0x19
 2593 0156 00       		.byte	0
 2594 0157 00       		.byte	0
 2595 0158 1B       		.uleb128 0x1b
 2596 0159 34       		.uleb128 0x34
 2597 015a 00       		.byte	0
 2598 015b 03       		.uleb128 0x3
 2599 015c 0E       		.uleb128 0xe
 2600 015d 3A       		.uleb128 0x3a
 2601 015e 0B       		.uleb128 0xb
 2602 015f 3B       		.uleb128 0x3b
 2603 0160 0B       		.uleb128 0xb
 2604 0161 39       		.uleb128 0x39
 2605 0162 0B       		.uleb128 0xb
 2606 0163 49       		.uleb128 0x49
 2607 0164 13       		.uleb128 0x13
 2608 0165 3F       		.uleb128 0x3f
 2609 0166 19       		.uleb128 0x19
ARM GAS  /tmp/ccLmd5D2.s 			page 47


 2610 0167 3C       		.uleb128 0x3c
 2611 0168 19       		.uleb128 0x19
 2612 0169 00       		.byte	0
 2613 016a 00       		.byte	0
 2614 016b 1C       		.uleb128 0x1c
 2615 016c 34       		.uleb128 0x34
 2616 016d 00       		.byte	0
 2617 016e 03       		.uleb128 0x3
 2618 016f 08       		.uleb128 0x8
 2619 0170 3A       		.uleb128 0x3a
 2620 0171 0B       		.uleb128 0xb
 2621 0172 3B       		.uleb128 0x3b
 2622 0173 0B       		.uleb128 0xb
 2623 0174 39       		.uleb128 0x39
 2624 0175 0B       		.uleb128 0xb
 2625 0176 49       		.uleb128 0x49
 2626 0177 13       		.uleb128 0x13
 2627 0178 3F       		.uleb128 0x3f
 2628 0179 19       		.uleb128 0x19
 2629 017a 3C       		.uleb128 0x3c
 2630 017b 19       		.uleb128 0x19
 2631 017c 00       		.byte	0
 2632 017d 00       		.byte	0
 2633 017e 1D       		.uleb128 0x1d
 2634 017f 34       		.uleb128 0x34
 2635 0180 00       		.byte	0
 2636 0181 03       		.uleb128 0x3
 2637 0182 0E       		.uleb128 0xe
 2638 0183 3A       		.uleb128 0x3a
 2639 0184 0B       		.uleb128 0xb
 2640 0185 3B       		.uleb128 0x3b
 2641 0186 0B       		.uleb128 0xb
 2642 0187 39       		.uleb128 0x39
 2643 0188 0B       		.uleb128 0xb
 2644 0189 49       		.uleb128 0x49
 2645 018a 13       		.uleb128 0x13
 2646 018b 02       		.uleb128 0x2
 2647 018c 18       		.uleb128 0x18
 2648 018d 00       		.byte	0
 2649 018e 00       		.byte	0
 2650 018f 1E       		.uleb128 0x1e
 2651 0190 34       		.uleb128 0x34
 2652 0191 00       		.byte	0
 2653 0192 03       		.uleb128 0x3
 2654 0193 0E       		.uleb128 0xe
 2655 0194 3A       		.uleb128 0x3a
 2656 0195 0B       		.uleb128 0xb
 2657 0196 3B       		.uleb128 0x3b
 2658 0197 0B       		.uleb128 0xb
 2659 0198 39       		.uleb128 0x39
 2660 0199 0B       		.uleb128 0xb
 2661 019a 49       		.uleb128 0x49
 2662 019b 13       		.uleb128 0x13
 2663 019c 3F       		.uleb128 0x3f
 2664 019d 19       		.uleb128 0x19
 2665 019e 02       		.uleb128 0x2
 2666 019f 18       		.uleb128 0x18
ARM GAS  /tmp/ccLmd5D2.s 			page 48


 2667 01a0 00       		.byte	0
 2668 01a1 00       		.byte	0
 2669 01a2 1F       		.uleb128 0x1f
 2670 01a3 34       		.uleb128 0x34
 2671 01a4 00       		.byte	0
 2672 01a5 47       		.uleb128 0x47
 2673 01a6 13       		.uleb128 0x13
 2674 01a7 3A       		.uleb128 0x3a
 2675 01a8 0B       		.uleb128 0xb
 2676 01a9 3B       		.uleb128 0x3b
 2677 01aa 0B       		.uleb128 0xb
 2678 01ab 39       		.uleb128 0x39
 2679 01ac 0B       		.uleb128 0xb
 2680 01ad 02       		.uleb128 0x2
 2681 01ae 18       		.uleb128 0x18
 2682 01af 00       		.byte	0
 2683 01b0 00       		.byte	0
 2684 01b1 20       		.uleb128 0x20
 2685 01b2 2E       		.uleb128 0x2e
 2686 01b3 01       		.byte	0x1
 2687 01b4 03       		.uleb128 0x3
 2688 01b5 0E       		.uleb128 0xe
 2689 01b6 3A       		.uleb128 0x3a
 2690 01b7 0B       		.uleb128 0xb
 2691 01b8 3B       		.uleb128 0x3b
 2692 01b9 0B       		.uleb128 0xb
 2693 01ba 39       		.uleb128 0x39
 2694 01bb 0B       		.uleb128 0xb
 2695 01bc 27       		.uleb128 0x27
 2696 01bd 19       		.uleb128 0x19
 2697 01be 11       		.uleb128 0x11
 2698 01bf 01       		.uleb128 0x1
 2699 01c0 12       		.uleb128 0x12
 2700 01c1 06       		.uleb128 0x6
 2701 01c2 40       		.uleb128 0x40
 2702 01c3 18       		.uleb128 0x18
 2703 01c4 9742     		.uleb128 0x2117
 2704 01c6 19       		.uleb128 0x19
 2705 01c7 01       		.uleb128 0x1
 2706 01c8 13       		.uleb128 0x13
 2707 01c9 00       		.byte	0
 2708 01ca 00       		.byte	0
 2709 01cb 21       		.uleb128 0x21
 2710 01cc 34       		.uleb128 0x34
 2711 01cd 00       		.byte	0
 2712 01ce 03       		.uleb128 0x3
 2713 01cf 08       		.uleb128 0x8
 2714 01d0 3A       		.uleb128 0x3a
 2715 01d1 0B       		.uleb128 0xb
 2716 01d2 3B       		.uleb128 0x3b
 2717 01d3 0B       		.uleb128 0xb
 2718 01d4 39       		.uleb128 0x39
 2719 01d5 0B       		.uleb128 0xb
 2720 01d6 49       		.uleb128 0x49
 2721 01d7 13       		.uleb128 0x13
 2722 01d8 02       		.uleb128 0x2
 2723 01d9 17       		.uleb128 0x17
ARM GAS  /tmp/ccLmd5D2.s 			page 49


 2724 01da B742     		.uleb128 0x2137
 2725 01dc 17       		.uleb128 0x17
 2726 01dd 00       		.byte	0
 2727 01de 00       		.byte	0
 2728 01df 22       		.uleb128 0x22
 2729 01e0 0B       		.uleb128 0xb
 2730 01e1 01       		.byte	0x1
 2731 01e2 55       		.uleb128 0x55
 2732 01e3 17       		.uleb128 0x17
 2733 01e4 01       		.uleb128 0x1
 2734 01e5 13       		.uleb128 0x13
 2735 01e6 00       		.byte	0
 2736 01e7 00       		.byte	0
 2737 01e8 23       		.uleb128 0x23
 2738 01e9 1D       		.uleb128 0x1d
 2739 01ea 01       		.byte	0x1
 2740 01eb 31       		.uleb128 0x31
 2741 01ec 13       		.uleb128 0x13
 2742 01ed 52       		.uleb128 0x52
 2743 01ee 01       		.uleb128 0x1
 2744 01ef B842     		.uleb128 0x2138
 2745 01f1 0B       		.uleb128 0xb
 2746 01f2 55       		.uleb128 0x55
 2747 01f3 17       		.uleb128 0x17
 2748 01f4 58       		.uleb128 0x58
 2749 01f5 0B       		.uleb128 0xb
 2750 01f6 59       		.uleb128 0x59
 2751 01f7 0B       		.uleb128 0xb
 2752 01f8 57       		.uleb128 0x57
 2753 01f9 0B       		.uleb128 0xb
 2754 01fa 01       		.uleb128 0x1
 2755 01fb 13       		.uleb128 0x13
 2756 01fc 00       		.byte	0
 2757 01fd 00       		.byte	0
 2758 01fe 24       		.uleb128 0x24
 2759 01ff 0B       		.uleb128 0xb
 2760 0200 01       		.byte	0x1
 2761 0201 55       		.uleb128 0x55
 2762 0202 17       		.uleb128 0x17
 2763 0203 00       		.byte	0
 2764 0204 00       		.byte	0
 2765 0205 25       		.uleb128 0x25
 2766 0206 34       		.uleb128 0x34
 2767 0207 00       		.byte	0
 2768 0208 31       		.uleb128 0x31
 2769 0209 13       		.uleb128 0x13
 2770 020a 02       		.uleb128 0x2
 2771 020b 17       		.uleb128 0x17
 2772 020c B742     		.uleb128 0x2137
 2773 020e 17       		.uleb128 0x17
 2774 020f 00       		.byte	0
 2775 0210 00       		.byte	0
 2776 0211 26       		.uleb128 0x26
 2777 0212 1D       		.uleb128 0x1d
 2778 0213 01       		.byte	0x1
 2779 0214 31       		.uleb128 0x31
 2780 0215 13       		.uleb128 0x13
ARM GAS  /tmp/ccLmd5D2.s 			page 50


 2781 0216 52       		.uleb128 0x52
 2782 0217 01       		.uleb128 0x1
 2783 0218 B842     		.uleb128 0x2138
 2784 021a 0B       		.uleb128 0xb
 2785 021b 55       		.uleb128 0x55
 2786 021c 17       		.uleb128 0x17
 2787 021d 58       		.uleb128 0x58
 2788 021e 0B       		.uleb128 0xb
 2789 021f 59       		.uleb128 0x59
 2790 0220 05       		.uleb128 0x5
 2791 0221 57       		.uleb128 0x57
 2792 0222 0B       		.uleb128 0xb
 2793 0223 00       		.byte	0
 2794 0224 00       		.byte	0
 2795 0225 27       		.uleb128 0x27
 2796 0226 05       		.uleb128 0x5
 2797 0227 00       		.byte	0
 2798 0228 31       		.uleb128 0x31
 2799 0229 13       		.uleb128 0x13
 2800 022a 02       		.uleb128 0x2
 2801 022b 17       		.uleb128 0x17
 2802 022c B742     		.uleb128 0x2137
 2803 022e 17       		.uleb128 0x17
 2804 022f 00       		.byte	0
 2805 0230 00       		.byte	0
 2806 0231 28       		.uleb128 0x28
 2807 0232 898201   		.uleb128 0x4109
 2808 0235 00       		.byte	0
 2809 0236 11       		.uleb128 0x11
 2810 0237 01       		.uleb128 0x1
 2811 0238 31       		.uleb128 0x31
 2812 0239 13       		.uleb128 0x13
 2813 023a 00       		.byte	0
 2814 023b 00       		.byte	0
 2815 023c 29       		.uleb128 0x29
 2816 023d 1D       		.uleb128 0x1d
 2817 023e 01       		.byte	0x1
 2818 023f 31       		.uleb128 0x31
 2819 0240 13       		.uleb128 0x13
 2820 0241 52       		.uleb128 0x52
 2821 0242 01       		.uleb128 0x1
 2822 0243 B842     		.uleb128 0x2138
 2823 0245 0B       		.uleb128 0xb
 2824 0246 11       		.uleb128 0x11
 2825 0247 01       		.uleb128 0x1
 2826 0248 12       		.uleb128 0x12
 2827 0249 06       		.uleb128 0x6
 2828 024a 58       		.uleb128 0x58
 2829 024b 0B       		.uleb128 0xb
 2830 024c 59       		.uleb128 0x59
 2831 024d 0B       		.uleb128 0xb
 2832 024e 57       		.uleb128 0x57
 2833 024f 0B       		.uleb128 0xb
 2834 0250 01       		.uleb128 0x1
 2835 0251 13       		.uleb128 0x13
 2836 0252 00       		.byte	0
 2837 0253 00       		.byte	0
ARM GAS  /tmp/ccLmd5D2.s 			page 51


 2838 0254 2A       		.uleb128 0x2a
 2839 0255 898201   		.uleb128 0x4109
 2840 0258 01       		.byte	0x1
 2841 0259 11       		.uleb128 0x11
 2842 025a 01       		.uleb128 0x1
 2843 025b 31       		.uleb128 0x31
 2844 025c 13       		.uleb128 0x13
 2845 025d 01       		.uleb128 0x1
 2846 025e 13       		.uleb128 0x13
 2847 025f 00       		.byte	0
 2848 0260 00       		.byte	0
 2849 0261 2B       		.uleb128 0x2b
 2850 0262 8A8201   		.uleb128 0x410a
 2851 0265 00       		.byte	0
 2852 0266 02       		.uleb128 0x2
 2853 0267 18       		.uleb128 0x18
 2854 0268 9142     		.uleb128 0x2111
 2855 026a 18       		.uleb128 0x18
 2856 026b 00       		.byte	0
 2857 026c 00       		.byte	0
 2858 026d 2C       		.uleb128 0x2c
 2859 026e 898201   		.uleb128 0x4109
 2860 0271 01       		.byte	0x1
 2861 0272 11       		.uleb128 0x11
 2862 0273 01       		.uleb128 0x1
 2863 0274 9542     		.uleb128 0x2115
 2864 0276 19       		.uleb128 0x19
 2865 0277 31       		.uleb128 0x31
 2866 0278 13       		.uleb128 0x13
 2867 0279 00       		.byte	0
 2868 027a 00       		.byte	0
 2869 027b 2D       		.uleb128 0x2d
 2870 027c 1D       		.uleb128 0x1d
 2871 027d 00       		.byte	0
 2872 027e 31       		.uleb128 0x31
 2873 027f 13       		.uleb128 0x13
 2874 0280 52       		.uleb128 0x52
 2875 0281 01       		.uleb128 0x1
 2876 0282 B842     		.uleb128 0x2138
 2877 0284 0B       		.uleb128 0xb
 2878 0285 55       		.uleb128 0x55
 2879 0286 17       		.uleb128 0x17
 2880 0287 58       		.uleb128 0x58
 2881 0288 0B       		.uleb128 0xb
 2882 0289 59       		.uleb128 0x59
 2883 028a 05       		.uleb128 0x5
 2884 028b 57       		.uleb128 0x57
 2885 028c 0B       		.uleb128 0xb
 2886 028d 00       		.byte	0
 2887 028e 00       		.byte	0
 2888 028f 2E       		.uleb128 0x2e
 2889 0290 898201   		.uleb128 0x4109
 2890 0293 01       		.byte	0x1
 2891 0294 11       		.uleb128 0x11
 2892 0295 01       		.uleb128 0x1
 2893 0296 31       		.uleb128 0x31
 2894 0297 13       		.uleb128 0x13
ARM GAS  /tmp/ccLmd5D2.s 			page 52


 2895 0298 00       		.byte	0
 2896 0299 00       		.byte	0
 2897 029a 2F       		.uleb128 0x2f
 2898 029b 05       		.uleb128 0x5
 2899 029c 00       		.byte	0
 2900 029d 03       		.uleb128 0x3
 2901 029e 08       		.uleb128 0x8
 2902 029f 3A       		.uleb128 0x3a
 2903 02a0 0B       		.uleb128 0xb
 2904 02a1 3B       		.uleb128 0x3b
 2905 02a2 0B       		.uleb128 0xb
 2906 02a3 39       		.uleb128 0x39
 2907 02a4 0B       		.uleb128 0xb
 2908 02a5 49       		.uleb128 0x49
 2909 02a6 13       		.uleb128 0x13
 2910 02a7 02       		.uleb128 0x2
 2911 02a8 17       		.uleb128 0x17
 2912 02a9 B742     		.uleb128 0x2137
 2913 02ab 17       		.uleb128 0x17
 2914 02ac 00       		.byte	0
 2915 02ad 00       		.byte	0
 2916 02ae 30       		.uleb128 0x30
 2917 02af 2E       		.uleb128 0x2e
 2918 02b0 01       		.byte	0x1
 2919 02b1 03       		.uleb128 0x3
 2920 02b2 0E       		.uleb128 0xe
 2921 02b3 3A       		.uleb128 0x3a
 2922 02b4 0B       		.uleb128 0xb
 2923 02b5 3B       		.uleb128 0x3b
 2924 02b6 0B       		.uleb128 0xb
 2925 02b7 39       		.uleb128 0x39
 2926 02b8 0B       		.uleb128 0xb
 2927 02b9 27       		.uleb128 0x27
 2928 02ba 19       		.uleb128 0x19
 2929 02bb 49       		.uleb128 0x49
 2930 02bc 13       		.uleb128 0x13
 2931 02bd 20       		.uleb128 0x20
 2932 02be 0B       		.uleb128 0xb
 2933 02bf 01       		.uleb128 0x1
 2934 02c0 13       		.uleb128 0x13
 2935 02c1 00       		.byte	0
 2936 02c2 00       		.byte	0
 2937 02c3 31       		.uleb128 0x31
 2938 02c4 05       		.uleb128 0x5
 2939 02c5 00       		.byte	0
 2940 02c6 03       		.uleb128 0x3
 2941 02c7 08       		.uleb128 0x8
 2942 02c8 3A       		.uleb128 0x3a
 2943 02c9 0B       		.uleb128 0xb
 2944 02ca 3B       		.uleb128 0x3b
 2945 02cb 0B       		.uleb128 0xb
 2946 02cc 39       		.uleb128 0x39
 2947 02cd 0B       		.uleb128 0xb
 2948 02ce 49       		.uleb128 0x49
 2949 02cf 13       		.uleb128 0x13
 2950 02d0 00       		.byte	0
 2951 02d1 00       		.byte	0
ARM GAS  /tmp/ccLmd5D2.s 			page 53


 2952 02d2 32       		.uleb128 0x32
 2953 02d3 34       		.uleb128 0x34
 2954 02d4 00       		.byte	0
 2955 02d5 03       		.uleb128 0x3
 2956 02d6 0E       		.uleb128 0xe
 2957 02d7 49       		.uleb128 0x49
 2958 02d8 13       		.uleb128 0x13
 2959 02d9 34       		.uleb128 0x34
 2960 02da 19       		.uleb128 0x19
 2961 02db 00       		.byte	0
 2962 02dc 00       		.byte	0
 2963 02dd 33       		.uleb128 0x33
 2964 02de 34       		.uleb128 0x34
 2965 02df 00       		.byte	0
 2966 02e0 03       		.uleb128 0x3
 2967 02e1 08       		.uleb128 0x8
 2968 02e2 3A       		.uleb128 0x3a
 2969 02e3 0B       		.uleb128 0xb
 2970 02e4 3B       		.uleb128 0x3b
 2971 02e5 0B       		.uleb128 0xb
 2972 02e6 39       		.uleb128 0x39
 2973 02e7 0B       		.uleb128 0xb
 2974 02e8 49       		.uleb128 0x49
 2975 02e9 13       		.uleb128 0x13
 2976 02ea 00       		.byte	0
 2977 02eb 00       		.byte	0
 2978 02ec 34       		.uleb128 0x34
 2979 02ed 2E       		.uleb128 0x2e
 2980 02ee 00       		.byte	0
 2981 02ef 03       		.uleb128 0x3
 2982 02f0 0E       		.uleb128 0xe
 2983 02f1 3A       		.uleb128 0x3a
 2984 02f2 0B       		.uleb128 0xb
 2985 02f3 3B       		.uleb128 0x3b
 2986 02f4 05       		.uleb128 0x5
 2987 02f5 39       		.uleb128 0x39
 2988 02f6 0B       		.uleb128 0xb
 2989 02f7 27       		.uleb128 0x27
 2990 02f8 19       		.uleb128 0x19
 2991 02f9 49       		.uleb128 0x49
 2992 02fa 13       		.uleb128 0x13
 2993 02fb 20       		.uleb128 0x20
 2994 02fc 0B       		.uleb128 0xb
 2995 02fd 00       		.byte	0
 2996 02fe 00       		.byte	0
 2997 02ff 35       		.uleb128 0x35
 2998 0300 2E       		.uleb128 0x2e
 2999 0301 01       		.byte	0x1
 3000 0302 03       		.uleb128 0x3
 3001 0303 0E       		.uleb128 0xe
 3002 0304 3A       		.uleb128 0x3a
 3003 0305 0B       		.uleb128 0xb
 3004 0306 3B       		.uleb128 0x3b
 3005 0307 05       		.uleb128 0x5
 3006 0308 39       		.uleb128 0x39
 3007 0309 0B       		.uleb128 0xb
 3008 030a 27       		.uleb128 0x27
ARM GAS  /tmp/ccLmd5D2.s 			page 54


 3009 030b 19       		.uleb128 0x19
 3010 030c 20       		.uleb128 0x20
 3011 030d 0B       		.uleb128 0xb
 3012 030e 01       		.uleb128 0x1
 3013 030f 13       		.uleb128 0x13
 3014 0310 00       		.byte	0
 3015 0311 00       		.byte	0
 3016 0312 36       		.uleb128 0x36
 3017 0313 2E       		.uleb128 0x2e
 3018 0314 00       		.byte	0
 3019 0315 03       		.uleb128 0x3
 3020 0316 0E       		.uleb128 0xe
 3021 0317 3A       		.uleb128 0x3a
 3022 0318 0B       		.uleb128 0xb
 3023 0319 3B       		.uleb128 0x3b
 3024 031a 05       		.uleb128 0x5
 3025 031b 39       		.uleb128 0x39
 3026 031c 0B       		.uleb128 0xb
 3027 031d 27       		.uleb128 0x27
 3028 031e 19       		.uleb128 0x19
 3029 031f 20       		.uleb128 0x20
 3030 0320 0B       		.uleb128 0xb
 3031 0321 00       		.byte	0
 3032 0322 00       		.byte	0
 3033 0323 37       		.uleb128 0x37
 3034 0324 05       		.uleb128 0x5
 3035 0325 00       		.byte	0
 3036 0326 03       		.uleb128 0x3
 3037 0327 0E       		.uleb128 0xe
 3038 0328 3A       		.uleb128 0x3a
 3039 0329 0B       		.uleb128 0xb
 3040 032a 3B       		.uleb128 0x3b
 3041 032b 05       		.uleb128 0x5
 3042 032c 39       		.uleb128 0x39
 3043 032d 0B       		.uleb128 0xb
 3044 032e 49       		.uleb128 0x49
 3045 032f 13       		.uleb128 0x13
 3046 0330 00       		.byte	0
 3047 0331 00       		.byte	0
 3048 0332 38       		.uleb128 0x38
 3049 0333 2E       		.uleb128 0x2e
 3050 0334 00       		.byte	0
 3051 0335 3F       		.uleb128 0x3f
 3052 0336 19       		.uleb128 0x19
 3053 0337 3C       		.uleb128 0x3c
 3054 0338 19       		.uleb128 0x19
 3055 0339 6E       		.uleb128 0x6e
 3056 033a 0E       		.uleb128 0xe
 3057 033b 03       		.uleb128 0x3
 3058 033c 0E       		.uleb128 0xe
 3059 033d 3A       		.uleb128 0x3a
 3060 033e 0B       		.uleb128 0xb
 3061 033f 3B       		.uleb128 0x3b
 3062 0340 0B       		.uleb128 0xb
 3063 0341 39       		.uleb128 0x39
 3064 0342 0B       		.uleb128 0xb
 3065 0343 00       		.byte	0
ARM GAS  /tmp/ccLmd5D2.s 			page 55


 3066 0344 00       		.byte	0
 3067 0345 39       		.uleb128 0x39
 3068 0346 2E       		.uleb128 0x2e
 3069 0347 00       		.byte	0
 3070 0348 3F       		.uleb128 0x3f
 3071 0349 19       		.uleb128 0x19
 3072 034a 3C       		.uleb128 0x3c
 3073 034b 19       		.uleb128 0x19
 3074 034c 6E       		.uleb128 0x6e
 3075 034d 0E       		.uleb128 0xe
 3076 034e 03       		.uleb128 0x3
 3077 034f 0E       		.uleb128 0xe
 3078 0350 3A       		.uleb128 0x3a
 3079 0351 0B       		.uleb128 0xb
 3080 0352 3B       		.uleb128 0x3b
 3081 0353 05       		.uleb128 0x5
 3082 0354 39       		.uleb128 0x39
 3083 0355 0B       		.uleb128 0xb
 3084 0356 00       		.byte	0
 3085 0357 00       		.byte	0
 3086 0358 00       		.byte	0
 3087              		.section	.debug_loc,"",%progbits
 3088              	.Ldebug_loc0:
 3089              	.LVUS1:
 3090 0000 02       		.uleb128 .LVU73
 3091 0001 00       		.uleb128 .LVU83
 3092              	.LLST1:
 3093 0002 3C000000 		.4byte	.LVL11
 3094 0006 43000000 		.4byte	.LVL13-1
 3095 000a 0100     		.2byte	0x1
 3096 000c 50       		.byte	0x50
 3097 000d 00000000 		.4byte	0
 3098 0011 00000000 		.4byte	0
 3099              	.LVUS2:
 3100 0015 00       		.uleb128 .LVU81
 3101 0016 00       		.uleb128 .LVU91
 3102              	.LLST2:
 3103 0017 3E000000 		.4byte	.LVL12
 3104 001b 5C000000 		.4byte	.LVL17
 3105 001f 0100     		.2byte	0x1
 3106 0021 55       		.byte	0x55
 3107 0022 00000000 		.4byte	0
 3108 0026 00000000 		.4byte	0
 3109              	.LVUS3:
 3110 002a 05       		.uleb128 .LVU40
 3111 002b 00       		.uleb128 .LVU43
 3112 002c 00       		.uleb128 .LVU43
 3113 002d 01       		.uleb128 .LVU85
 3114 002e 01       		.uleb128 .LVU85
 3115 002f 00       		.uleb128 .LVU87
 3116 0030 00       		.uleb128 .LVU87
 3117 0031 00       		.uleb128 .LVU91
 3118              	.LLST3:
 3119 0032 2A000000 		.4byte	.LVL7
 3120 0036 30000000 		.4byte	.LVL8
 3121 003a 0200     		.2byte	0x2
 3122 003c 30       		.byte	0x30
ARM GAS  /tmp/ccLmd5D2.s 			page 56


 3123 003d 9F       		.byte	0x9f
 3124 003e 30000000 		.4byte	.LVL8
 3125 0042 4A000000 		.4byte	.LVL14
 3126 0046 0500     		.2byte	0x5
 3127 0048 34       		.byte	0x34
 3128 0049 74       		.byte	0x74
 3129 004a 00       		.sleb128 0
 3130 004b 1C       		.byte	0x1c
 3131 004c 9F       		.byte	0x9f
 3132 004d 4A000000 		.4byte	.LVL14
 3133 0051 4C000000 		.4byte	.LVL15
 3134 0055 0500     		.2byte	0x5
 3135 0057 35       		.byte	0x35
 3136 0058 74       		.byte	0x74
 3137 0059 00       		.sleb128 0
 3138 005a 1C       		.byte	0x1c
 3139 005b 9F       		.byte	0x9f
 3140 005c 4C000000 		.4byte	.LVL15
 3141 0060 5C000000 		.4byte	.LVL17
 3142 0064 0500     		.2byte	0x5
 3143 0066 34       		.byte	0x34
 3144 0067 74       		.byte	0x74
 3145 0068 00       		.sleb128 0
 3146 0069 1C       		.byte	0x1c
 3147 006a 9F       		.byte	0x9f
 3148 006b 00000000 		.4byte	0
 3149 006f 00000000 		.4byte	0
 3150              	.LVUS4:
 3151 0073 00       		.uleb128 .LVU59
 3152 0074 02       		.uleb128 .LVU73
 3153              	.LLST4:
 3154 0075 38000000 		.4byte	.LVL10
 3155 0079 3C000000 		.4byte	.LVL11
 3156 007d 0100     		.2byte	0x1
 3157 007f 50       		.byte	0x50
 3158 0080 00000000 		.4byte	0
 3159 0084 00000000 		.4byte	0
 3160              	.LVUS5:
 3161 0088 09       		.uleb128 .LVU52
 3162 0089 00       		.uleb128 .LVU54
 3163              	.LLST5:
 3164 008a 30000000 		.4byte	.LVL8
 3165 008e 34000000 		.4byte	.LVL9
 3166 0092 0300     		.2byte	0x3
 3167 0094 08       		.byte	0x8
 3168 0095 30       		.byte	0x30
 3169 0096 9F       		.byte	0x9f
 3170 0097 00000000 		.4byte	0
 3171 009b 00000000 		.4byte	0
 3172              	.LVUS6:
 3173 009f 0A       		.uleb128 .LVU69
 3174 00a0 00       		.uleb128 .LVU71
 3175              	.LLST6:
 3176 00a1 38000000 		.4byte	.LVL10
 3177 00a5 3C000000 		.4byte	.LVL11
 3178 00a9 0200     		.2byte	0x2
 3179 00ab 30       		.byte	0x30
ARM GAS  /tmp/ccLmd5D2.s 			page 57


 3180 00ac 9F       		.byte	0x9f
 3181 00ad 00000000 		.4byte	0
 3182 00b1 00000000 		.4byte	0
 3183              	.LVUS7:
 3184 00b5 04       		.uleb128 .LVU75
 3185 00b6 00       		.uleb128 .LVU81
 3186              	.LLST7:
 3187 00b7 3C000000 		.4byte	.LVL11
 3188 00bb 3E000000 		.4byte	.LVL12
 3189 00bf 0100     		.2byte	0x1
 3190 00c1 50       		.byte	0x50
 3191 00c2 00000000 		.4byte	0
 3192 00c6 00000000 		.4byte	0
 3193              	.LVUS0:
 3194 00ca 00       		.uleb128 0
 3195 00cb 00       		.uleb128 .LVU6
 3196 00cc 00       		.uleb128 .LVU6
 3197 00cd 00       		.uleb128 .LVU10
 3198 00ce 00       		.uleb128 .LVU10
 3199 00cf 00       		.uleb128 .LVU11
 3200 00d0 00       		.uleb128 .LVU11
 3201 00d1 00       		.uleb128 0
 3202              	.LLST0:
 3203 00d2 00000000 		.4byte	.LVL0
 3204 00d6 09000000 		.4byte	.LVL1-1
 3205 00da 0100     		.2byte	0x1
 3206 00dc 50       		.byte	0x50
 3207 00dd 09000000 		.4byte	.LVL1-1
 3208 00e1 22000000 		.4byte	.LVL4
 3209 00e5 0100     		.2byte	0x1
 3210 00e7 54       		.byte	0x54
 3211 00e8 22000000 		.4byte	.LVL4
 3212 00ec 25000000 		.4byte	.LVL5-1
 3213 00f0 0100     		.2byte	0x1
 3214 00f2 50       		.byte	0x50
 3215 00f3 25000000 		.4byte	.LVL5-1
 3216 00f7 26000000 		.4byte	.LFE404
 3217 00fb 0400     		.2byte	0x4
 3218 00fd F3       		.byte	0xf3
 3219 00fe 01       		.uleb128 0x1
 3220 00ff 50       		.byte	0x50
 3221 0100 9F       		.byte	0x9f
 3222 0101 00000000 		.4byte	0
 3223 0105 00000000 		.4byte	0
 3224              		.section	.debug_aranges,"",%progbits
 3225 0000 24000000 		.4byte	0x24
 3226 0004 0200     		.2byte	0x2
 3227 0006 00000000 		.4byte	.Ldebug_info0
 3228 000a 04       		.byte	0x4
 3229 000b 00       		.byte	0
 3230 000c 0000     		.2byte	0
 3231 000e 0000     		.2byte	0
 3232 0010 00000000 		.4byte	.LFB404
 3233 0014 26000000 		.4byte	.LFE404-.LFB404
 3234 0018 00000000 		.4byte	.LFB405
 3235 001c 7C000000 		.4byte	.LFE405-.LFB405
 3236 0020 00000000 		.4byte	0
ARM GAS  /tmp/ccLmd5D2.s 			page 58


 3237 0024 00000000 		.4byte	0
 3238              		.section	.debug_ranges,"",%progbits
 3239              	.Ldebug_ranges0:
 3240 0000 02000000 		.4byte	.LBB46
 3241 0004 04000000 		.4byte	.LBE46
 3242 0008 06000000 		.4byte	.LBB56
 3243 000c 08000000 		.4byte	.LBE56
 3244 0010 1A000000 		.4byte	.LBB57
 3245 0014 1A000000 		.4byte	.LBE57
 3246 0018 00000000 		.4byte	0
 3247 001c 00000000 		.4byte	0
 3248 0020 02000000 		.4byte	.LBB48
 3249 0024 04000000 		.4byte	.LBE48
 3250 0028 06000000 		.4byte	.LBB52
 3251 002c 08000000 		.4byte	.LBE52
 3252 0030 1A000000 		.4byte	.LBB53
 3253 0034 1A000000 		.4byte	.LBE53
 3254 0038 00000000 		.4byte	0
 3255 003c 00000000 		.4byte	0
 3256 0040 2A000000 		.4byte	.LBB58
 3257 0044 2A000000 		.4byte	.LBE58
 3258 0048 2C000000 		.4byte	.LBB97
 3259 004c 30000000 		.4byte	.LBE97
 3260 0050 30000000 		.4byte	.LBB98
 3261 0054 30000000 		.4byte	.LBE98
 3262 0058 30000000 		.4byte	.LBB99
 3263 005c 34000000 		.4byte	.LBE99
 3264 0060 34000000 		.4byte	.LBB100
 3265 0064 38000000 		.4byte	.LBE100
 3266 0068 38000000 		.4byte	.LBB101
 3267 006c 56000000 		.4byte	.LBE101
 3268 0070 5C000000 		.4byte	.LBB102
 3269 0074 7C000000 		.4byte	.LBE102
 3270 0078 00000000 		.4byte	0
 3271 007c 00000000 		.4byte	0
 3272 0080 2C000000 		.4byte	.LBB59
 3273 0084 30000000 		.4byte	.LBE59
 3274 0088 30000000 		.4byte	.LBB90
 3275 008c 30000000 		.4byte	.LBE90
 3276 0090 30000000 		.4byte	.LBB91
 3277 0094 30000000 		.4byte	.LBE91
 3278 0098 30000000 		.4byte	.LBB92
 3279 009c 34000000 		.4byte	.LBE92
 3280 00a0 34000000 		.4byte	.LBB93
 3281 00a4 38000000 		.4byte	.LBE93
 3282 00a8 38000000 		.4byte	.LBB94
 3283 00ac 3C000000 		.4byte	.LBE94
 3284 00b0 00000000 		.4byte	0
 3285 00b4 00000000 		.4byte	0
 3286 00b8 2C000000 		.4byte	.LBB61
 3287 00bc 2E000000 		.4byte	.LBE61
 3288 00c0 30000000 		.4byte	.LBB80
 3289 00c4 30000000 		.4byte	.LBE80
 3290 00c8 30000000 		.4byte	.LBB81
 3291 00cc 30000000 		.4byte	.LBE81
 3292 00d0 30000000 		.4byte	.LBB82
 3293 00d4 34000000 		.4byte	.LBE82
ARM GAS  /tmp/ccLmd5D2.s 			page 59


 3294 00d8 00000000 		.4byte	0
 3295 00dc 00000000 		.4byte	0
 3296 00e0 2C000000 		.4byte	.LBB62
 3297 00e4 2E000000 		.4byte	.LBE62
 3298 00e8 30000000 		.4byte	.LBB67
 3299 00ec 30000000 		.4byte	.LBE67
 3300 00f0 30000000 		.4byte	.LBB68
 3301 00f4 34000000 		.4byte	.LBE68
 3302 00f8 00000000 		.4byte	0
 3303 00fc 00000000 		.4byte	0
 3304 0100 2C000000 		.4byte	.LBB63
 3305 0104 2E000000 		.4byte	.LBE63
 3306 0108 30000000 		.4byte	.LBB66
 3307 010c 34000000 		.4byte	.LBE66
 3308 0110 00000000 		.4byte	0
 3309 0114 00000000 		.4byte	0
 3310 0118 2E000000 		.4byte	.LBB69
 3311 011c 30000000 		.4byte	.LBE69
 3312 0120 38000000 		.4byte	.LBB83
 3313 0124 38000000 		.4byte	.LBE83
 3314 0128 38000000 		.4byte	.LBB84
 3315 012c 3C000000 		.4byte	.LBE84
 3316 0130 00000000 		.4byte	0
 3317 0134 00000000 		.4byte	0
 3318 0138 2E000000 		.4byte	.LBB72
 3319 013c 30000000 		.4byte	.LBE72
 3320 0140 38000000 		.4byte	.LBB75
 3321 0144 3C000000 		.4byte	.LBE75
 3322 0148 00000000 		.4byte	0
 3323 014c 00000000 		.4byte	0
 3324 0150 00000000 		.4byte	.LFB404
 3325 0154 26000000 		.4byte	.LFE404
 3326 0158 00000000 		.4byte	.LFB405
 3327 015c 7C000000 		.4byte	.LFE405
 3328 0160 00000000 		.4byte	0
 3329 0164 00000000 		.4byte	0
 3330              		.section	.debug_line,"",%progbits
 3331              	.Ldebug_line0:
 3332 0000 BC040000 		.section	.debug_str,"MS",%progbits,1
 3332      03003A03 
 3332      00000201 
 3332      FB0E0D00 
 3332      01010101 
 3333              	.LASF100:
 3334 0000 72656164 		.ascii	"ready_list_t\000"
 3334      795F6C69 
 3334      73745F74 
 3334      00
 3335              	.LASF50:
 3336 000d 72666375 		.ascii	"rfcu\000"
 3336      00
 3337              	.LASF4:
 3338 0012 73697A65 		.ascii	"size_t\000"
 3338      5F7400
 3339              	.LASF74:
 3340 0019 64656C74 		.ascii	"delta\000"
 3340      6100
ARM GAS  /tmp/ccLmd5D2.s 			page 60


 3341              	.LASF88:
 3342 001f 7264796D 		.ascii	"rdymsg\000"
 3342      736700
 3343              	.LASF133:
 3344 0026 72745F74 		.ascii	"rt_test_sequence_009_array\000"
 3344      6573745F 
 3344      73657175 
 3344      656E6365 
 3344      5F303039 
 3345              	.LASF18:
 3346 0041 75696E74 		.ascii	"uint64_t\000"
 3346      36345F74 
 3346      00
 3347              	.LASF5:
 3348 004a 5F5F7569 		.ascii	"__uint8_t\000"
 3348      6E74385F 
 3348      7400
 3349              	.LASF68:
 3350 0054 70726576 		.ascii	"prev\000"
 3350      00
 3351              	.LASF75:
 3352 0059 706F7274 		.ascii	"port_intctx\000"
 3352      5F696E74 
 3352      63747800 
 3353              	.LASF60:
 3354 0065 73797374 		.ascii	"system_debug_t\000"
 3354      656D5F64 
 3354      65627567 
 3354      5F7400
 3355              	.LASF49:
 3356 0074 636F7265 		.ascii	"core_id\000"
 3356      5F696400 
 3357              	.LASF122:
 3358 007c 73747265 		.ascii	"stream\000"
 3358      616D00
 3359              	.LASF69:
 3360 0083 63685F70 		.ascii	"ch_priority_queue_t\000"
 3360      72696F72 
 3360      6974795F 
 3360      71756575 
 3360      655F7400 
 3361              	.LASF14:
 3362 0097 6C6F6E67 		.ascii	"long long unsigned int\000"
 3362      206C6F6E 
 3362      6720756E 
 3362      7369676E 
 3362      65642069 
 3363              	.LASF89:
 3364 00ae 65786974 		.ascii	"exitcode\000"
 3364      636F6465 
 3364      00
 3365              	.LASF52:
 3366 00b7 6D61696E 		.ascii	"mainthread\000"
 3366      74687265 
 3366      616400
 3367              	.LASF92:
 3368 00c2 73656E74 		.ascii	"sentmsg\000"
ARM GAS  /tmp/ccLmd5D2.s 			page 61


 3368      6D736700 
 3369              	.LASF81:
 3370 00ca 76697274 		.ascii	"virtual_timers_list_t\000"
 3370      75616C5F 
 3370      74696D65 
 3370      72735F6C 
 3370      6973745F 
 3371              	.LASF65:
 3372 00e0 6E657874 		.ascii	"next\000"
 3372      00
 3373              	.LASF125:
 3374 00e5 74656172 		.ascii	"teardown\000"
 3374      646F776E 
 3374      00
 3375              	.LASF36:
 3376 00ee 72656673 		.ascii	"refs\000"
 3376      00
 3377              	.LASF120:
 3378 00f3 746F6B65 		.ascii	"tokens_buffer\000"
 3378      6E735F62 
 3378      75666665 
 3378      7200
 3379              	.LASF1:
 3380 0101 6C6F6E67 		.ascii	"long long int\000"
 3380      206C6F6E 
 3380      6720696E 
 3380      7400
 3381              	.LASF3:
 3382 010f 7369676E 		.ascii	"signed char\000"
 3382      65642063 
 3382      68617200 
 3383              	.LASF129:
 3384 011b 74657374 		.ascii	"testsequence_t\000"
 3384      73657175 
 3384      656E6365 
 3384      5F7400
 3385              	.LASF73:
 3386 012a 63685F64 		.ascii	"ch_delta_list\000"
 3386      656C7461 
 3386      5F6C6973 
 3386      7400
 3387              	.LASF149:
 3388 0138 74657374 		.ascii	"test_emit_token\000"
 3388      5F656D69 
 3388      745F746F 
 3388      6B656E00 
 3389              	.LASF157:
 3390 0148 72745F74 		.ascii	"rt_test_009_001\000"
 3390      6573745F 
 3390      3030395F 
 3390      30303100 
 3391              	.LASF47:
 3392 0158 76746C69 		.ascii	"vtlist\000"
 3392      737400
 3393              	.LASF142:
 3394 015f 706F7274 		.ascii	"port_unlock\000"
 3394      5F756E6C 
ARM GAS  /tmp/ccLmd5D2.s 			page 62


 3394      6F636B00 
 3395              	.LASF151:
 3396 016b 5F5F7465 		.ascii	"__test_assert_sequence\000"
 3396      73745F61 
 3396      73736572 
 3396      745F7365 
 3396      7175656E 
 3397              	.LASF38:
 3398 0182 6D736771 		.ascii	"msgqueue\000"
 3398      75657565 
 3398      00
 3399              	.LASF123:
 3400 018b 63685F74 		.ascii	"ch_test_context_t\000"
 3400      6573745F 
 3400      636F6E74 
 3400      6578745F 
 3400      7400
 3401              	.LASF34:
 3402 019d 73746174 		.ascii	"state\000"
 3402      6500
 3403              	.LASF10:
 3404 01a3 6C6F6E67 		.ascii	"long int\000"
 3404      20696E74 
 3404      00
 3405              	.LASF116:
 3406 01ac 676C6F62 		.ascii	"global_fail\000"
 3406      616C5F66 
 3406      61696C00 
 3407              	.LASF153:
 3408 01b8 63684D73 		.ascii	"chMsgSend\000"
 3408      6753656E 
 3408      6400
 3409              	.LASF22:
 3410 01c2 74737461 		.ascii	"tstate_t\000"
 3410      74655F74 
 3410      00
 3411              	.LASF54:
 3412 01cb 63685F72 		.ascii	"ch_rfcu\000"
 3412      66637500 
 3413              	.LASF67:
 3414 01d3 63685F71 		.ascii	"ch_queue\000"
 3414      75657565 
 3414      00
 3415              	.LASF121:
 3416 01dc 70757463 		.ascii	"putchar\000"
 3416      68617200 
 3417              	.LASF130:
 3418 01e4 63687465 		.ascii	"chtest\000"
 3418      737400
 3419              	.LASF72:
 3420 01eb 63685F64 		.ascii	"ch_delta_list_t\000"
 3420      656C7461 
 3420      5F6C6973 
 3420      745F7400 
 3421              	.LASF119:
 3422 01fb 746F6B70 		.ascii	"tokp\000"
 3422      00
ARM GAS  /tmp/ccLmd5D2.s 			page 63


 3423              	.LASF82:
 3424 0200 63685F72 		.ascii	"ch_registry\000"
 3424      65676973 
 3424      74727900 
 3425              	.LASF11:
 3426 020c 5F5F7569 		.ascii	"__uint32_t\000"
 3426      6E743332 
 3426      5F7400
 3427              	.LASF55:
 3428 0217 6D61736B 		.ascii	"mask\000"
 3428      00
 3429              	.LASF37:
 3430 021c 77616974 		.ascii	"waiting\000"
 3430      696E6700 
 3431              	.LASF102:
 3432 0224 6D61696E 		.ascii	"mainthread_base\000"
 3432      74687265 
 3432      61645F62 
 3432      61736500 
 3433              	.LASF107:
 3434 0234 6D757465 		.ascii	"mutex_t\000"
 3434      785F7400 
 3435              	.LASF113:
 3436 023c 42617365 		.ascii	"BaseSequentialStream\000"
 3436      53657175 
 3436      656E7469 
 3436      616C5374 
 3436      7265616D 
 3437              	.LASF62:
 3438 0251 73797369 		.ascii	"sysinterval_t\000"
 3438      6E746572 
 3438      76616C5F 
 3438      7400
 3439              	.LASF27:
 3440 025f 636E745F 		.ascii	"cnt_t\000"
 3440      7400
 3441              	.LASF0:
 3442 0265 756E7369 		.ascii	"unsigned int\000"
 3442      676E6564 
 3442      20696E74 
 3442      00
 3443              	.LASF93:
 3444 0272 77747365 		.ascii	"wtsemp\000"
 3444      6D7000
 3445              	.LASF91:
 3446 0279 77747472 		.ascii	"wttrp\000"
 3446      7000
 3447              	.LASF30:
 3448 027f 72717565 		.ascii	"rqueue\000"
 3448      756500
 3449              	.LASF66:
 3450 0286 63685F71 		.ascii	"ch_queue_t\000"
 3450      75657565 
 3450      5F7400
 3451              	.LASF136:
 3452 0291 63684D73 		.ascii	"chMsgGet\000"
 3452      67476574 
ARM GAS  /tmp/ccLmd5D2.s 			page 64


 3452      00
 3453              	.LASF32:
 3454 029a 6E616D65 		.ascii	"name\000"
 3454      00
 3455              	.LASF83:
 3456 029f 71756575 		.ascii	"queue\000"
 3456      6500
 3457              	.LASF42:
 3458 02a5 6D706F6F 		.ascii	"mpool\000"
 3458      6C00
 3459              	.LASF147:
 3460 02ab 63684D73 		.ascii	"chMsgWaitS\000"
 3460      67576169 
 3460      745300
 3461              	.LASF8:
 3462 02b6 73686F72 		.ascii	"short unsigned int\000"
 3462      7420756E 
 3462      7369676E 
 3462      65642069 
 3462      6E7400
 3463              	.LASF44:
 3464 02c9 63685F74 		.ascii	"ch_thread\000"
 3464      68726561 
 3464      6400
 3465              	.LASF25:
 3466 02d3 6D73675F 		.ascii	"msg_t\000"
 3466      7400
 3467              	.LASF39:
 3468 02d9 6570656E 		.ascii	"epending\000"
 3468      64696E67 
 3468      00
 3469              	.LASF131:
 3470 02e2 72745F74 		.ascii	"rt_test_sequence_009\000"
 3470      6573745F 
 3470      73657175 
 3470      656E6365 
 3470      5F303039 
 3471              	.LASF21:
 3472 02f7 746D6F64 		.ascii	"tmode_t\000"
 3472      655F7400 
 3473              	.LASF64:
 3474 02ff 63685F6C 		.ascii	"ch_list\000"
 3474      69737400 
 3475              	.LASF155:
 3476 0307 2E2E2F43 		.ascii	"../ChibiOS/test/rt/source/test/rt_test_sequence_009"
 3476      68696269 
 3476      4F532F74 
 3476      6573742F 
 3476      72742F73 
 3477 033a 2E6300   		.ascii	".c\000"
 3478              	.LASF98:
 3479 033d 63685F72 		.ascii	"ch_ready_list\000"
 3479      65616479 
 3479      5F6C6973 
 3479      7400
 3480              	.LASF26:
 3481 034b 6576656E 		.ascii	"eventmask_t\000"
ARM GAS  /tmp/ccLmd5D2.s 			page 65


 3481      746D6173 
 3481      6B5F7400 
 3482              	.LASF20:
 3483 0357 73746B61 		.ascii	"stkalign_t\000"
 3483      6C69676E 
 3483      5F7400
 3484              	.LASF127:
 3485 0362 74657374 		.ascii	"testcase_t\000"
 3485      63617365 
 3485      5F7400
 3486              	.LASF152:
 3487 036d 63685468 		.ascii	"chThdCreateStatic\000"
 3487      64437265 
 3487      61746553 
 3487      74617469 
 3487      6300
 3488              	.LASF104:
 3489 037f 69646C65 		.ascii	"idlethread_base\000"
 3489      74687265 
 3489      61645F62 
 3489      61736500 
 3490              	.LASF80:
 3491 038f 6C617374 		.ascii	"laststamp\000"
 3491      7374616D 
 3491      7000
 3492              	.LASF111:
 3493 0399 77726974 		.ascii	"write\000"
 3493      6500
 3494              	.LASF41:
 3495 039f 7265616C 		.ascii	"realprio\000"
 3495      7072696F 
 3495      00
 3496              	.LASF53:
 3497 03a8 72666375 		.ascii	"rfcu_mask_t\000"
 3497      5F6D6173 
 3497      6B5F7400 
 3498              	.LASF114:
 3499 03b4 74657374 		.ascii	"test_putchar_t\000"
 3499      5F707574 
 3499      63686172 
 3499      5F7400
 3500              	.LASF135:
 3501 03c3 6D73675F 		.ascii	"msg_thread1\000"
 3501      74687265 
 3501      61643100 
 3502              	.LASF85:
 3503 03cf 74687265 		.ascii	"thread_reference_t\000"
 3503      61645F72 
 3503      65666572 
 3503      656E6365 
 3503      5F7400
 3504              	.LASF77:
 3505 03e2 63685F76 		.ascii	"ch_virtual_timers_list\000"
 3505      69727475 
 3505      616C5F74 
 3505      696D6572 
 3505      735F6C69 
ARM GAS  /tmp/ccLmd5D2.s 			page 66


 3506              	.LASF2:
 3507 03f9 6C6F6E67 		.ascii	"long double\000"
 3507      20646F75 
 3507      626C6500 
 3508              	.LASF63:
 3509 0405 63685F6C 		.ascii	"ch_list_t\000"
 3509      6973745F 
 3509      7400
 3510              	.LASF115:
 3511 040f 63757272 		.ascii	"current_step\000"
 3511      656E745F 
 3511      73746570 
 3511      00
 3512              	.LASF150:
 3513 041c 74657374 		.ascii	"test_wait_threads\000"
 3513      5F776169 
 3513      745F7468 
 3513      72656164 
 3513      7300
 3514              	.LASF101:
 3515 042e 63685F6F 		.ascii	"ch_os_instance_config\000"
 3515      735F696E 
 3515      7374616E 
 3515      63655F63 
 3515      6F6E6669 
 3516              	.LASF76:
 3517 0444 706F7274 		.ascii	"port_context\000"
 3517      5F636F6E 
 3517      74657874 
 3517      00
 3518              	.LASF138:
 3519 0451 63685468 		.ascii	"chThdGetPriorityX\000"
 3519      64476574 
 3519      5072696F 
 3519      72697479 
 3519      5800
 3520              	.LASF124:
 3521 0463 73657475 		.ascii	"setup\000"
 3521      7000
 3522              	.LASF71:
 3523 0469 7072696F 		.ascii	"prio\000"
 3523      00
 3524              	.LASF99:
 3525 046e 63757272 		.ascii	"current\000"
 3525      656E7400 
 3526              	.LASF117:
 3527 0476 6C6F6361 		.ascii	"local_fail\000"
 3527      6C5F6661 
 3527      696C00
 3528              	.LASF13:
 3529 0481 5F5F7569 		.ascii	"__uint64_t\000"
 3529      6E743634 
 3529      5F7400
 3530              	.LASF112:
 3531 048c 72656164 		.ascii	"read\000"
 3531      00
 3532              	.LASF28:
ARM GAS  /tmp/ccLmd5D2.s 			page 67


 3533 0491 636F7265 		.ascii	"core_id_t\000"
 3533      5F69645F 
 3533      7400
 3534              	.LASF23:
 3535 049b 74726566 		.ascii	"trefs_t\000"
 3535      735F7400 
 3536              	.LASF134:
 3537 04a3 72745F74 		.ascii	"rt_test_009_001_execute\000"
 3537      6573745F 
 3537      3030395F 
 3537      3030315F 
 3537      65786563 
 3538              	.LASF126:
 3539 04bb 65786563 		.ascii	"execute\000"
 3539      75746500 
 3540              	.LASF40:
 3541 04c3 6D74786C 		.ascii	"mtxlist\000"
 3541      69737400 
 3542              	.LASF24:
 3543 04cb 74707269 		.ascii	"tprio_t\000"
 3543      6F5F7400 
 3544              	.LASF57:
 3545 04d3 63685F73 		.ascii	"ch_system_debug\000"
 3545      79737465 
 3545      6D5F6465 
 3545      62756700 
 3546              	.LASF108:
 3547 04e3 5F426F6F 		.ascii	"_Bool\000"
 3547      6C00
 3548              	.LASF16:
 3549 04e9 696E7433 		.ascii	"int32_t\000"
 3549      325F7400 
 3550              	.LASF6:
 3551 04f1 756E7369 		.ascii	"unsigned char\000"
 3551      676E6564 
 3551      20636861 
 3551      7200
 3552              	.LASF56:
 3553 04ff 72666375 		.ascii	"rfcu_t\000"
 3553      5F7400
 3554              	.LASF7:
 3555 0506 73686F72 		.ascii	"short int\000"
 3555      7420696E 
 3555      7400
 3556              	.LASF79:
 3557 0510 6C617374 		.ascii	"lasttime\000"
 3557      74696D65 
 3557      00
 3558              	.LASF132:
 3559 0519 74687265 		.ascii	"threads\000"
 3559      61647300 
 3560              	.LASF95:
 3561 0521 65776D61 		.ascii	"ewmask\000"
 3561      736B00
 3562              	.LASF109:
 3563 0528 42617365 		.ascii	"BaseSequentialStreamVMT\000"
 3563      53657175 
ARM GAS  /tmp/ccLmd5D2.s 			page 68


 3563      656E7469 
 3563      616C5374 
 3563      7265616D 
 3564              	.LASF140:
 3565 0540 5F5F6675 		.ascii	"__func__\000"
 3565      6E635F5F 
 3565      00
 3566              	.LASF141:
 3567 0549 63685379 		.ascii	"chSysLock\000"
 3567      734C6F63 
 3567      6B00
 3568              	.LASF148:
 3569 0553 63684D73 		.ascii	"chMsgRelease\000"
 3569      6752656C 
 3569      65617365 
 3569      00
 3570              	.LASF96:
 3571 0560 63685F73 		.ascii	"ch_semaphore\000"
 3571      656D6170 
 3571      686F7265 
 3571      00
 3572              	.LASF84:
 3573 056d 72656769 		.ascii	"registry_t\000"
 3573      73747279 
 3573      5F7400
 3574              	.LASF17:
 3575 0578 75696E74 		.ascii	"uint32_t\000"
 3575      33325F74 
 3575      00
 3576              	.LASF94:
 3577 0581 77746D74 		.ascii	"wtmtxp\000"
 3577      787000
 3578              	.LASF19:
 3579 0588 706F7274 		.ascii	"port_stkalign_t\000"
 3579      5F73746B 
 3579      616C6967 
 3579      6E5F7400 
 3580              	.LASF31:
 3581 0598 6F776E65 		.ascii	"owner\000"
 3581      7200
 3582              	.LASF12:
 3583 059e 6C6F6E67 		.ascii	"long unsigned int\000"
 3583      20756E73 
 3583      69676E65 
 3583      6420696E 
 3583      7400
 3584              	.LASF33:
 3585 05b0 77616261 		.ascii	"wabase\000"
 3585      736500
 3586              	.LASF59:
 3587 05b7 63686172 		.ascii	"char\000"
 3587      00
 3588              	.LASF51:
 3589 05bc 636F6E66 		.ascii	"config\000"
 3589      696700
 3590              	.LASF29:
 3591 05c3 74687265 		.ascii	"thread_t\000"
ARM GAS  /tmp/ccLmd5D2.s 			page 69


 3591      61645F74 
 3591      00
 3592              	.LASF78:
 3593 05cc 646C6973 		.ascii	"dlist\000"
 3593      7400
 3594              	.LASF61:
 3595 05d2 73797374 		.ascii	"systime_t\000"
 3595      696D655F 
 3595      7400
 3596              	.LASF9:
 3597 05dc 5F5F696E 		.ascii	"__int32_t\000"
 3597      7433325F 
 3597      7400
 3598              	.LASF145:
 3599 05e6 5F5F7365 		.ascii	"__set_BASEPRI\000"
 3599      745F4241 
 3599      53455052 
 3599      4900
 3600              	.LASF58:
 3601 05f4 70616E69 		.ascii	"panic_msg\000"
 3601      635F6D73 
 3601      6700
 3602              	.LASF87:
 3603 05fe 70717565 		.ascii	"pqueue\000"
 3603      756500
 3604              	.LASF45:
 3605 0605 63685F6F 		.ascii	"ch_os_instance\000"
 3605      735F696E 
 3605      7374616E 
 3605      636500
 3606              	.LASF43:
 3607 0614 6F735F69 		.ascii	"os_instance_t\000"
 3607      6E737461 
 3607      6E63655F 
 3607      7400
 3608              	.LASF48:
 3609 0622 7265676C 		.ascii	"reglist\000"
 3609      69737400 
 3610              	.LASF70:
 3611 062a 63685F70 		.ascii	"ch_priority_queue\000"
 3611      72696F72 
 3611      6974795F 
 3611      71756575 
 3611      6500
 3612              	.LASF156:
 3613 063c 2F686F6D 		.ascii	"/home/bhimebau/forge/analog_in_out/application\000"
 3613      652F6268 
 3613      696D6562 
 3613      61752F66 
 3613      6F726765 
 3614              	.LASF103:
 3615 066b 6D61696E 		.ascii	"mainthread_end\000"
 3615      74687265 
 3615      61645F65 
 3615      6E6400
 3616              	.LASF137:
 3617 067a 63684D73 		.ascii	"chMsgWait\000"
ARM GAS  /tmp/ccLmd5D2.s 			page 70


 3617      67576169 
 3617      7400
 3618              	.LASF106:
 3619 0684 6F735F69 		.ascii	"os_instance_config_t\000"
 3619      6E737461 
 3619      6E63655F 
 3619      636F6E66 
 3619      69675F74 
 3620              	.LASF97:
 3621 0699 63685F6D 		.ascii	"ch_mutex\000"
 3621      75746578 
 3621      00
 3622              	.LASF146:
 3623 06a2 62617365 		.ascii	"basePri\000"
 3623      50726900 
 3624              	.LASF46:
 3625 06aa 726C6973 		.ascii	"rlist\000"
 3625      7400
 3626              	.LASF139:
 3627 06b0 63685468 		.ascii	"chThdGetSelfX\000"
 3627      64476574 
 3627      53656C66 
 3627      5800
 3628              	.LASF15:
 3629 06be 75696E74 		.ascii	"uint8_t\000"
 3629      385F7400 
 3630              	.LASF35:
 3631 06c6 666C6167 		.ascii	"flags\000"
 3631      7300
 3632              	.LASF90:
 3633 06cc 77746F62 		.ascii	"wtobjp\000"
 3633      6A7000
 3634              	.LASF154:
 3635 06d3 474E5520 		.ascii	"GNU C17 10.3.1 20210621 (release) -mcpu=cortex-m4 -"
 3635      43313720 
 3635      31302E33 
 3635      2E312032 
 3635      30323130 
 3636 0706 6D746875 		.ascii	"mthumb -mfloat-abi=soft -march=armv7e-m -ggdb -O2 -"
 3636      6D62202D 
 3636      6D666C6F 
 3636      61742D61 
 3636      62693D73 
 3637 0739 666F6D69 		.ascii	"fomit-frame-pointer -falign-functions=16 -ffunction"
 3637      742D6672 
 3637      616D652D 
 3637      706F696E 
 3637      74657220 
 3638 076c 2D736563 		.ascii	"-sections -fdata-sections -fno-common\000"
 3638      74696F6E 
 3638      73202D66 
 3638      64617461 
 3638      2D736563 
 3639              	.LASF144:
 3640 0792 63685379 		.ascii	"chSysUnlock\000"
 3640      73556E6C 
 3640      6F636B00 
ARM GAS  /tmp/ccLmd5D2.s 			page 71


 3641              	.LASF110:
 3642 079e 696E7374 		.ascii	"instance_offset\000"
 3642      616E6365 
 3642      5F6F6666 
 3642      73657400 
 3643              	.LASF86:
 3644 07ae 6C697374 		.ascii	"list\000"
 3644      00
 3645              	.LASF143:
 3646 07b3 706F7274 		.ascii	"port_lock\000"
 3646      5F6C6F63 
 3646      6B00
 3647              	.LASF105:
 3648 07bd 69646C65 		.ascii	"idlethread_end\000"
 3648      74687265 
 3648      61645F65 
 3648      6E6400
 3649              	.LASF118:
 3650 07cc 6661696C 		.ascii	"failure_message\000"
 3650      7572655F 
 3650      6D657373 
 3650      61676500 
 3651              	.LASF128:
 3652 07dc 63617365 		.ascii	"cases\000"
 3652      7300
 3653              		.ident	"GCC: (GNU Arm Embedded Toolchain 10.3-2021.07) 10.3.1 20210621 (release)"
ARM GAS  /tmp/ccLmd5D2.s 			page 72


DEFINED SYMBOLS
                            *ABS*:0000000000000000 rt_test_sequence_009.c
     /tmp/ccLmd5D2.s:16     .text.msg_thread1:0000000000000000 $t
     /tmp/ccLmd5D2.s:24     .text.msg_thread1:0000000000000000 msg_thread1
     /tmp/ccLmd5D2.s:72     .rodata.rt_test_009_001_execute.str1.4:0000000000000000 $d
     /tmp/ccLmd5D2.s:79     .text.rt_test_009_001_execute:0000000000000000 $t
     /tmp/ccLmd5D2.s:86     .text.rt_test_009_001_execute:0000000000000000 rt_test_009_001_execute
     /tmp/ccLmd5D2.s:379    .text.rt_test_009_001_execute:0000000000000060 $d
     /tmp/ccLmd5D2.s:412    .rodata.rt_test_sequence_009:0000000000000000 rt_test_sequence_009
     /tmp/ccLmd5D2.s:392    .rodata.str1.4:0000000000000000 $d
     /tmp/ccLmd5D2.s:419    .rodata.rt_test_sequence_009_array:0000000000000000 rt_test_sequence_009_array
     /tmp/ccLmd5D2.s:400    .rodata.rt_test_009_001:0000000000000000 $d
     /tmp/ccLmd5D2.s:403    .rodata.rt_test_009_001:0000000000000000 rt_test_009_001
     /tmp/ccLmd5D2.s:409    .rodata.rt_test_sequence_009:0000000000000000 $d
     /tmp/ccLmd5D2.s:416    .rodata.rt_test_sequence_009_array:0000000000000000 $d

UNDEFINED SYMBOLS
chMsgSend
chThdCreateStatic
chMsgWaitS
chMsgRelease
test_emit_token
test_wait_threads
__test_assert_sequence
ch0
chtest
wa
threads
