ARM GAS  /tmp/ccMmeZ0f.s 			page 1


   1              		.cpu cortex-m4
   2              		.eabi_attribute 20, 1
   3              		.eabi_attribute 21, 1
   4              		.eabi_attribute 23, 3
   5              		.eabi_attribute 24, 1
   6              		.eabi_attribute 25, 1
   7              		.eabi_attribute 26, 1
   8              		.eabi_attribute 30, 2
   9              		.eabi_attribute 34, 1
  10              		.eabi_attribute 18, 4
  11              		.file	"rt_test_sequence_007.c"
  12              		.text
  13              	.Ltext0:
  14              		.cfi_sections	.debug_frame
  15              		.section	.text.rt_test_007_002_setup,"ax",%progbits
  16              		.align	1
  17              		.p2align 4,,15
  18              		.arch armv7e-m
  19              		.syntax unified
  20              		.thumb
  21              		.thumb_func
  22              		.fpu softvfp
  23              		.type	rt_test_007_002_setup, %function
  24              	rt_test_007_002_setup:
  25              	.LFB411:
  26              		.file 1 "../ChibiOS/test/rt/source/test/rt_test_sequence_007.c"
  27              		.loc 1 173 41 view -0
  28              		.cfi_startproc
  29              		@ args = 0, pretend = 0, frame = 0
  30              		@ frame_needed = 0, uses_anonymous_args = 0
  31              		@ link register save eliminated.
  32              		.loc 1 174 3 view .LVU1
  33 0000 0148     		ldr	r0, .L3
  34 0002 0021     		movs	r1, #0
  35 0004 FFF7FEBF 		b	chSemObjectInit
  36              	.LVL0:
  37              	.L4:
  38              		.align	2
  39              	.L3:
  40 0008 00000000 		.word	.LANCHOR0
  41              		.cfi_endproc
  42              	.LFE411:
  43              		.size	rt_test_007_002_setup, .-rt_test_007_002_setup
  44              		.section	.text.rt_test_007_001_setup,"ax",%progbits
  45              		.align	1
  46              		.p2align 4,,15
  47              		.syntax unified
  48              		.thumb
  49              		.thumb_func
  50              		.fpu softvfp
  51              		.type	rt_test_007_001_setup, %function
  52              	rt_test_007_001_setup:
  53              	.LFB408:
  54              		.loc 1 107 41 view -0
  55              		.cfi_startproc
  56              		@ args = 0, pretend = 0, frame = 0
  57              		@ frame_needed = 0, uses_anonymous_args = 0
ARM GAS  /tmp/ccMmeZ0f.s 			page 2


  58              		@ link register save eliminated.
  59              		.loc 1 108 3 view .LVU3
  60 0000 0148     		ldr	r0, .L6
  61 0002 0121     		movs	r1, #1
  62 0004 FFF7FEBF 		b	chSemObjectInit
  63              	.LVL1:
  64              	.L7:
  65              		.align	2
  66              	.L6:
  67 0008 00000000 		.word	.LANCHOR0
  68              		.cfi_endproc
  69              	.LFE408:
  70              		.size	rt_test_007_001_setup, .-rt_test_007_001_setup
  71              		.section	.text.rt_test_007_001_teardown,"ax",%progbits
  72              		.align	1
  73              		.p2align 4,,15
  74              		.syntax unified
  75              		.thumb
  76              		.thumb_func
  77              		.fpu softvfp
  78              		.type	rt_test_007_001_teardown, %function
  79              	rt_test_007_001_teardown:
  80              	.LFB409:
  81              		.loc 1 111 44 view -0
  82              		.cfi_startproc
  83              		@ args = 0, pretend = 0, frame = 0
  84              		@ frame_needed = 0, uses_anonymous_args = 0
  85              		@ link register save eliminated.
  86              		.loc 1 112 3 view .LVU5
  87              	.LVL2:
  88              	.LBB379:
  89              	.LBI379:
  90              		.file 2 "../ChibiOS/os/rt/include/chsem.h"
  91              		.loc 2 123 20 view .LVU6
  92              	.LBB380:
  93              		.loc 2 125 3 view .LVU7
  94 0000 0248     		ldr	r0, .L9
  95 0002 6FF00102 		mvn	r2, #1
  96 0006 0021     		movs	r1, #0
  97 0008 FFF7FEBF 		b	chSemResetWithMessage
  98              	.LVL3:
  99              	.L10:
 100              		.align	2
 101              	.L9:
 102 000c 00000000 		.word	.LANCHOR0
 103              	.LBE380:
 104              	.LBE379:
 105              		.cfi_endproc
 106              	.LFE409:
 107              		.size	rt_test_007_001_teardown, .-rt_test_007_001_teardown
 108              		.section	.text.rt_test_007_005_teardown,"ax",%progbits
 109              		.align	1
 110              		.p2align 4,,15
 111              		.syntax unified
 112              		.thumb
 113              		.thumb_func
 114              		.fpu softvfp
ARM GAS  /tmp/ccMmeZ0f.s 			page 3


 115              		.type	rt_test_007_005_teardown, %function
 116              	rt_test_007_005_teardown:
 117              	.LFB418:
 118              		.loc 1 369 44 view -0
 119              		.cfi_startproc
 120              		@ args = 0, pretend = 0, frame = 0
 121              		@ frame_needed = 0, uses_anonymous_args = 0
 122              		@ link register save eliminated.
 123              		.loc 1 370 3 view .LVU9
 124 0000 FFF7FEBF 		b	test_wait_threads
 125              	.LVL4:
 126              		.cfi_endproc
 127              	.LFE418:
 128              		.size	rt_test_007_005_teardown, .-rt_test_007_005_teardown
 129              		.section	.rodata.rt_test_007_005_execute.str1.4,"aMS",%progbits,1
 130              		.align	2
 131              	.LC0:
 132 0000 71756575 		.ascii	"queue not empty\000"
 132      65206E6F 
 132      7420656D 
 132      70747900 
 133              		.align	2
 134              	.LC1:
 135 0010 636F756E 		.ascii	"counter not zero\000"
 135      74657220 
 135      6E6F7420 
 135      7A65726F 
 135      00
 136              		.section	.text.rt_test_007_005_execute,"ax",%progbits
 137              		.align	1
 138              		.p2align 4,,15
 139              		.syntax unified
 140              		.thumb
 141              		.thumb_func
 142              		.fpu softvfp
 143              		.type	rt_test_007_005_execute, %function
 144              	rt_test_007_005_execute:
 145              	.LFB419:
 146              		.loc 1 373 43 view -0
 147              		.cfi_startproc
 148              		@ args = 0, pretend = 0, frame = 0
 149              		@ frame_needed = 0, uses_anonymous_args = 0
 150              		.loc 1 377 3 view .LVU11
 151              		.loc 1 373 43 is_stmt 0 view .LVU12
 152 0000 30B5     		push	{r4, r5, lr}
 153              		.cfi_def_cfa_offset 12
 154              		.cfi_offset 4, -12
 155              		.cfi_offset 5, -8
 156              		.cfi_offset 14, -4
 157              	.LBB381:
 158              	.LBB382:
 159              	.LBB383:
 160              	.LBB384:
 161              		.file 3 "../ChibiOS/os/rt/include/chthreads.h"
 162              		.loc 3 343 10 view .LVU13
 163 0002 244B     		ldr	r3, .L18
 164              	.LBE384:
ARM GAS  /tmp/ccMmeZ0f.s 			page 4


 165              	.LBE383:
 166              	.LBE382:
 167              	.LBE381:
 168              		.loc 1 379 18 view .LVU14
 169 0004 2449     		ldr	r1, .L18+4
 170              	.LBB389:
 171              	.LBB387:
 172              		.loc 3 356 37 view .LVU15
 173 0006 DB68     		ldr	r3, [r3, #12]
 174              	.LBE387:
 175              	.LBE389:
 176              		.loc 1 377 3 view .LVU16
 177 0008 244D     		ldr	r5, .L18+8
 178              		.loc 1 379 18 view .LVU17
 179 000a 9A68     		ldr	r2, [r3, #8]
 180 000c 0868     		ldr	r0, [r1]
 181 000e 244B     		ldr	r3, .L18+12
 182              		.loc 1 373 43 view .LVU18
 183 0010 83B0     		sub	sp, sp, #12
 184              		.cfi_def_cfa_offset 24
 185              		.loc 1 379 18 view .LVU19
 186 0012 0024     		movs	r4, #0
 187              		.loc 1 377 3 view .LVU20
 188 0014 0121     		movs	r1, #1
 189              		.loc 1 379 18 view .LVU21
 190 0016 0132     		adds	r2, r2, #1
 191 0018 0094     		str	r4, [sp]
 192              		.loc 1 377 3 view .LVU22
 193 001a 2960     		str	r1, [r5]
 194              		.loc 1 379 5 is_stmt 1 view .LVU23
 195              	.LBB390:
 196              	.LBI381:
 197              		.loc 3 354 23 view .LVU24
 198              	.LBB388:
 199              		.loc 3 356 3 view .LVU25
 200              	.LBB386:
 201              	.LBI383:
 202              		.loc 3 341 25 view .LVU26
 203              	.LBB385:
 204              		.loc 3 343 3 view .LVU27
 205              	.LBE385:
 206              	.LBE386:
 207              	.LBE388:
 208              	.LBE390:
 209              		.loc 1 379 18 is_stmt 0 view .LVU28
 210 001c 4FF4B871 		mov	r1, #368
 211 0020 FFF7FEFF 		bl	chThdCreateStatic
 212              	.LVL5:
 213              		.loc 1 388 5 view .LVU29
 214 0024 1F4C     		ldr	r4, .L18+16
 215              		.loc 1 379 16 view .LVU30
 216 0026 204B     		ldr	r3, .L18+20
 217              		.loc 1 388 5 view .LVU31
 218 0028 2146     		mov	r1, r4
 219              		.loc 1 386 3 view .LVU32
 220 002a 0222     		movs	r2, #2
 221              		.loc 1 379 16 view .LVU33
ARM GAS  /tmp/ccMmeZ0f.s 			page 5


 222 002c 1860     		str	r0, [r3]
 223              		.loc 1 381 3 is_stmt 1 view .LVU34
 224              		.loc 1 381 19 view .LVU35
 225              		.loc 1 386 3 view .LVU36
 226              		.loc 1 388 5 view .LVU37
 227 002e 2046     		mov	r0, r4
 228              		.loc 1 386 3 is_stmt 0 view .LVU38
 229 0030 2A60     		str	r2, [r5]
 230              		.loc 1 388 5 view .LVU39
 231 0032 FFF7FEFF 		bl	chSemSignalWait
 232              	.LVL6:
 233              		.loc 1 389 5 is_stmt 1 view .LVU40
 234              	.LBB391:
 235              	.LBI391:
 236              		.file 4 "../ChibiOS/os/rt/include/chlists.h"
 237              		.loc 4 236 20 view .LVU41
 238              	.LBB392:
 239              		.loc 4 238 3 view .LVU42
 240              		.loc 4 238 10 is_stmt 0 view .LVU43
 241 0036 2068     		ldr	r0, [r4]
 242              	.LBE392:
 243              	.LBE391:
 244              		.loc 1 389 5 view .LVU44
 245 0038 1C49     		ldr	r1, .L18+24
 246 003a 001B     		subs	r0, r0, r4
 247 003c B0FA80F0 		clz	r0, r0
 248 0040 4009     		lsrs	r0, r0, #5
 249 0042 FFF7FEFF 		bl	__test_assert
 250              	.LVL7:
 251 0046 08B1     		cbz	r0, .L17
 252              	.L12:
 253              		.loc 1 404 1 view .LVU45
 254 0048 03B0     		add	sp, sp, #12
 255              		.cfi_remember_state
 256              		.cfi_def_cfa_offset 12
 257              		@ sp needed
 258 004a 30BD     		pop	{r4, r5, pc}
 259              	.L17:
 260              		.cfi_restore_state
 261              		.loc 1 389 66 is_stmt 1 discriminator 2 view .LVU46
 262              		.loc 1 390 5 discriminator 2 view .LVU47
 263 004c A068     		ldr	r0, [r4, #8]
 264 004e 1849     		ldr	r1, .L18+28
 265 0050 B0FA80F0 		clz	r0, r0
 266 0054 4009     		lsrs	r0, r0, #5
 267 0056 FFF7FEFF 		bl	__test_assert
 268              	.LVL8:
 269 005a 0028     		cmp	r0, #0
 270 005c F4D1     		bne	.L12
 271              		.loc 1 390 51 discriminator 2 view .LVU48
 272              		.loc 1 392 3 discriminator 2 view .LVU49
 273              		.loc 1 392 19 discriminator 2 view .LVU50
 274              		.loc 1 397 3 discriminator 2 view .LVU51
 275              		.loc 1 399 5 is_stmt 0 discriminator 2 view .LVU52
 276 005e 2146     		mov	r1, r4
 277              		.loc 1 397 3 discriminator 2 view .LVU53
 278 0060 0323     		movs	r3, #3
ARM GAS  /tmp/ccMmeZ0f.s 			page 6


 279              		.loc 1 399 5 discriminator 2 view .LVU54
 280 0062 2046     		mov	r0, r4
 281              		.loc 1 397 3 discriminator 2 view .LVU55
 282 0064 2B60     		str	r3, [r5]
 283              		.loc 1 399 5 is_stmt 1 discriminator 2 view .LVU56
 284 0066 FFF7FEFF 		bl	chSemSignalWait
 285              	.LVL9:
 286              		.loc 1 400 5 discriminator 2 view .LVU57
 287              	.LBB393:
 288              	.LBI393:
 289              		.loc 4 236 20 discriminator 2 view .LVU58
 290              	.LBB394:
 291              		.loc 4 238 3 discriminator 2 view .LVU59
 292              		.loc 4 238 10 is_stmt 0 discriminator 2 view .LVU60
 293 006a 2068     		ldr	r0, [r4]
 294              	.LBE394:
 295              	.LBE393:
 296              		.loc 1 400 5 discriminator 2 view .LVU61
 297 006c 0F49     		ldr	r1, .L18+24
 298 006e 001B     		subs	r0, r0, r4
 299 0070 B0FA80F0 		clz	r0, r0
 300 0074 4009     		lsrs	r0, r0, #5
 301 0076 FFF7FEFF 		bl	__test_assert
 302              	.LVL10:
 303 007a 0028     		cmp	r0, #0
 304 007c E4D1     		bne	.L12
 305              		.loc 1 400 66 is_stmt 1 discriminator 2 view .LVU62
 306              		.loc 1 401 5 discriminator 2 view .LVU63
 307 007e A068     		ldr	r0, [r4, #8]
 308 0080 0B49     		ldr	r1, .L18+28
 309 0082 B0FA80F0 		clz	r0, r0
 310 0086 4009     		lsrs	r0, r0, #5
 311              		.loc 1 404 1 is_stmt 0 discriminator 2 view .LVU64
 312 0088 03B0     		add	sp, sp, #12
 313              		.cfi_def_cfa_offset 12
 314              		@ sp needed
 315 008a BDE83040 		pop	{r4, r5, lr}
 316              		.cfi_restore 14
 317              		.cfi_restore 5
 318              		.cfi_restore 4
 319              		.cfi_def_cfa_offset 0
 320              		.loc 1 401 5 discriminator 2 view .LVU65
 321 008e FFF7FEBF 		b	__test_assert
 322              	.LVL11:
 323              	.L19:
 324 0092 00BF     		.align	2
 325              	.L18:
 326 0094 00000000 		.word	ch0
 327 0098 00000000 		.word	wa
 328 009c 00000000 		.word	chtest
 329 00a0 00000000 		.word	thread3
 330 00a4 00000000 		.word	.LANCHOR0
 331 00a8 00000000 		.word	threads
 332 00ac 00000000 		.word	.LC0
 333 00b0 10000000 		.word	.LC1
 334              		.cfi_endproc
 335              	.LFE419:
ARM GAS  /tmp/ccMmeZ0f.s 			page 7


 336              		.size	rt_test_007_005_execute, .-rt_test_007_005_execute
 337              		.section	.text.thread3,"ax",%progbits
 338              		.align	1
 339              		.p2align 4,,15
 340              		.syntax unified
 341              		.thumb
 342              		.thumb_func
 343              		.fpu softvfp
 344              		.type	thread3, %function
 345              	thread3:
 346              	.LVL12:
 347              	.LFB406:
 348              		.loc 1 74 33 is_stmt 1 view -0
 349              		.cfi_startproc
 350              		@ args = 0, pretend = 0, frame = 0
 351              		@ frame_needed = 0, uses_anonymous_args = 0
 352              		.loc 1 76 3 view .LVU67
 353              		.loc 1 77 3 view .LVU68
 354              		.loc 1 74 33 is_stmt 0 view .LVU69
 355 0000 10B5     		push	{r4, lr}
 356              		.cfi_def_cfa_offset 8
 357              		.cfi_offset 4, -8
 358              		.cfi_offset 14, -4
 359              		.loc 1 77 3 view .LVU70
 360 0002 044C     		ldr	r4, .L22
 361 0004 2046     		mov	r0, r4
 362              	.LVL13:
 363              		.loc 1 77 3 view .LVU71
 364 0006 FFF7FEFF 		bl	chSemWait
 365              	.LVL14:
 366              		.loc 1 78 3 is_stmt 1 view .LVU72
 367 000a 2046     		mov	r0, r4
 368              		.loc 1 79 1 is_stmt 0 view .LVU73
 369 000c BDE81040 		pop	{r4, lr}
 370              		.cfi_restore 14
 371              		.cfi_restore 4
 372              		.cfi_def_cfa_offset 0
 373              		.loc 1 78 3 view .LVU74
 374 0010 FFF7FEBF 		b	chSemSignal
 375              	.LVL15:
 376              	.L23:
 377              		.align	2
 378              	.L22:
 379 0014 00000000 		.word	.LANCHOR0
 380              		.cfi_endproc
 381              	.LFE406:
 382              		.size	thread3, .-thread3
 383              		.section	.rodata.rt_test_007_001_execute.str1.4,"aMS",%progbits,1
 384              		.align	2
 385              	.LC2:
 386 0000 77726F6E 		.ascii	"wrong counter value\000"
 386      6720636F 
 386      756E7465 
 386      72207661 
 386      6C756500 
 387              		.align	2
 388              	.LC3:
ARM GAS  /tmp/ccMmeZ0f.s 			page 8


 389 0014 77726F6E 		.ascii	"wrong returned message\000"
 389      67207265 
 389      7475726E 
 389      6564206D 
 389      65737361 
 390              		.section	.text.rt_test_007_001_execute,"ax",%progbits
 391              		.align	1
 392              		.p2align 4,,15
 393              		.syntax unified
 394              		.thumb
 395              		.thumb_func
 396              		.fpu softvfp
 397              		.type	rt_test_007_001_execute, %function
 398              	rt_test_007_001_execute:
 399              	.LFB410:
 400              		.loc 1 115 43 is_stmt 1 view -0
 401              		.cfi_startproc
 402              		@ args = 0, pretend = 0, frame = 0
 403              		@ frame_needed = 0, uses_anonymous_args = 0
 404              		.loc 1 119 3 view .LVU76
 405              		.loc 1 115 43 is_stmt 0 view .LVU77
 406 0000 2DE9F843 		push	{r3, r4, r5, r6, r7, r8, r9, lr}
 407              		.cfi_def_cfa_offset 32
 408              		.cfi_offset 3, -32
 409              		.cfi_offset 4, -28
 410              		.cfi_offset 5, -24
 411              		.cfi_offset 6, -20
 412              		.cfi_offset 7, -16
 413              		.cfi_offset 8, -12
 414              		.cfi_offset 9, -8
 415              		.cfi_offset 14, -4
 416              	.LBB395:
 417              		.loc 1 123 11 view .LVU78
 418 0004 2B4C     		ldr	r4, .L31
 419              	.LBE395:
 420              		.loc 1 119 3 view .LVU79
 421 0006 2C4F     		ldr	r7, .L31+4
 422 0008 0123     		movs	r3, #1
 423              	.LBB436:
 424              		.loc 1 123 11 view .LVU80
 425 000a 2046     		mov	r0, r4
 426              	.LBE436:
 427              		.loc 1 119 3 view .LVU81
 428 000c 3B60     		str	r3, [r7]
 429              	.LBB437:
 430              		.loc 1 121 5 is_stmt 1 view .LVU82
 431              		.loc 1 123 5 view .LVU83
 432              		.loc 1 123 11 is_stmt 0 view .LVU84
 433 000e FFF7FEFF 		bl	chSemWait
 434              	.LVL16:
 435              	.LBB396:
 436              	.LBB397:
 437              	.LBB398:
 438              	.LBB399:
 439              	.LBB400:
 440              		.file 5 "../ChibiOS/os/common/ext/ARM/CMSIS/Core/Include/cmsis_gcc.h"
 441              		.loc 5 493 3 view .LVU85
ARM GAS  /tmp/ccMmeZ0f.s 			page 9


 442 0012 3026     		movs	r6, #48
 443              	.LBE400:
 444              	.LBE399:
 445              	.LBE398:
 446              	.LBE397:
 447              	.LBE396:
 448              		.loc 1 123 11 view .LVU86
 449 0014 0546     		mov	r5, r0
 450              	.LVL17:
 451              		.loc 1 124 5 is_stmt 1 view .LVU87
 452              	.LBB408:
 453              	.LBI396:
 454              		.file 6 "../ChibiOS/os/hal/osal/rt-nil/osal.h"
 455              		.loc 6 573 20 view .LVU88
 456              	.LBE408:
 457              	.LBE437:
 458              		.loc 6 575 3 view .LVU89
 459              	.LBB438:
 460              	.LBB409:
 461              	.LBB405:
 462              	.LBI397:
 463              		.file 7 "../ChibiOS/os/rt/include/chsys.h"
 464              		.loc 7 407 20 view .LVU90
 465              	.LBE405:
 466              	.LBE409:
 467              	.LBE438:
 468              		.loc 7 409 3 view .LVU91
 469              	.LBB439:
 470              	.LBB410:
 471              	.LBB406:
 472              	.LBB403:
 473              	.LBI398:
 474              		.file 8 "../ChibiOS/os/common/ports/ARMv7-M/chcore.h"
 475              		.loc 8 806 27 view .LVU92
 476              	.LBE403:
 477              	.LBE406:
 478              	.LBE410:
 479              	.LBE439:
 480              		.loc 8 814 3 view .LVU93
 481              	.LBB440:
 482              	.LBB411:
 483              	.LBB407:
 484              	.LBB404:
 485              	.LBB402:
 486              	.LBI399:
 487              		.loc 5 491 27 view .LVU94
 488              	.LBB401:
 489              		.loc 5 493 3 view .LVU95
 490              		.syntax unified
 491              	@ 493 "../ChibiOS/os/common/ext/ARM/CMSIS/Core/Include/cmsis_gcc.h" 1
 492 0016 86F31188 		MSR basepri, r6
 493              	@ 0 "" 2
 494              	.LVL18:
 495              		.loc 5 493 3 is_stmt 0 view .LVU96
 496              		.thumb
 497              		.syntax unified
 498              	.LBE401:
ARM GAS  /tmp/ccMmeZ0f.s 			page 10


 499              	.LBE402:
 500              	.LBE404:
 501              	.LBE407:
 502              	.LBE411:
 503              	.LBE440:
 504              		.loc 7 410 35 is_stmt 1 view .LVU97
 505              		.loc 7 411 21 view .LVU98
 506              	.LBB441:
 507              		.loc 1 124 5 view .LVU99
 508              	.LBB412:
 509              	.LBI412:
 510              		.loc 2 189 21 view .LVU100
 511              	.LBB413:
 512              		.loc 2 191 21 view .LVU101
 513              		.loc 2 193 3 view .LVU102
 514              		.loc 2 193 3 is_stmt 0 view .LVU103
 515              	.LBE413:
 516              	.LBE412:
 517              		.loc 1 124 5 view .LVU104
 518 001a A068     		ldr	r0, [r4, #8]
 519              	.LVL19:
 520              		.loc 1 124 5 view .LVU105
 521 001c 2749     		ldr	r1, .L31+8
 522 001e B0FA80F0 		clz	r0, r0
 523 0022 4009     		lsrs	r0, r0, #5
 524 0024 FFF7FEFF 		bl	__test_assert
 525              	.LVL20:
 526 0028 20B1     		cbz	r0, .L25
 527              		.loc 1 124 5 is_stmt 1 view .LVU106
 528              	.LBB414:
 529              	.LBI414:
 530              		.loc 6 584 20 view .LVU107
 531              	.LBE414:
 532              	.LBE441:
 533              		.loc 6 586 3 view .LVU108
 534              	.LBB442:
 535              	.LBB423:
 536              	.LBB415:
 537              	.LBI415:
 538              		.loc 7 421 20 view .LVU109
 539              	.LBB416:
 540              		.loc 7 423 23 view .LVU110
 541              		.loc 7 424 34 view .LVU111
 542              		.loc 7 430 3 view .LVU112
 543              		.loc 7 430 3 view .LVU113
 544              		.loc 7 430 3 view .LVU114
 545              		.loc 7 434 3 view .LVU115
 546              	.LBB417:
 547              	.LBI417:
 548              		.loc 8 830 27 view .LVU116
 549              	.LBE417:
 550              	.LBE416:
 551              	.LBE415:
 552              	.LBE423:
 553              	.LBE442:
 554              		.loc 8 833 3 view .LVU117
 555              	.LVL21:
ARM GAS  /tmp/ccMmeZ0f.s 			page 11


 556              	.LBB443:
 557              	.LBB424:
 558              	.LBB422:
 559              	.LBB421:
 560              	.LBB420:
 561              	.LBB418:
 562              	.LBI418:
 563              		.loc 5 491 27 view .LVU118
 564              	.LBB419:
 565              		.loc 5 493 3 view .LVU119
 566 002a 0023     		movs	r3, #0
 567              		.syntax unified
 568              	@ 493 "../ChibiOS/os/common/ext/ARM/CMSIS/Core/Include/cmsis_gcc.h" 1
 569 002c 83F31188 		MSR basepri, r3
 570              	@ 0 "" 2
 571              	.LVL22:
 572              		.loc 5 493 3 is_stmt 0 view .LVU120
 573              		.thumb
 574              		.syntax unified
 575              	.LBE419:
 576              	.LBE418:
 577              	.LBE420:
 578              	.LBE421:
 579              	.LBE422:
 580              	.LBE424:
 581              		.loc 1 124 5 is_stmt 1 view .LVU121
 582              	.L24:
 583              		.loc 1 124 5 is_stmt 0 view .LVU122
 584              	.LBE443:
 585              		.loc 1 146 1 view .LVU123
 586 0030 BDE8F883 		pop	{r3, r4, r5, r6, r7, r8, r9, pc}
 587              	.LVL23:
 588              	.L25:
 589              	.LBB444:
 590              		.loc 1 124 5 is_stmt 1 view .LVU124
 591              	.LBB425:
 592              	.LBI425:
 593              		.loc 6 584 20 view .LVU125
 594              	.LBE425:
 595              	.LBE444:
 596              		.loc 6 586 3 view .LVU126
 597              	.LBB445:
 598              	.LBB434:
 599              	.LBB426:
 600              	.LBI426:
 601              		.loc 7 421 20 view .LVU127
 602              	.LBB427:
 603              		.loc 7 423 23 view .LVU128
 604              		.loc 7 424 34 view .LVU129
 605              		.loc 7 430 3 view .LVU130
 606              		.loc 7 430 3 view .LVU131
 607              		.loc 7 430 3 view .LVU132
 608              		.loc 7 434 3 view .LVU133
 609              	.LBB428:
 610              	.LBI428:
 611              		.loc 8 830 27 view .LVU134
 612              	.LBE428:
ARM GAS  /tmp/ccMmeZ0f.s 			page 12


 613              	.LBE427:
 614              	.LBE426:
 615              	.LBE434:
 616              	.LBE445:
 617              		.loc 8 833 3 view .LVU135
 618              	.LBB446:
 619              	.LBB435:
 620              	.LBB433:
 621              	.LBB432:
 622              	.LBB431:
 623              	.LBB429:
 624              	.LBI429:
 625              		.loc 5 491 27 view .LVU136
 626              	.LBB430:
 627              		.loc 5 493 3 view .LVU137
 628              		.syntax unified
 629              	@ 493 "../ChibiOS/os/common/ext/ARM/CMSIS/Core/Include/cmsis_gcc.h" 1
 630 0034 80F31188 		MSR basepri, r0
 631              	@ 0 "" 2
 632              	.LVL24:
 633              		.loc 5 493 3 is_stmt 0 view .LVU138
 634              		.thumb
 635              		.syntax unified
 636              	.LBE430:
 637              	.LBE429:
 638              	.LBE431:
 639              	.LBE432:
 640              	.LBE433:
 641              	.LBE435:
 642              		.loc 1 124 74 is_stmt 1 view .LVU139
 643              		.loc 1 125 5 view .LVU140
 644 0038 B5FA85F0 		clz	r0, r5
 645 003c 2049     		ldr	r1, .L31+12
 646 003e 4009     		lsrs	r0, r0, #5
 647 0040 FFF7FEFF 		bl	__test_assert
 648              	.LVL25:
 649 0044 0546     		mov	r5, r0
 650              	.LVL26:
 651              		.loc 1 125 5 is_stmt 0 view .LVU141
 652 0046 0028     		cmp	r0, #0
 653 0048 F2D1     		bne	.L24
 654              		.loc 1 125 57 is_stmt 1 discriminator 2 view .LVU142
 655              	.LBE446:
 656              		.loc 1 127 3 discriminator 2 view .LVU143
 657              		.loc 1 127 19 discriminator 2 view .LVU144
 658              		.loc 1 131 3 discriminator 2 view .LVU145
 659 004a 4FF00209 		mov	r9, #2
 660              		.loc 1 133 5 is_stmt 0 discriminator 2 view .LVU146
 661 004e 2046     		mov	r0, r4
 662              		.loc 1 131 3 discriminator 2 view .LVU147
 663 0050 C7F80090 		str	r9, [r7]
 664              		.loc 1 133 5 is_stmt 1 discriminator 2 view .LVU148
 665 0054 FFF7FEFF 		bl	chSemSignal
 666              	.LVL27:
 667              		.loc 1 134 5 discriminator 2 view .LVU149
 668              	.LBB447:
 669              	.LBI447:
ARM GAS  /tmp/ccMmeZ0f.s 			page 13


 670              		.loc 6 573 20 discriminator 2 view .LVU150
 671              	.LBE447:
 672              		.loc 6 575 3 discriminator 2 view .LVU151
 673              	.LBB455:
 674              	.LBB448:
 675              	.LBI448:
 676              		.loc 7 407 20 discriminator 2 view .LVU152
 677              	.LBE448:
 678              	.LBE455:
 679              		.loc 7 409 3 discriminator 2 view .LVU153
 680              	.LBB456:
 681              	.LBB453:
 682              	.LBB449:
 683              	.LBI449:
 684              		.loc 8 806 27 discriminator 2 view .LVU154
 685              	.LBE449:
 686              	.LBE453:
 687              	.LBE456:
 688              		.loc 8 814 3 discriminator 2 view .LVU155
 689              	.LBB457:
 690              	.LBB454:
 691              	.LBB452:
 692              	.LBB450:
 693              	.LBI450:
 694              		.loc 5 491 27 discriminator 2 view .LVU156
 695              	.LBB451:
 696              		.loc 5 493 3 discriminator 2 view .LVU157
 697              		.syntax unified
 698              	@ 493 "../ChibiOS/os/common/ext/ARM/CMSIS/Core/Include/cmsis_gcc.h" 1
 699 0058 86F31188 		MSR basepri, r6
 700              	@ 0 "" 2
 701              	.LVL28:
 702              		.loc 5 493 3 is_stmt 0 discriminator 2 view .LVU158
 703              		.thumb
 704              		.syntax unified
 705              	.LBE451:
 706              	.LBE450:
 707              	.LBE452:
 708              	.LBE454:
 709              	.LBE457:
 710              		.loc 7 410 35 is_stmt 1 discriminator 2 view .LVU159
 711              		.loc 7 411 21 discriminator 2 view .LVU160
 712              		.loc 1 134 5 discriminator 2 view .LVU161
 713              	.LBB458:
 714              	.LBI458:
 715              		.loc 2 189 21 discriminator 2 view .LVU162
 716              	.LBB459:
 717              		.loc 2 191 21 discriminator 2 view .LVU163
 718              		.loc 2 193 3 discriminator 2 view .LVU164
 719              		.loc 2 193 3 is_stmt 0 discriminator 2 view .LVU165
 720              	.LBE459:
 721              	.LBE458:
 722              		.loc 1 134 5 discriminator 2 view .LVU166
 723 005c A068     		ldr	r0, [r4, #8]
 724 005e 1749     		ldr	r1, .L31+8
 725 0060 A0F10100 		sub	r0, #1
 726 0064 B0FA80F0 		clz	r0, r0
ARM GAS  /tmp/ccMmeZ0f.s 			page 14


 727 0068 4009     		lsrs	r0, r0, #5
 728 006a FFF7FEFF 		bl	__test_assert
 729              	.LVL29:
 730 006e 8046     		mov	r8, r0
 731 0070 18B1     		cbz	r0, .L27
 732              		.loc 1 134 5 is_stmt 1 view .LVU167
 733              	.LBB460:
 734              	.LBI460:
 735              		.loc 6 584 20 view .LVU168
 736              	.LBE460:
 737              		.loc 6 586 3 view .LVU169
 738              	.LBB469:
 739              	.LBB461:
 740              	.LBI461:
 741              		.loc 7 421 20 view .LVU170
 742              	.LBB462:
 743              		.loc 7 423 23 view .LVU171
 744              		.loc 7 424 34 view .LVU172
 745              		.loc 7 430 3 view .LVU173
 746              		.loc 7 430 3 view .LVU174
 747              		.loc 7 430 3 view .LVU175
 748              		.loc 7 434 3 view .LVU176
 749              	.LBB463:
 750              	.LBI463:
 751              		.loc 8 830 27 view .LVU177
 752              	.LBE463:
 753              	.LBE462:
 754              	.LBE461:
 755              	.LBE469:
 756              		.loc 8 833 3 view .LVU178
 757              	.LVL30:
 758              	.LBB470:
 759              	.LBB468:
 760              	.LBB467:
 761              	.LBB466:
 762              	.LBB464:
 763              	.LBI464:
 764              		.loc 5 491 27 view .LVU179
 765              	.LBB465:
 766              		.loc 5 493 3 view .LVU180
 767              		.syntax unified
 768              	@ 493 "../ChibiOS/os/common/ext/ARM/CMSIS/Core/Include/cmsis_gcc.h" 1
 769 0072 85F31188 		MSR basepri, r5
 770              	@ 0 "" 2
 771              	.LVL31:
 772              		.loc 5 493 3 is_stmt 0 view .LVU181
 773              		.thumb
 774              		.syntax unified
 775              	.LBE465:
 776              	.LBE464:
 777              	.LBE466:
 778              	.LBE467:
 779              	.LBE468:
 780              	.LBE470:
 781              		.loc 1 134 5 is_stmt 1 view .LVU182
 782              		.loc 1 146 1 is_stmt 0 view .LVU183
 783 0076 BDE8F883 		pop	{r3, r4, r5, r6, r7, r8, r9, pc}
ARM GAS  /tmp/ccMmeZ0f.s 			page 15


 784              	.L27:
 785              		.loc 1 134 5 is_stmt 1 view .LVU184
 786              	.LBB471:
 787              	.LBI471:
 788              		.loc 6 584 20 view .LVU185
 789              	.LBE471:
 790              		.loc 6 586 3 view .LVU186
 791              	.LBB480:
 792              	.LBB472:
 793              	.LBI472:
 794              		.loc 7 421 20 view .LVU187
 795              	.LBB473:
 796              		.loc 7 423 23 view .LVU188
 797              		.loc 7 424 34 view .LVU189
 798              		.loc 7 430 3 view .LVU190
 799              		.loc 7 430 3 view .LVU191
 800              		.loc 7 430 3 view .LVU192
 801              		.loc 7 434 3 view .LVU193
 802              	.LBB474:
 803              	.LBI474:
 804              		.loc 8 830 27 view .LVU194
 805              	.LBE474:
 806              	.LBE473:
 807              	.LBE472:
 808              	.LBE480:
 809              		.loc 8 833 3 view .LVU195
 810              	.LVL32:
 811              	.LBB481:
 812              	.LBB479:
 813              	.LBB478:
 814              	.LBB477:
 815              	.LBB475:
 816              	.LBI475:
 817              		.loc 5 491 27 view .LVU196
 818              	.LBB476:
 819              		.loc 5 493 3 view .LVU197
 820              		.syntax unified
 821              	@ 493 "../ChibiOS/os/common/ext/ARM/CMSIS/Core/Include/cmsis_gcc.h" 1
 822 007a 80F31188 		MSR basepri, r0
 823              	@ 0 "" 2
 824              	.LVL33:
 825              		.loc 5 493 3 is_stmt 0 view .LVU198
 826              		.thumb
 827              		.syntax unified
 828              	.LBE476:
 829              	.LBE475:
 830              	.LBE477:
 831              	.LBE478:
 832              	.LBE479:
 833              	.LBE481:
 834              		.loc 1 134 74 is_stmt 1 view .LVU199
 835              		.loc 1 136 3 view .LVU200
 836              		.loc 1 136 19 view .LVU201
 837              		.loc 1 140 3 view .LVU202
 838 007e 0323     		movs	r3, #3
 839              	.LBB482:
 840              	.LBB483:
ARM GAS  /tmp/ccMmeZ0f.s 			page 16


 841              		.loc 2 125 3 is_stmt 0 view .LVU203
 842 0080 4946     		mov	r1, r9
 843 0082 6FF00102 		mvn	r2, #1
 844 0086 2046     		mov	r0, r4
 845              	.LBE483:
 846              	.LBE482:
 847              		.loc 1 140 3 view .LVU204
 848 0088 3B60     		str	r3, [r7]
 849              		.loc 1 142 5 is_stmt 1 view .LVU205
 850              	.LVL34:
 851              	.LBB485:
 852              	.LBI482:
 853              		.loc 2 123 20 view .LVU206
 854              	.LBB484:
 855              		.loc 2 125 3 view .LVU207
 856 008a FFF7FEFF 		bl	chSemResetWithMessage
 857              	.LVL35:
 858              		.loc 2 125 3 is_stmt 0 view .LVU208
 859              	.LBE484:
 860              	.LBE485:
 861              		.loc 1 143 5 is_stmt 1 view .LVU209
 862              	.LBB486:
 863              	.LBI486:
 864              		.loc 6 573 20 view .LVU210
 865              	.LBE486:
 866              		.loc 6 575 3 view .LVU211
 867              	.LBB494:
 868              	.LBB487:
 869              	.LBI487:
 870              		.loc 7 407 20 view .LVU212
 871              	.LBE487:
 872              	.LBE494:
 873              		.loc 7 409 3 view .LVU213
 874              	.LBB495:
 875              	.LBB492:
 876              	.LBB488:
 877              	.LBI488:
 878              		.loc 8 806 27 view .LVU214
 879              	.LBE488:
 880              	.LBE492:
 881              	.LBE495:
 882              		.loc 8 814 3 view .LVU215
 883              	.LBB496:
 884              	.LBB493:
 885              	.LBB491:
 886              	.LBB489:
 887              	.LBI489:
 888              		.loc 5 491 27 view .LVU216
 889              	.LBB490:
 890              		.loc 5 493 3 view .LVU217
 891              		.syntax unified
 892              	@ 493 "../ChibiOS/os/common/ext/ARM/CMSIS/Core/Include/cmsis_gcc.h" 1
 893 008e 86F31188 		MSR basepri, r6
 894              	@ 0 "" 2
 895              	.LVL36:
 896              		.loc 5 493 3 is_stmt 0 view .LVU218
 897              		.thumb
ARM GAS  /tmp/ccMmeZ0f.s 			page 17


 898              		.syntax unified
 899              	.LBE490:
 900              	.LBE489:
 901              	.LBE491:
 902              	.LBE493:
 903              	.LBE496:
 904              		.loc 7 410 35 is_stmt 1 view .LVU219
 905              		.loc 7 411 21 view .LVU220
 906              		.loc 1 143 5 view .LVU221
 907              	.LBB497:
 908              	.LBI497:
 909              		.loc 2 189 21 view .LVU222
 910              	.LBB498:
 911              		.loc 2 191 21 view .LVU223
 912              		.loc 2 193 3 view .LVU224
 913              		.loc 2 193 3 is_stmt 0 view .LVU225
 914              	.LBE498:
 915              	.LBE497:
 916              		.loc 1 143 5 view .LVU226
 917 0092 A068     		ldr	r0, [r4, #8]
 918 0094 0949     		ldr	r1, .L31+8
 919 0096 A0F10200 		sub	r0, #2
 920 009a B0FA80F0 		clz	r0, r0
 921 009e 4009     		lsrs	r0, r0, #5
 922 00a0 FFF7FEFF 		bl	__test_assert
 923              	.LVL37:
 924 00a4 10B9     		cbnz	r0, .L30
 925              		.loc 1 143 5 is_stmt 1 view .LVU227
 926              	.LBB499:
 927              	.LBI499:
 928              		.loc 6 584 20 view .LVU228
 929              	.LBB500:
 930              		.loc 6 586 3 view .LVU229
 931              	.LBB501:
 932              	.LBI501:
 933              		.loc 7 421 20 view .LVU230
 934              	.LBB502:
 935              		.loc 7 423 23 view .LVU231
 936              		.loc 7 424 34 view .LVU232
 937              		.loc 7 430 3 view .LVU233
 938              		.loc 7 430 3 view .LVU234
 939              		.loc 7 430 3 view .LVU235
 940              		.loc 7 434 3 view .LVU236
 941              	.LBB503:
 942              	.LBI503:
 943              		.loc 8 830 27 view .LVU237
 944              	.LBE503:
 945              	.LBE502:
 946              	.LBE501:
 947              	.LBE500:
 948              	.LBE499:
 949              		.loc 8 833 3 view .LVU238
 950              	.LVL38:
 951              	.LBB511:
 952              	.LBB509:
 953              	.LBB508:
 954              	.LBB507:
ARM GAS  /tmp/ccMmeZ0f.s 			page 18


 955              	.LBB506:
 956              	.LBB504:
 957              	.LBI504:
 958              		.loc 5 491 27 view .LVU239
 959              	.LBB505:
 960              		.loc 5 493 3 view .LVU240
 961              		.syntax unified
 962              	@ 493 "../ChibiOS/os/common/ext/ARM/CMSIS/Core/Include/cmsis_gcc.h" 1
 963 00a6 80F31188 		MSR basepri, r0
 964              	@ 0 "" 2
 965              	.LVL39:
 966              		.loc 5 493 3 is_stmt 0 view .LVU241
 967              		.thumb
 968              		.syntax unified
 969              	.LBE505:
 970              	.LBE504:
 971              	.LBE506:
 972              	.LBE507:
 973              	.LBE508:
 974              	.LBE509:
 975              	.LBE511:
 976              		.loc 1 143 74 is_stmt 1 view .LVU242
 977              		.loc 1 145 3 view .LVU243
 978              		.loc 1 145 19 view .LVU244
 979              	.LBB512:
 980              	.LBB510:
 981              		.loc 6 587 1 is_stmt 0 view .LVU245
 982 00aa C1E7     		b	.L24
 983              	.L30:
 984              	.LBE510:
 985              	.LBE512:
 986              		.loc 1 143 5 is_stmt 1 view .LVU246
 987              	.LBB513:
 988              	.LBI513:
 989              		.loc 6 584 20 view .LVU247
 990              	.LBE513:
 991              		.loc 6 586 3 view .LVU248
 992              	.LBB522:
 993              	.LBB514:
 994              	.LBI514:
 995              		.loc 7 421 20 view .LVU249
 996              	.LBB515:
 997              		.loc 7 423 23 view .LVU250
 998              		.loc 7 424 34 view .LVU251
 999              		.loc 7 430 3 view .LVU252
 1000              		.loc 7 430 3 view .LVU253
 1001              		.loc 7 430 3 view .LVU254
 1002              		.loc 7 434 3 view .LVU255
 1003              	.LBB516:
 1004              	.LBI516:
 1005              		.loc 8 830 27 view .LVU256
 1006              	.LBE516:
 1007              	.LBE515:
 1008              	.LBE514:
 1009              	.LBE522:
 1010              		.loc 8 833 3 view .LVU257
 1011              	.LVL40:
ARM GAS  /tmp/ccMmeZ0f.s 			page 19


 1012              	.LBB523:
 1013              	.LBB521:
 1014              	.LBB520:
 1015              	.LBB519:
 1016              	.LBB517:
 1017              	.LBI517:
 1018              		.loc 5 491 27 view .LVU258
 1019              	.LBB518:
 1020              		.loc 5 493 3 view .LVU259
 1021              		.syntax unified
 1022              	@ 493 "../ChibiOS/os/common/ext/ARM/CMSIS/Core/Include/cmsis_gcc.h" 1
 1023 00ac 88F31188 		MSR basepri, r8
 1024              	@ 0 "" 2
 1025              	.LVL41:
 1026              		.loc 5 493 3 is_stmt 0 view .LVU260
 1027              		.thumb
 1028              		.syntax unified
 1029              	.LBE518:
 1030              	.LBE517:
 1031              	.LBE519:
 1032              	.LBE520:
 1033              	.LBE521:
 1034              	.LBE523:
 1035              		.loc 1 143 5 is_stmt 1 view .LVU261
 1036 00b0 BEE7     		b	.L24
 1037              	.L32:
 1038 00b2 00BF     		.align	2
 1039              	.L31:
 1040 00b4 00000000 		.word	.LANCHOR0
 1041 00b8 00000000 		.word	chtest
 1042 00bc 00000000 		.word	.LC2
 1043 00c0 14000000 		.word	.LC3
 1044              		.cfi_endproc
 1045              	.LFE410:
 1046              		.size	rt_test_007_001_execute, .-rt_test_007_001_execute
 1047              		.section	.rodata.rt_test_007_004_execute.str1.4,"aMS",%progbits,1
 1048              		.align	2
 1049              	.LC4:
 1050 0000 4100     		.ascii	"A\000"
 1051 0002 0000     		.align	2
 1052              	.LC5:
 1053 0004 696E7661 		.ascii	"invalid counter\000"
 1053      6C696420 
 1053      636F756E 
 1053      74657200 
 1054              		.align	2
 1055              	.LC6:
 1056 0014 696E7661 		.ascii	"invalid sequence\000"
 1056      6C696420 
 1056      73657175 
 1056      656E6365 
 1056      00
 1057              		.section	.text.rt_test_007_004_execute,"ax",%progbits
 1058              		.align	1
 1059              		.p2align 4,,15
 1060              		.syntax unified
 1061              		.thumb
ARM GAS  /tmp/ccMmeZ0f.s 			page 20


 1062              		.thumb_func
 1063              		.fpu softvfp
 1064              		.type	rt_test_007_004_execute, %function
 1065              	rt_test_007_004_execute:
 1066              	.LFB416:
 1067              		.loc 1 311 43 view -0
 1068              		.cfi_startproc
 1069              		@ args = 0, pretend = 0, frame = 0
 1070              		@ frame_needed = 0, uses_anonymous_args = 0
 1071              		.loc 1 314 3 view .LVU263
 1072              		.loc 1 311 43 is_stmt 0 view .LVU264
 1073 0000 F0B5     		push	{r4, r5, r6, r7, lr}
 1074              		.cfi_def_cfa_offset 20
 1075              		.cfi_offset 4, -20
 1076              		.cfi_offset 5, -16
 1077              		.cfi_offset 6, -12
 1078              		.cfi_offset 7, -8
 1079              		.cfi_offset 14, -4
 1080              	.LBB524:
 1081              	.LBB525:
 1082              	.LBB526:
 1083              	.LBB527:
 1084              		.loc 3 343 10 view .LVU265
 1085 0002 1E4B     		ldr	r3, .L38
 1086              	.LBE527:
 1087              	.LBE526:
 1088              	.LBE525:
 1089              	.LBE524:
 1090              		.loc 1 316 18 view .LVU266
 1091 0004 1E49     		ldr	r1, .L38+4
 1092              	.LBB532:
 1093              	.LBB530:
 1094              		.loc 3 356 37 view .LVU267
 1095 0006 DB68     		ldr	r3, [r3, #12]
 1096              	.LBE530:
 1097              	.LBE532:
 1098              		.loc 1 314 3 view .LVU268
 1099 0008 1E4C     		ldr	r4, .L38+8
 1100              		.loc 1 316 18 view .LVU269
 1101 000a 9A68     		ldr	r2, [r3, #8]
 1102 000c 1E4F     		ldr	r7, .L38+12
 1103 000e 0868     		ldr	r0, [r1]
 1104 0010 1E4B     		ldr	r3, .L38+16
 1105              		.loc 1 311 43 view .LVU270
 1106 0012 83B0     		sub	sp, sp, #12
 1107              		.cfi_def_cfa_offset 32
 1108              		.loc 1 314 3 view .LVU271
 1109 0014 0121     		movs	r1, #1
 1110 0016 2160     		str	r1, [r4]
 1111              		.loc 1 316 5 is_stmt 1 view .LVU272
 1112              	.LBB533:
 1113              	.LBI524:
 1114              		.loc 3 354 23 view .LVU273
 1115              	.LBB531:
 1116              		.loc 3 356 3 view .LVU274
 1117              	.LBB529:
 1118              	.LBI526:
ARM GAS  /tmp/ccMmeZ0f.s 			page 21


 1119              		.loc 3 341 25 view .LVU275
 1120              	.LBB528:
 1121              		.loc 3 343 3 view .LVU276
 1122              	.LBE528:
 1123              	.LBE529:
 1124              	.LBE531:
 1125              	.LBE533:
 1126              		.loc 1 316 18 is_stmt 0 view .LVU277
 1127 0018 0A44     		add	r2, r2, r1
 1128 001a 0097     		str	r7, [sp]
 1129 001c 4FF4B871 		mov	r1, #368
 1130 0020 FFF7FEFF 		bl	chThdCreateStatic
 1131              	.LVL42:
 1132              		.loc 1 316 16 view .LVU278
 1133 0024 1A4B     		ldr	r3, .L38+20
 1134              		.loc 1 322 3 view .LVU279
 1135 0026 0221     		movs	r1, #2
 1136              		.loc 1 316 16 view .LVU280
 1137 0028 1860     		str	r0, [r3]
 1138              		.loc 1 318 3 is_stmt 1 view .LVU281
 1139              		.loc 1 318 19 view .LVU282
 1140              		.loc 1 322 3 view .LVU283
 1141 002a 2160     		str	r1, [r4]
 1142              		.loc 1 324 5 view .LVU284
 1143              	.LBB534:
 1144              	.LBI534:
 1145              		.loc 7 407 20 view .LVU285
 1146              	.LBE534:
 1147              		.loc 7 409 3 view .LVU286
 1148              	.LBB539:
 1149              	.LBB535:
 1150              	.LBI535:
 1151              		.loc 8 806 27 view .LVU287
 1152              	.LBE535:
 1153              	.LBE539:
 1154              		.loc 8 814 3 view .LVU288
 1155              	.LVL43:
 1156              	.LBB540:
 1157              	.LBB538:
 1158              	.LBB536:
 1159              	.LBI536:
 1160              		.loc 5 491 27 view .LVU289
 1161              	.LBB537:
 1162              		.loc 5 493 3 view .LVU290
 1163 002c 3025     		movs	r5, #48
 1164              		.syntax unified
 1165              	@ 493 "../ChibiOS/os/common/ext/ARM/CMSIS/Core/Include/cmsis_gcc.h" 1
 1166 002e 85F31188 		MSR basepri, r5
 1167              	@ 0 "" 2
 1168              	.LVL44:
 1169              		.loc 5 493 3 is_stmt 0 view .LVU291
 1170              		.thumb
 1171              		.syntax unified
 1172              	.LBE537:
 1173              	.LBE536:
 1174              	.LBE538:
 1175              	.LBE540:
ARM GAS  /tmp/ccMmeZ0f.s 			page 22


 1176              		.loc 7 410 35 is_stmt 1 view .LVU292
 1177              		.loc 7 411 21 view .LVU293
 1178              		.loc 1 325 5 view .LVU294
 1179 0032 184C     		ldr	r4, .L38+24
 1180 0034 2046     		mov	r0, r4
 1181 0036 FFF7FEFF 		bl	chSemAddCounterI
 1182              	.LVL45:
 1183              		.loc 1 326 5 view .LVU295
 1184              	.LBB541:
 1185              	.LBB542:
 1186              	.LBB543:
 1187              	.LBB544:
 1188              	.LBB545:
 1189              		.loc 5 493 3 is_stmt 0 view .LVU296
 1190 003a 0026     		movs	r6, #0
 1191              	.LBE545:
 1192              	.LBE544:
 1193              	.LBE543:
 1194              	.LBE542:
 1195              	.LBE541:
 1196              		.loc 1 326 5 view .LVU297
 1197 003c FFF7FEFF 		bl	chSchRescheduleS
 1198              	.LVL46:
 1199              		.loc 1 327 5 is_stmt 1 view .LVU298
 1200              	.LBB552:
 1201              	.LBI541:
 1202              		.loc 7 421 20 view .LVU299
 1203              	.LBB550:
 1204              		.loc 7 423 23 view .LVU300
 1205              		.loc 7 424 34 view .LVU301
 1206              		.loc 7 430 3 view .LVU302
 1207              		.loc 7 430 3 view .LVU303
 1208              		.loc 7 430 3 view .LVU304
 1209              		.loc 7 434 3 view .LVU305
 1210              	.LBB548:
 1211              	.LBI543:
 1212              		.loc 8 830 27 view .LVU306
 1213              	.LBE548:
 1214              	.LBE550:
 1215              	.LBE552:
 1216              		.loc 8 833 3 view .LVU307
 1217              	.LBB553:
 1218              	.LBB551:
 1219              	.LBB549:
 1220              	.LBB547:
 1221              	.LBI544:
 1222              		.loc 5 491 27 view .LVU308
 1223              	.LBB546:
 1224              		.loc 5 493 3 view .LVU309
 1225              		.syntax unified
 1226              	@ 493 "../ChibiOS/os/common/ext/ARM/CMSIS/Core/Include/cmsis_gcc.h" 1
 1227 0040 86F31188 		MSR basepri, r6
 1228              	@ 0 "" 2
 1229              	.LVL47:
 1230              		.loc 5 493 3 is_stmt 0 view .LVU310
 1231              		.thumb
 1232              		.syntax unified
ARM GAS  /tmp/ccMmeZ0f.s 			page 23


 1233              	.LBE546:
 1234              	.LBE547:
 1235              	.LBE549:
 1236              	.LBE551:
 1237              	.LBE553:
 1238              		.loc 1 328 5 is_stmt 1 view .LVU311
 1239 0044 FFF7FEFF 		bl	test_wait_threads
 1240              	.LVL48:
 1241              		.loc 1 329 5 view .LVU312
 1242              	.LBB554:
 1243              	.LBI554:
 1244              		.loc 6 573 20 view .LVU313
 1245              	.LBE554:
 1246              		.loc 6 575 3 view .LVU314
 1247              	.LBB562:
 1248              	.LBB555:
 1249              	.LBI555:
 1250              		.loc 7 407 20 view .LVU315
 1251              	.LBE555:
 1252              	.LBE562:
 1253              		.loc 7 409 3 view .LVU316
 1254              	.LBB563:
 1255              	.LBB560:
 1256              	.LBB556:
 1257              	.LBI556:
 1258              		.loc 8 806 27 view .LVU317
 1259              	.LBE556:
 1260              	.LBE560:
 1261              	.LBE563:
 1262              		.loc 8 814 3 view .LVU318
 1263              	.LBB564:
 1264              	.LBB561:
 1265              	.LBB559:
 1266              	.LBB557:
 1267              	.LBI557:
 1268              		.loc 5 491 27 view .LVU319
 1269              	.LBB558:
 1270              		.loc 5 493 3 view .LVU320
 1271              		.syntax unified
 1272              	@ 493 "../ChibiOS/os/common/ext/ARM/CMSIS/Core/Include/cmsis_gcc.h" 1
 1273 0048 85F31188 		MSR basepri, r5
 1274              	@ 0 "" 2
 1275              	.LVL49:
 1276              		.loc 5 493 3 is_stmt 0 view .LVU321
 1277              		.thumb
 1278              		.syntax unified
 1279              	.LBE558:
 1280              	.LBE557:
 1281              	.LBE559:
 1282              	.LBE561:
 1283              	.LBE564:
 1284              		.loc 7 410 35 is_stmt 1 view .LVU322
 1285              		.loc 7 411 21 view .LVU323
 1286              		.loc 1 329 5 view .LVU324
 1287              	.LBB565:
 1288              	.LBI565:
 1289              		.loc 2 189 21 view .LVU325
ARM GAS  /tmp/ccMmeZ0f.s 			page 24


 1290              	.LBB566:
 1291              		.loc 2 191 21 view .LVU326
 1292              		.loc 2 193 3 view .LVU327
 1293              		.loc 2 193 3 is_stmt 0 view .LVU328
 1294              	.LBE566:
 1295              	.LBE565:
 1296              		.loc 1 329 5 view .LVU329
 1297 004c A068     		ldr	r0, [r4, #8]
 1298 004e 1249     		ldr	r1, .L38+28
 1299 0050 A0F10100 		sub	r0, #1
 1300 0054 B0FA80F0 		clz	r0, r0
 1301 0058 4009     		lsrs	r0, r0, #5
 1302 005a FFF7FEFF 		bl	__test_assert
 1303              	.LVL50:
 1304 005e 18B1     		cbz	r0, .L34
 1305              		.loc 1 329 5 is_stmt 1 view .LVU330
 1306              	.LBB567:
 1307              	.LBI567:
 1308              		.loc 6 584 20 view .LVU331
 1309              	.LBE567:
 1310              		.loc 6 586 3 view .LVU332
 1311              	.LBB576:
 1312              	.LBB568:
 1313              	.LBI568:
 1314              		.loc 7 421 20 view .LVU333
 1315              	.LBB569:
 1316              		.loc 7 423 23 view .LVU334
 1317              		.loc 7 424 34 view .LVU335
 1318              		.loc 7 430 3 view .LVU336
 1319              		.loc 7 430 3 view .LVU337
 1320              		.loc 7 430 3 view .LVU338
 1321              		.loc 7 434 3 view .LVU339
 1322              	.LBB570:
 1323              	.LBI570:
 1324              		.loc 8 830 27 view .LVU340
 1325              	.LBE570:
 1326              	.LBE569:
 1327              	.LBE568:
 1328              	.LBE576:
 1329              		.loc 8 833 3 view .LVU341
 1330              	.LVL51:
 1331              	.LBB577:
 1332              	.LBB575:
 1333              	.LBB574:
 1334              	.LBB573:
 1335              	.LBB571:
 1336              	.LBI571:
 1337              		.loc 5 491 27 view .LVU342
 1338              	.LBB572:
 1339              		.loc 5 493 3 view .LVU343
 1340              		.syntax unified
 1341              	@ 493 "../ChibiOS/os/common/ext/ARM/CMSIS/Core/Include/cmsis_gcc.h" 1
 1342 0060 86F31188 		MSR basepri, r6
 1343              	@ 0 "" 2
 1344              	.LVL52:
 1345              		.loc 5 493 3 is_stmt 0 view .LVU344
 1346              		.thumb
ARM GAS  /tmp/ccMmeZ0f.s 			page 25


 1347              		.syntax unified
 1348              	.LBE572:
 1349              	.LBE571:
 1350              	.LBE573:
 1351              	.LBE574:
 1352              	.LBE575:
 1353              	.LBE577:
 1354              		.loc 1 329 5 is_stmt 1 view .LVU345
 1355              		.loc 1 333 1 is_stmt 0 view .LVU346
 1356 0064 03B0     		add	sp, sp, #12
 1357              		.cfi_remember_state
 1358              		.cfi_def_cfa_offset 20
 1359              		@ sp needed
 1360 0066 F0BD     		pop	{r4, r5, r6, r7, pc}
 1361              	.L34:
 1362              		.cfi_restore_state
 1363              		.loc 1 329 5 is_stmt 1 view .LVU347
 1364              	.LBB578:
 1365              	.LBI578:
 1366              		.loc 6 584 20 view .LVU348
 1367              	.LBE578:
 1368              		.loc 6 586 3 view .LVU349
 1369              	.LBB587:
 1370              	.LBB579:
 1371              	.LBI579:
 1372              		.loc 7 421 20 view .LVU350
 1373              	.LBB580:
 1374              		.loc 7 423 23 view .LVU351
 1375              		.loc 7 424 34 view .LVU352
 1376              		.loc 7 430 3 view .LVU353
 1377              		.loc 7 430 3 view .LVU354
 1378              		.loc 7 430 3 view .LVU355
 1379              		.loc 7 434 3 view .LVU356
 1380              	.LBB581:
 1381              	.LBI581:
 1382              		.loc 8 830 27 view .LVU357
 1383              	.LBE581:
 1384              	.LBE580:
 1385              	.LBE579:
 1386              	.LBE587:
 1387              		.loc 8 833 3 view .LVU358
 1388              	.LVL53:
 1389              	.LBB588:
 1390              	.LBB586:
 1391              	.LBB585:
 1392              	.LBB584:
 1393              	.LBB582:
 1394              	.LBI582:
 1395              		.loc 5 491 27 view .LVU359
 1396              	.LBB583:
 1397              		.loc 5 493 3 view .LVU360
 1398              		.syntax unified
 1399              	@ 493 "../ChibiOS/os/common/ext/ARM/CMSIS/Core/Include/cmsis_gcc.h" 1
 1400 0068 80F31188 		MSR basepri, r0
 1401              	@ 0 "" 2
 1402              	.LVL54:
 1403              		.loc 5 493 3 is_stmt 0 view .LVU361
ARM GAS  /tmp/ccMmeZ0f.s 			page 26


 1404              		.thumb
 1405              		.syntax unified
 1406              	.LBE583:
 1407              	.LBE582:
 1408              	.LBE584:
 1409              	.LBE585:
 1410              	.LBE586:
 1411              	.LBE588:
 1412              		.loc 1 329 70 is_stmt 1 view .LVU362
 1413              		.loc 1 330 5 view .LVU363
 1414 006c 0B49     		ldr	r1, .L38+32
 1415 006e 3846     		mov	r0, r7
 1416              		.loc 1 333 1 is_stmt 0 view .LVU364
 1417 0070 03B0     		add	sp, sp, #12
 1418              		.cfi_def_cfa_offset 20
 1419              		@ sp needed
 1420 0072 BDE8F040 		pop	{r4, r5, r6, r7, lr}
 1421              		.cfi_restore 14
 1422              		.cfi_restore 7
 1423              		.cfi_restore 6
 1424              		.cfi_restore 5
 1425              		.cfi_restore 4
 1426              		.cfi_def_cfa_offset 0
 1427              		.loc 1 330 5 view .LVU365
 1428 0076 FFF7FEBF 		b	__test_assert_sequence
 1429              	.LVL55:
 1430              	.L39:
 1431 007a 00BF     		.align	2
 1432              	.L38:
 1433 007c 00000000 		.word	ch0
 1434 0080 00000000 		.word	wa
 1435 0084 00000000 		.word	chtest
 1436 0088 00000000 		.word	.LC4
 1437 008c 00000000 		.word	thread1
 1438 0090 00000000 		.word	threads
 1439 0094 00000000 		.word	.LANCHOR0
 1440 0098 04000000 		.word	.LC5
 1441 009c 14000000 		.word	.LC6
 1442              		.cfi_endproc
 1443              	.LFE416:
 1444              		.size	rt_test_007_004_execute, .-rt_test_007_004_execute
 1445              		.section	.rodata.rt_test_007_002_execute.str1.4,"aMS",%progbits,1
 1446              		.align	2
 1447              	.LC7:
 1448 0000 4200     		.ascii	"B\000"
 1449 0002 0000     		.align	2
 1450              	.LC8:
 1451 0004 4300     		.ascii	"C\000"
 1452 0006 0000     		.align	2
 1453              	.LC9:
 1454 0008 4400     		.ascii	"D\000"
 1455 000a 0000     		.align	2
 1456              	.LC10:
 1457 000c 4500     		.ascii	"E\000"
 1458 000e 0000     		.align	2
 1459              	.LC11:
 1460 0010 41424344 		.ascii	"ABCDE\000"
ARM GAS  /tmp/ccMmeZ0f.s 			page 27


 1460      4500
 1461              		.section	.text.rt_test_007_002_execute,"ax",%progbits
 1462              		.align	1
 1463              		.p2align 4,,15
 1464              		.syntax unified
 1465              		.thumb
 1466              		.thumb_func
 1467              		.fpu softvfp
 1468              		.type	rt_test_007_002_execute, %function
 1469              	rt_test_007_002_execute:
 1470              	.LFB412:
 1471              		.loc 1 177 43 is_stmt 1 view -0
 1472              		.cfi_startproc
 1473              		@ args = 0, pretend = 0, frame = 0
 1474              		@ frame_needed = 0, uses_anonymous_args = 0
 1475              		.loc 1 182 3 view .LVU367
 1476              		.loc 1 177 43 is_stmt 0 view .LVU368
 1477 0000 2DE9F041 		push	{r4, r5, r6, r7, r8, lr}
 1478              		.cfi_def_cfa_offset 24
 1479              		.cfi_offset 4, -24
 1480              		.cfi_offset 5, -20
 1481              		.cfi_offset 6, -16
 1482              		.cfi_offset 7, -12
 1483              		.cfi_offset 8, -8
 1484              		.cfi_offset 14, -4
 1485              	.LBB589:
 1486              	.LBB590:
 1487              	.LBB591:
 1488              	.LBB592:
 1489              		.loc 3 343 10 view .LVU369
 1490 0004 304F     		ldr	r7, .L42
 1491              	.LBE592:
 1492              	.LBE591:
 1493              	.LBE590:
 1494              	.LBE589:
 1495              		.loc 1 184 18 view .LVU370
 1496 0006 314E     		ldr	r6, .L42+4
 1497              	.LBB597:
 1498              	.LBB595:
 1499              		.loc 3 356 37 view .LVU371
 1500 0008 FB68     		ldr	r3, [r7, #12]
 1501              	.LBE595:
 1502              	.LBE597:
 1503              		.loc 1 184 18 view .LVU372
 1504 000a 314C     		ldr	r4, .L42+8
 1505 000c 9A68     		ldr	r2, [r3, #8]
 1506              		.loc 1 182 3 view .LVU373
 1507 000e DFF8C480 		ldr	r8, .L42+12
 1508              		.loc 1 184 18 view .LVU374
 1509 0012 314B     		ldr	r3, .L42+16
 1510 0014 2068     		ldr	r0, [r4]
 1511              		.loc 1 177 43 view .LVU375
 1512 0016 82B0     		sub	sp, sp, #8
 1513              		.cfi_def_cfa_offset 32
 1514              		.loc 1 182 3 view .LVU376
 1515 0018 0125     		movs	r5, #1
 1516              		.loc 1 184 18 view .LVU377
ARM GAS  /tmp/ccMmeZ0f.s 			page 28


 1517 001a 0093     		str	r3, [sp]
 1518 001c 0532     		adds	r2, r2, #5
 1519 001e 3346     		mov	r3, r6
 1520 0020 4FF4B871 		mov	r1, #368
 1521              		.loc 1 182 3 view .LVU378
 1522 0024 C8F80050 		str	r5, [r8]
 1523              		.loc 1 184 5 is_stmt 1 view .LVU379
 1524              	.LBB598:
 1525              	.LBI589:
 1526              		.loc 3 354 23 view .LVU380
 1527              	.LBB596:
 1528              		.loc 3 356 3 view .LVU381
 1529              	.LBB594:
 1530              	.LBI591:
 1531              		.loc 3 341 25 view .LVU382
 1532              	.LBB593:
 1533              		.loc 3 343 3 view .LVU383
 1534              	.LBE593:
 1535              	.LBE594:
 1536              	.LBE596:
 1537              	.LBE598:
 1538              		.loc 1 184 18 is_stmt 0 view .LVU384
 1539 0028 FFF7FEFF 		bl	chThdCreateStatic
 1540              	.LVL56:
 1541              	.LBB599:
 1542              	.LBB600:
 1543              		.loc 3 356 37 view .LVU385
 1544 002c FB68     		ldr	r3, [r7, #12]
 1545              	.LBE600:
 1546              	.LBE599:
 1547              		.loc 1 185 18 view .LVU386
 1548 002e 9A68     		ldr	r2, [r3, #8]
 1549 0030 2A4B     		ldr	r3, .L42+20
 1550 0032 2A44     		add	r2, r2, r5
 1551              		.loc 1 184 16 view .LVU387
 1552 0034 2A4D     		ldr	r5, .L42+24
 1553              		.loc 1 185 18 view .LVU388
 1554 0036 4FF4B871 		mov	r1, #368
 1555              		.loc 1 184 16 view .LVU389
 1556 003a 2860     		str	r0, [r5]
 1557              		.loc 1 185 5 is_stmt 1 view .LVU390
 1558              	.LBB604:
 1559              	.LBI599:
 1560              		.loc 3 354 23 view .LVU391
 1561              	.LBB603:
 1562              		.loc 3 356 3 view .LVU392
 1563              	.LBB601:
 1564              	.LBI601:
 1565              		.loc 3 341 25 view .LVU393
 1566              	.LBB602:
 1567              		.loc 3 343 3 view .LVU394
 1568              	.LBE602:
 1569              	.LBE601:
 1570              	.LBE603:
 1571              	.LBE604:
 1572              		.loc 1 185 18 is_stmt 0 view .LVU395
 1573 003c 0093     		str	r3, [sp]
ARM GAS  /tmp/ccMmeZ0f.s 			page 29


 1574 003e 6068     		ldr	r0, [r4, #4]
 1575 0040 3346     		mov	r3, r6
 1576 0042 FFF7FEFF 		bl	chThdCreateStatic
 1577              	.LVL57:
 1578              	.LBB605:
 1579              	.LBB606:
 1580              		.loc 3 356 37 view .LVU396
 1581 0046 FB68     		ldr	r3, [r7, #12]
 1582              	.LBE606:
 1583              	.LBE605:
 1584              		.loc 1 185 16 view .LVU397
 1585 0048 6860     		str	r0, [r5, #4]
 1586              		.loc 1 186 5 is_stmt 1 view .LVU398
 1587              	.LBB610:
 1588              	.LBI605:
 1589              		.loc 3 354 23 view .LVU399
 1590              	.LBB609:
 1591              		.loc 3 356 3 view .LVU400
 1592              	.LBB607:
 1593              	.LBI607:
 1594              		.loc 3 341 25 view .LVU401
 1595              	.LBB608:
 1596              		.loc 3 343 3 view .LVU402
 1597              	.LBE608:
 1598              	.LBE607:
 1599              	.LBE609:
 1600              	.LBE610:
 1601              		.loc 1 186 18 is_stmt 0 view .LVU403
 1602 004a 9A68     		ldr	r2, [r3, #8]
 1603 004c 254B     		ldr	r3, .L42+28
 1604 004e 0093     		str	r3, [sp]
 1605 0050 A068     		ldr	r0, [r4, #8]
 1606 0052 3346     		mov	r3, r6
 1607 0054 0332     		adds	r2, r2, #3
 1608 0056 4FF4B871 		mov	r1, #368
 1609 005a FFF7FEFF 		bl	chThdCreateStatic
 1610              	.LVL58:
 1611              	.LBB611:
 1612              	.LBB612:
 1613              		.loc 3 356 37 view .LVU404
 1614 005e FB68     		ldr	r3, [r7, #12]
 1615              	.LBE612:
 1616              	.LBE611:
 1617              		.loc 1 186 16 view .LVU405
 1618 0060 A860     		str	r0, [r5, #8]
 1619              		.loc 1 187 5 is_stmt 1 view .LVU406
 1620              	.LBB616:
 1621              	.LBI611:
 1622              		.loc 3 354 23 view .LVU407
 1623              	.LBB615:
 1624              		.loc 3 356 3 view .LVU408
 1625              	.LBB613:
 1626              	.LBI613:
 1627              		.loc 3 341 25 view .LVU409
 1628              	.LBB614:
 1629              		.loc 3 343 3 view .LVU410
 1630              	.LBE614:
ARM GAS  /tmp/ccMmeZ0f.s 			page 30


 1631              	.LBE613:
 1632              	.LBE615:
 1633              	.LBE616:
 1634              		.loc 1 187 18 is_stmt 0 view .LVU411
 1635 0062 9A68     		ldr	r2, [r3, #8]
 1636 0064 204B     		ldr	r3, .L42+32
 1637 0066 0093     		str	r3, [sp]
 1638 0068 E068     		ldr	r0, [r4, #12]
 1639 006a 3346     		mov	r3, r6
 1640 006c 0432     		adds	r2, r2, #4
 1641 006e 4FF4B871 		mov	r1, #368
 1642 0072 FFF7FEFF 		bl	chThdCreateStatic
 1643              	.LVL59:
 1644              	.LBB617:
 1645              	.LBB618:
 1646              		.loc 3 356 37 view .LVU412
 1647 0076 FA68     		ldr	r2, [r7, #12]
 1648              	.LBE618:
 1649              	.LBE617:
 1650              		.loc 1 188 18 view .LVU413
 1651 0078 1C49     		ldr	r1, .L42+36
 1652 007a 9268     		ldr	r2, [r2, #8]
 1653              		.loc 1 187 16 view .LVU414
 1654 007c E860     		str	r0, [r5, #12]
 1655              		.loc 1 188 5 is_stmt 1 view .LVU415
 1656              	.LBB622:
 1657              	.LBI617:
 1658              		.loc 3 354 23 view .LVU416
 1659              	.LBB621:
 1660              		.loc 3 356 3 view .LVU417
 1661              	.LBB619:
 1662              	.LBI619:
 1663              		.loc 3 341 25 view .LVU418
 1664              	.LBB620:
 1665              		.loc 3 343 3 view .LVU419
 1666              	.LBE620:
 1667              	.LBE619:
 1668              	.LBE621:
 1669              	.LBE622:
 1670              		.loc 1 188 18 is_stmt 0 view .LVU420
 1671 007e 0232     		adds	r2, r2, #2
 1672 0080 3346     		mov	r3, r6
 1673 0082 0091     		str	r1, [sp]
 1674 0084 2069     		ldr	r0, [r4, #16]
 1675              		.loc 1 196 5 view .LVU421
 1676 0086 1A4C     		ldr	r4, .L42+40
 1677              		.loc 1 188 18 view .LVU422
 1678 0088 4FF4B871 		mov	r1, #368
 1679 008c FFF7FEFF 		bl	chThdCreateStatic
 1680              	.LVL60:
 1681              		.loc 1 194 3 view .LVU423
 1682 0090 0223     		movs	r3, #2
 1683              		.loc 1 188 16 view .LVU424
 1684 0092 2861     		str	r0, [r5, #16]
 1685              		.loc 1 190 3 is_stmt 1 view .LVU425
 1686              		.loc 1 190 19 view .LVU426
 1687              		.loc 1 194 3 view .LVU427
ARM GAS  /tmp/ccMmeZ0f.s 			page 31


 1688              		.loc 1 196 5 is_stmt 0 view .LVU428
 1689 0094 2046     		mov	r0, r4
 1690              		.loc 1 194 3 view .LVU429
 1691 0096 C8F80030 		str	r3, [r8]
 1692              		.loc 1 196 5 is_stmt 1 view .LVU430
 1693 009a FFF7FEFF 		bl	chSemSignal
 1694              	.LVL61:
 1695              		.loc 1 197 5 view .LVU431
 1696 009e 2046     		mov	r0, r4
 1697 00a0 FFF7FEFF 		bl	chSemSignal
 1698              	.LVL62:
 1699              		.loc 1 198 5 view .LVU432
 1700 00a4 2046     		mov	r0, r4
 1701 00a6 FFF7FEFF 		bl	chSemSignal
 1702              	.LVL63:
 1703              		.loc 1 199 5 view .LVU433
 1704 00aa 2046     		mov	r0, r4
 1705 00ac FFF7FEFF 		bl	chSemSignal
 1706              	.LVL64:
 1707              		.loc 1 200 5 view .LVU434
 1708 00b0 2046     		mov	r0, r4
 1709 00b2 FFF7FEFF 		bl	chSemSignal
 1710              	.LVL65:
 1711              		.loc 1 201 5 view .LVU435
 1712 00b6 FFF7FEFF 		bl	test_wait_threads
 1713              	.LVL66:
 1714              		.loc 1 205 5 view .LVU436
 1715 00ba 0E49     		ldr	r1, .L42+44
 1716 00bc 0E48     		ldr	r0, .L42+48
 1717              		.loc 1 209 1 is_stmt 0 view .LVU437
 1718 00be 02B0     		add	sp, sp, #8
 1719              		.cfi_def_cfa_offset 24
 1720              		@ sp needed
 1721 00c0 BDE8F041 		pop	{r4, r5, r6, r7, r8, lr}
 1722              		.cfi_restore 14
 1723              		.cfi_restore 8
 1724              		.cfi_restore 7
 1725              		.cfi_restore 6
 1726              		.cfi_restore 5
 1727              		.cfi_restore 4
 1728              		.cfi_def_cfa_offset 0
 1729              		.loc 1 205 5 view .LVU438
 1730 00c4 FFF7FEBF 		b	__test_assert_sequence
 1731              	.LVL67:
 1732              	.L43:
 1733              		.align	2
 1734              	.L42:
 1735 00c8 00000000 		.word	ch0
 1736 00cc 00000000 		.word	thread1
 1737 00d0 00000000 		.word	wa
 1738 00d4 00000000 		.word	chtest
 1739 00d8 00000000 		.word	.LC4
 1740 00dc 00000000 		.word	.LC7
 1741 00e0 00000000 		.word	threads
 1742 00e4 04000000 		.word	.LC8
 1743 00e8 08000000 		.word	.LC9
 1744 00ec 0C000000 		.word	.LC10
ARM GAS  /tmp/ccMmeZ0f.s 			page 32


 1745 00f0 00000000 		.word	.LANCHOR0
 1746 00f4 14000000 		.word	.LC6
 1747 00f8 10000000 		.word	.LC11
 1748              		.cfi_endproc
 1749              	.LFE412:
 1750              		.size	rt_test_007_002_execute, .-rt_test_007_002_execute
 1751              		.section	.text.thread1,"ax",%progbits
 1752              		.align	1
 1753              		.p2align 4,,15
 1754              		.syntax unified
 1755              		.thumb
 1756              		.thumb_func
 1757              		.fpu softvfp
 1758              		.type	thread1, %function
 1759              	thread1:
 1760              	.LVL68:
 1761              	.LFB404:
 1762              		.loc 1 58 33 is_stmt 1 view -0
 1763              		.cfi_startproc
 1764              		@ args = 0, pretend = 0, frame = 0
 1765              		@ frame_needed = 0, uses_anonymous_args = 0
 1766              		.loc 1 60 3 view .LVU440
 1767              		.loc 1 58 33 is_stmt 0 view .LVU441
 1768 0000 10B5     		push	{r4, lr}
 1769              		.cfi_def_cfa_offset 8
 1770              		.cfi_offset 4, -8
 1771              		.cfi_offset 14, -4
 1772              		.loc 1 58 33 view .LVU442
 1773 0002 0446     		mov	r4, r0
 1774              		.loc 1 60 3 view .LVU443
 1775 0004 0348     		ldr	r0, .L46
 1776              	.LVL69:
 1777              		.loc 1 60 3 view .LVU444
 1778 0006 FFF7FEFF 		bl	chSemWait
 1779              	.LVL70:
 1780              		.loc 1 61 3 is_stmt 1 view .LVU445
 1781 000a 2078     		ldrb	r0, [r4]	@ zero_extendqisi2
 1782              		.loc 1 62 1 is_stmt 0 view .LVU446
 1783 000c BDE81040 		pop	{r4, lr}
 1784              		.cfi_restore 14
 1785              		.cfi_restore 4
 1786              		.cfi_def_cfa_offset 0
 1787              	.LVL71:
 1788              		.loc 1 61 3 view .LVU447
 1789 0010 FFF7FEBF 		b	test_emit_token
 1790              	.LVL72:
 1791              	.L47:
 1792              		.align	2
 1793              	.L46:
 1794 0014 00000000 		.word	.LANCHOR0
 1795              		.cfi_endproc
 1796              	.LFE404:
 1797              		.size	thread1, .-thread1
 1798              		.section	.text.thread2,"ax",%progbits
 1799              		.align	1
 1800              		.p2align 4,,15
 1801              		.syntax unified
ARM GAS  /tmp/ccMmeZ0f.s 			page 33


 1802              		.thumb
 1803              		.thumb_func
 1804              		.fpu softvfp
 1805              		.type	thread2, %function
 1806              	thread2:
 1807              	.LVL73:
 1808              	.LFB405:
 1809              		.loc 1 64 33 is_stmt 1 view -0
 1810              		.cfi_startproc
 1811              		@ args = 0, pretend = 0, frame = 0
 1812              		@ frame_needed = 0, uses_anonymous_args = 0
 1813              		.loc 1 66 3 view .LVU449
 1814              		.loc 1 67 3 view .LVU450
 1815              		.loc 1 64 33 is_stmt 0 view .LVU451
 1816 0000 08B5     		push	{r3, lr}
 1817              		.cfi_def_cfa_offset 8
 1818              		.cfi_offset 3, -8
 1819              		.cfi_offset 14, -4
 1820              		.loc 1 67 3 view .LVU452
 1821 0002 4FF4FA70 		mov	r0, #500
 1822              	.LVL74:
 1823              		.loc 1 67 3 view .LVU453
 1824 0006 FFF7FEFF 		bl	chThdSleep
 1825              	.LVL75:
 1826              		.loc 1 68 3 is_stmt 1 view .LVU454
 1827              	.LBB623:
 1828              	.LBI623:
 1829              		.loc 7 407 20 view .LVU455
 1830              	.LBE623:
 1831              		.loc 7 409 3 view .LVU456
 1832              	.LBB628:
 1833              	.LBB624:
 1834              	.LBI624:
 1835              		.loc 8 806 27 view .LVU457
 1836              	.LBE624:
 1837              	.LBE628:
 1838              		.loc 8 814 3 view .LVU458
 1839              	.LBB629:
 1840              	.LBB627:
 1841              	.LBB625:
 1842              	.LBI625:
 1843              		.loc 5 491 27 view .LVU459
 1844              	.LBB626:
 1845              		.loc 5 493 3 view .LVU460
 1846 000a 3023     		movs	r3, #48
 1847              		.syntax unified
 1848              	@ 493 "../ChibiOS/os/common/ext/ARM/CMSIS/Core/Include/cmsis_gcc.h" 1
 1849 000c 83F31188 		MSR basepri, r3
 1850              	@ 0 "" 2
 1851              	.LVL76:
 1852              		.loc 5 493 3 is_stmt 0 view .LVU461
 1853              		.thumb
 1854              		.syntax unified
 1855              	.LBE626:
 1856              	.LBE625:
 1857              	.LBE627:
 1858              	.LBE629:
ARM GAS  /tmp/ccMmeZ0f.s 			page 34


 1859              		.loc 7 410 35 is_stmt 1 view .LVU462
 1860              		.loc 7 411 21 view .LVU463
 1861              		.loc 1 69 3 view .LVU464
 1862 0010 0448     		ldr	r0, .L50
 1863 0012 FFF7FEFF 		bl	chSemSignalI
 1864              	.LVL77:
 1865              		.loc 1 70 3 view .LVU465
 1866 0016 FFF7FEFF 		bl	chSchRescheduleS
 1867              	.LVL78:
 1868              		.loc 1 71 3 view .LVU466
 1869              	.LBB630:
 1870              	.LBI630:
 1871              		.loc 7 421 20 view .LVU467
 1872              	.LBB631:
 1873              		.loc 7 423 23 view .LVU468
 1874              		.loc 7 424 34 view .LVU469
 1875              		.loc 7 430 3 view .LVU470
 1876              		.loc 7 430 3 view .LVU471
 1877              		.loc 7 430 3 view .LVU472
 1878              		.loc 7 434 3 view .LVU473
 1879              	.LBB632:
 1880              	.LBI632:
 1881              		.loc 8 830 27 view .LVU474
 1882              	.LBE632:
 1883              	.LBE631:
 1884              	.LBE630:
 1885              		.loc 8 833 3 view .LVU475
 1886              	.LBB637:
 1887              	.LBB636:
 1888              	.LBB635:
 1889              	.LBB633:
 1890              	.LBI633:
 1891              		.loc 5 491 27 view .LVU476
 1892              	.LBB634:
 1893              		.loc 5 493 3 view .LVU477
 1894 001a 0023     		movs	r3, #0
 1895              		.syntax unified
 1896              	@ 493 "../ChibiOS/os/common/ext/ARM/CMSIS/Core/Include/cmsis_gcc.h" 1
 1897 001c 83F31188 		MSR basepri, r3
 1898              	@ 0 "" 2
 1899              	.LVL79:
 1900              		.loc 5 493 3 is_stmt 0 view .LVU478
 1901              		.thumb
 1902              		.syntax unified
 1903              	.LBE634:
 1904              	.LBE633:
 1905              	.LBE635:
 1906              	.LBE636:
 1907              	.LBE637:
 1908              		.loc 1 72 1 view .LVU479
 1909 0020 08BD     		pop	{r3, pc}
 1910              	.L51:
 1911 0022 00BF     		.align	2
 1912              	.L50:
 1913 0024 00000000 		.word	.LANCHOR0
 1914              		.cfi_endproc
 1915              	.LFE405:
ARM GAS  /tmp/ccMmeZ0f.s 			page 35


 1916              		.size	thread2, .-thread2
 1917              		.section	.rodata.rt_test_007_003_execute.str1.4,"aMS",%progbits,1
 1918              		.align	2
 1919              	.LC12:
 1920 0000 77726F6E 		.ascii	"wrong wake-up message\000"
 1920      67207761 
 1920      6B652D75 
 1920      70206D65 
 1920      73736167 
 1921 0016 0000     		.align	2
 1922              	.LC13:
 1923 0018 6F757420 		.ascii	"out of time window\000"
 1923      6F662074 
 1923      696D6520 
 1923      77696E64 
 1923      6F7700
 1924              		.section	.text.rt_test_007_003_execute,"ax",%progbits
 1925              		.align	1
 1926              		.p2align 4,,15
 1927              		.syntax unified
 1928              		.thumb
 1929              		.thumb_func
 1930              		.fpu softvfp
 1931              		.type	rt_test_007_003_execute, %function
 1932              	rt_test_007_003_execute:
 1933              	.LFB414:
 1934              		.loc 1 239 43 is_stmt 1 view -0
 1935              		.cfi_startproc
 1936              		@ args = 0, pretend = 0, frame = 0
 1937              		@ frame_needed = 0, uses_anonymous_args = 0
 1938              		.loc 1 240 3 view .LVU481
 1939              		.loc 1 241 3 view .LVU482
 1940              		.loc 1 242 3 view .LVU483
 1941              		.loc 1 245 3 view .LVU484
 1942              		.loc 1 239 43 is_stmt 0 view .LVU485
 1943 0000 2DE9F041 		push	{r4, r5, r6, r7, r8, lr}
 1944              		.cfi_def_cfa_offset 24
 1945              		.cfi_offset 4, -24
 1946              		.cfi_offset 5, -20
 1947              		.cfi_offset 6, -16
 1948              		.cfi_offset 7, -12
 1949              		.cfi_offset 8, -8
 1950              		.cfi_offset 14, -4
 1951              		.loc 1 247 11 view .LVU486
 1952 0004 4E4C     		ldr	r4, .L60
 1953              		.loc 1 245 3 view .LVU487
 1954 0006 4F4D     		ldr	r5, .L60+4
 1955              		.loc 1 239 43 view .LVU488
 1956 0008 82B0     		sub	sp, sp, #8
 1957              		.cfi_def_cfa_offset 32
 1958              		.loc 1 247 11 view .LVU489
 1959 000a 0021     		movs	r1, #0
 1960              		.loc 1 245 3 view .LVU490
 1961 000c 0123     		movs	r3, #1
 1962              		.loc 1 247 11 view .LVU491
 1963 000e 2046     		mov	r0, r4
 1964              		.loc 1 245 3 view .LVU492
ARM GAS  /tmp/ccMmeZ0f.s 			page 36


 1965 0010 2B60     		str	r3, [r5]
 1966              		.loc 1 247 5 is_stmt 1 view .LVU493
 1967              		.loc 1 247 11 is_stmt 0 view .LVU494
 1968 0012 FFF7FEFF 		bl	chSemWaitTimeout
 1969              	.LVL80:
 1970              		.loc 1 248 5 is_stmt 1 view .LVU495
 1971 0016 A0F1FF30 		sub	r0, r0, #-1
 1972              	.LVL81:
 1973              		.loc 1 248 5 is_stmt 0 view .LVU496
 1974 001a B0FA80F0 		clz	r0, r0
 1975              	.LVL82:
 1976              		.loc 1 248 5 view .LVU497
 1977 001e 4A49     		ldr	r1, .L60+8
 1978 0020 4009     		lsrs	r0, r0, #5
 1979 0022 FFF7FEFF 		bl	__test_assert
 1980              	.LVL83:
 1981 0026 10B1     		cbz	r0, .L59
 1982              	.L52:
 1983              		.loc 1 284 1 view .LVU498
 1984 0028 02B0     		add	sp, sp, #8
 1985              		.cfi_remember_state
 1986              		.cfi_def_cfa_offset 24
 1987              		@ sp needed
 1988 002a BDE8F081 		pop	{r4, r5, r6, r7, r8, pc}
 1989              	.L59:
 1990              		.cfi_restore_state
 1991              		.loc 1 248 61 is_stmt 1 view .LVU499
 1992              		.loc 1 249 5 view .LVU500
 1993              	.LVL84:
 1994              	.LBB656:
 1995              	.LBI656:
 1996              		.loc 4 236 20 view .LVU501
 1997              	.LBB657:
 1998              		.loc 4 238 3 view .LVU502
 1999              		.loc 4 238 10 is_stmt 0 view .LVU503
 2000 002e 2068     		ldr	r0, [r4]
 2001              	.LBE657:
 2002              	.LBE656:
 2003              		.loc 1 249 5 view .LVU504
 2004 0030 4649     		ldr	r1, .L60+12
 2005 0032 001B     		subs	r0, r0, r4
 2006 0034 B0FA80F0 		clz	r0, r0
 2007 0038 4009     		lsrs	r0, r0, #5
 2008 003a FFF7FEFF 		bl	__test_assert
 2009              	.LVL85:
 2010 003e 0028     		cmp	r0, #0
 2011 0040 F2D1     		bne	.L52
 2012              	.LBB658:
 2013              	.LBI658:
 2014              		.loc 1 239 13 is_stmt 1 view .LVU505
 2015              	.LBB659:
 2016              		.loc 1 249 66 view .LVU506
 2017              		.loc 1 250 5 view .LVU507
 2018 0042 A068     		ldr	r0, [r4, #8]
 2019 0044 4249     		ldr	r1, .L60+16
 2020 0046 B0FA80F0 		clz	r0, r0
 2021 004a 4009     		lsrs	r0, r0, #5
ARM GAS  /tmp/ccMmeZ0f.s 			page 37


 2022 004c FFF7FEFF 		bl	__test_assert
 2023              	.LVL86:
 2024 0050 0346     		mov	r3, r0
 2025 0052 0028     		cmp	r0, #0
 2026 0054 E8D1     		bne	.L52
 2027              		.loc 1 250 51 view .LVU508
 2028              		.loc 1 252 3 view .LVU509
 2029              		.loc 1 252 19 view .LVU510
 2030              		.loc 1 255 3 view .LVU511
 2031              	.LBB660:
 2032              	.LBB661:
 2033              	.LBB662:
 2034              	.LBB663:
 2035              		.loc 3 343 10 is_stmt 0 view .LVU512
 2036 0056 3F4A     		ldr	r2, .L60+20
 2037              	.LBE663:
 2038              	.LBE662:
 2039              	.LBE661:
 2040              	.LBE660:
 2041              		.loc 1 257 18 view .LVU513
 2042 0058 3F49     		ldr	r1, .L60+24
 2043              	.LBB668:
 2044              	.LBB666:
 2045              		.loc 3 356 37 view .LVU514
 2046 005a D268     		ldr	r2, [r2, #12]
 2047              	.LBE666:
 2048              	.LBE668:
 2049              		.loc 1 257 18 view .LVU515
 2050 005c 0868     		ldr	r0, [r1]
 2051 005e 9268     		ldr	r2, [r2, #8]
 2052 0060 0093     		str	r3, [sp]
 2053              		.loc 1 255 3 view .LVU516
 2054 0062 0221     		movs	r1, #2
 2055              		.loc 1 257 18 view .LVU517
 2056 0064 013A     		subs	r2, r2, #1
 2057 0066 3D4B     		ldr	r3, .L60+28
 2058              		.loc 1 255 3 view .LVU518
 2059 0068 2960     		str	r1, [r5]
 2060              		.loc 1 257 5 is_stmt 1 view .LVU519
 2061              	.LBB669:
 2062              	.LBI660:
 2063              		.loc 3 354 23 view .LVU520
 2064              	.LBB667:
 2065              		.loc 3 356 3 view .LVU521
 2066              	.LBB665:
 2067              	.LBI662:
 2068              		.loc 3 341 25 view .LVU522
 2069              	.LBB664:
 2070              		.loc 3 343 3 view .LVU523
 2071              	.LBE664:
 2072              	.LBE665:
 2073              	.LBE667:
 2074              	.LBE669:
 2075              		.loc 1 257 18 is_stmt 0 view .LVU524
 2076 006a 4FF4B871 		mov	r1, #368
 2077 006e FFF7FEFF 		bl	chThdCreateStatic
 2078              	.LVL87:
ARM GAS  /tmp/ccMmeZ0f.s 			page 38


 2079              		.loc 1 257 16 view .LVU525
 2080 0072 3B4B     		ldr	r3, .L60+32
 2081              		.loc 1 259 11 view .LVU526
 2082 0074 41F28831 		movw	r1, #5000
 2083              		.loc 1 257 16 view .LVU527
 2084 0078 1860     		str	r0, [r3]
 2085              		.loc 1 259 5 is_stmt 1 view .LVU528
 2086              		.loc 1 259 11 is_stmt 0 view .LVU529
 2087 007a 2046     		mov	r0, r4
 2088 007c FFF7FEFF 		bl	chSemWaitTimeout
 2089              	.LVL88:
 2090 0080 0646     		mov	r6, r0
 2091              	.LVL89:
 2092              		.loc 1 260 5 is_stmt 1 view .LVU530
 2093 0082 FFF7FEFF 		bl	test_wait_threads
 2094              	.LVL90:
 2095              		.loc 1 261 5 view .LVU531
 2096 0086 B6FA86F0 		clz	r0, r6
 2097 008a 2F49     		ldr	r1, .L60+8
 2098 008c 4009     		lsrs	r0, r0, #5
 2099 008e FFF7FEFF 		bl	__test_assert
 2100              	.LVL91:
 2101 0092 0028     		cmp	r0, #0
 2102 0094 C8D1     		bne	.L52
 2103              		.loc 1 261 56 view .LVU532
 2104              		.loc 1 262 5 view .LVU533
 2105              	.LVL92:
 2106              	.LBB670:
 2107              	.LBI670:
 2108              		.loc 4 236 20 view .LVU534
 2109              	.LBB671:
 2110              		.loc 4 238 3 view .LVU535
 2111              		.loc 4 238 10 is_stmt 0 view .LVU536
 2112 0096 2068     		ldr	r0, [r4]
 2113              	.LBE671:
 2114              	.LBE670:
 2115              		.loc 1 262 5 view .LVU537
 2116 0098 2C49     		ldr	r1, .L60+12
 2117 009a 001B     		subs	r0, r0, r4
 2118 009c B0FA80F0 		clz	r0, r0
 2119 00a0 4009     		lsrs	r0, r0, #5
 2120 00a2 FFF7FEFF 		bl	__test_assert
 2121              	.LVL93:
 2122 00a6 0028     		cmp	r0, #0
 2123 00a8 BED1     		bne	.L52
 2124              		.loc 1 262 66 is_stmt 1 view .LVU538
 2125              		.loc 1 263 5 view .LVU539
 2126 00aa A068     		ldr	r0, [r4, #8]
 2127 00ac 2849     		ldr	r1, .L60+16
 2128 00ae B0FA80F0 		clz	r0, r0
 2129 00b2 4009     		lsrs	r0, r0, #5
 2130 00b4 FFF7FEFF 		bl	__test_assert
 2131              	.LVL94:
 2132 00b8 0028     		cmp	r0, #0
 2133 00ba B5D1     		bne	.L52
 2134              		.loc 1 263 51 view .LVU540
 2135              		.loc 1 265 3 view .LVU541
ARM GAS  /tmp/ccMmeZ0f.s 			page 39


 2136              		.loc 1 265 19 view .LVU542
 2137              		.loc 1 268 3 view .LVU543
 2138 00bc 0323     		movs	r3, #3
 2139 00be 2B60     		str	r3, [r5]
 2140              		.loc 1 270 5 view .LVU544
 2141              		.loc 1 270 19 is_stmt 0 view .LVU545
 2142 00c0 FFF7FEFF 		bl	test_wait_tick
 2143              	.LVL95:
 2144              		.loc 1 274 7 view .LVU546
 2145 00c4 204F     		ldr	r7, .L60+8
 2146              		.loc 1 275 7 view .LVU547
 2147 00c6 214E     		ldr	r6, .L60+12
 2148              	.LVL96:
 2149              		.loc 1 270 19 view .LVU548
 2150 00c8 8046     		mov	r8, r0
 2151              	.LVL97:
 2152              	.LBB672:
 2153              	.LBI672:
 2154              		.file 9 "../ChibiOS/os/rt/include/chtime.h"
 2155              		.loc 9 442 25 is_stmt 1 view .LVU549
 2156              	.LBB673:
 2157              		.loc 9 449 3 view .LVU550
 2158              		.loc 9 449 3 is_stmt 0 view .LVU551
 2159              	.LBE673:
 2160              	.LBE672:
 2161              		.loc 1 271 5 is_stmt 1 view .LVU552
 2162              		.loc 1 271 17 view .LVU553
 2163              		.loc 1 270 19 is_stmt 0 view .LVU554
 2164 00ca 4125     		movs	r5, #65
 2165              	.LVL98:
 2166              	.L56:
 2167              		.loc 1 272 7 is_stmt 1 view .LVU555
 2168 00cc 2846     		mov	r0, r5
 2169 00ce FFF7FEFF 		bl	test_emit_token
 2170              	.LVL99:
 2171              		.loc 1 273 7 view .LVU556
 2172              		.loc 1 273 13 is_stmt 0 view .LVU557
 2173 00d2 4FF4FA71 		mov	r1, #500
 2174 00d6 2046     		mov	r0, r4
 2175 00d8 FFF7FEFF 		bl	chSemWaitTimeout
 2176              	.LVL100:
 2177              		.loc 1 274 7 is_stmt 1 view .LVU558
 2178 00dc A0F1FF30 		sub	r0, r0, #-1
 2179              	.LVL101:
 2180              		.loc 1 274 7 is_stmt 0 view .LVU559
 2181 00e0 B0FA80F0 		clz	r0, r0
 2182              	.LVL102:
 2183              		.loc 1 274 7 view .LVU560
 2184 00e4 3946     		mov	r1, r7
 2185 00e6 4009     		lsrs	r0, r0, #5
 2186 00e8 FFF7FEFF 		bl	__test_assert
 2187              	.LVL103:
 2188              		.loc 1 274 63 is_stmt 1 view .LVU561
 2189              		.loc 1 275 7 view .LVU562
 2190              	.LBB674:
 2191              	.LBI674:
 2192              		.loc 4 236 20 view .LVU563
ARM GAS  /tmp/ccMmeZ0f.s 			page 40


 2193              	.LBB675:
 2194              		.loc 4 238 3 view .LVU564
 2195              		.loc 4 238 3 is_stmt 0 view .LVU565
 2196              	.LBE675:
 2197              	.LBE674:
 2198              		.loc 1 275 7 view .LVU566
 2199 00ec 3146     		mov	r1, r6
 2200              		.loc 1 274 7 view .LVU567
 2201 00ee 0028     		cmp	r0, #0
 2202 00f0 9AD1     		bne	.L52
 2203              	.LBB677:
 2204              	.LBB676:
 2205              		.loc 4 238 10 view .LVU568
 2206 00f2 2068     		ldr	r0, [r4]
 2207              	.LBE676:
 2208              	.LBE677:
 2209              		.loc 1 275 7 view .LVU569
 2210 00f4 001B     		subs	r0, r0, r4
 2211 00f6 B0FA80F0 		clz	r0, r0
 2212 00fa 4009     		lsrs	r0, r0, #5
 2213 00fc FFF7FEFF 		bl	__test_assert
 2214              	.LVL104:
 2215              		.loc 1 275 68 is_stmt 1 view .LVU570
 2216              		.loc 1 276 7 view .LVU571
 2217 0100 1349     		ldr	r1, .L60+16
 2218              		.loc 1 275 7 is_stmt 0 view .LVU572
 2219 0102 0028     		cmp	r0, #0
 2220 0104 90D1     		bne	.L52
 2221              		.loc 1 276 7 view .LVU573
 2222 0106 A068     		ldr	r0, [r4, #8]
 2223 0108 B0FA80F0 		clz	r0, r0
 2224 010c 4009     		lsrs	r0, r0, #5
 2225 010e FFF7FEFF 		bl	__test_assert
 2226              	.LVL105:
 2227              		.loc 1 276 53 is_stmt 1 view .LVU574
 2228              		.loc 1 271 24 view .LVU575
 2229              		.loc 1 271 17 view .LVU576
 2230              		.loc 1 271 5 is_stmt 0 view .LVU577
 2231 0112 0135     		adds	r5, r5, #1
 2232 0114 EDB2     		uxtb	r5, r5
 2233              		.loc 1 276 7 view .LVU578
 2234 0116 0028     		cmp	r0, #0
 2235 0118 86D1     		bne	.L52
 2236              		.loc 1 271 5 view .LVU579
 2237 011a 462D     		cmp	r5, #70
 2238 011c D6D1     		bne	.L56
 2239              		.loc 1 278 5 is_stmt 1 view .LVU580
 2240 011e 1149     		ldr	r1, .L60+36
 2241 0120 1148     		ldr	r0, .L60+40
 2242 0122 FFF7FEFF 		bl	__test_assert_sequence
 2243              	.LVL106:
 2244 0126 0028     		cmp	r0, #0
 2245 0128 7FF47EAF 		bne	.L52
 2246              		.loc 1 278 54 view .LVU581
 2247              		.loc 1 279 5 view .LVU582
 2248              	.LVL107:
 2249              	.LBB678:
ARM GAS  /tmp/ccMmeZ0f.s 			page 41


 2250              	.LBI678:
 2251              		.loc 9 442 25 view .LVU583
 2252              	.LBB679:
 2253              		.loc 9 449 3 view .LVU584
 2254              		.loc 9 449 3 is_stmt 0 view .LVU585
 2255              	.LBE679:
 2256              	.LBE678:
 2257              		.loc 1 279 5 view .LVU586
 2258 012c 0F4A     		ldr	r2, .L60+44
 2259 012e 08F6D811 		addw	r1, r8, #2520
 2260 0132 08F6C410 		addw	r0, r8, #2500
 2261              	.LBE659:
 2262              	.LBE658:
 2263              		.loc 1 284 1 view .LVU587
 2264 0136 02B0     		add	sp, sp, #8
 2265              		.cfi_def_cfa_offset 24
 2266              		@ sp needed
 2267 0138 BDE8F041 		pop	{r4, r5, r6, r7, r8, lr}
 2268              		.cfi_restore 14
 2269              		.cfi_restore 8
 2270              		.cfi_restore 7
 2271              		.cfi_restore 6
 2272              		.cfi_restore 5
 2273              		.cfi_restore 4
 2274              		.cfi_def_cfa_offset 0
 2275              	.LVL108:
 2276              	.LBB681:
 2277              	.LBB680:
 2278              		.loc 1 279 5 view .LVU588
 2279 013c FFF7FEBF 		b	__test_assert_time_window
 2280              	.LVL109:
 2281              	.L61:
 2282              		.loc 1 279 5 view .LVU589
 2283              		.align	2
 2284              	.L60:
 2285 0140 00000000 		.word	.LANCHOR0
 2286 0144 00000000 		.word	chtest
 2287 0148 00000000 		.word	.LC12
 2288 014c 00000000 		.word	.LC0
 2289 0150 10000000 		.word	.LC1
 2290 0154 00000000 		.word	ch0
 2291 0158 00000000 		.word	wa
 2292 015c 00000000 		.word	thread2
 2293 0160 00000000 		.word	threads
 2294 0164 14000000 		.word	.LC6
 2295 0168 10000000 		.word	.LC11
 2296 016c 18000000 		.word	.LC13
 2297              	.LBE680:
 2298              	.LBE681:
 2299              		.cfi_endproc
 2300              	.LFE414:
 2301              		.size	rt_test_007_003_execute, .-rt_test_007_003_execute
 2302              		.section	.text.rt_test_007_006_teardown,"ax",%progbits
 2303              		.align	1
 2304              		.p2align 4,,15
 2305              		.syntax unified
 2306              		.thumb
ARM GAS  /tmp/ccMmeZ0f.s 			page 42


 2307              		.thumb_func
 2308              		.fpu softvfp
 2309              		.type	rt_test_007_006_teardown, %function
 2310              	rt_test_007_006_teardown:
 2311              	.LFB430:
 2312              		.cfi_startproc
 2313              		@ args = 0, pretend = 0, frame = 0
 2314              		@ frame_needed = 0, uses_anonymous_args = 0
 2315              		@ link register save eliminated.
 2316 0000 FFF7FEBF 		b	test_wait_threads
 2317              		.cfi_endproc
 2318              	.LFE430:
 2319              		.size	rt_test_007_006_teardown, .-rt_test_007_006_teardown
 2320              		.section	.text.thread4,"ax",%progbits
 2321              		.align	1
 2322              		.p2align 4,,15
 2323              		.syntax unified
 2324              		.thumb
 2325              		.thumb_func
 2326              		.fpu softvfp
 2327              		.type	thread4, %function
 2328              	thread4:
 2329              	.LVL110:
 2330              	.LFB407:
 2331              		.loc 1 81 33 is_stmt 1 view -0
 2332              		.cfi_startproc
 2333              		@ args = 0, pretend = 0, frame = 0
 2334              		@ frame_needed = 0, uses_anonymous_args = 0
 2335              		.loc 1 83 3 view .LVU591
 2336              	.LBB695:
 2337              	.LBI695:
 2338              		.file 10 "../ChibiOS/os/oslib/include/chbsem.h"
 2339              		.loc 10 282 20 view .LVU592
 2340              	.LBB696:
 2341              		.loc 10 284 3 view .LVU593
 2342              	.LBB697:
 2343              	.LBI697:
 2344              		.loc 7 407 20 view .LVU594
 2345              	.LBE697:
 2346              	.LBE696:
 2347              	.LBE695:
 2348              		.loc 7 409 3 view .LVU595
 2349              	.LBB735:
 2350              	.LBB728:
 2351              	.LBB705:
 2352              	.LBB698:
 2353              	.LBI698:
 2354              		.loc 8 806 27 view .LVU596
 2355              	.LBE698:
 2356              	.LBE705:
 2357              	.LBE728:
 2358              	.LBE735:
 2359              		.loc 8 814 3 view .LVU597
 2360              	.LBB736:
 2361              	.LBB729:
 2362              	.LBB706:
 2363              	.LBB703:
ARM GAS  /tmp/ccMmeZ0f.s 			page 43


 2364              	.LBB699:
 2365              	.LBI699:
 2366              		.loc 5 491 27 view .LVU598
 2367              	.LBB700:
 2368              		.loc 5 493 3 view .LVU599
 2369              	.LBE700:
 2370              	.LBE699:
 2371              	.LBE703:
 2372              	.LBE706:
 2373              	.LBE729:
 2374              	.LBE736:
 2375              		.loc 1 81 33 is_stmt 0 view .LVU600
 2376 0000 08B5     		push	{r3, lr}
 2377              		.cfi_def_cfa_offset 8
 2378              		.cfi_offset 3, -8
 2379              		.cfi_offset 14, -4
 2380              	.LBB737:
 2381              	.LBB730:
 2382              	.LBB707:
 2383              	.LBB704:
 2384              	.LBB702:
 2385              	.LBB701:
 2386              		.loc 5 493 3 view .LVU601
 2387 0002 3022     		movs	r2, #48
 2388              		.syntax unified
 2389              	@ 493 "../ChibiOS/os/common/ext/ARM/CMSIS/Core/Include/cmsis_gcc.h" 1
 2390 0004 82F31188 		MSR basepri, r2
 2391              	@ 0 "" 2
 2392              	.LVL111:
 2393              		.loc 5 493 3 view .LVU602
 2394              		.thumb
 2395              		.syntax unified
 2396              	.LBE701:
 2397              	.LBE702:
 2398              	.LBE704:
 2399              	.LBE707:
 2400              	.LBE730:
 2401              	.LBE737:
 2402              		.loc 7 410 35 is_stmt 1 view .LVU603
 2403              		.loc 7 411 21 view .LVU604
 2404              	.LBB738:
 2405              	.LBB731:
 2406              		.loc 10 285 3 view .LVU605
 2407              	.LBB708:
 2408              	.LBI708:
 2409              		.loc 10 266 20 view .LVU606
 2410              	.LBB709:
 2411              		.loc 10 268 21 view .LVU607
 2412              		.loc 10 270 3 view .LVU608
 2413              		.loc 10 270 6 is_stmt 0 view .LVU609
 2414 0008 8368     		ldr	r3, [r0, #8]
 2415              	.LVL112:
 2416              		.loc 10 270 6 view .LVU610
 2417 000a 002B     		cmp	r3, #0
 2418 000c 05DD     		ble	.L66
 2419              		.loc 10 270 6 view .LVU611
 2420              	.LBE709:
ARM GAS  /tmp/ccMmeZ0f.s 			page 44


 2421              	.LBE708:
 2422              		.loc 10 286 3 is_stmt 1 view .LVU612
 2423 000e FFF7FEFF 		bl	chSchRescheduleS
 2424              	.LVL113:
 2425              		.loc 10 287 3 view .LVU613
 2426              	.LBB711:
 2427              	.LBI711:
 2428              		.loc 7 421 20 view .LVU614
 2429              	.LBB712:
 2430              		.loc 7 423 23 view .LVU615
 2431              		.loc 7 424 34 view .LVU616
 2432              		.loc 7 430 3 view .LVU617
 2433              		.loc 7 430 3 view .LVU618
 2434              		.loc 7 430 3 view .LVU619
 2435              		.loc 7 434 3 view .LVU620
 2436              	.LBB713:
 2437              	.LBI713:
 2438              		.loc 8 830 27 view .LVU621
 2439              	.LBE713:
 2440              	.LBE712:
 2441              	.LBE711:
 2442              	.LBE731:
 2443              	.LBE738:
 2444              		.loc 8 833 3 view .LVU622
 2445              	.LBB739:
 2446              	.LBB732:
 2447              	.LBB724:
 2448              	.LBB721:
 2449              	.LBB718:
 2450              	.LBB714:
 2451              	.LBI714:
 2452              		.loc 5 491 27 view .LVU623
 2453              	.LBB715:
 2454              		.loc 5 493 3 view .LVU624
 2455 0012 0023     		movs	r3, #0
 2456              		.syntax unified
 2457              	@ 493 "../ChibiOS/os/common/ext/ARM/CMSIS/Core/Include/cmsis_gcc.h" 1
 2458 0014 83F31188 		MSR basepri, r3
 2459              	@ 0 "" 2
 2460              	.LVL114:
 2461              		.loc 5 493 3 is_stmt 0 view .LVU625
 2462              		.thumb
 2463              		.syntax unified
 2464              	.LBE715:
 2465              	.LBE714:
 2466              	.LBE718:
 2467              	.LBE721:
 2468              	.LBE724:
 2469              	.LBE732:
 2470              	.LBE739:
 2471              		.loc 1 84 1 view .LVU626
 2472 0018 08BD     		pop	{r3, pc}
 2473              	.LVL115:
 2474              	.L66:
 2475              	.LBB740:
 2476              	.LBB733:
 2477              	.LBB725:
ARM GAS  /tmp/ccMmeZ0f.s 			page 45


 2478              	.LBB710:
 2479              		.loc 10 271 5 is_stmt 1 view .LVU627
 2480 001a FFF7FEFF 		bl	chSemSignalI
 2481              	.LVL116:
 2482              		.loc 10 271 5 is_stmt 0 view .LVU628
 2483              	.LBE710:
 2484              	.LBE725:
 2485              		.loc 10 286 3 is_stmt 1 view .LVU629
 2486 001e FFF7FEFF 		bl	chSchRescheduleS
 2487              	.LVL117:
 2488              		.loc 10 287 3 view .LVU630
 2489              	.LBB726:
 2490              		.loc 7 421 20 view .LVU631
 2491              	.LBB722:
 2492              		.loc 7 423 23 view .LVU632
 2493              		.loc 7 424 34 view .LVU633
 2494              		.loc 7 430 3 view .LVU634
 2495              		.loc 7 430 3 view .LVU635
 2496              		.loc 7 430 3 view .LVU636
 2497              		.loc 7 434 3 view .LVU637
 2498              	.LBB719:
 2499              		.loc 8 830 27 view .LVU638
 2500              	.LBE719:
 2501              	.LBE722:
 2502              	.LBE726:
 2503              	.LBE733:
 2504              	.LBE740:
 2505              		.loc 8 833 3 view .LVU639
 2506              	.LBB741:
 2507              	.LBB734:
 2508              	.LBB727:
 2509              	.LBB723:
 2510              	.LBB720:
 2511              	.LBB717:
 2512              		.loc 5 491 27 view .LVU640
 2513              	.LBB716:
 2514              		.loc 5 493 3 view .LVU641
 2515 0022 0023     		movs	r3, #0
 2516              		.syntax unified
 2517              	@ 493 "../ChibiOS/os/common/ext/ARM/CMSIS/Core/Include/cmsis_gcc.h" 1
 2518 0024 83F31188 		MSR basepri, r3
 2519              	@ 0 "" 2
 2520              	.LVL118:
 2521              		.loc 5 493 3 is_stmt 0 view .LVU642
 2522              		.thumb
 2523              		.syntax unified
 2524              	.LBE716:
 2525              	.LBE717:
 2526              	.LBE720:
 2527              	.LBE723:
 2528              	.LBE727:
 2529              	.LBE734:
 2530              	.LBE741:
 2531              		.loc 1 84 1 view .LVU643
 2532 0028 08BD     		pop	{r3, pc}
 2533              		.cfi_endproc
 2534              	.LFE407:
ARM GAS  /tmp/ccMmeZ0f.s 			page 46


 2535              		.size	thread4, .-thread4
 2536 002a 00BF     		.section	.text.rt_test_007_003_setup,"ax",%progbits
 2537              		.align	1
 2538              		.p2align 4,,15
 2539              		.syntax unified
 2540              		.thumb
 2541              		.thumb_func
 2542              		.fpu softvfp
 2543              		.type	rt_test_007_003_setup, %function
 2544              	rt_test_007_003_setup:
 2545              	.LFB424:
 2546              		.cfi_startproc
 2547              		@ args = 0, pretend = 0, frame = 0
 2548              		@ frame_needed = 0, uses_anonymous_args = 0
 2549              		@ link register save eliminated.
 2550 0000 0148     		ldr	r0, .L68
 2551 0002 0021     		movs	r1, #0
 2552 0004 FFF7FEBF 		b	chSemObjectInit
 2553              	.L69:
 2554              		.align	2
 2555              	.L68:
 2556 0008 00000000 		.word	.LANCHOR0
 2557              		.cfi_endproc
 2558              	.LFE424:
 2559              		.size	rt_test_007_003_setup, .-rt_test_007_003_setup
 2560              		.section	.text.rt_test_007_004_setup,"ax",%progbits
 2561              		.align	1
 2562              		.p2align 4,,15
 2563              		.syntax unified
 2564              		.thumb
 2565              		.thumb_func
 2566              		.fpu softvfp
 2567              		.type	rt_test_007_004_setup, %function
 2568              	rt_test_007_004_setup:
 2569              	.LFB426:
 2570              		.cfi_startproc
 2571              		@ args = 0, pretend = 0, frame = 0
 2572              		@ frame_needed = 0, uses_anonymous_args = 0
 2573              		@ link register save eliminated.
 2574 0000 0148     		ldr	r0, .L71
 2575 0002 0021     		movs	r1, #0
 2576 0004 FFF7FEBF 		b	chSemObjectInit
 2577              	.L72:
 2578              		.align	2
 2579              	.L71:
 2580 0008 00000000 		.word	.LANCHOR0
 2581              		.cfi_endproc
 2582              	.LFE426:
 2583              		.size	rt_test_007_004_setup, .-rt_test_007_004_setup
 2584              		.section	.text.rt_test_007_005_setup,"ax",%progbits
 2585              		.align	1
 2586              		.p2align 4,,15
 2587              		.syntax unified
 2588              		.thumb
 2589              		.thumb_func
 2590              		.fpu softvfp
 2591              		.type	rt_test_007_005_setup, %function
ARM GAS  /tmp/ccMmeZ0f.s 			page 47


 2592              	rt_test_007_005_setup:
 2593              	.LFB428:
 2594              		.cfi_startproc
 2595              		@ args = 0, pretend = 0, frame = 0
 2596              		@ frame_needed = 0, uses_anonymous_args = 0
 2597              		@ link register save eliminated.
 2598 0000 0148     		ldr	r0, .L74
 2599 0002 0021     		movs	r1, #0
 2600 0004 FFF7FEBF 		b	chSemObjectInit
 2601              	.L75:
 2602              		.align	2
 2603              	.L74:
 2604 0008 00000000 		.word	.LANCHOR0
 2605              		.cfi_endproc
 2606              	.LFE428:
 2607              		.size	rt_test_007_005_setup, .-rt_test_007_005_setup
 2608              		.section	.rodata.rt_test_007_006_execute.str1.4,"aMS",%progbits,1
 2609              		.align	2
 2610              	.LC14:
 2611 0000 6E6F7420 		.ascii	"not taken\000"
 2611      74616B65 
 2611      6E00
 2612 000a 0000     		.align	2
 2613              	.LC15:
 2614 000c 756E6578 		.ascii	"unexpected message\000"
 2614      70656374 
 2614      6564206D 
 2614      65737361 
 2614      676500
 2615 001f 00       		.align	2
 2616              	.LC16:
 2617 0020 7374696C 		.ascii	"still taken\000"
 2617      6C207461 
 2617      6B656E00 
 2618              		.align	2
 2619              	.LC17:
 2620 002c 756E6578 		.ascii	"unexpected counter\000"
 2620      70656374 
 2620      65642063 
 2620      6F756E74 
 2620      657200
 2621 003f 00       		.align	2
 2622              	.LC18:
 2623 0040 74616B65 		.ascii	"taken\000"
 2623      6E00
 2624              		.section	.text.rt_test_007_006_execute,"ax",%progbits
 2625              		.align	1
 2626              		.p2align 4,,15
 2627              		.syntax unified
 2628              		.thumb
 2629              		.thumb_func
 2630              		.fpu softvfp
 2631              		.type	rt_test_007_006_execute, %function
 2632              	rt_test_007_006_execute:
 2633              	.LFB421:
 2634              		.loc 1 441 43 is_stmt 1 view -0
 2635              		.cfi_startproc
ARM GAS  /tmp/ccMmeZ0f.s 			page 48


 2636              		@ args = 0, pretend = 0, frame = 16
 2637              		@ frame_needed = 0, uses_anonymous_args = 0
 2638              		.loc 1 442 3 view .LVU645
 2639              		.loc 1 443 3 view .LVU646
 2640              		.loc 1 447 3 view .LVU647
 2641              		.loc 1 441 43 is_stmt 0 view .LVU648
 2642 0000 F0B5     		push	{r4, r5, r6, r7, lr}
 2643              		.cfi_def_cfa_offset 20
 2644              		.cfi_offset 4, -20
 2645              		.cfi_offset 5, -16
 2646              		.cfi_offset 6, -12
 2647              		.cfi_offset 7, -8
 2648              		.cfi_offset 14, -4
 2649              		.loc 1 447 3 view .LVU649
 2650 0002 634D     		ldr	r5, .L94
 2651              		.loc 1 441 43 view .LVU650
 2652 0004 87B0     		sub	sp, sp, #28
 2653              		.cfi_def_cfa_offset 48
 2654              		.loc 1 447 3 view .LVU651
 2655 0006 0123     		movs	r3, #1
 2656              	.LBB912:
 2657              	.LBB913:
 2658              		.loc 10 126 3 view .LVU652
 2659 0008 0021     		movs	r1, #0
 2660 000a 03A8     		add	r0, sp, #12
 2661              	.LBE913:
 2662              	.LBE912:
 2663              		.loc 1 447 3 view .LVU653
 2664 000c 2B60     		str	r3, [r5]
 2665              		.loc 1 449 5 is_stmt 1 view .LVU654
 2666              	.LVL119:
 2667              	.LBB916:
 2668              	.LBI912:
 2669              		.loc 10 124 20 view .LVU655
 2670              	.LBB914:
 2671              		.loc 10 126 3 view .LVU656
 2672              	.LBE914:
 2673              	.LBE916:
 2674              	.LBB917:
 2675              	.LBB918:
 2676              	.LBB919:
 2677              	.LBB920:
 2678              	.LBB921:
 2679              		.loc 5 493 3 is_stmt 0 view .LVU657
 2680 000e 3026     		movs	r6, #48
 2681              	.LBE921:
 2682              	.LBE920:
 2683              	.LBE919:
 2684              	.LBE918:
 2685              	.LBE917:
 2686              	.LBB929:
 2687              	.LBB915:
 2688              		.loc 10 126 3 view .LVU658
 2689 0010 FFF7FEFF 		bl	chSemObjectInit
 2690              	.LVL120:
 2691              		.loc 10 126 3 view .LVU659
 2692              	.LBE915:
ARM GAS  /tmp/ccMmeZ0f.s 			page 49


 2693              	.LBE929:
 2694              		.loc 1 450 5 is_stmt 1 view .LVU660
 2695              	.LBB930:
 2696              	.LBI917:
 2697              		.loc 6 573 20 view .LVU661
 2698              	.LBE930:
 2699              		.loc 6 575 3 view .LVU662
 2700              	.LBB931:
 2701              	.LBB926:
 2702              	.LBI918:
 2703              		.loc 7 407 20 view .LVU663
 2704              	.LBE926:
 2705              	.LBE931:
 2706              		.loc 7 409 3 view .LVU664
 2707              	.LBB932:
 2708              	.LBB927:
 2709              	.LBB924:
 2710              	.LBI919:
 2711              		.loc 8 806 27 view .LVU665
 2712              	.LBE924:
 2713              	.LBE927:
 2714              	.LBE932:
 2715              		.loc 8 814 3 view .LVU666
 2716              	.LBB933:
 2717              	.LBB928:
 2718              	.LBB925:
 2719              	.LBB923:
 2720              	.LBI920:
 2721              		.loc 5 491 27 view .LVU667
 2722              	.LBB922:
 2723              		.loc 5 493 3 view .LVU668
 2724              		.syntax unified
 2725              	@ 493 "../ChibiOS/os/common/ext/ARM/CMSIS/Core/Include/cmsis_gcc.h" 1
 2726 0014 86F31188 		MSR basepri, r6
 2727              	@ 0 "" 2
 2728              	.LVL121:
 2729              		.loc 5 493 3 is_stmt 0 view .LVU669
 2730              		.thumb
 2731              		.syntax unified
 2732              	.LBE922:
 2733              	.LBE923:
 2734              	.LBE925:
 2735              	.LBE928:
 2736              	.LBE933:
 2737              		.loc 7 410 35 is_stmt 1 view .LVU670
 2738              		.loc 7 411 21 view .LVU671
 2739              		.loc 1 450 5 view .LVU672
 2740              	.LBB934:
 2741              	.LBI934:
 2742              		.loc 10 300 20 view .LVU673
 2743              	.LBB935:
 2744              		.loc 10 302 21 view .LVU674
 2745              		.loc 10 304 3 view .LVU675
 2746              		.loc 10 304 44 is_stmt 0 view .LVU676
 2747 0018 0598     		ldr	r0, [sp, #20]
 2748              	.LBE935:
 2749              	.LBE934:
ARM GAS  /tmp/ccMmeZ0f.s 			page 50


 2750              		.loc 1 450 5 view .LVU677
 2751 001a 5E49     		ldr	r1, .L94+4
 2752 001c 0028     		cmp	r0, #0
 2753 001e CCBF     		ite	gt
 2754 0020 0020     		movgt	r0, #0
 2755 0022 0120     		movle	r0, #1
 2756 0024 FFF7FEFF 		bl	__test_assert
 2757              	.LVL122:
 2758 0028 20B1     		cbz	r0, .L77
 2759              		.loc 1 450 5 is_stmt 1 view .LVU678
 2760              	.LBB936:
 2761              	.LBI936:
 2762              		.loc 6 584 20 view .LVU679
 2763              	.LBE936:
 2764              		.loc 6 586 3 view .LVU680
 2765              	.LBB945:
 2766              	.LBB937:
 2767              	.LBI937:
 2768              		.loc 7 421 20 view .LVU681
 2769              	.LBB938:
 2770              		.loc 7 423 23 view .LVU682
 2771              		.loc 7 424 34 view .LVU683
 2772              		.loc 7 430 3 view .LVU684
 2773              		.loc 7 430 3 view .LVU685
 2774              		.loc 7 430 3 view .LVU686
 2775              		.loc 7 434 3 view .LVU687
 2776              	.LBB939:
 2777              	.LBI939:
 2778              		.loc 8 830 27 view .LVU688
 2779              	.LBE939:
 2780              	.LBE938:
 2781              	.LBE937:
 2782              	.LBE945:
 2783              		.loc 8 833 3 view .LVU689
 2784              	.LVL123:
 2785              	.LBB946:
 2786              	.LBB944:
 2787              	.LBB943:
 2788              	.LBB942:
 2789              	.LBB940:
 2790              	.LBI940:
 2791              		.loc 5 491 27 view .LVU690
 2792              	.LBB941:
 2793              		.loc 5 493 3 view .LVU691
 2794 002a 0023     		movs	r3, #0
 2795              		.syntax unified
 2796              	@ 493 "../ChibiOS/os/common/ext/ARM/CMSIS/Core/Include/cmsis_gcc.h" 1
 2797 002c 83F31188 		MSR basepri, r3
 2798              	@ 0 "" 2
 2799              	.LVL124:
 2800              		.loc 5 493 3 is_stmt 0 view .LVU692
 2801              		.thumb
 2802              		.syntax unified
 2803              	.LBE941:
 2804              	.LBE940:
 2805              	.LBE942:
 2806              	.LBE943:
ARM GAS  /tmp/ccMmeZ0f.s 			page 51


 2807              	.LBE944:
 2808              	.LBE946:
 2809              		.loc 1 450 5 is_stmt 1 view .LVU693
 2810              	.L76:
 2811              		.loc 1 501 1 is_stmt 0 view .LVU694
 2812 0030 07B0     		add	sp, sp, #28
 2813              		.cfi_remember_state
 2814              		.cfi_def_cfa_offset 20
 2815              		@ sp needed
 2816 0032 F0BD     		pop	{r4, r5, r6, r7, pc}
 2817              	.L77:
 2818              		.cfi_restore_state
 2819              		.loc 1 450 5 is_stmt 1 view .LVU695
 2820              	.LBB947:
 2821              	.LBI947:
 2822              		.loc 6 584 20 view .LVU696
 2823              	.LBE947:
 2824              		.loc 6 586 3 view .LVU697
 2825              	.LBB956:
 2826              	.LBB948:
 2827              	.LBI948:
 2828              		.loc 7 421 20 view .LVU698
 2829              	.LBB949:
 2830              		.loc 7 423 23 view .LVU699
 2831              		.loc 7 424 34 view .LVU700
 2832              		.loc 7 430 3 view .LVU701
 2833              		.loc 7 430 3 view .LVU702
 2834              		.loc 7 430 3 view .LVU703
 2835              		.loc 7 434 3 view .LVU704
 2836              	.LBB950:
 2837              	.LBI950:
 2838              		.loc 8 830 27 view .LVU705
 2839              	.LBE950:
 2840              	.LBE949:
 2841              	.LBE948:
 2842              	.LBE956:
 2843              		.loc 8 833 3 view .LVU706
 2844              	.LVL125:
 2845              	.LBB957:
 2846              	.LBB955:
 2847              	.LBB954:
 2848              	.LBB953:
 2849              	.LBB951:
 2850              	.LBI951:
 2851              		.loc 5 491 27 view .LVU707
 2852              	.LBB952:
 2853              		.loc 5 493 3 view .LVU708
 2854 0034 0446     		mov	r4, r0
 2855              		.syntax unified
 2856              	@ 493 "../ChibiOS/os/common/ext/ARM/CMSIS/Core/Include/cmsis_gcc.h" 1
 2857 0036 80F31188 		MSR basepri, r0
 2858              	@ 0 "" 2
 2859              	.LVL126:
 2860              		.loc 5 493 3 is_stmt 0 view .LVU709
 2861              		.thumb
 2862              		.syntax unified
 2863              	.LBE952:
ARM GAS  /tmp/ccMmeZ0f.s 			page 52


 2864              	.LBE951:
 2865              	.LBE953:
 2866              	.LBE954:
 2867              	.LBE955:
 2868              	.LBE957:
 2869              		.loc 1 450 66 is_stmt 1 view .LVU710
 2870              		.loc 1 452 3 view .LVU711
 2871              		.loc 1 452 19 view .LVU712
 2872              		.loc 1 456 3 view .LVU713
 2873 003a 0223     		movs	r3, #2
 2874              	.LBB958:
 2875              	.LBB959:
 2876              	.LBB960:
 2877              		.loc 2 125 3 is_stmt 0 view .LVU714
 2878 003c 0146     		mov	r1, r0
 2879 003e 6FF00102 		mvn	r2, #1
 2880 0042 03A8     		add	r0, sp, #12
 2881              	.LBE960:
 2882              	.LBE959:
 2883              	.LBE958:
 2884              		.loc 1 456 3 view .LVU715
 2885 0044 2B60     		str	r3, [r5]
 2886              		.loc 1 458 5 is_stmt 1 view .LVU716
 2887              	.LVL127:
 2888              	.LBB963:
 2889              	.LBI958:
 2890              		.loc 10 253 20 view .LVU717
 2891              	.LBE963:
 2892              		.loc 10 255 3 view .LVU718
 2893              	.LBB964:
 2894              	.LBB962:
 2895              	.LBI959:
 2896              		.loc 2 123 20 view .LVU719
 2897              	.LBB961:
 2898              		.loc 2 125 3 view .LVU720
 2899 0046 FFF7FEFF 		bl	chSemResetWithMessage
 2900              	.LVL128:
 2901              		.loc 2 125 3 is_stmt 0 view .LVU721
 2902              	.LBE961:
 2903              	.LBE962:
 2904              	.LBE964:
 2905              		.loc 1 459 5 is_stmt 1 view .LVU722
 2906              	.LBB965:
 2907              	.LBI965:
 2908              		.loc 6 573 20 view .LVU723
 2909              	.LBE965:
 2910              		.loc 6 575 3 view .LVU724
 2911              	.LBB973:
 2912              	.LBB966:
 2913              	.LBI966:
 2914              		.loc 7 407 20 view .LVU725
 2915              	.LBE966:
 2916              	.LBE973:
 2917              		.loc 7 409 3 view .LVU726
 2918              	.LBB974:
 2919              	.LBB971:
 2920              	.LBB967:
ARM GAS  /tmp/ccMmeZ0f.s 			page 53


 2921              	.LBI967:
 2922              		.loc 8 806 27 view .LVU727
 2923              	.LBE967:
 2924              	.LBE971:
 2925              	.LBE974:
 2926              		.loc 8 814 3 view .LVU728
 2927              	.LBB975:
 2928              	.LBB972:
 2929              	.LBB970:
 2930              	.LBB968:
 2931              	.LBI968:
 2932              		.loc 5 491 27 view .LVU729
 2933              	.LBB969:
 2934              		.loc 5 493 3 view .LVU730
 2935              		.syntax unified
 2936              	@ 493 "../ChibiOS/os/common/ext/ARM/CMSIS/Core/Include/cmsis_gcc.h" 1
 2937 004a 86F31188 		MSR basepri, r6
 2938              	@ 0 "" 2
 2939              	.LVL129:
 2940              		.loc 5 493 3 is_stmt 0 view .LVU731
 2941              		.thumb
 2942              		.syntax unified
 2943              	.LBE969:
 2944              	.LBE968:
 2945              	.LBE970:
 2946              	.LBE972:
 2947              	.LBE975:
 2948              		.loc 7 410 35 is_stmt 1 view .LVU732
 2949              		.loc 7 411 21 view .LVU733
 2950              		.loc 1 459 5 view .LVU734
 2951              	.LBB976:
 2952              	.LBI976:
 2953              		.loc 10 300 20 view .LVU735
 2954              	.LBB977:
 2955              		.loc 10 302 21 view .LVU736
 2956              		.loc 10 304 3 view .LVU737
 2957              		.loc 10 304 44 is_stmt 0 view .LVU738
 2958 004e 0598     		ldr	r0, [sp, #20]
 2959              	.LBE977:
 2960              	.LBE976:
 2961              		.loc 1 459 5 view .LVU739
 2962 0050 5049     		ldr	r1, .L94+4
 2963 0052 0028     		cmp	r0, #0
 2964 0054 CCBF     		ite	gt
 2965 0056 0020     		movgt	r0, #0
 2966 0058 0120     		movle	r0, #1
 2967 005a FFF7FEFF 		bl	__test_assert
 2968              	.LVL130:
 2969 005e 0746     		mov	r7, r0
 2970 0060 38BB     		cbnz	r0, .L91
 2971              		.loc 1 459 5 is_stmt 1 view .LVU740
 2972              	.LBB978:
 2973              	.LBI978:
 2974              		.loc 6 584 20 view .LVU741
 2975              	.LBE978:
 2976              		.loc 6 586 3 view .LVU742
 2977              	.LBB987:
ARM GAS  /tmp/ccMmeZ0f.s 			page 54


 2978              	.LBB979:
 2979              	.LBI979:
 2980              		.loc 7 421 20 view .LVU743
 2981              	.LBB980:
 2982              		.loc 7 423 23 view .LVU744
 2983              		.loc 7 424 34 view .LVU745
 2984              		.loc 7 430 3 view .LVU746
 2985              		.loc 7 430 3 view .LVU747
 2986              		.loc 7 430 3 view .LVU748
 2987              		.loc 7 434 3 view .LVU749
 2988              	.LBB981:
 2989              	.LBI981:
 2990              		.loc 8 830 27 view .LVU750
 2991              	.LBE981:
 2992              	.LBE980:
 2993              	.LBE979:
 2994              	.LBE987:
 2995              		.loc 8 833 3 view .LVU751
 2996              	.LVL131:
 2997              	.LBB988:
 2998              	.LBB986:
 2999              	.LBB985:
 3000              	.LBB984:
 3001              	.LBB982:
 3002              	.LBI982:
 3003              		.loc 5 491 27 view .LVU752
 3004              	.LBB983:
 3005              		.loc 5 493 3 view .LVU753
 3006              		.syntax unified
 3007              	@ 493 "../ChibiOS/os/common/ext/ARM/CMSIS/Core/Include/cmsis_gcc.h" 1
 3008 0062 80F31188 		MSR basepri, r0
 3009              	@ 0 "" 2
 3010              	.LVL132:
 3011              		.loc 5 493 3 is_stmt 0 view .LVU754
 3012              		.thumb
 3013              		.syntax unified
 3014              	.LBE983:
 3015              	.LBE982:
 3016              	.LBE984:
 3017              	.LBE985:
 3018              	.LBE986:
 3019              	.LBE988:
 3020              		.loc 1 459 66 is_stmt 1 view .LVU755
 3021              		.loc 1 461 3 view .LVU756
 3022              		.loc 1 461 19 view .LVU757
 3023              		.loc 1 464 3 view .LVU758
 3024 0066 0323     		movs	r3, #3
 3025 0068 2B60     		str	r3, [r5]
 3026              		.loc 1 466 5 view .LVU759
 3027              	.LBB989:
 3028              	.LBI989:
 3029              		.loc 3 354 23 view .LVU760
 3030              	.LBB990:
 3031              		.loc 3 356 3 view .LVU761
 3032              	.LBB991:
 3033              	.LBI991:
 3034              		.loc 3 341 25 view .LVU762
ARM GAS  /tmp/ccMmeZ0f.s 			page 55


 3035              	.LBB992:
 3036              		.loc 3 343 3 view .LVU763
 3037              		.loc 3 343 10 is_stmt 0 view .LVU764
 3038 006a 4B4B     		ldr	r3, .L94+8
 3039              	.LBE992:
 3040              	.LBE991:
 3041              		.loc 3 356 37 view .LVU765
 3042 006c DB68     		ldr	r3, [r3, #12]
 3043              	.LBE990:
 3044              	.LBE989:
 3045              		.loc 1 466 18 view .LVU766
 3046 006e 9A68     		ldr	r2, [r3, #8]
 3047 0070 03AB     		add	r3, sp, #12
 3048 0072 0093     		str	r3, [sp]
 3049 0074 494B     		ldr	r3, .L94+12
 3050 0076 013A     		subs	r2, r2, #1
 3051 0078 4FF4B871 		mov	r1, #368
 3052 007c 1868     		ldr	r0, [r3]
 3053 007e 484B     		ldr	r3, .L94+16
 3054 0080 FFF7FEFF 		bl	chThdCreateStatic
 3055              	.LVL133:
 3056              		.loc 1 466 16 view .LVU767
 3057 0084 474B     		ldr	r3, .L94+20
 3058 0086 1860     		str	r0, [r3]
 3059              		.loc 1 469 3 is_stmt 1 view .LVU768
 3060              		.loc 1 469 19 view .LVU769
 3061              		.loc 1 473 3 view .LVU770
 3062 0088 0423     		movs	r3, #4
 3063              	.LBB993:
 3064              	.LBB994:
 3065              		.loc 10 143 10 is_stmt 0 view .LVU771
 3066 008a 03A8     		add	r0, sp, #12
 3067              	.LBE994:
 3068              	.LBE993:
 3069              		.loc 1 473 3 view .LVU772
 3070 008c 2B60     		str	r3, [r5]
 3071              		.loc 1 475 5 is_stmt 1 view .LVU773
 3072              	.LVL134:
 3073              	.LBB996:
 3074              	.LBI993:
 3075              		.loc 10 141 21 view .LVU774
 3076              	.LBB995:
 3077              		.loc 10 143 3 view .LVU775
 3078              		.loc 10 143 10 is_stmt 0 view .LVU776
 3079 008e FFF7FEFF 		bl	chSemWait
 3080              	.LVL135:
 3081              		.loc 10 143 10 view .LVU777
 3082 0092 0446     		mov	r4, r0
 3083              	.LVL136:
 3084              		.loc 10 143 10 view .LVU778
 3085              	.LBE995:
 3086              	.LBE996:
 3087              		.loc 1 476 5 is_stmt 1 view .LVU779
 3088              	.LBB997:
 3089              	.LBI997:
 3090              		.loc 6 573 20 view .LVU780
 3091              	.LBE997:
ARM GAS  /tmp/ccMmeZ0f.s 			page 56


 3092              		.loc 6 575 3 view .LVU781
 3093              	.LBB1005:
 3094              	.LBB998:
 3095              	.LBI998:
 3096              		.loc 7 407 20 view .LVU782
 3097              	.LBE998:
 3098              	.LBE1005:
 3099              		.loc 7 409 3 view .LVU783
 3100              	.LBB1006:
 3101              	.LBB1003:
 3102              	.LBB999:
 3103              	.LBI999:
 3104              		.loc 8 806 27 view .LVU784
 3105              	.LBE999:
 3106              	.LBE1003:
 3107              	.LBE1006:
 3108              		.loc 8 814 3 view .LVU785
 3109              	.LBB1007:
 3110              	.LBB1004:
 3111              	.LBB1002:
 3112              	.LBB1000:
 3113              	.LBI1000:
 3114              		.loc 5 491 27 view .LVU786
 3115              	.LBB1001:
 3116              		.loc 5 493 3 view .LVU787
 3117              		.syntax unified
 3118              	@ 493 "../ChibiOS/os/common/ext/ARM/CMSIS/Core/Include/cmsis_gcc.h" 1
 3119 0094 86F31188 		MSR basepri, r6
 3120              	@ 0 "" 2
 3121              	.LVL137:
 3122              		.loc 5 493 3 is_stmt 0 view .LVU788
 3123              		.thumb
 3124              		.syntax unified
 3125              	.LBE1001:
 3126              	.LBE1000:
 3127              	.LBE1002:
 3128              	.LBE1004:
 3129              	.LBE1007:
 3130              		.loc 7 410 35 is_stmt 1 view .LVU789
 3131              		.loc 7 411 21 view .LVU790
 3132              		.loc 1 476 5 view .LVU791
 3133              	.LBB1008:
 3134              	.LBI1008:
 3135              		.loc 10 300 20 view .LVU792
 3136              	.LBB1009:
 3137              		.loc 10 302 21 view .LVU793
 3138              		.loc 10 304 3 view .LVU794
 3139              		.loc 10 304 44 is_stmt 0 view .LVU795
 3140 0098 0598     		ldr	r0, [sp, #20]
 3141              	.LVL138:
 3142              		.loc 10 304 44 view .LVU796
 3143              	.LBE1009:
 3144              	.LBE1008:
 3145              		.loc 1 476 5 view .LVU797
 3146 009a 3E49     		ldr	r1, .L94+4
 3147 009c 0028     		cmp	r0, #0
 3148 009e CCBF     		ite	gt
ARM GAS  /tmp/ccMmeZ0f.s 			page 57


 3149 00a0 0020     		movgt	r0, #0
 3150 00a2 0120     		movle	r0, #1
 3151 00a4 FFF7FEFF 		bl	__test_assert
 3152              	.LVL139:
 3153 00a8 38B1     		cbz	r0, .L80
 3154              	.LVL140:
 3155              	.L90:
 3156              		.loc 1 487 5 is_stmt 1 view .LVU798
 3157              	.LBB1010:
 3158              	.LBI1010:
 3159              		.loc 6 584 20 view .LVU799
 3160              	.LBE1010:
 3161              		.loc 6 586 3 view .LVU800
 3162              	.LBB1019:
 3163              	.LBB1011:
 3164              	.LBI1011:
 3165              		.loc 7 421 20 view .LVU801
 3166              	.LBB1012:
 3167              		.loc 7 423 23 view .LVU802
 3168              		.loc 7 424 34 view .LVU803
 3169              		.loc 7 430 3 view .LVU804
 3170              		.loc 7 430 3 view .LVU805
 3171              		.loc 7 430 3 view .LVU806
 3172              		.loc 7 434 3 view .LVU807
 3173              	.LBB1013:
 3174              	.LBI1013:
 3175              		.loc 8 830 27 view .LVU808
 3176              	.LBE1013:
 3177              	.LBE1012:
 3178              	.LBE1011:
 3179              	.LBE1019:
 3180              		.loc 8 833 3 view .LVU809
 3181              	.LBB1020:
 3182              	.LBB1018:
 3183              	.LBB1017:
 3184              	.LBB1016:
 3185              	.LBB1014:
 3186              	.LBI1014:
 3187              		.loc 5 491 27 view .LVU810
 3188              	.LBB1015:
 3189              		.loc 5 493 3 view .LVU811
 3190              		.syntax unified
 3191              	@ 493 "../ChibiOS/os/common/ext/ARM/CMSIS/Core/Include/cmsis_gcc.h" 1
 3192 00aa 87F31188 		MSR basepri, r7
 3193              	@ 0 "" 2
 3194              	.LVL141:
 3195              		.loc 5 493 3 is_stmt 0 view .LVU812
 3196              		.thumb
 3197              		.syntax unified
 3198              	.LBE1015:
 3199              	.LBE1014:
 3200              	.LBE1016:
 3201              	.LBE1017:
 3202              	.LBE1018:
 3203              	.LBE1020:
 3204              		.loc 1 487 5 is_stmt 1 view .LVU813
 3205              		.loc 1 501 1 is_stmt 0 view .LVU814
ARM GAS  /tmp/ccMmeZ0f.s 			page 58


 3206 00ae 07B0     		add	sp, sp, #28
 3207              		.cfi_remember_state
 3208              		.cfi_def_cfa_offset 20
 3209              		@ sp needed
 3210 00b0 F0BD     		pop	{r4, r5, r6, r7, pc}
 3211              	.L91:
 3212              		.cfi_restore_state
 3213              		.loc 1 498 5 is_stmt 1 view .LVU815
 3214              	.LBB1021:
 3215              	.LBI1021:
 3216              		.loc 6 584 20 view .LVU816
 3217              	.LBE1021:
 3218              		.loc 6 586 3 view .LVU817
 3219              	.LBB1030:
 3220              	.LBB1022:
 3221              	.LBI1022:
 3222              		.loc 7 421 20 view .LVU818
 3223              	.LBB1023:
 3224              		.loc 7 423 23 view .LVU819
 3225              		.loc 7 424 34 view .LVU820
 3226              		.loc 7 430 3 view .LVU821
 3227              		.loc 7 430 3 view .LVU822
 3228              		.loc 7 430 3 view .LVU823
 3229              		.loc 7 434 3 view .LVU824
 3230              	.LBB1024:
 3231              	.LBI1024:
 3232              		.loc 8 830 27 view .LVU825
 3233              	.LBE1024:
 3234              	.LBE1023:
 3235              	.LBE1022:
 3236              	.LBE1030:
 3237              		.loc 8 833 3 view .LVU826
 3238              	.LVL142:
 3239              	.LBB1031:
 3240              	.LBB1029:
 3241              	.LBB1028:
 3242              	.LBB1027:
 3243              	.LBB1025:
 3244              	.LBI1025:
 3245              		.loc 5 491 27 view .LVU827
 3246              	.LBB1026:
 3247              		.loc 5 493 3 view .LVU828
 3248              		.syntax unified
 3249              	@ 493 "../ChibiOS/os/common/ext/ARM/CMSIS/Core/Include/cmsis_gcc.h" 1
 3250 00b2 84F31188 		MSR basepri, r4
 3251              	@ 0 "" 2
 3252              	.LVL143:
 3253              		.loc 5 493 3 is_stmt 0 view .LVU829
 3254              		.thumb
 3255              		.syntax unified
 3256              	.LBE1026:
 3257              	.LBE1025:
 3258              	.LBE1027:
 3259              	.LBE1028:
 3260              	.LBE1029:
 3261              	.LBE1031:
 3262              		.loc 1 498 5 is_stmt 1 view .LVU830
ARM GAS  /tmp/ccMmeZ0f.s 			page 59


 3263              		.loc 1 501 1 is_stmt 0 view .LVU831
 3264 00b6 07B0     		add	sp, sp, #28
 3265              		.cfi_remember_state
 3266              		.cfi_def_cfa_offset 20
 3267              		@ sp needed
 3268 00b8 F0BD     		pop	{r4, r5, r6, r7, pc}
 3269              	.LVL144:
 3270              	.L80:
 3271              		.cfi_restore_state
 3272              		.loc 1 476 5 is_stmt 1 view .LVU832
 3273              	.LBB1032:
 3274              	.LBI1032:
 3275              		.loc 6 584 20 view .LVU833
 3276              	.LBE1032:
 3277              		.loc 6 586 3 view .LVU834
 3278              	.LBB1041:
 3279              	.LBB1033:
 3280              	.LBI1033:
 3281              		.loc 7 421 20 view .LVU835
 3282              	.LBB1034:
 3283              		.loc 7 423 23 view .LVU836
 3284              		.loc 7 424 34 view .LVU837
 3285              		.loc 7 430 3 view .LVU838
 3286              		.loc 7 430 3 view .LVU839
 3287              		.loc 7 430 3 view .LVU840
 3288              		.loc 7 434 3 view .LVU841
 3289              	.LBB1035:
 3290              	.LBI1035:
 3291              		.loc 8 830 27 view .LVU842
 3292              	.LBE1035:
 3293              	.LBE1034:
 3294              	.LBE1033:
 3295              	.LBE1041:
 3296              		.loc 8 833 3 view .LVU843
 3297              	.LBB1042:
 3298              	.LBB1040:
 3299              	.LBB1039:
 3300              	.LBB1038:
 3301              	.LBB1036:
 3302              	.LBI1036:
 3303              		.loc 5 491 27 view .LVU844
 3304              	.LBB1037:
 3305              		.loc 5 493 3 view .LVU845
 3306              		.syntax unified
 3307              	@ 493 "../ChibiOS/os/common/ext/ARM/CMSIS/Core/Include/cmsis_gcc.h" 1
 3308 00ba 80F31188 		MSR basepri, r0
 3309              	@ 0 "" 2
 3310              	.LVL145:
 3311              		.loc 5 493 3 is_stmt 0 view .LVU846
 3312              		.thumb
 3313              		.syntax unified
 3314              	.LBE1037:
 3315              	.LBE1036:
 3316              	.LBE1038:
 3317              	.LBE1039:
 3318              	.LBE1040:
 3319              	.LBE1042:
ARM GAS  /tmp/ccMmeZ0f.s 			page 60


 3320              		.loc 1 476 66 is_stmt 1 view .LVU847
 3321              		.loc 1 477 5 view .LVU848
 3322 00be B4FA84F0 		clz	r0, r4
 3323 00c2 3949     		ldr	r1, .L94+24
 3324 00c4 4009     		lsrs	r0, r0, #5
 3325 00c6 FFF7FEFF 		bl	__test_assert
 3326              	.LVL146:
 3327 00ca 0028     		cmp	r0, #0
 3328 00cc B0D1     		bne	.L76
 3329              		.loc 1 477 53 discriminator 2 view .LVU849
 3330              		.loc 1 479 3 discriminator 2 view .LVU850
 3331              		.loc 1 479 19 discriminator 2 view .LVU851
 3332              		.loc 1 484 3 discriminator 2 view .LVU852
 3333 00ce 0523     		movs	r3, #5
 3334 00d0 2B60     		str	r3, [r5]
 3335              		.loc 1 486 5 discriminator 2 view .LVU853
 3336              	.LVL147:
 3337              	.LBB1043:
 3338              	.LBI1043:
 3339              		.loc 10 282 20 discriminator 2 view .LVU854
 3340              	.LBB1044:
 3341              		.loc 10 284 3 discriminator 2 view .LVU855
 3342              	.LBB1045:
 3343              	.LBI1045:
 3344              		.loc 7 407 20 discriminator 2 view .LVU856
 3345              	.LBE1045:
 3346              	.LBE1044:
 3347              	.LBE1043:
 3348              		.loc 7 409 3 discriminator 2 view .LVU857
 3349              	.LBB1069:
 3350              	.LBB1064:
 3351              	.LBB1050:
 3352              	.LBB1046:
 3353              	.LBI1046:
 3354              		.loc 8 806 27 discriminator 2 view .LVU858
 3355              	.LBE1046:
 3356              	.LBE1050:
 3357              	.LBE1064:
 3358              	.LBE1069:
 3359              		.loc 8 814 3 discriminator 2 view .LVU859
 3360              	.LBB1070:
 3361              	.LBB1065:
 3362              	.LBB1051:
 3363              	.LBB1049:
 3364              	.LBB1047:
 3365              	.LBI1047:
 3366              		.loc 5 491 27 discriminator 2 view .LVU860
 3367              	.LBB1048:
 3368              		.loc 5 493 3 discriminator 2 view .LVU861
 3369              		.syntax unified
 3370              	@ 493 "../ChibiOS/os/common/ext/ARM/CMSIS/Core/Include/cmsis_gcc.h" 1
 3371 00d2 86F31188 		MSR basepri, r6
 3372              	@ 0 "" 2
 3373              	.LVL148:
 3374              		.loc 5 493 3 is_stmt 0 discriminator 2 view .LVU862
 3375              		.thumb
 3376              		.syntax unified
ARM GAS  /tmp/ccMmeZ0f.s 			page 61


 3377              	.LBE1048:
 3378              	.LBE1047:
 3379              	.LBE1049:
 3380              	.LBE1051:
 3381              	.LBE1065:
 3382              	.LBE1070:
 3383              		.loc 7 410 35 is_stmt 1 discriminator 2 view .LVU863
 3384              		.loc 7 411 21 discriminator 2 view .LVU864
 3385              	.LBB1071:
 3386              	.LBB1066:
 3387              		.loc 10 285 3 discriminator 2 view .LVU865
 3388              	.LBB1052:
 3389              	.LBI1052:
 3390              		.loc 10 266 20 discriminator 2 view .LVU866
 3391              	.LBB1053:
 3392              		.loc 10 268 21 discriminator 2 view .LVU867
 3393              		.loc 10 270 3 discriminator 2 view .LVU868
 3394              		.loc 10 270 6 is_stmt 0 discriminator 2 view .LVU869
 3395 00d6 059B     		ldr	r3, [sp, #20]
 3396 00d8 002B     		cmp	r3, #0
 3397 00da 3FDD     		ble	.L92
 3398              	.L81:
 3399              	.LVL149:
 3400              		.loc 10 270 6 discriminator 2 view .LVU870
 3401              	.LBE1053:
 3402              	.LBE1052:
 3403              		.loc 10 286 3 is_stmt 1 view .LVU871
 3404 00dc FFF7FEFF 		bl	chSchRescheduleS
 3405              	.LVL150:
 3406              		.loc 10 287 3 view .LVU872
 3407              	.LBB1055:
 3408              	.LBI1055:
 3409              		.loc 7 421 20 view .LVU873
 3410              	.LBB1056:
 3411              		.loc 7 423 23 view .LVU874
 3412              		.loc 7 424 34 view .LVU875
 3413              		.loc 7 430 3 view .LVU876
 3414              		.loc 7 430 3 view .LVU877
 3415              		.loc 7 430 3 view .LVU878
 3416              		.loc 7 434 3 view .LVU879
 3417              	.LBB1057:
 3418              	.LBI1057:
 3419              		.loc 8 830 27 view .LVU880
 3420              	.LBE1057:
 3421              	.LBE1056:
 3422              	.LBE1055:
 3423              	.LBE1066:
 3424              	.LBE1071:
 3425              		.loc 8 833 3 view .LVU881
 3426              	.LBB1072:
 3427              	.LBB1067:
 3428              	.LBB1062:
 3429              	.LBB1061:
 3430              	.LBB1060:
 3431              	.LBB1058:
 3432              	.LBI1058:
 3433              		.loc 5 491 27 view .LVU882
ARM GAS  /tmp/ccMmeZ0f.s 			page 62


 3434              	.LBB1059:
 3435              		.loc 5 493 3 view .LVU883
 3436 00e0 0027     		movs	r7, #0
 3437              		.syntax unified
 3438              	@ 493 "../ChibiOS/os/common/ext/ARM/CMSIS/Core/Include/cmsis_gcc.h" 1
 3439 00e2 87F31188 		MSR basepri, r7
 3440              	@ 0 "" 2
 3441              	.LVL151:
 3442              		.loc 5 493 3 is_stmt 0 view .LVU884
 3443              		.thumb
 3444              		.syntax unified
 3445              	.LBE1059:
 3446              	.LBE1058:
 3447              	.LBE1060:
 3448              	.LBE1061:
 3449              	.LBE1062:
 3450              	.LBE1067:
 3451              	.LBE1072:
 3452              		.loc 1 487 5 is_stmt 1 view .LVU885
 3453              	.LBB1073:
 3454              	.LBI1073:
 3455              		.loc 6 573 20 view .LVU886
 3456              	.LBE1073:
 3457              		.loc 6 575 3 view .LVU887
 3458              	.LBB1081:
 3459              	.LBB1074:
 3460              	.LBI1074:
 3461              		.loc 7 407 20 view .LVU888
 3462              	.LBE1074:
 3463              	.LBE1081:
 3464              		.loc 7 409 3 view .LVU889
 3465              	.LBB1082:
 3466              	.LBB1079:
 3467              	.LBB1075:
 3468              	.LBI1075:
 3469              		.loc 8 806 27 view .LVU890
 3470              	.LBE1075:
 3471              	.LBE1079:
 3472              	.LBE1082:
 3473              		.loc 8 814 3 view .LVU891
 3474              	.LBB1083:
 3475              	.LBB1080:
 3476              	.LBB1078:
 3477              	.LBB1076:
 3478              	.LBI1076:
 3479              		.loc 5 491 27 view .LVU892
 3480              	.LBB1077:
 3481              		.loc 5 493 3 view .LVU893
 3482 00e6 3026     		movs	r6, #48
 3483              		.syntax unified
 3484              	@ 493 "../ChibiOS/os/common/ext/ARM/CMSIS/Core/Include/cmsis_gcc.h" 1
 3485 00e8 86F31188 		MSR basepri, r6
 3486              	@ 0 "" 2
 3487              	.LVL152:
 3488              		.loc 5 493 3 is_stmt 0 view .LVU894
 3489              		.thumb
 3490              		.syntax unified
ARM GAS  /tmp/ccMmeZ0f.s 			page 63


 3491              	.LBE1077:
 3492              	.LBE1076:
 3493              	.LBE1078:
 3494              	.LBE1080:
 3495              	.LBE1083:
 3496              		.loc 7 410 35 is_stmt 1 view .LVU895
 3497              		.loc 7 411 21 view .LVU896
 3498              		.loc 1 487 5 view .LVU897
 3499              	.LBB1084:
 3500              	.LBI1084:
 3501              		.loc 10 300 20 view .LVU898
 3502              	.LBB1085:
 3503              		.loc 10 302 21 view .LVU899
 3504              		.loc 10 304 3 view .LVU900
 3505              		.loc 10 304 3 is_stmt 0 view .LVU901
 3506              	.LBE1085:
 3507              	.LBE1084:
 3508              		.loc 1 487 5 view .LVU902
 3509 00ec 0598     		ldr	r0, [sp, #20]
 3510 00ee 2F49     		ldr	r1, .L94+28
 3511 00f0 B842     		cmp	r0, r7
 3512 00f2 D4BF     		ite	le
 3513 00f4 0020     		movle	r0, #0
 3514 00f6 0120     		movgt	r0, #1
 3515 00f8 FFF7FEFF 		bl	__test_assert
 3516              	.LVL153:
 3517 00fc 0446     		mov	r4, r0
 3518              	.LVL154:
 3519              		.loc 1 487 5 view .LVU903
 3520 00fe 0028     		cmp	r0, #0
 3521 0100 D3D1     		bne	.L90
 3522              		.loc 1 487 5 is_stmt 1 view .LVU904
 3523              	.LBB1086:
 3524              	.LBI1086:
 3525              		.loc 6 584 20 view .LVU905
 3526              	.LBE1086:
 3527              		.loc 6 586 3 view .LVU906
 3528              	.LBB1095:
 3529              	.LBB1087:
 3530              	.LBI1087:
 3531              		.loc 7 421 20 view .LVU907
 3532              	.LBB1088:
 3533              		.loc 7 423 23 view .LVU908
 3534              		.loc 7 424 34 view .LVU909
 3535              		.loc 7 430 3 view .LVU910
 3536              		.loc 7 430 3 view .LVU911
 3537              		.loc 7 430 3 view .LVU912
 3538              		.loc 7 434 3 view .LVU913
 3539              	.LBB1089:
 3540              	.LBI1089:
 3541              		.loc 8 830 27 view .LVU914
 3542              	.LBE1089:
 3543              	.LBE1088:
 3544              	.LBE1087:
 3545              	.LBE1095:
 3546              		.loc 8 833 3 view .LVU915
 3547              	.LVL155:
ARM GAS  /tmp/ccMmeZ0f.s 			page 64


 3548              	.LBB1096:
 3549              	.LBB1094:
 3550              	.LBB1093:
 3551              	.LBB1092:
 3552              	.LBB1090:
 3553              	.LBI1090:
 3554              		.loc 5 491 27 view .LVU916
 3555              	.LBB1091:
 3556              		.loc 5 493 3 view .LVU917
 3557              		.syntax unified
 3558              	@ 493 "../ChibiOS/os/common/ext/ARM/CMSIS/Core/Include/cmsis_gcc.h" 1
 3559 0102 80F31188 		MSR basepri, r0
 3560              	@ 0 "" 2
 3561              	.LVL156:
 3562              		.loc 5 493 3 is_stmt 0 view .LVU918
 3563              		.thumb
 3564              		.syntax unified
 3565              	.LBE1091:
 3566              	.LBE1090:
 3567              	.LBE1092:
 3568              	.LBE1093:
 3569              	.LBE1094:
 3570              	.LBE1096:
 3571              		.loc 1 487 68 is_stmt 1 view .LVU919
 3572              		.loc 1 488 5 view .LVU920
 3573              	.LBB1097:
 3574              	.LBI1097:
 3575              		.loc 6 573 20 view .LVU921
 3576              	.LBE1097:
 3577              		.loc 6 575 3 view .LVU922
 3578              	.LBB1105:
 3579              	.LBB1098:
 3580              	.LBI1098:
 3581              		.loc 7 407 20 view .LVU923
 3582              	.LBE1098:
 3583              	.LBE1105:
 3584              		.loc 7 409 3 view .LVU924
 3585              	.LBB1106:
 3586              	.LBB1103:
 3587              	.LBB1099:
 3588              	.LBI1099:
 3589              		.loc 8 806 27 view .LVU925
 3590              	.LBE1099:
 3591              	.LBE1103:
 3592              	.LBE1106:
 3593              		.loc 8 814 3 view .LVU926
 3594              	.LBB1107:
 3595              	.LBB1104:
 3596              	.LBB1102:
 3597              	.LBB1100:
 3598              	.LBI1100:
 3599              		.loc 5 491 27 view .LVU927
 3600              	.LBB1101:
 3601              		.loc 5 493 3 view .LVU928
 3602              		.syntax unified
 3603              	@ 493 "../ChibiOS/os/common/ext/ARM/CMSIS/Core/Include/cmsis_gcc.h" 1
 3604 0106 86F31188 		MSR basepri, r6
ARM GAS  /tmp/ccMmeZ0f.s 			page 65


 3605              	@ 0 "" 2
 3606              	.LVL157:
 3607              		.loc 5 493 3 is_stmt 0 view .LVU929
 3608              		.thumb
 3609              		.syntax unified
 3610              	.LBE1101:
 3611              	.LBE1100:
 3612              	.LBE1102:
 3613              	.LBE1104:
 3614              	.LBE1107:
 3615              		.loc 7 410 35 is_stmt 1 view .LVU930
 3616              		.loc 7 411 21 view .LVU931
 3617              		.loc 1 488 5 view .LVU932
 3618              	.LBB1108:
 3619              	.LBI1108:
 3620              		.loc 2 189 21 view .LVU933
 3621              	.LBB1109:
 3622              		.loc 2 191 21 view .LVU934
 3623              		.loc 2 193 3 view .LVU935
 3624              		.loc 2 193 3 is_stmt 0 view .LVU936
 3625              	.LBE1109:
 3626              	.LBE1108:
 3627              		.loc 1 488 5 view .LVU937
 3628 010a 0598     		ldr	r0, [sp, #20]
 3629 010c 2849     		ldr	r1, .L94+32
 3630 010e A0F10100 		sub	r0, #1
 3631 0112 B0FA80F0 		clz	r0, r0
 3632 0116 4009     		lsrs	r0, r0, #5
 3633 0118 FFF7FEFF 		bl	__test_assert
 3634              	.LVL158:
 3635 011c 0028     		cmp	r0, #0
 3636 011e C8D1     		bne	.L91
 3637              		.loc 1 488 5 is_stmt 1 view .LVU938
 3638              	.LBB1110:
 3639              	.LBI1110:
 3640              		.loc 6 584 20 view .LVU939
 3641              	.LBE1110:
 3642              		.loc 6 586 3 view .LVU940
 3643              	.LBB1119:
 3644              	.LBB1111:
 3645              	.LBI1111:
 3646              		.loc 7 421 20 view .LVU941
 3647              	.LBB1112:
 3648              		.loc 7 423 23 view .LVU942
 3649              		.loc 7 424 34 view .LVU943
 3650              		.loc 7 430 3 view .LVU944
 3651              		.loc 7 430 3 view .LVU945
 3652              		.loc 7 430 3 view .LVU946
 3653              		.loc 7 434 3 view .LVU947
 3654              	.LBB1113:
 3655              	.LBI1113:
 3656              		.loc 8 830 27 view .LVU948
 3657              	.LBE1113:
 3658              	.LBE1112:
 3659              	.LBE1111:
 3660              	.LBE1119:
 3661              		.loc 8 833 3 view .LVU949
ARM GAS  /tmp/ccMmeZ0f.s 			page 66


 3662              	.LVL159:
 3663              	.LBB1120:
 3664              	.LBB1118:
 3665              	.LBB1117:
 3666              	.LBB1116:
 3667              	.LBB1114:
 3668              	.LBI1114:
 3669              		.loc 5 491 27 view .LVU950
 3670              	.LBB1115:
 3671              		.loc 5 493 3 view .LVU951
 3672              		.syntax unified
 3673              	@ 493 "../ChibiOS/os/common/ext/ARM/CMSIS/Core/Include/cmsis_gcc.h" 1
 3674 0120 80F31188 		MSR basepri, r0
 3675              	@ 0 "" 2
 3676              	.LVL160:
 3677              		.loc 5 493 3 is_stmt 0 view .LVU952
 3678              		.thumb
 3679              		.syntax unified
 3680              	.LBE1115:
 3681              	.LBE1114:
 3682              	.LBE1116:
 3683              	.LBE1117:
 3684              	.LBE1118:
 3685              	.LBE1120:
 3686              		.loc 1 488 77 is_stmt 1 view .LVU953
 3687              		.loc 1 490 3 view .LVU954
 3688              		.loc 1 490 19 view .LVU955
 3689              		.loc 1 494 3 view .LVU956
 3690 0124 0623     		movs	r3, #6
 3691 0126 2B60     		str	r3, [r5]
 3692              		.loc 1 496 5 view .LVU957
 3693              	.LVL161:
 3694              	.LBB1121:
 3695              	.LBI1121:
 3696              		.loc 10 282 20 view .LVU958
 3697              	.LBB1122:
 3698              		.loc 10 284 3 view .LVU959
 3699              	.LBB1123:
 3700              	.LBI1123:
 3701              		.loc 7 407 20 view .LVU960
 3702              	.LBE1123:
 3703              	.LBE1122:
 3704              	.LBE1121:
 3705              		.loc 7 409 3 view .LVU961
 3706              	.LBB1147:
 3707              	.LBB1142:
 3708              	.LBB1128:
 3709              	.LBB1124:
 3710              	.LBI1124:
 3711              		.loc 8 806 27 view .LVU962
 3712              	.LBE1124:
 3713              	.LBE1128:
 3714              	.LBE1142:
 3715              	.LBE1147:
 3716              		.loc 8 814 3 view .LVU963
 3717              	.LBB1148:
 3718              	.LBB1143:
ARM GAS  /tmp/ccMmeZ0f.s 			page 67


 3719              	.LBB1129:
 3720              	.LBB1127:
 3721              	.LBB1125:
 3722              	.LBI1125:
 3723              		.loc 5 491 27 view .LVU964
 3724              	.LBB1126:
 3725              		.loc 5 493 3 view .LVU965
 3726              		.syntax unified
 3727              	@ 493 "../ChibiOS/os/common/ext/ARM/CMSIS/Core/Include/cmsis_gcc.h" 1
 3728 0128 86F31188 		MSR basepri, r6
 3729              	@ 0 "" 2
 3730              	.LVL162:
 3731              		.loc 5 493 3 is_stmt 0 view .LVU966
 3732              		.thumb
 3733              		.syntax unified
 3734              	.LBE1126:
 3735              	.LBE1125:
 3736              	.LBE1127:
 3737              	.LBE1129:
 3738              	.LBE1143:
 3739              	.LBE1148:
 3740              		.loc 7 410 35 is_stmt 1 view .LVU967
 3741              		.loc 7 411 21 view .LVU968
 3742              	.LBB1149:
 3743              	.LBB1144:
 3744              		.loc 10 285 3 view .LVU969
 3745              	.LBB1130:
 3746              	.LBI1130:
 3747              		.loc 10 266 20 view .LVU970
 3748              	.LBB1131:
 3749              		.loc 10 268 21 view .LVU971
 3750              		.loc 10 270 3 view .LVU972
 3751              		.loc 10 270 6 is_stmt 0 view .LVU973
 3752 012c 059B     		ldr	r3, [sp, #20]
 3753 012e 002B     		cmp	r3, #0
 3754 0130 2ADD     		ble	.L93
 3755              	.L84:
 3756              	.LVL163:
 3757              		.loc 10 270 6 view .LVU974
 3758              	.LBE1131:
 3759              	.LBE1130:
 3760              		.loc 10 286 3 is_stmt 1 view .LVU975
 3761 0132 FFF7FEFF 		bl	chSchRescheduleS
 3762              	.LVL164:
 3763              		.loc 10 287 3 view .LVU976
 3764              	.LBB1133:
 3765              	.LBI1133:
 3766              		.loc 7 421 20 view .LVU977
 3767              	.LBB1134:
 3768              		.loc 7 423 23 view .LVU978
 3769              		.loc 7 424 34 view .LVU979
 3770              		.loc 7 430 3 view .LVU980
 3771              		.loc 7 430 3 view .LVU981
 3772              		.loc 7 430 3 view .LVU982
 3773              		.loc 7 434 3 view .LVU983
 3774              	.LBB1135:
 3775              	.LBI1135:
ARM GAS  /tmp/ccMmeZ0f.s 			page 68


 3776              		.loc 8 830 27 view .LVU984
 3777              	.LBE1135:
 3778              	.LBE1134:
 3779              	.LBE1133:
 3780              	.LBE1144:
 3781              	.LBE1149:
 3782              		.loc 8 833 3 view .LVU985
 3783              	.LBB1150:
 3784              	.LBB1145:
 3785              	.LBB1140:
 3786              	.LBB1139:
 3787              	.LBB1138:
 3788              	.LBB1136:
 3789              	.LBI1136:
 3790              		.loc 5 491 27 view .LVU986
 3791              	.LBB1137:
 3792              		.loc 5 493 3 view .LVU987
 3793 0136 0025     		movs	r5, #0
 3794              		.syntax unified
 3795              	@ 493 "../ChibiOS/os/common/ext/ARM/CMSIS/Core/Include/cmsis_gcc.h" 1
 3796 0138 85F31188 		MSR basepri, r5
 3797              	@ 0 "" 2
 3798              	.LVL165:
 3799              		.loc 5 493 3 is_stmt 0 view .LVU988
 3800              		.thumb
 3801              		.syntax unified
 3802              	.LBE1137:
 3803              	.LBE1136:
 3804              	.LBE1138:
 3805              	.LBE1139:
 3806              	.LBE1140:
 3807              	.LBE1145:
 3808              	.LBE1150:
 3809              		.loc 1 497 5 is_stmt 1 view .LVU989
 3810              	.LBB1151:
 3811              	.LBI1151:
 3812              		.loc 6 573 20 view .LVU990
 3813              	.LBE1151:
 3814              		.loc 6 575 3 view .LVU991
 3815              	.LBB1159:
 3816              	.LBB1152:
 3817              	.LBI1152:
 3818              		.loc 7 407 20 view .LVU992
 3819              	.LBE1152:
 3820              	.LBE1159:
 3821              		.loc 7 409 3 view .LVU993
 3822              	.LBB1160:
 3823              	.LBB1157:
 3824              	.LBB1153:
 3825              	.LBI1153:
 3826              		.loc 8 806 27 view .LVU994
 3827              	.LBE1153:
 3828              	.LBE1157:
 3829              	.LBE1160:
 3830              		.loc 8 814 3 view .LVU995
 3831              	.LBB1161:
 3832              	.LBB1158:
ARM GAS  /tmp/ccMmeZ0f.s 			page 69


 3833              	.LBB1156:
 3834              	.LBB1154:
 3835              	.LBI1154:
 3836              		.loc 5 491 27 view .LVU996
 3837              	.LBB1155:
 3838              		.loc 5 493 3 view .LVU997
 3839 013c 3026     		movs	r6, #48
 3840              		.syntax unified
 3841              	@ 493 "../ChibiOS/os/common/ext/ARM/CMSIS/Core/Include/cmsis_gcc.h" 1
 3842 013e 86F31188 		MSR basepri, r6
 3843              	@ 0 "" 2
 3844              	.LVL166:
 3845              		.loc 5 493 3 is_stmt 0 view .LVU998
 3846              		.thumb
 3847              		.syntax unified
 3848              	.LBE1155:
 3849              	.LBE1154:
 3850              	.LBE1156:
 3851              	.LBE1158:
 3852              	.LBE1161:
 3853              		.loc 7 410 35 is_stmt 1 view .LVU999
 3854              		.loc 7 411 21 view .LVU1000
 3855              		.loc 1 497 5 view .LVU1001
 3856              	.LBB1162:
 3857              	.LBI1162:
 3858              		.loc 10 300 20 view .LVU1002
 3859              	.LBB1163:
 3860              		.loc 10 302 21 view .LVU1003
 3861              		.loc 10 304 3 view .LVU1004
 3862              		.loc 10 304 3 is_stmt 0 view .LVU1005
 3863              	.LBE1163:
 3864              	.LBE1162:
 3865              		.loc 1 497 5 view .LVU1006
 3866 0142 0598     		ldr	r0, [sp, #20]
 3867 0144 1B49     		ldr	r1, .L94+36
 3868 0146 A842     		cmp	r0, r5
 3869 0148 D4BF     		ite	le
 3870 014a 0020     		movle	r0, #0
 3871 014c 0120     		movgt	r0, #1
 3872 014e FFF7FEFF 		bl	__test_assert
 3873              	.LVL167:
 3874 0152 0446     		mov	r4, r0
 3875 0154 30B1     		cbz	r0, .L85
 3876              		.loc 1 497 5 is_stmt 1 view .LVU1007
 3877              	.LBB1164:
 3878              	.LBI1164:
 3879              		.loc 6 584 20 view .LVU1008
 3880              	.LBE1164:
 3881              		.loc 6 586 3 view .LVU1009
 3882              	.LBB1173:
 3883              	.LBB1165:
 3884              	.LBI1165:
 3885              		.loc 7 421 20 view .LVU1010
 3886              	.LBB1166:
 3887              		.loc 7 423 23 view .LVU1011
 3888              		.loc 7 424 34 view .LVU1012
 3889              		.loc 7 430 3 view .LVU1013
ARM GAS  /tmp/ccMmeZ0f.s 			page 70


 3890              		.loc 7 430 3 view .LVU1014
 3891              		.loc 7 430 3 view .LVU1015
 3892              		.loc 7 434 3 view .LVU1016
 3893              	.LBB1167:
 3894              	.LBI1167:
 3895              		.loc 8 830 27 view .LVU1017
 3896              	.LBE1167:
 3897              	.LBE1166:
 3898              	.LBE1165:
 3899              	.LBE1173:
 3900              		.loc 8 833 3 view .LVU1018
 3901              	.LVL168:
 3902              	.LBB1174:
 3903              	.LBB1172:
 3904              	.LBB1171:
 3905              	.LBB1170:
 3906              	.LBB1168:
 3907              	.LBI1168:
 3908              		.loc 5 491 27 view .LVU1019
 3909              	.LBB1169:
 3910              		.loc 5 493 3 view .LVU1020
 3911              		.syntax unified
 3912              	@ 493 "../ChibiOS/os/common/ext/ARM/CMSIS/Core/Include/cmsis_gcc.h" 1
 3913 0156 85F31188 		MSR basepri, r5
 3914              	@ 0 "" 2
 3915              	.LVL169:
 3916              		.loc 5 493 3 is_stmt 0 view .LVU1021
 3917              		.thumb
 3918              		.syntax unified
 3919              	.LBE1169:
 3920              	.LBE1168:
 3921              	.LBE1170:
 3922              	.LBE1171:
 3923              	.LBE1172:
 3924              	.LBE1174:
 3925              		.loc 1 497 5 is_stmt 1 view .LVU1022
 3926 015a 69E7     		b	.L76
 3927              	.LVL170:
 3928              	.L92:
 3929              	.LBB1175:
 3930              	.LBB1068:
 3931              	.LBB1063:
 3932              	.LBB1054:
 3933              		.loc 10 271 5 view .LVU1023
 3934 015c 03A8     		add	r0, sp, #12
 3935              	.LVL171:
 3936              		.loc 10 271 5 is_stmt 0 view .LVU1024
 3937 015e FFF7FEFF 		bl	chSemSignalI
 3938              	.LVL172:
 3939              		.loc 10 271 5 view .LVU1025
 3940 0162 BBE7     		b	.L81
 3941              	.LVL173:
 3942              	.L85:
 3943              		.loc 10 271 5 view .LVU1026
 3944              	.LBE1054:
 3945              	.LBE1063:
 3946              	.LBE1068:
ARM GAS  /tmp/ccMmeZ0f.s 			page 71


 3947              	.LBE1175:
 3948              		.loc 1 497 5 is_stmt 1 view .LVU1027
 3949              	.LBB1176:
 3950              	.LBI1176:
 3951              		.loc 6 584 20 view .LVU1028
 3952              	.LBE1176:
 3953              		.loc 6 586 3 view .LVU1029
 3954              	.LBB1185:
 3955              	.LBB1177:
 3956              	.LBI1177:
 3957              		.loc 7 421 20 view .LVU1030
 3958              	.LBB1178:
 3959              		.loc 7 423 23 view .LVU1031
 3960              		.loc 7 424 34 view .LVU1032
 3961              		.loc 7 430 3 view .LVU1033
 3962              		.loc 7 430 3 view .LVU1034
 3963              		.loc 7 430 3 view .LVU1035
 3964              		.loc 7 434 3 view .LVU1036
 3965              	.LBB1179:
 3966              	.LBI1179:
 3967              		.loc 8 830 27 view .LVU1037
 3968              	.LBE1179:
 3969              	.LBE1178:
 3970              	.LBE1177:
 3971              	.LBE1185:
 3972              		.loc 8 833 3 view .LVU1038
 3973              	.LBB1186:
 3974              	.LBB1184:
 3975              	.LBB1183:
 3976              	.LBB1182:
 3977              	.LBB1180:
 3978              	.LBI1180:
 3979              		.loc 5 491 27 view .LVU1039
 3980              	.LBB1181:
 3981              		.loc 5 493 3 view .LVU1040
 3982              		.syntax unified
 3983              	@ 493 "../ChibiOS/os/common/ext/ARM/CMSIS/Core/Include/cmsis_gcc.h" 1
 3984 0164 80F31188 		MSR basepri, r0
 3985              	@ 0 "" 2
 3986              	.LVL174:
 3987              		.loc 5 493 3 is_stmt 0 view .LVU1041
 3988              		.thumb
 3989              		.syntax unified
 3990              	.LBE1181:
 3991              	.LBE1180:
 3992              	.LBE1182:
 3993              	.LBE1183:
 3994              	.LBE1184:
 3995              	.LBE1186:
 3996              		.loc 1 497 63 is_stmt 1 view .LVU1042
 3997              		.loc 1 498 5 view .LVU1043
 3998              	.LBB1187:
 3999              	.LBI1187:
 4000              		.loc 6 573 20 view .LVU1044
 4001              	.LBE1187:
 4002              		.loc 6 575 3 view .LVU1045
 4003              	.LBB1195:
ARM GAS  /tmp/ccMmeZ0f.s 			page 72


 4004              	.LBB1188:
 4005              	.LBI1188:
 4006              		.loc 7 407 20 view .LVU1046
 4007              	.LBE1188:
 4008              	.LBE1195:
 4009              		.loc 7 409 3 view .LVU1047
 4010              	.LBB1196:
 4011              	.LBB1193:
 4012              	.LBB1189:
 4013              	.LBI1189:
 4014              		.loc 8 806 27 view .LVU1048
 4015              	.LBE1189:
 4016              	.LBE1193:
 4017              	.LBE1196:
 4018              		.loc 8 814 3 view .LVU1049
 4019              	.LBB1197:
 4020              	.LBB1194:
 4021              	.LBB1192:
 4022              	.LBB1190:
 4023              	.LBI1190:
 4024              		.loc 5 491 27 view .LVU1050
 4025              	.LBB1191:
 4026              		.loc 5 493 3 view .LVU1051
 4027              		.syntax unified
 4028              	@ 493 "../ChibiOS/os/common/ext/ARM/CMSIS/Core/Include/cmsis_gcc.h" 1
 4029 0168 86F31188 		MSR basepri, r6
 4030              	@ 0 "" 2
 4031              	.LVL175:
 4032              		.loc 5 493 3 is_stmt 0 view .LVU1052
 4033              		.thumb
 4034              		.syntax unified
 4035              	.LBE1191:
 4036              	.LBE1190:
 4037              	.LBE1192:
 4038              	.LBE1194:
 4039              	.LBE1197:
 4040              		.loc 7 410 35 is_stmt 1 view .LVU1053
 4041              		.loc 7 411 21 view .LVU1054
 4042              		.loc 1 498 5 view .LVU1055
 4043              	.LBB1198:
 4044              	.LBI1198:
 4045              		.loc 2 189 21 view .LVU1056
 4046              	.LBB1199:
 4047              		.loc 2 191 21 view .LVU1057
 4048              		.loc 2 193 3 view .LVU1058
 4049              		.loc 2 193 3 is_stmt 0 view .LVU1059
 4050              	.LBE1199:
 4051              	.LBE1198:
 4052              		.loc 1 498 5 view .LVU1060
 4053 016c 0598     		ldr	r0, [sp, #20]
 4054 016e 1049     		ldr	r1, .L94+32
 4055 0170 A0F10100 		sub	r0, #1
 4056 0174 B0FA80F0 		clz	r0, r0
 4057 0178 4009     		lsrs	r0, r0, #5
 4058 017a FFF7FEFF 		bl	__test_assert
 4059              	.LVL176:
 4060 017e 0028     		cmp	r0, #0
ARM GAS  /tmp/ccMmeZ0f.s 			page 73


 4061 0180 97D1     		bne	.L91
 4062              		.loc 1 498 5 is_stmt 1 view .LVU1061
 4063              	.LBB1200:
 4064              	.LBI1200:
 4065              		.loc 6 584 20 view .LVU1062
 4066              	.LBE1200:
 4067              		.loc 6 586 3 view .LVU1063
 4068              	.LBB1209:
 4069              	.LBB1201:
 4070              	.LBI1201:
 4071              		.loc 7 421 20 view .LVU1064
 4072              	.LBB1202:
 4073              		.loc 7 423 23 view .LVU1065
 4074              		.loc 7 424 34 view .LVU1066
 4075              		.loc 7 430 3 view .LVU1067
 4076              		.loc 7 430 3 view .LVU1068
 4077              		.loc 7 430 3 view .LVU1069
 4078              		.loc 7 434 3 view .LVU1070
 4079              	.LBB1203:
 4080              	.LBI1203:
 4081              		.loc 8 830 27 view .LVU1071
 4082              	.LBE1203:
 4083              	.LBE1202:
 4084              	.LBE1201:
 4085              	.LBE1209:
 4086              		.loc 8 833 3 view .LVU1072
 4087              	.LVL177:
 4088              	.LBB1210:
 4089              	.LBB1208:
 4090              	.LBB1207:
 4091              	.LBB1206:
 4092              	.LBB1204:
 4093              	.LBI1204:
 4094              		.loc 5 491 27 view .LVU1073
 4095              	.LBB1205:
 4096              		.loc 5 493 3 view .LVU1074
 4097              		.syntax unified
 4098              	@ 493 "../ChibiOS/os/common/ext/ARM/CMSIS/Core/Include/cmsis_gcc.h" 1
 4099 0182 80F31188 		MSR basepri, r0
 4100              	@ 0 "" 2
 4101              	.LVL178:
 4102              		.loc 5 493 3 is_stmt 0 view .LVU1075
 4103              		.thumb
 4104              		.syntax unified
 4105              	.LBE1205:
 4106              	.LBE1204:
 4107              	.LBE1206:
 4108              	.LBE1207:
 4109              	.LBE1208:
 4110              	.LBE1210:
 4111              		.loc 1 498 77 is_stmt 1 view .LVU1076
 4112              		.loc 1 500 3 view .LVU1077
 4113              		.loc 1 500 19 view .LVU1078
 4114 0186 53E7     		b	.L76
 4115              	.LVL179:
 4116              	.L93:
 4117              	.LBB1211:
ARM GAS  /tmp/ccMmeZ0f.s 			page 74


 4118              	.LBB1146:
 4119              	.LBB1141:
 4120              	.LBB1132:
 4121              		.loc 10 271 5 view .LVU1079
 4122 0188 03A8     		add	r0, sp, #12
 4123              	.LVL180:
 4124              		.loc 10 271 5 is_stmt 0 view .LVU1080
 4125 018a FFF7FEFF 		bl	chSemSignalI
 4126              	.LVL181:
 4127              		.loc 10 271 5 view .LVU1081
 4128 018e D0E7     		b	.L84
 4129              	.L95:
 4130              		.align	2
 4131              	.L94:
 4132 0190 00000000 		.word	chtest
 4133 0194 00000000 		.word	.LC14
 4134 0198 00000000 		.word	ch0
 4135 019c 00000000 		.word	wa
 4136 01a0 00000000 		.word	thread4
 4137 01a4 00000000 		.word	threads
 4138 01a8 0C000000 		.word	.LC15
 4139 01ac 20000000 		.word	.LC16
 4140 01b0 2C000000 		.word	.LC17
 4141 01b4 40000000 		.word	.LC18
 4142              	.LBE1132:
 4143              	.LBE1141:
 4144              	.LBE1146:
 4145              	.LBE1211:
 4146              		.cfi_endproc
 4147              	.LFE421:
 4148              		.size	rt_test_007_006_execute, .-rt_test_007_006_execute
 4149              		.global	rt_test_sequence_007
 4150              		.section	.rodata.str1.4,"aMS",%progbits,1
 4151              		.align	2
 4152              	.LC19:
 4153 0000 436F756E 		.ascii	"Counter Semaphores\000"
 4153      74657220 
 4153      53656D61 
 4153      70686F72 
 4153      657300
 4154              		.global	rt_test_sequence_007_array
 4155 0013 00       		.align	2
 4156              	.LC20:
 4157 0014 54657374 		.ascii	"Testing Binary Semaphores special case\000"
 4157      696E6720 
 4157      42696E61 
 4157      72792053 
 4157      656D6170 
 4158 003b 00       		.align	2
 4159              	.LC21:
 4160 003c 54657374 		.ascii	"Testing chSemWaitSignal() functionality\000"
 4160      696E6720 
 4160      63685365 
 4160      6D576169 
 4160      74536967 
 4161              		.align	2
 4162              	.LC22:
ARM GAS  /tmp/ccMmeZ0f.s 			page 75


 4163 0064 54657374 		.ascii	"Testing chSemAddCounterI() functionality\000"
 4163      696E6720 
 4163      63685365 
 4163      6D416464 
 4163      436F756E 
 4164 008d 000000   		.align	2
 4165              	.LC23:
 4166 0090 53656D61 		.ascii	"Semaphore timeout test\000"
 4166      70686F72 
 4166      65207469 
 4166      6D656F75 
 4166      74207465 
 4167 00a7 00       		.align	2
 4168              	.LC24:
 4169 00a8 53656D61 		.ascii	"Semaphore enqueuing test\000"
 4169      70686F72 
 4169      6520656E 
 4169      71756575 
 4169      696E6720 
 4170 00c1 000000   		.align	2
 4171              	.LC25:
 4172 00c4 53656D61 		.ascii	"Semaphore primitives, no state change\000"
 4172      70686F72 
 4172      65207072 
 4172      696D6974 
 4172      69766573 
 4173              		.section	.bss.sem1,"aw",%nobits
 4174              		.align	2
 4175              		.set	.LANCHOR0,. + 0
 4176              		.type	sem1, %object
 4177              		.size	sem1, 12
 4178              	sem1:
 4179 0000 00000000 		.space	12
 4179      00000000 
 4179      00000000 
 4180              		.section	.rodata.rt_test_007_001,"a"
 4181              		.align	2
 4182              		.type	rt_test_007_001, %object
 4183              		.size	rt_test_007_001, 16
 4184              	rt_test_007_001:
 4185 0000 C4000000 		.word	.LC25
 4186 0004 00000000 		.word	rt_test_007_001_setup
 4187 0008 00000000 		.word	rt_test_007_001_teardown
 4188 000c 00000000 		.word	rt_test_007_001_execute
 4189              		.section	.rodata.rt_test_007_002,"a"
 4190              		.align	2
 4191              		.type	rt_test_007_002, %object
 4192              		.size	rt_test_007_002, 16
 4193              	rt_test_007_002:
 4194 0000 A8000000 		.word	.LC24
 4195 0004 00000000 		.word	rt_test_007_002_setup
 4196 0008 00000000 		.word	0
 4197 000c 00000000 		.word	rt_test_007_002_execute
 4198              		.section	.rodata.rt_test_007_003,"a"
 4199              		.align	2
 4200              		.type	rt_test_007_003, %object
 4201              		.size	rt_test_007_003, 16
ARM GAS  /tmp/ccMmeZ0f.s 			page 76


 4202              	rt_test_007_003:
 4203 0000 90000000 		.word	.LC23
 4204 0004 00000000 		.word	rt_test_007_003_setup
 4205 0008 00000000 		.word	0
 4206 000c 00000000 		.word	rt_test_007_003_execute
 4207              		.section	.rodata.rt_test_007_004,"a"
 4208              		.align	2
 4209              		.type	rt_test_007_004, %object
 4210              		.size	rt_test_007_004, 16
 4211              	rt_test_007_004:
 4212 0000 64000000 		.word	.LC22
 4213 0004 00000000 		.word	rt_test_007_004_setup
 4214 0008 00000000 		.word	0
 4215 000c 00000000 		.word	rt_test_007_004_execute
 4216              		.section	.rodata.rt_test_007_005,"a"
 4217              		.align	2
 4218              		.type	rt_test_007_005, %object
 4219              		.size	rt_test_007_005, 16
 4220              	rt_test_007_005:
 4221 0000 3C000000 		.word	.LC21
 4222 0004 00000000 		.word	rt_test_007_005_setup
 4223 0008 00000000 		.word	rt_test_007_005_teardown
 4224 000c 00000000 		.word	rt_test_007_005_execute
 4225              		.section	.rodata.rt_test_007_006,"a"
 4226              		.align	2
 4227              		.type	rt_test_007_006, %object
 4228              		.size	rt_test_007_006, 16
 4229              	rt_test_007_006:
 4230 0000 14000000 		.word	.LC20
 4231 0004 00000000 		.word	0
 4232 0008 00000000 		.word	rt_test_007_006_teardown
 4233 000c 00000000 		.word	rt_test_007_006_execute
 4234              		.section	.rodata.rt_test_sequence_007,"a"
 4235              		.align	2
 4236              		.type	rt_test_sequence_007, %object
 4237              		.size	rt_test_sequence_007, 8
 4238              	rt_test_sequence_007:
 4239 0000 00000000 		.word	.LC19
 4240 0004 00000000 		.word	rt_test_sequence_007_array
 4241              		.section	.rodata.rt_test_sequence_007_array,"a"
 4242              		.align	2
 4243              		.type	rt_test_sequence_007_array, %object
 4244              		.size	rt_test_sequence_007_array, 28
 4245              	rt_test_sequence_007_array:
 4246 0000 00000000 		.word	rt_test_007_001
 4247 0004 00000000 		.word	rt_test_007_002
 4248 0008 00000000 		.word	rt_test_007_003
 4249 000c 00000000 		.word	rt_test_007_004
 4250 0010 00000000 		.word	rt_test_007_005
 4251 0014 00000000 		.word	rt_test_007_006
 4252 0018 00000000 		.word	0
 4253              		.text
 4254              	.Letext0:
 4255              		.file 11 "/opt/gcc-arm-none-eabi/gcc-arm-none-eabi-10.3-2021.07/lib/gcc/arm-none-eabi/10.3.1/inclu
 4256              		.file 12 "/opt/gcc-arm-none-eabi/gcc-arm-none-eabi-10.3-2021.07/arm-none-eabi/include/machine/_def
 4257              		.file 13 "/opt/gcc-arm-none-eabi/gcc-arm-none-eabi-10.3-2021.07/arm-none-eabi/include/sys/_stdint.
 4258              		.file 14 "../ChibiOS/os/common/ports/ARM-common/chtypes.h"
ARM GAS  /tmp/ccMmeZ0f.s 			page 77


 4259              		.file 15 "../ChibiOS/os/rt/include/chearly.h"
 4260              		.file 16 "../ChibiOS/os/rt/include/chobjects.h"
 4261              		.file 17 "../ChibiOS/os/rt/include/chrfcu.h"
 4262              		.file 18 "../ChibiOS/os/rt/include/chdebug.h"
 4263              		.file 19 "../ChibiOS/os/rt/include/chmtx.h"
 4264              		.file 20 "../ChibiOS/os/hal/include/hal_streams.h"
 4265              		.file 21 "../ChibiOS/os/test/include/ch_test.h"
 4266              		.file 22 "../ChibiOS/test/rt/source/test/rt_test_sequence_007.h"
 4267              		.file 23 "../ChibiOS/test/rt/source/test/rt_test_root.h"
 4268              		.file 24 "../ChibiOS/os/rt/include/chschd.h"
 4269              		.section	.debug_info,"",%progbits
 4270              	.Ldebug_info0:
 4271 0000 512D0000 		.4byte	0x2d51
 4272 0004 0400     		.2byte	0x4
 4273 0006 00000000 		.4byte	.Ldebug_abbrev0
 4274 000a 04       		.byte	0x4
 4275 000b 01       		.uleb128 0x1
 4276 000c DC090000 		.4byte	.LASF205
 4277 0010 0C       		.byte	0xc
 4278 0011 BA070000 		.4byte	.LASF206
 4279 0015 CF080000 		.4byte	.LASF207
 4280 0019 C8090000 		.4byte	.Ldebug_ranges0+0x9c8
 4281 001d 00000000 		.4byte	0
 4282 0021 00000000 		.4byte	.Ldebug_line0
 4283 0025 02       		.uleb128 0x2
 4284 0026 04       		.byte	0x4
 4285 0027 05       		.byte	0x5
 4286 0028 696E7400 		.ascii	"int\000"
 4287 002c 03       		.uleb128 0x3
 4288 002d 4A000000 		.4byte	.LASF4
 4289 0031 0B       		.byte	0xb
 4290 0032 D1       		.byte	0xd1
 4291 0033 17       		.byte	0x17
 4292 0034 38000000 		.4byte	0x38
 4293 0038 04       		.uleb128 0x4
 4294 0039 04       		.byte	0x4
 4295 003a 07       		.byte	0x7
 4296 003b CA030000 		.4byte	.LASF0
 4297 003f 04       		.uleb128 0x4
 4298 0040 08       		.byte	0x8
 4299 0041 05       		.byte	0x5
 4300 0042 91010000 		.4byte	.LASF1
 4301 0046 04       		.uleb128 0x4
 4302 0047 08       		.byte	0x8
 4303 0048 04       		.byte	0x4
 4304 0049 8C050000 		.4byte	.LASF2
 4305 004d 04       		.uleb128 0x4
 4306 004e 01       		.byte	0x1
 4307 004f 06       		.byte	0x6
 4308 0050 9F010000 		.4byte	.LASF3
 4309 0054 03       		.uleb128 0x3
 4310 0055 76000000 		.4byte	.LASF5
 4311 0059 0C       		.byte	0xc
 4312 005a 2B       		.byte	0x2b
 4313 005b 18       		.byte	0x18
 4314 005c 60000000 		.4byte	0x60
 4315 0060 04       		.uleb128 0x4
ARM GAS  /tmp/ccMmeZ0f.s 			page 78


 4316 0061 01       		.byte	0x1
 4317 0062 08       		.byte	0x8
 4318 0063 B6060000 		.4byte	.LASF6
 4319 0067 04       		.uleb128 0x4
 4320 0068 02       		.byte	0x2
 4321 0069 05       		.byte	0x5
 4322 006a D6040000 		.4byte	.LASF7
 4323 006e 04       		.uleb128 0x4
 4324 006f 02       		.byte	0x2
 4325 0070 07       		.byte	0x7
 4326 0071 24040000 		.4byte	.LASF8
 4327 0075 03       		.uleb128 0x3
 4328 0076 1B080000 		.4byte	.LASF9
 4329 007a 0C       		.byte	0xc
 4330 007b 4D       		.byte	0x4d
 4331 007c 18       		.byte	0x18
 4332 007d 81000000 		.4byte	0x81
 4333 0081 04       		.uleb128 0x4
 4334 0082 04       		.byte	0x4
 4335 0083 05       		.byte	0x5
 4336 0084 6E020000 		.4byte	.LASF10
 4337 0088 03       		.uleb128 0x3
 4338 0089 30030000 		.4byte	.LASF11
 4339 008d 0C       		.byte	0xc
 4340 008e 4F       		.byte	0x4f
 4341 008f 19       		.byte	0x19
 4342 0090 94000000 		.4byte	0x94
 4343 0094 04       		.uleb128 0x4
 4344 0095 04       		.byte	0x4
 4345 0096 07       		.byte	0x7
 4346 0097 9C070000 		.4byte	.LASF12
 4347 009b 03       		.uleb128 0x3
 4348 009c 4B060000 		.4byte	.LASF13
 4349 00a0 0C       		.byte	0xc
 4350 00a1 69       		.byte	0x69
 4351 00a2 19       		.byte	0x19
 4352 00a3 A7000000 		.4byte	0xa7
 4353 00a7 04       		.uleb128 0x4
 4354 00a8 08       		.byte	0x8
 4355 00a9 07       		.byte	0x7
 4356 00aa F0010000 		.4byte	.LASF14
 4357 00ae 03       		.uleb128 0x3
 4358 00af 56090000 		.4byte	.LASF15
 4359 00b3 0D       		.byte	0xd
 4360 00b4 18       		.byte	0x18
 4361 00b5 13       		.byte	0x13
 4362 00b6 54000000 		.4byte	0x54
 4363 00ba 05       		.uleb128 0x5
 4364 00bb AE000000 		.4byte	0xae
 4365 00bf 03       		.uleb128 0x3
 4366 00c0 AE060000 		.4byte	.LASF16
 4367 00c4 0D       		.byte	0xd
 4368 00c5 2C       		.byte	0x2c
 4369 00c6 13       		.byte	0x13
 4370 00c7 75000000 		.4byte	0x75
 4371 00cb 03       		.uleb128 0x3
 4372 00cc 76070000 		.4byte	.LASF17
ARM GAS  /tmp/ccMmeZ0f.s 			page 79


 4373 00d0 0D       		.byte	0xd
 4374 00d1 30       		.byte	0x30
 4375 00d2 14       		.byte	0x14
 4376 00d3 88000000 		.4byte	0x88
 4377 00d7 03       		.uleb128 0x3
 4378 00d8 6D000000 		.4byte	.LASF18
 4379 00dc 0D       		.byte	0xd
 4380 00dd 3C       		.byte	0x3c
 4381 00de 14       		.byte	0x14
 4382 00df 9B000000 		.4byte	0x9b
 4383 00e3 06       		.uleb128 0x6
 4384 00e4 D7000000 		.4byte	0xd7
 4385 00e8 03       		.uleb128 0x3
 4386 00e9 86070000 		.4byte	.LASF19
 4387 00ed 0E       		.byte	0xe
 4388 00ee 48       		.byte	0x48
 4389 00ef 1D       		.byte	0x1d
 4390 00f0 D7000000 		.4byte	0xd7
 4391 00f4 03       		.uleb128 0x3
 4392 00f5 F6040000 		.4byte	.LASF20
 4393 00f9 0F       		.byte	0xf
 4394 00fa 50       		.byte	0x50
 4395 00fb 19       		.byte	0x19
 4396 00fc E8000000 		.4byte	0xe8
 4397 0100 03       		.uleb128 0x3
 4398 0101 8C040000 		.4byte	.LASF21
 4399 0105 0F       		.byte	0xf
 4400 0106 53       		.byte	0x53
 4401 0107 19       		.byte	0x19
 4402 0108 AE000000 		.4byte	0xae
 4403 010c 03       		.uleb128 0x3
 4404 010d B6020000 		.4byte	.LASF22
 4405 0111 0F       		.byte	0xf
 4406 0112 54       		.byte	0x54
 4407 0113 19       		.byte	0x19
 4408 0114 AE000000 		.4byte	0xae
 4409 0118 03       		.uleb128 0x3
 4410 0119 78060000 		.4byte	.LASF23
 4411 011d 0F       		.byte	0xf
 4412 011e 55       		.byte	0x55
 4413 011f 19       		.byte	0x19
 4414 0120 AE000000 		.4byte	0xae
 4415 0124 03       		.uleb128 0x3
 4416 0125 90060000 		.4byte	.LASF24
 4417 0129 0F       		.byte	0xf
 4418 012a 57       		.byte	0x57
 4419 012b 19       		.byte	0x19
 4420 012c CB000000 		.4byte	0xcb
 4421 0130 03       		.uleb128 0x3
 4422 0131 50040000 		.4byte	.LASF25
 4423 0135 0F       		.byte	0xf
 4424 0136 58       		.byte	0x58
 4425 0137 19       		.byte	0x19
 4426 0138 BF000000 		.4byte	0xbf
 4427 013c 03       		.uleb128 0x3
 4428 013d CA040000 		.4byte	.LASF26
 4429 0141 0F       		.byte	0xf
ARM GAS  /tmp/ccMmeZ0f.s 			page 80


 4430 0142 5A       		.byte	0x5a
 4431 0143 19       		.byte	0x19
 4432 0144 CB000000 		.4byte	0xcb
 4433 0148 03       		.uleb128 0x3
 4434 0149 BB030000 		.4byte	.LASF27
 4435 014d 0F       		.byte	0xf
 4436 014e 5C       		.byte	0x5c
 4437 014f 19       		.byte	0x19
 4438 0150 BF000000 		.4byte	0xbf
 4439 0154 03       		.uleb128 0x3
 4440 0155 6E060000 		.4byte	.LASF28
 4441 0159 0F       		.byte	0xf
 4442 015a 80       		.byte	0x80
 4443 015b 12       		.byte	0x12
 4444 015c 38000000 		.4byte	0x38
 4445 0160 03       		.uleb128 0x3
 4446 0161 02080000 		.4byte	.LASF29
 4447 0165 0F       		.byte	0xf
 4448 0166 85       		.byte	0x85
 4449 0167 1A       		.byte	0x1a
 4450 0168 6C010000 		.4byte	0x16c
 4451 016c 07       		.uleb128 0x7
 4452 016d 41040000 		.4byte	.LASF44
 4453 0171 48       		.byte	0x48
 4454 0172 10       		.byte	0x10
 4455 0173 9C       		.byte	0x9c
 4456 0174 08       		.byte	0x8
 4457 0175 4F020000 		.4byte	0x24f
 4458 0179 08       		.uleb128 0x8
 4459 017a 68647200 		.ascii	"hdr\000"
 4460 017e 10       		.byte	0x10
 4461 017f AD       		.byte	0xad
 4462 0180 05       		.byte	0x5
 4463 0181 92050000 		.4byte	0x592
 4464 0185 00       		.byte	0
 4465 0186 08       		.uleb128 0x8
 4466 0187 63747800 		.ascii	"ctx\000"
 4467 018b 10       		.byte	0x10
 4468 018c B1       		.byte	0xb1
 4469 018d 21       		.byte	0x21
 4470 018e EF040000 		.4byte	0x4ef
 4471 0192 0C       		.byte	0xc
 4472 0193 09       		.uleb128 0x9
 4473 0194 F5030000 		.4byte	.LASF30
 4474 0198 10       		.byte	0x10
 4475 0199 B6       		.byte	0xb6
 4476 019a 21       		.byte	0x21
 4477 019b 9C030000 		.4byte	0x39c
 4478 019f 10       		.byte	0x10
 4479 01a0 09       		.uleb128 0x9
 4480 01a1 96070000 		.4byte	.LASF31
 4481 01a5 10       		.byte	0x10
 4482 01a6 BB       		.byte	0xbb
 4483 01a7 22       		.byte	0x22
 4484 01a8 9F060000 		.4byte	0x69f
 4485 01ac 18       		.byte	0x18
 4486 01ad 09       		.uleb128 0x9
ARM GAS  /tmp/ccMmeZ0f.s 			page 81


 4487 01ae 13040000 		.4byte	.LASF32
 4488 01b2 10       		.byte	0x10
 4489 01b3 C0       		.byte	0xc0
 4490 01b4 22       		.byte	0x22
 4491 01b5 28030000 		.4byte	0x328
 4492 01b9 1C       		.byte	0x1c
 4493 01ba 09       		.uleb128 0x9
 4494 01bb AE070000 		.4byte	.LASF33
 4495 01bf 10       		.byte	0x10
 4496 01c0 C9       		.byte	0xc9
 4497 01c1 22       		.byte	0x22
 4498 01c2 A5060000 		.4byte	0x6a5
 4499 01c6 20       		.byte	0x20
 4500 01c7 09       		.uleb128 0x9
 4501 01c8 68020000 		.4byte	.LASF34
 4502 01cc 10       		.byte	0x10
 4503 01cd CE       		.byte	0xce
 4504 01ce 21       		.byte	0x21
 4505 01cf 0C010000 		.4byte	0x10c
 4506 01d3 24       		.byte	0x24
 4507 01d4 09       		.uleb128 0x9
 4508 01d5 5E090000 		.4byte	.LASF35
 4509 01d9 10       		.byte	0x10
 4510 01da D2       		.byte	0xd2
 4511 01db 21       		.byte	0x21
 4512 01dc 00010000 		.4byte	0x100
 4513 01e0 25       		.byte	0x25
 4514 01e1 09       		.uleb128 0x9
 4515 01e2 7E010000 		.4byte	.LASF36
 4516 01e6 10       		.byte	0x10
 4517 01e7 D7       		.byte	0xd7
 4518 01e8 21       		.byte	0x21
 4519 01e9 18010000 		.4byte	0x118
 4520 01ed 26       		.byte	0x26
 4521 01ee 0A       		.uleb128 0xa
 4522 01ef 7500     		.ascii	"u\000"
 4523 01f1 10       		.byte	0x10
 4524 01f2 2801     		.2byte	0x128
 4525 01f4 21       		.byte	0x21
 4526 01f5 C0050000 		.4byte	0x5c0
 4527 01f9 28       		.byte	0x28
 4528 01fa 0B       		.uleb128 0xb
 4529 01fb 0F070000 		.4byte	.LASF37
 4530 01ff 10       		.byte	0x10
 4531 0200 2D01     		.2byte	0x12d
 4532 0202 21       		.byte	0x21
 4533 0203 6F030000 		.4byte	0x36f
 4534 0207 2C       		.byte	0x2c
 4535 0208 0B       		.uleb128 0xb
 4536 0209 C1030000 		.4byte	.LASF38
 4537 020d 10       		.byte	0x10
 4538 020e 3301     		.2byte	0x133
 4539 0210 21       		.byte	0x21
 4540 0211 9C030000 		.4byte	0x39c
 4541 0215 30       		.byte	0x30
 4542 0216 0B       		.uleb128 0xb
 4543 0217 56040000 		.4byte	.LASF39
ARM GAS  /tmp/ccMmeZ0f.s 			page 82


 4544 021b 10       		.byte	0x10
 4545 021c 3901     		.2byte	0x139
 4546 021e 21       		.byte	0x21
 4547 021f 3C010000 		.4byte	0x13c
 4548 0223 38       		.byte	0x38
 4549 0224 0B       		.uleb128 0xb
 4550 0225 88060000 		.4byte	.LASF40
 4551 0229 10       		.byte	0x10
 4552 022a 4001     		.2byte	0x140
 4553 022c 22       		.byte	0x22
 4554 022d 99060000 		.4byte	0x699
 4555 0231 3C       		.byte	0x3c
 4556 0232 0B       		.uleb128 0xb
 4557 0233 3E050000 		.4byte	.LASF41
 4558 0237 10       		.byte	0x10
 4559 0238 4401     		.2byte	0x144
 4560 023a 21       		.byte	0x21
 4561 023b 24010000 		.4byte	0x124
 4562 023f 40       		.byte	0x40
 4563 0240 0B       		.uleb128 0xb
 4564 0241 1E040000 		.4byte	.LASF42
 4565 0245 10       		.byte	0x10
 4566 0246 4B01     		.2byte	0x14b
 4567 0248 22       		.byte	0x22
 4568 0249 11050000 		.4byte	0x511
 4569 024d 44       		.byte	0x44
 4570 024e 00       		.byte	0
 4571 024f 03       		.uleb128 0x3
 4572 0250 6E080000 		.4byte	.LASF43
 4573 0254 0F       		.byte	0xf
 4574 0255 8A       		.byte	0x8a
 4575 0256 1F       		.byte	0x1f
 4576 0257 5B020000 		.4byte	0x25b
 4577 025b 0C       		.uleb128 0xc
 4578 025c 5F080000 		.4byte	.LASF45
 4579 0260 88       		.byte	0x88
 4580 0261 10       		.byte	0x10
 4581 0262 8A01     		.2byte	0x18a
 4582 0264 08       		.byte	0x8
 4583 0265 DA020000 		.4byte	0x2da
 4584 0269 0B       		.uleb128 0xb
 4585 026a 42090000 		.4byte	.LASF46
 4586 026e 10       		.byte	0x10
 4587 026f 8E01     		.2byte	0x18e
 4588 0271 21       		.byte	0x21
 4589 0272 D6060000 		.4byte	0x6d6
 4590 0276 00       		.byte	0
 4591 0277 0B       		.uleb128 0xb
 4592 0278 1F020000 		.4byte	.LASF47
 4593 027c 10       		.byte	0x10
 4594 027d 9201     		.2byte	0x192
 4595 027f 21       		.byte	0x21
 4596 0280 4D050000 		.4byte	0x54d
 4597 0284 10       		.byte	0x10
 4598 0285 0B       		.uleb128 0xb
 4599 0286 8D080000 		.4byte	.LASF48
 4600 028a 10       		.byte	0x10
ARM GAS  /tmp/ccMmeZ0f.s 			page 83


 4601 028b 9901     		.2byte	0x199
 4602 028d 21       		.byte	0x21
 4603 028e 74050000 		.4byte	0x574
 4604 0292 28       		.byte	0x28
 4605 0293 0B       		.uleb128 0xb
 4606 0294 A0000000 		.4byte	.LASF49
 4607 0298 10       		.byte	0x10
 4608 0299 9E01     		.2byte	0x19e
 4609 029b 21       		.byte	0x21
 4610 029c 54010000 		.4byte	0x154
 4611 02a0 30       		.byte	0x30
 4612 02a1 0B       		.uleb128 0xb
 4613 02a2 38000000 		.4byte	.LASF50
 4614 02a6 10       		.byte	0x10
 4615 02a7 A401     		.2byte	0x1a4
 4616 02a9 21       		.byte	0x21
 4617 02aa 01030000 		.4byte	0x301
 4618 02ae 34       		.byte	0x34
 4619 02af 0B       		.uleb128 0xb
 4620 02b0 F0070000 		.4byte	.LASF51
 4621 02b4 10       		.byte	0x10
 4622 02b5 A901     		.2byte	0x1a9
 4623 02b7 22       		.byte	0x22
 4624 02b8 4A070000 		.4byte	0x74a
 4625 02bc 38       		.byte	0x38
 4626 02bd 0B       		.uleb128 0xb
 4627 02be 20010000 		.4byte	.LASF52
 4628 02c2 10       		.byte	0x10
 4629 02c3 AD01     		.2byte	0x1ad
 4630 02c5 21       		.byte	0x21
 4631 02c6 60010000 		.4byte	0x160
 4632 02ca 3C       		.byte	0x3c
 4633 02cb 0A       		.uleb128 0xa
 4634 02cc 64626700 		.ascii	"dbg\000"
 4635 02d0 10       		.byte	0x10
 4636 02d1 B101     		.2byte	0x1b1
 4637 02d3 21       		.byte	0x21
 4638 02d4 3F030000 		.4byte	0x33f
 4639 02d8 84       		.byte	0x84
 4640 02d9 00       		.byte	0
 4641 02da 03       		.uleb128 0x3
 4642 02db 47050000 		.4byte	.LASF53
 4643 02df 11       		.byte	0x11
 4644 02e0 3F       		.byte	0x3f
 4645 02e1 12       		.byte	0x12
 4646 02e2 CB000000 		.4byte	0xcb
 4647 02e6 07       		.uleb128 0x7
 4648 02e7 BF020000 		.4byte	.LASF54
 4649 02eb 04       		.byte	0x4
 4650 02ec 11       		.byte	0x11
 4651 02ed 44       		.byte	0x44
 4652 02ee 10       		.byte	0x10
 4653 02ef 01030000 		.4byte	0x301
 4654 02f3 09       		.uleb128 0x9
 4655 02f4 3B030000 		.4byte	.LASF55
 4656 02f8 11       		.byte	0x11
 4657 02f9 48       		.byte	0x48
ARM GAS  /tmp/ccMmeZ0f.s 			page 84


 4658 02fa 21       		.byte	0x21
 4659 02fb DA020000 		.4byte	0x2da
 4660 02ff 00       		.byte	0
 4661 0300 00       		.byte	0
 4662 0301 03       		.uleb128 0x3
 4663 0302 D3060000 		.4byte	.LASF56
 4664 0306 11       		.byte	0x11
 4665 0307 49       		.byte	0x49
 4666 0308 03       		.byte	0x3
 4667 0309 E6020000 		.4byte	0x2e6
 4668 030d 07       		.uleb128 0x7
 4669 030e 98060000 		.4byte	.LASF57
 4670 0312 04       		.byte	0x4
 4671 0313 12       		.byte	0x12
 4672 0314 3E       		.byte	0x3e
 4673 0315 10       		.byte	0x10
 4674 0316 28030000 		.4byte	0x328
 4675 031a 09       		.uleb128 0x9
 4676 031b 4E080000 		.4byte	.LASF58
 4677 031f 12       		.byte	0x12
 4678 0320 46       		.byte	0x46
 4679 0321 24       		.byte	0x24
 4680 0322 2E030000 		.4byte	0x32e
 4681 0326 00       		.byte	0
 4682 0327 00       		.byte	0
 4683 0328 0D       		.uleb128 0xd
 4684 0329 04       		.byte	0x4
 4685 032a 3A030000 		.4byte	0x33a
 4686 032e 06       		.uleb128 0x6
 4687 032f 28030000 		.4byte	0x328
 4688 0333 04       		.uleb128 0x4
 4689 0334 01       		.byte	0x1
 4690 0335 08       		.byte	0x8
 4691 0336 B5070000 		.4byte	.LASF59
 4692 033a 05       		.uleb128 0x5
 4693 033b 33030000 		.4byte	0x333
 4694 033f 03       		.uleb128 0x3
 4695 0340 91000000 		.4byte	.LASF60
 4696 0344 12       		.byte	0x12
 4697 0345 51       		.byte	0x51
 4698 0346 03       		.byte	0x3
 4699 0347 0D030000 		.4byte	0x30d
 4700 034b 03       		.uleb128 0x3
 4701 034c 11080000 		.4byte	.LASF61
 4702 0350 09       		.byte	0x9
 4703 0351 6D       		.byte	0x6d
 4704 0352 12       		.byte	0x12
 4705 0353 CB000000 		.4byte	0xcb
 4706 0357 03       		.uleb128 0x3
 4707 0358 9D030000 		.4byte	.LASF62
 4708 035c 09       		.byte	0x9
 4709 035d 79       		.byte	0x79
 4710 035e 12       		.byte	0x12
 4711 035f CB000000 		.4byte	0xcb
 4712 0363 03       		.uleb128 0x3
 4713 0364 07040000 		.4byte	.LASF63
 4714 0368 09       		.byte	0x9
ARM GAS  /tmp/ccMmeZ0f.s 			page 85


 4715 0369 9B       		.byte	0x9b
 4716 036a 12       		.byte	0x12
 4717 036b D7000000 		.4byte	0xd7
 4718 036f 03       		.uleb128 0x3
 4719 0370 37040000 		.4byte	.LASF64
 4720 0374 04       		.byte	0x4
 4721 0375 32       		.byte	0x32
 4722 0376 18       		.byte	0x18
 4723 0377 7B030000 		.4byte	0x37b
 4724 037b 07       		.uleb128 0x7
 4725 037c B4040000 		.4byte	.LASF65
 4726 0380 04       		.byte	0x4
 4727 0381 04       		.byte	0x4
 4728 0382 38       		.byte	0x38
 4729 0383 08       		.byte	0x8
 4730 0384 96030000 		.4byte	0x396
 4731 0388 09       		.uleb128 0x9
 4732 0389 70010000 		.4byte	.LASF66
 4733 038d 04       		.byte	0x4
 4734 038e 39       		.byte	0x39
 4735 038f 1A       		.byte	0x1a
 4736 0390 96030000 		.4byte	0x396
 4737 0394 00       		.byte	0
 4738 0395 00       		.byte	0
 4739 0396 0D       		.uleb128 0xd
 4740 0397 04       		.byte	0x4
 4741 0398 6F030000 		.4byte	0x36f
 4742 039c 03       		.uleb128 0x3
 4743 039d FC030000 		.4byte	.LASF67
 4744 03a1 04       		.byte	0x4
 4745 03a2 3F       		.byte	0x3f
 4746 03a3 19       		.byte	0x19
 4747 03a4 AD030000 		.4byte	0x3ad
 4748 03a8 05       		.uleb128 0x5
 4749 03a9 9C030000 		.4byte	0x39c
 4750 03ad 07       		.uleb128 0x7
 4751 03ae C7020000 		.4byte	.LASF68
 4752 03b2 08       		.byte	0x8
 4753 03b3 04       		.byte	0x4
 4754 03b4 45       		.byte	0x45
 4755 03b5 08       		.byte	0x8
 4756 03b6 D5030000 		.4byte	0x3d5
 4757 03ba 09       		.uleb128 0x9
 4758 03bb 70010000 		.4byte	.LASF66
 4759 03bf 04       		.byte	0x4
 4760 03c0 46       		.byte	0x46
 4761 03c1 1A       		.byte	0x1a
 4762 03c2 D5030000 		.4byte	0x3d5
 4763 03c6 00       		.byte	0
 4764 03c7 09       		.uleb128 0x9
 4765 03c8 80000000 		.4byte	.LASF69
 4766 03cc 04       		.byte	0x4
 4767 03cd 47       		.byte	0x47
 4768 03ce 1A       		.byte	0x1a
 4769 03cf D5030000 		.4byte	0x3d5
 4770 03d3 04       		.byte	0x4
 4771 03d4 00       		.byte	0
ARM GAS  /tmp/ccMmeZ0f.s 			page 86


 4772 03d5 0D       		.uleb128 0xd
 4773 03d6 04       		.byte	0x4
 4774 03d7 9C030000 		.4byte	0x39c
 4775 03db 03       		.uleb128 0x3
 4776 03dc AF000000 		.4byte	.LASF70
 4777 03e0 04       		.byte	0x4
 4778 03e1 4E       		.byte	0x4e
 4779 03e2 22       		.byte	0x22
 4780 03e3 E7030000 		.4byte	0x3e7
 4781 03e7 07       		.uleb128 0x7
 4782 03e8 BD080000 		.4byte	.LASF71
 4783 03ec 0C       		.byte	0xc
 4784 03ed 04       		.byte	0x4
 4785 03ee 55       		.byte	0x55
 4786 03ef 08       		.byte	0x8
 4787 03f0 1C040000 		.4byte	0x41c
 4788 03f4 09       		.uleb128 0x9
 4789 03f5 70010000 		.4byte	.LASF66
 4790 03f9 04       		.byte	0x4
 4791 03fa 56       		.byte	0x56
 4792 03fb 1A       		.byte	0x1a
 4793 03fc 1C040000 		.4byte	0x41c
 4794 0400 00       		.byte	0
 4795 0401 09       		.uleb128 0x9
 4796 0402 80000000 		.4byte	.LASF69
 4797 0406 04       		.byte	0x4
 4798 0407 57       		.byte	0x57
 4799 0408 1A       		.byte	0x1a
 4800 0409 1C040000 		.4byte	0x41c
 4801 040d 04       		.byte	0x4
 4802 040e 09       		.uleb128 0x9
 4803 040f 12060000 		.4byte	.LASF72
 4804 0413 04       		.byte	0x4
 4805 0414 58       		.byte	0x58
 4806 0415 19       		.byte	0x19
 4807 0416 24010000 		.4byte	0x124
 4808 041a 08       		.byte	0x8
 4809 041b 00       		.byte	0
 4810 041c 0D       		.uleb128 0xd
 4811 041d 04       		.byte	0x4
 4812 041e DB030000 		.4byte	0x3db
 4813 0422 03       		.uleb128 0x3
 4814 0423 DF020000 		.4byte	.LASF73
 4815 0427 04       		.byte	0x4
 4816 0428 5F       		.byte	0x5f
 4817 0429 1E       		.byte	0x1e
 4818 042a 2E040000 		.4byte	0x42e
 4819 042e 07       		.uleb128 0x7
 4820 042f E2010000 		.4byte	.LASF74
 4821 0433 0C       		.byte	0xc
 4822 0434 04       		.byte	0x4
 4823 0435 64       		.byte	0x64
 4824 0436 08       		.byte	0x8
 4825 0437 63040000 		.4byte	0x463
 4826 043b 09       		.uleb128 0x9
 4827 043c 70010000 		.4byte	.LASF66
 4828 0440 04       		.byte	0x4
ARM GAS  /tmp/ccMmeZ0f.s 			page 87


 4829 0441 65       		.byte	0x65
 4830 0442 1A       		.byte	0x1a
 4831 0443 63040000 		.4byte	0x463
 4832 0447 00       		.byte	0
 4833 0448 09       		.uleb128 0x9
 4834 0449 80000000 		.4byte	.LASF69
 4835 044d 04       		.byte	0x4
 4836 044e 66       		.byte	0x66
 4837 044f 1A       		.byte	0x1a
 4838 0450 63040000 		.4byte	0x463
 4839 0454 04       		.byte	0x4
 4840 0455 09       		.uleb128 0x9
 4841 0456 51000000 		.4byte	.LASF75
 4842 045a 04       		.byte	0x4
 4843 045b 67       		.byte	0x67
 4844 045c 19       		.byte	0x19
 4845 045d 57030000 		.4byte	0x357
 4846 0461 08       		.byte	0x8
 4847 0462 00       		.byte	0
 4848 0463 0D       		.uleb128 0xd
 4849 0464 04       		.byte	0x4
 4850 0465 22040000 		.4byte	0x422
 4851 0469 0C       		.uleb128 0xc
 4852 046a 85000000 		.4byte	.LASF76
 4853 046e 24       		.byte	0x24
 4854 046f 08       		.byte	0x8
 4855 0470 E001     		.2byte	0x1e0
 4856 0472 08       		.byte	0x8
 4857 0473 EF040000 		.4byte	0x4ef
 4858 0477 0A       		.uleb128 0xa
 4859 0478 723400   		.ascii	"r4\000"
 4860 047b 08       		.byte	0x8
 4861 047c F901     		.2byte	0x1f9
 4862 047e 11       		.byte	0x11
 4863 047f CB000000 		.4byte	0xcb
 4864 0483 00       		.byte	0
 4865 0484 0A       		.uleb128 0xa
 4866 0485 723500   		.ascii	"r5\000"
 4867 0488 08       		.byte	0x8
 4868 0489 FA01     		.2byte	0x1fa
 4869 048b 11       		.byte	0x11
 4870 048c CB000000 		.4byte	0xcb
 4871 0490 04       		.byte	0x4
 4872 0491 0A       		.uleb128 0xa
 4873 0492 723600   		.ascii	"r6\000"
 4874 0495 08       		.byte	0x8
 4875 0496 FB01     		.2byte	0x1fb
 4876 0498 11       		.byte	0x11
 4877 0499 CB000000 		.4byte	0xcb
 4878 049d 08       		.byte	0x8
 4879 049e 0A       		.uleb128 0xa
 4880 049f 723700   		.ascii	"r7\000"
 4881 04a2 08       		.byte	0x8
 4882 04a3 FC01     		.2byte	0x1fc
 4883 04a5 11       		.byte	0x11
 4884 04a6 CB000000 		.4byte	0xcb
 4885 04aa 0C       		.byte	0xc
ARM GAS  /tmp/ccMmeZ0f.s 			page 88


 4886 04ab 0A       		.uleb128 0xa
 4887 04ac 723800   		.ascii	"r8\000"
 4888 04af 08       		.byte	0x8
 4889 04b0 FD01     		.2byte	0x1fd
 4890 04b2 11       		.byte	0x11
 4891 04b3 CB000000 		.4byte	0xcb
 4892 04b7 10       		.byte	0x10
 4893 04b8 0A       		.uleb128 0xa
 4894 04b9 723900   		.ascii	"r9\000"
 4895 04bc 08       		.byte	0x8
 4896 04bd FE01     		.2byte	0x1fe
 4897 04bf 11       		.byte	0x11
 4898 04c0 CB000000 		.4byte	0xcb
 4899 04c4 14       		.byte	0x14
 4900 04c5 0A       		.uleb128 0xa
 4901 04c6 72313000 		.ascii	"r10\000"
 4902 04ca 08       		.byte	0x8
 4903 04cb FF01     		.2byte	0x1ff
 4904 04cd 11       		.byte	0x11
 4905 04ce CB000000 		.4byte	0xcb
 4906 04d2 18       		.byte	0x18
 4907 04d3 0A       		.uleb128 0xa
 4908 04d4 72313100 		.ascii	"r11\000"
 4909 04d8 08       		.byte	0x8
 4910 04d9 0002     		.2byte	0x200
 4911 04db 11       		.byte	0x11
 4912 04dc CB000000 		.4byte	0xcb
 4913 04e0 1C       		.byte	0x1c
 4914 04e1 0A       		.uleb128 0xa
 4915 04e2 6C7200   		.ascii	"lr\000"
 4916 04e5 08       		.byte	0x8
 4917 04e6 0102     		.2byte	0x201
 4918 04e8 11       		.byte	0x11
 4919 04e9 CB000000 		.4byte	0xcb
 4920 04ed 20       		.byte	0x20
 4921 04ee 00       		.byte	0
 4922 04ef 0C       		.uleb128 0xc
 4923 04f0 ED050000 		.4byte	.LASF77
 4924 04f4 04       		.byte	0x4
 4925 04f5 08       		.byte	0x8
 4926 04f6 0A02     		.2byte	0x20a
 4927 04f8 08       		.byte	0x8
 4928 04f9 0B050000 		.4byte	0x50b
 4929 04fd 0A       		.uleb128 0xa
 4930 04fe 737000   		.ascii	"sp\000"
 4931 0501 08       		.byte	0x8
 4932 0502 0B02     		.2byte	0x20b
 4933 0504 1A       		.byte	0x1a
 4934 0505 0B050000 		.4byte	0x50b
 4935 0509 00       		.byte	0
 4936 050a 00       		.byte	0
 4937 050b 0D       		.uleb128 0xd
 4938 050c 04       		.byte	0x4
 4939 050d 69040000 		.4byte	0x469
 4940 0511 0E       		.uleb128 0xe
 4941 0512 04       		.byte	0x4
 4942 0513 05       		.uleb128 0x5
ARM GAS  /tmp/ccMmeZ0f.s 			page 89


 4943 0514 11050000 		.4byte	0x511
 4944 0518 07       		.uleb128 0x7
 4945 0519 75050000 		.4byte	.LASF78
 4946 051d 18       		.byte	0x18
 4947 051e 10       		.byte	0x10
 4948 051f 64       		.byte	0x64
 4949 0520 10       		.byte	0x10
 4950 0521 4D050000 		.4byte	0x54d
 4951 0525 09       		.uleb128 0x9
 4952 0526 0B080000 		.4byte	.LASF79
 4953 052a 10       		.byte	0x10
 4954 052b 68       		.byte	0x68
 4955 052c 21       		.byte	0x21
 4956 052d 22040000 		.4byte	0x422
 4957 0531 00       		.byte	0
 4958 0532 09       		.uleb128 0x9
 4959 0533 E8060000 		.4byte	.LASF80
 4960 0537 10       		.byte	0x10
 4961 0538 73       		.byte	0x73
 4962 0539 21       		.byte	0x21
 4963 053a 4B030000 		.4byte	0x34b
 4964 053e 0C       		.byte	0xc
 4965 053f 09       		.uleb128 0x9
 4966 0540 2E050000 		.4byte	.LASF81
 4967 0544 10       		.byte	0x10
 4968 0545 79       		.byte	0x79
 4969 0546 21       		.byte	0x21
 4970 0547 E3000000 		.4byte	0xe3
 4971 054b 10       		.byte	0x10
 4972 054c 00       		.byte	0
 4973 054d 03       		.uleb128 0x3
 4974 054e E0040000 		.4byte	.LASF82
 4975 0552 10       		.byte	0x10
 4976 0553 7B       		.byte	0x7b
 4977 0554 03       		.byte	0x3
 4978 0555 18050000 		.4byte	0x518
 4979 0559 07       		.uleb128 0x7
 4980 055a F4020000 		.4byte	.LASF83
 4981 055e 08       		.byte	0x8
 4982 055f 10       		.byte	0x10
 4983 0560 80       		.byte	0x80
 4984 0561 10       		.byte	0x10
 4985 0562 74050000 		.4byte	0x574
 4986 0566 09       		.uleb128 0x9
 4987 0567 18040000 		.4byte	.LASF84
 4988 056b 10       		.byte	0x10
 4989 056c 84       		.byte	0x84
 4990 056d 21       		.byte	0x21
 4991 056e 9C030000 		.4byte	0x39c
 4992 0572 00       		.byte	0
 4993 0573 00       		.byte	0
 4994 0574 03       		.uleb128 0x3
 4995 0575 6B070000 		.4byte	.LASF85
 4996 0579 10       		.byte	0x10
 4997 057a 85       		.byte	0x85
 4998 057b 03       		.byte	0x3
 4999 057c 59050000 		.4byte	0x559
ARM GAS  /tmp/ccMmeZ0f.s 			page 90


 5000 0580 03       		.uleb128 0x3
 5001 0581 62050000 		.4byte	.LASF86
 5002 0585 10       		.byte	0x10
 5003 0586 8A       		.byte	0x8a
 5004 0587 14       		.byte	0x14
 5005 0588 8C050000 		.4byte	0x58c
 5006 058c 0D       		.uleb128 0xd
 5007 058d 04       		.byte	0x4
 5008 058e 60010000 		.4byte	0x160
 5009 0592 0F       		.uleb128 0xf
 5010 0593 0C       		.byte	0xc
 5011 0594 10       		.byte	0x10
 5012 0595 A0       		.byte	0xa0
 5013 0596 03       		.byte	0x3
 5014 0597 C0050000 		.4byte	0x5c0
 5015 059b 10       		.uleb128 0x10
 5016 059c B30A0000 		.4byte	.LASF87
 5017 05a0 10       		.byte	0x10
 5018 05a1 A4       		.byte	0xa4
 5019 05a2 21       		.byte	0x21
 5020 05a3 6F030000 		.4byte	0x36f
 5021 05a7 10       		.uleb128 0x10
 5022 05a8 18040000 		.4byte	.LASF84
 5023 05ac 10       		.byte	0x10
 5024 05ad A8       		.byte	0xa8
 5025 05ae 21       		.byte	0x21
 5026 05af 9C030000 		.4byte	0x39c
 5027 05b3 10       		.uleb128 0x10
 5028 05b4 58080000 		.4byte	.LASF88
 5029 05b8 10       		.byte	0x10
 5030 05b9 AC       		.byte	0xac
 5031 05ba 21       		.byte	0x21
 5032 05bb DB030000 		.4byte	0x3db
 5033 05bf 00       		.byte	0
 5034 05c0 0F       		.uleb128 0xf
 5035 05c1 04       		.byte	0x4
 5036 05c2 10       		.byte	0x10
 5037 05c3 EB       		.byte	0xeb
 5038 05c4 03       		.byte	0x3
 5039 05c5 30060000 		.4byte	0x630
 5040 05c9 10       		.uleb128 0x10
 5041 05ca 57070000 		.4byte	.LASF89
 5042 05ce 10       		.byte	0x10
 5043 05cf F2       		.byte	0xf2
 5044 05d0 21       		.byte	0x21
 5045 05d1 30010000 		.4byte	0x130
 5046 05d5 10       		.uleb128 0x10
 5047 05d6 17010000 		.4byte	.LASF90
 5048 05da 10       		.byte	0x10
 5049 05db F9       		.byte	0xf9
 5050 05dc 21       		.byte	0x21
 5051 05dd 30010000 		.4byte	0x130
 5052 05e1 11       		.uleb128 0x11
 5053 05e2 C4090000 		.4byte	.LASF91
 5054 05e6 10       		.byte	0x10
 5055 05e7 0001     		.2byte	0x100
 5056 05e9 22       		.byte	0x22
ARM GAS  /tmp/ccMmeZ0f.s 			page 91


 5057 05ea 11050000 		.4byte	0x511
 5058 05ee 11       		.uleb128 0x11
 5059 05ef EF030000 		.4byte	.LASF92
 5060 05f3 10       		.byte	0x10
 5061 05f4 0701     		.2byte	0x107
 5062 05f6 22       		.byte	0x22
 5063 05f7 30060000 		.4byte	0x630
 5064 05fb 11       		.uleb128 0x11
 5065 05fc 2B010000 		.4byte	.LASF93
 5066 0600 10       		.byte	0x10
 5067 0601 0C01     		.2byte	0x10c
 5068 0603 21       		.byte	0x21
 5069 0604 30010000 		.4byte	0x130
 5070 0608 11       		.uleb128 0x11
 5071 0609 E8030000 		.4byte	.LASF94
 5072 060d 10       		.byte	0x10
 5073 060e 1501     		.2byte	0x115
 5074 0610 22       		.byte	0x22
 5075 0611 5E060000 		.4byte	0x65e
 5076 0615 11       		.uleb128 0x11
 5077 0616 7F070000 		.4byte	.LASF95
 5078 061a 10       		.byte	0x10
 5079 061b 1E01     		.2byte	0x11e
 5080 061d 22       		.byte	0x22
 5081 061e 99060000 		.4byte	0x699
 5082 0622 11       		.uleb128 0x11
 5083 0623 17070000 		.4byte	.LASF96
 5084 0627 10       		.byte	0x10
 5085 0628 2601     		.2byte	0x126
 5086 062a 21       		.byte	0x21
 5087 062b 3C010000 		.4byte	0x13c
 5088 062f 00       		.byte	0
 5089 0630 0D       		.uleb128 0xd
 5090 0631 04       		.byte	0x4
 5091 0632 80050000 		.4byte	0x580
 5092 0636 07       		.uleb128 0x7
 5093 0637 5E070000 		.4byte	.LASF97
 5094 063b 0C       		.byte	0xc
 5095 063c 02       		.byte	0x2
 5096 063d 34       		.byte	0x34
 5097 063e 10       		.byte	0x10
 5098 063f 5E060000 		.4byte	0x65e
 5099 0643 09       		.uleb128 0x9
 5100 0644 18040000 		.4byte	.LASF84
 5101 0648 02       		.byte	0x2
 5102 0649 35       		.byte	0x35
 5103 064a 19       		.byte	0x19
 5104 064b 9C030000 		.4byte	0x39c
 5105 064f 00       		.byte	0
 5106 0650 08       		.uleb128 0x8
 5107 0651 636E7400 		.ascii	"cnt\000"
 5108 0655 02       		.byte	0x2
 5109 0656 37       		.byte	0x37
 5110 0657 19       		.byte	0x19
 5111 0658 48010000 		.4byte	0x148
 5112 065c 08       		.byte	0x8
 5113 065d 00       		.byte	0
ARM GAS  /tmp/ccMmeZ0f.s 			page 92


 5114 065e 0D       		.uleb128 0xd
 5115 065f 04       		.byte	0x4
 5116 0660 36060000 		.4byte	0x636
 5117 0664 07       		.uleb128 0x7
 5118 0665 39090000 		.4byte	.LASF98
 5119 0669 10       		.byte	0x10
 5120 066a 13       		.byte	0x13
 5121 066b 39       		.byte	0x39
 5122 066c 08       		.byte	0x8
 5123 066d 99060000 		.4byte	0x699
 5124 0671 09       		.uleb128 0x9
 5125 0672 18040000 		.4byte	.LASF84
 5126 0676 13       		.byte	0x13
 5127 0677 3A       		.byte	0x3a
 5128 0678 19       		.byte	0x19
 5129 0679 9C030000 		.4byte	0x39c
 5130 067d 00       		.byte	0
 5131 067e 09       		.uleb128 0x9
 5132 067f 96070000 		.4byte	.LASF31
 5133 0683 13       		.byte	0x13
 5134 0684 3C       		.byte	0x3c
 5135 0685 1A       		.byte	0x1a
 5136 0686 8C050000 		.4byte	0x58c
 5137 068a 08       		.byte	0x8
 5138 068b 09       		.uleb128 0x9
 5139 068c 70010000 		.4byte	.LASF66
 5140 0690 13       		.byte	0x13
 5141 0691 3E       		.byte	0x3e
 5142 0692 1A       		.byte	0x1a
 5143 0693 7A070000 		.4byte	0x77a
 5144 0697 0C       		.byte	0xc
 5145 0698 00       		.byte	0
 5146 0699 0D       		.uleb128 0xd
 5147 069a 04       		.byte	0x4
 5148 069b 64060000 		.4byte	0x664
 5149 069f 0D       		.uleb128 0xd
 5150 06a0 04       		.byte	0x4
 5151 06a1 4F020000 		.4byte	0x24f
 5152 06a5 0D       		.uleb128 0xd
 5153 06a6 04       		.byte	0x4
 5154 06a7 F4000000 		.4byte	0xf4
 5155 06ab 0C       		.uleb128 0xc
 5156 06ac BC040000 		.4byte	.LASF99
 5157 06b0 10       		.byte	0x10
 5158 06b1 10       		.byte	0x10
 5159 06b2 5C01     		.2byte	0x15c
 5160 06b4 10       		.byte	0x10
 5161 06b5 D6060000 		.4byte	0x6d6
 5162 06b9 0B       		.uleb128 0xb
 5163 06ba 58080000 		.4byte	.LASF88
 5164 06be 10       		.byte	0x10
 5165 06bf 6101     		.2byte	0x161
 5166 06c1 21       		.byte	0x21
 5167 06c2 DB030000 		.4byte	0x3db
 5168 06c6 00       		.byte	0
 5169 06c7 0B       		.uleb128 0xb
 5170 06c8 2D060000 		.4byte	.LASF100
ARM GAS  /tmp/ccMmeZ0f.s 			page 93


 5171 06cc 10       		.byte	0x10
 5172 06cd 6501     		.2byte	0x165
 5173 06cf 22       		.byte	0x22
 5174 06d0 8C050000 		.4byte	0x58c
 5175 06d4 0C       		.byte	0xc
 5176 06d5 00       		.byte	0
 5177 06d6 12       		.uleb128 0x12
 5178 06d7 2B000000 		.4byte	.LASF101
 5179 06db 10       		.byte	0x10
 5180 06dc 6601     		.2byte	0x166
 5181 06de 03       		.byte	0x3
 5182 06df AB060000 		.4byte	0x6ab
 5183 06e3 0C       		.uleb128 0xc
 5184 06e4 D7050000 		.4byte	.LASF102
 5185 06e8 14       		.byte	0x14
 5186 06e9 10       		.byte	0x10
 5187 06ea 6B01     		.2byte	0x16b
 5188 06ec 10       		.byte	0x10
 5189 06ed 38070000 		.4byte	0x738
 5190 06f1 0B       		.uleb128 0xb
 5191 06f2 13040000 		.4byte	.LASF32
 5192 06f6 10       		.byte	0x10
 5193 06f7 6F01     		.2byte	0x16f
 5194 06f9 22       		.byte	0x22
 5195 06fa 28030000 		.4byte	0x328
 5196 06fe 00       		.byte	0
 5197 06ff 0B       		.uleb128 0xb
 5198 0700 65030000 		.4byte	.LASF103
 5199 0704 10       		.byte	0x10
 5200 0705 7501     		.2byte	0x175
 5201 0707 22       		.byte	0x22
 5202 0708 A5060000 		.4byte	0x6a5
 5203 070c 04       		.byte	0x4
 5204 070d 0B       		.uleb128 0xb
 5205 070e FE080000 		.4byte	.LASF104
 5206 0712 10       		.byte	0x10
 5207 0713 7901     		.2byte	0x179
 5208 0715 22       		.byte	0x22
 5209 0716 A5060000 		.4byte	0x6a5
 5210 071a 08       		.byte	0x8
 5211 071b 0B       		.uleb128 0xb
 5212 071c 1E050000 		.4byte	.LASF105
 5213 0720 10       		.byte	0x10
 5214 0721 7F01     		.2byte	0x17f
 5215 0723 22       		.byte	0x22
 5216 0724 A5060000 		.4byte	0x6a5
 5217 0728 0C       		.byte	0xc
 5218 0729 0B       		.uleb128 0xb
 5219 072a C20A0000 		.4byte	.LASF106
 5220 072e 10       		.byte	0x10
 5221 072f 8301     		.2byte	0x183
 5222 0731 22       		.byte	0x22
 5223 0732 A5060000 		.4byte	0x6a5
 5224 0736 10       		.byte	0x10
 5225 0737 00       		.byte	0
 5226 0738 12       		.uleb128 0x12
 5227 0739 19090000 		.4byte	.LASF107
ARM GAS  /tmp/ccMmeZ0f.s 			page 94


 5228 073d 10       		.byte	0x10
 5229 073e 8501     		.2byte	0x185
 5230 0740 03       		.byte	0x3
 5231 0741 E3060000 		.4byte	0x6e3
 5232 0745 05       		.uleb128 0x5
 5233 0746 38070000 		.4byte	0x738
 5234 074a 0D       		.uleb128 0xd
 5235 074b 04       		.byte	0x4
 5236 074c 45070000 		.4byte	0x745
 5237 0750 13       		.uleb128 0x13
 5238 0751 63683000 		.ascii	"ch0\000"
 5239 0755 07       		.byte	0x7
 5240 0756 4101     		.2byte	0x141
 5241 0758 16       		.byte	0x16
 5242 0759 4F020000 		.4byte	0x24f
 5243 075d 03       		.uleb128 0x3
 5244 075e 0B010000 		.4byte	.LASF108
 5245 0762 02       		.byte	0x2
 5246 0763 38       		.byte	0x38
 5247 0764 03       		.byte	0x3
 5248 0765 36060000 		.4byte	0x636
 5249 0769 05       		.uleb128 0x5
 5250 076a 5D070000 		.4byte	0x75d
 5251 076e 03       		.uleb128 0x3
 5252 076f 75030000 		.4byte	.LASF109
 5253 0773 13       		.byte	0x13
 5254 0774 34       		.byte	0x34
 5255 0775 19       		.byte	0x19
 5256 0776 64060000 		.4byte	0x664
 5257 077a 0D       		.uleb128 0xd
 5258 077b 04       		.byte	0x4
 5259 077c 6E070000 		.4byte	0x76e
 5260 0780 07       		.uleb128 0x7
 5261 0781 44010000 		.4byte	.LASF110
 5262 0785 0C       		.byte	0xc
 5263 0786 0A       		.byte	0xa
 5264 0787 4B       		.byte	0x4b
 5265 0788 10       		.byte	0x10
 5266 0789 9B070000 		.4byte	0x79b
 5267 078d 08       		.uleb128 0x8
 5268 078e 73656D00 		.ascii	"sem\000"
 5269 0792 0A       		.byte	0xa
 5270 0793 4C       		.byte	0x4c
 5271 0794 19       		.byte	0x19
 5272 0795 5D070000 		.4byte	0x75d
 5273 0799 00       		.byte	0
 5274 079a 00       		.byte	0
 5275 079b 03       		.uleb128 0x3
 5276 079c 5B060000 		.4byte	.LASF111
 5277 07a0 0A       		.byte	0xa
 5278 07a1 4D       		.byte	0x4d
 5279 07a2 03       		.byte	0x3
 5280 07a3 80070000 		.4byte	0x780
 5281 07a7 05       		.uleb128 0x5
 5282 07a8 9B070000 		.4byte	0x79b
 5283 07ac 04       		.uleb128 0x4
 5284 07ad 01       		.byte	0x1
ARM GAS  /tmp/ccMmeZ0f.s 			page 95


 5285 07ae 02       		.byte	0x2
 5286 07af A8060000 		.4byte	.LASF112
 5287 07b3 0D       		.uleb128 0xd
 5288 07b4 04       		.byte	0x4
 5289 07b5 AE000000 		.4byte	0xae
 5290 07b9 07       		.uleb128 0x7
 5291 07ba 1E070000 		.4byte	.LASF113
 5292 07be 14       		.byte	0x14
 5293 07bf 14       		.byte	0x14
 5294 07c0 48       		.byte	0x48
 5295 07c1 08       		.byte	0x8
 5296 07c2 08080000 		.4byte	0x808
 5297 07c6 09       		.uleb128 0x9
 5298 07c7 00000000 		.4byte	.LASF114
 5299 07cb 14       		.byte	0x14
 5300 07cc 49       		.byte	0x49
 5301 07cd 03       		.byte	0x3
 5302 07ce 2C000000 		.4byte	0x2c
 5303 07d2 00       		.byte	0
 5304 07d3 09       		.uleb128 0x9
 5305 07d4 38050000 		.4byte	.LASF115
 5306 07d8 14       		.byte	0x14
 5307 07d9 49       		.byte	0x49
 5308 07da 03       		.byte	0x3
 5309 07db 2C080000 		.4byte	0x82c
 5310 07df 04       		.byte	0x4
 5311 07e0 09       		.uleb128 0x9
 5312 07e1 56060000 		.4byte	.LASF116
 5313 07e5 14       		.byte	0x14
 5314 07e6 49       		.byte	0x49
 5315 07e7 03       		.byte	0x3
 5316 07e8 4B080000 		.4byte	0x84b
 5317 07ec 08       		.byte	0x8
 5318 07ed 08       		.uleb128 0x8
 5319 07ee 70757400 		.ascii	"put\000"
 5320 07f2 14       		.byte	0x14
 5321 07f3 49       		.byte	0x49
 5322 07f4 03       		.byte	0x3
 5323 07f5 65080000 		.4byte	0x865
 5324 07f9 0C       		.byte	0xc
 5325 07fa 08       		.uleb128 0x8
 5326 07fb 67657400 		.ascii	"get\000"
 5327 07ff 14       		.byte	0x14
 5328 0800 49       		.byte	0x49
 5329 0801 03       		.byte	0x3
 5330 0802 7A080000 		.4byte	0x87a
 5331 0806 10       		.byte	0x10
 5332 0807 00       		.byte	0
 5333 0808 05       		.uleb128 0x5
 5334 0809 B9070000 		.4byte	0x7b9
 5335 080d 14       		.uleb128 0x14
 5336 080e 2C000000 		.4byte	0x2c
 5337 0812 26080000 		.4byte	0x826
 5338 0816 15       		.uleb128 0x15
 5339 0817 11050000 		.4byte	0x511
 5340 081b 15       		.uleb128 0x15
 5341 081c 26080000 		.4byte	0x826
ARM GAS  /tmp/ccMmeZ0f.s 			page 96


 5342 0820 15       		.uleb128 0x15
 5343 0821 2C000000 		.4byte	0x2c
 5344 0825 00       		.byte	0
 5345 0826 0D       		.uleb128 0xd
 5346 0827 04       		.byte	0x4
 5347 0828 BA000000 		.4byte	0xba
 5348 082c 0D       		.uleb128 0xd
 5349 082d 04       		.byte	0x4
 5350 082e 0D080000 		.4byte	0x80d
 5351 0832 14       		.uleb128 0x14
 5352 0833 2C000000 		.4byte	0x2c
 5353 0837 4B080000 		.4byte	0x84b
 5354 083b 15       		.uleb128 0x15
 5355 083c 11050000 		.4byte	0x511
 5356 0840 15       		.uleb128 0x15
 5357 0841 B3070000 		.4byte	0x7b3
 5358 0845 15       		.uleb128 0x15
 5359 0846 2C000000 		.4byte	0x2c
 5360 084a 00       		.byte	0
 5361 084b 0D       		.uleb128 0xd
 5362 084c 04       		.byte	0x4
 5363 084d 32080000 		.4byte	0x832
 5364 0851 14       		.uleb128 0x14
 5365 0852 30010000 		.4byte	0x130
 5366 0856 65080000 		.4byte	0x865
 5367 085a 15       		.uleb128 0x15
 5368 085b 11050000 		.4byte	0x511
 5369 085f 15       		.uleb128 0x15
 5370 0860 AE000000 		.4byte	0xae
 5371 0864 00       		.byte	0
 5372 0865 0D       		.uleb128 0xd
 5373 0866 04       		.byte	0x4
 5374 0867 51080000 		.4byte	0x851
 5375 086b 14       		.uleb128 0x14
 5376 086c 30010000 		.4byte	0x130
 5377 0870 7A080000 		.4byte	0x87a
 5378 0874 15       		.uleb128 0x15
 5379 0875 11050000 		.4byte	0x511
 5380 0879 00       		.byte	0
 5381 087a 0D       		.uleb128 0xd
 5382 087b 04       		.byte	0x4
 5383 087c 6B080000 		.4byte	0x86b
 5384 0880 16       		.uleb128 0x16
 5385 0881 04       		.byte	0x4
 5386 0882 14       		.byte	0x14
 5387 0883 53       		.byte	0x53
 5388 0884 09       		.byte	0x9
 5389 0885 97080000 		.4byte	0x897
 5390 0889 08       		.uleb128 0x8
 5391 088a 766D7400 		.ascii	"vmt\000"
 5392 088e 14       		.byte	0x14
 5393 088f 55       		.byte	0x55
 5394 0890 29       		.byte	0x29
 5395 0891 97080000 		.4byte	0x897
 5396 0895 00       		.byte	0
 5397 0896 00       		.byte	0
 5398 0897 0D       		.uleb128 0xd
ARM GAS  /tmp/ccMmeZ0f.s 			page 97


 5399 0898 04       		.byte	0x4
 5400 0899 08080000 		.4byte	0x808
 5401 089d 03       		.uleb128 0x3
 5402 089e 88030000 		.4byte	.LASF117
 5403 08a2 14       		.byte	0x14
 5404 08a3 57       		.byte	0x57
 5405 08a4 03       		.byte	0x3
 5406 08a5 80080000 		.4byte	0x880
 5407 08a9 03       		.uleb128 0x3
 5408 08aa 53050000 		.4byte	.LASF118
 5409 08ae 15       		.byte	0x15
 5410 08af 7D       		.byte	0x7d
 5411 08b0 0F       		.byte	0xf
 5412 08b1 B5080000 		.4byte	0x8b5
 5413 08b5 0D       		.uleb128 0xd
 5414 08b6 04       		.byte	0x4
 5415 08b7 BB080000 		.4byte	0x8bb
 5416 08bb 14       		.uleb128 0x14
 5417 08bc 25000000 		.4byte	0x25
 5418 08c0 CA080000 		.4byte	0x8ca
 5419 08c4 15       		.uleb128 0x15
 5420 08c5 25000000 		.4byte	0x25
 5421 08c9 00       		.byte	0
 5422 08ca 16       		.uleb128 0x16
 5423 08cb 28       		.byte	0x28
 5424 08cc 15       		.byte	0x15
 5425 08cd 82       		.byte	0x82
 5426 08ce 09       		.byte	0x9
 5427 08cf 3C090000 		.4byte	0x93c
 5428 08d3 09       		.uleb128 0x9
 5429 08d4 98050000 		.4byte	.LASF119
 5430 08d8 15       		.byte	0x15
 5431 08d9 86       		.byte	0x86
 5432 08da 15       		.byte	0x15
 5433 08db 38000000 		.4byte	0x38
 5434 08df 00       		.byte	0
 5435 08e0 09       		.uleb128 0x9
 5436 08e1 90020000 		.4byte	.LASF120
 5437 08e5 15       		.byte	0x15
 5438 08e6 8A       		.byte	0x8a
 5439 08e7 15       		.byte	0x15
 5440 08e8 AC070000 		.4byte	0x7ac
 5441 08ec 04       		.byte	0x4
 5442 08ed 09       		.uleb128 0x9
 5443 08ee 40060000 		.4byte	.LASF121
 5444 08f2 15       		.byte	0x15
 5445 08f3 8E       		.byte	0x8e
 5446 08f4 15       		.byte	0x15
 5447 08f5 AC070000 		.4byte	0x7ac
 5448 08f9 05       		.byte	0x5
 5449 08fa 09       		.uleb128 0x9
 5450 08fb AD080000 		.4byte	.LASF122
 5451 08ff 15       		.byte	0x15
 5452 0900 92       		.byte	0x92
 5453 0901 16       		.byte	0x16
 5454 0902 28030000 		.4byte	0x328
 5455 0906 08       		.byte	0x8
ARM GAS  /tmp/ccMmeZ0f.s 			page 98


 5456 0907 09       		.uleb128 0x9
 5457 0908 EF020000 		.4byte	.LASF123
 5458 090c 15       		.byte	0x15
 5459 090d 96       		.byte	0x96
 5460 090e 16       		.byte	0x16
 5461 090f 3C090000 		.4byte	0x93c
 5462 0913 0C       		.byte	0xc
 5463 0914 09       		.uleb128 0x9
 5464 0915 83010000 		.4byte	.LASF124
 5465 0919 15       		.byte	0x15
 5466 091a 9A       		.byte	0x9a
 5467 091b 15       		.byte	0x15
 5468 091c 42090000 		.4byte	0x942
 5469 0920 10       		.byte	0x10
 5470 0921 09       		.uleb128 0x9
 5471 0922 D0020000 		.4byte	.LASF125
 5472 0926 15       		.byte	0x15
 5473 0927 9E       		.byte	0x9e
 5474 0928 15       		.byte	0x15
 5475 0929 A9080000 		.4byte	0x8a9
 5476 092d 20       		.byte	0x20
 5477 092e 09       		.uleb128 0x9
 5478 092f A8000000 		.4byte	.LASF126
 5479 0933 15       		.byte	0x15
 5480 0934 A3       		.byte	0xa3
 5481 0935 19       		.byte	0x19
 5482 0936 52090000 		.4byte	0x952
 5483 093a 24       		.byte	0x24
 5484 093b 00       		.byte	0
 5485 093c 0D       		.uleb128 0xd
 5486 093d 04       		.byte	0x4
 5487 093e 33030000 		.4byte	0x333
 5488 0942 17       		.uleb128 0x17
 5489 0943 33030000 		.4byte	0x333
 5490 0947 52090000 		.4byte	0x952
 5491 094b 18       		.uleb128 0x18
 5492 094c 38000000 		.4byte	0x38
 5493 0950 0F       		.byte	0xf
 5494 0951 00       		.byte	0
 5495 0952 0D       		.uleb128 0xd
 5496 0953 04       		.byte	0x4
 5497 0954 9D080000 		.4byte	0x89d
 5498 0958 03       		.uleb128 0x3
 5499 0959 56020000 		.4byte	.LASF127
 5500 095d 15       		.byte	0x15
 5501 095e A5       		.byte	0xa5
 5502 095f 03       		.byte	0x3
 5503 0960 CA080000 		.4byte	0x8ca
 5504 0964 16       		.uleb128 0x16
 5505 0965 10       		.byte	0x10
 5506 0966 15       		.byte	0x15
 5507 0967 AA       		.byte	0xaa
 5508 0968 09       		.byte	0x9
 5509 0969 A2090000 		.4byte	0x9a2
 5510 096d 09       		.uleb128 0x9
 5511 096e 13040000 		.4byte	.LASF32
 5512 0972 15       		.byte	0x15
ARM GAS  /tmp/ccMmeZ0f.s 			page 99


 5513 0973 AB       		.byte	0xab
 5514 0974 0F       		.byte	0xf
 5515 0975 28030000 		.4byte	0x328
 5516 0979 00       		.byte	0
 5517 097a 09       		.uleb128 0x9
 5518 097b 0C060000 		.4byte	.LASF128
 5519 097f 15       		.byte	0x15
 5520 0980 AC       		.byte	0xac
 5521 0981 0A       		.byte	0xa
 5522 0982 A3090000 		.4byte	0x9a3
 5523 0986 04       		.byte	0x4
 5524 0987 09       		.uleb128 0x9
 5525 0988 75010000 		.4byte	.LASF129
 5526 098c 15       		.byte	0x15
 5527 098d AD       		.byte	0xad
 5528 098e 0A       		.byte	0xa
 5529 098f A3090000 		.4byte	0x9a3
 5530 0993 08       		.byte	0x8
 5531 0994 09       		.uleb128 0x9
 5532 0995 80060000 		.4byte	.LASF130
 5533 0999 15       		.byte	0x15
 5534 099a AE       		.byte	0xae
 5535 099b 0A       		.byte	0xa
 5536 099c A3090000 		.4byte	0x9a3
 5537 09a0 0C       		.byte	0xc
 5538 09a1 00       		.byte	0
 5539 09a2 19       		.uleb128 0x19
 5540 09a3 0D       		.uleb128 0xd
 5541 09a4 04       		.byte	0x4
 5542 09a5 A2090000 		.4byte	0x9a2
 5543 09a9 03       		.uleb128 0x3
 5544 09aa 01050000 		.4byte	.LASF131
 5545 09ae 15       		.byte	0x15
 5546 09af AF       		.byte	0xaf
 5547 09b0 03       		.byte	0x3
 5548 09b1 64090000 		.4byte	0x964
 5549 09b5 05       		.uleb128 0x5
 5550 09b6 A9090000 		.4byte	0x9a9
 5551 09ba 16       		.uleb128 0x16
 5552 09bb 08       		.byte	0x8
 5553 09bc 15       		.byte	0x15
 5554 09bd B4       		.byte	0xb4
 5555 09be 09       		.byte	0x9
 5556 09bf DE090000 		.4byte	0x9de
 5557 09c3 09       		.uleb128 0x9
 5558 09c4 13040000 		.4byte	.LASF32
 5559 09c8 15       		.byte	0x15
 5560 09c9 B5       		.byte	0xb5
 5561 09ca 16       		.byte	0x16
 5562 09cb 28030000 		.4byte	0x328
 5563 09cf 00       		.byte	0
 5564 09d0 09       		.uleb128 0x9
 5565 09d1 E90A0000 		.4byte	.LASF132
 5566 09d5 15       		.byte	0x15
 5567 09d6 B6       		.byte	0xb6
 5568 09d7 1E       		.byte	0x1e
 5569 09d8 DE090000 		.4byte	0x9de
ARM GAS  /tmp/ccMmeZ0f.s 			page 100


 5570 09dc 04       		.byte	0x4
 5571 09dd 00       		.byte	0
 5572 09de 0D       		.uleb128 0xd
 5573 09df 04       		.byte	0x4
 5574 09e0 EA090000 		.4byte	0x9ea
 5575 09e4 0D       		.uleb128 0xd
 5576 09e5 04       		.byte	0x4
 5577 09e6 B5090000 		.4byte	0x9b5
 5578 09ea 05       		.uleb128 0x5
 5579 09eb E4090000 		.4byte	0x9e4
 5580 09ef 03       		.uleb128 0x3
 5581 09f0 AB010000 		.4byte	.LASF133
 5582 09f4 15       		.byte	0x15
 5583 09f5 B7       		.byte	0xb7
 5584 09f6 03       		.byte	0x3
 5585 09f7 BA090000 		.4byte	0x9ba
 5586 09fb 05       		.uleb128 0x5
 5587 09fc EF090000 		.4byte	0x9ef
 5588 0a00 1A       		.uleb128 0x1a
 5589 0a01 D8020000 		.4byte	.LASF134
 5590 0a05 15       		.byte	0x15
 5591 0a06 2901     		.2byte	0x129
 5592 0a08 1A       		.byte	0x1a
 5593 0a09 58090000 		.4byte	0x958
 5594 0a0d 1B       		.uleb128 0x1b
 5595 0a0e 77040000 		.4byte	.LASF135
 5596 0a12 16       		.byte	0x16
 5597 0a13 19       		.byte	0x19
 5598 0a14 1D       		.byte	0x1d
 5599 0a15 FB090000 		.4byte	0x9fb
 5600 0a19 17       		.uleb128 0x17
 5601 0a1a 8C050000 		.4byte	0x58c
 5602 0a1e 290A0000 		.4byte	0xa29
 5603 0a22 18       		.uleb128 0x18
 5604 0a23 38000000 		.4byte	0x38
 5605 0a27 04       		.byte	0x4
 5606 0a28 00       		.byte	0
 5607 0a29 1B       		.uleb128 0x1b
 5608 0a2a 07070000 		.4byte	.LASF136
 5609 0a2e 17       		.byte	0x17
 5610 0a2f 5D       		.byte	0x5d
 5611 0a30 12       		.byte	0x12
 5612 0a31 190A0000 		.4byte	0xa19
 5613 0a35 17       		.uleb128 0x17
 5614 0a36 13050000 		.4byte	0x513
 5615 0a3a 450A0000 		.4byte	0xa45
 5616 0a3e 18       		.uleb128 0x18
 5617 0a3f 38000000 		.4byte	0x38
 5618 0a43 04       		.byte	0x4
 5619 0a44 00       		.byte	0
 5620 0a45 05       		.uleb128 0x5
 5621 0a46 350A0000 		.4byte	0xa35
 5622 0a4a 1C       		.uleb128 0x1c
 5623 0a4b 776100   		.ascii	"wa\000"
 5624 0a4e 17       		.byte	0x17
 5625 0a4f 5E       		.byte	0x5e
 5626 0a50 18       		.byte	0x18
ARM GAS  /tmp/ccMmeZ0f.s 			page 101


 5627 0a51 450A0000 		.4byte	0xa45
 5628 0a55 1D       		.uleb128 0x1d
 5629 0a56 40030000 		.4byte	.LASF137
 5630 0a5a 01       		.byte	0x1
 5631 0a5b 38       		.byte	0x38
 5632 0a5c 14       		.byte	0x14
 5633 0a5d 5D070000 		.4byte	0x75d
 5634 0a61 05       		.uleb128 0x5
 5635 0a62 03       		.byte	0x3
 5636 0a63 00000000 		.4byte	sem1
 5637 0a67 1D       		.uleb128 0x1d
 5638 0a68 64090000 		.4byte	.LASF138
 5639 0a6c 01       		.byte	0x1
 5640 0a6d 94       		.byte	0x94
 5641 0a6e 19       		.byte	0x19
 5642 0a6f B5090000 		.4byte	0x9b5
 5643 0a73 05       		.uleb128 0x5
 5644 0a74 03       		.byte	0x3
 5645 0a75 00000000 		.4byte	rt_test_007_001
 5646 0a79 1D       		.uleb128 0x1d
 5647 0a7a 74090000 		.4byte	.LASF139
 5648 0a7e 01       		.byte	0x1
 5649 0a7f D3       		.byte	0xd3
 5650 0a80 19       		.byte	0x19
 5651 0a81 B5090000 		.4byte	0x9b5
 5652 0a85 05       		.uleb128 0x5
 5653 0a86 03       		.byte	0x3
 5654 0a87 00000000 		.4byte	rt_test_007_002
 5655 0a8b 1E       		.uleb128 0x1e
 5656 0a8c 84090000 		.4byte	.LASF140
 5657 0a90 01       		.byte	0x1
 5658 0a91 1E01     		.2byte	0x11e
 5659 0a93 19       		.byte	0x19
 5660 0a94 B5090000 		.4byte	0x9b5
 5661 0a98 05       		.uleb128 0x5
 5662 0a99 03       		.byte	0x3
 5663 0a9a 00000000 		.4byte	rt_test_007_003
 5664 0a9e 1E       		.uleb128 0x1e
 5665 0a9f 94090000 		.4byte	.LASF141
 5666 0aa3 01       		.byte	0x1
 5667 0aa4 4F01     		.2byte	0x14f
 5668 0aa6 19       		.byte	0x19
 5669 0aa7 B5090000 		.4byte	0x9b5
 5670 0aab 05       		.uleb128 0x5
 5671 0aac 03       		.byte	0x3
 5672 0aad 00000000 		.4byte	rt_test_007_004
 5673 0ab1 1E       		.uleb128 0x1e
 5674 0ab2 A4090000 		.4byte	.LASF142
 5675 0ab6 01       		.byte	0x1
 5676 0ab7 9601     		.2byte	0x196
 5677 0ab9 19       		.byte	0x19
 5678 0aba B5090000 		.4byte	0x9b5
 5679 0abe 05       		.uleb128 0x5
 5680 0abf 03       		.byte	0x3
 5681 0ac0 00000000 		.4byte	rt_test_007_005
 5682 0ac4 1E       		.uleb128 0x1e
 5683 0ac5 B4090000 		.4byte	.LASF143
ARM GAS  /tmp/ccMmeZ0f.s 			page 102


 5684 0ac9 01       		.byte	0x1
 5685 0aca F701     		.2byte	0x1f7
 5686 0acc 19       		.byte	0x19
 5687 0acd B5090000 		.4byte	0x9b5
 5688 0ad1 05       		.uleb128 0x5
 5689 0ad2 03       		.byte	0x3
 5690 0ad3 00000000 		.4byte	rt_test_007_006
 5691 0ad7 17       		.uleb128 0x17
 5692 0ad8 EA090000 		.4byte	0x9ea
 5693 0adc E70A0000 		.4byte	0xae7
 5694 0ae0 18       		.uleb128 0x18
 5695 0ae1 38000000 		.4byte	0x38
 5696 0ae5 06       		.byte	0x6
 5697 0ae6 00       		.byte	0
 5698 0ae7 05       		.uleb128 0x5
 5699 0ae8 D70A0000 		.4byte	0xad7
 5700 0aec 1F       		.uleb128 0x1f
 5701 0aed 10000000 		.4byte	.LASF144
 5702 0af1 01       		.byte	0x1
 5703 0af2 0502     		.2byte	0x205
 5704 0af4 1A       		.byte	0x1a
 5705 0af5 E70A0000 		.4byte	0xae7
 5706 0af9 05       		.uleb128 0x5
 5707 0afa 03       		.byte	0x3
 5708 0afb 00000000 		.4byte	rt_test_sequence_007_array
 5709 0aff 20       		.uleb128 0x20
 5710 0b00 0D0A0000 		.4byte	0xa0d
 5711 0b04 01       		.byte	0x1
 5712 0b05 1202     		.2byte	0x212
 5713 0b07 16       		.byte	0x16
 5714 0b08 05       		.uleb128 0x5
 5715 0b09 03       		.byte	0x3
 5716 0b0a 00000000 		.4byte	rt_test_sequence_007
 5717 0b0e 21       		.uleb128 0x21
 5718 0b0f 9C040000 		.4byte	.LASF146
 5719 0b13 01       		.byte	0x1
 5720 0b14 B901     		.2byte	0x1b9
 5721 0b16 0D       		.byte	0xd
 5722 0b17 00000000 		.4byte	.LFB421
 5723 0b1b B8010000 		.4byte	.LFE421-.LFB421
 5724 0b1f 01       		.uleb128 0x1
 5725 0b20 9C       		.byte	0x9c
 5726 0b21 E3170000 		.4byte	0x17e3
 5727 0b25 1E       		.uleb128 0x1e
 5728 0b26 4B040000 		.4byte	.LASF145
 5729 0b2a 01       		.byte	0x1
 5730 0b2b BA01     		.2byte	0x1ba
 5731 0b2d 16       		.byte	0x16
 5732 0b2e 9B070000 		.4byte	0x79b
 5733 0b32 02       		.uleb128 0x2
 5734 0b33 91       		.byte	0x91
 5735 0b34 5C       		.sleb128 -36
 5736 0b35 22       		.uleb128 0x22
 5737 0b36 6D736700 		.ascii	"msg\000"
 5738 0b3a 01       		.byte	0x1
 5739 0b3b BB01     		.2byte	0x1bb
 5740 0b3d 09       		.byte	0x9
ARM GAS  /tmp/ccMmeZ0f.s 			page 103


 5741 0b3e 30010000 		.4byte	0x130
 5742 0b42 08000000 		.4byte	.LLST44
 5743 0b46 00000000 		.4byte	.LVUS44
 5744 0b4a 23       		.uleb128 0x23
 5745 0b4b E5270000 		.4byte	0x27e5
 5746 0b4f 0E000000 		.4byte	.LBI912
 5747 0b53 0100     		.2byte	.LVU655
 5748 0b55 68050000 		.4byte	.Ldebug_ranges0+0x568
 5749 0b59 01       		.byte	0x1
 5750 0b5a C101     		.2byte	0x1c1
 5751 0b5c 05       		.byte	0x5
 5752 0b5d 910B0000 		.4byte	0xb91
 5753 0b61 24       		.uleb128 0x24
 5754 0b62 FE270000 		.4byte	0x27fe
 5755 0b66 3E000000 		.4byte	.LLST45
 5756 0b6a 3C000000 		.4byte	.LVUS45
 5757 0b6e 24       		.uleb128 0x24
 5758 0b6f F2270000 		.4byte	0x27f2
 5759 0b73 56000000 		.4byte	.LLST46
 5760 0b77 52000000 		.4byte	.LVUS46
 5761 0b7b 25       		.uleb128 0x25
 5762 0b7c 14000000 		.4byte	.LVL120
 5763 0b80 822C0000 		.4byte	0x2c82
 5764 0b84 26       		.uleb128 0x26
 5765 0b85 01       		.uleb128 0x1
 5766 0b86 50       		.byte	0x50
 5767 0b87 02       		.uleb128 0x2
 5768 0b88 91       		.byte	0x91
 5769 0b89 5C       		.sleb128 -36
 5770 0b8a 26       		.uleb128 0x26
 5771 0b8b 01       		.uleb128 0x1
 5772 0b8c 51       		.byte	0x51
 5773 0b8d 01       		.uleb128 0x1
 5774 0b8e 30       		.byte	0x30
 5775 0b8f 00       		.byte	0
 5776 0b90 00       		.byte	0
 5777 0b91 23       		.uleb128 0x23
 5778 0b92 33270000 		.4byte	0x2733
 5779 0b96 14000000 		.4byte	.LBI917
 5780 0b9a 0200     		.2byte	.LVU661
 5781 0b9c 88050000 		.4byte	.Ldebug_ranges0+0x588
 5782 0ba0 01       		.byte	0x1
 5783 0ba1 C201     		.2byte	0x1c2
 5784 0ba3 05       		.byte	0x5
 5785 0ba4 F20B0000 		.4byte	0xbf2
 5786 0ba8 27       		.uleb128 0x27
 5787 0ba9 A0280000 		.4byte	0x28a0
 5788 0bad 14000000 		.4byte	.LBI918
 5789 0bb1 0400     		.2byte	.LVU663
 5790 0bb3 B8050000 		.4byte	.Ldebug_ranges0+0x5b8
 5791 0bb7 06       		.byte	0x6
 5792 0bb8 3F02     		.2byte	0x23f
 5793 0bba 03       		.byte	0x3
 5794 0bbb 27       		.uleb128 0x27
 5795 0bbc B4280000 		.4byte	0x28b4
 5796 0bc0 14000000 		.4byte	.LBI919
 5797 0bc4 0600     		.2byte	.LVU665
ARM GAS  /tmp/ccMmeZ0f.s 			page 104


 5798 0bc6 E0050000 		.4byte	.Ldebug_ranges0+0x5e0
 5799 0bca 07       		.byte	0x7
 5800 0bcb 9901     		.2byte	0x199
 5801 0bcd 03       		.byte	0x3
 5802 0bce 27       		.uleb128 0x27
 5803 0bcf BE280000 		.4byte	0x28be
 5804 0bd3 14000000 		.4byte	.LBI920
 5805 0bd7 0800     		.2byte	.LVU667
 5806 0bd9 00060000 		.4byte	.Ldebug_ranges0+0x600
 5807 0bdd 08       		.byte	0x8
 5808 0bde 2E03     		.2byte	0x32e
 5809 0be0 03       		.byte	0x3
 5810 0be1 24       		.uleb128 0x24
 5811 0be2 CC280000 		.4byte	0x28cc
 5812 0be6 78000000 		.4byte	.LLST47
 5813 0bea 76000000 		.4byte	.LVUS47
 5814 0bee 00       		.byte	0
 5815 0bef 00       		.byte	0
 5816 0bf0 00       		.byte	0
 5817 0bf1 00       		.byte	0
 5818 0bf2 28       		.uleb128 0x28
 5819 0bf3 3D270000 		.4byte	0x273d
 5820 0bf7 18000000 		.4byte	.LBI934
 5821 0bfb 0400     		.2byte	.LVU673
 5822 0bfd 18000000 		.4byte	.LBB934
 5823 0c01 02000000 		.4byte	.LBE934-.LBB934
 5824 0c05 01       		.byte	0x1
 5825 0c06 C201     		.2byte	0x1c2
 5826 0c08 05       		.byte	0x5
 5827 0c09 1B0C0000 		.4byte	0xc1b
 5828 0c0d 24       		.uleb128 0x24
 5829 0c0e 4F270000 		.4byte	0x274f
 5830 0c12 8F000000 		.4byte	.LLST48
 5831 0c16 8D000000 		.4byte	.LVUS48
 5832 0c1a 00       		.byte	0
 5833 0c1b 23       		.uleb128 0x23
 5834 0c1c 29270000 		.4byte	0x2729
 5835 0c20 2A000000 		.4byte	.LBI936
 5836 0c24 0100     		.2byte	.LVU679
 5837 0c26 18060000 		.4byte	.Ldebug_ranges0+0x618
 5838 0c2a 01       		.byte	0x1
 5839 0c2b C201     		.2byte	0x1c2
 5840 0c2d 05       		.byte	0x5
 5841 0c2e 860C0000 		.4byte	0xc86
 5842 0c32 27       		.uleb128 0x27
 5843 0c33 73280000 		.4byte	0x2873
 5844 0c37 2A000000 		.4byte	.LBI937
 5845 0c3b 0300     		.2byte	.LVU681
 5846 0c3d 20060000 		.4byte	.Ldebug_ranges0+0x620
 5847 0c41 06       		.byte	0x6
 5848 0c42 4A02     		.2byte	0x24a
 5849 0c44 03       		.byte	0x3
 5850 0c45 29       		.uleb128 0x29
 5851 0c46 20060000 		.4byte	.Ldebug_ranges0+0x620
 5852 0c4a 27       		.uleb128 0x27
 5853 0c4b AA280000 		.4byte	0x28aa
 5854 0c4f 2A000000 		.4byte	.LBI939
ARM GAS  /tmp/ccMmeZ0f.s 			page 105


 5855 0c53 0A00     		.2byte	.LVU688
 5856 0c55 20060000 		.4byte	.Ldebug_ranges0+0x620
 5857 0c59 07       		.byte	0x7
 5858 0c5a B201     		.2byte	0x1b2
 5859 0c5c 03       		.byte	0x3
 5860 0c5d 2A       		.uleb128 0x2a
 5861 0c5e BE280000 		.4byte	0x28be
 5862 0c62 2A000000 		.4byte	.LBI940
 5863 0c66 0C00     		.2byte	.LVU690
 5864 0c68 2A000000 		.4byte	.LBB940
 5865 0c6c 06000000 		.4byte	.LBE940-.LBB940
 5866 0c70 08       		.byte	0x8
 5867 0c71 4103     		.2byte	0x341
 5868 0c73 03       		.byte	0x3
 5869 0c74 24       		.uleb128 0x24
 5870 0c75 CC280000 		.4byte	0x28cc
 5871 0c79 A6000000 		.4byte	.LLST49
 5872 0c7d A4000000 		.4byte	.LVUS49
 5873 0c81 00       		.byte	0
 5874 0c82 00       		.byte	0
 5875 0c83 00       		.byte	0
 5876 0c84 00       		.byte	0
 5877 0c85 00       		.byte	0
 5878 0c86 23       		.uleb128 0x23
 5879 0c87 29270000 		.4byte	0x2729
 5880 0c8b 34000000 		.4byte	.LBI947
 5881 0c8f 0100     		.2byte	.LVU696
 5882 0c91 38060000 		.4byte	.Ldebug_ranges0+0x638
 5883 0c95 01       		.byte	0x1
 5884 0c96 C201     		.2byte	0x1c2
 5885 0c98 05       		.byte	0x5
 5886 0c99 F10C0000 		.4byte	0xcf1
 5887 0c9d 27       		.uleb128 0x27
 5888 0c9e 73280000 		.4byte	0x2873
 5889 0ca2 34000000 		.4byte	.LBI948
 5890 0ca6 0300     		.2byte	.LVU698
 5891 0ca8 40060000 		.4byte	.Ldebug_ranges0+0x640
 5892 0cac 06       		.byte	0x6
 5893 0cad 4A02     		.2byte	0x24a
 5894 0caf 03       		.byte	0x3
 5895 0cb0 29       		.uleb128 0x29
 5896 0cb1 40060000 		.4byte	.Ldebug_ranges0+0x640
 5897 0cb5 27       		.uleb128 0x27
 5898 0cb6 AA280000 		.4byte	0x28aa
 5899 0cba 34000000 		.4byte	.LBI950
 5900 0cbe 0A00     		.2byte	.LVU705
 5901 0cc0 40060000 		.4byte	.Ldebug_ranges0+0x640
 5902 0cc4 07       		.byte	0x7
 5903 0cc5 B201     		.2byte	0x1b2
 5904 0cc7 03       		.byte	0x3
 5905 0cc8 2A       		.uleb128 0x2a
 5906 0cc9 BE280000 		.4byte	0x28be
 5907 0ccd 34000000 		.4byte	.LBI951
 5908 0cd1 0C00     		.2byte	.LVU707
 5909 0cd3 34000000 		.4byte	.LBB951
 5910 0cd7 06000000 		.4byte	.LBE951-.LBB951
 5911 0cdb 08       		.byte	0x8
ARM GAS  /tmp/ccMmeZ0f.s 			page 106


 5912 0cdc 4103     		.2byte	0x341
 5913 0cde 03       		.byte	0x3
 5914 0cdf 24       		.uleb128 0x24
 5915 0ce0 CC280000 		.4byte	0x28cc
 5916 0ce4 BC000000 		.4byte	.LLST50
 5917 0ce8 BA000000 		.4byte	.LVUS50
 5918 0cec 00       		.byte	0
 5919 0ced 00       		.byte	0
 5920 0cee 00       		.byte	0
 5921 0cef 00       		.byte	0
 5922 0cf0 00       		.byte	0
 5923 0cf1 23       		.uleb128 0x23
 5924 0cf2 A1270000 		.4byte	0x27a1
 5925 0cf6 46000000 		.4byte	.LBI958
 5926 0cfa 0100     		.2byte	.LVU717
 5927 0cfc 58060000 		.4byte	.Ldebug_ranges0+0x658
 5928 0d00 01       		.byte	0x1
 5929 0d01 CA01     		.2byte	0x1ca
 5930 0d03 05       		.byte	0x5
 5931 0d04 6C0D0000 		.4byte	0xd6c
 5932 0d08 24       		.uleb128 0x24
 5933 0d09 BA270000 		.4byte	0x27ba
 5934 0d0d D2000000 		.4byte	.LLST51
 5935 0d11 D0000000 		.4byte	.LVUS51
 5936 0d15 24       		.uleb128 0x24
 5937 0d16 AE270000 		.4byte	0x27ae
 5938 0d1a EA000000 		.4byte	.LLST52
 5939 0d1e E6000000 		.4byte	.LVUS52
 5940 0d22 2B       		.uleb128 0x2b
 5941 0d23 2E280000 		.4byte	0x282e
 5942 0d27 46000000 		.4byte	.LBI959
 5943 0d2b 0300     		.2byte	.LVU719
 5944 0d2d 78060000 		.4byte	.Ldebug_ranges0+0x678
 5945 0d31 0A       		.byte	0xa
 5946 0d32 FF       		.byte	0xff
 5947 0d33 03       		.byte	0x3
 5948 0d34 24       		.uleb128 0x24
 5949 0d35 46280000 		.4byte	0x2846
 5950 0d39 0C010000 		.4byte	.LLST53
 5951 0d3d 0A010000 		.4byte	.LVUS53
 5952 0d41 24       		.uleb128 0x24
 5953 0d42 3B280000 		.4byte	0x283b
 5954 0d46 24010000 		.4byte	.LLST54
 5955 0d4a 20010000 		.4byte	.LVUS54
 5956 0d4e 25       		.uleb128 0x25
 5957 0d4f 4A000000 		.4byte	.LVL128
 5958 0d53 8E2C0000 		.4byte	0x2c8e
 5959 0d57 26       		.uleb128 0x26
 5960 0d58 01       		.uleb128 0x1
 5961 0d59 50       		.byte	0x50
 5962 0d5a 02       		.uleb128 0x2
 5963 0d5b 91       		.byte	0x91
 5964 0d5c 5C       		.sleb128 -36
 5965 0d5d 26       		.uleb128 0x26
 5966 0d5e 01       		.uleb128 0x1
 5967 0d5f 51       		.byte	0x51
 5968 0d60 02       		.uleb128 0x2
ARM GAS  /tmp/ccMmeZ0f.s 			page 107


 5969 0d61 74       		.byte	0x74
 5970 0d62 00       		.sleb128 0
 5971 0d63 26       		.uleb128 0x26
 5972 0d64 01       		.uleb128 0x1
 5973 0d65 52       		.byte	0x52
 5974 0d66 02       		.uleb128 0x2
 5975 0d67 09       		.byte	0x9
 5976 0d68 FE       		.byte	0xfe
 5977 0d69 00       		.byte	0
 5978 0d6a 00       		.byte	0
 5979 0d6b 00       		.byte	0
 5980 0d6c 23       		.uleb128 0x23
 5981 0d6d 33270000 		.4byte	0x2733
 5982 0d71 4A000000 		.4byte	.LBI965
 5983 0d75 0200     		.2byte	.LVU723
 5984 0d77 90060000 		.4byte	.Ldebug_ranges0+0x690
 5985 0d7b 01       		.byte	0x1
 5986 0d7c CB01     		.2byte	0x1cb
 5987 0d7e 05       		.byte	0x5
 5988 0d7f D10D0000 		.4byte	0xdd1
 5989 0d83 27       		.uleb128 0x27
 5990 0d84 A0280000 		.4byte	0x28a0
 5991 0d88 4A000000 		.4byte	.LBI966
 5992 0d8c 0400     		.2byte	.LVU725
 5993 0d8e 98060000 		.4byte	.Ldebug_ranges0+0x698
 5994 0d92 06       		.byte	0x6
 5995 0d93 3F02     		.2byte	0x23f
 5996 0d95 03       		.byte	0x3
 5997 0d96 27       		.uleb128 0x27
 5998 0d97 B4280000 		.4byte	0x28b4
 5999 0d9b 4A000000 		.4byte	.LBI967
 6000 0d9f 0600     		.2byte	.LVU727
 6001 0da1 A0060000 		.4byte	.Ldebug_ranges0+0x6a0
 6002 0da5 07       		.byte	0x7
 6003 0da6 9901     		.2byte	0x199
 6004 0da8 03       		.byte	0x3
 6005 0da9 2A       		.uleb128 0x2a
 6006 0daa BE280000 		.4byte	0x28be
 6007 0dae 4A000000 		.4byte	.LBI968
 6008 0db2 0800     		.2byte	.LVU729
 6009 0db4 4A000000 		.4byte	.LBB968
 6010 0db8 04000000 		.4byte	.LBE968-.LBB968
 6011 0dbc 08       		.byte	0x8
 6012 0dbd 2E03     		.2byte	0x32e
 6013 0dbf 03       		.byte	0x3
 6014 0dc0 24       		.uleb128 0x24
 6015 0dc1 CC280000 		.4byte	0x28cc
 6016 0dc5 46010000 		.4byte	.LLST55
 6017 0dc9 44010000 		.4byte	.LVUS55
 6018 0dcd 00       		.byte	0
 6019 0dce 00       		.byte	0
 6020 0dcf 00       		.byte	0
 6021 0dd0 00       		.byte	0
 6022 0dd1 28       		.uleb128 0x28
 6023 0dd2 3D270000 		.4byte	0x273d
 6024 0dd6 4E000000 		.4byte	.LBI976
 6025 0dda 0400     		.2byte	.LVU735
ARM GAS  /tmp/ccMmeZ0f.s 			page 108


 6026 0ddc 4E000000 		.4byte	.LBB976
 6027 0de0 02000000 		.4byte	.LBE976-.LBB976
 6028 0de4 01       		.byte	0x1
 6029 0de5 CB01     		.2byte	0x1cb
 6030 0de7 05       		.byte	0x5
 6031 0de8 FA0D0000 		.4byte	0xdfa
 6032 0dec 24       		.uleb128 0x24
 6033 0ded 4F270000 		.4byte	0x274f
 6034 0df1 5D010000 		.4byte	.LLST56
 6035 0df5 5B010000 		.4byte	.LVUS56
 6036 0df9 00       		.byte	0
 6037 0dfa 23       		.uleb128 0x23
 6038 0dfb 29270000 		.4byte	0x2729
 6039 0dff 62000000 		.4byte	.LBI978
 6040 0e03 0100     		.2byte	.LVU741
 6041 0e05 B8060000 		.4byte	.Ldebug_ranges0+0x6b8
 6042 0e09 01       		.byte	0x1
 6043 0e0a CB01     		.2byte	0x1cb
 6044 0e0c 05       		.byte	0x5
 6045 0e0d 650E0000 		.4byte	0xe65
 6046 0e11 27       		.uleb128 0x27
 6047 0e12 73280000 		.4byte	0x2873
 6048 0e16 62000000 		.4byte	.LBI979
 6049 0e1a 0300     		.2byte	.LVU743
 6050 0e1c C0060000 		.4byte	.Ldebug_ranges0+0x6c0
 6051 0e20 06       		.byte	0x6
 6052 0e21 4A02     		.2byte	0x24a
 6053 0e23 03       		.byte	0x3
 6054 0e24 29       		.uleb128 0x29
 6055 0e25 C0060000 		.4byte	.Ldebug_ranges0+0x6c0
 6056 0e29 27       		.uleb128 0x27
 6057 0e2a AA280000 		.4byte	0x28aa
 6058 0e2e 62000000 		.4byte	.LBI981
 6059 0e32 0A00     		.2byte	.LVU750
 6060 0e34 C0060000 		.4byte	.Ldebug_ranges0+0x6c0
 6061 0e38 07       		.byte	0x7
 6062 0e39 B201     		.2byte	0x1b2
 6063 0e3b 03       		.byte	0x3
 6064 0e3c 2A       		.uleb128 0x2a
 6065 0e3d BE280000 		.4byte	0x28be
 6066 0e41 62000000 		.4byte	.LBI982
 6067 0e45 0C00     		.2byte	.LVU752
 6068 0e47 62000000 		.4byte	.LBB982
 6069 0e4b 04000000 		.4byte	.LBE982-.LBB982
 6070 0e4f 08       		.byte	0x8
 6071 0e50 4103     		.2byte	0x341
 6072 0e52 03       		.byte	0x3
 6073 0e53 24       		.uleb128 0x24
 6074 0e54 CC280000 		.4byte	0x28cc
 6075 0e58 74010000 		.4byte	.LLST57
 6076 0e5c 72010000 		.4byte	.LVUS57
 6077 0e60 00       		.byte	0
 6078 0e61 00       		.byte	0
 6079 0e62 00       		.byte	0
 6080 0e63 00       		.byte	0
 6081 0e64 00       		.byte	0
 6082 0e65 28       		.uleb128 0x28
ARM GAS  /tmp/ccMmeZ0f.s 			page 109


 6083 0e66 57280000 		.4byte	0x2857
 6084 0e6a 6A000000 		.4byte	.LBI989
 6085 0e6e 0100     		.2byte	.LVU760
 6086 0e70 6A000000 		.4byte	.LBB989
 6087 0e74 04000000 		.4byte	.LBE989-.LBB989
 6088 0e78 01       		.byte	0x1
 6089 0e79 D301     		.2byte	0x1d3
 6090 0e7b 24       		.byte	0x24
 6091 0e7c 980E0000 		.4byte	0xe98
 6092 0e80 2C       		.uleb128 0x2c
 6093 0e81 65280000 		.4byte	0x2865
 6094 0e85 6A000000 		.4byte	.LBI991
 6095 0e89 0300     		.2byte	.LVU762
 6096 0e8b 6A000000 		.4byte	.LBB991
 6097 0e8f 02000000 		.4byte	.LBE991-.LBB991
 6098 0e93 03       		.byte	0x3
 6099 0e94 6401     		.2byte	0x164
 6100 0e96 0A       		.byte	0xa
 6101 0e97 00       		.byte	0
 6102 0e98 23       		.uleb128 0x23
 6103 0e99 C7270000 		.4byte	0x27c7
 6104 0e9d 8E000000 		.4byte	.LBI993
 6105 0ea1 0100     		.2byte	.LVU774
 6106 0ea3 D8060000 		.4byte	.Ldebug_ranges0+0x6d8
 6107 0ea7 01       		.byte	0x1
 6108 0ea8 DB01     		.2byte	0x1db
 6109 0eaa 0B       		.byte	0xb
 6110 0eab CD0E0000 		.4byte	0xecd
 6111 0eaf 24       		.uleb128 0x24
 6112 0eb0 D8270000 		.4byte	0x27d8
 6113 0eb4 8C010000 		.4byte	.LLST58
 6114 0eb8 88010000 		.4byte	.LVUS58
 6115 0ebc 25       		.uleb128 0x25
 6116 0ebd 92000000 		.4byte	.LVL135
 6117 0ec1 9A2C0000 		.4byte	0x2c9a
 6118 0ec5 26       		.uleb128 0x26
 6119 0ec6 01       		.uleb128 0x1
 6120 0ec7 50       		.byte	0x50
 6121 0ec8 02       		.uleb128 0x2
 6122 0ec9 91       		.byte	0x91
 6123 0eca 5C       		.sleb128 -36
 6124 0ecb 00       		.byte	0
 6125 0ecc 00       		.byte	0
 6126 0ecd 23       		.uleb128 0x23
 6127 0ece 33270000 		.4byte	0x2733
 6128 0ed2 94000000 		.4byte	.LBI997
 6129 0ed6 0200     		.2byte	.LVU780
 6130 0ed8 F0060000 		.4byte	.Ldebug_ranges0+0x6f0
 6131 0edc 01       		.byte	0x1
 6132 0edd DC01     		.2byte	0x1dc
 6133 0edf 05       		.byte	0x5
 6134 0ee0 320F0000 		.4byte	0xf32
 6135 0ee4 27       		.uleb128 0x27
 6136 0ee5 A0280000 		.4byte	0x28a0
 6137 0ee9 94000000 		.4byte	.LBI998
 6138 0eed 0400     		.2byte	.LVU782
 6139 0eef F8060000 		.4byte	.Ldebug_ranges0+0x6f8
ARM GAS  /tmp/ccMmeZ0f.s 			page 110


 6140 0ef3 06       		.byte	0x6
 6141 0ef4 3F02     		.2byte	0x23f
 6142 0ef6 03       		.byte	0x3
 6143 0ef7 27       		.uleb128 0x27
 6144 0ef8 B4280000 		.4byte	0x28b4
 6145 0efc 94000000 		.4byte	.LBI999
 6146 0f00 0600     		.2byte	.LVU784
 6147 0f02 00070000 		.4byte	.Ldebug_ranges0+0x700
 6148 0f06 07       		.byte	0x7
 6149 0f07 9901     		.2byte	0x199
 6150 0f09 03       		.byte	0x3
 6151 0f0a 2A       		.uleb128 0x2a
 6152 0f0b BE280000 		.4byte	0x28be
 6153 0f0f 94000000 		.4byte	.LBI1000
 6154 0f13 0800     		.2byte	.LVU786
 6155 0f15 94000000 		.4byte	.LBB1000
 6156 0f19 04000000 		.4byte	.LBE1000-.LBB1000
 6157 0f1d 08       		.byte	0x8
 6158 0f1e 2E03     		.2byte	0x32e
 6159 0f20 03       		.byte	0x3
 6160 0f21 24       		.uleb128 0x24
 6161 0f22 CC280000 		.4byte	0x28cc
 6162 0f26 AE010000 		.4byte	.LLST59
 6163 0f2a AC010000 		.4byte	.LVUS59
 6164 0f2e 00       		.byte	0
 6165 0f2f 00       		.byte	0
 6166 0f30 00       		.byte	0
 6167 0f31 00       		.byte	0
 6168 0f32 28       		.uleb128 0x28
 6169 0f33 3D270000 		.4byte	0x273d
 6170 0f37 98000000 		.4byte	.LBI1008
 6171 0f3b 0400     		.2byte	.LVU792
 6172 0f3d 98000000 		.4byte	.LBB1008
 6173 0f41 02000000 		.4byte	.LBE1008-.LBB1008
 6174 0f45 01       		.byte	0x1
 6175 0f46 DC01     		.2byte	0x1dc
 6176 0f48 05       		.byte	0x5
 6177 0f49 5B0F0000 		.4byte	0xf5b
 6178 0f4d 24       		.uleb128 0x24
 6179 0f4e 4F270000 		.4byte	0x274f
 6180 0f52 C5010000 		.4byte	.LLST60
 6181 0f56 C3010000 		.4byte	.LVUS60
 6182 0f5a 00       		.byte	0
 6183 0f5b 23       		.uleb128 0x23
 6184 0f5c 29270000 		.4byte	0x2729
 6185 0f60 AA000000 		.4byte	.LBI1010
 6186 0f64 0100     		.2byte	.LVU799
 6187 0f66 18070000 		.4byte	.Ldebug_ranges0+0x718
 6188 0f6a 01       		.byte	0x1
 6189 0f6b E701     		.2byte	0x1e7
 6190 0f6d 05       		.byte	0x5
 6191 0f6e C60F0000 		.4byte	0xfc6
 6192 0f72 27       		.uleb128 0x27
 6193 0f73 73280000 		.4byte	0x2873
 6194 0f77 AA000000 		.4byte	.LBI1011
 6195 0f7b 0300     		.2byte	.LVU801
 6196 0f7d 20070000 		.4byte	.Ldebug_ranges0+0x720
ARM GAS  /tmp/ccMmeZ0f.s 			page 111


 6197 0f81 06       		.byte	0x6
 6198 0f82 4A02     		.2byte	0x24a
 6199 0f84 03       		.byte	0x3
 6200 0f85 29       		.uleb128 0x29
 6201 0f86 20070000 		.4byte	.Ldebug_ranges0+0x720
 6202 0f8a 27       		.uleb128 0x27
 6203 0f8b AA280000 		.4byte	0x28aa
 6204 0f8f AA000000 		.4byte	.LBI1013
 6205 0f93 0A00     		.2byte	.LVU808
 6206 0f95 20070000 		.4byte	.Ldebug_ranges0+0x720
 6207 0f99 07       		.byte	0x7
 6208 0f9a B201     		.2byte	0x1b2
 6209 0f9c 03       		.byte	0x3
 6210 0f9d 2A       		.uleb128 0x2a
 6211 0f9e BE280000 		.4byte	0x28be
 6212 0fa2 AA000000 		.4byte	.LBI1014
 6213 0fa6 0C00     		.2byte	.LVU810
 6214 0fa8 AA000000 		.4byte	.LBB1014
 6215 0fac 04000000 		.4byte	.LBE1014-.LBB1014
 6216 0fb0 08       		.byte	0x8
 6217 0fb1 4103     		.2byte	0x341
 6218 0fb3 03       		.byte	0x3
 6219 0fb4 24       		.uleb128 0x24
 6220 0fb5 CC280000 		.4byte	0x28cc
 6221 0fb9 DC010000 		.4byte	.LLST61
 6222 0fbd DA010000 		.4byte	.LVUS61
 6223 0fc1 00       		.byte	0
 6224 0fc2 00       		.byte	0
 6225 0fc3 00       		.byte	0
 6226 0fc4 00       		.byte	0
 6227 0fc5 00       		.byte	0
 6228 0fc6 23       		.uleb128 0x23
 6229 0fc7 29270000 		.4byte	0x2729
 6230 0fcb B2000000 		.4byte	.LBI1021
 6231 0fcf 0100     		.2byte	.LVU816
 6232 0fd1 38070000 		.4byte	.Ldebug_ranges0+0x738
 6233 0fd5 01       		.byte	0x1
 6234 0fd6 F201     		.2byte	0x1f2
 6235 0fd8 05       		.byte	0x5
 6236 0fd9 31100000 		.4byte	0x1031
 6237 0fdd 27       		.uleb128 0x27
 6238 0fde 73280000 		.4byte	0x2873
 6239 0fe2 B2000000 		.4byte	.LBI1022
 6240 0fe6 0300     		.2byte	.LVU818
 6241 0fe8 40070000 		.4byte	.Ldebug_ranges0+0x740
 6242 0fec 06       		.byte	0x6
 6243 0fed 4A02     		.2byte	0x24a
 6244 0fef 03       		.byte	0x3
 6245 0ff0 29       		.uleb128 0x29
 6246 0ff1 40070000 		.4byte	.Ldebug_ranges0+0x740
 6247 0ff5 27       		.uleb128 0x27
 6248 0ff6 AA280000 		.4byte	0x28aa
 6249 0ffa B2000000 		.4byte	.LBI1024
 6250 0ffe 0A00     		.2byte	.LVU825
 6251 1000 40070000 		.4byte	.Ldebug_ranges0+0x740
 6252 1004 07       		.byte	0x7
 6253 1005 B201     		.2byte	0x1b2
ARM GAS  /tmp/ccMmeZ0f.s 			page 112


 6254 1007 03       		.byte	0x3
 6255 1008 2A       		.uleb128 0x2a
 6256 1009 BE280000 		.4byte	0x28be
 6257 100d B2000000 		.4byte	.LBI1025
 6258 1011 0C00     		.2byte	.LVU827
 6259 1013 B2000000 		.4byte	.LBB1025
 6260 1017 04000000 		.4byte	.LBE1025-.LBB1025
 6261 101b 08       		.byte	0x8
 6262 101c 4103     		.2byte	0x341
 6263 101e 03       		.byte	0x3
 6264 101f 24       		.uleb128 0x24
 6265 1020 CC280000 		.4byte	0x28cc
 6266 1024 F2010000 		.4byte	.LLST62
 6267 1028 F0010000 		.4byte	.LVUS62
 6268 102c 00       		.byte	0
 6269 102d 00       		.byte	0
 6270 102e 00       		.byte	0
 6271 102f 00       		.byte	0
 6272 1030 00       		.byte	0
 6273 1031 23       		.uleb128 0x23
 6274 1032 29270000 		.4byte	0x2729
 6275 1036 BA000000 		.4byte	.LBI1032
 6276 103a 0100     		.2byte	.LVU833
 6277 103c 58070000 		.4byte	.Ldebug_ranges0+0x758
 6278 1040 01       		.byte	0x1
 6279 1041 DC01     		.2byte	0x1dc
 6280 1043 05       		.byte	0x5
 6281 1044 9C100000 		.4byte	0x109c
 6282 1048 27       		.uleb128 0x27
 6283 1049 73280000 		.4byte	0x2873
 6284 104d BA000000 		.4byte	.LBI1033
 6285 1051 0300     		.2byte	.LVU835
 6286 1053 60070000 		.4byte	.Ldebug_ranges0+0x760
 6287 1057 06       		.byte	0x6
 6288 1058 4A02     		.2byte	0x24a
 6289 105a 03       		.byte	0x3
 6290 105b 29       		.uleb128 0x29
 6291 105c 60070000 		.4byte	.Ldebug_ranges0+0x760
 6292 1060 27       		.uleb128 0x27
 6293 1061 AA280000 		.4byte	0x28aa
 6294 1065 BA000000 		.4byte	.LBI1035
 6295 1069 0A00     		.2byte	.LVU842
 6296 106b 60070000 		.4byte	.Ldebug_ranges0+0x760
 6297 106f 07       		.byte	0x7
 6298 1070 B201     		.2byte	0x1b2
 6299 1072 03       		.byte	0x3
 6300 1073 2A       		.uleb128 0x2a
 6301 1074 BE280000 		.4byte	0x28be
 6302 1078 BA000000 		.4byte	.LBI1036
 6303 107c 0C00     		.2byte	.LVU844
 6304 107e BA000000 		.4byte	.LBB1036
 6305 1082 04000000 		.4byte	.LBE1036-.LBB1036
 6306 1086 08       		.byte	0x8
 6307 1087 4103     		.2byte	0x341
 6308 1089 03       		.byte	0x3
 6309 108a 24       		.uleb128 0x24
 6310 108b CC280000 		.4byte	0x28cc
ARM GAS  /tmp/ccMmeZ0f.s 			page 113


 6311 108f 08020000 		.4byte	.LLST63
 6312 1093 06020000 		.4byte	.LVUS63
 6313 1097 00       		.byte	0
 6314 1098 00       		.byte	0
 6315 1099 00       		.byte	0
 6316 109a 00       		.byte	0
 6317 109b 00       		.byte	0
 6318 109c 23       		.uleb128 0x23
 6319 109d 63270000 		.4byte	0x2763
 6320 10a1 D2000000 		.4byte	.LBI1043
 6321 10a5 0100     		.2byte	.LVU854
 6322 10a7 78070000 		.4byte	.Ldebug_ranges0+0x778
 6323 10ab 01       		.byte	0x1
 6324 10ac E601     		.2byte	0x1e6
 6325 10ae 05       		.byte	0x5
 6326 10af A7110000 		.4byte	0x11a7
 6327 10b3 24       		.uleb128 0x24
 6328 10b4 71270000 		.4byte	0x2771
 6329 10b8 24020000 		.4byte	.LLST64
 6330 10bc 1C020000 		.4byte	.LVUS64
 6331 10c0 23       		.uleb128 0x23
 6332 10c1 A0280000 		.4byte	0x28a0
 6333 10c5 D2000000 		.4byte	.LBI1045
 6334 10c9 0300     		.2byte	.LVU856
 6335 10cb B0070000 		.4byte	.Ldebug_ranges0+0x7b0
 6336 10cf 0A       		.byte	0xa
 6337 10d0 1C01     		.2byte	0x11c
 6338 10d2 03       		.byte	0x3
 6339 10d3 11110000 		.4byte	0x1111
 6340 10d7 27       		.uleb128 0x27
 6341 10d8 B4280000 		.4byte	0x28b4
 6342 10dc D2000000 		.4byte	.LBI1046
 6343 10e0 0500     		.2byte	.LVU858
 6344 10e2 B8070000 		.4byte	.Ldebug_ranges0+0x7b8
 6345 10e6 07       		.byte	0x7
 6346 10e7 9901     		.2byte	0x199
 6347 10e9 03       		.byte	0x3
 6348 10ea 2A       		.uleb128 0x2a
 6349 10eb BE280000 		.4byte	0x28be
 6350 10ef D2000000 		.4byte	.LBI1047
 6351 10f3 0700     		.2byte	.LVU860
 6352 10f5 D2000000 		.4byte	.LBB1047
 6353 10f9 04000000 		.4byte	.LBE1047-.LBB1047
 6354 10fd 08       		.byte	0x8
 6355 10fe 2E03     		.2byte	0x32e
 6356 1100 03       		.byte	0x3
 6357 1101 24       		.uleb128 0x24
 6358 1102 CC280000 		.4byte	0x28cc
 6359 1106 60020000 		.4byte	.LLST65
 6360 110a 5E020000 		.4byte	.LVUS65
 6361 110e 00       		.byte	0
 6362 110f 00       		.byte	0
 6363 1110 00       		.byte	0
 6364 1111 23       		.uleb128 0x23
 6365 1112 85270000 		.4byte	0x2785
 6366 1116 D6000000 		.4byte	.LBI1052
 6367 111a 0400     		.2byte	.LVU866
ARM GAS  /tmp/ccMmeZ0f.s 			page 114


 6368 111c D0070000 		.4byte	.Ldebug_ranges0+0x7d0
 6369 1120 0A       		.byte	0xa
 6370 1121 1D01     		.2byte	0x11d
 6371 1123 03       		.byte	0x3
 6372 1124 46110000 		.4byte	0x1146
 6373 1128 24       		.uleb128 0x24
 6374 1129 93270000 		.4byte	0x2793
 6375 112d 7D020000 		.4byte	.LLST66
 6376 1131 75020000 		.4byte	.LVUS66
 6377 1135 25       		.uleb128 0x25
 6378 1136 62010000 		.4byte	.LVL172
 6379 113a A62C0000 		.4byte	0x2ca6
 6380 113e 26       		.uleb128 0x26
 6381 113f 01       		.uleb128 0x1
 6382 1140 50       		.byte	0x50
 6383 1141 02       		.uleb128 0x2
 6384 1142 91       		.byte	0x91
 6385 1143 5C       		.sleb128 -36
 6386 1144 00       		.byte	0
 6387 1145 00       		.byte	0
 6388 1146 23       		.uleb128 0x23
 6389 1147 73280000 		.4byte	0x2873
 6390 114b E0000000 		.4byte	.LBI1055
 6391 114f 0100     		.2byte	.LVU873
 6392 1151 E8070000 		.4byte	.Ldebug_ranges0+0x7e8
 6393 1155 0A       		.byte	0xa
 6394 1156 1F01     		.2byte	0x11f
 6395 1158 03       		.byte	0x3
 6396 1159 9D110000 		.4byte	0x119d
 6397 115d 29       		.uleb128 0x29
 6398 115e E8070000 		.4byte	.Ldebug_ranges0+0x7e8
 6399 1162 27       		.uleb128 0x27
 6400 1163 AA280000 		.4byte	0x28aa
 6401 1167 E0000000 		.4byte	.LBI1057
 6402 116b 0800     		.2byte	.LVU880
 6403 116d E8070000 		.4byte	.Ldebug_ranges0+0x7e8
 6404 1171 07       		.byte	0x7
 6405 1172 B201     		.2byte	0x1b2
 6406 1174 03       		.byte	0x3
 6407 1175 2A       		.uleb128 0x2a
 6408 1176 BE280000 		.4byte	0x28be
 6409 117a E0000000 		.4byte	.LBI1058
 6410 117e 0A00     		.2byte	.LVU882
 6411 1180 E0000000 		.4byte	.LBB1058
 6412 1184 06000000 		.4byte	.LBE1058-.LBB1058
 6413 1188 08       		.byte	0x8
 6414 1189 4103     		.2byte	0x341
 6415 118b 03       		.byte	0x3
 6416 118c 24       		.uleb128 0x24
 6417 118d CC280000 		.4byte	0x28cc
 6418 1191 B9020000 		.4byte	.LLST67
 6419 1195 B7020000 		.4byte	.LVUS67
 6420 1199 00       		.byte	0
 6421 119a 00       		.byte	0
 6422 119b 00       		.byte	0
 6423 119c 00       		.byte	0
 6424 119d 2D       		.uleb128 0x2d
ARM GAS  /tmp/ccMmeZ0f.s 			page 115


 6425 119e E0000000 		.4byte	.LVL150
 6426 11a2 B22C0000 		.4byte	0x2cb2
 6427 11a6 00       		.byte	0
 6428 11a7 23       		.uleb128 0x23
 6429 11a8 33270000 		.4byte	0x2733
 6430 11ac E6000000 		.4byte	.LBI1073
 6431 11b0 0200     		.2byte	.LVU886
 6432 11b2 00080000 		.4byte	.Ldebug_ranges0+0x800
 6433 11b6 01       		.byte	0x1
 6434 11b7 E701     		.2byte	0x1e7
 6435 11b9 05       		.byte	0x5
 6436 11ba 0C120000 		.4byte	0x120c
 6437 11be 27       		.uleb128 0x27
 6438 11bf A0280000 		.4byte	0x28a0
 6439 11c3 E6000000 		.4byte	.LBI1074
 6440 11c7 0400     		.2byte	.LVU888
 6441 11c9 08080000 		.4byte	.Ldebug_ranges0+0x808
 6442 11cd 06       		.byte	0x6
 6443 11ce 3F02     		.2byte	0x23f
 6444 11d0 03       		.byte	0x3
 6445 11d1 27       		.uleb128 0x27
 6446 11d2 B4280000 		.4byte	0x28b4
 6447 11d6 E6000000 		.4byte	.LBI1075
 6448 11da 0600     		.2byte	.LVU890
 6449 11dc 10080000 		.4byte	.Ldebug_ranges0+0x810
 6450 11e0 07       		.byte	0x7
 6451 11e1 9901     		.2byte	0x199
 6452 11e3 03       		.byte	0x3
 6453 11e4 2A       		.uleb128 0x2a
 6454 11e5 BE280000 		.4byte	0x28be
 6455 11e9 E6000000 		.4byte	.LBI1076
 6456 11ed 0800     		.2byte	.LVU892
 6457 11ef E6000000 		.4byte	.LBB1076
 6458 11f3 06000000 		.4byte	.LBE1076-.LBB1076
 6459 11f7 08       		.byte	0x8
 6460 11f8 2E03     		.2byte	0x32e
 6461 11fa 03       		.byte	0x3
 6462 11fb 24       		.uleb128 0x24
 6463 11fc CC280000 		.4byte	0x28cc
 6464 1200 CF020000 		.4byte	.LLST68
 6465 1204 CD020000 		.4byte	.LVUS68
 6466 1208 00       		.byte	0
 6467 1209 00       		.byte	0
 6468 120a 00       		.byte	0
 6469 120b 00       		.byte	0
 6470 120c 28       		.uleb128 0x28
 6471 120d 3D270000 		.4byte	0x273d
 6472 1211 EC000000 		.4byte	.LBI1084
 6473 1215 0400     		.2byte	.LVU898
 6474 1217 EC000000 		.4byte	.LBB1084
 6475 121b 00000000 		.4byte	.LBE1084-.LBB1084
 6476 121f 01       		.byte	0x1
 6477 1220 E701     		.2byte	0x1e7
 6478 1222 05       		.byte	0x5
 6479 1223 35120000 		.4byte	0x1235
 6480 1227 24       		.uleb128 0x24
 6481 1228 4F270000 		.4byte	0x274f
ARM GAS  /tmp/ccMmeZ0f.s 			page 116


 6482 122c E6020000 		.4byte	.LLST69
 6483 1230 E4020000 		.4byte	.LVUS69
 6484 1234 00       		.byte	0
 6485 1235 23       		.uleb128 0x23
 6486 1236 29270000 		.4byte	0x2729
 6487 123a 02010000 		.4byte	.LBI1086
 6488 123e 0100     		.2byte	.LVU905
 6489 1240 28080000 		.4byte	.Ldebug_ranges0+0x828
 6490 1244 01       		.byte	0x1
 6491 1245 E701     		.2byte	0x1e7
 6492 1247 05       		.byte	0x5
 6493 1248 A0120000 		.4byte	0x12a0
 6494 124c 27       		.uleb128 0x27
 6495 124d 73280000 		.4byte	0x2873
 6496 1251 02010000 		.4byte	.LBI1087
 6497 1255 0300     		.2byte	.LVU907
 6498 1257 30080000 		.4byte	.Ldebug_ranges0+0x830
 6499 125b 06       		.byte	0x6
 6500 125c 4A02     		.2byte	0x24a
 6501 125e 03       		.byte	0x3
 6502 125f 29       		.uleb128 0x29
 6503 1260 30080000 		.4byte	.Ldebug_ranges0+0x830
 6504 1264 27       		.uleb128 0x27
 6505 1265 AA280000 		.4byte	0x28aa
 6506 1269 02010000 		.4byte	.LBI1089
 6507 126d 0A00     		.2byte	.LVU914
 6508 126f 30080000 		.4byte	.Ldebug_ranges0+0x830
 6509 1273 07       		.byte	0x7
 6510 1274 B201     		.2byte	0x1b2
 6511 1276 03       		.byte	0x3
 6512 1277 2A       		.uleb128 0x2a
 6513 1278 BE280000 		.4byte	0x28be
 6514 127c 02010000 		.4byte	.LBI1090
 6515 1280 0C00     		.2byte	.LVU916
 6516 1282 02010000 		.4byte	.LBB1090
 6517 1286 04000000 		.4byte	.LBE1090-.LBB1090
 6518 128a 08       		.byte	0x8
 6519 128b 4103     		.2byte	0x341
 6520 128d 03       		.byte	0x3
 6521 128e 24       		.uleb128 0x24
 6522 128f CC280000 		.4byte	0x28cc
 6523 1293 FD020000 		.4byte	.LLST70
 6524 1297 FB020000 		.4byte	.LVUS70
 6525 129b 00       		.byte	0
 6526 129c 00       		.byte	0
 6527 129d 00       		.byte	0
 6528 129e 00       		.byte	0
 6529 129f 00       		.byte	0
 6530 12a0 23       		.uleb128 0x23
 6531 12a1 33270000 		.4byte	0x2733
 6532 12a5 06010000 		.4byte	.LBI1097
 6533 12a9 0300     		.2byte	.LVU921
 6534 12ab 48080000 		.4byte	.Ldebug_ranges0+0x848
 6535 12af 01       		.byte	0x1
 6536 12b0 E801     		.2byte	0x1e8
 6537 12b2 05       		.byte	0x5
 6538 12b3 05130000 		.4byte	0x1305
ARM GAS  /tmp/ccMmeZ0f.s 			page 117


 6539 12b7 27       		.uleb128 0x27
 6540 12b8 A0280000 		.4byte	0x28a0
 6541 12bc 06010000 		.4byte	.LBI1098
 6542 12c0 0500     		.2byte	.LVU923
 6543 12c2 50080000 		.4byte	.Ldebug_ranges0+0x850
 6544 12c6 06       		.byte	0x6
 6545 12c7 3F02     		.2byte	0x23f
 6546 12c9 03       		.byte	0x3
 6547 12ca 27       		.uleb128 0x27
 6548 12cb B4280000 		.4byte	0x28b4
 6549 12cf 06010000 		.4byte	.LBI1099
 6550 12d3 0700     		.2byte	.LVU925
 6551 12d5 58080000 		.4byte	.Ldebug_ranges0+0x858
 6552 12d9 07       		.byte	0x7
 6553 12da 9901     		.2byte	0x199
 6554 12dc 03       		.byte	0x3
 6555 12dd 2A       		.uleb128 0x2a
 6556 12de BE280000 		.4byte	0x28be
 6557 12e2 06010000 		.4byte	.LBI1100
 6558 12e6 0900     		.2byte	.LVU927
 6559 12e8 06010000 		.4byte	.LBB1100
 6560 12ec 04000000 		.4byte	.LBE1100-.LBB1100
 6561 12f0 08       		.byte	0x8
 6562 12f1 2E03     		.2byte	0x32e
 6563 12f3 03       		.byte	0x3
 6564 12f4 24       		.uleb128 0x24
 6565 12f5 CC280000 		.4byte	0x28cc
 6566 12f9 13030000 		.4byte	.LLST71
 6567 12fd 11030000 		.4byte	.LVUS71
 6568 1301 00       		.byte	0
 6569 1302 00       		.byte	0
 6570 1303 00       		.byte	0
 6571 1304 00       		.byte	0
 6572 1305 28       		.uleb128 0x28
 6573 1306 0B280000 		.4byte	0x280b
 6574 130a 0A010000 		.4byte	.LBI1108
 6575 130e 0400     		.2byte	.LVU933
 6576 1310 0A010000 		.4byte	.LBB1108
 6577 1314 00000000 		.4byte	.LBE1108-.LBB1108
 6578 1318 01       		.byte	0x1
 6579 1319 E801     		.2byte	0x1e8
 6580 131b 05       		.byte	0x5
 6581 131c 2E130000 		.4byte	0x132e
 6582 1320 24       		.uleb128 0x24
 6583 1321 1C280000 		.4byte	0x281c
 6584 1325 2A030000 		.4byte	.LLST72
 6585 1329 28030000 		.4byte	.LVUS72
 6586 132d 00       		.byte	0
 6587 132e 23       		.uleb128 0x23
 6588 132f 29270000 		.4byte	0x2729
 6589 1333 20010000 		.4byte	.LBI1110
 6590 1337 0100     		.2byte	.LVU939
 6591 1339 70080000 		.4byte	.Ldebug_ranges0+0x870
 6592 133d 01       		.byte	0x1
 6593 133e E801     		.2byte	0x1e8
 6594 1340 05       		.byte	0x5
 6595 1341 99130000 		.4byte	0x1399
ARM GAS  /tmp/ccMmeZ0f.s 			page 118


 6596 1345 27       		.uleb128 0x27
 6597 1346 73280000 		.4byte	0x2873
 6598 134a 20010000 		.4byte	.LBI1111
 6599 134e 0300     		.2byte	.LVU941
 6600 1350 78080000 		.4byte	.Ldebug_ranges0+0x878
 6601 1354 06       		.byte	0x6
 6602 1355 4A02     		.2byte	0x24a
 6603 1357 03       		.byte	0x3
 6604 1358 29       		.uleb128 0x29
 6605 1359 78080000 		.4byte	.Ldebug_ranges0+0x878
 6606 135d 27       		.uleb128 0x27
 6607 135e AA280000 		.4byte	0x28aa
 6608 1362 20010000 		.4byte	.LBI1113
 6609 1366 0A00     		.2byte	.LVU948
 6610 1368 78080000 		.4byte	.Ldebug_ranges0+0x878
 6611 136c 07       		.byte	0x7
 6612 136d B201     		.2byte	0x1b2
 6613 136f 03       		.byte	0x3
 6614 1370 2A       		.uleb128 0x2a
 6615 1371 BE280000 		.4byte	0x28be
 6616 1375 20010000 		.4byte	.LBI1114
 6617 1379 0C00     		.2byte	.LVU950
 6618 137b 20010000 		.4byte	.LBB1114
 6619 137f 04000000 		.4byte	.LBE1114-.LBB1114
 6620 1383 08       		.byte	0x8
 6621 1384 4103     		.2byte	0x341
 6622 1386 03       		.byte	0x3
 6623 1387 24       		.uleb128 0x24
 6624 1388 CC280000 		.4byte	0x28cc
 6625 138c 41030000 		.4byte	.LLST73
 6626 1390 3F030000 		.4byte	.LVUS73
 6627 1394 00       		.byte	0
 6628 1395 00       		.byte	0
 6629 1396 00       		.byte	0
 6630 1397 00       		.byte	0
 6631 1398 00       		.byte	0
 6632 1399 23       		.uleb128 0x23
 6633 139a 63270000 		.4byte	0x2763
 6634 139e 28010000 		.4byte	.LBI1121
 6635 13a2 0100     		.2byte	.LVU958
 6636 13a4 90080000 		.4byte	.Ldebug_ranges0+0x890
 6637 13a8 01       		.byte	0x1
 6638 13a9 F001     		.2byte	0x1f0
 6639 13ab 05       		.byte	0x5
 6640 13ac A4140000 		.4byte	0x14a4
 6641 13b0 24       		.uleb128 0x24
 6642 13b1 71270000 		.4byte	0x2771
 6643 13b5 5D030000 		.4byte	.LLST74
 6644 13b9 55030000 		.4byte	.LVUS74
 6645 13bd 23       		.uleb128 0x23
 6646 13be A0280000 		.4byte	0x28a0
 6647 13c2 28010000 		.4byte	.LBI1123
 6648 13c6 0300     		.2byte	.LVU960
 6649 13c8 C8080000 		.4byte	.Ldebug_ranges0+0x8c8
 6650 13cc 0A       		.byte	0xa
 6651 13cd 1C01     		.2byte	0x11c
 6652 13cf 03       		.byte	0x3
ARM GAS  /tmp/ccMmeZ0f.s 			page 119


 6653 13d0 0E140000 		.4byte	0x140e
 6654 13d4 27       		.uleb128 0x27
 6655 13d5 B4280000 		.4byte	0x28b4
 6656 13d9 28010000 		.4byte	.LBI1124
 6657 13dd 0500     		.2byte	.LVU962
 6658 13df D0080000 		.4byte	.Ldebug_ranges0+0x8d0
 6659 13e3 07       		.byte	0x7
 6660 13e4 9901     		.2byte	0x199
 6661 13e6 03       		.byte	0x3
 6662 13e7 2A       		.uleb128 0x2a
 6663 13e8 BE280000 		.4byte	0x28be
 6664 13ec 28010000 		.4byte	.LBI1125
 6665 13f0 0700     		.2byte	.LVU964
 6666 13f2 28010000 		.4byte	.LBB1125
 6667 13f6 04000000 		.4byte	.LBE1125-.LBB1125
 6668 13fa 08       		.byte	0x8
 6669 13fb 2E03     		.2byte	0x32e
 6670 13fd 03       		.byte	0x3
 6671 13fe 24       		.uleb128 0x24
 6672 13ff CC280000 		.4byte	0x28cc
 6673 1403 99030000 		.4byte	.LLST75
 6674 1407 97030000 		.4byte	.LVUS75
 6675 140b 00       		.byte	0
 6676 140c 00       		.byte	0
 6677 140d 00       		.byte	0
 6678 140e 23       		.uleb128 0x23
 6679 140f 85270000 		.4byte	0x2785
 6680 1413 2C010000 		.4byte	.LBI1130
 6681 1417 0400     		.2byte	.LVU970
 6682 1419 E8080000 		.4byte	.Ldebug_ranges0+0x8e8
 6683 141d 0A       		.byte	0xa
 6684 141e 1D01     		.2byte	0x11d
 6685 1420 03       		.byte	0x3
 6686 1421 43140000 		.4byte	0x1443
 6687 1425 24       		.uleb128 0x24
 6688 1426 93270000 		.4byte	0x2793
 6689 142a B6030000 		.4byte	.LLST76
 6690 142e AE030000 		.4byte	.LVUS76
 6691 1432 25       		.uleb128 0x25
 6692 1433 8E010000 		.4byte	.LVL181
 6693 1437 A62C0000 		.4byte	0x2ca6
 6694 143b 26       		.uleb128 0x26
 6695 143c 01       		.uleb128 0x1
 6696 143d 50       		.byte	0x50
 6697 143e 02       		.uleb128 0x2
 6698 143f 91       		.byte	0x91
 6699 1440 5C       		.sleb128 -36
 6700 1441 00       		.byte	0
 6701 1442 00       		.byte	0
 6702 1443 23       		.uleb128 0x23
 6703 1444 73280000 		.4byte	0x2873
 6704 1448 36010000 		.4byte	.LBI1133
 6705 144c 0100     		.2byte	.LVU977
 6706 144e 00090000 		.4byte	.Ldebug_ranges0+0x900
 6707 1452 0A       		.byte	0xa
 6708 1453 1F01     		.2byte	0x11f
 6709 1455 03       		.byte	0x3
ARM GAS  /tmp/ccMmeZ0f.s 			page 120


 6710 1456 9A140000 		.4byte	0x149a
 6711 145a 29       		.uleb128 0x29
 6712 145b 00090000 		.4byte	.Ldebug_ranges0+0x900
 6713 145f 27       		.uleb128 0x27
 6714 1460 AA280000 		.4byte	0x28aa
 6715 1464 36010000 		.4byte	.LBI1135
 6716 1468 0800     		.2byte	.LVU984
 6717 146a 00090000 		.4byte	.Ldebug_ranges0+0x900
 6718 146e 07       		.byte	0x7
 6719 146f B201     		.2byte	0x1b2
 6720 1471 03       		.byte	0x3
 6721 1472 2A       		.uleb128 0x2a
 6722 1473 BE280000 		.4byte	0x28be
 6723 1477 36010000 		.4byte	.LBI1136
 6724 147b 0A00     		.2byte	.LVU986
 6725 147d 36010000 		.4byte	.LBB1136
 6726 1481 06000000 		.4byte	.LBE1136-.LBB1136
 6727 1485 08       		.byte	0x8
 6728 1486 4103     		.2byte	0x341
 6729 1488 03       		.byte	0x3
 6730 1489 24       		.uleb128 0x24
 6731 148a CC280000 		.4byte	0x28cc
 6732 148e F2030000 		.4byte	.LLST77
 6733 1492 F0030000 		.4byte	.LVUS77
 6734 1496 00       		.byte	0
 6735 1497 00       		.byte	0
 6736 1498 00       		.byte	0
 6737 1499 00       		.byte	0
 6738 149a 2D       		.uleb128 0x2d
 6739 149b 36010000 		.4byte	.LVL164
 6740 149f B22C0000 		.4byte	0x2cb2
 6741 14a3 00       		.byte	0
 6742 14a4 23       		.uleb128 0x23
 6743 14a5 33270000 		.4byte	0x2733
 6744 14a9 3C010000 		.4byte	.LBI1151
 6745 14ad 0200     		.2byte	.LVU990
 6746 14af 18090000 		.4byte	.Ldebug_ranges0+0x918
 6747 14b3 01       		.byte	0x1
 6748 14b4 F101     		.2byte	0x1f1
 6749 14b6 05       		.byte	0x5
 6750 14b7 09150000 		.4byte	0x1509
 6751 14bb 27       		.uleb128 0x27
 6752 14bc A0280000 		.4byte	0x28a0
 6753 14c0 3C010000 		.4byte	.LBI1152
 6754 14c4 0400     		.2byte	.LVU992
 6755 14c6 20090000 		.4byte	.Ldebug_ranges0+0x920
 6756 14ca 06       		.byte	0x6
 6757 14cb 3F02     		.2byte	0x23f
 6758 14cd 03       		.byte	0x3
 6759 14ce 27       		.uleb128 0x27
 6760 14cf B4280000 		.4byte	0x28b4
 6761 14d3 3C010000 		.4byte	.LBI1153
 6762 14d7 0600     		.2byte	.LVU994
 6763 14d9 28090000 		.4byte	.Ldebug_ranges0+0x928
 6764 14dd 07       		.byte	0x7
 6765 14de 9901     		.2byte	0x199
 6766 14e0 03       		.byte	0x3
ARM GAS  /tmp/ccMmeZ0f.s 			page 121


 6767 14e1 2A       		.uleb128 0x2a
 6768 14e2 BE280000 		.4byte	0x28be
 6769 14e6 3C010000 		.4byte	.LBI1154
 6770 14ea 0800     		.2byte	.LVU996
 6771 14ec 3C010000 		.4byte	.LBB1154
 6772 14f0 06000000 		.4byte	.LBE1154-.LBB1154
 6773 14f4 08       		.byte	0x8
 6774 14f5 2E03     		.2byte	0x32e
 6775 14f7 03       		.byte	0x3
 6776 14f8 24       		.uleb128 0x24
 6777 14f9 CC280000 		.4byte	0x28cc
 6778 14fd 08040000 		.4byte	.LLST78
 6779 1501 06040000 		.4byte	.LVUS78
 6780 1505 00       		.byte	0
 6781 1506 00       		.byte	0
 6782 1507 00       		.byte	0
 6783 1508 00       		.byte	0
 6784 1509 28       		.uleb128 0x28
 6785 150a 3D270000 		.4byte	0x273d
 6786 150e 42010000 		.4byte	.LBI1162
 6787 1512 0400     		.2byte	.LVU1002
 6788 1514 42010000 		.4byte	.LBB1162
 6789 1518 00000000 		.4byte	.LBE1162-.LBB1162
 6790 151c 01       		.byte	0x1
 6791 151d F101     		.2byte	0x1f1
 6792 151f 05       		.byte	0x5
 6793 1520 32150000 		.4byte	0x1532
 6794 1524 24       		.uleb128 0x24
 6795 1525 4F270000 		.4byte	0x274f
 6796 1529 1F040000 		.4byte	.LLST79
 6797 152d 1D040000 		.4byte	.LVUS79
 6798 1531 00       		.byte	0
 6799 1532 23       		.uleb128 0x23
 6800 1533 29270000 		.4byte	0x2729
 6801 1537 56010000 		.4byte	.LBI1164
 6802 153b 0100     		.2byte	.LVU1008
 6803 153d 40090000 		.4byte	.Ldebug_ranges0+0x940
 6804 1541 01       		.byte	0x1
 6805 1542 F101     		.2byte	0x1f1
 6806 1544 05       		.byte	0x5
 6807 1545 9D150000 		.4byte	0x159d
 6808 1549 27       		.uleb128 0x27
 6809 154a 73280000 		.4byte	0x2873
 6810 154e 56010000 		.4byte	.LBI1165
 6811 1552 0300     		.2byte	.LVU1010
 6812 1554 48090000 		.4byte	.Ldebug_ranges0+0x948
 6813 1558 06       		.byte	0x6
 6814 1559 4A02     		.2byte	0x24a
 6815 155b 03       		.byte	0x3
 6816 155c 29       		.uleb128 0x29
 6817 155d 48090000 		.4byte	.Ldebug_ranges0+0x948
 6818 1561 27       		.uleb128 0x27
 6819 1562 AA280000 		.4byte	0x28aa
 6820 1566 56010000 		.4byte	.LBI1167
 6821 156a 0A00     		.2byte	.LVU1017
 6822 156c 48090000 		.4byte	.Ldebug_ranges0+0x948
 6823 1570 07       		.byte	0x7
ARM GAS  /tmp/ccMmeZ0f.s 			page 122


 6824 1571 B201     		.2byte	0x1b2
 6825 1573 03       		.byte	0x3
 6826 1574 2A       		.uleb128 0x2a
 6827 1575 BE280000 		.4byte	0x28be
 6828 1579 56010000 		.4byte	.LBI1168
 6829 157d 0C00     		.2byte	.LVU1019
 6830 157f 56010000 		.4byte	.LBB1168
 6831 1583 04000000 		.4byte	.LBE1168-.LBB1168
 6832 1587 08       		.byte	0x8
 6833 1588 4103     		.2byte	0x341
 6834 158a 03       		.byte	0x3
 6835 158b 24       		.uleb128 0x24
 6836 158c CC280000 		.4byte	0x28cc
 6837 1590 36040000 		.4byte	.LLST80
 6838 1594 34040000 		.4byte	.LVUS80
 6839 1598 00       		.byte	0
 6840 1599 00       		.byte	0
 6841 159a 00       		.byte	0
 6842 159b 00       		.byte	0
 6843 159c 00       		.byte	0
 6844 159d 23       		.uleb128 0x23
 6845 159e 29270000 		.4byte	0x2729
 6846 15a2 64010000 		.4byte	.LBI1176
 6847 15a6 0200     		.2byte	.LVU1028
 6848 15a8 60090000 		.4byte	.Ldebug_ranges0+0x960
 6849 15ac 01       		.byte	0x1
 6850 15ad F101     		.2byte	0x1f1
 6851 15af 05       		.byte	0x5
 6852 15b0 08160000 		.4byte	0x1608
 6853 15b4 27       		.uleb128 0x27
 6854 15b5 73280000 		.4byte	0x2873
 6855 15b9 64010000 		.4byte	.LBI1177
 6856 15bd 0400     		.2byte	.LVU1030
 6857 15bf 68090000 		.4byte	.Ldebug_ranges0+0x968
 6858 15c3 06       		.byte	0x6
 6859 15c4 4A02     		.2byte	0x24a
 6860 15c6 03       		.byte	0x3
 6861 15c7 29       		.uleb128 0x29
 6862 15c8 68090000 		.4byte	.Ldebug_ranges0+0x968
 6863 15cc 27       		.uleb128 0x27
 6864 15cd AA280000 		.4byte	0x28aa
 6865 15d1 64010000 		.4byte	.LBI1179
 6866 15d5 0B00     		.2byte	.LVU1037
 6867 15d7 68090000 		.4byte	.Ldebug_ranges0+0x968
 6868 15db 07       		.byte	0x7
 6869 15dc B201     		.2byte	0x1b2
 6870 15de 03       		.byte	0x3
 6871 15df 2A       		.uleb128 0x2a
 6872 15e0 BE280000 		.4byte	0x28be
 6873 15e4 64010000 		.4byte	.LBI1180
 6874 15e8 0D00     		.2byte	.LVU1039
 6875 15ea 64010000 		.4byte	.LBB1180
 6876 15ee 04000000 		.4byte	.LBE1180-.LBB1180
 6877 15f2 08       		.byte	0x8
 6878 15f3 4103     		.2byte	0x341
 6879 15f5 03       		.byte	0x3
 6880 15f6 24       		.uleb128 0x24
ARM GAS  /tmp/ccMmeZ0f.s 			page 123


 6881 15f7 CC280000 		.4byte	0x28cc
 6882 15fb 4C040000 		.4byte	.LLST81
 6883 15ff 4A040000 		.4byte	.LVUS81
 6884 1603 00       		.byte	0
 6885 1604 00       		.byte	0
 6886 1605 00       		.byte	0
 6887 1606 00       		.byte	0
 6888 1607 00       		.byte	0
 6889 1608 23       		.uleb128 0x23
 6890 1609 33270000 		.4byte	0x2733
 6891 160d 68010000 		.4byte	.LBI1187
 6892 1611 0300     		.2byte	.LVU1044
 6893 1613 80090000 		.4byte	.Ldebug_ranges0+0x980
 6894 1617 01       		.byte	0x1
 6895 1618 F201     		.2byte	0x1f2
 6896 161a 05       		.byte	0x5
 6897 161b 6D160000 		.4byte	0x166d
 6898 161f 27       		.uleb128 0x27
 6899 1620 A0280000 		.4byte	0x28a0
 6900 1624 68010000 		.4byte	.LBI1188
 6901 1628 0500     		.2byte	.LVU1046
 6902 162a 88090000 		.4byte	.Ldebug_ranges0+0x988
 6903 162e 06       		.byte	0x6
 6904 162f 3F02     		.2byte	0x23f
 6905 1631 03       		.byte	0x3
 6906 1632 27       		.uleb128 0x27
 6907 1633 B4280000 		.4byte	0x28b4
 6908 1637 68010000 		.4byte	.LBI1189
 6909 163b 0700     		.2byte	.LVU1048
 6910 163d 90090000 		.4byte	.Ldebug_ranges0+0x990
 6911 1641 07       		.byte	0x7
 6912 1642 9901     		.2byte	0x199
 6913 1644 03       		.byte	0x3
 6914 1645 2A       		.uleb128 0x2a
 6915 1646 BE280000 		.4byte	0x28be
 6916 164a 68010000 		.4byte	.LBI1190
 6917 164e 0900     		.2byte	.LVU1050
 6918 1650 68010000 		.4byte	.LBB1190
 6919 1654 04000000 		.4byte	.LBE1190-.LBB1190
 6920 1658 08       		.byte	0x8
 6921 1659 2E03     		.2byte	0x32e
 6922 165b 03       		.byte	0x3
 6923 165c 24       		.uleb128 0x24
 6924 165d CC280000 		.4byte	0x28cc
 6925 1661 62040000 		.4byte	.LLST82
 6926 1665 60040000 		.4byte	.LVUS82
 6927 1669 00       		.byte	0
 6928 166a 00       		.byte	0
 6929 166b 00       		.byte	0
 6930 166c 00       		.byte	0
 6931 166d 28       		.uleb128 0x28
 6932 166e 0B280000 		.4byte	0x280b
 6933 1672 6C010000 		.4byte	.LBI1198
 6934 1676 0400     		.2byte	.LVU1056
 6935 1678 6C010000 		.4byte	.LBB1198
 6936 167c 00000000 		.4byte	.LBE1198-.LBB1198
 6937 1680 01       		.byte	0x1
ARM GAS  /tmp/ccMmeZ0f.s 			page 124


 6938 1681 F201     		.2byte	0x1f2
 6939 1683 05       		.byte	0x5
 6940 1684 96160000 		.4byte	0x1696
 6941 1688 24       		.uleb128 0x24
 6942 1689 1C280000 		.4byte	0x281c
 6943 168d 79040000 		.4byte	.LLST83
 6944 1691 77040000 		.4byte	.LVUS83
 6945 1695 00       		.byte	0
 6946 1696 23       		.uleb128 0x23
 6947 1697 29270000 		.4byte	0x2729
 6948 169b 82010000 		.4byte	.LBI1200
 6949 169f 0100     		.2byte	.LVU1062
 6950 16a1 A8090000 		.4byte	.Ldebug_ranges0+0x9a8
 6951 16a5 01       		.byte	0x1
 6952 16a6 F201     		.2byte	0x1f2
 6953 16a8 05       		.byte	0x5
 6954 16a9 01170000 		.4byte	0x1701
 6955 16ad 27       		.uleb128 0x27
 6956 16ae 73280000 		.4byte	0x2873
 6957 16b2 82010000 		.4byte	.LBI1201
 6958 16b6 0300     		.2byte	.LVU1064
 6959 16b8 B0090000 		.4byte	.Ldebug_ranges0+0x9b0
 6960 16bc 06       		.byte	0x6
 6961 16bd 4A02     		.2byte	0x24a
 6962 16bf 03       		.byte	0x3
 6963 16c0 29       		.uleb128 0x29
 6964 16c1 B0090000 		.4byte	.Ldebug_ranges0+0x9b0
 6965 16c5 27       		.uleb128 0x27
 6966 16c6 AA280000 		.4byte	0x28aa
 6967 16ca 82010000 		.4byte	.LBI1203
 6968 16ce 0A00     		.2byte	.LVU1071
 6969 16d0 B0090000 		.4byte	.Ldebug_ranges0+0x9b0
 6970 16d4 07       		.byte	0x7
 6971 16d5 B201     		.2byte	0x1b2
 6972 16d7 03       		.byte	0x3
 6973 16d8 2A       		.uleb128 0x2a
 6974 16d9 BE280000 		.4byte	0x28be
 6975 16dd 82010000 		.4byte	.LBI1204
 6976 16e1 0C00     		.2byte	.LVU1073
 6977 16e3 82010000 		.4byte	.LBB1204
 6978 16e7 04000000 		.4byte	.LBE1204-.LBB1204
 6979 16eb 08       		.byte	0x8
 6980 16ec 4103     		.2byte	0x341
 6981 16ee 03       		.byte	0x3
 6982 16ef 24       		.uleb128 0x24
 6983 16f0 CC280000 		.4byte	0x28cc
 6984 16f4 90040000 		.4byte	.LLST84
 6985 16f8 8E040000 		.4byte	.LVUS84
 6986 16fc 00       		.byte	0
 6987 16fd 00       		.byte	0
 6988 16fe 00       		.byte	0
 6989 16ff 00       		.byte	0
 6990 1700 00       		.byte	0
 6991 1701 2E       		.uleb128 0x2e
 6992 1702 28000000 		.4byte	.LVL122
 6993 1706 BE2C0000 		.4byte	0x2cbe
 6994 170a 18170000 		.4byte	0x1718
ARM GAS  /tmp/ccMmeZ0f.s 			page 125


 6995 170e 26       		.uleb128 0x26
 6996 170f 01       		.uleb128 0x1
 6997 1710 51       		.byte	0x51
 6998 1711 05       		.uleb128 0x5
 6999 1712 03       		.byte	0x3
 7000 1713 00000000 		.4byte	.LC14
 7001 1717 00       		.byte	0
 7002 1718 2E       		.uleb128 0x2e
 7003 1719 5E000000 		.4byte	.LVL130
 7004 171d BE2C0000 		.4byte	0x2cbe
 7005 1721 2F170000 		.4byte	0x172f
 7006 1725 26       		.uleb128 0x26
 7007 1726 01       		.uleb128 0x1
 7008 1727 51       		.byte	0x51
 7009 1728 05       		.uleb128 0x5
 7010 1729 03       		.byte	0x3
 7011 172a 00000000 		.4byte	.LC14
 7012 172e 00       		.byte	0
 7013 172f 2E       		.uleb128 0x2e
 7014 1730 84000000 		.4byte	.LVL133
 7015 1734 CB2C0000 		.4byte	0x2ccb
 7016 1738 54170000 		.4byte	0x1754
 7017 173c 26       		.uleb128 0x26
 7018 173d 01       		.uleb128 0x1
 7019 173e 51       		.byte	0x51
 7020 173f 03       		.uleb128 0x3
 7021 1740 0A       		.byte	0xa
 7022 1741 7001     		.2byte	0x170
 7023 1743 26       		.uleb128 0x26
 7024 1744 01       		.uleb128 0x1
 7025 1745 53       		.byte	0x53
 7026 1746 05       		.uleb128 0x5
 7027 1747 03       		.byte	0x3
 7028 1748 00000000 		.4byte	thread4
 7029 174c 26       		.uleb128 0x26
 7030 174d 02       		.uleb128 0x2
 7031 174e 7D       		.byte	0x7d
 7032 174f 00       		.sleb128 0
 7033 1750 02       		.uleb128 0x2
 7034 1751 91       		.byte	0x91
 7035 1752 5C       		.sleb128 -36
 7036 1753 00       		.byte	0
 7037 1754 2E       		.uleb128 0x2e
 7038 1755 A8000000 		.4byte	.LVL139
 7039 1759 BE2C0000 		.4byte	0x2cbe
 7040 175d 6B170000 		.4byte	0x176b
 7041 1761 26       		.uleb128 0x26
 7042 1762 01       		.uleb128 0x1
 7043 1763 51       		.byte	0x51
 7044 1764 05       		.uleb128 0x5
 7045 1765 03       		.byte	0x3
 7046 1766 00000000 		.4byte	.LC14
 7047 176a 00       		.byte	0
 7048 176b 2E       		.uleb128 0x2e
 7049 176c CA000000 		.4byte	.LVL146
 7050 1770 BE2C0000 		.4byte	0x2cbe
 7051 1774 8A170000 		.4byte	0x178a
ARM GAS  /tmp/ccMmeZ0f.s 			page 126


 7052 1778 26       		.uleb128 0x26
 7053 1779 01       		.uleb128 0x1
 7054 177a 50       		.byte	0x50
 7055 177b 04       		.uleb128 0x4
 7056 177c 74       		.byte	0x74
 7057 177d 00       		.sleb128 0
 7058 177e 30       		.byte	0x30
 7059 177f 29       		.byte	0x29
 7060 1780 26       		.uleb128 0x26
 7061 1781 01       		.uleb128 0x1
 7062 1782 51       		.byte	0x51
 7063 1783 05       		.uleb128 0x5
 7064 1784 03       		.byte	0x3
 7065 1785 0C000000 		.4byte	.LC15
 7066 1789 00       		.byte	0
 7067 178a 2E       		.uleb128 0x2e
 7068 178b FC000000 		.4byte	.LVL153
 7069 178f BE2C0000 		.4byte	0x2cbe
 7070 1793 A1170000 		.4byte	0x17a1
 7071 1797 26       		.uleb128 0x26
 7072 1798 01       		.uleb128 0x1
 7073 1799 51       		.byte	0x51
 7074 179a 05       		.uleb128 0x5
 7075 179b 03       		.byte	0x3
 7076 179c 20000000 		.4byte	.LC16
 7077 17a0 00       		.byte	0
 7078 17a1 2E       		.uleb128 0x2e
 7079 17a2 1C010000 		.4byte	.LVL158
 7080 17a6 BE2C0000 		.4byte	0x2cbe
 7081 17aa B8170000 		.4byte	0x17b8
 7082 17ae 26       		.uleb128 0x26
 7083 17af 01       		.uleb128 0x1
 7084 17b0 51       		.byte	0x51
 7085 17b1 05       		.uleb128 0x5
 7086 17b2 03       		.byte	0x3
 7087 17b3 2C000000 		.4byte	.LC17
 7088 17b7 00       		.byte	0
 7089 17b8 2E       		.uleb128 0x2e
 7090 17b9 52010000 		.4byte	.LVL167
 7091 17bd BE2C0000 		.4byte	0x2cbe
 7092 17c1 CF170000 		.4byte	0x17cf
 7093 17c5 26       		.uleb128 0x26
 7094 17c6 01       		.uleb128 0x1
 7095 17c7 51       		.byte	0x51
 7096 17c8 05       		.uleb128 0x5
 7097 17c9 03       		.byte	0x3
 7098 17ca 40000000 		.4byte	.LC18
 7099 17ce 00       		.byte	0
 7100 17cf 25       		.uleb128 0x25
 7101 17d0 7E010000 		.4byte	.LVL176
 7102 17d4 BE2C0000 		.4byte	0x2cbe
 7103 17d8 26       		.uleb128 0x26
 7104 17d9 01       		.uleb128 0x1
 7105 17da 51       		.byte	0x51
 7106 17db 05       		.uleb128 0x5
 7107 17dc 03       		.byte	0x3
 7108 17dd 2C000000 		.4byte	.LC17
ARM GAS  /tmp/ccMmeZ0f.s 			page 127


 7109 17e1 00       		.byte	0
 7110 17e2 00       		.byte	0
 7111 17e3 2F       		.uleb128 0x2f
 7112 17e4 080B0000 		.4byte	.LASF148
 7113 17e8 01       		.byte	0x1
 7114 17e9 B501     		.2byte	0x1b5
 7115 17eb 0D       		.byte	0xd
 7116 17ec 21       		.uleb128 0x21
 7117 17ed 5F040000 		.4byte	.LASF147
 7118 17f1 01       		.byte	0x1
 7119 17f2 7501     		.2byte	0x175
 7120 17f4 0D       		.byte	0xd
 7121 17f5 00000000 		.4byte	.LFB419
 7122 17f9 B4000000 		.4byte	.LFE419-.LFB419
 7123 17fd 01       		.uleb128 0x1
 7124 17fe 9C       		.byte	0x9c
 7125 17ff 32190000 		.4byte	0x1932
 7126 1803 23       		.uleb128 0x23
 7127 1804 57280000 		.4byte	0x2857
 7128 1808 1C000000 		.4byte	.LBI381
 7129 180c 0100     		.2byte	.LVU24
 7130 180e 00000000 		.4byte	.Ldebug_ranges0+0
 7131 1812 01       		.byte	0x1
 7132 1813 7B01     		.2byte	0x17b
 7133 1815 34       		.byte	0x34
 7134 1816 2E180000 		.4byte	0x182e
 7135 181a 30       		.uleb128 0x30
 7136 181b 65280000 		.4byte	0x2865
 7137 181f 1C000000 		.4byte	.LBI383
 7138 1823 0300     		.2byte	.LVU26
 7139 1825 20000000 		.4byte	.Ldebug_ranges0+0x20
 7140 1829 03       		.byte	0x3
 7141 182a 6401     		.2byte	0x164
 7142 182c 0A       		.byte	0xa
 7143 182d 00       		.byte	0
 7144 182e 28       		.uleb128 0x28
 7145 182f DA280000 		.4byte	0x28da
 7146 1833 36000000 		.4byte	.LBI391
 7147 1837 0100     		.2byte	.LVU41
 7148 1839 36000000 		.4byte	.LBB391
 7149 183d 02000000 		.4byte	.LBE391-.LBB391
 7150 1841 01       		.byte	0x1
 7151 1842 8501     		.2byte	0x185
 7152 1844 05       		.byte	0x5
 7153 1845 57180000 		.4byte	0x1857
 7154 1849 24       		.uleb128 0x24
 7155 184a EB280000 		.4byte	0x28eb
 7156 184e A6040000 		.4byte	.LLST0
 7157 1852 A4040000 		.4byte	.LVUS0
 7158 1856 00       		.byte	0
 7159 1857 28       		.uleb128 0x28
 7160 1858 DA280000 		.4byte	0x28da
 7161 185c 6A000000 		.4byte	.LBI393
 7162 1860 0100     		.2byte	.LVU58
 7163 1862 6A000000 		.4byte	.LBB393
 7164 1866 02000000 		.4byte	.LBE393-.LBB393
 7165 186a 01       		.byte	0x1
ARM GAS  /tmp/ccMmeZ0f.s 			page 128


 7166 186b 9001     		.2byte	0x190
 7167 186d 05       		.byte	0x5
 7168 186e 80180000 		.4byte	0x1880
 7169 1872 24       		.uleb128 0x24
 7170 1873 EB280000 		.4byte	0x28eb
 7171 1877 C0040000 		.4byte	.LLST1
 7172 187b BE040000 		.4byte	.LVUS1
 7173 187f 00       		.byte	0
 7174 1880 2E       		.uleb128 0x2e
 7175 1881 24000000 		.4byte	.LVL5
 7176 1885 CB2C0000 		.4byte	0x2ccb
 7177 1889 A5180000 		.4byte	0x18a5
 7178 188d 26       		.uleb128 0x26
 7179 188e 01       		.uleb128 0x1
 7180 188f 51       		.byte	0x51
 7181 1890 03       		.uleb128 0x3
 7182 1891 0A       		.byte	0xa
 7183 1892 7001     		.2byte	0x170
 7184 1894 26       		.uleb128 0x26
 7185 1895 01       		.uleb128 0x1
 7186 1896 53       		.byte	0x53
 7187 1897 05       		.uleb128 0x5
 7188 1898 03       		.byte	0x3
 7189 1899 00000000 		.4byte	thread3
 7190 189d 26       		.uleb128 0x26
 7191 189e 02       		.uleb128 0x2
 7192 189f 7D       		.byte	0x7d
 7193 18a0 00       		.sleb128 0
 7194 18a1 02       		.uleb128 0x2
 7195 18a2 74       		.byte	0x74
 7196 18a3 00       		.sleb128 0
 7197 18a4 00       		.byte	0
 7198 18a5 2E       		.uleb128 0x2e
 7199 18a6 36000000 		.4byte	.LVL6
 7200 18aa D82C0000 		.4byte	0x2cd8
 7201 18ae BF180000 		.4byte	0x18bf
 7202 18b2 26       		.uleb128 0x26
 7203 18b3 01       		.uleb128 0x1
 7204 18b4 50       		.byte	0x50
 7205 18b5 02       		.uleb128 0x2
 7206 18b6 74       		.byte	0x74
 7207 18b7 00       		.sleb128 0
 7208 18b8 26       		.uleb128 0x26
 7209 18b9 01       		.uleb128 0x1
 7210 18ba 51       		.byte	0x51
 7211 18bb 02       		.uleb128 0x2
 7212 18bc 74       		.byte	0x74
 7213 18bd 00       		.sleb128 0
 7214 18be 00       		.byte	0
 7215 18bf 2E       		.uleb128 0x2e
 7216 18c0 46000000 		.4byte	.LVL7
 7217 18c4 BE2C0000 		.4byte	0x2cbe
 7218 18c8 D6180000 		.4byte	0x18d6
 7219 18cc 26       		.uleb128 0x26
 7220 18cd 01       		.uleb128 0x1
 7221 18ce 51       		.byte	0x51
 7222 18cf 05       		.uleb128 0x5
ARM GAS  /tmp/ccMmeZ0f.s 			page 129


 7223 18d0 03       		.byte	0x3
 7224 18d1 00000000 		.4byte	.LC0
 7225 18d5 00       		.byte	0
 7226 18d6 2E       		.uleb128 0x2e
 7227 18d7 5A000000 		.4byte	.LVL8
 7228 18db BE2C0000 		.4byte	0x2cbe
 7229 18df ED180000 		.4byte	0x18ed
 7230 18e3 26       		.uleb128 0x26
 7231 18e4 01       		.uleb128 0x1
 7232 18e5 51       		.byte	0x51
 7233 18e6 05       		.uleb128 0x5
 7234 18e7 03       		.byte	0x3
 7235 18e8 10000000 		.4byte	.LC1
 7236 18ec 00       		.byte	0
 7237 18ed 2E       		.uleb128 0x2e
 7238 18ee 6A000000 		.4byte	.LVL9
 7239 18f2 D82C0000 		.4byte	0x2cd8
 7240 18f6 07190000 		.4byte	0x1907
 7241 18fa 26       		.uleb128 0x26
 7242 18fb 01       		.uleb128 0x1
 7243 18fc 50       		.byte	0x50
 7244 18fd 02       		.uleb128 0x2
 7245 18fe 74       		.byte	0x74
 7246 18ff 00       		.sleb128 0
 7247 1900 26       		.uleb128 0x26
 7248 1901 01       		.uleb128 0x1
 7249 1902 51       		.byte	0x51
 7250 1903 02       		.uleb128 0x2
 7251 1904 74       		.byte	0x74
 7252 1905 00       		.sleb128 0
 7253 1906 00       		.byte	0
 7254 1907 2E       		.uleb128 0x2e
 7255 1908 7A000000 		.4byte	.LVL10
 7256 190c BE2C0000 		.4byte	0x2cbe
 7257 1910 1E190000 		.4byte	0x191e
 7258 1914 26       		.uleb128 0x26
 7259 1915 01       		.uleb128 0x1
 7260 1916 51       		.byte	0x51
 7261 1917 05       		.uleb128 0x5
 7262 1918 03       		.byte	0x3
 7263 1919 00000000 		.4byte	.LC0
 7264 191d 00       		.byte	0
 7265 191e 31       		.uleb128 0x31
 7266 191f 92000000 		.4byte	.LVL11
 7267 1923 BE2C0000 		.4byte	0x2cbe
 7268 1927 26       		.uleb128 0x26
 7269 1928 01       		.uleb128 0x1
 7270 1929 51       		.byte	0x51
 7271 192a 05       		.uleb128 0x5
 7272 192b 03       		.byte	0x3
 7273 192c 10000000 		.4byte	.LC1
 7274 1930 00       		.byte	0
 7275 1931 00       		.byte	0
 7276 1932 32       		.uleb128 0x32
 7277 1933 EF0A0000 		.4byte	.LASF155
 7278 1937 01       		.byte	0x1
 7279 1938 7101     		.2byte	0x171
ARM GAS  /tmp/ccMmeZ0f.s 			page 130


 7280 193a 0D       		.byte	0xd
 7281 193b 01       		.byte	0x1
 7282 193c 2F       		.uleb128 0x2f
 7283 193d CF000000 		.4byte	.LASF149
 7284 1941 01       		.byte	0x1
 7285 1942 6D01     		.2byte	0x16d
 7286 1944 0D       		.byte	0xd
 7287 1945 21       		.uleb128 0x21
 7288 1946 CA010000 		.4byte	.LASF150
 7289 194a 01       		.byte	0x1
 7290 194b 3701     		.2byte	0x137
 7291 194d 0D       		.byte	0xd
 7292 194e 00000000 		.4byte	.LFB416
 7293 1952 A0000000 		.4byte	.LFE416-.LFB416
 7294 1956 01       		.uleb128 0x1
 7295 1957 9C       		.byte	0x9c
 7296 1958 131C0000 		.4byte	0x1c13
 7297 195c 23       		.uleb128 0x23
 7298 195d 57280000 		.4byte	0x2857
 7299 1961 18000000 		.4byte	.LBI524
 7300 1965 0100     		.2byte	.LVU273
 7301 1967 70020000 		.4byte	.Ldebug_ranges0+0x270
 7302 196b 01       		.byte	0x1
 7303 196c 3C01     		.2byte	0x13c
 7304 196e 34       		.byte	0x34
 7305 196f 87190000 		.4byte	0x1987
 7306 1973 30       		.uleb128 0x30
 7307 1974 65280000 		.4byte	0x2865
 7308 1978 18000000 		.4byte	.LBI526
 7309 197c 0300     		.2byte	.LVU275
 7310 197e 90020000 		.4byte	.Ldebug_ranges0+0x290
 7311 1982 03       		.byte	0x3
 7312 1983 6401     		.2byte	0x164
 7313 1985 0A       		.byte	0xa
 7314 1986 00       		.byte	0
 7315 1987 23       		.uleb128 0x23
 7316 1988 A0280000 		.4byte	0x28a0
 7317 198c 2C000000 		.4byte	.LBI534
 7318 1990 0100     		.2byte	.LVU285
 7319 1992 A8020000 		.4byte	.Ldebug_ranges0+0x2a8
 7320 1996 01       		.byte	0x1
 7321 1997 4401     		.2byte	0x144
 7322 1999 05       		.byte	0x5
 7323 199a D8190000 		.4byte	0x19d8
 7324 199e 27       		.uleb128 0x27
 7325 199f B4280000 		.4byte	0x28b4
 7326 19a3 2C000000 		.4byte	.LBI535
 7327 19a7 0300     		.2byte	.LVU287
 7328 19a9 B0020000 		.4byte	.Ldebug_ranges0+0x2b0
 7329 19ad 07       		.byte	0x7
 7330 19ae 9901     		.2byte	0x199
 7331 19b0 03       		.byte	0x3
 7332 19b1 2A       		.uleb128 0x2a
 7333 19b2 BE280000 		.4byte	0x28be
 7334 19b6 2C000000 		.4byte	.LBI536
 7335 19ba 0500     		.2byte	.LVU289
 7336 19bc 2C000000 		.4byte	.LBB536
ARM GAS  /tmp/ccMmeZ0f.s 			page 131


 7337 19c0 06000000 		.4byte	.LBE536-.LBB536
 7338 19c4 08       		.byte	0x8
 7339 19c5 2E03     		.2byte	0x32e
 7340 19c7 03       		.byte	0x3
 7341 19c8 24       		.uleb128 0x24
 7342 19c9 CC280000 		.4byte	0x28cc
 7343 19cd DA040000 		.4byte	.LLST18
 7344 19d1 D8040000 		.4byte	.LVUS18
 7345 19d5 00       		.byte	0
 7346 19d6 00       		.byte	0
 7347 19d7 00       		.byte	0
 7348 19d8 23       		.uleb128 0x23
 7349 19d9 73280000 		.4byte	0x2873
 7350 19dd 40000000 		.4byte	.LBI541
 7351 19e1 0100     		.2byte	.LVU299
 7352 19e3 C8020000 		.4byte	.Ldebug_ranges0+0x2c8
 7353 19e7 01       		.byte	0x1
 7354 19e8 4701     		.2byte	0x147
 7355 19ea 05       		.byte	0x5
 7356 19eb 2B1A0000 		.4byte	0x1a2b
 7357 19ef 29       		.uleb128 0x29
 7358 19f0 C8020000 		.4byte	.Ldebug_ranges0+0x2c8
 7359 19f4 27       		.uleb128 0x27
 7360 19f5 AA280000 		.4byte	0x28aa
 7361 19f9 40000000 		.4byte	.LBI543
 7362 19fd 0800     		.2byte	.LVU306
 7363 19ff C8020000 		.4byte	.Ldebug_ranges0+0x2c8
 7364 1a03 07       		.byte	0x7
 7365 1a04 B201     		.2byte	0x1b2
 7366 1a06 03       		.byte	0x3
 7367 1a07 27       		.uleb128 0x27
 7368 1a08 BE280000 		.4byte	0x28be
 7369 1a0c 40000000 		.4byte	.LBI544
 7370 1a10 0A00     		.2byte	.LVU308
 7371 1a12 E8020000 		.4byte	.Ldebug_ranges0+0x2e8
 7372 1a16 08       		.byte	0x8
 7373 1a17 4103     		.2byte	0x341
 7374 1a19 03       		.byte	0x3
 7375 1a1a 24       		.uleb128 0x24
 7376 1a1b CC280000 		.4byte	0x28cc
 7377 1a1f F1040000 		.4byte	.LLST19
 7378 1a23 EF040000 		.4byte	.LVUS19
 7379 1a27 00       		.byte	0
 7380 1a28 00       		.byte	0
 7381 1a29 00       		.byte	0
 7382 1a2a 00       		.byte	0
 7383 1a2b 23       		.uleb128 0x23
 7384 1a2c 33270000 		.4byte	0x2733
 7385 1a30 48000000 		.4byte	.LBI554
 7386 1a34 0100     		.2byte	.LVU313
 7387 1a36 00030000 		.4byte	.Ldebug_ranges0+0x300
 7388 1a3a 01       		.byte	0x1
 7389 1a3b 4901     		.2byte	0x149
 7390 1a3d 05       		.byte	0x5
 7391 1a3e 901A0000 		.4byte	0x1a90
 7392 1a42 27       		.uleb128 0x27
 7393 1a43 A0280000 		.4byte	0x28a0
ARM GAS  /tmp/ccMmeZ0f.s 			page 132


 7394 1a47 48000000 		.4byte	.LBI555
 7395 1a4b 0300     		.2byte	.LVU315
 7396 1a4d 08030000 		.4byte	.Ldebug_ranges0+0x308
 7397 1a51 06       		.byte	0x6
 7398 1a52 3F02     		.2byte	0x23f
 7399 1a54 03       		.byte	0x3
 7400 1a55 27       		.uleb128 0x27
 7401 1a56 B4280000 		.4byte	0x28b4
 7402 1a5a 48000000 		.4byte	.LBI556
 7403 1a5e 0500     		.2byte	.LVU317
 7404 1a60 10030000 		.4byte	.Ldebug_ranges0+0x310
 7405 1a64 07       		.byte	0x7
 7406 1a65 9901     		.2byte	0x199
 7407 1a67 03       		.byte	0x3
 7408 1a68 2A       		.uleb128 0x2a
 7409 1a69 BE280000 		.4byte	0x28be
 7410 1a6d 48000000 		.4byte	.LBI557
 7411 1a71 0700     		.2byte	.LVU319
 7412 1a73 48000000 		.4byte	.LBB557
 7413 1a77 04000000 		.4byte	.LBE557-.LBB557
 7414 1a7b 08       		.byte	0x8
 7415 1a7c 2E03     		.2byte	0x32e
 7416 1a7e 03       		.byte	0x3
 7417 1a7f 24       		.uleb128 0x24
 7418 1a80 CC280000 		.4byte	0x28cc
 7419 1a84 07050000 		.4byte	.LLST20
 7420 1a88 05050000 		.4byte	.LVUS20
 7421 1a8c 00       		.byte	0
 7422 1a8d 00       		.byte	0
 7423 1a8e 00       		.byte	0
 7424 1a8f 00       		.byte	0
 7425 1a90 28       		.uleb128 0x28
 7426 1a91 0B280000 		.4byte	0x280b
 7427 1a95 4C000000 		.4byte	.LBI565
 7428 1a99 0400     		.2byte	.LVU325
 7429 1a9b 4C000000 		.4byte	.LBB565
 7430 1a9f 00000000 		.4byte	.LBE565-.LBB565
 7431 1aa3 01       		.byte	0x1
 7432 1aa4 4901     		.2byte	0x149
 7433 1aa6 05       		.byte	0x5
 7434 1aa7 B91A0000 		.4byte	0x1ab9
 7435 1aab 24       		.uleb128 0x24
 7436 1aac 1C280000 		.4byte	0x281c
 7437 1ab0 1E050000 		.4byte	.LLST21
 7438 1ab4 1C050000 		.4byte	.LVUS21
 7439 1ab8 00       		.byte	0
 7440 1ab9 23       		.uleb128 0x23
 7441 1aba 29270000 		.4byte	0x2729
 7442 1abe 60000000 		.4byte	.LBI567
 7443 1ac2 0100     		.2byte	.LVU331
 7444 1ac4 28030000 		.4byte	.Ldebug_ranges0+0x328
 7445 1ac8 01       		.byte	0x1
 7446 1ac9 4901     		.2byte	0x149
 7447 1acb 05       		.byte	0x5
 7448 1acc 241B0000 		.4byte	0x1b24
 7449 1ad0 27       		.uleb128 0x27
 7450 1ad1 73280000 		.4byte	0x2873
ARM GAS  /tmp/ccMmeZ0f.s 			page 133


 7451 1ad5 60000000 		.4byte	.LBI568
 7452 1ad9 0300     		.2byte	.LVU333
 7453 1adb 30030000 		.4byte	.Ldebug_ranges0+0x330
 7454 1adf 06       		.byte	0x6
 7455 1ae0 4A02     		.2byte	0x24a
 7456 1ae2 03       		.byte	0x3
 7457 1ae3 29       		.uleb128 0x29
 7458 1ae4 30030000 		.4byte	.Ldebug_ranges0+0x330
 7459 1ae8 27       		.uleb128 0x27
 7460 1ae9 AA280000 		.4byte	0x28aa
 7461 1aed 60000000 		.4byte	.LBI570
 7462 1af1 0A00     		.2byte	.LVU340
 7463 1af3 30030000 		.4byte	.Ldebug_ranges0+0x330
 7464 1af7 07       		.byte	0x7
 7465 1af8 B201     		.2byte	0x1b2
 7466 1afa 03       		.byte	0x3
 7467 1afb 2A       		.uleb128 0x2a
 7468 1afc BE280000 		.4byte	0x28be
 7469 1b00 60000000 		.4byte	.LBI571
 7470 1b04 0C00     		.2byte	.LVU342
 7471 1b06 60000000 		.4byte	.LBB571
 7472 1b0a 04000000 		.4byte	.LBE571-.LBB571
 7473 1b0e 08       		.byte	0x8
 7474 1b0f 4103     		.2byte	0x341
 7475 1b11 03       		.byte	0x3
 7476 1b12 24       		.uleb128 0x24
 7477 1b13 CC280000 		.4byte	0x28cc
 7478 1b17 38050000 		.4byte	.LLST22
 7479 1b1b 36050000 		.4byte	.LVUS22
 7480 1b1f 00       		.byte	0
 7481 1b20 00       		.byte	0
 7482 1b21 00       		.byte	0
 7483 1b22 00       		.byte	0
 7484 1b23 00       		.byte	0
 7485 1b24 23       		.uleb128 0x23
 7486 1b25 29270000 		.4byte	0x2729
 7487 1b29 68000000 		.4byte	.LBI578
 7488 1b2d 0100     		.2byte	.LVU348
 7489 1b2f 48030000 		.4byte	.Ldebug_ranges0+0x348
 7490 1b33 01       		.byte	0x1
 7491 1b34 4901     		.2byte	0x149
 7492 1b36 05       		.byte	0x5
 7493 1b37 8F1B0000 		.4byte	0x1b8f
 7494 1b3b 27       		.uleb128 0x27
 7495 1b3c 73280000 		.4byte	0x2873
 7496 1b40 68000000 		.4byte	.LBI579
 7497 1b44 0300     		.2byte	.LVU350
 7498 1b46 50030000 		.4byte	.Ldebug_ranges0+0x350
 7499 1b4a 06       		.byte	0x6
 7500 1b4b 4A02     		.2byte	0x24a
 7501 1b4d 03       		.byte	0x3
 7502 1b4e 29       		.uleb128 0x29
 7503 1b4f 50030000 		.4byte	.Ldebug_ranges0+0x350
 7504 1b53 27       		.uleb128 0x27
 7505 1b54 AA280000 		.4byte	0x28aa
 7506 1b58 68000000 		.4byte	.LBI581
 7507 1b5c 0A00     		.2byte	.LVU357
ARM GAS  /tmp/ccMmeZ0f.s 			page 134


 7508 1b5e 50030000 		.4byte	.Ldebug_ranges0+0x350
 7509 1b62 07       		.byte	0x7
 7510 1b63 B201     		.2byte	0x1b2
 7511 1b65 03       		.byte	0x3
 7512 1b66 2A       		.uleb128 0x2a
 7513 1b67 BE280000 		.4byte	0x28be
 7514 1b6b 68000000 		.4byte	.LBI582
 7515 1b6f 0C00     		.2byte	.LVU359
 7516 1b71 68000000 		.4byte	.LBB582
 7517 1b75 04000000 		.4byte	.LBE582-.LBB582
 7518 1b79 08       		.byte	0x8
 7519 1b7a 4103     		.2byte	0x341
 7520 1b7c 03       		.byte	0x3
 7521 1b7d 24       		.uleb128 0x24
 7522 1b7e CC280000 		.4byte	0x28cc
 7523 1b82 4E050000 		.4byte	.LLST23
 7524 1b86 4C050000 		.4byte	.LVUS23
 7525 1b8a 00       		.byte	0
 7526 1b8b 00       		.byte	0
 7527 1b8c 00       		.byte	0
 7528 1b8d 00       		.byte	0
 7529 1b8e 00       		.byte	0
 7530 1b8f 2E       		.uleb128 0x2e
 7531 1b90 24000000 		.4byte	.LVL42
 7532 1b94 CB2C0000 		.4byte	0x2ccb
 7533 1b98 B41B0000 		.4byte	0x1bb4
 7534 1b9c 26       		.uleb128 0x26
 7535 1b9d 01       		.uleb128 0x1
 7536 1b9e 51       		.byte	0x51
 7537 1b9f 03       		.uleb128 0x3
 7538 1ba0 0A       		.byte	0xa
 7539 1ba1 7001     		.2byte	0x170
 7540 1ba3 26       		.uleb128 0x26
 7541 1ba4 01       		.uleb128 0x1
 7542 1ba5 53       		.byte	0x53
 7543 1ba6 05       		.uleb128 0x5
 7544 1ba7 03       		.byte	0x3
 7545 1ba8 00000000 		.4byte	thread1
 7546 1bac 26       		.uleb128 0x26
 7547 1bad 02       		.uleb128 0x2
 7548 1bae 7D       		.byte	0x7d
 7549 1baf 00       		.sleb128 0
 7550 1bb0 02       		.uleb128 0x2
 7551 1bb1 77       		.byte	0x77
 7552 1bb2 00       		.sleb128 0
 7553 1bb3 00       		.byte	0
 7554 1bb4 2E       		.uleb128 0x2e
 7555 1bb5 3A000000 		.4byte	.LVL45
 7556 1bb9 E42C0000 		.4byte	0x2ce4
 7557 1bbd CD1B0000 		.4byte	0x1bcd
 7558 1bc1 26       		.uleb128 0x26
 7559 1bc2 01       		.uleb128 0x1
 7560 1bc3 50       		.byte	0x50
 7561 1bc4 02       		.uleb128 0x2
 7562 1bc5 74       		.byte	0x74
 7563 1bc6 00       		.sleb128 0
 7564 1bc7 26       		.uleb128 0x26
ARM GAS  /tmp/ccMmeZ0f.s 			page 135


 7565 1bc8 01       		.uleb128 0x1
 7566 1bc9 51       		.byte	0x51
 7567 1bca 01       		.uleb128 0x1
 7568 1bcb 32       		.byte	0x32
 7569 1bcc 00       		.byte	0
 7570 1bcd 2D       		.uleb128 0x2d
 7571 1bce 40000000 		.4byte	.LVL46
 7572 1bd2 B22C0000 		.4byte	0x2cb2
 7573 1bd6 2D       		.uleb128 0x2d
 7574 1bd7 48000000 		.4byte	.LVL48
 7575 1bdb F02C0000 		.4byte	0x2cf0
 7576 1bdf 2E       		.uleb128 0x2e
 7577 1be0 5E000000 		.4byte	.LVL50
 7578 1be4 BE2C0000 		.4byte	0x2cbe
 7579 1be8 F61B0000 		.4byte	0x1bf6
 7580 1bec 26       		.uleb128 0x26
 7581 1bed 01       		.uleb128 0x1
 7582 1bee 51       		.byte	0x51
 7583 1bef 05       		.uleb128 0x5
 7584 1bf0 03       		.byte	0x3
 7585 1bf1 04000000 		.4byte	.LC5
 7586 1bf5 00       		.byte	0
 7587 1bf6 31       		.uleb128 0x31
 7588 1bf7 7A000000 		.4byte	.LVL55
 7589 1bfb FC2C0000 		.4byte	0x2cfc
 7590 1bff 26       		.uleb128 0x26
 7591 1c00 01       		.uleb128 0x1
 7592 1c01 50       		.byte	0x50
 7593 1c02 05       		.uleb128 0x5
 7594 1c03 03       		.byte	0x3
 7595 1c04 00000000 		.4byte	.LC4
 7596 1c08 26       		.uleb128 0x26
 7597 1c09 01       		.uleb128 0x1
 7598 1c0a 51       		.byte	0x51
 7599 1c0b 05       		.uleb128 0x5
 7600 1c0c 03       		.byte	0x3
 7601 1c0d 14000000 		.4byte	.LC6
 7602 1c11 00       		.byte	0
 7603 1c12 00       		.byte	0
 7604 1c13 2F       		.uleb128 0x2f
 7605 1c14 17060000 		.4byte	.LASF151
 7606 1c18 01       		.byte	0x1
 7607 1c19 3301     		.2byte	0x133
 7608 1c1b 0D       		.byte	0xd
 7609 1c1c 33       		.uleb128 0x33
 7610 1c1d 58010000 		.4byte	.LASF166
 7611 1c21 01       		.byte	0x1
 7612 1c22 EF       		.byte	0xef
 7613 1c23 0D       		.byte	0xd
 7614 1c24 01       		.byte	0x1
 7615 1c25 4C1C0000 		.4byte	0x1c4c
 7616 1c29 34       		.uleb128 0x34
 7617 1c2a 6900     		.ascii	"i\000"
 7618 1c2c 01       		.byte	0x1
 7619 1c2d F0       		.byte	0xf0
 7620 1c2e 0C       		.byte	0xc
 7621 1c2f 38000000 		.4byte	0x38
ARM GAS  /tmp/ccMmeZ0f.s 			page 136


 7622 1c33 35       		.uleb128 0x35
 7623 1c34 0D090000 		.4byte	.LASF152
 7624 1c38 01       		.byte	0x1
 7625 1c39 F1       		.byte	0xf1
 7626 1c3a 0D       		.byte	0xd
 7627 1c3b 4B030000 		.4byte	0x34b
 7628 1c3f 34       		.uleb128 0x34
 7629 1c40 6D736700 		.ascii	"msg\000"
 7630 1c44 01       		.byte	0x1
 7631 1c45 F2       		.byte	0xf2
 7632 1c46 09       		.byte	0x9
 7633 1c47 30010000 		.4byte	0x130
 7634 1c4b 00       		.byte	0
 7635 1c4c 36       		.uleb128 0x36
 7636 1c4d 00030000 		.4byte	.LASF153
 7637 1c51 01       		.byte	0x1
 7638 1c52 EB       		.byte	0xeb
 7639 1c53 0D       		.byte	0xd
 7640 1c54 37       		.uleb128 0x37
 7641 1c55 D10A0000 		.4byte	.LASF154
 7642 1c59 01       		.byte	0x1
 7643 1c5a B1       		.byte	0xb1
 7644 1c5b 0D       		.byte	0xd
 7645 1c5c 00000000 		.4byte	.LFB412
 7646 1c60 FC000000 		.4byte	.LFE412-.LFB412
 7647 1c64 01       		.uleb128 0x1
 7648 1c65 9C       		.byte	0x9c
 7649 1c66 AB1E0000 		.4byte	0x1eab
 7650 1c6a 38       		.uleb128 0x38
 7651 1c6b 57280000 		.4byte	0x2857
 7652 1c6f 28000000 		.4byte	.LBI589
 7653 1c73 0100     		.2byte	.LVU380
 7654 1c75 68030000 		.4byte	.Ldebug_ranges0+0x368
 7655 1c79 01       		.byte	0x1
 7656 1c7a B8       		.byte	0xb8
 7657 1c7b 34       		.byte	0x34
 7658 1c7c 941C0000 		.4byte	0x1c94
 7659 1c80 30       		.uleb128 0x30
 7660 1c81 65280000 		.4byte	0x2865
 7661 1c85 28000000 		.4byte	.LBI591
 7662 1c89 0300     		.2byte	.LVU382
 7663 1c8b 88030000 		.4byte	.Ldebug_ranges0+0x388
 7664 1c8f 03       		.byte	0x3
 7665 1c90 6401     		.2byte	0x164
 7666 1c92 0A       		.byte	0xa
 7667 1c93 00       		.byte	0
 7668 1c94 38       		.uleb128 0x38
 7669 1c95 57280000 		.4byte	0x2857
 7670 1c99 3C000000 		.4byte	.LBI599
 7671 1c9d 0100     		.2byte	.LVU391
 7672 1c9f A0030000 		.4byte	.Ldebug_ranges0+0x3a0
 7673 1ca3 01       		.byte	0x1
 7674 1ca4 B9       		.byte	0xb9
 7675 1ca5 34       		.byte	0x34
 7676 1ca6 C21C0000 		.4byte	0x1cc2
 7677 1caa 2C       		.uleb128 0x2c
 7678 1cab 65280000 		.4byte	0x2865
ARM GAS  /tmp/ccMmeZ0f.s 			page 137


 7679 1caf 3C000000 		.4byte	.LBI601
 7680 1cb3 0300     		.2byte	.LVU393
 7681 1cb5 3C000000 		.4byte	.LBB601
 7682 1cb9 00000000 		.4byte	.LBE601-.LBB601
 7683 1cbd 03       		.byte	0x3
 7684 1cbe 6401     		.2byte	0x164
 7685 1cc0 0A       		.byte	0xa
 7686 1cc1 00       		.byte	0
 7687 1cc2 38       		.uleb128 0x38
 7688 1cc3 57280000 		.4byte	0x2857
 7689 1cc7 4A000000 		.4byte	.LBI605
 7690 1ccb 0100     		.2byte	.LVU399
 7691 1ccd B8030000 		.4byte	.Ldebug_ranges0+0x3b8
 7692 1cd1 01       		.byte	0x1
 7693 1cd2 BA       		.byte	0xba
 7694 1cd3 34       		.byte	0x34
 7695 1cd4 F01C0000 		.4byte	0x1cf0
 7696 1cd8 2C       		.uleb128 0x2c
 7697 1cd9 65280000 		.4byte	0x2865
 7698 1cdd 4A000000 		.4byte	.LBI607
 7699 1ce1 0300     		.2byte	.LVU401
 7700 1ce3 4A000000 		.4byte	.LBB607
 7701 1ce7 00000000 		.4byte	.LBE607-.LBB607
 7702 1ceb 03       		.byte	0x3
 7703 1cec 6401     		.2byte	0x164
 7704 1cee 0A       		.byte	0xa
 7705 1cef 00       		.byte	0
 7706 1cf0 38       		.uleb128 0x38
 7707 1cf1 57280000 		.4byte	0x2857
 7708 1cf5 62000000 		.4byte	.LBI611
 7709 1cf9 0100     		.2byte	.LVU407
 7710 1cfb D0030000 		.4byte	.Ldebug_ranges0+0x3d0
 7711 1cff 01       		.byte	0x1
 7712 1d00 BB       		.byte	0xbb
 7713 1d01 34       		.byte	0x34
 7714 1d02 1E1D0000 		.4byte	0x1d1e
 7715 1d06 2C       		.uleb128 0x2c
 7716 1d07 65280000 		.4byte	0x2865
 7717 1d0b 62000000 		.4byte	.LBI613
 7718 1d0f 0300     		.2byte	.LVU409
 7719 1d11 62000000 		.4byte	.LBB613
 7720 1d15 00000000 		.4byte	.LBE613-.LBB613
 7721 1d19 03       		.byte	0x3
 7722 1d1a 6401     		.2byte	0x164
 7723 1d1c 0A       		.byte	0xa
 7724 1d1d 00       		.byte	0
 7725 1d1e 38       		.uleb128 0x38
 7726 1d1f 57280000 		.4byte	0x2857
 7727 1d23 7E000000 		.4byte	.LBI617
 7728 1d27 0100     		.2byte	.LVU416
 7729 1d29 E8030000 		.4byte	.Ldebug_ranges0+0x3e8
 7730 1d2d 01       		.byte	0x1
 7731 1d2e BC       		.byte	0xbc
 7732 1d2f 34       		.byte	0x34
 7733 1d30 4C1D0000 		.4byte	0x1d4c
 7734 1d34 2C       		.uleb128 0x2c
 7735 1d35 65280000 		.4byte	0x2865
ARM GAS  /tmp/ccMmeZ0f.s 			page 138


 7736 1d39 7E000000 		.4byte	.LBI619
 7737 1d3d 0300     		.2byte	.LVU418
 7738 1d3f 7E000000 		.4byte	.LBB619
 7739 1d43 00000000 		.4byte	.LBE619-.LBB619
 7740 1d47 03       		.byte	0x3
 7741 1d48 6401     		.2byte	0x164
 7742 1d4a 0A       		.byte	0xa
 7743 1d4b 00       		.byte	0
 7744 1d4c 2E       		.uleb128 0x2e
 7745 1d4d 2C000000 		.4byte	.LVL56
 7746 1d51 CB2C0000 		.4byte	0x2ccb
 7747 1d55 781D0000 		.4byte	0x1d78
 7748 1d59 26       		.uleb128 0x26
 7749 1d5a 01       		.uleb128 0x1
 7750 1d5b 50       		.byte	0x50
 7751 1d5c 03       		.uleb128 0x3
 7752 1d5d 74       		.byte	0x74
 7753 1d5e 00       		.sleb128 0
 7754 1d5f 06       		.byte	0x6
 7755 1d60 26       		.uleb128 0x26
 7756 1d61 01       		.uleb128 0x1
 7757 1d62 51       		.byte	0x51
 7758 1d63 03       		.uleb128 0x3
 7759 1d64 0A       		.byte	0xa
 7760 1d65 7001     		.2byte	0x170
 7761 1d67 26       		.uleb128 0x26
 7762 1d68 01       		.uleb128 0x1
 7763 1d69 53       		.byte	0x53
 7764 1d6a 02       		.uleb128 0x2
 7765 1d6b 76       		.byte	0x76
 7766 1d6c 00       		.sleb128 0
 7767 1d6d 26       		.uleb128 0x26
 7768 1d6e 02       		.uleb128 0x2
 7769 1d6f 7D       		.byte	0x7d
 7770 1d70 00       		.sleb128 0
 7771 1d71 05       		.uleb128 0x5
 7772 1d72 03       		.byte	0x3
 7773 1d73 00000000 		.4byte	.LC4
 7774 1d77 00       		.byte	0
 7775 1d78 2E       		.uleb128 0x2e
 7776 1d79 46000000 		.4byte	.LVL57
 7777 1d7d CB2C0000 		.4byte	0x2ccb
 7778 1d81 A41D0000 		.4byte	0x1da4
 7779 1d85 26       		.uleb128 0x26
 7780 1d86 01       		.uleb128 0x1
 7781 1d87 50       		.byte	0x50
 7782 1d88 03       		.uleb128 0x3
 7783 1d89 74       		.byte	0x74
 7784 1d8a 04       		.sleb128 4
 7785 1d8b 06       		.byte	0x6
 7786 1d8c 26       		.uleb128 0x26
 7787 1d8d 01       		.uleb128 0x1
 7788 1d8e 51       		.byte	0x51
 7789 1d8f 03       		.uleb128 0x3
 7790 1d90 0A       		.byte	0xa
 7791 1d91 7001     		.2byte	0x170
 7792 1d93 26       		.uleb128 0x26
ARM GAS  /tmp/ccMmeZ0f.s 			page 139


 7793 1d94 01       		.uleb128 0x1
 7794 1d95 53       		.byte	0x53
 7795 1d96 02       		.uleb128 0x2
 7796 1d97 76       		.byte	0x76
 7797 1d98 00       		.sleb128 0
 7798 1d99 26       		.uleb128 0x26
 7799 1d9a 02       		.uleb128 0x2
 7800 1d9b 7D       		.byte	0x7d
 7801 1d9c 00       		.sleb128 0
 7802 1d9d 05       		.uleb128 0x5
 7803 1d9e 03       		.byte	0x3
 7804 1d9f 00000000 		.4byte	.LC7
 7805 1da3 00       		.byte	0
 7806 1da4 2E       		.uleb128 0x2e
 7807 1da5 5E000000 		.4byte	.LVL58
 7808 1da9 CB2C0000 		.4byte	0x2ccb
 7809 1dad D01D0000 		.4byte	0x1dd0
 7810 1db1 26       		.uleb128 0x26
 7811 1db2 01       		.uleb128 0x1
 7812 1db3 50       		.byte	0x50
 7813 1db4 03       		.uleb128 0x3
 7814 1db5 74       		.byte	0x74
 7815 1db6 08       		.sleb128 8
 7816 1db7 06       		.byte	0x6
 7817 1db8 26       		.uleb128 0x26
 7818 1db9 01       		.uleb128 0x1
 7819 1dba 51       		.byte	0x51
 7820 1dbb 03       		.uleb128 0x3
 7821 1dbc 0A       		.byte	0xa
 7822 1dbd 7001     		.2byte	0x170
 7823 1dbf 26       		.uleb128 0x26
 7824 1dc0 01       		.uleb128 0x1
 7825 1dc1 53       		.byte	0x53
 7826 1dc2 02       		.uleb128 0x2
 7827 1dc3 76       		.byte	0x76
 7828 1dc4 00       		.sleb128 0
 7829 1dc5 26       		.uleb128 0x26
 7830 1dc6 02       		.uleb128 0x2
 7831 1dc7 7D       		.byte	0x7d
 7832 1dc8 00       		.sleb128 0
 7833 1dc9 05       		.uleb128 0x5
 7834 1dca 03       		.byte	0x3
 7835 1dcb 04000000 		.4byte	.LC8
 7836 1dcf 00       		.byte	0
 7837 1dd0 2E       		.uleb128 0x2e
 7838 1dd1 76000000 		.4byte	.LVL59
 7839 1dd5 CB2C0000 		.4byte	0x2ccb
 7840 1dd9 FC1D0000 		.4byte	0x1dfc
 7841 1ddd 26       		.uleb128 0x26
 7842 1dde 01       		.uleb128 0x1
 7843 1ddf 50       		.byte	0x50
 7844 1de0 03       		.uleb128 0x3
 7845 1de1 74       		.byte	0x74
 7846 1de2 0C       		.sleb128 12
 7847 1de3 06       		.byte	0x6
 7848 1de4 26       		.uleb128 0x26
 7849 1de5 01       		.uleb128 0x1
ARM GAS  /tmp/ccMmeZ0f.s 			page 140


 7850 1de6 51       		.byte	0x51
 7851 1de7 03       		.uleb128 0x3
 7852 1de8 0A       		.byte	0xa
 7853 1de9 7001     		.2byte	0x170
 7854 1deb 26       		.uleb128 0x26
 7855 1dec 01       		.uleb128 0x1
 7856 1ded 53       		.byte	0x53
 7857 1dee 02       		.uleb128 0x2
 7858 1def 76       		.byte	0x76
 7859 1df0 00       		.sleb128 0
 7860 1df1 26       		.uleb128 0x26
 7861 1df2 02       		.uleb128 0x2
 7862 1df3 7D       		.byte	0x7d
 7863 1df4 00       		.sleb128 0
 7864 1df5 05       		.uleb128 0x5
 7865 1df6 03       		.byte	0x3
 7866 1df7 08000000 		.4byte	.LC9
 7867 1dfb 00       		.byte	0
 7868 1dfc 2E       		.uleb128 0x2e
 7869 1dfd 90000000 		.4byte	.LVL60
 7870 1e01 CB2C0000 		.4byte	0x2ccb
 7871 1e05 211E0000 		.4byte	0x1e21
 7872 1e09 26       		.uleb128 0x26
 7873 1e0a 01       		.uleb128 0x1
 7874 1e0b 51       		.byte	0x51
 7875 1e0c 03       		.uleb128 0x3
 7876 1e0d 0A       		.byte	0xa
 7877 1e0e 7001     		.2byte	0x170
 7878 1e10 26       		.uleb128 0x26
 7879 1e11 01       		.uleb128 0x1
 7880 1e12 53       		.byte	0x53
 7881 1e13 02       		.uleb128 0x2
 7882 1e14 76       		.byte	0x76
 7883 1e15 00       		.sleb128 0
 7884 1e16 26       		.uleb128 0x26
 7885 1e17 02       		.uleb128 0x2
 7886 1e18 7D       		.byte	0x7d
 7887 1e19 00       		.sleb128 0
 7888 1e1a 05       		.uleb128 0x5
 7889 1e1b 03       		.byte	0x3
 7890 1e1c 0C000000 		.4byte	.LC10
 7891 1e20 00       		.byte	0
 7892 1e21 2E       		.uleb128 0x2e
 7893 1e22 9E000000 		.4byte	.LVL61
 7894 1e26 092D0000 		.4byte	0x2d09
 7895 1e2a 351E0000 		.4byte	0x1e35
 7896 1e2e 26       		.uleb128 0x26
 7897 1e2f 01       		.uleb128 0x1
 7898 1e30 50       		.byte	0x50
 7899 1e31 02       		.uleb128 0x2
 7900 1e32 74       		.byte	0x74
 7901 1e33 00       		.sleb128 0
 7902 1e34 00       		.byte	0
 7903 1e35 2E       		.uleb128 0x2e
 7904 1e36 A4000000 		.4byte	.LVL62
 7905 1e3a 092D0000 		.4byte	0x2d09
 7906 1e3e 491E0000 		.4byte	0x1e49
ARM GAS  /tmp/ccMmeZ0f.s 			page 141


 7907 1e42 26       		.uleb128 0x26
 7908 1e43 01       		.uleb128 0x1
 7909 1e44 50       		.byte	0x50
 7910 1e45 02       		.uleb128 0x2
 7911 1e46 74       		.byte	0x74
 7912 1e47 00       		.sleb128 0
 7913 1e48 00       		.byte	0
 7914 1e49 2E       		.uleb128 0x2e
 7915 1e4a AA000000 		.4byte	.LVL63
 7916 1e4e 092D0000 		.4byte	0x2d09
 7917 1e52 5D1E0000 		.4byte	0x1e5d
 7918 1e56 26       		.uleb128 0x26
 7919 1e57 01       		.uleb128 0x1
 7920 1e58 50       		.byte	0x50
 7921 1e59 02       		.uleb128 0x2
 7922 1e5a 74       		.byte	0x74
 7923 1e5b 00       		.sleb128 0
 7924 1e5c 00       		.byte	0
 7925 1e5d 2E       		.uleb128 0x2e
 7926 1e5e B0000000 		.4byte	.LVL64
 7927 1e62 092D0000 		.4byte	0x2d09
 7928 1e66 711E0000 		.4byte	0x1e71
 7929 1e6a 26       		.uleb128 0x26
 7930 1e6b 01       		.uleb128 0x1
 7931 1e6c 50       		.byte	0x50
 7932 1e6d 02       		.uleb128 0x2
 7933 1e6e 74       		.byte	0x74
 7934 1e6f 00       		.sleb128 0
 7935 1e70 00       		.byte	0
 7936 1e71 2E       		.uleb128 0x2e
 7937 1e72 B6000000 		.4byte	.LVL65
 7938 1e76 092D0000 		.4byte	0x2d09
 7939 1e7a 851E0000 		.4byte	0x1e85
 7940 1e7e 26       		.uleb128 0x26
 7941 1e7f 01       		.uleb128 0x1
 7942 1e80 50       		.byte	0x50
 7943 1e81 02       		.uleb128 0x2
 7944 1e82 74       		.byte	0x74
 7945 1e83 00       		.sleb128 0
 7946 1e84 00       		.byte	0
 7947 1e85 2D       		.uleb128 0x2d
 7948 1e86 BA000000 		.4byte	.LVL66
 7949 1e8a F02C0000 		.4byte	0x2cf0
 7950 1e8e 31       		.uleb128 0x31
 7951 1e8f C8000000 		.4byte	.LVL67
 7952 1e93 FC2C0000 		.4byte	0x2cfc
 7953 1e97 26       		.uleb128 0x26
 7954 1e98 01       		.uleb128 0x1
 7955 1e99 50       		.byte	0x50
 7956 1e9a 05       		.uleb128 0x5
 7957 1e9b 03       		.byte	0x3
 7958 1e9c 10000000 		.4byte	.LC11
 7959 1ea0 26       		.uleb128 0x26
 7960 1ea1 01       		.uleb128 0x1
 7961 1ea2 51       		.byte	0x51
 7962 1ea3 05       		.uleb128 0x5
 7963 1ea4 03       		.byte	0x3
ARM GAS  /tmp/ccMmeZ0f.s 			page 142


 7964 1ea5 14000000 		.4byte	.LC6
 7965 1ea9 00       		.byte	0
 7966 1eaa 00       		.byte	0
 7967 1eab 39       		.uleb128 0x39
 7968 1eac F1060000 		.4byte	.LASF156
 7969 1eb0 01       		.byte	0x1
 7970 1eb1 AD       		.byte	0xad
 7971 1eb2 0D       		.byte	0xd
 7972 1eb3 01       		.byte	0x1
 7973 1eb4 37       		.uleb128 0x37
 7974 1eb5 95080000 		.4byte	.LASF157
 7975 1eb9 01       		.byte	0x1
 7976 1eba 73       		.byte	0x73
 7977 1ebb 0D       		.byte	0xd
 7978 1ebc 00000000 		.4byte	.LFB410
 7979 1ec0 C4000000 		.4byte	.LFE410-.LFB410
 7980 1ec4 01       		.uleb128 0x1
 7981 1ec5 9C       		.byte	0x9c
 7982 1ec6 D6230000 		.4byte	0x23d6
 7983 1eca 3A       		.uleb128 0x3a
 7984 1ecb 38000000 		.4byte	.Ldebug_ranges0+0x38
 7985 1ecf 8A200000 		.4byte	0x208a
 7986 1ed3 3B       		.uleb128 0x3b
 7987 1ed4 6D736700 		.ascii	"msg\000"
 7988 1ed8 01       		.byte	0x1
 7989 1ed9 79       		.byte	0x79
 7990 1eda 0B       		.byte	0xb
 7991 1edb 30010000 		.4byte	0x130
 7992 1edf 68050000 		.4byte	.LLST3
 7993 1ee3 62050000 		.4byte	.LVUS3
 7994 1ee7 38       		.uleb128 0x38
 7995 1ee8 33270000 		.4byte	0x2733
 7996 1eec 16000000 		.4byte	.LBI396
 7997 1ef0 0100     		.2byte	.LVU88
 7998 1ef2 A0000000 		.4byte	.Ldebug_ranges0+0xa0
 7999 1ef6 01       		.byte	0x1
 8000 1ef7 7C       		.byte	0x7c
 8001 1ef8 05       		.byte	0x5
 8002 1ef9 471F0000 		.4byte	0x1f47
 8003 1efd 27       		.uleb128 0x27
 8004 1efe A0280000 		.4byte	0x28a0
 8005 1f02 16000000 		.4byte	.LBI397
 8006 1f06 0300     		.2byte	.LVU90
 8007 1f08 D0000000 		.4byte	.Ldebug_ranges0+0xd0
 8008 1f0c 06       		.byte	0x6
 8009 1f0d 3F02     		.2byte	0x23f
 8010 1f0f 03       		.byte	0x3
 8011 1f10 27       		.uleb128 0x27
 8012 1f11 B4280000 		.4byte	0x28b4
 8013 1f15 16000000 		.4byte	.LBI398
 8014 1f19 0500     		.2byte	.LVU92
 8015 1f1b F8000000 		.4byte	.Ldebug_ranges0+0xf8
 8016 1f1f 07       		.byte	0x7
 8017 1f20 9901     		.2byte	0x199
 8018 1f22 03       		.byte	0x3
 8019 1f23 27       		.uleb128 0x27
 8020 1f24 BE280000 		.4byte	0x28be
ARM GAS  /tmp/ccMmeZ0f.s 			page 143


 8021 1f28 16000000 		.4byte	.LBI399
 8022 1f2c 0700     		.2byte	.LVU94
 8023 1f2e 18010000 		.4byte	.Ldebug_ranges0+0x118
 8024 1f32 08       		.byte	0x8
 8025 1f33 2E03     		.2byte	0x32e
 8026 1f35 03       		.byte	0x3
 8027 1f36 24       		.uleb128 0x24
 8028 1f37 CC280000 		.4byte	0x28cc
 8029 1f3b 93050000 		.4byte	.LLST4
 8030 1f3f 91050000 		.4byte	.LVUS4
 8031 1f43 00       		.byte	0
 8032 1f44 00       		.byte	0
 8033 1f45 00       		.byte	0
 8034 1f46 00       		.byte	0
 8035 1f47 3C       		.uleb128 0x3c
 8036 1f48 0B280000 		.4byte	0x280b
 8037 1f4c 1A000000 		.4byte	.LBI412
 8038 1f50 0400     		.2byte	.LVU100
 8039 1f52 1A000000 		.4byte	.LBB412
 8040 1f56 00000000 		.4byte	.LBE412-.LBB412
 8041 1f5a 01       		.byte	0x1
 8042 1f5b 7C       		.byte	0x7c
 8043 1f5c 05       		.byte	0x5
 8044 1f5d 6F1F0000 		.4byte	0x1f6f
 8045 1f61 24       		.uleb128 0x24
 8046 1f62 1C280000 		.4byte	0x281c
 8047 1f66 AA050000 		.4byte	.LLST5
 8048 1f6a A8050000 		.4byte	.LVUS5
 8049 1f6e 00       		.byte	0
 8050 1f6f 38       		.uleb128 0x38
 8051 1f70 29270000 		.4byte	0x2729
 8052 1f74 2A000000 		.4byte	.LBI414
 8053 1f78 0100     		.2byte	.LVU107
 8054 1f7a 30010000 		.4byte	.Ldebug_ranges0+0x130
 8055 1f7e 01       		.byte	0x1
 8056 1f7f 7C       		.byte	0x7c
 8057 1f80 05       		.byte	0x5
 8058 1f81 D91F0000 		.4byte	0x1fd9
 8059 1f85 27       		.uleb128 0x27
 8060 1f86 73280000 		.4byte	0x2873
 8061 1f8a 2A000000 		.4byte	.LBI415
 8062 1f8e 0300     		.2byte	.LVU109
 8063 1f90 38010000 		.4byte	.Ldebug_ranges0+0x138
 8064 1f94 06       		.byte	0x6
 8065 1f95 4A02     		.2byte	0x24a
 8066 1f97 03       		.byte	0x3
 8067 1f98 29       		.uleb128 0x29
 8068 1f99 38010000 		.4byte	.Ldebug_ranges0+0x138
 8069 1f9d 27       		.uleb128 0x27
 8070 1f9e AA280000 		.4byte	0x28aa
 8071 1fa2 2A000000 		.4byte	.LBI417
 8072 1fa6 0A00     		.2byte	.LVU116
 8073 1fa8 38010000 		.4byte	.Ldebug_ranges0+0x138
 8074 1fac 07       		.byte	0x7
 8075 1fad B201     		.2byte	0x1b2
 8076 1faf 03       		.byte	0x3
 8077 1fb0 2A       		.uleb128 0x2a
ARM GAS  /tmp/ccMmeZ0f.s 			page 144


 8078 1fb1 BE280000 		.4byte	0x28be
 8079 1fb5 2A000000 		.4byte	.LBI418
 8080 1fb9 0C00     		.2byte	.LVU118
 8081 1fbb 2A000000 		.4byte	.LBB418
 8082 1fbf 06000000 		.4byte	.LBE418-.LBB418
 8083 1fc3 08       		.byte	0x8
 8084 1fc4 4103     		.2byte	0x341
 8085 1fc6 03       		.byte	0x3
 8086 1fc7 24       		.uleb128 0x24
 8087 1fc8 CC280000 		.4byte	0x28cc
 8088 1fcc C4050000 		.4byte	.LLST6
 8089 1fd0 C2050000 		.4byte	.LVUS6
 8090 1fd4 00       		.byte	0
 8091 1fd5 00       		.byte	0
 8092 1fd6 00       		.byte	0
 8093 1fd7 00       		.byte	0
 8094 1fd8 00       		.byte	0
 8095 1fd9 38       		.uleb128 0x38
 8096 1fda 29270000 		.4byte	0x2729
 8097 1fde 34000000 		.4byte	.LBI425
 8098 1fe2 0100     		.2byte	.LVU125
 8099 1fe4 50010000 		.4byte	.Ldebug_ranges0+0x150
 8100 1fe8 01       		.byte	0x1
 8101 1fe9 7C       		.byte	0x7c
 8102 1fea 05       		.byte	0x5
 8103 1feb 43200000 		.4byte	0x2043
 8104 1fef 27       		.uleb128 0x27
 8105 1ff0 73280000 		.4byte	0x2873
 8106 1ff4 34000000 		.4byte	.LBI426
 8107 1ff8 0300     		.2byte	.LVU127
 8108 1ffa 58010000 		.4byte	.Ldebug_ranges0+0x158
 8109 1ffe 06       		.byte	0x6
 8110 1fff 4A02     		.2byte	0x24a
 8111 2001 03       		.byte	0x3
 8112 2002 29       		.uleb128 0x29
 8113 2003 58010000 		.4byte	.Ldebug_ranges0+0x158
 8114 2007 27       		.uleb128 0x27
 8115 2008 AA280000 		.4byte	0x28aa
 8116 200c 34000000 		.4byte	.LBI428
 8117 2010 0A00     		.2byte	.LVU134
 8118 2012 58010000 		.4byte	.Ldebug_ranges0+0x158
 8119 2016 07       		.byte	0x7
 8120 2017 B201     		.2byte	0x1b2
 8121 2019 03       		.byte	0x3
 8122 201a 2A       		.uleb128 0x2a
 8123 201b BE280000 		.4byte	0x28be
 8124 201f 34000000 		.4byte	.LBI429
 8125 2023 0C00     		.2byte	.LVU136
 8126 2025 34000000 		.4byte	.LBB429
 8127 2029 04000000 		.4byte	.LBE429-.LBB429
 8128 202d 08       		.byte	0x8
 8129 202e 4103     		.2byte	0x341
 8130 2030 03       		.byte	0x3
 8131 2031 24       		.uleb128 0x24
 8132 2032 CC280000 		.4byte	0x28cc
 8133 2036 DA050000 		.4byte	.LLST7
 8134 203a D8050000 		.4byte	.LVUS7
ARM GAS  /tmp/ccMmeZ0f.s 			page 145


 8135 203e 00       		.byte	0
 8136 203f 00       		.byte	0
 8137 2040 00       		.byte	0
 8138 2041 00       		.byte	0
 8139 2042 00       		.byte	0
 8140 2043 2E       		.uleb128 0x2e
 8141 2044 12000000 		.4byte	.LVL16
 8142 2048 9A2C0000 		.4byte	0x2c9a
 8143 204c 57200000 		.4byte	0x2057
 8144 2050 26       		.uleb128 0x26
 8145 2051 01       		.uleb128 0x1
 8146 2052 50       		.byte	0x50
 8147 2053 02       		.uleb128 0x2
 8148 2054 74       		.byte	0x74
 8149 2055 00       		.sleb128 0
 8150 2056 00       		.byte	0
 8151 2057 2E       		.uleb128 0x2e
 8152 2058 28000000 		.4byte	.LVL20
 8153 205c BE2C0000 		.4byte	0x2cbe
 8154 2060 6E200000 		.4byte	0x206e
 8155 2064 26       		.uleb128 0x26
 8156 2065 01       		.uleb128 0x1
 8157 2066 51       		.byte	0x51
 8158 2067 05       		.uleb128 0x5
 8159 2068 03       		.byte	0x3
 8160 2069 00000000 		.4byte	.LC2
 8161 206d 00       		.byte	0
 8162 206e 25       		.uleb128 0x25
 8163 206f 44000000 		.4byte	.LVL25
 8164 2073 BE2C0000 		.4byte	0x2cbe
 8165 2077 26       		.uleb128 0x26
 8166 2078 01       		.uleb128 0x1
 8167 2079 50       		.byte	0x50
 8168 207a 04       		.uleb128 0x4
 8169 207b 75       		.byte	0x75
 8170 207c 00       		.sleb128 0
 8171 207d 30       		.byte	0x30
 8172 207e 29       		.byte	0x29
 8173 207f 26       		.uleb128 0x26
 8174 2080 01       		.uleb128 0x1
 8175 2081 51       		.byte	0x51
 8176 2082 05       		.uleb128 0x5
 8177 2083 03       		.byte	0x3
 8178 2084 14000000 		.4byte	.LC3
 8179 2088 00       		.byte	0
 8180 2089 00       		.byte	0
 8181 208a 38       		.uleb128 0x38
 8182 208b 33270000 		.4byte	0x2733
 8183 208f 58000000 		.4byte	.LBI447
 8184 2093 0100     		.2byte	.LVU150
 8185 2095 70010000 		.4byte	.Ldebug_ranges0+0x170
 8186 2099 01       		.byte	0x1
 8187 209a 86       		.byte	0x86
 8188 209b 05       		.byte	0x5
 8189 209c EE200000 		.4byte	0x20ee
 8190 20a0 27       		.uleb128 0x27
 8191 20a1 A0280000 		.4byte	0x28a0
ARM GAS  /tmp/ccMmeZ0f.s 			page 146


 8192 20a5 58000000 		.4byte	.LBI448
 8193 20a9 0300     		.2byte	.LVU152
 8194 20ab 78010000 		.4byte	.Ldebug_ranges0+0x178
 8195 20af 06       		.byte	0x6
 8196 20b0 3F02     		.2byte	0x23f
 8197 20b2 03       		.byte	0x3
 8198 20b3 27       		.uleb128 0x27
 8199 20b4 B4280000 		.4byte	0x28b4
 8200 20b8 58000000 		.4byte	.LBI449
 8201 20bc 0500     		.2byte	.LVU154
 8202 20be 80010000 		.4byte	.Ldebug_ranges0+0x180
 8203 20c2 07       		.byte	0x7
 8204 20c3 9901     		.2byte	0x199
 8205 20c5 03       		.byte	0x3
 8206 20c6 2A       		.uleb128 0x2a
 8207 20c7 BE280000 		.4byte	0x28be
 8208 20cb 58000000 		.4byte	.LBI450
 8209 20cf 0700     		.2byte	.LVU156
 8210 20d1 58000000 		.4byte	.LBB450
 8211 20d5 04000000 		.4byte	.LBE450-.LBB450
 8212 20d9 08       		.byte	0x8
 8213 20da 2E03     		.2byte	0x32e
 8214 20dc 03       		.byte	0x3
 8215 20dd 24       		.uleb128 0x24
 8216 20de CC280000 		.4byte	0x28cc
 8217 20e2 F0050000 		.4byte	.LLST8
 8218 20e6 EE050000 		.4byte	.LVUS8
 8219 20ea 00       		.byte	0
 8220 20eb 00       		.byte	0
 8221 20ec 00       		.byte	0
 8222 20ed 00       		.byte	0
 8223 20ee 3C       		.uleb128 0x3c
 8224 20ef 0B280000 		.4byte	0x280b
 8225 20f3 5C000000 		.4byte	.LBI458
 8226 20f7 0400     		.2byte	.LVU162
 8227 20f9 5C000000 		.4byte	.LBB458
 8228 20fd 00000000 		.4byte	.LBE458-.LBB458
 8229 2101 01       		.byte	0x1
 8230 2102 86       		.byte	0x86
 8231 2103 05       		.byte	0x5
 8232 2104 16210000 		.4byte	0x2116
 8233 2108 24       		.uleb128 0x24
 8234 2109 1C280000 		.4byte	0x281c
 8235 210d 07060000 		.4byte	.LLST9
 8236 2111 05060000 		.4byte	.LVUS9
 8237 2115 00       		.byte	0
 8238 2116 38       		.uleb128 0x38
 8239 2117 29270000 		.4byte	0x2729
 8240 211b 72000000 		.4byte	.LBI460
 8241 211f 0100     		.2byte	.LVU168
 8242 2121 98010000 		.4byte	.Ldebug_ranges0+0x198
 8243 2125 01       		.byte	0x1
 8244 2126 86       		.byte	0x86
 8245 2127 05       		.byte	0x5
 8246 2128 80210000 		.4byte	0x2180
 8247 212c 27       		.uleb128 0x27
 8248 212d 73280000 		.4byte	0x2873
ARM GAS  /tmp/ccMmeZ0f.s 			page 147


 8249 2131 72000000 		.4byte	.LBI461
 8250 2135 0300     		.2byte	.LVU170
 8251 2137 A0010000 		.4byte	.Ldebug_ranges0+0x1a0
 8252 213b 06       		.byte	0x6
 8253 213c 4A02     		.2byte	0x24a
 8254 213e 03       		.byte	0x3
 8255 213f 29       		.uleb128 0x29
 8256 2140 A0010000 		.4byte	.Ldebug_ranges0+0x1a0
 8257 2144 27       		.uleb128 0x27
 8258 2145 AA280000 		.4byte	0x28aa
 8259 2149 72000000 		.4byte	.LBI463
 8260 214d 0A00     		.2byte	.LVU177
 8261 214f A0010000 		.4byte	.Ldebug_ranges0+0x1a0
 8262 2153 07       		.byte	0x7
 8263 2154 B201     		.2byte	0x1b2
 8264 2156 03       		.byte	0x3
 8265 2157 2A       		.uleb128 0x2a
 8266 2158 BE280000 		.4byte	0x28be
 8267 215c 72000000 		.4byte	.LBI464
 8268 2160 0C00     		.2byte	.LVU179
 8269 2162 72000000 		.4byte	.LBB464
 8270 2166 04000000 		.4byte	.LBE464-.LBB464
 8271 216a 08       		.byte	0x8
 8272 216b 4103     		.2byte	0x341
 8273 216d 03       		.byte	0x3
 8274 216e 24       		.uleb128 0x24
 8275 216f CC280000 		.4byte	0x28cc
 8276 2173 21060000 		.4byte	.LLST10
 8277 2177 1F060000 		.4byte	.LVUS10
 8278 217b 00       		.byte	0
 8279 217c 00       		.byte	0
 8280 217d 00       		.byte	0
 8281 217e 00       		.byte	0
 8282 217f 00       		.byte	0
 8283 2180 38       		.uleb128 0x38
 8284 2181 29270000 		.4byte	0x2729
 8285 2185 7A000000 		.4byte	.LBI471
 8286 2189 0100     		.2byte	.LVU185
 8287 218b B8010000 		.4byte	.Ldebug_ranges0+0x1b8
 8288 218f 01       		.byte	0x1
 8289 2190 86       		.byte	0x86
 8290 2191 05       		.byte	0x5
 8291 2192 EA210000 		.4byte	0x21ea
 8292 2196 27       		.uleb128 0x27
 8293 2197 73280000 		.4byte	0x2873
 8294 219b 7A000000 		.4byte	.LBI472
 8295 219f 0300     		.2byte	.LVU187
 8296 21a1 C0010000 		.4byte	.Ldebug_ranges0+0x1c0
 8297 21a5 06       		.byte	0x6
 8298 21a6 4A02     		.2byte	0x24a
 8299 21a8 03       		.byte	0x3
 8300 21a9 29       		.uleb128 0x29
 8301 21aa C0010000 		.4byte	.Ldebug_ranges0+0x1c0
 8302 21ae 27       		.uleb128 0x27
 8303 21af AA280000 		.4byte	0x28aa
 8304 21b3 7A000000 		.4byte	.LBI474
 8305 21b7 0A00     		.2byte	.LVU194
ARM GAS  /tmp/ccMmeZ0f.s 			page 148


 8306 21b9 C0010000 		.4byte	.Ldebug_ranges0+0x1c0
 8307 21bd 07       		.byte	0x7
 8308 21be B201     		.2byte	0x1b2
 8309 21c0 03       		.byte	0x3
 8310 21c1 2A       		.uleb128 0x2a
 8311 21c2 BE280000 		.4byte	0x28be
 8312 21c6 7A000000 		.4byte	.LBI475
 8313 21ca 0C00     		.2byte	.LVU196
 8314 21cc 7A000000 		.4byte	.LBB475
 8315 21d0 04000000 		.4byte	.LBE475-.LBB475
 8316 21d4 08       		.byte	0x8
 8317 21d5 4103     		.2byte	0x341
 8318 21d7 03       		.byte	0x3
 8319 21d8 24       		.uleb128 0x24
 8320 21d9 CC280000 		.4byte	0x28cc
 8321 21dd 37060000 		.4byte	.LLST11
 8322 21e1 35060000 		.4byte	.LVUS11
 8323 21e5 00       		.byte	0
 8324 21e6 00       		.byte	0
 8325 21e7 00       		.byte	0
 8326 21e8 00       		.byte	0
 8327 21e9 00       		.byte	0
 8328 21ea 38       		.uleb128 0x38
 8329 21eb 2E280000 		.4byte	0x282e
 8330 21ef 8A000000 		.4byte	.LBI482
 8331 21f3 0100     		.2byte	.LVU206
 8332 21f5 D8010000 		.4byte	.Ldebug_ranges0+0x1d8
 8333 21f9 01       		.byte	0x1
 8334 21fa 8E       		.byte	0x8e
 8335 21fb 05       		.byte	0x5
 8336 21fc 37220000 		.4byte	0x2237
 8337 2200 24       		.uleb128 0x24
 8338 2201 46280000 		.4byte	0x2846
 8339 2205 4D060000 		.4byte	.LLST12
 8340 2209 4B060000 		.4byte	.LVUS12
 8341 220d 24       		.uleb128 0x24
 8342 220e 3B280000 		.4byte	0x283b
 8343 2212 63060000 		.4byte	.LLST13
 8344 2216 61060000 		.4byte	.LVUS13
 8345 221a 25       		.uleb128 0x25
 8346 221b 8E000000 		.4byte	.LVL35
 8347 221f 8E2C0000 		.4byte	0x2c8e
 8348 2223 26       		.uleb128 0x26
 8349 2224 01       		.uleb128 0x1
 8350 2225 50       		.byte	0x50
 8351 2226 02       		.uleb128 0x2
 8352 2227 74       		.byte	0x74
 8353 2228 00       		.sleb128 0
 8354 2229 26       		.uleb128 0x26
 8355 222a 01       		.uleb128 0x1
 8356 222b 51       		.byte	0x51
 8357 222c 02       		.uleb128 0x2
 8358 222d 79       		.byte	0x79
 8359 222e 00       		.sleb128 0
 8360 222f 26       		.uleb128 0x26
 8361 2230 01       		.uleb128 0x1
 8362 2231 52       		.byte	0x52
ARM GAS  /tmp/ccMmeZ0f.s 			page 149


 8363 2232 02       		.uleb128 0x2
 8364 2233 09       		.byte	0x9
 8365 2234 FE       		.byte	0xfe
 8366 2235 00       		.byte	0
 8367 2236 00       		.byte	0
 8368 2237 38       		.uleb128 0x38
 8369 2238 33270000 		.4byte	0x2733
 8370 223c 8E000000 		.4byte	.LBI486
 8371 2240 0200     		.2byte	.LVU210
 8372 2242 F0010000 		.4byte	.Ldebug_ranges0+0x1f0
 8373 2246 01       		.byte	0x1
 8374 2247 8F       		.byte	0x8f
 8375 2248 05       		.byte	0x5
 8376 2249 9B220000 		.4byte	0x229b
 8377 224d 27       		.uleb128 0x27
 8378 224e A0280000 		.4byte	0x28a0
 8379 2252 8E000000 		.4byte	.LBI487
 8380 2256 0400     		.2byte	.LVU212
 8381 2258 F8010000 		.4byte	.Ldebug_ranges0+0x1f8
 8382 225c 06       		.byte	0x6
 8383 225d 3F02     		.2byte	0x23f
 8384 225f 03       		.byte	0x3
 8385 2260 27       		.uleb128 0x27
 8386 2261 B4280000 		.4byte	0x28b4
 8387 2265 8E000000 		.4byte	.LBI488
 8388 2269 0600     		.2byte	.LVU214
 8389 226b 00020000 		.4byte	.Ldebug_ranges0+0x200
 8390 226f 07       		.byte	0x7
 8391 2270 9901     		.2byte	0x199
 8392 2272 03       		.byte	0x3
 8393 2273 2A       		.uleb128 0x2a
 8394 2274 BE280000 		.4byte	0x28be
 8395 2278 8E000000 		.4byte	.LBI489
 8396 227c 0800     		.2byte	.LVU216
 8397 227e 8E000000 		.4byte	.LBB489
 8398 2282 04000000 		.4byte	.LBE489-.LBB489
 8399 2286 08       		.byte	0x8
 8400 2287 2E03     		.2byte	0x32e
 8401 2289 03       		.byte	0x3
 8402 228a 24       		.uleb128 0x24
 8403 228b CC280000 		.4byte	0x28cc
 8404 228f 7D060000 		.4byte	.LLST14
 8405 2293 7B060000 		.4byte	.LVUS14
 8406 2297 00       		.byte	0
 8407 2298 00       		.byte	0
 8408 2299 00       		.byte	0
 8409 229a 00       		.byte	0
 8410 229b 3C       		.uleb128 0x3c
 8411 229c 0B280000 		.4byte	0x280b
 8412 22a0 92000000 		.4byte	.LBI497
 8413 22a4 0400     		.2byte	.LVU222
 8414 22a6 92000000 		.4byte	.LBB497
 8415 22aa 00000000 		.4byte	.LBE497-.LBB497
 8416 22ae 01       		.byte	0x1
 8417 22af 8F       		.byte	0x8f
 8418 22b0 05       		.byte	0x5
 8419 22b1 C3220000 		.4byte	0x22c3
ARM GAS  /tmp/ccMmeZ0f.s 			page 150


 8420 22b5 24       		.uleb128 0x24
 8421 22b6 1C280000 		.4byte	0x281c
 8422 22ba 94060000 		.4byte	.LLST15
 8423 22be 92060000 		.4byte	.LVUS15
 8424 22c2 00       		.byte	0
 8425 22c3 38       		.uleb128 0x38
 8426 22c4 29270000 		.4byte	0x2729
 8427 22c8 A6000000 		.4byte	.LBI499
 8428 22cc 0100     		.2byte	.LVU228
 8429 22ce 18020000 		.4byte	.Ldebug_ranges0+0x218
 8430 22d2 01       		.byte	0x1
 8431 22d3 8F       		.byte	0x8f
 8432 22d4 05       		.byte	0x5
 8433 22d5 2D230000 		.4byte	0x232d
 8434 22d9 27       		.uleb128 0x27
 8435 22da 73280000 		.4byte	0x2873
 8436 22de A6000000 		.4byte	.LBI501
 8437 22e2 0300     		.2byte	.LVU230
 8438 22e4 38020000 		.4byte	.Ldebug_ranges0+0x238
 8439 22e8 06       		.byte	0x6
 8440 22e9 4A02     		.2byte	0x24a
 8441 22eb 03       		.byte	0x3
 8442 22ec 29       		.uleb128 0x29
 8443 22ed 38020000 		.4byte	.Ldebug_ranges0+0x238
 8444 22f1 27       		.uleb128 0x27
 8445 22f2 AA280000 		.4byte	0x28aa
 8446 22f6 A6000000 		.4byte	.LBI503
 8447 22fa 0A00     		.2byte	.LVU237
 8448 22fc 38020000 		.4byte	.Ldebug_ranges0+0x238
 8449 2300 07       		.byte	0x7
 8450 2301 B201     		.2byte	0x1b2
 8451 2303 03       		.byte	0x3
 8452 2304 2A       		.uleb128 0x2a
 8453 2305 BE280000 		.4byte	0x28be
 8454 2309 A6000000 		.4byte	.LBI504
 8455 230d 0C00     		.2byte	.LVU239
 8456 230f A6000000 		.4byte	.LBB504
 8457 2313 04000000 		.4byte	.LBE504-.LBB504
 8458 2317 08       		.byte	0x8
 8459 2318 4103     		.2byte	0x341
 8460 231a 03       		.byte	0x3
 8461 231b 24       		.uleb128 0x24
 8462 231c CC280000 		.4byte	0x28cc
 8463 2320 AE060000 		.4byte	.LLST16
 8464 2324 AC060000 		.4byte	.LVUS16
 8465 2328 00       		.byte	0
 8466 2329 00       		.byte	0
 8467 232a 00       		.byte	0
 8468 232b 00       		.byte	0
 8469 232c 00       		.byte	0
 8470 232d 38       		.uleb128 0x38
 8471 232e 29270000 		.4byte	0x2729
 8472 2332 AC000000 		.4byte	.LBI513
 8473 2336 0100     		.2byte	.LVU247
 8474 2338 50020000 		.4byte	.Ldebug_ranges0+0x250
 8475 233c 01       		.byte	0x1
 8476 233d 8F       		.byte	0x8f
ARM GAS  /tmp/ccMmeZ0f.s 			page 151


 8477 233e 05       		.byte	0x5
 8478 233f 97230000 		.4byte	0x2397
 8479 2343 27       		.uleb128 0x27
 8480 2344 73280000 		.4byte	0x2873
 8481 2348 AC000000 		.4byte	.LBI514
 8482 234c 0300     		.2byte	.LVU249
 8483 234e 58020000 		.4byte	.Ldebug_ranges0+0x258
 8484 2352 06       		.byte	0x6
 8485 2353 4A02     		.2byte	0x24a
 8486 2355 03       		.byte	0x3
 8487 2356 29       		.uleb128 0x29
 8488 2357 58020000 		.4byte	.Ldebug_ranges0+0x258
 8489 235b 27       		.uleb128 0x27
 8490 235c AA280000 		.4byte	0x28aa
 8491 2360 AC000000 		.4byte	.LBI516
 8492 2364 0A00     		.2byte	.LVU256
 8493 2366 58020000 		.4byte	.Ldebug_ranges0+0x258
 8494 236a 07       		.byte	0x7
 8495 236b B201     		.2byte	0x1b2
 8496 236d 03       		.byte	0x3
 8497 236e 2A       		.uleb128 0x2a
 8498 236f BE280000 		.4byte	0x28be
 8499 2373 AC000000 		.4byte	.LBI517
 8500 2377 0C00     		.2byte	.LVU258
 8501 2379 AC000000 		.4byte	.LBB517
 8502 237d 04000000 		.4byte	.LBE517-.LBB517
 8503 2381 08       		.byte	0x8
 8504 2382 4103     		.2byte	0x341
 8505 2384 03       		.byte	0x3
 8506 2385 24       		.uleb128 0x24
 8507 2386 CC280000 		.4byte	0x28cc
 8508 238a C4060000 		.4byte	.LLST17
 8509 238e C2060000 		.4byte	.LVUS17
 8510 2392 00       		.byte	0
 8511 2393 00       		.byte	0
 8512 2394 00       		.byte	0
 8513 2395 00       		.byte	0
 8514 2396 00       		.byte	0
 8515 2397 2E       		.uleb128 0x2e
 8516 2398 58000000 		.4byte	.LVL27
 8517 239c 092D0000 		.4byte	0x2d09
 8518 23a0 AB230000 		.4byte	0x23ab
 8519 23a4 26       		.uleb128 0x26
 8520 23a5 01       		.uleb128 0x1
 8521 23a6 50       		.byte	0x50
 8522 23a7 02       		.uleb128 0x2
 8523 23a8 74       		.byte	0x74
 8524 23a9 00       		.sleb128 0
 8525 23aa 00       		.byte	0
 8526 23ab 2E       		.uleb128 0x2e
 8527 23ac 6E000000 		.4byte	.LVL29
 8528 23b0 BE2C0000 		.4byte	0x2cbe
 8529 23b4 C2230000 		.4byte	0x23c2
 8530 23b8 26       		.uleb128 0x26
 8531 23b9 01       		.uleb128 0x1
 8532 23ba 51       		.byte	0x51
 8533 23bb 05       		.uleb128 0x5
ARM GAS  /tmp/ccMmeZ0f.s 			page 152


 8534 23bc 03       		.byte	0x3
 8535 23bd 00000000 		.4byte	.LC2
 8536 23c1 00       		.byte	0
 8537 23c2 25       		.uleb128 0x25
 8538 23c3 A4000000 		.4byte	.LVL37
 8539 23c7 BE2C0000 		.4byte	0x2cbe
 8540 23cb 26       		.uleb128 0x26
 8541 23cc 01       		.uleb128 0x1
 8542 23cd 51       		.byte	0x51
 8543 23ce 05       		.uleb128 0x5
 8544 23cf 03       		.byte	0x3
 8545 23d0 00000000 		.4byte	.LC2
 8546 23d4 00       		.byte	0
 8547 23d5 00       		.byte	0
 8548 23d6 37       		.uleb128 0x37
 8549 23d7 77020000 		.4byte	.LASF158
 8550 23db 01       		.byte	0x1
 8551 23dc 6F       		.byte	0x6f
 8552 23dd 0D       		.byte	0xd
 8553 23de 00000000 		.4byte	.LFB409
 8554 23e2 10000000 		.4byte	.LFE409-.LFB409
 8555 23e6 01       		.uleb128 0x1
 8556 23e7 9C       		.byte	0x9c
 8557 23e8 34240000 		.4byte	0x2434
 8558 23ec 3D       		.uleb128 0x3d
 8559 23ed 2E280000 		.4byte	0x282e
 8560 23f1 00000000 		.4byte	.LBI379
 8561 23f5 0200     		.2byte	.LVU6
 8562 23f7 00000000 		.4byte	.LBB379
 8563 23fb 10000000 		.4byte	.LBE379-.LBB379
 8564 23ff 01       		.byte	0x1
 8565 2400 70       		.byte	0x70
 8566 2401 03       		.byte	0x3
 8567 2402 3E       		.uleb128 0x3e
 8568 2403 46280000 		.4byte	0x2846
 8569 2407 00       		.byte	0
 8570 2408 3F       		.uleb128 0x3f
 8571 2409 3B280000 		.4byte	0x283b
 8572 240d 06       		.uleb128 0x6
 8573 240e 03       		.byte	0x3
 8574 240f 00000000 		.4byte	sem1
 8575 2413 9F       		.byte	0x9f
 8576 2414 31       		.uleb128 0x31
 8577 2415 0C000000 		.4byte	.LVL3
 8578 2419 8E2C0000 		.4byte	0x2c8e
 8579 241d 26       		.uleb128 0x26
 8580 241e 01       		.uleb128 0x1
 8581 241f 50       		.byte	0x50
 8582 2420 05       		.uleb128 0x5
 8583 2421 03       		.byte	0x3
 8584 2422 00000000 		.4byte	.LANCHOR0
 8585 2426 26       		.uleb128 0x26
 8586 2427 01       		.uleb128 0x1
 8587 2428 51       		.byte	0x51
 8588 2429 01       		.uleb128 0x1
 8589 242a 30       		.byte	0x30
 8590 242b 26       		.uleb128 0x26
ARM GAS  /tmp/ccMmeZ0f.s 			page 153


 8591 242c 01       		.uleb128 0x1
 8592 242d 52       		.byte	0x52
 8593 242e 02       		.uleb128 0x2
 8594 242f 09       		.byte	0x9
 8595 2430 FE       		.byte	0xfe
 8596 2431 00       		.byte	0
 8597 2432 00       		.byte	0
 8598 2433 00       		.byte	0
 8599 2434 37       		.uleb128 0x37
 8600 2435 F5000000 		.4byte	.LASF159
 8601 2439 01       		.byte	0x1
 8602 243a 6B       		.byte	0x6b
 8603 243b 0D       		.byte	0xd
 8604 243c 00000000 		.4byte	.LFB408
 8605 2440 0C000000 		.4byte	.LFE408-.LFB408
 8606 2444 01       		.uleb128 0x1
 8607 2445 9C       		.byte	0x9c
 8608 2446 63240000 		.4byte	0x2463
 8609 244a 31       		.uleb128 0x31
 8610 244b 08000000 		.4byte	.LVL1
 8611 244f 822C0000 		.4byte	0x2c82
 8612 2453 26       		.uleb128 0x26
 8613 2454 01       		.uleb128 0x1
 8614 2455 50       		.byte	0x50
 8615 2456 05       		.uleb128 0x5
 8616 2457 03       		.byte	0x3
 8617 2458 00000000 		.4byte	.LANCHOR0
 8618 245c 26       		.uleb128 0x26
 8619 245d 01       		.uleb128 0x1
 8620 245e 51       		.byte	0x51
 8621 245f 01       		.uleb128 0x1
 8622 2460 31       		.byte	0x31
 8623 2461 00       		.byte	0
 8624 2462 00       		.byte	0
 8625 2463 37       		.uleb128 0x37
 8626 2464 CF050000 		.4byte	.LASF160
 8627 2468 01       		.byte	0x1
 8628 2469 51       		.byte	0x51
 8629 246a 08       		.byte	0x8
 8630 246b 00000000 		.4byte	.LFB407
 8631 246f 2A000000 		.4byte	.LFE407-.LFB407
 8632 2473 01       		.uleb128 0x1
 8633 2474 9C       		.byte	0x9c
 8634 2475 8C250000 		.4byte	0x258c
 8635 2479 40       		.uleb128 0x40
 8636 247a 7000     		.ascii	"p\000"
 8637 247c 01       		.byte	0x1
 8638 247d 51       		.byte	0x51
 8639 247e 08       		.byte	0x8
 8640 247f 11050000 		.4byte	0x511
 8641 2483 E0060000 		.4byte	.LLST39
 8642 2487 D8060000 		.4byte	.LVUS39
 8643 248b 2B       		.uleb128 0x2b
 8644 248c 63270000 		.4byte	0x2763
 8645 2490 00000000 		.4byte	.LBI695
 8646 2494 0200     		.2byte	.LVU592
 8647 2496 A0040000 		.4byte	.Ldebug_ranges0+0x4a0
ARM GAS  /tmp/ccMmeZ0f.s 			page 154


 8648 249a 01       		.byte	0x1
 8649 249b 53       		.byte	0x53
 8650 249c 03       		.byte	0x3
 8651 249d 24       		.uleb128 0x24
 8652 249e 71270000 		.4byte	0x2771
 8653 24a2 1C070000 		.4byte	.LLST40
 8654 24a6 1A070000 		.4byte	.LVUS40
 8655 24aa 23       		.uleb128 0x23
 8656 24ab A0280000 		.4byte	0x28a0
 8657 24af 00000000 		.4byte	.LBI697
 8658 24b3 0400     		.2byte	.LVU594
 8659 24b5 E8040000 		.4byte	.Ldebug_ranges0+0x4e8
 8660 24b9 0A       		.byte	0xa
 8661 24ba 1C01     		.2byte	0x11c
 8662 24bc 03       		.byte	0x3
 8663 24bd F7240000 		.4byte	0x24f7
 8664 24c1 27       		.uleb128 0x27
 8665 24c2 B4280000 		.4byte	0x28b4
 8666 24c6 00000000 		.4byte	.LBI698
 8667 24ca 0600     		.2byte	.LVU596
 8668 24cc F0040000 		.4byte	.Ldebug_ranges0+0x4f0
 8669 24d0 07       		.byte	0x7
 8670 24d1 9901     		.2byte	0x199
 8671 24d3 03       		.byte	0x3
 8672 24d4 27       		.uleb128 0x27
 8673 24d5 BE280000 		.4byte	0x28be
 8674 24d9 00000000 		.4byte	.LBI699
 8675 24dd 0800     		.2byte	.LVU598
 8676 24df F8040000 		.4byte	.Ldebug_ranges0+0x4f8
 8677 24e3 08       		.byte	0x8
 8678 24e4 2E03     		.2byte	0x32e
 8679 24e6 03       		.byte	0x3
 8680 24e7 24       		.uleb128 0x24
 8681 24e8 CC280000 		.4byte	0x28cc
 8682 24ec 31070000 		.4byte	.LLST41
 8683 24f0 2F070000 		.4byte	.LVUS41
 8684 24f4 00       		.byte	0
 8685 24f5 00       		.byte	0
 8686 24f6 00       		.byte	0
 8687 24f7 23       		.uleb128 0x23
 8688 24f8 85270000 		.4byte	0x2785
 8689 24fc 08000000 		.4byte	.LBI708
 8690 2500 0400     		.2byte	.LVU606
 8691 2502 10050000 		.4byte	.Ldebug_ranges0+0x510
 8692 2506 0A       		.byte	0xa
 8693 2507 1D01     		.2byte	0x11d
 8694 2509 03       		.byte	0x3
 8695 250a 25250000 		.4byte	0x2525
 8696 250e 24       		.uleb128 0x24
 8697 250f 93270000 		.4byte	0x2793
 8698 2513 48070000 		.4byte	.LLST42
 8699 2517 46070000 		.4byte	.LVUS42
 8700 251b 2D       		.uleb128 0x2d
 8701 251c 1E000000 		.4byte	.LVL116
 8702 2520 A62C0000 		.4byte	0x2ca6
 8703 2524 00       		.byte	0
 8704 2525 23       		.uleb128 0x23
ARM GAS  /tmp/ccMmeZ0f.s 			page 155


 8705 2526 73280000 		.4byte	0x2873
 8706 252a 12000000 		.4byte	.LBI711
 8707 252e 0100     		.2byte	.LVU614
 8708 2530 28050000 		.4byte	.Ldebug_ranges0+0x528
 8709 2534 0A       		.byte	0xa
 8710 2535 1F01     		.2byte	0x11f
 8711 2537 03       		.byte	0x3
 8712 2538 78250000 		.4byte	0x2578
 8713 253c 29       		.uleb128 0x29
 8714 253d 28050000 		.4byte	.Ldebug_ranges0+0x528
 8715 2541 27       		.uleb128 0x27
 8716 2542 AA280000 		.4byte	0x28aa
 8717 2546 12000000 		.4byte	.LBI713
 8718 254a 0800     		.2byte	.LVU621
 8719 254c 28050000 		.4byte	.Ldebug_ranges0+0x528
 8720 2550 07       		.byte	0x7
 8721 2551 B201     		.2byte	0x1b2
 8722 2553 03       		.byte	0x3
 8723 2554 27       		.uleb128 0x27
 8724 2555 BE280000 		.4byte	0x28be
 8725 2559 12000000 		.4byte	.LBI714
 8726 255d 0A00     		.2byte	.LVU623
 8727 255f 50050000 		.4byte	.Ldebug_ranges0+0x550
 8728 2563 08       		.byte	0x8
 8729 2564 4103     		.2byte	0x341
 8730 2566 03       		.byte	0x3
 8731 2567 24       		.uleb128 0x24
 8732 2568 CC280000 		.4byte	0x28cc
 8733 256c 5F070000 		.4byte	.LLST43
 8734 2570 5B070000 		.4byte	.LVUS43
 8735 2574 00       		.byte	0
 8736 2575 00       		.byte	0
 8737 2576 00       		.byte	0
 8738 2577 00       		.byte	0
 8739 2578 2D       		.uleb128 0x2d
 8740 2579 12000000 		.4byte	.LVL113
 8741 257d B22C0000 		.4byte	0x2cb2
 8742 2581 2D       		.uleb128 0x2d
 8743 2582 22000000 		.4byte	.LVL117
 8744 2586 B22C0000 		.4byte	0x2cb2
 8745 258a 00       		.byte	0
 8746 258b 00       		.byte	0
 8747 258c 37       		.uleb128 0x37
 8748 258d C7050000 		.4byte	.LASF161
 8749 2591 01       		.byte	0x1
 8750 2592 4A       		.byte	0x4a
 8751 2593 08       		.byte	0x8
 8752 2594 00000000 		.4byte	.LFB406
 8753 2598 18000000 		.4byte	.LFE406-.LFB406
 8754 259c 01       		.uleb128 0x1
 8755 259d 9C       		.byte	0x9c
 8756 259e DC250000 		.4byte	0x25dc
 8757 25a2 40       		.uleb128 0x40
 8758 25a3 7000     		.ascii	"p\000"
 8759 25a5 01       		.byte	0x1
 8760 25a6 4A       		.byte	0x4a
 8761 25a7 08       		.byte	0x8
ARM GAS  /tmp/ccMmeZ0f.s 			page 156


 8762 25a8 11050000 		.4byte	0x511
 8763 25ac 83070000 		.4byte	.LLST2
 8764 25b0 7F070000 		.4byte	.LVUS2
 8765 25b4 2E       		.uleb128 0x2e
 8766 25b5 0A000000 		.4byte	.LVL14
 8767 25b9 9A2C0000 		.4byte	0x2c9a
 8768 25bd C8250000 		.4byte	0x25c8
 8769 25c1 26       		.uleb128 0x26
 8770 25c2 01       		.uleb128 0x1
 8771 25c3 50       		.byte	0x50
 8772 25c4 02       		.uleb128 0x2
 8773 25c5 74       		.byte	0x74
 8774 25c6 00       		.sleb128 0
 8775 25c7 00       		.byte	0
 8776 25c8 31       		.uleb128 0x31
 8777 25c9 14000000 		.4byte	.LVL15
 8778 25cd 092D0000 		.4byte	0x2d09
 8779 25d1 26       		.uleb128 0x26
 8780 25d2 01       		.uleb128 0x1
 8781 25d3 50       		.byte	0x50
 8782 25d4 05       		.uleb128 0x5
 8783 25d5 03       		.byte	0x3
 8784 25d6 00000000 		.4byte	.LANCHOR0
 8785 25da 00       		.byte	0
 8786 25db 00       		.byte	0
 8787 25dc 37       		.uleb128 0x37
 8788 25dd BF050000 		.4byte	.LASF162
 8789 25e1 01       		.byte	0x1
 8790 25e2 40       		.byte	0x40
 8791 25e3 08       		.byte	0x8
 8792 25e4 00000000 		.4byte	.LFB405
 8793 25e8 28000000 		.4byte	.LFE405-.LFB405
 8794 25ec 01       		.uleb128 0x1
 8795 25ed 9C       		.byte	0x9c
 8796 25ee E0260000 		.4byte	0x26e0
 8797 25f2 40       		.uleb128 0x40
 8798 25f3 7000     		.ascii	"p\000"
 8799 25f5 01       		.byte	0x1
 8800 25f6 40       		.byte	0x40
 8801 25f7 08       		.byte	0x8
 8802 25f8 11050000 		.4byte	0x511
 8803 25fc A8070000 		.4byte	.LLST25
 8804 2600 A4070000 		.4byte	.LVUS25
 8805 2604 38       		.uleb128 0x38
 8806 2605 A0280000 		.4byte	0x28a0
 8807 2609 0A000000 		.4byte	.LBI623
 8808 260d 0100     		.2byte	.LVU455
 8809 260f 00040000 		.4byte	.Ldebug_ranges0+0x400
 8810 2613 01       		.byte	0x1
 8811 2614 44       		.byte	0x44
 8812 2615 03       		.byte	0x3
 8813 2616 54260000 		.4byte	0x2654
 8814 261a 27       		.uleb128 0x27
 8815 261b B4280000 		.4byte	0x28b4
 8816 261f 0A000000 		.4byte	.LBI624
 8817 2623 0300     		.2byte	.LVU457
 8818 2625 08040000 		.4byte	.Ldebug_ranges0+0x408
ARM GAS  /tmp/ccMmeZ0f.s 			page 157


 8819 2629 07       		.byte	0x7
 8820 262a 9901     		.2byte	0x199
 8821 262c 03       		.byte	0x3
 8822 262d 2A       		.uleb128 0x2a
 8823 262e BE280000 		.4byte	0x28be
 8824 2632 0A000000 		.4byte	.LBI625
 8825 2636 0500     		.2byte	.LVU459
 8826 2638 0A000000 		.4byte	.LBB625
 8827 263c 06000000 		.4byte	.LBE625-.LBB625
 8828 2640 08       		.byte	0x8
 8829 2641 2E03     		.2byte	0x32e
 8830 2643 03       		.byte	0x3
 8831 2644 24       		.uleb128 0x24
 8832 2645 CC280000 		.4byte	0x28cc
 8833 2649 CB070000 		.4byte	.LLST26
 8834 264d C9070000 		.4byte	.LVUS26
 8835 2651 00       		.byte	0
 8836 2652 00       		.byte	0
 8837 2653 00       		.byte	0
 8838 2654 38       		.uleb128 0x38
 8839 2655 73280000 		.4byte	0x2873
 8840 2659 1A000000 		.4byte	.LBI630
 8841 265d 0100     		.2byte	.LVU467
 8842 265f 20040000 		.4byte	.Ldebug_ranges0+0x420
 8843 2663 01       		.byte	0x1
 8844 2664 47       		.byte	0x47
 8845 2665 03       		.byte	0x3
 8846 2666 AA260000 		.4byte	0x26aa
 8847 266a 29       		.uleb128 0x29
 8848 266b 20040000 		.4byte	.Ldebug_ranges0+0x420
 8849 266f 27       		.uleb128 0x27
 8850 2670 AA280000 		.4byte	0x28aa
 8851 2674 1A000000 		.4byte	.LBI632
 8852 2678 0800     		.2byte	.LVU474
 8853 267a 20040000 		.4byte	.Ldebug_ranges0+0x420
 8854 267e 07       		.byte	0x7
 8855 267f B201     		.2byte	0x1b2
 8856 2681 03       		.byte	0x3
 8857 2682 2A       		.uleb128 0x2a
 8858 2683 BE280000 		.4byte	0x28be
 8859 2687 1A000000 		.4byte	.LBI633
 8860 268b 0A00     		.2byte	.LVU476
 8861 268d 1A000000 		.4byte	.LBB633
 8862 2691 06000000 		.4byte	.LBE633-.LBB633
 8863 2695 08       		.byte	0x8
 8864 2696 4103     		.2byte	0x341
 8865 2698 03       		.byte	0x3
 8866 2699 24       		.uleb128 0x24
 8867 269a CC280000 		.4byte	0x28cc
 8868 269e E2070000 		.4byte	.LLST27
 8869 26a2 E0070000 		.4byte	.LVUS27
 8870 26a6 00       		.byte	0
 8871 26a7 00       		.byte	0
 8872 26a8 00       		.byte	0
 8873 26a9 00       		.byte	0
 8874 26aa 2E       		.uleb128 0x2e
 8875 26ab 0A000000 		.4byte	.LVL75
ARM GAS  /tmp/ccMmeZ0f.s 			page 158


 8876 26af 152D0000 		.4byte	0x2d15
 8877 26b3 BF260000 		.4byte	0x26bf
 8878 26b7 26       		.uleb128 0x26
 8879 26b8 01       		.uleb128 0x1
 8880 26b9 50       		.byte	0x50
 8881 26ba 03       		.uleb128 0x3
 8882 26bb 0A       		.byte	0xa
 8883 26bc F401     		.2byte	0x1f4
 8884 26be 00       		.byte	0
 8885 26bf 2E       		.uleb128 0x2e
 8886 26c0 16000000 		.4byte	.LVL77
 8887 26c4 A62C0000 		.4byte	0x2ca6
 8888 26c8 D6260000 		.4byte	0x26d6
 8889 26cc 26       		.uleb128 0x26
 8890 26cd 01       		.uleb128 0x1
 8891 26ce 50       		.byte	0x50
 8892 26cf 05       		.uleb128 0x5
 8893 26d0 03       		.byte	0x3
 8894 26d1 00000000 		.4byte	.LANCHOR0
 8895 26d5 00       		.byte	0
 8896 26d6 2D       		.uleb128 0x2d
 8897 26d7 1A000000 		.4byte	.LVL78
 8898 26db B22C0000 		.4byte	0x2cb2
 8899 26df 00       		.byte	0
 8900 26e0 37       		.uleb128 0x37
 8901 26e1 B7050000 		.4byte	.LASF163
 8902 26e5 01       		.byte	0x1
 8903 26e6 3A       		.byte	0x3a
 8904 26e7 08       		.byte	0x8
 8905 26e8 00000000 		.4byte	.LFB404
 8906 26ec 18000000 		.4byte	.LFE404-.LFB404
 8907 26f0 01       		.uleb128 0x1
 8908 26f1 9C       		.byte	0x9c
 8909 26f2 29270000 		.4byte	0x2729
 8910 26f6 40       		.uleb128 0x40
 8911 26f7 7000     		.ascii	"p\000"
 8912 26f9 01       		.byte	0x1
 8913 26fa 3A       		.byte	0x3a
 8914 26fb 08       		.byte	0x8
 8915 26fc 11050000 		.4byte	0x511
 8916 2700 FC070000 		.4byte	.LLST24
 8917 2704 F6070000 		.4byte	.LVUS24
 8918 2708 2E       		.uleb128 0x2e
 8919 2709 0A000000 		.4byte	.LVL70
 8920 270d 9A2C0000 		.4byte	0x2c9a
 8921 2711 1F270000 		.4byte	0x271f
 8922 2715 26       		.uleb128 0x26
 8923 2716 01       		.uleb128 0x1
 8924 2717 50       		.byte	0x50
 8925 2718 05       		.uleb128 0x5
 8926 2719 03       		.byte	0x3
 8927 271a 00000000 		.4byte	.LANCHOR0
 8928 271e 00       		.byte	0
 8929 271f 41       		.uleb128 0x41
 8930 2720 14000000 		.4byte	.LVL72
 8931 2724 222D0000 		.4byte	0x2d22
 8932 2728 00       		.byte	0
ARM GAS  /tmp/ccMmeZ0f.s 			page 159


 8933 2729 32       		.uleb128 0x32
 8934 272a 49070000 		.4byte	.LASF164
 8935 272e 06       		.byte	0x6
 8936 272f 4802     		.2byte	0x248
 8937 2731 14       		.byte	0x14
 8938 2732 03       		.byte	0x3
 8939 2733 32       		.uleb128 0x32
 8940 2734 4B030000 		.4byte	.LASF165
 8941 2738 06       		.byte	0x6
 8942 2739 3D02     		.2byte	0x23d
 8943 273b 14       		.byte	0x14
 8944 273c 03       		.byte	0x3
 8945 273d 42       		.uleb128 0x42
 8946 273e E5000000 		.4byte	.LASF171
 8947 2742 0A       		.byte	0xa
 8948 2743 2C01     		.2byte	0x12c
 8949 2745 14       		.byte	0x14
 8950 2746 AC070000 		.4byte	0x7ac
 8951 274a 03       		.byte	0x3
 8952 274b 5D270000 		.4byte	0x275d
 8953 274f 43       		.uleb128 0x43
 8954 2750 62737000 		.ascii	"bsp\000"
 8955 2754 0A       		.byte	0xa
 8956 2755 2C01     		.2byte	0x12c
 8957 2757 3E       		.byte	0x3e
 8958 2758 5D270000 		.4byte	0x275d
 8959 275c 00       		.byte	0
 8960 275d 0D       		.uleb128 0xd
 8961 275e 04       		.byte	0x4
 8962 275f A7070000 		.4byte	0x7a7
 8963 2763 44       		.uleb128 0x44
 8964 2764 49020000 		.4byte	.LASF167
 8965 2768 0A       		.byte	0xa
 8966 2769 1A01     		.2byte	0x11a
 8967 276b 14       		.byte	0x14
 8968 276c 03       		.byte	0x3
 8969 276d 7F270000 		.4byte	0x277f
 8970 2771 43       		.uleb128 0x43
 8971 2772 62737000 		.ascii	"bsp\000"
 8972 2776 0A       		.byte	0xa
 8973 2777 1A01     		.2byte	0x11a
 8974 2779 35       		.byte	0x35
 8975 277a 7F270000 		.4byte	0x277f
 8976 277e 00       		.byte	0
 8977 277f 0D       		.uleb128 0xd
 8978 2780 04       		.byte	0x4
 8979 2781 9B070000 		.4byte	0x79b
 8980 2785 44       		.uleb128 0x44
 8981 2786 57030000 		.4byte	.LASF168
 8982 278a 0A       		.byte	0xa
 8983 278b 0A01     		.2byte	0x10a
 8984 278d 14       		.byte	0x14
 8985 278e 03       		.byte	0x3
 8986 278f A1270000 		.4byte	0x27a1
 8987 2793 43       		.uleb128 0x43
 8988 2794 62737000 		.ascii	"bsp\000"
 8989 2798 0A       		.byte	0xa
ARM GAS  /tmp/ccMmeZ0f.s 			page 160


 8990 2799 0A01     		.2byte	0x10a
 8991 279b 36       		.byte	0x36
 8992 279c 7F270000 		.4byte	0x277f
 8993 27a0 00       		.byte	0
 8994 27a1 33       		.uleb128 0x33
 8995 27a2 A70A0000 		.4byte	.LASF169
 8996 27a6 0A       		.byte	0xa
 8997 27a7 FD       		.byte	0xfd
 8998 27a8 14       		.byte	0x14
 8999 27a9 03       		.byte	0x3
 9000 27aa C7270000 		.4byte	0x27c7
 9001 27ae 45       		.uleb128 0x45
 9002 27af 62737000 		.ascii	"bsp\000"
 9003 27b3 0A       		.byte	0xa
 9004 27b4 FD       		.byte	0xfd
 9005 27b5 34       		.byte	0x34
 9006 27b6 7F270000 		.4byte	0x277f
 9007 27ba 46       		.uleb128 0x46
 9008 27bb 45030000 		.4byte	.LASF170
 9009 27bf 0A       		.byte	0xa
 9010 27c0 FD       		.byte	0xfd
 9011 27c1 3E       		.byte	0x3e
 9012 27c2 AC070000 		.4byte	0x7ac
 9013 27c6 00       		.byte	0
 9014 27c7 47       		.uleb128 0x47
 9015 27c8 F7070000 		.4byte	.LASF172
 9016 27cc 0A       		.byte	0xa
 9017 27cd 8D       		.byte	0x8d
 9018 27ce 15       		.byte	0x15
 9019 27cf 30010000 		.4byte	0x130
 9020 27d3 03       		.byte	0x3
 9021 27d4 E5270000 		.4byte	0x27e5
 9022 27d8 45       		.uleb128 0x45
 9023 27d9 62737000 		.ascii	"bsp\000"
 9024 27dd 0A       		.byte	0xa
 9025 27de 8D       		.byte	0x8d
 9026 27df 34       		.byte	0x34
 9027 27e0 7F270000 		.4byte	0x277f
 9028 27e4 00       		.byte	0
 9029 27e5 33       		.uleb128 0x33
 9030 27e6 CB090000 		.4byte	.LASF173
 9031 27ea 0A       		.byte	0xa
 9032 27eb 7C       		.byte	0x7c
 9033 27ec 14       		.byte	0x14
 9034 27ed 03       		.byte	0x3
 9035 27ee 0B280000 		.4byte	0x280b
 9036 27f2 45       		.uleb128 0x45
 9037 27f3 62737000 		.ascii	"bsp\000"
 9038 27f7 0A       		.byte	0xa
 9039 27f8 7C       		.byte	0x7c
 9040 27f9 39       		.byte	0x39
 9041 27fa 7F270000 		.4byte	0x277f
 9042 27fe 46       		.uleb128 0x46
 9043 27ff 45030000 		.4byte	.LASF170
 9044 2803 0A       		.byte	0xa
 9045 2804 7C       		.byte	0x7c
 9046 2805 43       		.byte	0x43
ARM GAS  /tmp/ccMmeZ0f.s 			page 161


 9047 2806 AC070000 		.4byte	0x7ac
 9048 280a 00       		.byte	0
 9049 280b 47       		.uleb128 0x47
 9050 280c 25080000 		.4byte	.LASF174
 9051 2810 02       		.byte	0x2
 9052 2811 BD       		.byte	0xbd
 9053 2812 15       		.byte	0x15
 9054 2813 48010000 		.4byte	0x148
 9055 2817 03       		.byte	0x3
 9056 2818 28280000 		.4byte	0x2828
 9057 281c 45       		.uleb128 0x45
 9058 281d 737000   		.ascii	"sp\000"
 9059 2820 02       		.byte	0x2
 9060 2821 BD       		.byte	0xbd
 9061 2822 39       		.byte	0x39
 9062 2823 28280000 		.4byte	0x2828
 9063 2827 00       		.byte	0
 9064 2828 0D       		.uleb128 0xd
 9065 2829 04       		.byte	0x4
 9066 282a 69070000 		.4byte	0x769
 9067 282e 33       		.uleb128 0x33
 9068 282f 7D030000 		.4byte	.LASF175
 9069 2833 02       		.byte	0x2
 9070 2834 7B       		.byte	0x7b
 9071 2835 14       		.byte	0x14
 9072 2836 03       		.byte	0x3
 9073 2837 51280000 		.4byte	0x2851
 9074 283b 45       		.uleb128 0x45
 9075 283c 737000   		.ascii	"sp\000"
 9076 283f 02       		.byte	0x2
 9077 2840 7B       		.byte	0x7b
 9078 2841 2C       		.byte	0x2c
 9079 2842 51280000 		.4byte	0x2851
 9080 2846 45       		.uleb128 0x45
 9081 2847 6E00     		.ascii	"n\000"
 9082 2849 02       		.byte	0x2
 9083 284a 7B       		.byte	0x7b
 9084 284b 36       		.byte	0x36
 9085 284c 48010000 		.4byte	0x148
 9086 2850 00       		.byte	0
 9087 2851 0D       		.uleb128 0xd
 9088 2852 04       		.byte	0x4
 9089 2853 5D070000 		.4byte	0x75d
 9090 2857 48       		.uleb128 0x48
 9091 2858 FA050000 		.4byte	.LASF176
 9092 285c 03       		.byte	0x3
 9093 285d 6201     		.2byte	0x162
 9094 285f 17       		.byte	0x17
 9095 2860 24010000 		.4byte	0x124
 9096 2864 03       		.byte	0x3
 9097 2865 48       		.uleb128 0x48
 9098 2866 48090000 		.4byte	.LASF177
 9099 286a 03       		.byte	0x3
 9100 286b 5501     		.2byte	0x155
 9101 286d 19       		.byte	0x19
 9102 286e 8C050000 		.4byte	0x58c
 9103 2872 03       		.byte	0x3
ARM GAS  /tmp/ccMmeZ0f.s 			page 162


 9104 2873 44       		.uleb128 0x44
 9105 2874 9B0A0000 		.4byte	.LASF178
 9106 2878 07       		.byte	0x7
 9107 2879 A501     		.2byte	0x1a5
 9108 287b 14       		.byte	0x14
 9109 287c 03       		.byte	0x3
 9110 287d 8B280000 		.4byte	0x288b
 9111 2881 49       		.uleb128 0x49
 9112 2882 36070000 		.4byte	.LASF208
 9113 2886 9B280000 		.4byte	0x289b
 9114 288a 00       		.byte	0
 9115 288b 17       		.uleb128 0x17
 9116 288c 3A030000 		.4byte	0x33a
 9117 2890 9B280000 		.4byte	0x289b
 9118 2894 18       		.uleb128 0x18
 9119 2895 38000000 		.4byte	0x38
 9120 2899 0B       		.byte	0xb
 9121 289a 00       		.byte	0
 9122 289b 05       		.uleb128 0x5
 9123 289c 8B280000 		.4byte	0x288b
 9124 28a0 32       		.uleb128 0x32
 9125 28a1 3F070000 		.4byte	.LASF179
 9126 28a5 07       		.byte	0x7
 9127 28a6 9701     		.2byte	0x197
 9128 28a8 14       		.byte	0x14
 9129 28a9 03       		.byte	0x3
 9130 28aa 32       		.uleb128 0x32
 9131 28ab 26020000 		.4byte	.LASF180
 9132 28af 08       		.byte	0x8
 9133 28b0 3E03     		.2byte	0x33e
 9134 28b2 1B       		.byte	0x1b
 9135 28b3 03       		.byte	0x3
 9136 28b4 32       		.uleb128 0x32
 9137 28b5 B80A0000 		.4byte	.LASF181
 9138 28b9 08       		.byte	0x8
 9139 28ba 2603     		.2byte	0x326
 9140 28bc 1B       		.byte	0x1b
 9141 28bd 03       		.byte	0x3
 9142 28be 44       		.uleb128 0x44
 9143 28bf 36080000 		.4byte	.LASF182
 9144 28c3 05       		.byte	0x5
 9145 28c4 EB01     		.2byte	0x1eb
 9146 28c6 1B       		.byte	0x1b
 9147 28c7 03       		.byte	0x3
 9148 28c8 DA280000 		.4byte	0x28da
 9149 28cc 4A       		.uleb128 0x4a
 9150 28cd 17020000 		.4byte	.LASF183
 9151 28d1 05       		.byte	0x5
 9152 28d2 EB01     		.2byte	0x1eb
 9153 28d4 32       		.byte	0x32
 9154 28d5 CB000000 		.4byte	0xcb
 9155 28d9 00       		.byte	0
 9156 28da 47       		.uleb128 0x47
 9157 28db 7C080000 		.4byte	.LASF184
 9158 28df 04       		.byte	0x4
 9159 28e0 EC       		.byte	0xec
 9160 28e1 14       		.byte	0x14
ARM GAS  /tmp/ccMmeZ0f.s 			page 163


 9161 28e2 AC070000 		.4byte	0x7ac
 9162 28e6 03       		.byte	0x3
 9163 28e7 F7280000 		.4byte	0x28f7
 9164 28eb 45       		.uleb128 0x45
 9165 28ec 717000   		.ascii	"qp\000"
 9166 28ef 04       		.byte	0x4
 9167 28f0 EC       		.byte	0xec
 9168 28f1 37       		.byte	0x37
 9169 28f2 F7280000 		.4byte	0x28f7
 9170 28f6 00       		.byte	0
 9171 28f7 0D       		.uleb128 0xd
 9172 28f8 04       		.byte	0x4
 9173 28f9 A8030000 		.4byte	0x3a8
 9174 28fd 42       		.uleb128 0x42
 9175 28fe 35060000 		.4byte	.LASF185
 9176 2902 09       		.byte	0x9
 9177 2903 BA01     		.2byte	0x1ba
 9178 2905 19       		.byte	0x19
 9179 2906 4B030000 		.4byte	0x34b
 9180 290a 03       		.byte	0x3
 9181 290b 2A290000 		.4byte	0x292a
 9182 290f 4A       		.uleb128 0x4a
 9183 2910 94040000 		.4byte	.LASF186
 9184 2914 09       		.byte	0x9
 9185 2915 BA01     		.2byte	0x1ba
 9186 2917 2E       		.byte	0x2e
 9187 2918 4B030000 		.4byte	0x34b
 9188 291c 4A       		.uleb128 0x4a
 9189 291d 16030000 		.4byte	.LASF187
 9190 2921 09       		.byte	0x9
 9191 2922 BB01     		.2byte	0x1bb
 9192 2924 32       		.byte	0x32
 9193 2925 57030000 		.4byte	0x357
 9194 2929 00       		.byte	0
 9195 292a 4B       		.uleb128 0x4b
 9196 292b AB1E0000 		.4byte	0x1eab
 9197 292f 00000000 		.4byte	.LFB411
 9198 2933 0C000000 		.4byte	.LFE411-.LFB411
 9199 2937 01       		.uleb128 0x1
 9200 2938 9C       		.byte	0x9c
 9201 2939 56290000 		.4byte	0x2956
 9202 293d 31       		.uleb128 0x31
 9203 293e 08000000 		.4byte	.LVL0
 9204 2942 822C0000 		.4byte	0x2c82
 9205 2946 26       		.uleb128 0x26
 9206 2947 01       		.uleb128 0x1
 9207 2948 50       		.byte	0x50
 9208 2949 05       		.uleb128 0x5
 9209 294a 03       		.byte	0x3
 9210 294b 00000000 		.4byte	.LANCHOR0
 9211 294f 26       		.uleb128 0x26
 9212 2950 01       		.uleb128 0x1
 9213 2951 51       		.byte	0x51
 9214 2952 01       		.uleb128 0x1
 9215 2953 30       		.byte	0x30
 9216 2954 00       		.byte	0
 9217 2955 00       		.byte	0
ARM GAS  /tmp/ccMmeZ0f.s 			page 164


 9218 2956 4B       		.uleb128 0x4b
 9219 2957 32190000 		.4byte	0x1932
 9220 295b 00000000 		.4byte	.LFB418
 9221 295f 04000000 		.4byte	.LFE418-.LFB418
 9222 2963 01       		.uleb128 0x1
 9223 2964 9C       		.byte	0x9c
 9224 2965 73290000 		.4byte	0x2973
 9225 2969 41       		.uleb128 0x41
 9226 296a 04000000 		.4byte	.LVL4
 9227 296e F02C0000 		.4byte	0x2cf0
 9228 2972 00       		.byte	0
 9229 2973 4B       		.uleb128 0x4b
 9230 2974 1C1C0000 		.4byte	0x1c1c
 9231 2978 00000000 		.4byte	.LFB414
 9232 297c 70010000 		.4byte	.LFE414-.LFB414
 9233 2980 01       		.uleb128 0x1
 9234 2981 9C       		.byte	0x9c
 9235 2982 822C0000 		.4byte	0x2c82
 9236 2986 4C       		.uleb128 0x4c
 9237 2987 291C0000 		.4byte	0x1c29
 9238 298b 4C       		.uleb128 0x4c
 9239 298c 331C0000 		.4byte	0x1c33
 9240 2990 4D       		.uleb128 0x4d
 9241 2991 3F1C0000 		.4byte	0x1c3f
 9242 2995 2C080000 		.4byte	.LLST28
 9243 2999 28080000 		.4byte	.LVUS28
 9244 299d 3C       		.uleb128 0x3c
 9245 299e DA280000 		.4byte	0x28da
 9246 29a2 2E000000 		.4byte	.LBI656
 9247 29a6 0200     		.2byte	.LVU501
 9248 29a8 2E000000 		.4byte	.LBB656
 9249 29ac 02000000 		.4byte	.LBE656-.LBB656
 9250 29b0 01       		.byte	0x1
 9251 29b1 F9       		.byte	0xf9
 9252 29b2 05       		.byte	0x5
 9253 29b3 C5290000 		.4byte	0x29c5
 9254 29b7 24       		.uleb128 0x24
 9255 29b8 EB280000 		.4byte	0x28eb
 9256 29bc 4E080000 		.4byte	.LLST29
 9257 29c0 4C080000 		.4byte	.LVUS29
 9258 29c4 00       		.byte	0
 9259 29c5 38       		.uleb128 0x38
 9260 29c6 1C1C0000 		.4byte	0x1c1c
 9261 29ca 42000000 		.4byte	.LBI658
 9262 29ce 0000     		.2byte	.LVU505
 9263 29d0 38040000 		.4byte	.Ldebug_ranges0+0x438
 9264 29d4 01       		.byte	0x1
 9265 29d5 EF       		.byte	0xef
 9266 29d6 0D       		.byte	0xd
 9267 29d7 3E2C0000 		.4byte	0x2c3e
 9268 29db 29       		.uleb128 0x29
 9269 29dc 38040000 		.4byte	.Ldebug_ranges0+0x438
 9270 29e0 4D       		.uleb128 0x4d
 9271 29e1 291C0000 		.4byte	0x1c29
 9272 29e5 68080000 		.4byte	.LLST30
 9273 29e9 66080000 		.4byte	.LVUS30
 9274 29ed 4D       		.uleb128 0x4d
ARM GAS  /tmp/ccMmeZ0f.s 			page 165


 9275 29ee 331C0000 		.4byte	0x1c33
 9276 29f2 82080000 		.4byte	.LLST31
 9277 29f6 7C080000 		.4byte	.LVUS31
 9278 29fa 4D       		.uleb128 0x4d
 9279 29fb 3F1C0000 		.4byte	0x1c3f
 9280 29ff B9080000 		.4byte	.LLST32
 9281 2a03 B1080000 		.4byte	.LVUS32
 9282 2a07 23       		.uleb128 0x23
 9283 2a08 57280000 		.4byte	0x2857
 9284 2a0c 6A000000 		.4byte	.LBI660
 9285 2a10 0100     		.2byte	.LVU520
 9286 2a12 50040000 		.4byte	.Ldebug_ranges0+0x450
 9287 2a16 01       		.byte	0x1
 9288 2a17 0101     		.2byte	0x101
 9289 2a19 34       		.byte	0x34
 9290 2a1a 322A0000 		.4byte	0x2a32
 9291 2a1e 30       		.uleb128 0x30
 9292 2a1f 65280000 		.4byte	0x2865
 9293 2a23 6A000000 		.4byte	.LBI662
 9294 2a27 0300     		.2byte	.LVU522
 9295 2a29 70040000 		.4byte	.Ldebug_ranges0+0x470
 9296 2a2d 03       		.byte	0x3
 9297 2a2e 6401     		.2byte	0x164
 9298 2a30 0A       		.byte	0xa
 9299 2a31 00       		.byte	0
 9300 2a32 28       		.uleb128 0x28
 9301 2a33 DA280000 		.4byte	0x28da
 9302 2a37 96000000 		.4byte	.LBI670
 9303 2a3b 0200     		.2byte	.LVU534
 9304 2a3d 96000000 		.4byte	.LBB670
 9305 2a41 02000000 		.4byte	.LBE670-.LBB670
 9306 2a45 01       		.byte	0x1
 9307 2a46 0601     		.2byte	0x106
 9308 2a48 05       		.byte	0x5
 9309 2a49 5B2A0000 		.4byte	0x2a5b
 9310 2a4d 24       		.uleb128 0x24
 9311 2a4e EB280000 		.4byte	0x28eb
 9312 2a52 F1080000 		.4byte	.LLST33
 9313 2a56 EF080000 		.4byte	.LVUS33
 9314 2a5a 00       		.byte	0
 9315 2a5b 28       		.uleb128 0x28
 9316 2a5c FD280000 		.4byte	0x28fd
 9317 2a60 CA000000 		.4byte	.LBI672
 9318 2a64 0000     		.2byte	.LVU549
 9319 2a66 CA000000 		.4byte	.LBB672
 9320 2a6a 00000000 		.4byte	.LBE672-.LBB672
 9321 2a6e 01       		.byte	0x1
 9322 2a6f 0E01     		.2byte	0x10e
 9323 2a71 13       		.byte	0x13
 9324 2a72 912A0000 		.4byte	0x2a91
 9325 2a76 24       		.uleb128 0x24
 9326 2a77 1C290000 		.4byte	0x291c
 9327 2a7b 0B090000 		.4byte	.LLST34
 9328 2a7f 09090000 		.4byte	.LVUS34
 9329 2a83 24       		.uleb128 0x24
 9330 2a84 0F290000 		.4byte	0x290f
 9331 2a88 23090000 		.4byte	.LLST35
ARM GAS  /tmp/ccMmeZ0f.s 			page 166


 9332 2a8c 21090000 		.4byte	.LVUS35
 9333 2a90 00       		.byte	0
 9334 2a91 23       		.uleb128 0x23
 9335 2a92 DA280000 		.4byte	0x28da
 9336 2a96 EC000000 		.4byte	.LBI674
 9337 2a9a 0200     		.2byte	.LVU563
 9338 2a9c 88040000 		.4byte	.Ldebug_ranges0+0x488
 9339 2aa0 01       		.byte	0x1
 9340 2aa1 1301     		.2byte	0x113
 9341 2aa3 07       		.byte	0x7
 9342 2aa4 B62A0000 		.4byte	0x2ab6
 9343 2aa8 24       		.uleb128 0x24
 9344 2aa9 EB280000 		.4byte	0x28eb
 9345 2aad 38090000 		.4byte	.LLST36
 9346 2ab1 36090000 		.4byte	.LVUS36
 9347 2ab5 00       		.byte	0
 9348 2ab6 28       		.uleb128 0x28
 9349 2ab7 FD280000 		.4byte	0x28fd
 9350 2abb 2C010000 		.4byte	.LBI678
 9351 2abf 0200     		.2byte	.LVU583
 9352 2ac1 2C010000 		.4byte	.LBB678
 9353 2ac5 00000000 		.4byte	.LBE678-.LBB678
 9354 2ac9 01       		.byte	0x1
 9355 2aca 1701     		.2byte	0x117
 9356 2acc 05       		.byte	0x5
 9357 2acd EC2A0000 		.4byte	0x2aec
 9358 2ad1 24       		.uleb128 0x24
 9359 2ad2 1C290000 		.4byte	0x291c
 9360 2ad6 52090000 		.4byte	.LLST37
 9361 2ada 50090000 		.4byte	.LVUS37
 9362 2ade 24       		.uleb128 0x24
 9363 2adf 0F290000 		.4byte	0x290f
 9364 2ae3 68090000 		.4byte	.LLST38
 9365 2ae7 66090000 		.4byte	.LVUS38
 9366 2aeb 00       		.byte	0
 9367 2aec 2E       		.uleb128 0x2e
 9368 2aed 50000000 		.4byte	.LVL86
 9369 2af1 BE2C0000 		.4byte	0x2cbe
 9370 2af5 032B0000 		.4byte	0x2b03
 9371 2af9 26       		.uleb128 0x26
 9372 2afa 01       		.uleb128 0x1
 9373 2afb 51       		.byte	0x51
 9374 2afc 05       		.uleb128 0x5
 9375 2afd 03       		.byte	0x3
 9376 2afe 10000000 		.4byte	.LC1
 9377 2b02 00       		.byte	0
 9378 2b03 2E       		.uleb128 0x2e
 9379 2b04 72000000 		.4byte	.LVL87
 9380 2b08 CB2C0000 		.4byte	0x2ccb
 9381 2b0c 212B0000 		.4byte	0x2b21
 9382 2b10 26       		.uleb128 0x26
 9383 2b11 01       		.uleb128 0x1
 9384 2b12 51       		.byte	0x51
 9385 2b13 03       		.uleb128 0x3
 9386 2b14 0A       		.byte	0xa
 9387 2b15 7001     		.2byte	0x170
 9388 2b17 26       		.uleb128 0x26
ARM GAS  /tmp/ccMmeZ0f.s 			page 167


 9389 2b18 01       		.uleb128 0x1
 9390 2b19 53       		.byte	0x53
 9391 2b1a 05       		.uleb128 0x5
 9392 2b1b 03       		.byte	0x3
 9393 2b1c 00000000 		.4byte	thread2
 9394 2b20 00       		.byte	0
 9395 2b21 2E       		.uleb128 0x2e
 9396 2b22 80000000 		.4byte	.LVL88
 9397 2b26 2F2D0000 		.4byte	0x2d2f
 9398 2b2a 3C2B0000 		.4byte	0x2b3c
 9399 2b2e 26       		.uleb128 0x26
 9400 2b2f 01       		.uleb128 0x1
 9401 2b30 50       		.byte	0x50
 9402 2b31 02       		.uleb128 0x2
 9403 2b32 74       		.byte	0x74
 9404 2b33 00       		.sleb128 0
 9405 2b34 26       		.uleb128 0x26
 9406 2b35 01       		.uleb128 0x1
 9407 2b36 51       		.byte	0x51
 9408 2b37 03       		.uleb128 0x3
 9409 2b38 0A       		.byte	0xa
 9410 2b39 8813     		.2byte	0x1388
 9411 2b3b 00       		.byte	0
 9412 2b3c 2D       		.uleb128 0x2d
 9413 2b3d 86000000 		.4byte	.LVL90
 9414 2b41 F02C0000 		.4byte	0x2cf0
 9415 2b45 2E       		.uleb128 0x2e
 9416 2b46 92000000 		.4byte	.LVL91
 9417 2b4a BE2C0000 		.4byte	0x2cbe
 9418 2b4e 642B0000 		.4byte	0x2b64
 9419 2b52 26       		.uleb128 0x26
 9420 2b53 01       		.uleb128 0x1
 9421 2b54 50       		.byte	0x50
 9422 2b55 04       		.uleb128 0x4
 9423 2b56 76       		.byte	0x76
 9424 2b57 00       		.sleb128 0
 9425 2b58 30       		.byte	0x30
 9426 2b59 29       		.byte	0x29
 9427 2b5a 26       		.uleb128 0x26
 9428 2b5b 01       		.uleb128 0x1
 9429 2b5c 51       		.byte	0x51
 9430 2b5d 05       		.uleb128 0x5
 9431 2b5e 03       		.byte	0x3
 9432 2b5f 00000000 		.4byte	.LC12
 9433 2b63 00       		.byte	0
 9434 2b64 2E       		.uleb128 0x2e
 9435 2b65 A6000000 		.4byte	.LVL93
 9436 2b69 BE2C0000 		.4byte	0x2cbe
 9437 2b6d 7B2B0000 		.4byte	0x2b7b
 9438 2b71 26       		.uleb128 0x26
 9439 2b72 01       		.uleb128 0x1
 9440 2b73 51       		.byte	0x51
 9441 2b74 05       		.uleb128 0x5
 9442 2b75 03       		.byte	0x3
 9443 2b76 00000000 		.4byte	.LC0
 9444 2b7a 00       		.byte	0
 9445 2b7b 2E       		.uleb128 0x2e
ARM GAS  /tmp/ccMmeZ0f.s 			page 168


 9446 2b7c B8000000 		.4byte	.LVL94
 9447 2b80 BE2C0000 		.4byte	0x2cbe
 9448 2b84 922B0000 		.4byte	0x2b92
 9449 2b88 26       		.uleb128 0x26
 9450 2b89 01       		.uleb128 0x1
 9451 2b8a 51       		.byte	0x51
 9452 2b8b 05       		.uleb128 0x5
 9453 2b8c 03       		.byte	0x3
 9454 2b8d 10000000 		.4byte	.LC1
 9455 2b91 00       		.byte	0
 9456 2b92 2D       		.uleb128 0x2d
 9457 2b93 C4000000 		.4byte	.LVL95
 9458 2b97 3B2D0000 		.4byte	0x2d3b
 9459 2b9b 2E       		.uleb128 0x2e
 9460 2b9c D2000000 		.4byte	.LVL99
 9461 2ba0 222D0000 		.4byte	0x2d22
 9462 2ba4 AF2B0000 		.4byte	0x2baf
 9463 2ba8 26       		.uleb128 0x26
 9464 2ba9 01       		.uleb128 0x1
 9465 2baa 50       		.byte	0x50
 9466 2bab 02       		.uleb128 0x2
 9467 2bac 75       		.byte	0x75
 9468 2bad 00       		.sleb128 0
 9469 2bae 00       		.byte	0
 9470 2baf 2E       		.uleb128 0x2e
 9471 2bb0 DC000000 		.4byte	.LVL100
 9472 2bb4 2F2D0000 		.4byte	0x2d2f
 9473 2bb8 CA2B0000 		.4byte	0x2bca
 9474 2bbc 26       		.uleb128 0x26
 9475 2bbd 01       		.uleb128 0x1
 9476 2bbe 50       		.byte	0x50
 9477 2bbf 02       		.uleb128 0x2
 9478 2bc0 74       		.byte	0x74
 9479 2bc1 00       		.sleb128 0
 9480 2bc2 26       		.uleb128 0x26
 9481 2bc3 01       		.uleb128 0x1
 9482 2bc4 51       		.byte	0x51
 9483 2bc5 03       		.uleb128 0x3
 9484 2bc6 0A       		.byte	0xa
 9485 2bc7 F401     		.2byte	0x1f4
 9486 2bc9 00       		.byte	0
 9487 2bca 2E       		.uleb128 0x2e
 9488 2bcb EC000000 		.4byte	.LVL103
 9489 2bcf BE2C0000 		.4byte	0x2cbe
 9490 2bd3 DE2B0000 		.4byte	0x2bde
 9491 2bd7 26       		.uleb128 0x26
 9492 2bd8 01       		.uleb128 0x1
 9493 2bd9 51       		.byte	0x51
 9494 2bda 02       		.uleb128 0x2
 9495 2bdb 77       		.byte	0x77
 9496 2bdc 00       		.sleb128 0
 9497 2bdd 00       		.byte	0
 9498 2bde 2E       		.uleb128 0x2e
 9499 2bdf 00010000 		.4byte	.LVL104
 9500 2be3 BE2C0000 		.4byte	0x2cbe
 9501 2be7 F22B0000 		.4byte	0x2bf2
 9502 2beb 26       		.uleb128 0x26
ARM GAS  /tmp/ccMmeZ0f.s 			page 169


 9503 2bec 01       		.uleb128 0x1
 9504 2bed 51       		.byte	0x51
 9505 2bee 02       		.uleb128 0x2
 9506 2bef 76       		.byte	0x76
 9507 2bf0 00       		.sleb128 0
 9508 2bf1 00       		.byte	0
 9509 2bf2 2E       		.uleb128 0x2e
 9510 2bf3 12010000 		.4byte	.LVL105
 9511 2bf7 BE2C0000 		.4byte	0x2cbe
 9512 2bfb 092C0000 		.4byte	0x2c09
 9513 2bff 26       		.uleb128 0x26
 9514 2c00 01       		.uleb128 0x1
 9515 2c01 51       		.byte	0x51
 9516 2c02 05       		.uleb128 0x5
 9517 2c03 03       		.byte	0x3
 9518 2c04 10000000 		.4byte	.LC1
 9519 2c08 00       		.byte	0
 9520 2c09 2E       		.uleb128 0x2e
 9521 2c0a 26010000 		.4byte	.LVL106
 9522 2c0e FC2C0000 		.4byte	0x2cfc
 9523 2c12 292C0000 		.4byte	0x2c29
 9524 2c16 26       		.uleb128 0x26
 9525 2c17 01       		.uleb128 0x1
 9526 2c18 50       		.byte	0x50
 9527 2c19 05       		.uleb128 0x5
 9528 2c1a 03       		.byte	0x3
 9529 2c1b 10000000 		.4byte	.LC11
 9530 2c1f 26       		.uleb128 0x26
 9531 2c20 01       		.uleb128 0x1
 9532 2c21 51       		.byte	0x51
 9533 2c22 05       		.uleb128 0x5
 9534 2c23 03       		.byte	0x3
 9535 2c24 14000000 		.4byte	.LC6
 9536 2c28 00       		.byte	0
 9537 2c29 31       		.uleb128 0x31
 9538 2c2a 40010000 		.4byte	.LVL109
 9539 2c2e 472D0000 		.4byte	0x2d47
 9540 2c32 26       		.uleb128 0x26
 9541 2c33 01       		.uleb128 0x1
 9542 2c34 52       		.byte	0x52
 9543 2c35 05       		.uleb128 0x5
 9544 2c36 03       		.byte	0x3
 9545 2c37 18000000 		.4byte	.LC13
 9546 2c3b 00       		.byte	0
 9547 2c3c 00       		.byte	0
 9548 2c3d 00       		.byte	0
 9549 2c3e 2E       		.uleb128 0x2e
 9550 2c3f 16000000 		.4byte	.LVL80
 9551 2c43 2F2D0000 		.4byte	0x2d2f
 9552 2c47 572C0000 		.4byte	0x2c57
 9553 2c4b 26       		.uleb128 0x26
 9554 2c4c 01       		.uleb128 0x1
 9555 2c4d 50       		.byte	0x50
 9556 2c4e 02       		.uleb128 0x2
 9557 2c4f 74       		.byte	0x74
 9558 2c50 00       		.sleb128 0
 9559 2c51 26       		.uleb128 0x26
ARM GAS  /tmp/ccMmeZ0f.s 			page 170


 9560 2c52 01       		.uleb128 0x1
 9561 2c53 51       		.byte	0x51
 9562 2c54 01       		.uleb128 0x1
 9563 2c55 30       		.byte	0x30
 9564 2c56 00       		.byte	0
 9565 2c57 2E       		.uleb128 0x2e
 9566 2c58 26000000 		.4byte	.LVL83
 9567 2c5c BE2C0000 		.4byte	0x2cbe
 9568 2c60 6E2C0000 		.4byte	0x2c6e
 9569 2c64 26       		.uleb128 0x26
 9570 2c65 01       		.uleb128 0x1
 9571 2c66 51       		.byte	0x51
 9572 2c67 05       		.uleb128 0x5
 9573 2c68 03       		.byte	0x3
 9574 2c69 00000000 		.4byte	.LC12
 9575 2c6d 00       		.byte	0
 9576 2c6e 25       		.uleb128 0x25
 9577 2c6f 3E000000 		.4byte	.LVL85
 9578 2c73 BE2C0000 		.4byte	0x2cbe
 9579 2c77 26       		.uleb128 0x26
 9580 2c78 01       		.uleb128 0x1
 9581 2c79 51       		.byte	0x51
 9582 2c7a 05       		.uleb128 0x5
 9583 2c7b 03       		.byte	0x3
 9584 2c7c 00000000 		.4byte	.LC0
 9585 2c80 00       		.byte	0
 9586 2c81 00       		.byte	0
 9587 2c82 4E       		.uleb128 0x4e
 9588 2c83 AB030000 		.4byte	.LASF188
 9589 2c87 AB030000 		.4byte	.LASF188
 9590 2c8b 02       		.byte	0x2
 9591 2c8c 5B       		.byte	0x5b
 9592 2c8d 08       		.byte	0x8
 9593 2c8e 4E       		.uleb128 0x4e
 9594 2c8f 57000000 		.4byte	.LASF189
 9595 2c93 57000000 		.4byte	.LASF189
 9596 2c97 02       		.byte	0x2
 9597 2c98 5C       		.byte	0x5c
 9598 2c99 08       		.byte	0x8
 9599 2c9a 4E       		.uleb128 0x4e
 9600 2c9b 44080000 		.4byte	.LASF190
 9601 2c9f 44080000 		.4byte	.LASF190
 9602 2ca3 02       		.byte	0x2
 9603 2ca4 5E       		.byte	0x5e
 9604 2ca5 09       		.byte	0x9
 9605 2ca6 4E       		.uleb128 0x4e
 9606 2ca7 3D000000 		.4byte	.LASF191
 9607 2cab 3D000000 		.4byte	.LASF191
 9608 2caf 02       		.byte	0x2
 9609 2cb0 63       		.byte	0x63
 9610 2cb1 08       		.byte	0x8
 9611 2cb2 4E       		.uleb128 0x4e
 9612 2cb3 1F030000 		.4byte	.LASF192
 9613 2cb7 1F030000 		.4byte	.LASF192
 9614 2cbb 18       		.byte	0x18
 9615 2cbc 9B       		.byte	0x9b
 9616 2cbd 08       		.byte	0x8
ARM GAS  /tmp/ccMmeZ0f.s 			page 171


 9617 2cbe 4F       		.uleb128 0x4f
 9618 2cbf DA060000 		.4byte	.LASF193
 9619 2cc3 DA060000 		.4byte	.LASF193
 9620 2cc7 15       		.byte	0x15
 9621 2cc8 3001     		.2byte	0x130
 9622 2cca 08       		.byte	0x8
 9623 2ccb 4F       		.uleb128 0x4f
 9624 2ccc 0C050000 		.4byte	.LASF194
 9625 2cd0 0C050000 		.4byte	.LASF194
 9626 2cd4 03       		.byte	0x3
 9627 2cd5 2C01     		.2byte	0x12c
 9628 2cd7 0D       		.byte	0xd
 9629 2cd8 4E       		.uleb128 0x4e
 9630 2cd9 BA010000 		.4byte	.LASF195
 9631 2cdd BA010000 		.4byte	.LASF195
 9632 2ce1 02       		.byte	0x2
 9633 2ce2 65       		.byte	0x65
 9634 2ce3 09       		.byte	0x9
 9635 2ce4 4E       		.uleb128 0x4e
 9636 2ce5 33010000 		.4byte	.LASF196
 9637 2ce9 33010000 		.4byte	.LASF196
 9638 2ced 02       		.byte	0x2
 9639 2cee 64       		.byte	0x64
 9640 2cef 08       		.byte	0x8
 9641 2cf0 4E       		.uleb128 0x4e
 9642 2cf1 A5050000 		.4byte	.LASF197
 9643 2cf5 A5050000 		.4byte	.LASF197
 9644 2cf9 17       		.byte	0x17
 9645 2cfa 62       		.byte	0x62
 9646 2cfb 06       		.byte	0x6
 9647 2cfc 4F       		.uleb128 0x4f
 9648 2cfd 32020000 		.4byte	.LASF198
 9649 2d01 32020000 		.4byte	.LASF198
 9650 2d05 15       		.byte	0x15
 9651 2d06 3101     		.2byte	0x131
 9652 2d08 08       		.byte	0x8
 9653 2d09 4E       		.uleb128 0x4e
 9654 2d0a C3000000 		.4byte	.LASF199
 9655 2d0e C3000000 		.4byte	.LASF199
 9656 2d12 02       		.byte	0x2
 9657 2d13 62       		.byte	0x62
 9658 2d14 08       		.byte	0x8
 9659 2d15 4F       		.uleb128 0x4f
 9660 2d16 2E090000 		.4byte	.LASF200
 9661 2d1a 2E090000 		.4byte	.LASF200
 9662 2d1e 03       		.byte	0x3
 9663 2d1f 4201     		.2byte	0x142
 9664 2d21 08       		.byte	0x8
 9665 2d22 4F       		.uleb128 0x4f
 9666 2d23 07020000 		.4byte	.LASF201
 9667 2d27 07020000 		.4byte	.LASF201
 9668 2d2b 15       		.byte	0x15
 9669 2d2c 3A01     		.2byte	0x13a
 9670 2d2e 08       		.byte	0x8
 9671 2d2f 4E       		.uleb128 0x4e
 9672 2d30 D7030000 		.4byte	.LASF202
 9673 2d34 D7030000 		.4byte	.LASF202
ARM GAS  /tmp/ccMmeZ0f.s 			page 172


 9674 2d38 02       		.byte	0x2
 9675 2d39 60       		.byte	0x60
 9676 2d3a 09       		.byte	0x9
 9677 2d3b 4E       		.uleb128 0x4e
 9678 2d3c C4060000 		.4byte	.LASF203
 9679 2d40 C4060000 		.4byte	.LASF203
 9680 2d44 17       		.byte	0x17
 9681 2d45 63       		.byte	0x63
 9682 2d46 0B       		.byte	0xb
 9683 2d47 4F       		.uleb128 0x4f
 9684 2d48 9C020000 		.4byte	.LASF204
 9685 2d4c 9C020000 		.4byte	.LASF204
 9686 2d50 15       		.byte	0x15
 9687 2d51 3301     		.2byte	0x133
 9688 2d53 08       		.byte	0x8
 9689 2d54 00       		.byte	0
 9690              		.section	.debug_abbrev,"",%progbits
 9691              	.Ldebug_abbrev0:
 9692 0000 01       		.uleb128 0x1
 9693 0001 11       		.uleb128 0x11
 9694 0002 01       		.byte	0x1
 9695 0003 25       		.uleb128 0x25
 9696 0004 0E       		.uleb128 0xe
 9697 0005 13       		.uleb128 0x13
 9698 0006 0B       		.uleb128 0xb
 9699 0007 03       		.uleb128 0x3
 9700 0008 0E       		.uleb128 0xe
 9701 0009 1B       		.uleb128 0x1b
 9702 000a 0E       		.uleb128 0xe
 9703 000b 55       		.uleb128 0x55
 9704 000c 17       		.uleb128 0x17
 9705 000d 11       		.uleb128 0x11
 9706 000e 01       		.uleb128 0x1
 9707 000f 10       		.uleb128 0x10
 9708 0010 17       		.uleb128 0x17
 9709 0011 00       		.byte	0
 9710 0012 00       		.byte	0
 9711 0013 02       		.uleb128 0x2
 9712 0014 24       		.uleb128 0x24
 9713 0015 00       		.byte	0
 9714 0016 0B       		.uleb128 0xb
 9715 0017 0B       		.uleb128 0xb
 9716 0018 3E       		.uleb128 0x3e
 9717 0019 0B       		.uleb128 0xb
 9718 001a 03       		.uleb128 0x3
 9719 001b 08       		.uleb128 0x8
 9720 001c 00       		.byte	0
 9721 001d 00       		.byte	0
 9722 001e 03       		.uleb128 0x3
 9723 001f 16       		.uleb128 0x16
 9724 0020 00       		.byte	0
 9725 0021 03       		.uleb128 0x3
 9726 0022 0E       		.uleb128 0xe
 9727 0023 3A       		.uleb128 0x3a
 9728 0024 0B       		.uleb128 0xb
 9729 0025 3B       		.uleb128 0x3b
 9730 0026 0B       		.uleb128 0xb
ARM GAS  /tmp/ccMmeZ0f.s 			page 173


 9731 0027 39       		.uleb128 0x39
 9732 0028 0B       		.uleb128 0xb
 9733 0029 49       		.uleb128 0x49
 9734 002a 13       		.uleb128 0x13
 9735 002b 00       		.byte	0
 9736 002c 00       		.byte	0
 9737 002d 04       		.uleb128 0x4
 9738 002e 24       		.uleb128 0x24
 9739 002f 00       		.byte	0
 9740 0030 0B       		.uleb128 0xb
 9741 0031 0B       		.uleb128 0xb
 9742 0032 3E       		.uleb128 0x3e
 9743 0033 0B       		.uleb128 0xb
 9744 0034 03       		.uleb128 0x3
 9745 0035 0E       		.uleb128 0xe
 9746 0036 00       		.byte	0
 9747 0037 00       		.byte	0
 9748 0038 05       		.uleb128 0x5
 9749 0039 26       		.uleb128 0x26
 9750 003a 00       		.byte	0
 9751 003b 49       		.uleb128 0x49
 9752 003c 13       		.uleb128 0x13
 9753 003d 00       		.byte	0
 9754 003e 00       		.byte	0
 9755 003f 06       		.uleb128 0x6
 9756 0040 35       		.uleb128 0x35
 9757 0041 00       		.byte	0
 9758 0042 49       		.uleb128 0x49
 9759 0043 13       		.uleb128 0x13
 9760 0044 00       		.byte	0
 9761 0045 00       		.byte	0
 9762 0046 07       		.uleb128 0x7
 9763 0047 13       		.uleb128 0x13
 9764 0048 01       		.byte	0x1
 9765 0049 03       		.uleb128 0x3
 9766 004a 0E       		.uleb128 0xe
 9767 004b 0B       		.uleb128 0xb
 9768 004c 0B       		.uleb128 0xb
 9769 004d 3A       		.uleb128 0x3a
 9770 004e 0B       		.uleb128 0xb
 9771 004f 3B       		.uleb128 0x3b
 9772 0050 0B       		.uleb128 0xb
 9773 0051 39       		.uleb128 0x39
 9774 0052 0B       		.uleb128 0xb
 9775 0053 01       		.uleb128 0x1
 9776 0054 13       		.uleb128 0x13
 9777 0055 00       		.byte	0
 9778 0056 00       		.byte	0
 9779 0057 08       		.uleb128 0x8
 9780 0058 0D       		.uleb128 0xd
 9781 0059 00       		.byte	0
 9782 005a 03       		.uleb128 0x3
 9783 005b 08       		.uleb128 0x8
 9784 005c 3A       		.uleb128 0x3a
 9785 005d 0B       		.uleb128 0xb
 9786 005e 3B       		.uleb128 0x3b
 9787 005f 0B       		.uleb128 0xb
ARM GAS  /tmp/ccMmeZ0f.s 			page 174


 9788 0060 39       		.uleb128 0x39
 9789 0061 0B       		.uleb128 0xb
 9790 0062 49       		.uleb128 0x49
 9791 0063 13       		.uleb128 0x13
 9792 0064 38       		.uleb128 0x38
 9793 0065 0B       		.uleb128 0xb
 9794 0066 00       		.byte	0
 9795 0067 00       		.byte	0
 9796 0068 09       		.uleb128 0x9
 9797 0069 0D       		.uleb128 0xd
 9798 006a 00       		.byte	0
 9799 006b 03       		.uleb128 0x3
 9800 006c 0E       		.uleb128 0xe
 9801 006d 3A       		.uleb128 0x3a
 9802 006e 0B       		.uleb128 0xb
 9803 006f 3B       		.uleb128 0x3b
 9804 0070 0B       		.uleb128 0xb
 9805 0071 39       		.uleb128 0x39
 9806 0072 0B       		.uleb128 0xb
 9807 0073 49       		.uleb128 0x49
 9808 0074 13       		.uleb128 0x13
 9809 0075 38       		.uleb128 0x38
 9810 0076 0B       		.uleb128 0xb
 9811 0077 00       		.byte	0
 9812 0078 00       		.byte	0
 9813 0079 0A       		.uleb128 0xa
 9814 007a 0D       		.uleb128 0xd
 9815 007b 00       		.byte	0
 9816 007c 03       		.uleb128 0x3
 9817 007d 08       		.uleb128 0x8
 9818 007e 3A       		.uleb128 0x3a
 9819 007f 0B       		.uleb128 0xb
 9820 0080 3B       		.uleb128 0x3b
 9821 0081 05       		.uleb128 0x5
 9822 0082 39       		.uleb128 0x39
 9823 0083 0B       		.uleb128 0xb
 9824 0084 49       		.uleb128 0x49
 9825 0085 13       		.uleb128 0x13
 9826 0086 38       		.uleb128 0x38
 9827 0087 0B       		.uleb128 0xb
 9828 0088 00       		.byte	0
 9829 0089 00       		.byte	0
 9830 008a 0B       		.uleb128 0xb
 9831 008b 0D       		.uleb128 0xd
 9832 008c 00       		.byte	0
 9833 008d 03       		.uleb128 0x3
 9834 008e 0E       		.uleb128 0xe
 9835 008f 3A       		.uleb128 0x3a
 9836 0090 0B       		.uleb128 0xb
 9837 0091 3B       		.uleb128 0x3b
 9838 0092 05       		.uleb128 0x5
 9839 0093 39       		.uleb128 0x39
 9840 0094 0B       		.uleb128 0xb
 9841 0095 49       		.uleb128 0x49
 9842 0096 13       		.uleb128 0x13
 9843 0097 38       		.uleb128 0x38
 9844 0098 0B       		.uleb128 0xb
ARM GAS  /tmp/ccMmeZ0f.s 			page 175


 9845 0099 00       		.byte	0
 9846 009a 00       		.byte	0
 9847 009b 0C       		.uleb128 0xc
 9848 009c 13       		.uleb128 0x13
 9849 009d 01       		.byte	0x1
 9850 009e 03       		.uleb128 0x3
 9851 009f 0E       		.uleb128 0xe
 9852 00a0 0B       		.uleb128 0xb
 9853 00a1 0B       		.uleb128 0xb
 9854 00a2 3A       		.uleb128 0x3a
 9855 00a3 0B       		.uleb128 0xb
 9856 00a4 3B       		.uleb128 0x3b
 9857 00a5 05       		.uleb128 0x5
 9858 00a6 39       		.uleb128 0x39
 9859 00a7 0B       		.uleb128 0xb
 9860 00a8 01       		.uleb128 0x1
 9861 00a9 13       		.uleb128 0x13
 9862 00aa 00       		.byte	0
 9863 00ab 00       		.byte	0
 9864 00ac 0D       		.uleb128 0xd
 9865 00ad 0F       		.uleb128 0xf
 9866 00ae 00       		.byte	0
 9867 00af 0B       		.uleb128 0xb
 9868 00b0 0B       		.uleb128 0xb
 9869 00b1 49       		.uleb128 0x49
 9870 00b2 13       		.uleb128 0x13
 9871 00b3 00       		.byte	0
 9872 00b4 00       		.byte	0
 9873 00b5 0E       		.uleb128 0xe
 9874 00b6 0F       		.uleb128 0xf
 9875 00b7 00       		.byte	0
 9876 00b8 0B       		.uleb128 0xb
 9877 00b9 0B       		.uleb128 0xb
 9878 00ba 00       		.byte	0
 9879 00bb 00       		.byte	0
 9880 00bc 0F       		.uleb128 0xf
 9881 00bd 17       		.uleb128 0x17
 9882 00be 01       		.byte	0x1
 9883 00bf 0B       		.uleb128 0xb
 9884 00c0 0B       		.uleb128 0xb
 9885 00c1 3A       		.uleb128 0x3a
 9886 00c2 0B       		.uleb128 0xb
 9887 00c3 3B       		.uleb128 0x3b
 9888 00c4 0B       		.uleb128 0xb
 9889 00c5 39       		.uleb128 0x39
 9890 00c6 0B       		.uleb128 0xb
 9891 00c7 01       		.uleb128 0x1
 9892 00c8 13       		.uleb128 0x13
 9893 00c9 00       		.byte	0
 9894 00ca 00       		.byte	0
 9895 00cb 10       		.uleb128 0x10
 9896 00cc 0D       		.uleb128 0xd
 9897 00cd 00       		.byte	0
 9898 00ce 03       		.uleb128 0x3
 9899 00cf 0E       		.uleb128 0xe
 9900 00d0 3A       		.uleb128 0x3a
 9901 00d1 0B       		.uleb128 0xb
ARM GAS  /tmp/ccMmeZ0f.s 			page 176


 9902 00d2 3B       		.uleb128 0x3b
 9903 00d3 0B       		.uleb128 0xb
 9904 00d4 39       		.uleb128 0x39
 9905 00d5 0B       		.uleb128 0xb
 9906 00d6 49       		.uleb128 0x49
 9907 00d7 13       		.uleb128 0x13
 9908 00d8 00       		.byte	0
 9909 00d9 00       		.byte	0
 9910 00da 11       		.uleb128 0x11
 9911 00db 0D       		.uleb128 0xd
 9912 00dc 00       		.byte	0
 9913 00dd 03       		.uleb128 0x3
 9914 00de 0E       		.uleb128 0xe
 9915 00df 3A       		.uleb128 0x3a
 9916 00e0 0B       		.uleb128 0xb
 9917 00e1 3B       		.uleb128 0x3b
 9918 00e2 05       		.uleb128 0x5
 9919 00e3 39       		.uleb128 0x39
 9920 00e4 0B       		.uleb128 0xb
 9921 00e5 49       		.uleb128 0x49
 9922 00e6 13       		.uleb128 0x13
 9923 00e7 00       		.byte	0
 9924 00e8 00       		.byte	0
 9925 00e9 12       		.uleb128 0x12
 9926 00ea 16       		.uleb128 0x16
 9927 00eb 00       		.byte	0
 9928 00ec 03       		.uleb128 0x3
 9929 00ed 0E       		.uleb128 0xe
 9930 00ee 3A       		.uleb128 0x3a
 9931 00ef 0B       		.uleb128 0xb
 9932 00f0 3B       		.uleb128 0x3b
 9933 00f1 05       		.uleb128 0x5
 9934 00f2 39       		.uleb128 0x39
 9935 00f3 0B       		.uleb128 0xb
 9936 00f4 49       		.uleb128 0x49
 9937 00f5 13       		.uleb128 0x13
 9938 00f6 00       		.byte	0
 9939 00f7 00       		.byte	0
 9940 00f8 13       		.uleb128 0x13
 9941 00f9 34       		.uleb128 0x34
 9942 00fa 00       		.byte	0
 9943 00fb 03       		.uleb128 0x3
 9944 00fc 08       		.uleb128 0x8
 9945 00fd 3A       		.uleb128 0x3a
 9946 00fe 0B       		.uleb128 0xb
 9947 00ff 3B       		.uleb128 0x3b
 9948 0100 05       		.uleb128 0x5
 9949 0101 39       		.uleb128 0x39
 9950 0102 0B       		.uleb128 0xb
 9951 0103 49       		.uleb128 0x49
 9952 0104 13       		.uleb128 0x13
 9953 0105 3F       		.uleb128 0x3f
 9954 0106 19       		.uleb128 0x19
 9955 0107 3C       		.uleb128 0x3c
 9956 0108 19       		.uleb128 0x19
 9957 0109 00       		.byte	0
 9958 010a 00       		.byte	0
ARM GAS  /tmp/ccMmeZ0f.s 			page 177


 9959 010b 14       		.uleb128 0x14
 9960 010c 15       		.uleb128 0x15
 9961 010d 01       		.byte	0x1
 9962 010e 27       		.uleb128 0x27
 9963 010f 19       		.uleb128 0x19
 9964 0110 49       		.uleb128 0x49
 9965 0111 13       		.uleb128 0x13
 9966 0112 01       		.uleb128 0x1
 9967 0113 13       		.uleb128 0x13
 9968 0114 00       		.byte	0
 9969 0115 00       		.byte	0
 9970 0116 15       		.uleb128 0x15
 9971 0117 05       		.uleb128 0x5
 9972 0118 00       		.byte	0
 9973 0119 49       		.uleb128 0x49
 9974 011a 13       		.uleb128 0x13
 9975 011b 00       		.byte	0
 9976 011c 00       		.byte	0
 9977 011d 16       		.uleb128 0x16
 9978 011e 13       		.uleb128 0x13
 9979 011f 01       		.byte	0x1
 9980 0120 0B       		.uleb128 0xb
 9981 0121 0B       		.uleb128 0xb
 9982 0122 3A       		.uleb128 0x3a
 9983 0123 0B       		.uleb128 0xb
 9984 0124 3B       		.uleb128 0x3b
 9985 0125 0B       		.uleb128 0xb
 9986 0126 39       		.uleb128 0x39
 9987 0127 0B       		.uleb128 0xb
 9988 0128 01       		.uleb128 0x1
 9989 0129 13       		.uleb128 0x13
 9990 012a 00       		.byte	0
 9991 012b 00       		.byte	0
 9992 012c 17       		.uleb128 0x17
 9993 012d 01       		.uleb128 0x1
 9994 012e 01       		.byte	0x1
 9995 012f 49       		.uleb128 0x49
 9996 0130 13       		.uleb128 0x13
 9997 0131 01       		.uleb128 0x1
 9998 0132 13       		.uleb128 0x13
 9999 0133 00       		.byte	0
 10000 0134 00       		.byte	0
 10001 0135 18       		.uleb128 0x18
 10002 0136 21       		.uleb128 0x21
 10003 0137 00       		.byte	0
 10004 0138 49       		.uleb128 0x49
 10005 0139 13       		.uleb128 0x13
 10006 013a 2F       		.uleb128 0x2f
 10007 013b 0B       		.uleb128 0xb
 10008 013c 00       		.byte	0
 10009 013d 00       		.byte	0
 10010 013e 19       		.uleb128 0x19
 10011 013f 15       		.uleb128 0x15
 10012 0140 00       		.byte	0
 10013 0141 27       		.uleb128 0x27
 10014 0142 19       		.uleb128 0x19
 10015 0143 00       		.byte	0
ARM GAS  /tmp/ccMmeZ0f.s 			page 178


 10016 0144 00       		.byte	0
 10017 0145 1A       		.uleb128 0x1a
 10018 0146 34       		.uleb128 0x34
 10019 0147 00       		.byte	0
 10020 0148 03       		.uleb128 0x3
 10021 0149 0E       		.uleb128 0xe
 10022 014a 3A       		.uleb128 0x3a
 10023 014b 0B       		.uleb128 0xb
 10024 014c 3B       		.uleb128 0x3b
 10025 014d 05       		.uleb128 0x5
 10026 014e 39       		.uleb128 0x39
 10027 014f 0B       		.uleb128 0xb
 10028 0150 49       		.uleb128 0x49
 10029 0151 13       		.uleb128 0x13
 10030 0152 3F       		.uleb128 0x3f
 10031 0153 19       		.uleb128 0x19
 10032 0154 3C       		.uleb128 0x3c
 10033 0155 19       		.uleb128 0x19
 10034 0156 00       		.byte	0
 10035 0157 00       		.byte	0
 10036 0158 1B       		.uleb128 0x1b
 10037 0159 34       		.uleb128 0x34
 10038 015a 00       		.byte	0
 10039 015b 03       		.uleb128 0x3
 10040 015c 0E       		.uleb128 0xe
 10041 015d 3A       		.uleb128 0x3a
 10042 015e 0B       		.uleb128 0xb
 10043 015f 3B       		.uleb128 0x3b
 10044 0160 0B       		.uleb128 0xb
 10045 0161 39       		.uleb128 0x39
 10046 0162 0B       		.uleb128 0xb
 10047 0163 49       		.uleb128 0x49
 10048 0164 13       		.uleb128 0x13
 10049 0165 3F       		.uleb128 0x3f
 10050 0166 19       		.uleb128 0x19
 10051 0167 3C       		.uleb128 0x3c
 10052 0168 19       		.uleb128 0x19
 10053 0169 00       		.byte	0
 10054 016a 00       		.byte	0
 10055 016b 1C       		.uleb128 0x1c
 10056 016c 34       		.uleb128 0x34
 10057 016d 00       		.byte	0
 10058 016e 03       		.uleb128 0x3
 10059 016f 08       		.uleb128 0x8
 10060 0170 3A       		.uleb128 0x3a
 10061 0171 0B       		.uleb128 0xb
 10062 0172 3B       		.uleb128 0x3b
 10063 0173 0B       		.uleb128 0xb
 10064 0174 39       		.uleb128 0x39
 10065 0175 0B       		.uleb128 0xb
 10066 0176 49       		.uleb128 0x49
 10067 0177 13       		.uleb128 0x13
 10068 0178 3F       		.uleb128 0x3f
 10069 0179 19       		.uleb128 0x19
 10070 017a 3C       		.uleb128 0x3c
 10071 017b 19       		.uleb128 0x19
 10072 017c 00       		.byte	0
ARM GAS  /tmp/ccMmeZ0f.s 			page 179


 10073 017d 00       		.byte	0
 10074 017e 1D       		.uleb128 0x1d
 10075 017f 34       		.uleb128 0x34
 10076 0180 00       		.byte	0
 10077 0181 03       		.uleb128 0x3
 10078 0182 0E       		.uleb128 0xe
 10079 0183 3A       		.uleb128 0x3a
 10080 0184 0B       		.uleb128 0xb
 10081 0185 3B       		.uleb128 0x3b
 10082 0186 0B       		.uleb128 0xb
 10083 0187 39       		.uleb128 0x39
 10084 0188 0B       		.uleb128 0xb
 10085 0189 49       		.uleb128 0x49
 10086 018a 13       		.uleb128 0x13
 10087 018b 02       		.uleb128 0x2
 10088 018c 18       		.uleb128 0x18
 10089 018d 00       		.byte	0
 10090 018e 00       		.byte	0
 10091 018f 1E       		.uleb128 0x1e
 10092 0190 34       		.uleb128 0x34
 10093 0191 00       		.byte	0
 10094 0192 03       		.uleb128 0x3
 10095 0193 0E       		.uleb128 0xe
 10096 0194 3A       		.uleb128 0x3a
 10097 0195 0B       		.uleb128 0xb
 10098 0196 3B       		.uleb128 0x3b
 10099 0197 05       		.uleb128 0x5
 10100 0198 39       		.uleb128 0x39
 10101 0199 0B       		.uleb128 0xb
 10102 019a 49       		.uleb128 0x49
 10103 019b 13       		.uleb128 0x13
 10104 019c 02       		.uleb128 0x2
 10105 019d 18       		.uleb128 0x18
 10106 019e 00       		.byte	0
 10107 019f 00       		.byte	0
 10108 01a0 1F       		.uleb128 0x1f
 10109 01a1 34       		.uleb128 0x34
 10110 01a2 00       		.byte	0
 10111 01a3 03       		.uleb128 0x3
 10112 01a4 0E       		.uleb128 0xe
 10113 01a5 3A       		.uleb128 0x3a
 10114 01a6 0B       		.uleb128 0xb
 10115 01a7 3B       		.uleb128 0x3b
 10116 01a8 05       		.uleb128 0x5
 10117 01a9 39       		.uleb128 0x39
 10118 01aa 0B       		.uleb128 0xb
 10119 01ab 49       		.uleb128 0x49
 10120 01ac 13       		.uleb128 0x13
 10121 01ad 3F       		.uleb128 0x3f
 10122 01ae 19       		.uleb128 0x19
 10123 01af 02       		.uleb128 0x2
 10124 01b0 18       		.uleb128 0x18
 10125 01b1 00       		.byte	0
 10126 01b2 00       		.byte	0
 10127 01b3 20       		.uleb128 0x20
 10128 01b4 34       		.uleb128 0x34
 10129 01b5 00       		.byte	0
ARM GAS  /tmp/ccMmeZ0f.s 			page 180


 10130 01b6 47       		.uleb128 0x47
 10131 01b7 13       		.uleb128 0x13
 10132 01b8 3A       		.uleb128 0x3a
 10133 01b9 0B       		.uleb128 0xb
 10134 01ba 3B       		.uleb128 0x3b
 10135 01bb 05       		.uleb128 0x5
 10136 01bc 39       		.uleb128 0x39
 10137 01bd 0B       		.uleb128 0xb
 10138 01be 02       		.uleb128 0x2
 10139 01bf 18       		.uleb128 0x18
 10140 01c0 00       		.byte	0
 10141 01c1 00       		.byte	0
 10142 01c2 21       		.uleb128 0x21
 10143 01c3 2E       		.uleb128 0x2e
 10144 01c4 01       		.byte	0x1
 10145 01c5 03       		.uleb128 0x3
 10146 01c6 0E       		.uleb128 0xe
 10147 01c7 3A       		.uleb128 0x3a
 10148 01c8 0B       		.uleb128 0xb
 10149 01c9 3B       		.uleb128 0x3b
 10150 01ca 05       		.uleb128 0x5
 10151 01cb 39       		.uleb128 0x39
 10152 01cc 0B       		.uleb128 0xb
 10153 01cd 27       		.uleb128 0x27
 10154 01ce 19       		.uleb128 0x19
 10155 01cf 11       		.uleb128 0x11
 10156 01d0 01       		.uleb128 0x1
 10157 01d1 12       		.uleb128 0x12
 10158 01d2 06       		.uleb128 0x6
 10159 01d3 40       		.uleb128 0x40
 10160 01d4 18       		.uleb128 0x18
 10161 01d5 9742     		.uleb128 0x2117
 10162 01d7 19       		.uleb128 0x19
 10163 01d8 01       		.uleb128 0x1
 10164 01d9 13       		.uleb128 0x13
 10165 01da 00       		.byte	0
 10166 01db 00       		.byte	0
 10167 01dc 22       		.uleb128 0x22
 10168 01dd 34       		.uleb128 0x34
 10169 01de 00       		.byte	0
 10170 01df 03       		.uleb128 0x3
 10171 01e0 08       		.uleb128 0x8
 10172 01e1 3A       		.uleb128 0x3a
 10173 01e2 0B       		.uleb128 0xb
 10174 01e3 3B       		.uleb128 0x3b
 10175 01e4 05       		.uleb128 0x5
 10176 01e5 39       		.uleb128 0x39
 10177 01e6 0B       		.uleb128 0xb
 10178 01e7 49       		.uleb128 0x49
 10179 01e8 13       		.uleb128 0x13
 10180 01e9 02       		.uleb128 0x2
 10181 01ea 17       		.uleb128 0x17
 10182 01eb B742     		.uleb128 0x2137
 10183 01ed 17       		.uleb128 0x17
 10184 01ee 00       		.byte	0
 10185 01ef 00       		.byte	0
 10186 01f0 23       		.uleb128 0x23
ARM GAS  /tmp/ccMmeZ0f.s 			page 181


 10187 01f1 1D       		.uleb128 0x1d
 10188 01f2 01       		.byte	0x1
 10189 01f3 31       		.uleb128 0x31
 10190 01f4 13       		.uleb128 0x13
 10191 01f5 52       		.uleb128 0x52
 10192 01f6 01       		.uleb128 0x1
 10193 01f7 B842     		.uleb128 0x2138
 10194 01f9 05       		.uleb128 0x5
 10195 01fa 55       		.uleb128 0x55
 10196 01fb 17       		.uleb128 0x17
 10197 01fc 58       		.uleb128 0x58
 10198 01fd 0B       		.uleb128 0xb
 10199 01fe 59       		.uleb128 0x59
 10200 01ff 05       		.uleb128 0x5
 10201 0200 57       		.uleb128 0x57
 10202 0201 0B       		.uleb128 0xb
 10203 0202 01       		.uleb128 0x1
 10204 0203 13       		.uleb128 0x13
 10205 0204 00       		.byte	0
 10206 0205 00       		.byte	0
 10207 0206 24       		.uleb128 0x24
 10208 0207 05       		.uleb128 0x5
 10209 0208 00       		.byte	0
 10210 0209 31       		.uleb128 0x31
 10211 020a 13       		.uleb128 0x13
 10212 020b 02       		.uleb128 0x2
 10213 020c 17       		.uleb128 0x17
 10214 020d B742     		.uleb128 0x2137
 10215 020f 17       		.uleb128 0x17
 10216 0210 00       		.byte	0
 10217 0211 00       		.byte	0
 10218 0212 25       		.uleb128 0x25
 10219 0213 898201   		.uleb128 0x4109
 10220 0216 01       		.byte	0x1
 10221 0217 11       		.uleb128 0x11
 10222 0218 01       		.uleb128 0x1
 10223 0219 31       		.uleb128 0x31
 10224 021a 13       		.uleb128 0x13
 10225 021b 00       		.byte	0
 10226 021c 00       		.byte	0
 10227 021d 26       		.uleb128 0x26
 10228 021e 8A8201   		.uleb128 0x410a
 10229 0221 00       		.byte	0
 10230 0222 02       		.uleb128 0x2
 10231 0223 18       		.uleb128 0x18
 10232 0224 9142     		.uleb128 0x2111
 10233 0226 18       		.uleb128 0x18
 10234 0227 00       		.byte	0
 10235 0228 00       		.byte	0
 10236 0229 27       		.uleb128 0x27
 10237 022a 1D       		.uleb128 0x1d
 10238 022b 01       		.byte	0x1
 10239 022c 31       		.uleb128 0x31
 10240 022d 13       		.uleb128 0x13
 10241 022e 52       		.uleb128 0x52
 10242 022f 01       		.uleb128 0x1
 10243 0230 B842     		.uleb128 0x2138
ARM GAS  /tmp/ccMmeZ0f.s 			page 182


 10244 0232 05       		.uleb128 0x5
 10245 0233 55       		.uleb128 0x55
 10246 0234 17       		.uleb128 0x17
 10247 0235 58       		.uleb128 0x58
 10248 0236 0B       		.uleb128 0xb
 10249 0237 59       		.uleb128 0x59
 10250 0238 05       		.uleb128 0x5
 10251 0239 57       		.uleb128 0x57
 10252 023a 0B       		.uleb128 0xb
 10253 023b 00       		.byte	0
 10254 023c 00       		.byte	0
 10255 023d 28       		.uleb128 0x28
 10256 023e 1D       		.uleb128 0x1d
 10257 023f 01       		.byte	0x1
 10258 0240 31       		.uleb128 0x31
 10259 0241 13       		.uleb128 0x13
 10260 0242 52       		.uleb128 0x52
 10261 0243 01       		.uleb128 0x1
 10262 0244 B842     		.uleb128 0x2138
 10263 0246 05       		.uleb128 0x5
 10264 0247 11       		.uleb128 0x11
 10265 0248 01       		.uleb128 0x1
 10266 0249 12       		.uleb128 0x12
 10267 024a 06       		.uleb128 0x6
 10268 024b 58       		.uleb128 0x58
 10269 024c 0B       		.uleb128 0xb
 10270 024d 59       		.uleb128 0x59
 10271 024e 05       		.uleb128 0x5
 10272 024f 57       		.uleb128 0x57
 10273 0250 0B       		.uleb128 0xb
 10274 0251 01       		.uleb128 0x1
 10275 0252 13       		.uleb128 0x13
 10276 0253 00       		.byte	0
 10277 0254 00       		.byte	0
 10278 0255 29       		.uleb128 0x29
 10279 0256 0B       		.uleb128 0xb
 10280 0257 01       		.byte	0x1
 10281 0258 55       		.uleb128 0x55
 10282 0259 17       		.uleb128 0x17
 10283 025a 00       		.byte	0
 10284 025b 00       		.byte	0
 10285 025c 2A       		.uleb128 0x2a
 10286 025d 1D       		.uleb128 0x1d
 10287 025e 01       		.byte	0x1
 10288 025f 31       		.uleb128 0x31
 10289 0260 13       		.uleb128 0x13
 10290 0261 52       		.uleb128 0x52
 10291 0262 01       		.uleb128 0x1
 10292 0263 B842     		.uleb128 0x2138
 10293 0265 05       		.uleb128 0x5
 10294 0266 11       		.uleb128 0x11
 10295 0267 01       		.uleb128 0x1
 10296 0268 12       		.uleb128 0x12
 10297 0269 06       		.uleb128 0x6
 10298 026a 58       		.uleb128 0x58
 10299 026b 0B       		.uleb128 0xb
 10300 026c 59       		.uleb128 0x59
ARM GAS  /tmp/ccMmeZ0f.s 			page 183


 10301 026d 05       		.uleb128 0x5
 10302 026e 57       		.uleb128 0x57
 10303 026f 0B       		.uleb128 0xb
 10304 0270 00       		.byte	0
 10305 0271 00       		.byte	0
 10306 0272 2B       		.uleb128 0x2b
 10307 0273 1D       		.uleb128 0x1d
 10308 0274 01       		.byte	0x1
 10309 0275 31       		.uleb128 0x31
 10310 0276 13       		.uleb128 0x13
 10311 0277 52       		.uleb128 0x52
 10312 0278 01       		.uleb128 0x1
 10313 0279 B842     		.uleb128 0x2138
 10314 027b 05       		.uleb128 0x5
 10315 027c 55       		.uleb128 0x55
 10316 027d 17       		.uleb128 0x17
 10317 027e 58       		.uleb128 0x58
 10318 027f 0B       		.uleb128 0xb
 10319 0280 59       		.uleb128 0x59
 10320 0281 0B       		.uleb128 0xb
 10321 0282 57       		.uleb128 0x57
 10322 0283 0B       		.uleb128 0xb
 10323 0284 00       		.byte	0
 10324 0285 00       		.byte	0
 10325 0286 2C       		.uleb128 0x2c
 10326 0287 1D       		.uleb128 0x1d
 10327 0288 00       		.byte	0
 10328 0289 31       		.uleb128 0x31
 10329 028a 13       		.uleb128 0x13
 10330 028b 52       		.uleb128 0x52
 10331 028c 01       		.uleb128 0x1
 10332 028d B842     		.uleb128 0x2138
 10333 028f 05       		.uleb128 0x5
 10334 0290 11       		.uleb128 0x11
 10335 0291 01       		.uleb128 0x1
 10336 0292 12       		.uleb128 0x12
 10337 0293 06       		.uleb128 0x6
 10338 0294 58       		.uleb128 0x58
 10339 0295 0B       		.uleb128 0xb
 10340 0296 59       		.uleb128 0x59
 10341 0297 05       		.uleb128 0x5
 10342 0298 57       		.uleb128 0x57
 10343 0299 0B       		.uleb128 0xb
 10344 029a 00       		.byte	0
 10345 029b 00       		.byte	0
 10346 029c 2D       		.uleb128 0x2d
 10347 029d 898201   		.uleb128 0x4109
 10348 02a0 00       		.byte	0
 10349 02a1 11       		.uleb128 0x11
 10350 02a2 01       		.uleb128 0x1
 10351 02a3 31       		.uleb128 0x31
 10352 02a4 13       		.uleb128 0x13
 10353 02a5 00       		.byte	0
 10354 02a6 00       		.byte	0
 10355 02a7 2E       		.uleb128 0x2e
 10356 02a8 898201   		.uleb128 0x4109
 10357 02ab 01       		.byte	0x1
ARM GAS  /tmp/ccMmeZ0f.s 			page 184


 10358 02ac 11       		.uleb128 0x11
 10359 02ad 01       		.uleb128 0x1
 10360 02ae 31       		.uleb128 0x31
 10361 02af 13       		.uleb128 0x13
 10362 02b0 01       		.uleb128 0x1
 10363 02b1 13       		.uleb128 0x13
 10364 02b2 00       		.byte	0
 10365 02b3 00       		.byte	0
 10366 02b4 2F       		.uleb128 0x2f
 10367 02b5 2E       		.uleb128 0x2e
 10368 02b6 00       		.byte	0
 10369 02b7 03       		.uleb128 0x3
 10370 02b8 0E       		.uleb128 0xe
 10371 02b9 3A       		.uleb128 0x3a
 10372 02ba 0B       		.uleb128 0xb
 10373 02bb 3B       		.uleb128 0x3b
 10374 02bc 05       		.uleb128 0x5
 10375 02bd 39       		.uleb128 0x39
 10376 02be 0B       		.uleb128 0xb
 10377 02bf 27       		.uleb128 0x27
 10378 02c0 19       		.uleb128 0x19
 10379 02c1 00       		.byte	0
 10380 02c2 00       		.byte	0
 10381 02c3 30       		.uleb128 0x30
 10382 02c4 1D       		.uleb128 0x1d
 10383 02c5 00       		.byte	0
 10384 02c6 31       		.uleb128 0x31
 10385 02c7 13       		.uleb128 0x13
 10386 02c8 52       		.uleb128 0x52
 10387 02c9 01       		.uleb128 0x1
 10388 02ca B842     		.uleb128 0x2138
 10389 02cc 05       		.uleb128 0x5
 10390 02cd 55       		.uleb128 0x55
 10391 02ce 17       		.uleb128 0x17
 10392 02cf 58       		.uleb128 0x58
 10393 02d0 0B       		.uleb128 0xb
 10394 02d1 59       		.uleb128 0x59
 10395 02d2 05       		.uleb128 0x5
 10396 02d3 57       		.uleb128 0x57
 10397 02d4 0B       		.uleb128 0xb
 10398 02d5 00       		.byte	0
 10399 02d6 00       		.byte	0
 10400 02d7 31       		.uleb128 0x31
 10401 02d8 898201   		.uleb128 0x4109
 10402 02db 01       		.byte	0x1
 10403 02dc 11       		.uleb128 0x11
 10404 02dd 01       		.uleb128 0x1
 10405 02de 9542     		.uleb128 0x2115
 10406 02e0 19       		.uleb128 0x19
 10407 02e1 31       		.uleb128 0x31
 10408 02e2 13       		.uleb128 0x13
 10409 02e3 00       		.byte	0
 10410 02e4 00       		.byte	0
 10411 02e5 32       		.uleb128 0x32
 10412 02e6 2E       		.uleb128 0x2e
 10413 02e7 00       		.byte	0
 10414 02e8 03       		.uleb128 0x3
ARM GAS  /tmp/ccMmeZ0f.s 			page 185


 10415 02e9 0E       		.uleb128 0xe
 10416 02ea 3A       		.uleb128 0x3a
 10417 02eb 0B       		.uleb128 0xb
 10418 02ec 3B       		.uleb128 0x3b
 10419 02ed 05       		.uleb128 0x5
 10420 02ee 39       		.uleb128 0x39
 10421 02ef 0B       		.uleb128 0xb
 10422 02f0 27       		.uleb128 0x27
 10423 02f1 19       		.uleb128 0x19
 10424 02f2 20       		.uleb128 0x20
 10425 02f3 0B       		.uleb128 0xb
 10426 02f4 00       		.byte	0
 10427 02f5 00       		.byte	0
 10428 02f6 33       		.uleb128 0x33
 10429 02f7 2E       		.uleb128 0x2e
 10430 02f8 01       		.byte	0x1
 10431 02f9 03       		.uleb128 0x3
 10432 02fa 0E       		.uleb128 0xe
 10433 02fb 3A       		.uleb128 0x3a
 10434 02fc 0B       		.uleb128 0xb
 10435 02fd 3B       		.uleb128 0x3b
 10436 02fe 0B       		.uleb128 0xb
 10437 02ff 39       		.uleb128 0x39
 10438 0300 0B       		.uleb128 0xb
 10439 0301 27       		.uleb128 0x27
 10440 0302 19       		.uleb128 0x19
 10441 0303 20       		.uleb128 0x20
 10442 0304 0B       		.uleb128 0xb
 10443 0305 01       		.uleb128 0x1
 10444 0306 13       		.uleb128 0x13
 10445 0307 00       		.byte	0
 10446 0308 00       		.byte	0
 10447 0309 34       		.uleb128 0x34
 10448 030a 34       		.uleb128 0x34
 10449 030b 00       		.byte	0
 10450 030c 03       		.uleb128 0x3
 10451 030d 08       		.uleb128 0x8
 10452 030e 3A       		.uleb128 0x3a
 10453 030f 0B       		.uleb128 0xb
 10454 0310 3B       		.uleb128 0x3b
 10455 0311 0B       		.uleb128 0xb
 10456 0312 39       		.uleb128 0x39
 10457 0313 0B       		.uleb128 0xb
 10458 0314 49       		.uleb128 0x49
 10459 0315 13       		.uleb128 0x13
 10460 0316 00       		.byte	0
 10461 0317 00       		.byte	0
 10462 0318 35       		.uleb128 0x35
 10463 0319 34       		.uleb128 0x34
 10464 031a 00       		.byte	0
 10465 031b 03       		.uleb128 0x3
 10466 031c 0E       		.uleb128 0xe
 10467 031d 3A       		.uleb128 0x3a
 10468 031e 0B       		.uleb128 0xb
 10469 031f 3B       		.uleb128 0x3b
 10470 0320 0B       		.uleb128 0xb
 10471 0321 39       		.uleb128 0x39
ARM GAS  /tmp/ccMmeZ0f.s 			page 186


 10472 0322 0B       		.uleb128 0xb
 10473 0323 49       		.uleb128 0x49
 10474 0324 13       		.uleb128 0x13
 10475 0325 00       		.byte	0
 10476 0326 00       		.byte	0
 10477 0327 36       		.uleb128 0x36
 10478 0328 2E       		.uleb128 0x2e
 10479 0329 00       		.byte	0
 10480 032a 03       		.uleb128 0x3
 10481 032b 0E       		.uleb128 0xe
 10482 032c 3A       		.uleb128 0x3a
 10483 032d 0B       		.uleb128 0xb
 10484 032e 3B       		.uleb128 0x3b
 10485 032f 0B       		.uleb128 0xb
 10486 0330 39       		.uleb128 0x39
 10487 0331 0B       		.uleb128 0xb
 10488 0332 27       		.uleb128 0x27
 10489 0333 19       		.uleb128 0x19
 10490 0334 00       		.byte	0
 10491 0335 00       		.byte	0
 10492 0336 37       		.uleb128 0x37
 10493 0337 2E       		.uleb128 0x2e
 10494 0338 01       		.byte	0x1
 10495 0339 03       		.uleb128 0x3
 10496 033a 0E       		.uleb128 0xe
 10497 033b 3A       		.uleb128 0x3a
 10498 033c 0B       		.uleb128 0xb
 10499 033d 3B       		.uleb128 0x3b
 10500 033e 0B       		.uleb128 0xb
 10501 033f 39       		.uleb128 0x39
 10502 0340 0B       		.uleb128 0xb
 10503 0341 27       		.uleb128 0x27
 10504 0342 19       		.uleb128 0x19
 10505 0343 11       		.uleb128 0x11
 10506 0344 01       		.uleb128 0x1
 10507 0345 12       		.uleb128 0x12
 10508 0346 06       		.uleb128 0x6
 10509 0347 40       		.uleb128 0x40
 10510 0348 18       		.uleb128 0x18
 10511 0349 9742     		.uleb128 0x2117
 10512 034b 19       		.uleb128 0x19
 10513 034c 01       		.uleb128 0x1
 10514 034d 13       		.uleb128 0x13
 10515 034e 00       		.byte	0
 10516 034f 00       		.byte	0
 10517 0350 38       		.uleb128 0x38
 10518 0351 1D       		.uleb128 0x1d
 10519 0352 01       		.byte	0x1
 10520 0353 31       		.uleb128 0x31
 10521 0354 13       		.uleb128 0x13
 10522 0355 52       		.uleb128 0x52
 10523 0356 01       		.uleb128 0x1
 10524 0357 B842     		.uleb128 0x2138
 10525 0359 05       		.uleb128 0x5
 10526 035a 55       		.uleb128 0x55
 10527 035b 17       		.uleb128 0x17
 10528 035c 58       		.uleb128 0x58
ARM GAS  /tmp/ccMmeZ0f.s 			page 187


 10529 035d 0B       		.uleb128 0xb
 10530 035e 59       		.uleb128 0x59
 10531 035f 0B       		.uleb128 0xb
 10532 0360 57       		.uleb128 0x57
 10533 0361 0B       		.uleb128 0xb
 10534 0362 01       		.uleb128 0x1
 10535 0363 13       		.uleb128 0x13
 10536 0364 00       		.byte	0
 10537 0365 00       		.byte	0
 10538 0366 39       		.uleb128 0x39
 10539 0367 2E       		.uleb128 0x2e
 10540 0368 00       		.byte	0
 10541 0369 03       		.uleb128 0x3
 10542 036a 0E       		.uleb128 0xe
 10543 036b 3A       		.uleb128 0x3a
 10544 036c 0B       		.uleb128 0xb
 10545 036d 3B       		.uleb128 0x3b
 10546 036e 0B       		.uleb128 0xb
 10547 036f 39       		.uleb128 0x39
 10548 0370 0B       		.uleb128 0xb
 10549 0371 27       		.uleb128 0x27
 10550 0372 19       		.uleb128 0x19
 10551 0373 20       		.uleb128 0x20
 10552 0374 0B       		.uleb128 0xb
 10553 0375 00       		.byte	0
 10554 0376 00       		.byte	0
 10555 0377 3A       		.uleb128 0x3a
 10556 0378 0B       		.uleb128 0xb
 10557 0379 01       		.byte	0x1
 10558 037a 55       		.uleb128 0x55
 10559 037b 17       		.uleb128 0x17
 10560 037c 01       		.uleb128 0x1
 10561 037d 13       		.uleb128 0x13
 10562 037e 00       		.byte	0
 10563 037f 00       		.byte	0
 10564 0380 3B       		.uleb128 0x3b
 10565 0381 34       		.uleb128 0x34
 10566 0382 00       		.byte	0
 10567 0383 03       		.uleb128 0x3
 10568 0384 08       		.uleb128 0x8
 10569 0385 3A       		.uleb128 0x3a
 10570 0386 0B       		.uleb128 0xb
 10571 0387 3B       		.uleb128 0x3b
 10572 0388 0B       		.uleb128 0xb
 10573 0389 39       		.uleb128 0x39
 10574 038a 0B       		.uleb128 0xb
 10575 038b 49       		.uleb128 0x49
 10576 038c 13       		.uleb128 0x13
 10577 038d 02       		.uleb128 0x2
 10578 038e 17       		.uleb128 0x17
 10579 038f B742     		.uleb128 0x2137
 10580 0391 17       		.uleb128 0x17
 10581 0392 00       		.byte	0
 10582 0393 00       		.byte	0
 10583 0394 3C       		.uleb128 0x3c
 10584 0395 1D       		.uleb128 0x1d
 10585 0396 01       		.byte	0x1
ARM GAS  /tmp/ccMmeZ0f.s 			page 188


 10586 0397 31       		.uleb128 0x31
 10587 0398 13       		.uleb128 0x13
 10588 0399 52       		.uleb128 0x52
 10589 039a 01       		.uleb128 0x1
 10590 039b B842     		.uleb128 0x2138
 10591 039d 05       		.uleb128 0x5
 10592 039e 11       		.uleb128 0x11
 10593 039f 01       		.uleb128 0x1
 10594 03a0 12       		.uleb128 0x12
 10595 03a1 06       		.uleb128 0x6
 10596 03a2 58       		.uleb128 0x58
 10597 03a3 0B       		.uleb128 0xb
 10598 03a4 59       		.uleb128 0x59
 10599 03a5 0B       		.uleb128 0xb
 10600 03a6 57       		.uleb128 0x57
 10601 03a7 0B       		.uleb128 0xb
 10602 03a8 01       		.uleb128 0x1
 10603 03a9 13       		.uleb128 0x13
 10604 03aa 00       		.byte	0
 10605 03ab 00       		.byte	0
 10606 03ac 3D       		.uleb128 0x3d
 10607 03ad 1D       		.uleb128 0x1d
 10608 03ae 01       		.byte	0x1
 10609 03af 31       		.uleb128 0x31
 10610 03b0 13       		.uleb128 0x13
 10611 03b1 52       		.uleb128 0x52
 10612 03b2 01       		.uleb128 0x1
 10613 03b3 B842     		.uleb128 0x2138
 10614 03b5 05       		.uleb128 0x5
 10615 03b6 11       		.uleb128 0x11
 10616 03b7 01       		.uleb128 0x1
 10617 03b8 12       		.uleb128 0x12
 10618 03b9 06       		.uleb128 0x6
 10619 03ba 58       		.uleb128 0x58
 10620 03bb 0B       		.uleb128 0xb
 10621 03bc 59       		.uleb128 0x59
 10622 03bd 0B       		.uleb128 0xb
 10623 03be 57       		.uleb128 0x57
 10624 03bf 0B       		.uleb128 0xb
 10625 03c0 00       		.byte	0
 10626 03c1 00       		.byte	0
 10627 03c2 3E       		.uleb128 0x3e
 10628 03c3 05       		.uleb128 0x5
 10629 03c4 00       		.byte	0
 10630 03c5 31       		.uleb128 0x31
 10631 03c6 13       		.uleb128 0x13
 10632 03c7 1C       		.uleb128 0x1c
 10633 03c8 0B       		.uleb128 0xb
 10634 03c9 00       		.byte	0
 10635 03ca 00       		.byte	0
 10636 03cb 3F       		.uleb128 0x3f
 10637 03cc 05       		.uleb128 0x5
 10638 03cd 00       		.byte	0
 10639 03ce 31       		.uleb128 0x31
 10640 03cf 13       		.uleb128 0x13
 10641 03d0 02       		.uleb128 0x2
 10642 03d1 18       		.uleb128 0x18
ARM GAS  /tmp/ccMmeZ0f.s 			page 189


 10643 03d2 00       		.byte	0
 10644 03d3 00       		.byte	0
 10645 03d4 40       		.uleb128 0x40
 10646 03d5 05       		.uleb128 0x5
 10647 03d6 00       		.byte	0
 10648 03d7 03       		.uleb128 0x3
 10649 03d8 08       		.uleb128 0x8
 10650 03d9 3A       		.uleb128 0x3a
 10651 03da 0B       		.uleb128 0xb
 10652 03db 3B       		.uleb128 0x3b
 10653 03dc 0B       		.uleb128 0xb
 10654 03dd 39       		.uleb128 0x39
 10655 03de 0B       		.uleb128 0xb
 10656 03df 49       		.uleb128 0x49
 10657 03e0 13       		.uleb128 0x13
 10658 03e1 02       		.uleb128 0x2
 10659 03e2 17       		.uleb128 0x17
 10660 03e3 B742     		.uleb128 0x2137
 10661 03e5 17       		.uleb128 0x17
 10662 03e6 00       		.byte	0
 10663 03e7 00       		.byte	0
 10664 03e8 41       		.uleb128 0x41
 10665 03e9 898201   		.uleb128 0x4109
 10666 03ec 00       		.byte	0
 10667 03ed 11       		.uleb128 0x11
 10668 03ee 01       		.uleb128 0x1
 10669 03ef 9542     		.uleb128 0x2115
 10670 03f1 19       		.uleb128 0x19
 10671 03f2 31       		.uleb128 0x31
 10672 03f3 13       		.uleb128 0x13
 10673 03f4 00       		.byte	0
 10674 03f5 00       		.byte	0
 10675 03f6 42       		.uleb128 0x42
 10676 03f7 2E       		.uleb128 0x2e
 10677 03f8 01       		.byte	0x1
 10678 03f9 03       		.uleb128 0x3
 10679 03fa 0E       		.uleb128 0xe
 10680 03fb 3A       		.uleb128 0x3a
 10681 03fc 0B       		.uleb128 0xb
 10682 03fd 3B       		.uleb128 0x3b
 10683 03fe 05       		.uleb128 0x5
 10684 03ff 39       		.uleb128 0x39
 10685 0400 0B       		.uleb128 0xb
 10686 0401 27       		.uleb128 0x27
 10687 0402 19       		.uleb128 0x19
 10688 0403 49       		.uleb128 0x49
 10689 0404 13       		.uleb128 0x13
 10690 0405 20       		.uleb128 0x20
 10691 0406 0B       		.uleb128 0xb
 10692 0407 01       		.uleb128 0x1
 10693 0408 13       		.uleb128 0x13
 10694 0409 00       		.byte	0
 10695 040a 00       		.byte	0
 10696 040b 43       		.uleb128 0x43
 10697 040c 05       		.uleb128 0x5
 10698 040d 00       		.byte	0
 10699 040e 03       		.uleb128 0x3
ARM GAS  /tmp/ccMmeZ0f.s 			page 190


 10700 040f 08       		.uleb128 0x8
 10701 0410 3A       		.uleb128 0x3a
 10702 0411 0B       		.uleb128 0xb
 10703 0412 3B       		.uleb128 0x3b
 10704 0413 05       		.uleb128 0x5
 10705 0414 39       		.uleb128 0x39
 10706 0415 0B       		.uleb128 0xb
 10707 0416 49       		.uleb128 0x49
 10708 0417 13       		.uleb128 0x13
 10709 0418 00       		.byte	0
 10710 0419 00       		.byte	0
 10711 041a 44       		.uleb128 0x44
 10712 041b 2E       		.uleb128 0x2e
 10713 041c 01       		.byte	0x1
 10714 041d 03       		.uleb128 0x3
 10715 041e 0E       		.uleb128 0xe
 10716 041f 3A       		.uleb128 0x3a
 10717 0420 0B       		.uleb128 0xb
 10718 0421 3B       		.uleb128 0x3b
 10719 0422 05       		.uleb128 0x5
 10720 0423 39       		.uleb128 0x39
 10721 0424 0B       		.uleb128 0xb
 10722 0425 27       		.uleb128 0x27
 10723 0426 19       		.uleb128 0x19
 10724 0427 20       		.uleb128 0x20
 10725 0428 0B       		.uleb128 0xb
 10726 0429 01       		.uleb128 0x1
 10727 042a 13       		.uleb128 0x13
 10728 042b 00       		.byte	0
 10729 042c 00       		.byte	0
 10730 042d 45       		.uleb128 0x45
 10731 042e 05       		.uleb128 0x5
 10732 042f 00       		.byte	0
 10733 0430 03       		.uleb128 0x3
 10734 0431 08       		.uleb128 0x8
 10735 0432 3A       		.uleb128 0x3a
 10736 0433 0B       		.uleb128 0xb
 10737 0434 3B       		.uleb128 0x3b
 10738 0435 0B       		.uleb128 0xb
 10739 0436 39       		.uleb128 0x39
 10740 0437 0B       		.uleb128 0xb
 10741 0438 49       		.uleb128 0x49
 10742 0439 13       		.uleb128 0x13
 10743 043a 00       		.byte	0
 10744 043b 00       		.byte	0
 10745 043c 46       		.uleb128 0x46
 10746 043d 05       		.uleb128 0x5
 10747 043e 00       		.byte	0
 10748 043f 03       		.uleb128 0x3
 10749 0440 0E       		.uleb128 0xe
 10750 0441 3A       		.uleb128 0x3a
 10751 0442 0B       		.uleb128 0xb
 10752 0443 3B       		.uleb128 0x3b
 10753 0444 0B       		.uleb128 0xb
 10754 0445 39       		.uleb128 0x39
 10755 0446 0B       		.uleb128 0xb
 10756 0447 49       		.uleb128 0x49
ARM GAS  /tmp/ccMmeZ0f.s 			page 191


 10757 0448 13       		.uleb128 0x13
 10758 0449 00       		.byte	0
 10759 044a 00       		.byte	0
 10760 044b 47       		.uleb128 0x47
 10761 044c 2E       		.uleb128 0x2e
 10762 044d 01       		.byte	0x1
 10763 044e 03       		.uleb128 0x3
 10764 044f 0E       		.uleb128 0xe
 10765 0450 3A       		.uleb128 0x3a
 10766 0451 0B       		.uleb128 0xb
 10767 0452 3B       		.uleb128 0x3b
 10768 0453 0B       		.uleb128 0xb
 10769 0454 39       		.uleb128 0x39
 10770 0455 0B       		.uleb128 0xb
 10771 0456 27       		.uleb128 0x27
 10772 0457 19       		.uleb128 0x19
 10773 0458 49       		.uleb128 0x49
 10774 0459 13       		.uleb128 0x13
 10775 045a 20       		.uleb128 0x20
 10776 045b 0B       		.uleb128 0xb
 10777 045c 01       		.uleb128 0x1
 10778 045d 13       		.uleb128 0x13
 10779 045e 00       		.byte	0
 10780 045f 00       		.byte	0
 10781 0460 48       		.uleb128 0x48
 10782 0461 2E       		.uleb128 0x2e
 10783 0462 00       		.byte	0
 10784 0463 03       		.uleb128 0x3
 10785 0464 0E       		.uleb128 0xe
 10786 0465 3A       		.uleb128 0x3a
 10787 0466 0B       		.uleb128 0xb
 10788 0467 3B       		.uleb128 0x3b
 10789 0468 05       		.uleb128 0x5
 10790 0469 39       		.uleb128 0x39
 10791 046a 0B       		.uleb128 0xb
 10792 046b 27       		.uleb128 0x27
 10793 046c 19       		.uleb128 0x19
 10794 046d 49       		.uleb128 0x49
 10795 046e 13       		.uleb128 0x13
 10796 046f 20       		.uleb128 0x20
 10797 0470 0B       		.uleb128 0xb
 10798 0471 00       		.byte	0
 10799 0472 00       		.byte	0
 10800 0473 49       		.uleb128 0x49
 10801 0474 34       		.uleb128 0x34
 10802 0475 00       		.byte	0
 10803 0476 03       		.uleb128 0x3
 10804 0477 0E       		.uleb128 0xe
 10805 0478 49       		.uleb128 0x49
 10806 0479 13       		.uleb128 0x13
 10807 047a 34       		.uleb128 0x34
 10808 047b 19       		.uleb128 0x19
 10809 047c 00       		.byte	0
 10810 047d 00       		.byte	0
 10811 047e 4A       		.uleb128 0x4a
 10812 047f 05       		.uleb128 0x5
 10813 0480 00       		.byte	0
ARM GAS  /tmp/ccMmeZ0f.s 			page 192


 10814 0481 03       		.uleb128 0x3
 10815 0482 0E       		.uleb128 0xe
 10816 0483 3A       		.uleb128 0x3a
 10817 0484 0B       		.uleb128 0xb
 10818 0485 3B       		.uleb128 0x3b
 10819 0486 05       		.uleb128 0x5
 10820 0487 39       		.uleb128 0x39
 10821 0488 0B       		.uleb128 0xb
 10822 0489 49       		.uleb128 0x49
 10823 048a 13       		.uleb128 0x13
 10824 048b 00       		.byte	0
 10825 048c 00       		.byte	0
 10826 048d 4B       		.uleb128 0x4b
 10827 048e 2E       		.uleb128 0x2e
 10828 048f 01       		.byte	0x1
 10829 0490 31       		.uleb128 0x31
 10830 0491 13       		.uleb128 0x13
 10831 0492 11       		.uleb128 0x11
 10832 0493 01       		.uleb128 0x1
 10833 0494 12       		.uleb128 0x12
 10834 0495 06       		.uleb128 0x6
 10835 0496 40       		.uleb128 0x40
 10836 0497 18       		.uleb128 0x18
 10837 0498 9742     		.uleb128 0x2117
 10838 049a 19       		.uleb128 0x19
 10839 049b 01       		.uleb128 0x1
 10840 049c 13       		.uleb128 0x13
 10841 049d 00       		.byte	0
 10842 049e 00       		.byte	0
 10843 049f 4C       		.uleb128 0x4c
 10844 04a0 34       		.uleb128 0x34
 10845 04a1 00       		.byte	0
 10846 04a2 31       		.uleb128 0x31
 10847 04a3 13       		.uleb128 0x13
 10848 04a4 00       		.byte	0
 10849 04a5 00       		.byte	0
 10850 04a6 4D       		.uleb128 0x4d
 10851 04a7 34       		.uleb128 0x34
 10852 04a8 00       		.byte	0
 10853 04a9 31       		.uleb128 0x31
 10854 04aa 13       		.uleb128 0x13
 10855 04ab 02       		.uleb128 0x2
 10856 04ac 17       		.uleb128 0x17
 10857 04ad B742     		.uleb128 0x2137
 10858 04af 17       		.uleb128 0x17
 10859 04b0 00       		.byte	0
 10860 04b1 00       		.byte	0
 10861 04b2 4E       		.uleb128 0x4e
 10862 04b3 2E       		.uleb128 0x2e
 10863 04b4 00       		.byte	0
 10864 04b5 3F       		.uleb128 0x3f
 10865 04b6 19       		.uleb128 0x19
 10866 04b7 3C       		.uleb128 0x3c
 10867 04b8 19       		.uleb128 0x19
 10868 04b9 6E       		.uleb128 0x6e
 10869 04ba 0E       		.uleb128 0xe
 10870 04bb 03       		.uleb128 0x3
ARM GAS  /tmp/ccMmeZ0f.s 			page 193


 10871 04bc 0E       		.uleb128 0xe
 10872 04bd 3A       		.uleb128 0x3a
 10873 04be 0B       		.uleb128 0xb
 10874 04bf 3B       		.uleb128 0x3b
 10875 04c0 0B       		.uleb128 0xb
 10876 04c1 39       		.uleb128 0x39
 10877 04c2 0B       		.uleb128 0xb
 10878 04c3 00       		.byte	0
 10879 04c4 00       		.byte	0
 10880 04c5 4F       		.uleb128 0x4f
 10881 04c6 2E       		.uleb128 0x2e
 10882 04c7 00       		.byte	0
 10883 04c8 3F       		.uleb128 0x3f
 10884 04c9 19       		.uleb128 0x19
 10885 04ca 3C       		.uleb128 0x3c
 10886 04cb 19       		.uleb128 0x19
 10887 04cc 6E       		.uleb128 0x6e
 10888 04cd 0E       		.uleb128 0xe
 10889 04ce 03       		.uleb128 0x3
 10890 04cf 0E       		.uleb128 0xe
 10891 04d0 3A       		.uleb128 0x3a
 10892 04d1 0B       		.uleb128 0xb
 10893 04d2 3B       		.uleb128 0x3b
 10894 04d3 05       		.uleb128 0x5
 10895 04d4 39       		.uleb128 0x39
 10896 04d5 0B       		.uleb128 0xb
 10897 04d6 00       		.byte	0
 10898 04d7 00       		.byte	0
 10899 04d8 00       		.byte	0
 10900              		.section	.debug_loc,"",%progbits
 10901              	.Ldebug_loc0:
 10902              	.LVUS44:
 10903 0000 00       		.uleb128 .LVU778
 10904 0001 00       		.uleb128 .LVU796
 10905 0002 00       		.uleb128 .LVU796
 10906 0003 00       		.uleb128 .LVU798
 10907 0004 00       		.uleb128 .LVU832
 10908 0005 00       		.uleb128 .LVU903
 10909 0006 00       		.uleb128 .LVU1023
 10910 0007 00       		.uleb128 .LVU1026
 10911              	.LLST44:
 10912 0008 94000000 		.4byte	.LVL136
 10913 000c 9A000000 		.4byte	.LVL138
 10914 0010 0100     		.2byte	0x1
 10915 0012 50       		.byte	0x50
 10916 0013 9A000000 		.4byte	.LVL138
 10917 0017 AA000000 		.4byte	.LVL140
 10918 001b 0100     		.2byte	0x1
 10919 001d 54       		.byte	0x54
 10920 001e BA000000 		.4byte	.LVL144
 10921 0022 FE000000 		.4byte	.LVL154
 10922 0026 0100     		.2byte	0x1
 10923 0028 54       		.byte	0x54
 10924 0029 5C010000 		.4byte	.LVL170
 10925 002d 64010000 		.4byte	.LVL173
 10926 0031 0100     		.2byte	0x1
 10927 0033 54       		.byte	0x54
ARM GAS  /tmp/ccMmeZ0f.s 			page 194


 10928 0034 00000000 		.4byte	0
 10929 0038 00000000 		.4byte	0
 10930              	.LVUS45:
 10931 003c 01       		.uleb128 .LVU655
 10932 003d 00       		.uleb128 .LVU659
 10933              	.LLST45:
 10934 003e 0E000000 		.4byte	.LVL119
 10935 0042 14000000 		.4byte	.LVL120
 10936 0046 0200     		.2byte	0x2
 10937 0048 31       		.byte	0x31
 10938 0049 9F       		.byte	0x9f
 10939 004a 00000000 		.4byte	0
 10940 004e 00000000 		.4byte	0
 10941              	.LVUS46:
 10942 0052 01       		.uleb128 .LVU655
 10943 0053 00       		.uleb128 .LVU659
 10944 0054 00       		.uleb128 .LVU659
 10945 0055 00       		.uleb128 .LVU659
 10946              	.LLST46:
 10947 0056 0E000000 		.4byte	.LVL119
 10948 005a 13000000 		.4byte	.LVL120-1
 10949 005e 0100     		.2byte	0x1
 10950 0060 50       		.byte	0x50
 10951 0061 13000000 		.4byte	.LVL120-1
 10952 0065 14000000 		.4byte	.LVL120
 10953 0069 0300     		.2byte	0x3
 10954 006b 91       		.byte	0x91
 10955 006c 5C       		.sleb128 -36
 10956 006d 9F       		.byte	0x9f
 10957 006e 00000000 		.4byte	0
 10958 0072 00000000 		.4byte	0
 10959              	.LVUS47:
 10960 0076 08       		.uleb128 .LVU667
 10961 0077 00       		.uleb128 .LVU669
 10962              	.LLST47:
 10963 0078 14000000 		.4byte	.LVL120
 10964 007c 18000000 		.4byte	.LVL121
 10965 0080 0300     		.2byte	0x3
 10966 0082 08       		.byte	0x8
 10967 0083 30       		.byte	0x30
 10968 0084 9F       		.byte	0x9f
 10969 0085 00000000 		.4byte	0
 10970 0089 00000000 		.4byte	0
 10971              	.LVUS48:
 10972 008d 04       		.uleb128 .LVU673
 10973 008e 07       		.uleb128 .LVU676
 10974              	.LLST48:
 10975 008f 18000000 		.4byte	.LVL121
 10976 0093 18000000 		.4byte	.LVL121
 10977 0097 0300     		.2byte	0x3
 10978 0099 91       		.byte	0x91
 10979 009a 5C       		.sleb128 -36
 10980 009b 9F       		.byte	0x9f
 10981 009c 00000000 		.4byte	0
 10982 00a0 00000000 		.4byte	0
 10983              	.LVUS49:
 10984 00a4 0C       		.uleb128 .LVU690
ARM GAS  /tmp/ccMmeZ0f.s 			page 195


 10985 00a5 00       		.uleb128 .LVU692
 10986              	.LLST49:
 10987 00a6 2A000000 		.4byte	.LVL123
 10988 00aa 30000000 		.4byte	.LVL124
 10989 00ae 0200     		.2byte	0x2
 10990 00b0 30       		.byte	0x30
 10991 00b1 9F       		.byte	0x9f
 10992 00b2 00000000 		.4byte	0
 10993 00b6 00000000 		.4byte	0
 10994              	.LVUS50:
 10995 00ba 0C       		.uleb128 .LVU707
 10996 00bb 00       		.uleb128 .LVU709
 10997              	.LLST50:
 10998 00bc 34000000 		.4byte	.LVL125
 10999 00c0 3A000000 		.4byte	.LVL126
 11000 00c4 0200     		.2byte	0x2
 11001 00c6 30       		.byte	0x30
 11002 00c7 9F       		.byte	0x9f
 11003 00c8 00000000 		.4byte	0
 11004 00cc 00000000 		.4byte	0
 11005              	.LVUS51:
 11006 00d0 01       		.uleb128 .LVU717
 11007 00d1 00       		.uleb128 .LVU721
 11008              	.LLST51:
 11009 00d2 46000000 		.4byte	.LVL127
 11010 00d6 4A000000 		.4byte	.LVL128
 11011 00da 0200     		.2byte	0x2
 11012 00dc 31       		.byte	0x31
 11013 00dd 9F       		.byte	0x9f
 11014 00de 00000000 		.4byte	0
 11015 00e2 00000000 		.4byte	0
 11016              	.LVUS52:
 11017 00e6 01       		.uleb128 .LVU717
 11018 00e7 00       		.uleb128 .LVU721
 11019 00e8 00       		.uleb128 .LVU721
 11020 00e9 00       		.uleb128 .LVU721
 11021              	.LLST52:
 11022 00ea 46000000 		.4byte	.LVL127
 11023 00ee 49000000 		.4byte	.LVL128-1
 11024 00f2 0100     		.2byte	0x1
 11025 00f4 50       		.byte	0x50
 11026 00f5 49000000 		.4byte	.LVL128-1
 11027 00f9 4A000000 		.4byte	.LVL128
 11028 00fd 0300     		.2byte	0x3
 11029 00ff 91       		.byte	0x91
 11030 0100 5C       		.sleb128 -36
 11031 0101 9F       		.byte	0x9f
 11032 0102 00000000 		.4byte	0
 11033 0106 00000000 		.4byte	0
 11034              	.LVUS53:
 11035 010a 03       		.uleb128 .LVU719
 11036 010b 00       		.uleb128 .LVU721
 11037              	.LLST53:
 11038 010c 46000000 		.4byte	.LVL127
 11039 0110 4A000000 		.4byte	.LVL128
 11040 0114 0200     		.2byte	0x2
 11041 0116 30       		.byte	0x30
ARM GAS  /tmp/ccMmeZ0f.s 			page 196


 11042 0117 9F       		.byte	0x9f
 11043 0118 00000000 		.4byte	0
 11044 011c 00000000 		.4byte	0
 11045              	.LVUS54:
 11046 0120 03       		.uleb128 .LVU719
 11047 0121 00       		.uleb128 .LVU721
 11048 0122 00       		.uleb128 .LVU721
 11049 0123 00       		.uleb128 .LVU721
 11050              	.LLST54:
 11051 0124 46000000 		.4byte	.LVL127
 11052 0128 49000000 		.4byte	.LVL128-1
 11053 012c 0100     		.2byte	0x1
 11054 012e 50       		.byte	0x50
 11055 012f 49000000 		.4byte	.LVL128-1
 11056 0133 4A000000 		.4byte	.LVL128
 11057 0137 0300     		.2byte	0x3
 11058 0139 91       		.byte	0x91
 11059 013a 5C       		.sleb128 -36
 11060 013b 9F       		.byte	0x9f
 11061 013c 00000000 		.4byte	0
 11062 0140 00000000 		.4byte	0
 11063              	.LVUS55:
 11064 0144 08       		.uleb128 .LVU729
 11065 0145 00       		.uleb128 .LVU731
 11066              	.LLST55:
 11067 0146 4A000000 		.4byte	.LVL128
 11068 014a 4E000000 		.4byte	.LVL129
 11069 014e 0300     		.2byte	0x3
 11070 0150 08       		.byte	0x8
 11071 0151 30       		.byte	0x30
 11072 0152 9F       		.byte	0x9f
 11073 0153 00000000 		.4byte	0
 11074 0157 00000000 		.4byte	0
 11075              	.LVUS56:
 11076 015b 04       		.uleb128 .LVU735
 11077 015c 07       		.uleb128 .LVU738
 11078              	.LLST56:
 11079 015d 4E000000 		.4byte	.LVL129
 11080 0161 4E000000 		.4byte	.LVL129
 11081 0165 0300     		.2byte	0x3
 11082 0167 91       		.byte	0x91
 11083 0168 5C       		.sleb128 -36
 11084 0169 9F       		.byte	0x9f
 11085 016a 00000000 		.4byte	0
 11086 016e 00000000 		.4byte	0
 11087              	.LVUS57:
 11088 0172 0C       		.uleb128 .LVU752
 11089 0173 00       		.uleb128 .LVU754
 11090              	.LLST57:
 11091 0174 62000000 		.4byte	.LVL131
 11092 0178 66000000 		.4byte	.LVL132
 11093 017c 0200     		.2byte	0x2
 11094 017e 30       		.byte	0x30
 11095 017f 9F       		.byte	0x9f
 11096 0180 00000000 		.4byte	0
 11097 0184 00000000 		.4byte	0
 11098              	.LVUS58:
ARM GAS  /tmp/ccMmeZ0f.s 			page 197


 11099 0188 01       		.uleb128 .LVU774
 11100 0189 00       		.uleb128 .LVU777
 11101 018a 00       		.uleb128 .LVU777
 11102 018b 00       		.uleb128 .LVU778
 11103              	.LLST58:
 11104 018c 8E000000 		.4byte	.LVL134
 11105 0190 91000000 		.4byte	.LVL135-1
 11106 0194 0100     		.2byte	0x1
 11107 0196 50       		.byte	0x50
 11108 0197 91000000 		.4byte	.LVL135-1
 11109 019b 94000000 		.4byte	.LVL136
 11110 019f 0300     		.2byte	0x3
 11111 01a1 91       		.byte	0x91
 11112 01a2 5C       		.sleb128 -36
 11113 01a3 9F       		.byte	0x9f
 11114 01a4 00000000 		.4byte	0
 11115 01a8 00000000 		.4byte	0
 11116              	.LVUS59:
 11117 01ac 08       		.uleb128 .LVU786
 11118 01ad 00       		.uleb128 .LVU788
 11119              	.LLST59:
 11120 01ae 94000000 		.4byte	.LVL136
 11121 01b2 98000000 		.4byte	.LVL137
 11122 01b6 0300     		.2byte	0x3
 11123 01b8 08       		.byte	0x8
 11124 01b9 30       		.byte	0x30
 11125 01ba 9F       		.byte	0x9f
 11126 01bb 00000000 		.4byte	0
 11127 01bf 00000000 		.4byte	0
 11128              	.LVUS60:
 11129 01c3 04       		.uleb128 .LVU792
 11130 01c4 07       		.uleb128 .LVU795
 11131              	.LLST60:
 11132 01c5 98000000 		.4byte	.LVL137
 11133 01c9 98000000 		.4byte	.LVL137
 11134 01cd 0300     		.2byte	0x3
 11135 01cf 91       		.byte	0x91
 11136 01d0 5C       		.sleb128 -36
 11137 01d1 9F       		.byte	0x9f
 11138 01d2 00000000 		.4byte	0
 11139 01d6 00000000 		.4byte	0
 11140              	.LVUS61:
 11141 01da 0C       		.uleb128 .LVU810
 11142 01db 00       		.uleb128 .LVU812
 11143              	.LLST61:
 11144 01dc AA000000 		.4byte	.LVL140
 11145 01e0 AE000000 		.4byte	.LVL141
 11146 01e4 0200     		.2byte	0x2
 11147 01e6 30       		.byte	0x30
 11148 01e7 9F       		.byte	0x9f
 11149 01e8 00000000 		.4byte	0
 11150 01ec 00000000 		.4byte	0
 11151              	.LVUS62:
 11152 01f0 0C       		.uleb128 .LVU827
 11153 01f1 00       		.uleb128 .LVU829
 11154              	.LLST62:
 11155 01f2 B2000000 		.4byte	.LVL142
ARM GAS  /tmp/ccMmeZ0f.s 			page 198


 11156 01f6 B6000000 		.4byte	.LVL143
 11157 01fa 0200     		.2byte	0x2
 11158 01fc 30       		.byte	0x30
 11159 01fd 9F       		.byte	0x9f
 11160 01fe 00000000 		.4byte	0
 11161 0202 00000000 		.4byte	0
 11162              	.LVUS63:
 11163 0206 0C       		.uleb128 .LVU844
 11164 0207 00       		.uleb128 .LVU846
 11165              	.LLST63:
 11166 0208 BA000000 		.4byte	.LVL144
 11167 020c BE000000 		.4byte	.LVL145
 11168 0210 0200     		.2byte	0x2
 11169 0212 30       		.byte	0x30
 11170 0213 9F       		.byte	0x9f
 11171 0214 00000000 		.4byte	0
 11172 0218 00000000 		.4byte	0
 11173              	.LVUS64:
 11174 021c 01       		.uleb128 .LVU854
 11175 021d 00       		.uleb128 .LVU884
 11176 021e 00       		.uleb128 .LVU1023
 11177 021f 00       		.uleb128 .LVU1024
 11178 0220 00       		.uleb128 .LVU1024
 11179 0221 00       		.uleb128 .LVU1025
 11180 0222 00       		.uleb128 .LVU1025
 11181 0223 00       		.uleb128 .LVU1026
 11182              	.LLST64:
 11183 0224 D2000000 		.4byte	.LVL147
 11184 0228 E6000000 		.4byte	.LVL151
 11185 022c 0300     		.2byte	0x3
 11186 022e 91       		.byte	0x91
 11187 022f 5C       		.sleb128 -36
 11188 0230 9F       		.byte	0x9f
 11189 0231 5C010000 		.4byte	.LVL170
 11190 0235 5E010000 		.4byte	.LVL171
 11191 0239 0300     		.2byte	0x3
 11192 023b 91       		.byte	0x91
 11193 023c 5C       		.sleb128 -36
 11194 023d 9F       		.byte	0x9f
 11195 023e 5E010000 		.4byte	.LVL171
 11196 0242 61010000 		.4byte	.LVL172-1
 11197 0246 0100     		.2byte	0x1
 11198 0248 50       		.byte	0x50
 11199 0249 61010000 		.4byte	.LVL172-1
 11200 024d 64010000 		.4byte	.LVL173
 11201 0251 0300     		.2byte	0x3
 11202 0253 91       		.byte	0x91
 11203 0254 5C       		.sleb128 -36
 11204 0255 9F       		.byte	0x9f
 11205 0256 00000000 		.4byte	0
 11206 025a 00000000 		.4byte	0
 11207              	.LVUS65:
 11208 025e 07       		.uleb128 .LVU860
 11209 025f 00       		.uleb128 .LVU862
 11210              	.LLST65:
 11211 0260 D2000000 		.4byte	.LVL147
 11212 0264 D6000000 		.4byte	.LVL148
ARM GAS  /tmp/ccMmeZ0f.s 			page 199


 11213 0268 0300     		.2byte	0x3
 11214 026a 08       		.byte	0x8
 11215 026b 30       		.byte	0x30
 11216 026c 9F       		.byte	0x9f
 11217 026d 00000000 		.4byte	0
 11218 0271 00000000 		.4byte	0
 11219              	.LVUS66:
 11220 0275 04       		.uleb128 .LVU866
 11221 0276 00       		.uleb128 .LVU870
 11222 0277 00       		.uleb128 .LVU1023
 11223 0278 00       		.uleb128 .LVU1024
 11224 0279 00       		.uleb128 .LVU1024
 11225 027a 00       		.uleb128 .LVU1025
 11226 027b 00       		.uleb128 .LVU1025
 11227 027c 00       		.uleb128 .LVU1026
 11228              	.LLST66:
 11229 027d D6000000 		.4byte	.LVL148
 11230 0281 DC000000 		.4byte	.LVL149
 11231 0285 0300     		.2byte	0x3
 11232 0287 91       		.byte	0x91
 11233 0288 5C       		.sleb128 -36
 11234 0289 9F       		.byte	0x9f
 11235 028a 5C010000 		.4byte	.LVL170
 11236 028e 5E010000 		.4byte	.LVL171
 11237 0292 0300     		.2byte	0x3
 11238 0294 91       		.byte	0x91
 11239 0295 5C       		.sleb128 -36
 11240 0296 9F       		.byte	0x9f
 11241 0297 5E010000 		.4byte	.LVL171
 11242 029b 61010000 		.4byte	.LVL172-1
 11243 029f 0100     		.2byte	0x1
 11244 02a1 50       		.byte	0x50
 11245 02a2 61010000 		.4byte	.LVL172-1
 11246 02a6 64010000 		.4byte	.LVL173
 11247 02aa 0300     		.2byte	0x3
 11248 02ac 91       		.byte	0x91
 11249 02ad 5C       		.sleb128 -36
 11250 02ae 9F       		.byte	0x9f
 11251 02af 00000000 		.4byte	0
 11252 02b3 00000000 		.4byte	0
 11253              	.LVUS67:
 11254 02b7 0A       		.uleb128 .LVU882
 11255 02b8 00       		.uleb128 .LVU884
 11256              	.LLST67:
 11257 02b9 E0000000 		.4byte	.LVL150
 11258 02bd E6000000 		.4byte	.LVL151
 11259 02c1 0200     		.2byte	0x2
 11260 02c3 30       		.byte	0x30
 11261 02c4 9F       		.byte	0x9f
 11262 02c5 00000000 		.4byte	0
 11263 02c9 00000000 		.4byte	0
 11264              	.LVUS68:
 11265 02cd 08       		.uleb128 .LVU892
 11266 02ce 00       		.uleb128 .LVU894
 11267              	.LLST68:
 11268 02cf E6000000 		.4byte	.LVL151
 11269 02d3 EC000000 		.4byte	.LVL152
ARM GAS  /tmp/ccMmeZ0f.s 			page 200


 11270 02d7 0300     		.2byte	0x3
 11271 02d9 08       		.byte	0x8
 11272 02da 30       		.byte	0x30
 11273 02db 9F       		.byte	0x9f
 11274 02dc 00000000 		.4byte	0
 11275 02e0 00000000 		.4byte	0
 11276              	.LVUS69:
 11277 02e4 04       		.uleb128 .LVU898
 11278 02e5 07       		.uleb128 .LVU901
 11279              	.LLST69:
 11280 02e6 EC000000 		.4byte	.LVL152
 11281 02ea EC000000 		.4byte	.LVL152
 11282 02ee 0300     		.2byte	0x3
 11283 02f0 91       		.byte	0x91
 11284 02f1 5C       		.sleb128 -36
 11285 02f2 9F       		.byte	0x9f
 11286 02f3 00000000 		.4byte	0
 11287 02f7 00000000 		.4byte	0
 11288              	.LVUS70:
 11289 02fb 0C       		.uleb128 .LVU916
 11290 02fc 00       		.uleb128 .LVU918
 11291              	.LLST70:
 11292 02fd 02010000 		.4byte	.LVL155
 11293 0301 06010000 		.4byte	.LVL156
 11294 0305 0200     		.2byte	0x2
 11295 0307 30       		.byte	0x30
 11296 0308 9F       		.byte	0x9f
 11297 0309 00000000 		.4byte	0
 11298 030d 00000000 		.4byte	0
 11299              	.LVUS71:
 11300 0311 09       		.uleb128 .LVU927
 11301 0312 00       		.uleb128 .LVU929
 11302              	.LLST71:
 11303 0313 06010000 		.4byte	.LVL156
 11304 0317 0A010000 		.4byte	.LVL157
 11305 031b 0300     		.2byte	0x3
 11306 031d 08       		.byte	0x8
 11307 031e 30       		.byte	0x30
 11308 031f 9F       		.byte	0x9f
 11309 0320 00000000 		.4byte	0
 11310 0324 00000000 		.4byte	0
 11311              	.LVUS72:
 11312 0328 04       		.uleb128 .LVU933
 11313 0329 07       		.uleb128 .LVU936
 11314              	.LLST72:
 11315 032a 0A010000 		.4byte	.LVL157
 11316 032e 0A010000 		.4byte	.LVL157
 11317 0332 0300     		.2byte	0x3
 11318 0334 91       		.byte	0x91
 11319 0335 5C       		.sleb128 -36
 11320 0336 9F       		.byte	0x9f
 11321 0337 00000000 		.4byte	0
 11322 033b 00000000 		.4byte	0
 11323              	.LVUS73:
 11324 033f 0C       		.uleb128 .LVU950
 11325 0340 00       		.uleb128 .LVU952
 11326              	.LLST73:
ARM GAS  /tmp/ccMmeZ0f.s 			page 201


 11327 0341 20010000 		.4byte	.LVL159
 11328 0345 24010000 		.4byte	.LVL160
 11329 0349 0200     		.2byte	0x2
 11330 034b 30       		.byte	0x30
 11331 034c 9F       		.byte	0x9f
 11332 034d 00000000 		.4byte	0
 11333 0351 00000000 		.4byte	0
 11334              	.LVUS74:
 11335 0355 01       		.uleb128 .LVU958
 11336 0356 00       		.uleb128 .LVU988
 11337 0357 00       		.uleb128 .LVU1079
 11338 0358 00       		.uleb128 .LVU1080
 11339 0359 00       		.uleb128 .LVU1080
 11340 035a 00       		.uleb128 .LVU1081
 11341 035b 00       		.uleb128 .LVU1081
 11342 035c 00       		.uleb128 0
 11343              	.LLST74:
 11344 035d 28010000 		.4byte	.LVL161
 11345 0361 3C010000 		.4byte	.LVL165
 11346 0365 0300     		.2byte	0x3
 11347 0367 91       		.byte	0x91
 11348 0368 5C       		.sleb128 -36
 11349 0369 9F       		.byte	0x9f
 11350 036a 88010000 		.4byte	.LVL179
 11351 036e 8A010000 		.4byte	.LVL180
 11352 0372 0300     		.2byte	0x3
 11353 0374 91       		.byte	0x91
 11354 0375 5C       		.sleb128 -36
 11355 0376 9F       		.byte	0x9f
 11356 0377 8A010000 		.4byte	.LVL180
 11357 037b 8D010000 		.4byte	.LVL181-1
 11358 037f 0100     		.2byte	0x1
 11359 0381 50       		.byte	0x50
 11360 0382 8D010000 		.4byte	.LVL181-1
 11361 0386 B8010000 		.4byte	.LFE421
 11362 038a 0300     		.2byte	0x3
 11363 038c 91       		.byte	0x91
 11364 038d 5C       		.sleb128 -36
 11365 038e 9F       		.byte	0x9f
 11366 038f 00000000 		.4byte	0
 11367 0393 00000000 		.4byte	0
 11368              	.LVUS75:
 11369 0397 07       		.uleb128 .LVU964
 11370 0398 00       		.uleb128 .LVU966
 11371              	.LLST75:
 11372 0399 28010000 		.4byte	.LVL161
 11373 039d 2C010000 		.4byte	.LVL162
 11374 03a1 0300     		.2byte	0x3
 11375 03a3 08       		.byte	0x8
 11376 03a4 30       		.byte	0x30
 11377 03a5 9F       		.byte	0x9f
 11378 03a6 00000000 		.4byte	0
 11379 03aa 00000000 		.4byte	0
 11380              	.LVUS76:
 11381 03ae 04       		.uleb128 .LVU970
 11382 03af 00       		.uleb128 .LVU974
 11383 03b0 00       		.uleb128 .LVU1079
ARM GAS  /tmp/ccMmeZ0f.s 			page 202


 11384 03b1 00       		.uleb128 .LVU1080
 11385 03b2 00       		.uleb128 .LVU1080
 11386 03b3 00       		.uleb128 .LVU1081
 11387 03b4 00       		.uleb128 .LVU1081
 11388 03b5 00       		.uleb128 0
 11389              	.LLST76:
 11390 03b6 2C010000 		.4byte	.LVL162
 11391 03ba 32010000 		.4byte	.LVL163
 11392 03be 0300     		.2byte	0x3
 11393 03c0 91       		.byte	0x91
 11394 03c1 5C       		.sleb128 -36
 11395 03c2 9F       		.byte	0x9f
 11396 03c3 88010000 		.4byte	.LVL179
 11397 03c7 8A010000 		.4byte	.LVL180
 11398 03cb 0300     		.2byte	0x3
 11399 03cd 91       		.byte	0x91
 11400 03ce 5C       		.sleb128 -36
 11401 03cf 9F       		.byte	0x9f
 11402 03d0 8A010000 		.4byte	.LVL180
 11403 03d4 8D010000 		.4byte	.LVL181-1
 11404 03d8 0100     		.2byte	0x1
 11405 03da 50       		.byte	0x50
 11406 03db 8D010000 		.4byte	.LVL181-1
 11407 03df B8010000 		.4byte	.LFE421
 11408 03e3 0300     		.2byte	0x3
 11409 03e5 91       		.byte	0x91
 11410 03e6 5C       		.sleb128 -36
 11411 03e7 9F       		.byte	0x9f
 11412 03e8 00000000 		.4byte	0
 11413 03ec 00000000 		.4byte	0
 11414              	.LVUS77:
 11415 03f0 0A       		.uleb128 .LVU986
 11416 03f1 00       		.uleb128 .LVU988
 11417              	.LLST77:
 11418 03f2 36010000 		.4byte	.LVL164
 11419 03f6 3C010000 		.4byte	.LVL165
 11420 03fa 0200     		.2byte	0x2
 11421 03fc 30       		.byte	0x30
 11422 03fd 9F       		.byte	0x9f
 11423 03fe 00000000 		.4byte	0
 11424 0402 00000000 		.4byte	0
 11425              	.LVUS78:
 11426 0406 08       		.uleb128 .LVU996
 11427 0407 00       		.uleb128 .LVU998
 11428              	.LLST78:
 11429 0408 3C010000 		.4byte	.LVL165
 11430 040c 42010000 		.4byte	.LVL166
 11431 0410 0300     		.2byte	0x3
 11432 0412 08       		.byte	0x8
 11433 0413 30       		.byte	0x30
 11434 0414 9F       		.byte	0x9f
 11435 0415 00000000 		.4byte	0
 11436 0419 00000000 		.4byte	0
 11437              	.LVUS79:
 11438 041d 04       		.uleb128 .LVU1002
 11439 041e 07       		.uleb128 .LVU1005
 11440              	.LLST79:
ARM GAS  /tmp/ccMmeZ0f.s 			page 203


 11441 041f 42010000 		.4byte	.LVL166
 11442 0423 42010000 		.4byte	.LVL166
 11443 0427 0300     		.2byte	0x3
 11444 0429 91       		.byte	0x91
 11445 042a 5C       		.sleb128 -36
 11446 042b 9F       		.byte	0x9f
 11447 042c 00000000 		.4byte	0
 11448 0430 00000000 		.4byte	0
 11449              	.LVUS80:
 11450 0434 0C       		.uleb128 .LVU1019
 11451 0435 00       		.uleb128 .LVU1021
 11452              	.LLST80:
 11453 0436 56010000 		.4byte	.LVL168
 11454 043a 5A010000 		.4byte	.LVL169
 11455 043e 0200     		.2byte	0x2
 11456 0440 30       		.byte	0x30
 11457 0441 9F       		.byte	0x9f
 11458 0442 00000000 		.4byte	0
 11459 0446 00000000 		.4byte	0
 11460              	.LVUS81:
 11461 044a 0D       		.uleb128 .LVU1039
 11462 044b 00       		.uleb128 .LVU1041
 11463              	.LLST81:
 11464 044c 64010000 		.4byte	.LVL173
 11465 0450 68010000 		.4byte	.LVL174
 11466 0454 0200     		.2byte	0x2
 11467 0456 30       		.byte	0x30
 11468 0457 9F       		.byte	0x9f
 11469 0458 00000000 		.4byte	0
 11470 045c 00000000 		.4byte	0
 11471              	.LVUS82:
 11472 0460 09       		.uleb128 .LVU1050
 11473 0461 00       		.uleb128 .LVU1052
 11474              	.LLST82:
 11475 0462 68010000 		.4byte	.LVL174
 11476 0466 6C010000 		.4byte	.LVL175
 11477 046a 0300     		.2byte	0x3
 11478 046c 08       		.byte	0x8
 11479 046d 30       		.byte	0x30
 11480 046e 9F       		.byte	0x9f
 11481 046f 00000000 		.4byte	0
 11482 0473 00000000 		.4byte	0
 11483              	.LVUS83:
 11484 0477 04       		.uleb128 .LVU1056
 11485 0478 07       		.uleb128 .LVU1059
 11486              	.LLST83:
 11487 0479 6C010000 		.4byte	.LVL175
 11488 047d 6C010000 		.4byte	.LVL175
 11489 0481 0300     		.2byte	0x3
 11490 0483 91       		.byte	0x91
 11491 0484 5C       		.sleb128 -36
 11492 0485 9F       		.byte	0x9f
 11493 0486 00000000 		.4byte	0
 11494 048a 00000000 		.4byte	0
 11495              	.LVUS84:
 11496 048e 0C       		.uleb128 .LVU1073
 11497 048f 00       		.uleb128 .LVU1075
ARM GAS  /tmp/ccMmeZ0f.s 			page 204


 11498              	.LLST84:
 11499 0490 82010000 		.4byte	.LVL177
 11500 0494 86010000 		.4byte	.LVL178
 11501 0498 0200     		.2byte	0x2
 11502 049a 30       		.byte	0x30
 11503 049b 9F       		.byte	0x9f
 11504 049c 00000000 		.4byte	0
 11505 04a0 00000000 		.4byte	0
 11506              	.LVUS0:
 11507 04a4 01       		.uleb128 .LVU41
 11508 04a5 03       		.uleb128 .LVU43
 11509              	.LLST0:
 11510 04a6 36000000 		.4byte	.LVL6
 11511 04aa 36000000 		.4byte	.LVL6
 11512 04ae 0600     		.2byte	0x6
 11513 04b0 03       		.byte	0x3
 11514 04b1 00000000 		.4byte	sem1
 11515 04b5 9F       		.byte	0x9f
 11516 04b6 00000000 		.4byte	0
 11517 04ba 00000000 		.4byte	0
 11518              	.LVUS1:
 11519 04be 01       		.uleb128 .LVU58
 11520 04bf 03       		.uleb128 .LVU60
 11521              	.LLST1:
 11522 04c0 6A000000 		.4byte	.LVL9
 11523 04c4 6A000000 		.4byte	.LVL9
 11524 04c8 0600     		.2byte	0x6
 11525 04ca 03       		.byte	0x3
 11526 04cb 00000000 		.4byte	sem1
 11527 04cf 9F       		.byte	0x9f
 11528 04d0 00000000 		.4byte	0
 11529 04d4 00000000 		.4byte	0
 11530              	.LVUS18:
 11531 04d8 05       		.uleb128 .LVU289
 11532 04d9 00       		.uleb128 .LVU291
 11533              	.LLST18:
 11534 04da 2C000000 		.4byte	.LVL43
 11535 04de 32000000 		.4byte	.LVL44
 11536 04e2 0300     		.2byte	0x3
 11537 04e4 08       		.byte	0x8
 11538 04e5 30       		.byte	0x30
 11539 04e6 9F       		.byte	0x9f
 11540 04e7 00000000 		.4byte	0
 11541 04eb 00000000 		.4byte	0
 11542              	.LVUS19:
 11543 04ef 0A       		.uleb128 .LVU308
 11544 04f0 00       		.uleb128 .LVU310
 11545              	.LLST19:
 11546 04f1 40000000 		.4byte	.LVL46
 11547 04f5 44000000 		.4byte	.LVL47
 11548 04f9 0200     		.2byte	0x2
 11549 04fb 30       		.byte	0x30
 11550 04fc 9F       		.byte	0x9f
 11551 04fd 00000000 		.4byte	0
 11552 0501 00000000 		.4byte	0
 11553              	.LVUS20:
 11554 0505 07       		.uleb128 .LVU319
ARM GAS  /tmp/ccMmeZ0f.s 			page 205


 11555 0506 00       		.uleb128 .LVU321
 11556              	.LLST20:
 11557 0507 48000000 		.4byte	.LVL48
 11558 050b 4C000000 		.4byte	.LVL49
 11559 050f 0300     		.2byte	0x3
 11560 0511 08       		.byte	0x8
 11561 0512 30       		.byte	0x30
 11562 0513 9F       		.byte	0x9f
 11563 0514 00000000 		.4byte	0
 11564 0518 00000000 		.4byte	0
 11565              	.LVUS21:
 11566 051c 04       		.uleb128 .LVU325
 11567 051d 07       		.uleb128 .LVU328
 11568              	.LLST21:
 11569 051e 4C000000 		.4byte	.LVL49
 11570 0522 4C000000 		.4byte	.LVL49
 11571 0526 0600     		.2byte	0x6
 11572 0528 03       		.byte	0x3
 11573 0529 00000000 		.4byte	sem1
 11574 052d 9F       		.byte	0x9f
 11575 052e 00000000 		.4byte	0
 11576 0532 00000000 		.4byte	0
 11577              	.LVUS22:
 11578 0536 0C       		.uleb128 .LVU342
 11579 0537 00       		.uleb128 .LVU344
 11580              	.LLST22:
 11581 0538 60000000 		.4byte	.LVL51
 11582 053c 64000000 		.4byte	.LVL52
 11583 0540 0200     		.2byte	0x2
 11584 0542 30       		.byte	0x30
 11585 0543 9F       		.byte	0x9f
 11586 0544 00000000 		.4byte	0
 11587 0548 00000000 		.4byte	0
 11588              	.LVUS23:
 11589 054c 0C       		.uleb128 .LVU359
 11590 054d 00       		.uleb128 .LVU361
 11591              	.LLST23:
 11592 054e 68000000 		.4byte	.LVL53
 11593 0552 6C000000 		.4byte	.LVL54
 11594 0556 0200     		.2byte	0x2
 11595 0558 30       		.byte	0x30
 11596 0559 9F       		.byte	0x9f
 11597 055a 00000000 		.4byte	0
 11598 055e 00000000 		.4byte	0
 11599              	.LVUS3:
 11600 0562 00       		.uleb128 .LVU87
 11601 0563 00       		.uleb128 .LVU105
 11602 0564 00       		.uleb128 .LVU105
 11603 0565 02       		.uleb128 .LVU122
 11604 0566 00       		.uleb128 .LVU124
 11605 0567 00       		.uleb128 .LVU141
 11606              	.LLST3:
 11607 0568 16000000 		.4byte	.LVL17
 11608 056c 1C000000 		.4byte	.LVL19
 11609 0570 0100     		.2byte	0x1
 11610 0572 50       		.byte	0x50
 11611 0573 1C000000 		.4byte	.LVL19
ARM GAS  /tmp/ccMmeZ0f.s 			page 206


 11612 0577 30000000 		.4byte	.LVL22
 11613 057b 0100     		.2byte	0x1
 11614 057d 55       		.byte	0x55
 11615 057e 34000000 		.4byte	.LVL23
 11616 0582 46000000 		.4byte	.LVL26
 11617 0586 0100     		.2byte	0x1
 11618 0588 55       		.byte	0x55
 11619 0589 00000000 		.4byte	0
 11620 058d 00000000 		.4byte	0
 11621              	.LVUS4:
 11622 0591 07       		.uleb128 .LVU94
 11623 0592 00       		.uleb128 .LVU96
 11624              	.LLST4:
 11625 0593 16000000 		.4byte	.LVL17
 11626 0597 1A000000 		.4byte	.LVL18
 11627 059b 0300     		.2byte	0x3
 11628 059d 08       		.byte	0x8
 11629 059e 30       		.byte	0x30
 11630 059f 9F       		.byte	0x9f
 11631 05a0 00000000 		.4byte	0
 11632 05a4 00000000 		.4byte	0
 11633              	.LVUS5:
 11634 05a8 04       		.uleb128 .LVU100
 11635 05a9 07       		.uleb128 .LVU103
 11636              	.LLST5:
 11637 05aa 1A000000 		.4byte	.LVL18
 11638 05ae 1A000000 		.4byte	.LVL18
 11639 05b2 0600     		.2byte	0x6
 11640 05b4 03       		.byte	0x3
 11641 05b5 00000000 		.4byte	sem1
 11642 05b9 9F       		.byte	0x9f
 11643 05ba 00000000 		.4byte	0
 11644 05be 00000000 		.4byte	0
 11645              	.LVUS6:
 11646 05c2 0C       		.uleb128 .LVU118
 11647 05c3 00       		.uleb128 .LVU120
 11648              	.LLST6:
 11649 05c4 2A000000 		.4byte	.LVL21
 11650 05c8 30000000 		.4byte	.LVL22
 11651 05cc 0200     		.2byte	0x2
 11652 05ce 30       		.byte	0x30
 11653 05cf 9F       		.byte	0x9f
 11654 05d0 00000000 		.4byte	0
 11655 05d4 00000000 		.4byte	0
 11656              	.LVUS7:
 11657 05d8 0C       		.uleb128 .LVU136
 11658 05d9 00       		.uleb128 .LVU138
 11659              	.LLST7:
 11660 05da 34000000 		.4byte	.LVL23
 11661 05de 38000000 		.4byte	.LVL24
 11662 05e2 0200     		.2byte	0x2
 11663 05e4 30       		.byte	0x30
 11664 05e5 9F       		.byte	0x9f
 11665 05e6 00000000 		.4byte	0
 11666 05ea 00000000 		.4byte	0
 11667              	.LVUS8:
 11668 05ee 07       		.uleb128 .LVU156
ARM GAS  /tmp/ccMmeZ0f.s 			page 207


 11669 05ef 00       		.uleb128 .LVU158
 11670              	.LLST8:
 11671 05f0 58000000 		.4byte	.LVL27
 11672 05f4 5C000000 		.4byte	.LVL28
 11673 05f8 0300     		.2byte	0x3
 11674 05fa 08       		.byte	0x8
 11675 05fb 30       		.byte	0x30
 11676 05fc 9F       		.byte	0x9f
 11677 05fd 00000000 		.4byte	0
 11678 0601 00000000 		.4byte	0
 11679              	.LVUS9:
 11680 0605 04       		.uleb128 .LVU162
 11681 0606 07       		.uleb128 .LVU165
 11682              	.LLST9:
 11683 0607 5C000000 		.4byte	.LVL28
 11684 060b 5C000000 		.4byte	.LVL28
 11685 060f 0600     		.2byte	0x6
 11686 0611 03       		.byte	0x3
 11687 0612 00000000 		.4byte	sem1
 11688 0616 9F       		.byte	0x9f
 11689 0617 00000000 		.4byte	0
 11690 061b 00000000 		.4byte	0
 11691              	.LVUS10:
 11692 061f 0C       		.uleb128 .LVU179
 11693 0620 00       		.uleb128 .LVU181
 11694              	.LLST10:
 11695 0621 72000000 		.4byte	.LVL30
 11696 0625 76000000 		.4byte	.LVL31
 11697 0629 0200     		.2byte	0x2
 11698 062b 30       		.byte	0x30
 11699 062c 9F       		.byte	0x9f
 11700 062d 00000000 		.4byte	0
 11701 0631 00000000 		.4byte	0
 11702              	.LVUS11:
 11703 0635 0C       		.uleb128 .LVU196
 11704 0636 00       		.uleb128 .LVU198
 11705              	.LLST11:
 11706 0637 7A000000 		.4byte	.LVL32
 11707 063b 7E000000 		.4byte	.LVL33
 11708 063f 0200     		.2byte	0x2
 11709 0641 30       		.byte	0x30
 11710 0642 9F       		.byte	0x9f
 11711 0643 00000000 		.4byte	0
 11712 0647 00000000 		.4byte	0
 11713              	.LVUS12:
 11714 064b 01       		.uleb128 .LVU206
 11715 064c 00       		.uleb128 .LVU208
 11716              	.LLST12:
 11717 064d 8A000000 		.4byte	.LVL34
 11718 0651 8E000000 		.4byte	.LVL35
 11719 0655 0200     		.2byte	0x2
 11720 0657 32       		.byte	0x32
 11721 0658 9F       		.byte	0x9f
 11722 0659 00000000 		.4byte	0
 11723 065d 00000000 		.4byte	0
 11724              	.LVUS13:
 11725 0661 01       		.uleb128 .LVU206
ARM GAS  /tmp/ccMmeZ0f.s 			page 208


 11726 0662 00       		.uleb128 .LVU208
 11727              	.LLST13:
 11728 0663 8A000000 		.4byte	.LVL34
 11729 0667 8E000000 		.4byte	.LVL35
 11730 066b 0600     		.2byte	0x6
 11731 066d 03       		.byte	0x3
 11732 066e 00000000 		.4byte	sem1
 11733 0672 9F       		.byte	0x9f
 11734 0673 00000000 		.4byte	0
 11735 0677 00000000 		.4byte	0
 11736              	.LVUS14:
 11737 067b 08       		.uleb128 .LVU216
 11738 067c 00       		.uleb128 .LVU218
 11739              	.LLST14:
 11740 067d 8E000000 		.4byte	.LVL35
 11741 0681 92000000 		.4byte	.LVL36
 11742 0685 0300     		.2byte	0x3
 11743 0687 08       		.byte	0x8
 11744 0688 30       		.byte	0x30
 11745 0689 9F       		.byte	0x9f
 11746 068a 00000000 		.4byte	0
 11747 068e 00000000 		.4byte	0
 11748              	.LVUS15:
 11749 0692 04       		.uleb128 .LVU222
 11750 0693 07       		.uleb128 .LVU225
 11751              	.LLST15:
 11752 0694 92000000 		.4byte	.LVL36
 11753 0698 92000000 		.4byte	.LVL36
 11754 069c 0600     		.2byte	0x6
 11755 069e 03       		.byte	0x3
 11756 069f 00000000 		.4byte	sem1
 11757 06a3 9F       		.byte	0x9f
 11758 06a4 00000000 		.4byte	0
 11759 06a8 00000000 		.4byte	0
 11760              	.LVUS16:
 11761 06ac 0C       		.uleb128 .LVU239
 11762 06ad 00       		.uleb128 .LVU241
 11763              	.LLST16:
 11764 06ae A6000000 		.4byte	.LVL38
 11765 06b2 AA000000 		.4byte	.LVL39
 11766 06b6 0200     		.2byte	0x2
 11767 06b8 30       		.byte	0x30
 11768 06b9 9F       		.byte	0x9f
 11769 06ba 00000000 		.4byte	0
 11770 06be 00000000 		.4byte	0
 11771              	.LVUS17:
 11772 06c2 0C       		.uleb128 .LVU258
 11773 06c3 00       		.uleb128 .LVU260
 11774              	.LLST17:
 11775 06c4 AC000000 		.4byte	.LVL40
 11776 06c8 B0000000 		.4byte	.LVL41
 11777 06cc 0200     		.2byte	0x2
 11778 06ce 30       		.byte	0x30
 11779 06cf 9F       		.byte	0x9f
 11780 06d0 00000000 		.4byte	0
 11781 06d4 00000000 		.4byte	0
 11782              	.LVUS39:
ARM GAS  /tmp/ccMmeZ0f.s 			page 209


 11783 06d8 00       		.uleb128 0
 11784 06d9 00       		.uleb128 .LVU613
 11785 06da 00       		.uleb128 .LVU613
 11786 06db 00       		.uleb128 .LVU627
 11787 06dc 00       		.uleb128 .LVU627
 11788 06dd 00       		.uleb128 .LVU628
 11789 06de 00       		.uleb128 .LVU628
 11790 06df 00       		.uleb128 0
 11791              	.LLST39:
 11792 06e0 00000000 		.4byte	.LVL110
 11793 06e4 11000000 		.4byte	.LVL113-1
 11794 06e8 0100     		.2byte	0x1
 11795 06ea 50       		.byte	0x50
 11796 06eb 11000000 		.4byte	.LVL113-1
 11797 06ef 1A000000 		.4byte	.LVL115
 11798 06f3 0400     		.2byte	0x4
 11799 06f5 F3       		.byte	0xf3
 11800 06f6 01       		.uleb128 0x1
 11801 06f7 50       		.byte	0x50
 11802 06f8 9F       		.byte	0x9f
 11803 06f9 1A000000 		.4byte	.LVL115
 11804 06fd 1D000000 		.4byte	.LVL116-1
 11805 0701 0100     		.2byte	0x1
 11806 0703 50       		.byte	0x50
 11807 0704 1D000000 		.4byte	.LVL116-1
 11808 0708 2A000000 		.4byte	.LFE407
 11809 070c 0400     		.2byte	0x4
 11810 070e F3       		.byte	0xf3
 11811 070f 01       		.uleb128 0x1
 11812 0710 50       		.byte	0x50
 11813 0711 9F       		.byte	0x9f
 11814 0712 00000000 		.4byte	0
 11815 0716 00000000 		.4byte	0
 11816              	.LVUS40:
 11817 071a 02       		.uleb128 .LVU592
 11818 071b 00       		.uleb128 .LVU610
 11819              	.LLST40:
 11820 071c 00000000 		.4byte	.LVL110
 11821 0720 0A000000 		.4byte	.LVL112
 11822 0724 0100     		.2byte	0x1
 11823 0726 53       		.byte	0x53
 11824 0727 00000000 		.4byte	0
 11825 072b 00000000 		.4byte	0
 11826              	.LVUS41:
 11827 072f 08       		.uleb128 .LVU598
 11828 0730 00       		.uleb128 .LVU602
 11829              	.LLST41:
 11830 0731 00000000 		.4byte	.LVL110
 11831 0735 08000000 		.4byte	.LVL111
 11832 0739 0300     		.2byte	0x3
 11833 073b 08       		.byte	0x8
 11834 073c 30       		.byte	0x30
 11835 073d 9F       		.byte	0x9f
 11836 073e 00000000 		.4byte	0
 11837 0742 00000000 		.4byte	0
 11838              	.LVUS42:
 11839 0746 04       		.uleb128 .LVU606
ARM GAS  /tmp/ccMmeZ0f.s 			page 210


 11840 0747 00       		.uleb128 .LVU610
 11841              	.LLST42:
 11842 0748 08000000 		.4byte	.LVL111
 11843 074c 0A000000 		.4byte	.LVL112
 11844 0750 0100     		.2byte	0x1
 11845 0752 53       		.byte	0x53
 11846 0753 00000000 		.4byte	0
 11847 0757 00000000 		.4byte	0
 11848              	.LVUS43:
 11849 075b 0A       		.uleb128 .LVU623
 11850 075c 00       		.uleb128 .LVU625
 11851 075d 0A       		.uleb128 .LVU640
 11852 075e 00       		.uleb128 .LVU642
 11853              	.LLST43:
 11854 075f 12000000 		.4byte	.LVL113
 11855 0763 18000000 		.4byte	.LVL114
 11856 0767 0200     		.2byte	0x2
 11857 0769 30       		.byte	0x30
 11858 076a 9F       		.byte	0x9f
 11859 076b 22000000 		.4byte	.LVL117
 11860 076f 28000000 		.4byte	.LVL118
 11861 0773 0200     		.2byte	0x2
 11862 0775 30       		.byte	0x30
 11863 0776 9F       		.byte	0x9f
 11864 0777 00000000 		.4byte	0
 11865 077b 00000000 		.4byte	0
 11866              	.LVUS2:
 11867 077f 00       		.uleb128 0
 11868 0780 00       		.uleb128 .LVU71
 11869 0781 00       		.uleb128 .LVU71
 11870 0782 00       		.uleb128 0
 11871              	.LLST2:
 11872 0783 00000000 		.4byte	.LVL12
 11873 0787 06000000 		.4byte	.LVL13
 11874 078b 0100     		.2byte	0x1
 11875 078d 50       		.byte	0x50
 11876 078e 06000000 		.4byte	.LVL13
 11877 0792 18000000 		.4byte	.LFE406
 11878 0796 0400     		.2byte	0x4
 11879 0798 F3       		.byte	0xf3
 11880 0799 01       		.uleb128 0x1
 11881 079a 50       		.byte	0x50
 11882 079b 9F       		.byte	0x9f
 11883 079c 00000000 		.4byte	0
 11884 07a0 00000000 		.4byte	0
 11885              	.LVUS25:
 11886 07a4 00       		.uleb128 0
 11887 07a5 00       		.uleb128 .LVU453
 11888 07a6 00       		.uleb128 .LVU453
 11889 07a7 00       		.uleb128 0
 11890              	.LLST25:
 11891 07a8 00000000 		.4byte	.LVL73
 11892 07ac 06000000 		.4byte	.LVL74
 11893 07b0 0100     		.2byte	0x1
 11894 07b2 50       		.byte	0x50
 11895 07b3 06000000 		.4byte	.LVL74
 11896 07b7 28000000 		.4byte	.LFE405
ARM GAS  /tmp/ccMmeZ0f.s 			page 211


 11897 07bb 0400     		.2byte	0x4
 11898 07bd F3       		.byte	0xf3
 11899 07be 01       		.uleb128 0x1
 11900 07bf 50       		.byte	0x50
 11901 07c0 9F       		.byte	0x9f
 11902 07c1 00000000 		.4byte	0
 11903 07c5 00000000 		.4byte	0
 11904              	.LVUS26:
 11905 07c9 05       		.uleb128 .LVU459
 11906 07ca 00       		.uleb128 .LVU461
 11907              	.LLST26:
 11908 07cb 0A000000 		.4byte	.LVL75
 11909 07cf 10000000 		.4byte	.LVL76
 11910 07d3 0300     		.2byte	0x3
 11911 07d5 08       		.byte	0x8
 11912 07d6 30       		.byte	0x30
 11913 07d7 9F       		.byte	0x9f
 11914 07d8 00000000 		.4byte	0
 11915 07dc 00000000 		.4byte	0
 11916              	.LVUS27:
 11917 07e0 0A       		.uleb128 .LVU476
 11918 07e1 00       		.uleb128 .LVU478
 11919              	.LLST27:
 11920 07e2 1A000000 		.4byte	.LVL78
 11921 07e6 20000000 		.4byte	.LVL79
 11922 07ea 0200     		.2byte	0x2
 11923 07ec 30       		.byte	0x30
 11924 07ed 9F       		.byte	0x9f
 11925 07ee 00000000 		.4byte	0
 11926 07f2 00000000 		.4byte	0
 11927              	.LVUS24:
 11928 07f6 00       		.uleb128 0
 11929 07f7 00       		.uleb128 .LVU444
 11930 07f8 00       		.uleb128 .LVU444
 11931 07f9 00       		.uleb128 .LVU447
 11932 07fa 00       		.uleb128 .LVU447
 11933 07fb 00       		.uleb128 0
 11934              	.LLST24:
 11935 07fc 00000000 		.4byte	.LVL68
 11936 0800 06000000 		.4byte	.LVL69
 11937 0804 0100     		.2byte	0x1
 11938 0806 50       		.byte	0x50
 11939 0807 06000000 		.4byte	.LVL69
 11940 080b 10000000 		.4byte	.LVL71
 11941 080f 0100     		.2byte	0x1
 11942 0811 54       		.byte	0x54
 11943 0812 10000000 		.4byte	.LVL71
 11944 0816 18000000 		.4byte	.LFE404
 11945 081a 0400     		.2byte	0x4
 11946 081c F3       		.byte	0xf3
 11947 081d 01       		.uleb128 0x1
 11948 081e 50       		.byte	0x50
 11949 081f 9F       		.byte	0x9f
 11950 0820 00000000 		.4byte	0
 11951 0824 00000000 		.4byte	0
 11952              	.LVUS28:
 11953 0828 00       		.uleb128 .LVU495
ARM GAS  /tmp/ccMmeZ0f.s 			page 212


 11954 0829 00       		.uleb128 .LVU496
 11955 082a 00       		.uleb128 .LVU496
 11956 082b 00       		.uleb128 .LVU497
 11957              	.LLST28:
 11958 082c 16000000 		.4byte	.LVL80
 11959 0830 1A000000 		.4byte	.LVL81
 11960 0834 0100     		.2byte	0x1
 11961 0836 50       		.byte	0x50
 11962 0837 1A000000 		.4byte	.LVL81
 11963 083b 1E000000 		.4byte	.LVL82
 11964 083f 0300     		.2byte	0x3
 11965 0841 70       		.byte	0x70
 11966 0842 7F       		.sleb128 -1
 11967 0843 9F       		.byte	0x9f
 11968 0844 00000000 		.4byte	0
 11969 0848 00000000 		.4byte	0
 11970              	.LVUS29:
 11971 084c 02       		.uleb128 .LVU501
 11972 084d 04       		.uleb128 .LVU503
 11973              	.LLST29:
 11974 084e 2E000000 		.4byte	.LVL84
 11975 0852 2E000000 		.4byte	.LVL84
 11976 0856 0600     		.2byte	0x6
 11977 0858 03       		.byte	0x3
 11978 0859 00000000 		.4byte	sem1
 11979 085d 9F       		.byte	0x9f
 11980 085e 00000000 		.4byte	0
 11981 0862 00000000 		.4byte	0
 11982              	.LVUS30:
 11983 0866 04       		.uleb128 .LVU553
 11984 0867 00       		.uleb128 .LVU555
 11985              	.LLST30:
 11986 0868 CA000000 		.4byte	.LVL97
 11987 086c CC000000 		.4byte	.LVL98
 11988 0870 0200     		.2byte	0x2
 11989 0872 30       		.byte	0x30
 11990 0873 9F       		.byte	0x9f
 11991 0874 00000000 		.4byte	0
 11992 0878 00000000 		.4byte	0
 11993              	.LVUS31:
 11994 087c 02       		.uleb128 .LVU551
 11995 087d 00       		.uleb128 .LVU555
 11996 087e 00       		.uleb128 .LVU555
 11997 087f 00       		.uleb128 .LVU588
 11998 0880 00       		.uleb128 .LVU588
 11999 0881 00       		.uleb128 .LVU589
 12000              	.LLST31:
 12001 0882 CA000000 		.4byte	.LVL97
 12002 0886 CC000000 		.4byte	.LVL98
 12003 088a 0400     		.2byte	0x4
 12004 088c 70       		.byte	0x70
 12005 088d C413     		.sleb128 2500
 12006 088f 9F       		.byte	0x9f
 12007 0890 CC000000 		.4byte	.LVL98
 12008 0894 3C010000 		.4byte	.LVL108
 12009 0898 0400     		.2byte	0x4
 12010 089a 78       		.byte	0x78
ARM GAS  /tmp/ccMmeZ0f.s 			page 213


 12011 089b C413     		.sleb128 2500
 12012 089d 9F       		.byte	0x9f
 12013 089e 3C010000 		.4byte	.LVL108
 12014 08a2 3F010000 		.4byte	.LVL109-1
 12015 08a6 0100     		.2byte	0x1
 12016 08a8 50       		.byte	0x50
 12017 08a9 00000000 		.4byte	0
 12018 08ad 00000000 		.4byte	0
 12019              	.LVUS32:
 12020 08b1 00       		.uleb128 .LVU530
 12021 08b2 00       		.uleb128 .LVU531
 12022 08b3 00       		.uleb128 .LVU531
 12023 08b4 00       		.uleb128 .LVU548
 12024 08b5 00       		.uleb128 .LVU558
 12025 08b6 00       		.uleb128 .LVU559
 12026 08b7 00       		.uleb128 .LVU559
 12027 08b8 00       		.uleb128 .LVU560
 12028              	.LLST32:
 12029 08b9 82000000 		.4byte	.LVL89
 12030 08bd 85000000 		.4byte	.LVL90-1
 12031 08c1 0100     		.2byte	0x1
 12032 08c3 50       		.byte	0x50
 12033 08c4 85000000 		.4byte	.LVL90-1
 12034 08c8 C8000000 		.4byte	.LVL96
 12035 08cc 0100     		.2byte	0x1
 12036 08ce 56       		.byte	0x56
 12037 08cf DC000000 		.4byte	.LVL100
 12038 08d3 E0000000 		.4byte	.LVL101
 12039 08d7 0100     		.2byte	0x1
 12040 08d9 50       		.byte	0x50
 12041 08da E0000000 		.4byte	.LVL101
 12042 08de E4000000 		.4byte	.LVL102
 12043 08e2 0300     		.2byte	0x3
 12044 08e4 70       		.byte	0x70
 12045 08e5 7F       		.sleb128 -1
 12046 08e6 9F       		.byte	0x9f
 12047 08e7 00000000 		.4byte	0
 12048 08eb 00000000 		.4byte	0
 12049              	.LVUS33:
 12050 08ef 02       		.uleb128 .LVU534
 12051 08f0 04       		.uleb128 .LVU536
 12052              	.LLST33:
 12053 08f1 96000000 		.4byte	.LVL92
 12054 08f5 96000000 		.4byte	.LVL92
 12055 08f9 0600     		.2byte	0x6
 12056 08fb 03       		.byte	0x3
 12057 08fc 00000000 		.4byte	sem1
 12058 0900 9F       		.byte	0x9f
 12059 0901 00000000 		.4byte	0
 12060 0905 00000000 		.4byte	0
 12061              	.LVUS34:
 12062 0909 00       		.uleb128 .LVU549
 12063 090a 02       		.uleb128 .LVU551
 12064              	.LLST34:
 12065 090b CA000000 		.4byte	.LVL97
 12066 090f CA000000 		.4byte	.LVL97
 12067 0913 0400     		.2byte	0x4
ARM GAS  /tmp/ccMmeZ0f.s 			page 214


 12068 0915 0A       		.byte	0xa
 12069 0916 C409     		.2byte	0x9c4
 12070 0918 9F       		.byte	0x9f
 12071 0919 00000000 		.4byte	0
 12072 091d 00000000 		.4byte	0
 12073              	.LVUS35:
 12074 0921 00       		.uleb128 .LVU549
 12075 0922 02       		.uleb128 .LVU551
 12076              	.LLST35:
 12077 0923 CA000000 		.4byte	.LVL97
 12078 0927 CA000000 		.4byte	.LVL97
 12079 092b 0100     		.2byte	0x1
 12080 092d 50       		.byte	0x50
 12081 092e 00000000 		.4byte	0
 12082 0932 00000000 		.4byte	0
 12083              	.LVUS36:
 12084 0936 02       		.uleb128 .LVU563
 12085 0937 04       		.uleb128 .LVU565
 12086              	.LLST36:
 12087 0938 EC000000 		.4byte	.LVL103
 12088 093c EC000000 		.4byte	.LVL103
 12089 0940 0600     		.2byte	0x6
 12090 0942 03       		.byte	0x3
 12091 0943 00000000 		.4byte	sem1
 12092 0947 9F       		.byte	0x9f
 12093 0948 00000000 		.4byte	0
 12094 094c 00000000 		.4byte	0
 12095              	.LVUS37:
 12096 0950 02       		.uleb128 .LVU583
 12097 0951 04       		.uleb128 .LVU585
 12098              	.LLST37:
 12099 0952 2C010000 		.4byte	.LVL107
 12100 0956 2C010000 		.4byte	.LVL107
 12101 095a 0200     		.2byte	0x2
 12102 095c 44       		.byte	0x44
 12103 095d 9F       		.byte	0x9f
 12104 095e 00000000 		.4byte	0
 12105 0962 00000000 		.4byte	0
 12106              	.LVUS38:
 12107 0966 02       		.uleb128 .LVU583
 12108 0967 04       		.uleb128 .LVU585
 12109              	.LLST38:
 12110 0968 2C010000 		.4byte	.LVL107
 12111 096c 2C010000 		.4byte	.LVL107
 12112 0970 0400     		.2byte	0x4
 12113 0972 78       		.byte	0x78
 12114 0973 C413     		.sleb128 2500
 12115 0975 9F       		.byte	0x9f
 12116 0976 00000000 		.4byte	0
 12117 097a 00000000 		.4byte	0
 12118              		.section	.debug_aranges,"",%progbits
 12119 0000 84000000 		.4byte	0x84
 12120 0004 0200     		.2byte	0x2
 12121 0006 00000000 		.4byte	.Ldebug_info0
 12122 000a 04       		.byte	0x4
 12123 000b 00       		.byte	0
 12124 000c 0000     		.2byte	0
ARM GAS  /tmp/ccMmeZ0f.s 			page 215


 12125 000e 0000     		.2byte	0
 12126 0010 00000000 		.4byte	.LFB411
 12127 0014 0C000000 		.4byte	.LFE411-.LFB411
 12128 0018 00000000 		.4byte	.LFB408
 12129 001c 0C000000 		.4byte	.LFE408-.LFB408
 12130 0020 00000000 		.4byte	.LFB409
 12131 0024 10000000 		.4byte	.LFE409-.LFB409
 12132 0028 00000000 		.4byte	.LFB418
 12133 002c 04000000 		.4byte	.LFE418-.LFB418
 12134 0030 00000000 		.4byte	.LFB419
 12135 0034 B4000000 		.4byte	.LFE419-.LFB419
 12136 0038 00000000 		.4byte	.LFB406
 12137 003c 18000000 		.4byte	.LFE406-.LFB406
 12138 0040 00000000 		.4byte	.LFB410
 12139 0044 C4000000 		.4byte	.LFE410-.LFB410
 12140 0048 00000000 		.4byte	.LFB416
 12141 004c A0000000 		.4byte	.LFE416-.LFB416
 12142 0050 00000000 		.4byte	.LFB412
 12143 0054 FC000000 		.4byte	.LFE412-.LFB412
 12144 0058 00000000 		.4byte	.LFB404
 12145 005c 18000000 		.4byte	.LFE404-.LFB404
 12146 0060 00000000 		.4byte	.LFB405
 12147 0064 28000000 		.4byte	.LFE405-.LFB405
 12148 0068 00000000 		.4byte	.LFB414
 12149 006c 70010000 		.4byte	.LFE414-.LFB414
 12150 0070 00000000 		.4byte	.LFB407
 12151 0074 2A000000 		.4byte	.LFE407-.LFB407
 12152 0078 00000000 		.4byte	.LFB421
 12153 007c B8010000 		.4byte	.LFE421-.LFB421
 12154 0080 00000000 		.4byte	0
 12155 0084 00000000 		.4byte	0
 12156              		.section	.debug_ranges,"",%progbits
 12157              	.Ldebug_ranges0:
 12158 0000 02000000 		.4byte	.LBB381
 12159 0004 04000000 		.4byte	.LBE381
 12160 0008 06000000 		.4byte	.LBB389
 12161 000c 08000000 		.4byte	.LBE389
 12162 0010 1C000000 		.4byte	.LBB390
 12163 0014 1C000000 		.4byte	.LBE390
 12164 0018 00000000 		.4byte	0
 12165 001c 00000000 		.4byte	0
 12166 0020 02000000 		.4byte	.LBB383
 12167 0024 04000000 		.4byte	.LBE383
 12168 0028 1C000000 		.4byte	.LBB386
 12169 002c 1C000000 		.4byte	.LBE386
 12170 0030 00000000 		.4byte	0
 12171 0034 00000000 		.4byte	0
 12172 0038 04000000 		.4byte	.LBB395
 12173 003c 06000000 		.4byte	.LBE395
 12174 0040 0A000000 		.4byte	.LBB436
 12175 0044 0C000000 		.4byte	.LBE436
 12176 0048 0E000000 		.4byte	.LBB437
 12177 004c 16000000 		.4byte	.LBE437
 12178 0050 16000000 		.4byte	.LBB438
 12179 0054 16000000 		.4byte	.LBE438
 12180 0058 16000000 		.4byte	.LBB439
 12181 005c 16000000 		.4byte	.LBE439
ARM GAS  /tmp/ccMmeZ0f.s 			page 216


 12182 0060 16000000 		.4byte	.LBB440
 12183 0064 1A000000 		.4byte	.LBE440
 12184 0068 1A000000 		.4byte	.LBB441
 12185 006c 2A000000 		.4byte	.LBE441
 12186 0070 2A000000 		.4byte	.LBB442
 12187 0074 2A000000 		.4byte	.LBE442
 12188 0078 2A000000 		.4byte	.LBB443
 12189 007c 30000000 		.4byte	.LBE443
 12190 0080 34000000 		.4byte	.LBB444
 12191 0084 34000000 		.4byte	.LBE444
 12192 0088 34000000 		.4byte	.LBB445
 12193 008c 34000000 		.4byte	.LBE445
 12194 0090 34000000 		.4byte	.LBB446
 12195 0094 4A000000 		.4byte	.LBE446
 12196 0098 00000000 		.4byte	0
 12197 009c 00000000 		.4byte	0
 12198 00a0 12000000 		.4byte	.LBB396
 12199 00a4 14000000 		.4byte	.LBE396
 12200 00a8 16000000 		.4byte	.LBB408
 12201 00ac 16000000 		.4byte	.LBE408
 12202 00b0 16000000 		.4byte	.LBB409
 12203 00b4 16000000 		.4byte	.LBE409
 12204 00b8 16000000 		.4byte	.LBB410
 12205 00bc 16000000 		.4byte	.LBE410
 12206 00c0 16000000 		.4byte	.LBB411
 12207 00c4 1A000000 		.4byte	.LBE411
 12208 00c8 00000000 		.4byte	0
 12209 00cc 00000000 		.4byte	0
 12210 00d0 12000000 		.4byte	.LBB397
 12211 00d4 14000000 		.4byte	.LBE397
 12212 00d8 16000000 		.4byte	.LBB405
 12213 00dc 16000000 		.4byte	.LBE405
 12214 00e0 16000000 		.4byte	.LBB406
 12215 00e4 16000000 		.4byte	.LBE406
 12216 00e8 16000000 		.4byte	.LBB407
 12217 00ec 1A000000 		.4byte	.LBE407
 12218 00f0 00000000 		.4byte	0
 12219 00f4 00000000 		.4byte	0
 12220 00f8 12000000 		.4byte	.LBB398
 12221 00fc 14000000 		.4byte	.LBE398
 12222 0100 16000000 		.4byte	.LBB403
 12223 0104 16000000 		.4byte	.LBE403
 12224 0108 16000000 		.4byte	.LBB404
 12225 010c 1A000000 		.4byte	.LBE404
 12226 0110 00000000 		.4byte	0
 12227 0114 00000000 		.4byte	0
 12228 0118 12000000 		.4byte	.LBB399
 12229 011c 14000000 		.4byte	.LBE399
 12230 0120 16000000 		.4byte	.LBB402
 12231 0124 1A000000 		.4byte	.LBE402
 12232 0128 00000000 		.4byte	0
 12233 012c 00000000 		.4byte	0
 12234 0130 2A000000 		.4byte	.LBB414
 12235 0134 2A000000 		.4byte	.LBE414
 12236 0138 2A000000 		.4byte	.LBB423
 12237 013c 2A000000 		.4byte	.LBE423
 12238 0140 2A000000 		.4byte	.LBB424
ARM GAS  /tmp/ccMmeZ0f.s 			page 217


 12239 0144 30000000 		.4byte	.LBE424
 12240 0148 00000000 		.4byte	0
 12241 014c 00000000 		.4byte	0
 12242 0150 34000000 		.4byte	.LBB425
 12243 0154 34000000 		.4byte	.LBE425
 12244 0158 34000000 		.4byte	.LBB434
 12245 015c 34000000 		.4byte	.LBE434
 12246 0160 34000000 		.4byte	.LBB435
 12247 0164 38000000 		.4byte	.LBE435
 12248 0168 00000000 		.4byte	0
 12249 016c 00000000 		.4byte	0
 12250 0170 58000000 		.4byte	.LBB447
 12251 0174 58000000 		.4byte	.LBE447
 12252 0178 58000000 		.4byte	.LBB455
 12253 017c 58000000 		.4byte	.LBE455
 12254 0180 58000000 		.4byte	.LBB456
 12255 0184 58000000 		.4byte	.LBE456
 12256 0188 58000000 		.4byte	.LBB457
 12257 018c 5C000000 		.4byte	.LBE457
 12258 0190 00000000 		.4byte	0
 12259 0194 00000000 		.4byte	0
 12260 0198 72000000 		.4byte	.LBB460
 12261 019c 72000000 		.4byte	.LBE460
 12262 01a0 72000000 		.4byte	.LBB469
 12263 01a4 72000000 		.4byte	.LBE469
 12264 01a8 72000000 		.4byte	.LBB470
 12265 01ac 76000000 		.4byte	.LBE470
 12266 01b0 00000000 		.4byte	0
 12267 01b4 00000000 		.4byte	0
 12268 01b8 7A000000 		.4byte	.LBB471
 12269 01bc 7A000000 		.4byte	.LBE471
 12270 01c0 7A000000 		.4byte	.LBB480
 12271 01c4 7A000000 		.4byte	.LBE480
 12272 01c8 7A000000 		.4byte	.LBB481
 12273 01cc 7E000000 		.4byte	.LBE481
 12274 01d0 00000000 		.4byte	0
 12275 01d4 00000000 		.4byte	0
 12276 01d8 80000000 		.4byte	.LBB482
 12277 01dc 88000000 		.4byte	.LBE482
 12278 01e0 8A000000 		.4byte	.LBB485
 12279 01e4 8E000000 		.4byte	.LBE485
 12280 01e8 00000000 		.4byte	0
 12281 01ec 00000000 		.4byte	0
 12282 01f0 8E000000 		.4byte	.LBB486
 12283 01f4 8E000000 		.4byte	.LBE486
 12284 01f8 8E000000 		.4byte	.LBB494
 12285 01fc 8E000000 		.4byte	.LBE494
 12286 0200 8E000000 		.4byte	.LBB495
 12287 0204 8E000000 		.4byte	.LBE495
 12288 0208 8E000000 		.4byte	.LBB496
 12289 020c 92000000 		.4byte	.LBE496
 12290 0210 00000000 		.4byte	0
 12291 0214 00000000 		.4byte	0
 12292 0218 A6000000 		.4byte	.LBB499
 12293 021c A6000000 		.4byte	.LBE499
 12294 0220 A6000000 		.4byte	.LBB511
 12295 0224 AA000000 		.4byte	.LBE511
ARM GAS  /tmp/ccMmeZ0f.s 			page 218


 12296 0228 AA000000 		.4byte	.LBB512
 12297 022c AC000000 		.4byte	.LBE512
 12298 0230 00000000 		.4byte	0
 12299 0234 00000000 		.4byte	0
 12300 0238 A6000000 		.4byte	.LBB501
 12301 023c A6000000 		.4byte	.LBE501
 12302 0240 A6000000 		.4byte	.LBB508
 12303 0244 AA000000 		.4byte	.LBE508
 12304 0248 00000000 		.4byte	0
 12305 024c 00000000 		.4byte	0
 12306 0250 AC000000 		.4byte	.LBB513
 12307 0254 AC000000 		.4byte	.LBE513
 12308 0258 AC000000 		.4byte	.LBB522
 12309 025c AC000000 		.4byte	.LBE522
 12310 0260 AC000000 		.4byte	.LBB523
 12311 0264 B0000000 		.4byte	.LBE523
 12312 0268 00000000 		.4byte	0
 12313 026c 00000000 		.4byte	0
 12314 0270 02000000 		.4byte	.LBB524
 12315 0274 04000000 		.4byte	.LBE524
 12316 0278 06000000 		.4byte	.LBB532
 12317 027c 08000000 		.4byte	.LBE532
 12318 0280 18000000 		.4byte	.LBB533
 12319 0284 18000000 		.4byte	.LBE533
 12320 0288 00000000 		.4byte	0
 12321 028c 00000000 		.4byte	0
 12322 0290 02000000 		.4byte	.LBB526
 12323 0294 04000000 		.4byte	.LBE526
 12324 0298 18000000 		.4byte	.LBB529
 12325 029c 18000000 		.4byte	.LBE529
 12326 02a0 00000000 		.4byte	0
 12327 02a4 00000000 		.4byte	0
 12328 02a8 2C000000 		.4byte	.LBB534
 12329 02ac 2C000000 		.4byte	.LBE534
 12330 02b0 2C000000 		.4byte	.LBB539
 12331 02b4 2C000000 		.4byte	.LBE539
 12332 02b8 2C000000 		.4byte	.LBB540
 12333 02bc 32000000 		.4byte	.LBE540
 12334 02c0 00000000 		.4byte	0
 12335 02c4 00000000 		.4byte	0
 12336 02c8 3A000000 		.4byte	.LBB541
 12337 02cc 3C000000 		.4byte	.LBE541
 12338 02d0 40000000 		.4byte	.LBB552
 12339 02d4 40000000 		.4byte	.LBE552
 12340 02d8 40000000 		.4byte	.LBB553
 12341 02dc 44000000 		.4byte	.LBE553
 12342 02e0 00000000 		.4byte	0
 12343 02e4 00000000 		.4byte	0
 12344 02e8 3A000000 		.4byte	.LBB544
 12345 02ec 3C000000 		.4byte	.LBE544
 12346 02f0 40000000 		.4byte	.LBB547
 12347 02f4 44000000 		.4byte	.LBE547
 12348 02f8 00000000 		.4byte	0
 12349 02fc 00000000 		.4byte	0
 12350 0300 48000000 		.4byte	.LBB554
 12351 0304 48000000 		.4byte	.LBE554
 12352 0308 48000000 		.4byte	.LBB562
ARM GAS  /tmp/ccMmeZ0f.s 			page 219


 12353 030c 48000000 		.4byte	.LBE562
 12354 0310 48000000 		.4byte	.LBB563
 12355 0314 48000000 		.4byte	.LBE563
 12356 0318 48000000 		.4byte	.LBB564
 12357 031c 4C000000 		.4byte	.LBE564
 12358 0320 00000000 		.4byte	0
 12359 0324 00000000 		.4byte	0
 12360 0328 60000000 		.4byte	.LBB567
 12361 032c 60000000 		.4byte	.LBE567
 12362 0330 60000000 		.4byte	.LBB576
 12363 0334 60000000 		.4byte	.LBE576
 12364 0338 60000000 		.4byte	.LBB577
 12365 033c 64000000 		.4byte	.LBE577
 12366 0340 00000000 		.4byte	0
 12367 0344 00000000 		.4byte	0
 12368 0348 68000000 		.4byte	.LBB578
 12369 034c 68000000 		.4byte	.LBE578
 12370 0350 68000000 		.4byte	.LBB587
 12371 0354 68000000 		.4byte	.LBE587
 12372 0358 68000000 		.4byte	.LBB588
 12373 035c 6C000000 		.4byte	.LBE588
 12374 0360 00000000 		.4byte	0
 12375 0364 00000000 		.4byte	0
 12376 0368 04000000 		.4byte	.LBB589
 12377 036c 06000000 		.4byte	.LBE589
 12378 0370 08000000 		.4byte	.LBB597
 12379 0374 0A000000 		.4byte	.LBE597
 12380 0378 28000000 		.4byte	.LBB598
 12381 037c 28000000 		.4byte	.LBE598
 12382 0380 00000000 		.4byte	0
 12383 0384 00000000 		.4byte	0
 12384 0388 04000000 		.4byte	.LBB591
 12385 038c 06000000 		.4byte	.LBE591
 12386 0390 28000000 		.4byte	.LBB594
 12387 0394 28000000 		.4byte	.LBE594
 12388 0398 00000000 		.4byte	0
 12389 039c 00000000 		.4byte	0
 12390 03a0 2C000000 		.4byte	.LBB599
 12391 03a4 2E000000 		.4byte	.LBE599
 12392 03a8 3C000000 		.4byte	.LBB604
 12393 03ac 3C000000 		.4byte	.LBE604
 12394 03b0 00000000 		.4byte	0
 12395 03b4 00000000 		.4byte	0
 12396 03b8 46000000 		.4byte	.LBB605
 12397 03bc 48000000 		.4byte	.LBE605
 12398 03c0 4A000000 		.4byte	.LBB610
 12399 03c4 4A000000 		.4byte	.LBE610
 12400 03c8 00000000 		.4byte	0
 12401 03cc 00000000 		.4byte	0
 12402 03d0 5E000000 		.4byte	.LBB611
 12403 03d4 60000000 		.4byte	.LBE611
 12404 03d8 62000000 		.4byte	.LBB616
 12405 03dc 62000000 		.4byte	.LBE616
 12406 03e0 00000000 		.4byte	0
 12407 03e4 00000000 		.4byte	0
 12408 03e8 76000000 		.4byte	.LBB617
 12409 03ec 78000000 		.4byte	.LBE617
ARM GAS  /tmp/ccMmeZ0f.s 			page 220


 12410 03f0 7E000000 		.4byte	.LBB622
 12411 03f4 7E000000 		.4byte	.LBE622
 12412 03f8 00000000 		.4byte	0
 12413 03fc 00000000 		.4byte	0
 12414 0400 0A000000 		.4byte	.LBB623
 12415 0404 0A000000 		.4byte	.LBE623
 12416 0408 0A000000 		.4byte	.LBB628
 12417 040c 0A000000 		.4byte	.LBE628
 12418 0410 0A000000 		.4byte	.LBB629
 12419 0414 10000000 		.4byte	.LBE629
 12420 0418 00000000 		.4byte	0
 12421 041c 00000000 		.4byte	0
 12422 0420 1A000000 		.4byte	.LBB630
 12423 0424 1A000000 		.4byte	.LBE630
 12424 0428 1A000000 		.4byte	.LBB637
 12425 042c 20000000 		.4byte	.LBE637
 12426 0430 00000000 		.4byte	0
 12427 0434 00000000 		.4byte	0
 12428 0438 42000000 		.4byte	.LBB658
 12429 043c 36010000 		.4byte	.LBE658
 12430 0440 3C010000 		.4byte	.LBB681
 12431 0444 70010000 		.4byte	.LBE681
 12432 0448 00000000 		.4byte	0
 12433 044c 00000000 		.4byte	0
 12434 0450 56000000 		.4byte	.LBB660
 12435 0454 58000000 		.4byte	.LBE660
 12436 0458 5A000000 		.4byte	.LBB668
 12437 045c 5C000000 		.4byte	.LBE668
 12438 0460 6A000000 		.4byte	.LBB669
 12439 0464 6A000000 		.4byte	.LBE669
 12440 0468 00000000 		.4byte	0
 12441 046c 00000000 		.4byte	0
 12442 0470 56000000 		.4byte	.LBB662
 12443 0474 58000000 		.4byte	.LBE662
 12444 0478 6A000000 		.4byte	.LBB665
 12445 047c 6A000000 		.4byte	.LBE665
 12446 0480 00000000 		.4byte	0
 12447 0484 00000000 		.4byte	0
 12448 0488 EC000000 		.4byte	.LBB674
 12449 048c EC000000 		.4byte	.LBE674
 12450 0490 F2000000 		.4byte	.LBB677
 12451 0494 F4000000 		.4byte	.LBE677
 12452 0498 00000000 		.4byte	0
 12453 049c 00000000 		.4byte	0
 12454 04a0 00000000 		.4byte	.LBB695
 12455 04a4 00000000 		.4byte	.LBE695
 12456 04a8 00000000 		.4byte	.LBB735
 12457 04ac 00000000 		.4byte	.LBE735
 12458 04b0 00000000 		.4byte	.LBB736
 12459 04b4 00000000 		.4byte	.LBE736
 12460 04b8 02000000 		.4byte	.LBB737
 12461 04bc 08000000 		.4byte	.LBE737
 12462 04c0 08000000 		.4byte	.LBB738
 12463 04c4 12000000 		.4byte	.LBE738
 12464 04c8 12000000 		.4byte	.LBB739
 12465 04cc 18000000 		.4byte	.LBE739
 12466 04d0 1A000000 		.4byte	.LBB740
ARM GAS  /tmp/ccMmeZ0f.s 			page 221


 12467 04d4 22000000 		.4byte	.LBE740
 12468 04d8 22000000 		.4byte	.LBB741
 12469 04dc 28000000 		.4byte	.LBE741
 12470 04e0 00000000 		.4byte	0
 12471 04e4 00000000 		.4byte	0
 12472 04e8 00000000 		.4byte	.LBB697
 12473 04ec 00000000 		.4byte	.LBE697
 12474 04f0 00000000 		.4byte	.LBB705
 12475 04f4 00000000 		.4byte	.LBE705
 12476 04f8 00000000 		.4byte	.LBB706
 12477 04fc 00000000 		.4byte	.LBE706
 12478 0500 02000000 		.4byte	.LBB707
 12479 0504 08000000 		.4byte	.LBE707
 12480 0508 00000000 		.4byte	0
 12481 050c 00000000 		.4byte	0
 12482 0510 08000000 		.4byte	.LBB708
 12483 0514 0E000000 		.4byte	.LBE708
 12484 0518 1A000000 		.4byte	.LBB725
 12485 051c 1E000000 		.4byte	.LBE725
 12486 0520 00000000 		.4byte	0
 12487 0524 00000000 		.4byte	0
 12488 0528 12000000 		.4byte	.LBB711
 12489 052c 12000000 		.4byte	.LBE711
 12490 0530 12000000 		.4byte	.LBB724
 12491 0534 18000000 		.4byte	.LBE724
 12492 0538 22000000 		.4byte	.LBB726
 12493 053c 22000000 		.4byte	.LBE726
 12494 0540 22000000 		.4byte	.LBB727
 12495 0544 28000000 		.4byte	.LBE727
 12496 0548 00000000 		.4byte	0
 12497 054c 00000000 		.4byte	0
 12498 0550 12000000 		.4byte	.LBB714
 12499 0554 18000000 		.4byte	.LBE714
 12500 0558 22000000 		.4byte	.LBB717
 12501 055c 28000000 		.4byte	.LBE717
 12502 0560 00000000 		.4byte	0
 12503 0564 00000000 		.4byte	0
 12504 0568 08000000 		.4byte	.LBB912
 12505 056c 0C000000 		.4byte	.LBE912
 12506 0570 0E000000 		.4byte	.LBB916
 12507 0574 0E000000 		.4byte	.LBE916
 12508 0578 10000000 		.4byte	.LBB929
 12509 057c 14000000 		.4byte	.LBE929
 12510 0580 00000000 		.4byte	0
 12511 0584 00000000 		.4byte	0
 12512 0588 0E000000 		.4byte	.LBB917
 12513 058c 10000000 		.4byte	.LBE917
 12514 0590 14000000 		.4byte	.LBB930
 12515 0594 14000000 		.4byte	.LBE930
 12516 0598 14000000 		.4byte	.LBB931
 12517 059c 14000000 		.4byte	.LBE931
 12518 05a0 14000000 		.4byte	.LBB932
 12519 05a4 14000000 		.4byte	.LBE932
 12520 05a8 14000000 		.4byte	.LBB933
 12521 05ac 18000000 		.4byte	.LBE933
 12522 05b0 00000000 		.4byte	0
 12523 05b4 00000000 		.4byte	0
ARM GAS  /tmp/ccMmeZ0f.s 			page 222


 12524 05b8 0E000000 		.4byte	.LBB918
 12525 05bc 10000000 		.4byte	.LBE918
 12526 05c0 14000000 		.4byte	.LBB926
 12527 05c4 14000000 		.4byte	.LBE926
 12528 05c8 14000000 		.4byte	.LBB927
 12529 05cc 14000000 		.4byte	.LBE927
 12530 05d0 14000000 		.4byte	.LBB928
 12531 05d4 18000000 		.4byte	.LBE928
 12532 05d8 00000000 		.4byte	0
 12533 05dc 00000000 		.4byte	0
 12534 05e0 0E000000 		.4byte	.LBB919
 12535 05e4 10000000 		.4byte	.LBE919
 12536 05e8 14000000 		.4byte	.LBB924
 12537 05ec 14000000 		.4byte	.LBE924
 12538 05f0 14000000 		.4byte	.LBB925
 12539 05f4 18000000 		.4byte	.LBE925
 12540 05f8 00000000 		.4byte	0
 12541 05fc 00000000 		.4byte	0
 12542 0600 0E000000 		.4byte	.LBB920
 12543 0604 10000000 		.4byte	.LBE920
 12544 0608 14000000 		.4byte	.LBB923
 12545 060c 18000000 		.4byte	.LBE923
 12546 0610 00000000 		.4byte	0
 12547 0614 00000000 		.4byte	0
 12548 0618 2A000000 		.4byte	.LBB936
 12549 061c 2A000000 		.4byte	.LBE936
 12550 0620 2A000000 		.4byte	.LBB945
 12551 0624 2A000000 		.4byte	.LBE945
 12552 0628 2A000000 		.4byte	.LBB946
 12553 062c 30000000 		.4byte	.LBE946
 12554 0630 00000000 		.4byte	0
 12555 0634 00000000 		.4byte	0
 12556 0638 34000000 		.4byte	.LBB947
 12557 063c 34000000 		.4byte	.LBE947
 12558 0640 34000000 		.4byte	.LBB956
 12559 0644 34000000 		.4byte	.LBE956
 12560 0648 34000000 		.4byte	.LBB957
 12561 064c 3A000000 		.4byte	.LBE957
 12562 0650 00000000 		.4byte	0
 12563 0654 00000000 		.4byte	0
 12564 0658 3C000000 		.4byte	.LBB958
 12565 065c 44000000 		.4byte	.LBE958
 12566 0660 46000000 		.4byte	.LBB963
 12567 0664 46000000 		.4byte	.LBE963
 12568 0668 46000000 		.4byte	.LBB964
 12569 066c 4A000000 		.4byte	.LBE964
 12570 0670 00000000 		.4byte	0
 12571 0674 00000000 		.4byte	0
 12572 0678 3C000000 		.4byte	.LBB959
 12573 067c 44000000 		.4byte	.LBE959
 12574 0680 46000000 		.4byte	.LBB962
 12575 0684 4A000000 		.4byte	.LBE962
 12576 0688 00000000 		.4byte	0
 12577 068c 00000000 		.4byte	0
 12578 0690 4A000000 		.4byte	.LBB965
 12579 0694 4A000000 		.4byte	.LBE965
 12580 0698 4A000000 		.4byte	.LBB973
ARM GAS  /tmp/ccMmeZ0f.s 			page 223


 12581 069c 4A000000 		.4byte	.LBE973
 12582 06a0 4A000000 		.4byte	.LBB974
 12583 06a4 4A000000 		.4byte	.LBE974
 12584 06a8 4A000000 		.4byte	.LBB975
 12585 06ac 4E000000 		.4byte	.LBE975
 12586 06b0 00000000 		.4byte	0
 12587 06b4 00000000 		.4byte	0
 12588 06b8 62000000 		.4byte	.LBB978
 12589 06bc 62000000 		.4byte	.LBE978
 12590 06c0 62000000 		.4byte	.LBB987
 12591 06c4 62000000 		.4byte	.LBE987
 12592 06c8 62000000 		.4byte	.LBB988
 12593 06cc 66000000 		.4byte	.LBE988
 12594 06d0 00000000 		.4byte	0
 12595 06d4 00000000 		.4byte	0
 12596 06d8 8A000000 		.4byte	.LBB993
 12597 06dc 8C000000 		.4byte	.LBE993
 12598 06e0 8E000000 		.4byte	.LBB996
 12599 06e4 94000000 		.4byte	.LBE996
 12600 06e8 00000000 		.4byte	0
 12601 06ec 00000000 		.4byte	0
 12602 06f0 94000000 		.4byte	.LBB997
 12603 06f4 94000000 		.4byte	.LBE997
 12604 06f8 94000000 		.4byte	.LBB1005
 12605 06fc 94000000 		.4byte	.LBE1005
 12606 0700 94000000 		.4byte	.LBB1006
 12607 0704 94000000 		.4byte	.LBE1006
 12608 0708 94000000 		.4byte	.LBB1007
 12609 070c 98000000 		.4byte	.LBE1007
 12610 0710 00000000 		.4byte	0
 12611 0714 00000000 		.4byte	0
 12612 0718 AA000000 		.4byte	.LBB1010
 12613 071c AA000000 		.4byte	.LBE1010
 12614 0720 AA000000 		.4byte	.LBB1019
 12615 0724 AA000000 		.4byte	.LBE1019
 12616 0728 AA000000 		.4byte	.LBB1020
 12617 072c AE000000 		.4byte	.LBE1020
 12618 0730 00000000 		.4byte	0
 12619 0734 00000000 		.4byte	0
 12620 0738 B2000000 		.4byte	.LBB1021
 12621 073c B2000000 		.4byte	.LBE1021
 12622 0740 B2000000 		.4byte	.LBB1030
 12623 0744 B2000000 		.4byte	.LBE1030
 12624 0748 B2000000 		.4byte	.LBB1031
 12625 074c B6000000 		.4byte	.LBE1031
 12626 0750 00000000 		.4byte	0
 12627 0754 00000000 		.4byte	0
 12628 0758 BA000000 		.4byte	.LBB1032
 12629 075c BA000000 		.4byte	.LBE1032
 12630 0760 BA000000 		.4byte	.LBB1041
 12631 0764 BA000000 		.4byte	.LBE1041
 12632 0768 BA000000 		.4byte	.LBB1042
 12633 076c BE000000 		.4byte	.LBE1042
 12634 0770 00000000 		.4byte	0
 12635 0774 00000000 		.4byte	0
 12636 0778 D2000000 		.4byte	.LBB1043
 12637 077c D2000000 		.4byte	.LBE1043
ARM GAS  /tmp/ccMmeZ0f.s 			page 224


 12638 0780 D2000000 		.4byte	.LBB1069
 12639 0784 D2000000 		.4byte	.LBE1069
 12640 0788 D2000000 		.4byte	.LBB1070
 12641 078c D6000000 		.4byte	.LBE1070
 12642 0790 D6000000 		.4byte	.LBB1071
 12643 0794 E0000000 		.4byte	.LBE1071
 12644 0798 E0000000 		.4byte	.LBB1072
 12645 079c E6000000 		.4byte	.LBE1072
 12646 07a0 5C010000 		.4byte	.LBB1175
 12647 07a4 64010000 		.4byte	.LBE1175
 12648 07a8 00000000 		.4byte	0
 12649 07ac 00000000 		.4byte	0
 12650 07b0 D2000000 		.4byte	.LBB1045
 12651 07b4 D2000000 		.4byte	.LBE1045
 12652 07b8 D2000000 		.4byte	.LBB1050
 12653 07bc D2000000 		.4byte	.LBE1050
 12654 07c0 D2000000 		.4byte	.LBB1051
 12655 07c4 D6000000 		.4byte	.LBE1051
 12656 07c8 00000000 		.4byte	0
 12657 07cc 00000000 		.4byte	0
 12658 07d0 D6000000 		.4byte	.LBB1052
 12659 07d4 DC000000 		.4byte	.LBE1052
 12660 07d8 5C010000 		.4byte	.LBB1063
 12661 07dc 64010000 		.4byte	.LBE1063
 12662 07e0 00000000 		.4byte	0
 12663 07e4 00000000 		.4byte	0
 12664 07e8 E0000000 		.4byte	.LBB1055
 12665 07ec E0000000 		.4byte	.LBE1055
 12666 07f0 E0000000 		.4byte	.LBB1062
 12667 07f4 E6000000 		.4byte	.LBE1062
 12668 07f8 00000000 		.4byte	0
 12669 07fc 00000000 		.4byte	0
 12670 0800 E6000000 		.4byte	.LBB1073
 12671 0804 E6000000 		.4byte	.LBE1073
 12672 0808 E6000000 		.4byte	.LBB1081
 12673 080c E6000000 		.4byte	.LBE1081
 12674 0810 E6000000 		.4byte	.LBB1082
 12675 0814 E6000000 		.4byte	.LBE1082
 12676 0818 E6000000 		.4byte	.LBB1083
 12677 081c EC000000 		.4byte	.LBE1083
 12678 0820 00000000 		.4byte	0
 12679 0824 00000000 		.4byte	0
 12680 0828 02010000 		.4byte	.LBB1086
 12681 082c 02010000 		.4byte	.LBE1086
 12682 0830 02010000 		.4byte	.LBB1095
 12683 0834 02010000 		.4byte	.LBE1095
 12684 0838 02010000 		.4byte	.LBB1096
 12685 083c 06010000 		.4byte	.LBE1096
 12686 0840 00000000 		.4byte	0
 12687 0844 00000000 		.4byte	0
 12688 0848 06010000 		.4byte	.LBB1097
 12689 084c 06010000 		.4byte	.LBE1097
 12690 0850 06010000 		.4byte	.LBB1105
 12691 0854 06010000 		.4byte	.LBE1105
 12692 0858 06010000 		.4byte	.LBB1106
 12693 085c 06010000 		.4byte	.LBE1106
 12694 0860 06010000 		.4byte	.LBB1107
ARM GAS  /tmp/ccMmeZ0f.s 			page 225


 12695 0864 0A010000 		.4byte	.LBE1107
 12696 0868 00000000 		.4byte	0
 12697 086c 00000000 		.4byte	0
 12698 0870 20010000 		.4byte	.LBB1110
 12699 0874 20010000 		.4byte	.LBE1110
 12700 0878 20010000 		.4byte	.LBB1119
 12701 087c 20010000 		.4byte	.LBE1119
 12702 0880 20010000 		.4byte	.LBB1120
 12703 0884 24010000 		.4byte	.LBE1120
 12704 0888 00000000 		.4byte	0
 12705 088c 00000000 		.4byte	0
 12706 0890 28010000 		.4byte	.LBB1121
 12707 0894 28010000 		.4byte	.LBE1121
 12708 0898 28010000 		.4byte	.LBB1147
 12709 089c 28010000 		.4byte	.LBE1147
 12710 08a0 28010000 		.4byte	.LBB1148
 12711 08a4 2C010000 		.4byte	.LBE1148
 12712 08a8 2C010000 		.4byte	.LBB1149
 12713 08ac 36010000 		.4byte	.LBE1149
 12714 08b0 36010000 		.4byte	.LBB1150
 12715 08b4 3C010000 		.4byte	.LBE1150
 12716 08b8 88010000 		.4byte	.LBB1211
 12717 08bc B8010000 		.4byte	.LBE1211
 12718 08c0 00000000 		.4byte	0
 12719 08c4 00000000 		.4byte	0
 12720 08c8 28010000 		.4byte	.LBB1123
 12721 08cc 28010000 		.4byte	.LBE1123
 12722 08d0 28010000 		.4byte	.LBB1128
 12723 08d4 28010000 		.4byte	.LBE1128
 12724 08d8 28010000 		.4byte	.LBB1129
 12725 08dc 2C010000 		.4byte	.LBE1129
 12726 08e0 00000000 		.4byte	0
 12727 08e4 00000000 		.4byte	0
 12728 08e8 2C010000 		.4byte	.LBB1130
 12729 08ec 32010000 		.4byte	.LBE1130
 12730 08f0 88010000 		.4byte	.LBB1141
 12731 08f4 B8010000 		.4byte	.LBE1141
 12732 08f8 00000000 		.4byte	0
 12733 08fc 00000000 		.4byte	0
 12734 0900 36010000 		.4byte	.LBB1133
 12735 0904 36010000 		.4byte	.LBE1133
 12736 0908 36010000 		.4byte	.LBB1140
 12737 090c 3C010000 		.4byte	.LBE1140
 12738 0910 00000000 		.4byte	0
 12739 0914 00000000 		.4byte	0
 12740 0918 3C010000 		.4byte	.LBB1151
 12741 091c 3C010000 		.4byte	.LBE1151
 12742 0920 3C010000 		.4byte	.LBB1159
 12743 0924 3C010000 		.4byte	.LBE1159
 12744 0928 3C010000 		.4byte	.LBB1160
 12745 092c 3C010000 		.4byte	.LBE1160
 12746 0930 3C010000 		.4byte	.LBB1161
 12747 0934 42010000 		.4byte	.LBE1161
 12748 0938 00000000 		.4byte	0
 12749 093c 00000000 		.4byte	0
 12750 0940 56010000 		.4byte	.LBB1164
 12751 0944 56010000 		.4byte	.LBE1164
ARM GAS  /tmp/ccMmeZ0f.s 			page 226


 12752 0948 56010000 		.4byte	.LBB1173
 12753 094c 56010000 		.4byte	.LBE1173
 12754 0950 56010000 		.4byte	.LBB1174
 12755 0954 5A010000 		.4byte	.LBE1174
 12756 0958 00000000 		.4byte	0
 12757 095c 00000000 		.4byte	0
 12758 0960 64010000 		.4byte	.LBB1176
 12759 0964 64010000 		.4byte	.LBE1176
 12760 0968 64010000 		.4byte	.LBB1185
 12761 096c 64010000 		.4byte	.LBE1185
 12762 0970 64010000 		.4byte	.LBB1186
 12763 0974 68010000 		.4byte	.LBE1186
 12764 0978 00000000 		.4byte	0
 12765 097c 00000000 		.4byte	0
 12766 0980 68010000 		.4byte	.LBB1187
 12767 0984 68010000 		.4byte	.LBE1187
 12768 0988 68010000 		.4byte	.LBB1195
 12769 098c 68010000 		.4byte	.LBE1195
 12770 0990 68010000 		.4byte	.LBB1196
 12771 0994 68010000 		.4byte	.LBE1196
 12772 0998 68010000 		.4byte	.LBB1197
 12773 099c 6C010000 		.4byte	.LBE1197
 12774 09a0 00000000 		.4byte	0
 12775 09a4 00000000 		.4byte	0
 12776 09a8 82010000 		.4byte	.LBB1200
 12777 09ac 82010000 		.4byte	.LBE1200
 12778 09b0 82010000 		.4byte	.LBB1209
 12779 09b4 82010000 		.4byte	.LBE1209
 12780 09b8 82010000 		.4byte	.LBB1210
 12781 09bc 86010000 		.4byte	.LBE1210
 12782 09c0 00000000 		.4byte	0
 12783 09c4 00000000 		.4byte	0
 12784 09c8 00000000 		.4byte	.LFB411
 12785 09cc 0C000000 		.4byte	.LFE411
 12786 09d0 00000000 		.4byte	.LFB408
 12787 09d4 0C000000 		.4byte	.LFE408
 12788 09d8 00000000 		.4byte	.LFB409
 12789 09dc 10000000 		.4byte	.LFE409
 12790 09e0 00000000 		.4byte	.LFB418
 12791 09e4 04000000 		.4byte	.LFE418
 12792 09e8 00000000 		.4byte	.LFB419
 12793 09ec B4000000 		.4byte	.LFE419
 12794 09f0 00000000 		.4byte	.LFB406
 12795 09f4 18000000 		.4byte	.LFE406
 12796 09f8 00000000 		.4byte	.LFB410
 12797 09fc C4000000 		.4byte	.LFE410
 12798 0a00 00000000 		.4byte	.LFB416
 12799 0a04 A0000000 		.4byte	.LFE416
 12800 0a08 00000000 		.4byte	.LFB412
 12801 0a0c FC000000 		.4byte	.LFE412
 12802 0a10 00000000 		.4byte	.LFB404
 12803 0a14 18000000 		.4byte	.LFE404
 12804 0a18 00000000 		.4byte	.LFB405
 12805 0a1c 28000000 		.4byte	.LFE405
 12806 0a20 00000000 		.4byte	.LFB414
 12807 0a24 70010000 		.4byte	.LFE414
 12808 0a28 00000000 		.4byte	.LFB407
ARM GAS  /tmp/ccMmeZ0f.s 			page 227


 12809 0a2c 2A000000 		.4byte	.LFE407
 12810 0a30 00000000 		.4byte	.LFB421
 12811 0a34 B8010000 		.4byte	.LFE421
 12812 0a38 00000000 		.4byte	0
 12813 0a3c 00000000 		.4byte	0
 12814              		.section	.debug_line,"",%progbits
 12815              	.Ldebug_line0:
 12816 0000 C5170000 		.section	.debug_str,"MS",%progbits,1
 12816      03008B03 
 12816      00000201 
 12816      FB0E0D00 
 12816      01010101 
 12817              	.LASF114:
 12818 0000 696E7374 		.ascii	"instance_offset\000"
 12818      616E6365 
 12818      5F6F6666 
 12818      73657400 
 12819              	.LASF144:
 12820 0010 72745F74 		.ascii	"rt_test_sequence_007_array\000"
 12820      6573745F 
 12820      73657175 
 12820      656E6365 
 12820      5F303037 
 12821              	.LASF101:
 12822 002b 72656164 		.ascii	"ready_list_t\000"
 12822      795F6C69 
 12822      73745F74 
 12822      00
 12823              	.LASF50:
 12824 0038 72666375 		.ascii	"rfcu\000"
 12824      00
 12825              	.LASF191:
 12826 003d 63685365 		.ascii	"chSemSignalI\000"
 12826      6D536967 
 12826      6E616C49 
 12826      00
 12827              	.LASF4:
 12828 004a 73697A65 		.ascii	"size_t\000"
 12828      5F7400
 12829              	.LASF75:
 12830 0051 64656C74 		.ascii	"delta\000"
 12830      6100
 12831              	.LASF189:
 12832 0057 63685365 		.ascii	"chSemResetWithMessage\000"
 12832      6D526573 
 12832      65745769 
 12832      74684D65 
 12832      73736167 
 12833              	.LASF18:
 12834 006d 75696E74 		.ascii	"uint64_t\000"
 12834      36345F74 
 12834      00
 12835              	.LASF5:
 12836 0076 5F5F7569 		.ascii	"__uint8_t\000"
 12836      6E74385F 
 12836      7400
 12837              	.LASF69:
ARM GAS  /tmp/ccMmeZ0f.s 			page 228


 12838 0080 70726576 		.ascii	"prev\000"
 12838      00
 12839              	.LASF76:
 12840 0085 706F7274 		.ascii	"port_intctx\000"
 12840      5F696E74 
 12840      63747800 
 12841              	.LASF60:
 12842 0091 73797374 		.ascii	"system_debug_t\000"
 12842      656D5F64 
 12842      65627567 
 12842      5F7400
 12843              	.LASF49:
 12844 00a0 636F7265 		.ascii	"core_id\000"
 12844      5F696400 
 12845              	.LASF126:
 12846 00a8 73747265 		.ascii	"stream\000"
 12846      616D00
 12847              	.LASF70:
 12848 00af 63685F70 		.ascii	"ch_priority_queue_t\000"
 12848      72696F72 
 12848      6974795F 
 12848      71756575 
 12848      655F7400 
 12849              	.LASF199:
 12850 00c3 63685365 		.ascii	"chSemSignal\000"
 12850      6D536967 
 12850      6E616C00 
 12851              	.LASF149:
 12852 00cf 72745F74 		.ascii	"rt_test_007_005_setup\000"
 12852      6573745F 
 12852      3030375F 
 12852      3030355F 
 12852      73657475 
 12853              	.LASF171:
 12854 00e5 63684253 		.ascii	"chBSemGetStateI\000"
 12854      656D4765 
 12854      74537461 
 12854      74654900 
 12855              	.LASF159:
 12856 00f5 72745F74 		.ascii	"rt_test_007_001_setup\000"
 12856      6573745F 
 12856      3030375F 
 12856      3030315F 
 12856      73657475 
 12857              	.LASF108:
 12858 010b 73656D61 		.ascii	"semaphore_t\000"
 12858      70686F72 
 12858      655F7400 
 12859              	.LASF90:
 12860 0117 65786974 		.ascii	"exitcode\000"
 12860      636F6465 
 12860      00
 12861              	.LASF52:
 12862 0120 6D61696E 		.ascii	"mainthread\000"
 12862      74687265 
 12862      616400
 12863              	.LASF93:
ARM GAS  /tmp/ccMmeZ0f.s 			page 229


 12864 012b 73656E74 		.ascii	"sentmsg\000"
 12864      6D736700 
 12865              	.LASF196:
 12866 0133 63685365 		.ascii	"chSemAddCounterI\000"
 12866      6D416464 
 12866      436F756E 
 12866      74657249 
 12866      00
 12867              	.LASF110:
 12868 0144 63685F62 		.ascii	"ch_binary_semaphore\000"
 12868      696E6172 
 12868      795F7365 
 12868      6D617068 
 12868      6F726500 
 12869              	.LASF166:
 12870 0158 72745F74 		.ascii	"rt_test_007_003_execute\000"
 12870      6573745F 
 12870      3030375F 
 12870      3030335F 
 12870      65786563 
 12871              	.LASF66:
 12872 0170 6E657874 		.ascii	"next\000"
 12872      00
 12873              	.LASF129:
 12874 0175 74656172 		.ascii	"teardown\000"
 12874      646F776E 
 12874      00
 12875              	.LASF36:
 12876 017e 72656673 		.ascii	"refs\000"
 12876      00
 12877              	.LASF124:
 12878 0183 746F6B65 		.ascii	"tokens_buffer\000"
 12878      6E735F62 
 12878      75666665 
 12878      7200
 12879              	.LASF1:
 12880 0191 6C6F6E67 		.ascii	"long long int\000"
 12880      206C6F6E 
 12880      6720696E 
 12880      7400
 12881              	.LASF3:
 12882 019f 7369676E 		.ascii	"signed char\000"
 12882      65642063 
 12882      68617200 
 12883              	.LASF133:
 12884 01ab 74657374 		.ascii	"testsequence_t\000"
 12884      73657175 
 12884      656E6365 
 12884      5F7400
 12885              	.LASF195:
 12886 01ba 63685365 		.ascii	"chSemSignalWait\000"
 12886      6D536967 
 12886      6E616C57 
 12886      61697400 
 12887              	.LASF150:
 12888 01ca 72745F74 		.ascii	"rt_test_007_004_execute\000"
 12888      6573745F 
ARM GAS  /tmp/ccMmeZ0f.s 			page 230


 12888      3030375F 
 12888      3030345F 
 12888      65786563 
 12889              	.LASF74:
 12890 01e2 63685F64 		.ascii	"ch_delta_list\000"
 12890      656C7461 
 12890      5F6C6973 
 12890      7400
 12891              	.LASF14:
 12892 01f0 6C6F6E67 		.ascii	"long long unsigned int\000"
 12892      206C6F6E 
 12892      6720756E 
 12892      7369676E 
 12892      65642069 
 12893              	.LASF201:
 12894 0207 74657374 		.ascii	"test_emit_token\000"
 12894      5F656D69 
 12894      745F746F 
 12894      6B656E00 
 12895              	.LASF183:
 12896 0217 62617365 		.ascii	"basePri\000"
 12896      50726900 
 12897              	.LASF47:
 12898 021f 76746C69 		.ascii	"vtlist\000"
 12898      737400
 12899              	.LASF180:
 12900 0226 706F7274 		.ascii	"port_unlock\000"
 12900      5F756E6C 
 12900      6F636B00 
 12901              	.LASF198:
 12902 0232 5F5F7465 		.ascii	"__test_assert_sequence\000"
 12902      73745F61 
 12902      73736572 
 12902      745F7365 
 12902      7175656E 
 12903              	.LASF167:
 12904 0249 63684253 		.ascii	"chBSemSignal\000"
 12904      656D5369 
 12904      676E616C 
 12904      00
 12905              	.LASF127:
 12906 0256 63685F74 		.ascii	"ch_test_context_t\000"
 12906      6573745F 
 12906      636F6E74 
 12906      6578745F 
 12906      7400
 12907              	.LASF34:
 12908 0268 73746174 		.ascii	"state\000"
 12908      6500
 12909              	.LASF10:
 12910 026e 6C6F6E67 		.ascii	"long int\000"
 12910      20696E74 
 12910      00
 12911              	.LASF158:
 12912 0277 72745F74 		.ascii	"rt_test_007_001_teardown\000"
 12912      6573745F 
 12912      3030375F 
ARM GAS  /tmp/ccMmeZ0f.s 			page 231


 12912      3030315F 
 12912      74656172 
 12913              	.LASF120:
 12914 0290 676C6F62 		.ascii	"global_fail\000"
 12914      616C5F66 
 12914      61696C00 
 12915              	.LASF204:
 12916 029c 5F5F7465 		.ascii	"__test_assert_time_window\000"
 12916      73745F61 
 12916      73736572 
 12916      745F7469 
 12916      6D655F77 
 12917              	.LASF22:
 12918 02b6 74737461 		.ascii	"tstate_t\000"
 12918      74655F74 
 12918      00
 12919              	.LASF54:
 12920 02bf 63685F72 		.ascii	"ch_rfcu\000"
 12920      66637500 
 12921              	.LASF68:
 12922 02c7 63685F71 		.ascii	"ch_queue\000"
 12922      75657565 
 12922      00
 12923              	.LASF125:
 12924 02d0 70757463 		.ascii	"putchar\000"
 12924      68617200 
 12925              	.LASF134:
 12926 02d8 63687465 		.ascii	"chtest\000"
 12926      737400
 12927              	.LASF73:
 12928 02df 63685F64 		.ascii	"ch_delta_list_t\000"
 12928      656C7461 
 12928      5F6C6973 
 12928      745F7400 
 12929              	.LASF123:
 12930 02ef 746F6B70 		.ascii	"tokp\000"
 12930      00
 12931              	.LASF83:
 12932 02f4 63685F72 		.ascii	"ch_registry\000"
 12932      65676973 
 12932      74727900 
 12933              	.LASF153:
 12934 0300 72745F74 		.ascii	"rt_test_007_003_setup\000"
 12934      6573745F 
 12934      3030375F 
 12934      3030335F 
 12934      73657475 
 12935              	.LASF187:
 12936 0316 696E7465 		.ascii	"interval\000"
 12936      7276616C 
 12936      00
 12937              	.LASF192:
 12938 031f 63685363 		.ascii	"chSchRescheduleS\000"
 12938      68526573 
 12938      63686564 
 12938      756C6553 
 12938      00
ARM GAS  /tmp/ccMmeZ0f.s 			page 232


 12939              	.LASF11:
 12940 0330 5F5F7569 		.ascii	"__uint32_t\000"
 12940      6E743332 
 12940      5F7400
 12941              	.LASF55:
 12942 033b 6D61736B 		.ascii	"mask\000"
 12942      00
 12943              	.LASF137:
 12944 0340 73656D31 		.ascii	"sem1\000"
 12944      00
 12945              	.LASF170:
 12946 0345 74616B65 		.ascii	"taken\000"
 12946      6E00
 12947              	.LASF165:
 12948 034b 6F73616C 		.ascii	"osalSysLock\000"
 12948      5379734C 
 12948      6F636B00 
 12949              	.LASF168:
 12950 0357 63684253 		.ascii	"chBSemSignalI\000"
 12950      656D5369 
 12950      676E616C 
 12950      4900
 12951              	.LASF103:
 12952 0365 6D61696E 		.ascii	"mainthread_base\000"
 12952      74687265 
 12952      61645F62 
 12952      61736500 
 12953              	.LASF109:
 12954 0375 6D757465 		.ascii	"mutex_t\000"
 12954      785F7400 
 12955              	.LASF175:
 12956 037d 63685365 		.ascii	"chSemReset\000"
 12956      6D526573 
 12956      657400
 12957              	.LASF117:
 12958 0388 42617365 		.ascii	"BaseSequentialStream\000"
 12958      53657175 
 12958      656E7469 
 12958      616C5374 
 12958      7265616D 
 12959              	.LASF62:
 12960 039d 73797369 		.ascii	"sysinterval_t\000"
 12960      6E746572 
 12960      76616C5F 
 12960      7400
 12961              	.LASF188:
 12962 03ab 63685365 		.ascii	"chSemObjectInit\000"
 12962      6D4F626A 
 12962      65637449 
 12962      6E697400 
 12963              	.LASF27:
 12964 03bb 636E745F 		.ascii	"cnt_t\000"
 12964      7400
 12965              	.LASF38:
 12966 03c1 6D736771 		.ascii	"msgqueue\000"
 12966      75657565 
 12966      00
ARM GAS  /tmp/ccMmeZ0f.s 			page 233


 12967              	.LASF0:
 12968 03ca 756E7369 		.ascii	"unsigned int\000"
 12968      676E6564 
 12968      20696E74 
 12968      00
 12969              	.LASF202:
 12970 03d7 63685365 		.ascii	"chSemWaitTimeout\000"
 12970      6D576169 
 12970      7454696D 
 12970      656F7574 
 12970      00
 12971              	.LASF94:
 12972 03e8 77747365 		.ascii	"wtsemp\000"
 12972      6D7000
 12973              	.LASF92:
 12974 03ef 77747472 		.ascii	"wttrp\000"
 12974      7000
 12975              	.LASF30:
 12976 03f5 72717565 		.ascii	"rqueue\000"
 12976      756500
 12977              	.LASF67:
 12978 03fc 63685F71 		.ascii	"ch_queue_t\000"
 12978      75657565 
 12978      5F7400
 12979              	.LASF63:
 12980 0407 74696D65 		.ascii	"time_conv_t\000"
 12980      5F636F6E 
 12980      765F7400 
 12981              	.LASF32:
 12982 0413 6E616D65 		.ascii	"name\000"
 12982      00
 12983              	.LASF84:
 12984 0418 71756575 		.ascii	"queue\000"
 12984      6500
 12985              	.LASF42:
 12986 041e 6D706F6F 		.ascii	"mpool\000"
 12986      6C00
 12987              	.LASF8:
 12988 0424 73686F72 		.ascii	"short unsigned int\000"
 12988      7420756E 
 12988      7369676E 
 12988      65642069 
 12988      6E7400
 12989              	.LASF64:
 12990 0437 63685F6C 		.ascii	"ch_list_t\000"
 12990      6973745F 
 12990      7400
 12991              	.LASF44:
 12992 0441 63685F74 		.ascii	"ch_thread\000"
 12992      68726561 
 12992      6400
 12993              	.LASF145:
 12994 044b 6273656D 		.ascii	"bsem\000"
 12994      00
 12995              	.LASF25:
 12996 0450 6D73675F 		.ascii	"msg_t\000"
 12996      7400
ARM GAS  /tmp/ccMmeZ0f.s 			page 234


 12997              	.LASF39:
 12998 0456 6570656E 		.ascii	"epending\000"
 12998      64696E67 
 12998      00
 12999              	.LASF147:
 13000 045f 72745F74 		.ascii	"rt_test_007_005_execute\000"
 13000      6573745F 
 13000      3030375F 
 13000      3030355F 
 13000      65786563 
 13001              	.LASF135:
 13002 0477 72745F74 		.ascii	"rt_test_sequence_007\000"
 13002      6573745F 
 13002      73657175 
 13002      656E6365 
 13002      5F303037 
 13003              	.LASF21:
 13004 048c 746D6F64 		.ascii	"tmode_t\000"
 13004      655F7400 
 13005              	.LASF186:
 13006 0494 73797374 		.ascii	"systime\000"
 13006      696D6500 
 13007              	.LASF146:
 13008 049c 72745F74 		.ascii	"rt_test_007_006_execute\000"
 13008      6573745F 
 13008      3030375F 
 13008      3030365F 
 13008      65786563 
 13009              	.LASF65:
 13010 04b4 63685F6C 		.ascii	"ch_list\000"
 13010      69737400 
 13011              	.LASF99:
 13012 04bc 63685F72 		.ascii	"ch_ready_list\000"
 13012      65616479 
 13012      5F6C6973 
 13012      7400
 13013              	.LASF26:
 13014 04ca 6576656E 		.ascii	"eventmask_t\000"
 13014      746D6173 
 13014      6B5F7400 
 13015              	.LASF7:
 13016 04d6 73686F72 		.ascii	"short int\000"
 13016      7420696E 
 13016      7400
 13017              	.LASF82:
 13018 04e0 76697274 		.ascii	"virtual_timers_list_t\000"
 13018      75616C5F 
 13018      74696D65 
 13018      72735F6C 
 13018      6973745F 
 13019              	.LASF20:
 13020 04f6 73746B61 		.ascii	"stkalign_t\000"
 13020      6C69676E 
 13020      5F7400
 13021              	.LASF131:
 13022 0501 74657374 		.ascii	"testcase_t\000"
 13022      63617365 
ARM GAS  /tmp/ccMmeZ0f.s 			page 235


 13022      5F7400
 13023              	.LASF194:
 13024 050c 63685468 		.ascii	"chThdCreateStatic\000"
 13024      64437265 
 13024      61746553 
 13024      74617469 
 13024      6300
 13025              	.LASF105:
 13026 051e 69646C65 		.ascii	"idlethread_base\000"
 13026      74687265 
 13026      61645F62 
 13026      61736500 
 13027              	.LASF81:
 13028 052e 6C617374 		.ascii	"laststamp\000"
 13028      7374616D 
 13028      7000
 13029              	.LASF115:
 13030 0538 77726974 		.ascii	"write\000"
 13030      6500
 13031              	.LASF41:
 13032 053e 7265616C 		.ascii	"realprio\000"
 13032      7072696F 
 13032      00
 13033              	.LASF53:
 13034 0547 72666375 		.ascii	"rfcu_mask_t\000"
 13034      5F6D6173 
 13034      6B5F7400 
 13035              	.LASF118:
 13036 0553 74657374 		.ascii	"test_putchar_t\000"
 13036      5F707574 
 13036      63686172 
 13036      5F7400
 13037              	.LASF86:
 13038 0562 74687265 		.ascii	"thread_reference_t\000"
 13038      61645F72 
 13038      65666572 
 13038      656E6365 
 13038      5F7400
 13039              	.LASF78:
 13040 0575 63685F76 		.ascii	"ch_virtual_timers_list\000"
 13040      69727475 
 13040      616C5F74 
 13040      696D6572 
 13040      735F6C69 
 13041              	.LASF2:
 13042 058c 6C6F6E67 		.ascii	"long double\000"
 13042      20646F75 
 13042      626C6500 
 13043              	.LASF119:
 13044 0598 63757272 		.ascii	"current_step\000"
 13044      656E745F 
 13044      73746570 
 13044      00
 13045              	.LASF197:
 13046 05a5 74657374 		.ascii	"test_wait_threads\000"
 13046      5F776169 
 13046      745F7468 
ARM GAS  /tmp/ccMmeZ0f.s 			page 236


 13046      72656164 
 13046      7300
 13047              	.LASF163:
 13048 05b7 74687265 		.ascii	"thread1\000"
 13048      61643100 
 13049              	.LASF162:
 13050 05bf 74687265 		.ascii	"thread2\000"
 13050      61643200 
 13051              	.LASF161:
 13052 05c7 74687265 		.ascii	"thread3\000"
 13052      61643300 
 13053              	.LASF160:
 13054 05cf 74687265 		.ascii	"thread4\000"
 13054      61643400 
 13055              	.LASF102:
 13056 05d7 63685F6F 		.ascii	"ch_os_instance_config\000"
 13056      735F696E 
 13056      7374616E 
 13056      63655F63 
 13056      6F6E6669 
 13057              	.LASF77:
 13058 05ed 706F7274 		.ascii	"port_context\000"
 13058      5F636F6E 
 13058      74657874 
 13058      00
 13059              	.LASF176:
 13060 05fa 63685468 		.ascii	"chThdGetPriorityX\000"
 13060      64476574 
 13060      5072696F 
 13060      72697479 
 13060      5800
 13061              	.LASF128:
 13062 060c 73657475 		.ascii	"setup\000"
 13062      7000
 13063              	.LASF72:
 13064 0612 7072696F 		.ascii	"prio\000"
 13064      00
 13065              	.LASF151:
 13066 0617 72745F74 		.ascii	"rt_test_007_004_setup\000"
 13066      6573745F 
 13066      3030375F 
 13066      3030345F 
 13066      73657475 
 13067              	.LASF100:
 13068 062d 63757272 		.ascii	"current\000"
 13068      656E7400 
 13069              	.LASF185:
 13070 0635 63685469 		.ascii	"chTimeAddX\000"
 13070      6D654164 
 13070      645800
 13071              	.LASF121:
 13072 0640 6C6F6361 		.ascii	"local_fail\000"
 13072      6C5F6661 
 13072      696C00
 13073              	.LASF13:
 13074 064b 5F5F7569 		.ascii	"__uint64_t\000"
 13074      6E743634 
ARM GAS  /tmp/ccMmeZ0f.s 			page 237


 13074      5F7400
 13075              	.LASF116:
 13076 0656 72656164 		.ascii	"read\000"
 13076      00
 13077              	.LASF111:
 13078 065b 62696E61 		.ascii	"binary_semaphore_t\000"
 13078      72795F73 
 13078      656D6170 
 13078      686F7265 
 13078      5F7400
 13079              	.LASF28:
 13080 066e 636F7265 		.ascii	"core_id_t\000"
 13080      5F69645F 
 13080      7400
 13081              	.LASF23:
 13082 0678 74726566 		.ascii	"trefs_t\000"
 13082      735F7400 
 13083              	.LASF130:
 13084 0680 65786563 		.ascii	"execute\000"
 13084      75746500 
 13085              	.LASF40:
 13086 0688 6D74786C 		.ascii	"mtxlist\000"
 13086      69737400 
 13087              	.LASF24:
 13088 0690 74707269 		.ascii	"tprio_t\000"
 13088      6F5F7400 
 13089              	.LASF57:
 13090 0698 63685F73 		.ascii	"ch_system_debug\000"
 13090      79737465 
 13090      6D5F6465 
 13090      62756700 
 13091              	.LASF112:
 13092 06a8 5F426F6F 		.ascii	"_Bool\000"
 13092      6C00
 13093              	.LASF16:
 13094 06ae 696E7433 		.ascii	"int32_t\000"
 13094      325F7400 
 13095              	.LASF6:
 13096 06b6 756E7369 		.ascii	"unsigned char\000"
 13096      676E6564 
 13096      20636861 
 13096      7200
 13097              	.LASF203:
 13098 06c4 74657374 		.ascii	"test_wait_tick\000"
 13098      5F776169 
 13098      745F7469 
 13098      636B00
 13099              	.LASF56:
 13100 06d3 72666375 		.ascii	"rfcu_t\000"
 13100      5F7400
 13101              	.LASF193:
 13102 06da 5F5F7465 		.ascii	"__test_assert\000"
 13102      73745F61 
 13102      73736572 
 13102      7400
 13103              	.LASF80:
 13104 06e8 6C617374 		.ascii	"lasttime\000"
ARM GAS  /tmp/ccMmeZ0f.s 			page 238


 13104      74696D65 
 13104      00
 13105              	.LASF156:
 13106 06f1 72745F74 		.ascii	"rt_test_007_002_setup\000"
 13106      6573745F 
 13106      3030375F 
 13106      3030325F 
 13106      73657475 
 13107              	.LASF136:
 13108 0707 74687265 		.ascii	"threads\000"
 13108      61647300 
 13109              	.LASF37:
 13110 070f 77616974 		.ascii	"waiting\000"
 13110      696E6700 
 13111              	.LASF96:
 13112 0717 65776D61 		.ascii	"ewmask\000"
 13112      736B00
 13113              	.LASF113:
 13114 071e 42617365 		.ascii	"BaseSequentialStreamVMT\000"
 13114      53657175 
 13114      656E7469 
 13114      616C5374 
 13114      7265616D 
 13115              	.LASF208:
 13116 0736 5F5F6675 		.ascii	"__func__\000"
 13116      6E635F5F 
 13116      00
 13117              	.LASF179:
 13118 073f 63685379 		.ascii	"chSysLock\000"
 13118      734C6F63 
 13118      6B00
 13119              	.LASF164:
 13120 0749 6F73616C 		.ascii	"osalSysUnlock\000"
 13120      53797355 
 13120      6E6C6F63 
 13120      6B00
 13121              	.LASF89:
 13122 0757 7264796D 		.ascii	"rdymsg\000"
 13122      736700
 13123              	.LASF97:
 13124 075e 63685F73 		.ascii	"ch_semaphore\000"
 13124      656D6170 
 13124      686F7265 
 13124      00
 13125              	.LASF85:
 13126 076b 72656769 		.ascii	"registry_t\000"
 13126      73747279 
 13126      5F7400
 13127              	.LASF17:
 13128 0776 75696E74 		.ascii	"uint32_t\000"
 13128      33325F74 
 13128      00
 13129              	.LASF95:
 13130 077f 77746D74 		.ascii	"wtmtxp\000"
 13130      787000
 13131              	.LASF19:
 13132 0786 706F7274 		.ascii	"port_stkalign_t\000"
ARM GAS  /tmp/ccMmeZ0f.s 			page 239


 13132      5F73746B 
 13132      616C6967 
 13132      6E5F7400 
 13133              	.LASF31:
 13134 0796 6F776E65 		.ascii	"owner\000"
 13134      7200
 13135              	.LASF12:
 13136 079c 6C6F6E67 		.ascii	"long unsigned int\000"
 13136      20756E73 
 13136      69676E65 
 13136      6420696E 
 13136      7400
 13137              	.LASF33:
 13138 07ae 77616261 		.ascii	"wabase\000"
 13138      736500
 13139              	.LASF59:
 13140 07b5 63686172 		.ascii	"char\000"
 13140      00
 13141              	.LASF206:
 13142 07ba 2E2E2F43 		.ascii	"../ChibiOS/test/rt/source/test/rt_test_sequence_007"
 13142      68696269 
 13142      4F532F74 
 13142      6573742F 
 13142      72742F73 
 13143 07ed 2E6300   		.ascii	".c\000"
 13144              	.LASF51:
 13145 07f0 636F6E66 		.ascii	"config\000"
 13145      696700
 13146              	.LASF172:
 13147 07f7 63684253 		.ascii	"chBSemWait\000"
 13147      656D5761 
 13147      697400
 13148              	.LASF29:
 13149 0802 74687265 		.ascii	"thread_t\000"
 13149      61645F74 
 13149      00
 13150              	.LASF79:
 13151 080b 646C6973 		.ascii	"dlist\000"
 13151      7400
 13152              	.LASF61:
 13153 0811 73797374 		.ascii	"systime_t\000"
 13153      696D655F 
 13153      7400
 13154              	.LASF9:
 13155 081b 5F5F696E 		.ascii	"__int32_t\000"
 13155      7433325F 
 13155      7400
 13156              	.LASF174:
 13157 0825 63685365 		.ascii	"chSemGetCounterI\000"
 13157      6D476574 
 13157      436F756E 
 13157      74657249 
 13157      00
 13158              	.LASF182:
 13159 0836 5F5F7365 		.ascii	"__set_BASEPRI\000"
 13159      745F4241 
 13159      53455052 
ARM GAS  /tmp/ccMmeZ0f.s 			page 240


 13159      4900
 13160              	.LASF190:
 13161 0844 63685365 		.ascii	"chSemWait\000"
 13161      6D576169 
 13161      7400
 13162              	.LASF58:
 13163 084e 70616E69 		.ascii	"panic_msg\000"
 13163      635F6D73 
 13163      6700
 13164              	.LASF88:
 13165 0858 70717565 		.ascii	"pqueue\000"
 13165      756500
 13166              	.LASF45:
 13167 085f 63685F6F 		.ascii	"ch_os_instance\000"
 13167      735F696E 
 13167      7374616E 
 13167      636500
 13168              	.LASF43:
 13169 086e 6F735F69 		.ascii	"os_instance_t\000"
 13169      6E737461 
 13169      6E63655F 
 13169      7400
 13170              	.LASF184:
 13171 087c 63685F71 		.ascii	"ch_queue_isempty\000"
 13171      75657565 
 13171      5F697365 
 13171      6D707479 
 13171      00
 13172              	.LASF48:
 13173 088d 7265676C 		.ascii	"reglist\000"
 13173      69737400 
 13174              	.LASF157:
 13175 0895 72745F74 		.ascii	"rt_test_007_001_execute\000"
 13175      6573745F 
 13175      3030375F 
 13175      3030315F 
 13175      65786563 
 13176              	.LASF122:
 13177 08ad 6661696C 		.ascii	"failure_message\000"
 13177      7572655F 
 13177      6D657373 
 13177      61676500 
 13178              	.LASF71:
 13179 08bd 63685F70 		.ascii	"ch_priority_queue\000"
 13179      72696F72 
 13179      6974795F 
 13179      71756575 
 13179      6500
 13180              	.LASF207:
 13181 08cf 2F686F6D 		.ascii	"/home/bhimebau/forge/analog_in_out/application\000"
 13181      652F6268 
 13181      696D6562 
 13181      61752F66 
 13181      6F726765 
 13182              	.LASF104:
 13183 08fe 6D61696E 		.ascii	"mainthread_end\000"
 13183      74687265 
ARM GAS  /tmp/ccMmeZ0f.s 			page 241


 13183      61645F65 
 13183      6E6400
 13184              	.LASF152:
 13185 090d 74617267 		.ascii	"target_time\000"
 13185      65745F74 
 13185      696D6500 
 13186              	.LASF107:
 13187 0919 6F735F69 		.ascii	"os_instance_config_t\000"
 13187      6E737461 
 13187      6E63655F 
 13187      636F6E66 
 13187      69675F74 
 13188              	.LASF200:
 13189 092e 63685468 		.ascii	"chThdSleep\000"
 13189      64536C65 
 13189      657000
 13190              	.LASF98:
 13191 0939 63685F6D 		.ascii	"ch_mutex\000"
 13191      75746578 
 13191      00
 13192              	.LASF46:
 13193 0942 726C6973 		.ascii	"rlist\000"
 13193      7400
 13194              	.LASF177:
 13195 0948 63685468 		.ascii	"chThdGetSelfX\000"
 13195      64476574 
 13195      53656C66 
 13195      5800
 13196              	.LASF15:
 13197 0956 75696E74 		.ascii	"uint8_t\000"
 13197      385F7400 
 13198              	.LASF35:
 13199 095e 666C6167 		.ascii	"flags\000"
 13199      7300
 13200              	.LASF138:
 13201 0964 72745F74 		.ascii	"rt_test_007_001\000"
 13201      6573745F 
 13201      3030375F 
 13201      30303100 
 13202              	.LASF139:
 13203 0974 72745F74 		.ascii	"rt_test_007_002\000"
 13203      6573745F 
 13203      3030375F 
 13203      30303200 
 13204              	.LASF140:
 13205 0984 72745F74 		.ascii	"rt_test_007_003\000"
 13205      6573745F 
 13205      3030375F 
 13205      30303300 
 13206              	.LASF141:
 13207 0994 72745F74 		.ascii	"rt_test_007_004\000"
 13207      6573745F 
 13207      3030375F 
 13207      30303400 
 13208              	.LASF142:
 13209 09a4 72745F74 		.ascii	"rt_test_007_005\000"
 13209      6573745F 
ARM GAS  /tmp/ccMmeZ0f.s 			page 242


 13209      3030375F 
 13209      30303500 
 13210              	.LASF143:
 13211 09b4 72745F74 		.ascii	"rt_test_007_006\000"
 13211      6573745F 
 13211      3030375F 
 13211      30303600 
 13212              	.LASF91:
 13213 09c4 77746F62 		.ascii	"wtobjp\000"
 13213      6A7000
 13214              	.LASF173:
 13215 09cb 63684253 		.ascii	"chBSemObjectInit\000"
 13215      656D4F62 
 13215      6A656374 
 13215      496E6974 
 13215      00
 13216              	.LASF205:
 13217 09dc 474E5520 		.ascii	"GNU C17 10.3.1 20210621 (release) -mcpu=cortex-m4 -"
 13217      43313720 
 13217      31302E33 
 13217      2E312032 
 13217      30323130 
 13218 0a0f 6D746875 		.ascii	"mthumb -mfloat-abi=soft -march=armv7e-m -ggdb -O2 -"
 13218      6D62202D 
 13218      6D666C6F 
 13218      61742D61 
 13218      62693D73 
 13219 0a42 666F6D69 		.ascii	"fomit-frame-pointer -falign-functions=16 -ffunction"
 13219      742D6672 
 13219      616D652D 
 13219      706F696E 
 13219      74657220 
 13220 0a75 2D736563 		.ascii	"-sections -fdata-sections -fno-common\000"
 13220      74696F6E 
 13220      73202D66 
 13220      64617461 
 13220      2D736563 
 13221              	.LASF178:
 13222 0a9b 63685379 		.ascii	"chSysUnlock\000"
 13222      73556E6C 
 13222      6F636B00 
 13223              	.LASF169:
 13224 0aa7 63684253 		.ascii	"chBSemReset\000"
 13224      656D5265 
 13224      73657400 
 13225              	.LASF87:
 13226 0ab3 6C697374 		.ascii	"list\000"
 13226      00
 13227              	.LASF181:
 13228 0ab8 706F7274 		.ascii	"port_lock\000"
 13228      5F6C6F63 
 13228      6B00
 13229              	.LASF106:
 13230 0ac2 69646C65 		.ascii	"idlethread_end\000"
 13230      74687265 
 13230      61645F65 
 13230      6E6400
ARM GAS  /tmp/ccMmeZ0f.s 			page 243


 13231              	.LASF154:
 13232 0ad1 72745F74 		.ascii	"rt_test_007_002_execute\000"
 13232      6573745F 
 13232      3030375F 
 13232      3030325F 
 13232      65786563 
 13233              	.LASF132:
 13234 0ae9 63617365 		.ascii	"cases\000"
 13234      7300
 13235              	.LASF155:
 13236 0aef 72745F74 		.ascii	"rt_test_007_005_teardown\000"
 13236      6573745F 
 13236      3030375F 
 13236      3030355F 
 13236      74656172 
 13237              	.LASF148:
 13238 0b08 72745F74 		.ascii	"rt_test_007_006_teardown\000"
 13238      6573745F 
 13238      3030375F 
 13238      3030365F 
 13238      74656172 
 13239              		.ident	"GCC: (GNU Arm Embedded Toolchain 10.3-2021.07) 10.3.1 20210621 (release)"
ARM GAS  /tmp/ccMmeZ0f.s 			page 244


DEFINED SYMBOLS
                            *ABS*:0000000000000000 rt_test_sequence_007.c
     /tmp/ccMmeZ0f.s:16     .text.rt_test_007_002_setup:0000000000000000 $t
     /tmp/ccMmeZ0f.s:24     .text.rt_test_007_002_setup:0000000000000000 rt_test_007_002_setup
     /tmp/ccMmeZ0f.s:40     .text.rt_test_007_002_setup:0000000000000008 $d
     /tmp/ccMmeZ0f.s:45     .text.rt_test_007_001_setup:0000000000000000 $t
     /tmp/ccMmeZ0f.s:52     .text.rt_test_007_001_setup:0000000000000000 rt_test_007_001_setup
     /tmp/ccMmeZ0f.s:67     .text.rt_test_007_001_setup:0000000000000008 $d
     /tmp/ccMmeZ0f.s:72     .text.rt_test_007_001_teardown:0000000000000000 $t
     /tmp/ccMmeZ0f.s:79     .text.rt_test_007_001_teardown:0000000000000000 rt_test_007_001_teardown
     /tmp/ccMmeZ0f.s:102    .text.rt_test_007_001_teardown:000000000000000c $d
     /tmp/ccMmeZ0f.s:109    .text.rt_test_007_005_teardown:0000000000000000 $t
     /tmp/ccMmeZ0f.s:116    .text.rt_test_007_005_teardown:0000000000000000 rt_test_007_005_teardown
     /tmp/ccMmeZ0f.s:130    .rodata.rt_test_007_005_execute.str1.4:0000000000000000 $d
     /tmp/ccMmeZ0f.s:137    .text.rt_test_007_005_execute:0000000000000000 $t
     /tmp/ccMmeZ0f.s:144    .text.rt_test_007_005_execute:0000000000000000 rt_test_007_005_execute
     /tmp/ccMmeZ0f.s:326    .text.rt_test_007_005_execute:0000000000000094 $d
     /tmp/ccMmeZ0f.s:345    .text.thread3:0000000000000000 thread3
     /tmp/ccMmeZ0f.s:338    .text.thread3:0000000000000000 $t
     /tmp/ccMmeZ0f.s:379    .text.thread3:0000000000000014 $d
     /tmp/ccMmeZ0f.s:384    .rodata.rt_test_007_001_execute.str1.4:0000000000000000 $d
     /tmp/ccMmeZ0f.s:391    .text.rt_test_007_001_execute:0000000000000000 $t
     /tmp/ccMmeZ0f.s:398    .text.rt_test_007_001_execute:0000000000000000 rt_test_007_001_execute
     /tmp/ccMmeZ0f.s:1040   .text.rt_test_007_001_execute:00000000000000b4 $d
     /tmp/ccMmeZ0f.s:1048   .rodata.rt_test_007_004_execute.str1.4:0000000000000000 $d
     /tmp/ccMmeZ0f.s:1058   .text.rt_test_007_004_execute:0000000000000000 $t
     /tmp/ccMmeZ0f.s:1065   .text.rt_test_007_004_execute:0000000000000000 rt_test_007_004_execute
     /tmp/ccMmeZ0f.s:1433   .text.rt_test_007_004_execute:000000000000007c $d
     /tmp/ccMmeZ0f.s:1759   .text.thread1:0000000000000000 thread1
     /tmp/ccMmeZ0f.s:1446   .rodata.rt_test_007_002_execute.str1.4:0000000000000000 $d
     /tmp/ccMmeZ0f.s:1462   .text.rt_test_007_002_execute:0000000000000000 $t
     /tmp/ccMmeZ0f.s:1469   .text.rt_test_007_002_execute:0000000000000000 rt_test_007_002_execute
     /tmp/ccMmeZ0f.s:1735   .text.rt_test_007_002_execute:00000000000000c8 $d
     /tmp/ccMmeZ0f.s:1752   .text.thread1:0000000000000000 $t
     /tmp/ccMmeZ0f.s:1794   .text.thread1:0000000000000014 $d
     /tmp/ccMmeZ0f.s:1799   .text.thread2:0000000000000000 $t
     /tmp/ccMmeZ0f.s:1806   .text.thread2:0000000000000000 thread2
     /tmp/ccMmeZ0f.s:1913   .text.thread2:0000000000000024 $d
     /tmp/ccMmeZ0f.s:1918   .rodata.rt_test_007_003_execute.str1.4:0000000000000000 $d
     /tmp/ccMmeZ0f.s:1925   .text.rt_test_007_003_execute:0000000000000000 $t
     /tmp/ccMmeZ0f.s:1932   .text.rt_test_007_003_execute:0000000000000000 rt_test_007_003_execute
     /tmp/ccMmeZ0f.s:2285   .text.rt_test_007_003_execute:0000000000000140 $d
     /tmp/ccMmeZ0f.s:2303   .text.rt_test_007_006_teardown:0000000000000000 $t
     /tmp/ccMmeZ0f.s:2310   .text.rt_test_007_006_teardown:0000000000000000 rt_test_007_006_teardown
     /tmp/ccMmeZ0f.s:2321   .text.thread4:0000000000000000 $t
     /tmp/ccMmeZ0f.s:2328   .text.thread4:0000000000000000 thread4
     /tmp/ccMmeZ0f.s:2537   .text.rt_test_007_003_setup:0000000000000000 $t
     /tmp/ccMmeZ0f.s:2544   .text.rt_test_007_003_setup:0000000000000000 rt_test_007_003_setup
     /tmp/ccMmeZ0f.s:2556   .text.rt_test_007_003_setup:0000000000000008 $d
     /tmp/ccMmeZ0f.s:2561   .text.rt_test_007_004_setup:0000000000000000 $t
     /tmp/ccMmeZ0f.s:2568   .text.rt_test_007_004_setup:0000000000000000 rt_test_007_004_setup
     /tmp/ccMmeZ0f.s:2580   .text.rt_test_007_004_setup:0000000000000008 $d
     /tmp/ccMmeZ0f.s:2585   .text.rt_test_007_005_setup:0000000000000000 $t
     /tmp/ccMmeZ0f.s:2592   .text.rt_test_007_005_setup:0000000000000000 rt_test_007_005_setup
     /tmp/ccMmeZ0f.s:2604   .text.rt_test_007_005_setup:0000000000000008 $d
     /tmp/ccMmeZ0f.s:2609   .rodata.rt_test_007_006_execute.str1.4:0000000000000000 $d
     /tmp/ccMmeZ0f.s:2625   .text.rt_test_007_006_execute:0000000000000000 $t
ARM GAS  /tmp/ccMmeZ0f.s 			page 245


     /tmp/ccMmeZ0f.s:2632   .text.rt_test_007_006_execute:0000000000000000 rt_test_007_006_execute
     /tmp/ccMmeZ0f.s:4132   .text.rt_test_007_006_execute:0000000000000190 $d
     /tmp/ccMmeZ0f.s:4238   .rodata.rt_test_sequence_007:0000000000000000 rt_test_sequence_007
     /tmp/ccMmeZ0f.s:4151   .rodata.str1.4:0000000000000000 $d
     /tmp/ccMmeZ0f.s:4245   .rodata.rt_test_sequence_007_array:0000000000000000 rt_test_sequence_007_array
     /tmp/ccMmeZ0f.s:4174   .bss.sem1:0000000000000000 $d
     /tmp/ccMmeZ0f.s:4178   .bss.sem1:0000000000000000 sem1
     /tmp/ccMmeZ0f.s:4181   .rodata.rt_test_007_001:0000000000000000 $d
     /tmp/ccMmeZ0f.s:4184   .rodata.rt_test_007_001:0000000000000000 rt_test_007_001
     /tmp/ccMmeZ0f.s:4190   .rodata.rt_test_007_002:0000000000000000 $d
     /tmp/ccMmeZ0f.s:4193   .rodata.rt_test_007_002:0000000000000000 rt_test_007_002
     /tmp/ccMmeZ0f.s:4199   .rodata.rt_test_007_003:0000000000000000 $d
     /tmp/ccMmeZ0f.s:4202   .rodata.rt_test_007_003:0000000000000000 rt_test_007_003
     /tmp/ccMmeZ0f.s:4208   .rodata.rt_test_007_004:0000000000000000 $d
     /tmp/ccMmeZ0f.s:4211   .rodata.rt_test_007_004:0000000000000000 rt_test_007_004
     /tmp/ccMmeZ0f.s:4217   .rodata.rt_test_007_005:0000000000000000 $d
     /tmp/ccMmeZ0f.s:4220   .rodata.rt_test_007_005:0000000000000000 rt_test_007_005
     /tmp/ccMmeZ0f.s:4226   .rodata.rt_test_007_006:0000000000000000 $d
     /tmp/ccMmeZ0f.s:4229   .rodata.rt_test_007_006:0000000000000000 rt_test_007_006
     /tmp/ccMmeZ0f.s:4235   .rodata.rt_test_sequence_007:0000000000000000 $d
     /tmp/ccMmeZ0f.s:4242   .rodata.rt_test_sequence_007_array:0000000000000000 $d

UNDEFINED SYMBOLS
chSemObjectInit
chSemResetWithMessage
test_wait_threads
chThdCreateStatic
chSemSignalWait
__test_assert
ch0
wa
chtest
threads
chSemWait
chSemSignal
chSemAddCounterI
chSchRescheduleS
__test_assert_sequence
test_emit_token
chThdSleep
chSemSignalI
chSemWaitTimeout
test_wait_tick
__test_assert_time_window
