ARM GAS  /tmp/ccuqlnP4.s 			page 1


   1              		.cpu cortex-m4
   2              		.eabi_attribute 20, 1
   3              		.eabi_attribute 21, 1
   4              		.eabi_attribute 23, 3
   5              		.eabi_attribute 24, 1
   6              		.eabi_attribute 25, 1
   7              		.eabi_attribute 26, 1
   8              		.eabi_attribute 30, 2
   9              		.eabi_attribute 34, 1
  10              		.eabi_attribute 18, 4
  11              		.file	"rt_test_sequence_012.c"
  12              		.text
  13              	.Ltext0:
  14              		.cfi_sections	.debug_frame
  15              		.section	.text.tmo,"ax",%progbits
  16              		.align	1
  17              		.p2align 4,,15
  18              		.arch armv7e-m
  19              		.syntax unified
  20              		.thumb
  21              		.thumb_func
  22              		.fpu softvfp
  23              		.type	tmo, %function
  24              	tmo:
  25              	.LVL0:
  26              	.LFB404:
  27              		.file 1 "../ChibiOS/test/rt/source/test/rt_test_sequence_012.c"
  28              		.loc 1 63 52 view -0
  29              		.cfi_startproc
  30              		@ args = 0, pretend = 0, frame = 0
  31              		@ frame_needed = 0, uses_anonymous_args = 0
  32              		@ link register save eliminated.
  33              		.loc 1 65 3 view .LVU1
  34              		.loc 1 66 3 view .LVU2
  35              		.loc 1 67 1 is_stmt 0 view .LVU3
  36 0000 7047     		bx	lr
  37              		.cfi_endproc
  38              	.LFE404:
  39              		.size	tmo, .-tmo
  40 0002 00BF     		.section	.rodata.rt_test_012_012_execute.str1.4,"aMS",%progbits,1
  41              		.align	2
  42              	.LC0:
  43 0000 2D2D2D20 		.ascii	"--- OS    : \000"
  43      4F532020 
  43      20203A20 
  43      00
  44 000d 000000   		.align	2
  45              	.LC1:
  46 0010 257300   		.ascii	"%s\000"
  47 0013 00       		.align	2
  48              	.LC2:
  49 0014 257500   		.ascii	"%u\000"
  50 0017 00       		.align	2
  51              	.LC3:
  52 0018 20627974 		.ascii	" bytes\000"
  52      657300
  53 001f 00       		.align	2
ARM GAS  /tmp/ccuqlnP4.s 			page 2


  54              	.LC4:
  55 0020 25730D0A 		.ascii	"%s\015\012\000"
  55      00
  56 0025 000000   		.align	2
  57              	.LC5:
  58 0028 2D2D2D20 		.ascii	"--- Thread: \000"
  58      54687265 
  58      61643A20 
  58      00
  59 0035 000000   		.align	2
  60              	.LC6:
  61 0038 2D2D2D20 		.ascii	"--- Timer : \000"
  61      54696D65 
  61      72203A20 
  61      00
  62 0045 000000   		.align	2
  63              	.LC7:
  64 0048 2D2D2D20 		.ascii	"--- Semaph: \000"
  64      53656D61 
  64      70683A20 
  64      00
  65 0055 000000   		.align	2
  66              	.LC8:
  67 0058 2D2D2D20 		.ascii	"--- Mutex : \000"
  67      4D757465 
  67      78203A20 
  67      00
  68 0065 000000   		.align	2
  69              	.LC9:
  70 0068 2D2D2D20 		.ascii	"--- CondV.: \000"
  70      436F6E64 
  70      562E3A20 
  70      00
  71 0075 000000   		.align	2
  72              	.LC10:
  73 0078 2D2D2D20 		.ascii	"--- EventS: \000"
  73      4576656E 
  73      74533A20 
  73      00
  74 0085 000000   		.align	2
  75              	.LC11:
  76 0088 2D2D2D20 		.ascii	"--- EventL: \000"
  76      4576656E 
  76      744C3A20 
  76      00
  77 0095 000000   		.align	2
  78              	.LC12:
  79 0098 2D2D2D20 		.ascii	"--- MailB.: \000"
  79      4D61696C 
  79      422E3A20 
  79      00
  80              		.section	.text.rt_test_012_012_execute,"ax",%progbits
  81              		.align	1
  82              		.p2align 4,,15
  83              		.syntax unified
  84              		.thumb
  85              		.thumb_func
ARM GAS  /tmp/ccuqlnP4.s 			page 3


  86              		.fpu softvfp
  87              		.type	rt_test_012_012_execute, %function
  88              	rt_test_012_012_execute:
  89              	.LFB425:
  90              		.loc 1 938 43 is_stmt 1 view -0
  91              		.cfi_startproc
  92              		@ args = 0, pretend = 0, frame = 0
  93              		@ frame_needed = 0, uses_anonymous_args = 0
  94              		.loc 1 941 3 view .LVU5
  95              		.loc 1 938 43 is_stmt 0 view .LVU6
  96 0000 2DE9F843 		push	{r3, r4, r5, r6, r7, r8, r9, lr}
  97              		.cfi_def_cfa_offset 32
  98              		.cfi_offset 3, -32
  99              		.cfi_offset 4, -28
 100              		.cfi_offset 5, -24
 101              		.cfi_offset 6, -20
 102              		.cfi_offset 7, -16
 103              		.cfi_offset 8, -12
 104              		.cfi_offset 9, -8
 105              		.cfi_offset 14, -4
 106              	.LBB396:
 107              	.LBB397:
 108              		.file 2 "../ChibiOS/os/test/include/ch_test.h"
 109              		.loc 2 371 3 view .LVU7
 110 0004 DFF80C81 		ldr	r8, .L5
 111              	.LBE397:
 112              	.LBE396:
 113              		.loc 1 941 3 view .LVU8
 114 0008 434F     		ldr	r7, .L5+4
 115              	.LBB401:
 116              	.LBB402:
 117              		.loc 2 359 3 view .LVU9
 118 000a 444E     		ldr	r6, .L5+8
 119              	.LBE402:
 120              	.LBE401:
 121              	.LBB404:
 122              	.LBB405:
 123              		.loc 2 383 3 view .LVU10
 124 000c 444D     		ldr	r5, .L5+12
 125 000e 454C     		ldr	r4, .L5+16
 126              	.LBE405:
 127              	.LBE404:
 128              	.LBB407:
 129              	.LBB398:
 130              		.loc 2 371 3 view .LVU11
 131 0010 4549     		ldr	r1, .L5+20
 132              	.LBE398:
 133              	.LBE407:
 134              		.loc 1 941 3 view .LVU12
 135 0012 0123     		movs	r3, #1
 136              	.LBB408:
 137              	.LBB399:
 138              		.loc 2 371 3 view .LVU13
 139 0014 4046     		mov	r0, r8
 140              	.LBE399:
 141              	.LBE408:
 142              		.loc 1 941 3 view .LVU14
ARM GAS  /tmp/ccuqlnP4.s 			page 4


 143 0016 3B60     		str	r3, [r7]
 144              		.loc 1 943 5 is_stmt 1 view .LVU15
 145              	.LVL1:
 146              	.LBB409:
 147              	.LBI396:
 148              		.loc 2 369 20 view .LVU16
 149              	.LBB400:
 150              		.loc 2 371 3 view .LVU17
 151 0018 FFF7FEFF 		bl	test_printf
 152              	.LVL2:
 153              		.loc 2 371 3 is_stmt 0 view .LVU18
 154              	.LBE400:
 155              	.LBE409:
 156              		.loc 1 944 5 is_stmt 1 view .LVU19
 157              	.LBB410:
 158              	.LBI401:
 159              		.loc 2 357 20 view .LVU20
 160              	.LBB403:
 161              		.loc 2 359 3 view .LVU21
 162 001c 8821     		movs	r1, #136
 163 001e 3046     		mov	r0, r6
 164 0020 FFF7FEFF 		bl	test_printf
 165              	.LVL3:
 166              		.loc 2 359 3 is_stmt 0 view .LVU22
 167              	.LBE403:
 168              	.LBE410:
 169              		.loc 1 945 5 is_stmt 1 view .LVU23
 170              	.LBB411:
 171              	.LBI404:
 172              		.loc 2 381 20 view .LVU24
 173              	.LBB406:
 174              		.loc 2 383 3 view .LVU25
 175 0024 2946     		mov	r1, r5
 176 0026 2046     		mov	r0, r4
 177 0028 FFF7FEFF 		bl	test_printf
 178              	.LVL4:
 179              		.loc 2 383 3 is_stmt 0 view .LVU26
 180              	.LBE406:
 181              	.LBE411:
 182              		.loc 1 947 3 is_stmt 1 view .LVU27
 183              		.loc 1 947 19 view .LVU28
 184              		.loc 1 950 3 view .LVU29
 185 002c 0223     		movs	r3, #2
 186              	.LBB412:
 187              	.LBB413:
 188              		.loc 2 371 3 is_stmt 0 view .LVU30
 189 002e 3F49     		ldr	r1, .L5+24
 190              	.LBE413:
 191              	.LBE412:
 192              		.loc 1 950 3 view .LVU31
 193 0030 3B60     		str	r3, [r7]
 194              		.loc 1 952 5 is_stmt 1 view .LVU32
 195              	.LVL5:
 196              	.LBB415:
 197              	.LBI412:
 198              		.loc 2 369 20 view .LVU33
 199              	.LBB414:
ARM GAS  /tmp/ccuqlnP4.s 			page 5


 200              		.loc 2 371 3 view .LVU34
 201 0032 4046     		mov	r0, r8
 202 0034 FFF7FEFF 		bl	test_printf
 203              	.LVL6:
 204              		.loc 2 371 3 is_stmt 0 view .LVU35
 205              	.LBE414:
 206              	.LBE415:
 207              		.loc 1 953 5 is_stmt 1 view .LVU36
 208              	.LBB416:
 209              	.LBI416:
 210              		.loc 2 357 20 view .LVU37
 211              	.LBB417:
 212              		.loc 2 359 3 view .LVU38
 213 0038 4821     		movs	r1, #72
 214 003a 3046     		mov	r0, r6
 215 003c FFF7FEFF 		bl	test_printf
 216              	.LVL7:
 217              		.loc 2 359 3 is_stmt 0 view .LVU39
 218              	.LBE417:
 219              	.LBE416:
 220              		.loc 1 954 5 is_stmt 1 view .LVU40
 221              	.LBB418:
 222              	.LBI418:
 223              		.loc 2 381 20 view .LVU41
 224              	.LBB419:
 225              		.loc 2 383 3 view .LVU42
 226 0040 2946     		mov	r1, r5
 227 0042 2046     		mov	r0, r4
 228 0044 FFF7FEFF 		bl	test_printf
 229              	.LVL8:
 230              		.loc 2 383 3 is_stmt 0 view .LVU43
 231              	.LBE419:
 232              	.LBE418:
 233              		.loc 1 956 3 is_stmt 1 view .LVU44
 234              		.loc 1 956 19 view .LVU45
 235              		.loc 1 959 3 view .LVU46
 236 0048 0323     		movs	r3, #3
 237              	.LBB420:
 238              	.LBB421:
 239              		.loc 2 371 3 is_stmt 0 view .LVU47
 240 004a 3949     		ldr	r1, .L5+28
 241              	.LBE421:
 242              	.LBE420:
 243              		.loc 1 959 3 view .LVU48
 244 004c 3B60     		str	r3, [r7]
 245              		.loc 1 961 5 is_stmt 1 view .LVU49
 246              	.LVL9:
 247              	.LBB423:
 248              	.LBI420:
 249              		.loc 2 369 20 view .LVU50
 250              	.LBB422:
 251              		.loc 2 371 3 view .LVU51
 252 004e 4046     		mov	r0, r8
 253 0050 FFF7FEFF 		bl	test_printf
 254              	.LVL10:
 255              		.loc 2 371 3 is_stmt 0 view .LVU52
 256              	.LBE422:
ARM GAS  /tmp/ccuqlnP4.s 			page 6


 257              	.LBE423:
 258              		.loc 1 962 5 is_stmt 1 view .LVU53
 259              	.LBB424:
 260              	.LBI424:
 261              		.loc 2 357 20 view .LVU54
 262              	.LBB425:
 263              		.loc 2 359 3 view .LVU55
 264 0054 1821     		movs	r1, #24
 265 0056 3046     		mov	r0, r6
 266 0058 FFF7FEFF 		bl	test_printf
 267              	.LVL11:
 268              		.loc 2 359 3 is_stmt 0 view .LVU56
 269              	.LBE425:
 270              	.LBE424:
 271              		.loc 1 963 5 is_stmt 1 view .LVU57
 272              	.LBB426:
 273              	.LBI426:
 274              		.loc 2 381 20 view .LVU58
 275              	.LBB427:
 276              		.loc 2 383 3 view .LVU59
 277 005c 2946     		mov	r1, r5
 278 005e 2046     		mov	r0, r4
 279 0060 FFF7FEFF 		bl	test_printf
 280              	.LVL12:
 281              		.loc 2 383 3 is_stmt 0 view .LVU60
 282              	.LBE427:
 283              	.LBE426:
 284              		.loc 1 965 3 is_stmt 1 view .LVU61
 285              		.loc 1 965 19 view .LVU62
 286              		.loc 1 968 3 view .LVU63
 287 0064 4FF00409 		mov	r9, #4
 288              	.LBB428:
 289              	.LBB429:
 290              		.loc 2 371 3 is_stmt 0 view .LVU64
 291 0068 3249     		ldr	r1, .L5+32
 292              	.LBE429:
 293              	.LBE428:
 294              		.loc 1 968 3 view .LVU65
 295 006a C7F80090 		str	r9, [r7]
 296              		.loc 1 971 5 is_stmt 1 view .LVU66
 297              	.LVL13:
 298              	.LBB431:
 299              	.LBI428:
 300              		.loc 2 369 20 view .LVU67
 301              	.LBB430:
 302              		.loc 2 371 3 view .LVU68
 303 006e 4046     		mov	r0, r8
 304 0070 FFF7FEFF 		bl	test_printf
 305              	.LVL14:
 306              		.loc 2 371 3 is_stmt 0 view .LVU69
 307              	.LBE430:
 308              	.LBE431:
 309              		.loc 1 972 5 is_stmt 1 view .LVU70
 310              	.LBB432:
 311              	.LBI432:
 312              		.loc 2 357 20 view .LVU71
 313              	.LBB433:
ARM GAS  /tmp/ccuqlnP4.s 			page 7


 314              		.loc 2 359 3 view .LVU72
 315 0074 0C21     		movs	r1, #12
 316 0076 3046     		mov	r0, r6
 317 0078 FFF7FEFF 		bl	test_printf
 318              	.LVL15:
 319              		.loc 2 359 3 is_stmt 0 view .LVU73
 320              	.LBE433:
 321              	.LBE432:
 322              		.loc 1 973 5 is_stmt 1 view .LVU74
 323              	.LBB434:
 324              	.LBI434:
 325              		.loc 2 381 20 view .LVU75
 326              	.LBB435:
 327              		.loc 2 383 3 view .LVU76
 328 007c 2946     		mov	r1, r5
 329 007e 2046     		mov	r0, r4
 330 0080 FFF7FEFF 		bl	test_printf
 331              	.LVL16:
 332              		.loc 2 383 3 is_stmt 0 view .LVU77
 333              	.LBE435:
 334              	.LBE434:
 335              		.loc 1 976 3 is_stmt 1 view .LVU78
 336              		.loc 1 976 19 view .LVU79
 337              		.loc 1 979 3 view .LVU80
 338 0084 0523     		movs	r3, #5
 339              	.LBB436:
 340              	.LBB437:
 341              		.loc 2 371 3 is_stmt 0 view .LVU81
 342 0086 2C49     		ldr	r1, .L5+36
 343              	.LBE437:
 344              	.LBE436:
 345              		.loc 1 979 3 view .LVU82
 346 0088 3B60     		str	r3, [r7]
 347              		.loc 1 982 5 is_stmt 1 view .LVU83
 348              	.LVL17:
 349              	.LBB439:
 350              	.LBI436:
 351              		.loc 2 369 20 view .LVU84
 352              	.LBB438:
 353              		.loc 2 371 3 view .LVU85
 354 008a 4046     		mov	r0, r8
 355 008c FFF7FEFF 		bl	test_printf
 356              	.LVL18:
 357              		.loc 2 371 3 is_stmt 0 view .LVU86
 358              	.LBE438:
 359              	.LBE439:
 360              		.loc 1 983 5 is_stmt 1 view .LVU87
 361              	.LBB440:
 362              	.LBI440:
 363              		.loc 2 357 20 view .LVU88
 364              	.LBB441:
 365              		.loc 2 359 3 view .LVU89
 366 0090 1021     		movs	r1, #16
 367 0092 3046     		mov	r0, r6
 368 0094 FFF7FEFF 		bl	test_printf
 369              	.LVL19:
 370              		.loc 2 359 3 is_stmt 0 view .LVU90
ARM GAS  /tmp/ccuqlnP4.s 			page 8


 371              	.LBE441:
 372              	.LBE440:
 373              		.loc 1 984 5 is_stmt 1 view .LVU91
 374              	.LBB442:
 375              	.LBI442:
 376              		.loc 2 381 20 view .LVU92
 377              	.LBB443:
 378              		.loc 2 383 3 view .LVU93
 379 0098 2946     		mov	r1, r5
 380 009a 2046     		mov	r0, r4
 381 009c FFF7FEFF 		bl	test_printf
 382              	.LVL20:
 383              		.loc 2 383 3 is_stmt 0 view .LVU94
 384              	.LBE443:
 385              	.LBE442:
 386              		.loc 1 987 3 is_stmt 1 view .LVU95
 387              		.loc 1 987 19 view .LVU96
 388              		.loc 1 990 3 view .LVU97
 389 00a0 0623     		movs	r3, #6
 390              	.LBB444:
 391              	.LBB445:
 392              		.loc 2 371 3 is_stmt 0 view .LVU98
 393 00a2 2649     		ldr	r1, .L5+40
 394              	.LBE445:
 395              	.LBE444:
 396              		.loc 1 990 3 view .LVU99
 397 00a4 3B60     		str	r3, [r7]
 398              		.loc 1 993 5 is_stmt 1 view .LVU100
 399              	.LVL21:
 400              	.LBB447:
 401              	.LBI444:
 402              		.loc 2 369 20 view .LVU101
 403              	.LBB446:
 404              		.loc 2 371 3 view .LVU102
 405 00a6 4046     		mov	r0, r8
 406 00a8 FFF7FEFF 		bl	test_printf
 407              	.LVL22:
 408              		.loc 2 371 3 is_stmt 0 view .LVU103
 409              	.LBE446:
 410              	.LBE447:
 411              		.loc 1 994 5 is_stmt 1 view .LVU104
 412              	.LBB448:
 413              	.LBI448:
 414              		.loc 2 357 20 view .LVU105
 415              	.LBB449:
 416              		.loc 2 359 3 view .LVU106
 417 00ac 0821     		movs	r1, #8
 418 00ae 3046     		mov	r0, r6
 419 00b0 FFF7FEFF 		bl	test_printf
 420              	.LVL23:
 421              		.loc 2 359 3 is_stmt 0 view .LVU107
 422              	.LBE449:
 423              	.LBE448:
 424              		.loc 1 995 5 is_stmt 1 view .LVU108
 425              	.LBB450:
 426              	.LBI450:
 427              		.loc 2 381 20 view .LVU109
ARM GAS  /tmp/ccuqlnP4.s 			page 9


 428              	.LBB451:
 429              		.loc 2 383 3 view .LVU110
 430 00b4 2946     		mov	r1, r5
 431 00b6 2046     		mov	r0, r4
 432 00b8 FFF7FEFF 		bl	test_printf
 433              	.LVL24:
 434              		.loc 2 383 3 is_stmt 0 view .LVU111
 435              	.LBE451:
 436              	.LBE450:
 437              		.loc 1 998 3 is_stmt 1 view .LVU112
 438              		.loc 1 998 19 view .LVU113
 439              		.loc 1 1001 3 view .LVU114
 440 00bc 0723     		movs	r3, #7
 441              	.LBB452:
 442              	.LBB453:
 443              		.loc 2 371 3 is_stmt 0 view .LVU115
 444 00be 2049     		ldr	r1, .L5+44
 445              	.LBE453:
 446              	.LBE452:
 447              		.loc 1 1001 3 view .LVU116
 448 00c0 3B60     		str	r3, [r7]
 449              		.loc 1 1004 5 is_stmt 1 view .LVU117
 450              	.LVL25:
 451              	.LBB455:
 452              	.LBI452:
 453              		.loc 2 369 20 view .LVU118
 454              	.LBB454:
 455              		.loc 2 371 3 view .LVU119
 456 00c2 4046     		mov	r0, r8
 457 00c4 FFF7FEFF 		bl	test_printf
 458              	.LVL26:
 459              		.loc 2 371 3 is_stmt 0 view .LVU120
 460              	.LBE454:
 461              	.LBE455:
 462              		.loc 1 1005 5 is_stmt 1 view .LVU121
 463              	.LBB456:
 464              	.LBI456:
 465              		.loc 2 357 20 view .LVU122
 466              	.LBB457:
 467              		.loc 2 359 3 view .LVU123
 468 00c8 4946     		mov	r1, r9
 469 00ca 3046     		mov	r0, r6
 470 00cc FFF7FEFF 		bl	test_printf
 471              	.LVL27:
 472              		.loc 2 359 3 is_stmt 0 view .LVU124
 473              	.LBE457:
 474              	.LBE456:
 475              		.loc 1 1006 5 is_stmt 1 view .LVU125
 476              	.LBB458:
 477              	.LBI458:
 478              		.loc 2 381 20 view .LVU126
 479              	.LBB459:
 480              		.loc 2 383 3 view .LVU127
 481 00d0 2946     		mov	r1, r5
 482 00d2 2046     		mov	r0, r4
 483 00d4 FFF7FEFF 		bl	test_printf
 484              	.LVL28:
ARM GAS  /tmp/ccuqlnP4.s 			page 10


 485              		.loc 2 383 3 is_stmt 0 view .LVU128
 486              	.LBE459:
 487              	.LBE458:
 488              		.loc 1 1009 3 is_stmt 1 view .LVU129
 489              		.loc 1 1009 19 view .LVU130
 490              		.loc 1 1012 3 view .LVU131
 491 00d8 0823     		movs	r3, #8
 492              	.LBB460:
 493              	.LBB461:
 494              		.loc 2 371 3 is_stmt 0 view .LVU132
 495 00da 1A49     		ldr	r1, .L5+48
 496              	.LBE461:
 497              	.LBE460:
 498              		.loc 1 1012 3 view .LVU133
 499 00dc 3B60     		str	r3, [r7]
 500              		.loc 1 1015 5 is_stmt 1 view .LVU134
 501              	.LVL29:
 502              	.LBB463:
 503              	.LBI460:
 504              		.loc 2 369 20 view .LVU135
 505              	.LBB462:
 506              		.loc 2 371 3 view .LVU136
 507 00de 4046     		mov	r0, r8
 508 00e0 FFF7FEFF 		bl	test_printf
 509              	.LVL30:
 510              		.loc 2 371 3 is_stmt 0 view .LVU137
 511              	.LBE462:
 512              	.LBE463:
 513              		.loc 1 1016 5 is_stmt 1 view .LVU138
 514              	.LBB464:
 515              	.LBI464:
 516              		.loc 2 357 20 view .LVU139
 517              	.LBB465:
 518              		.loc 2 359 3 view .LVU140
 519 00e4 1421     		movs	r1, #20
 520 00e6 3046     		mov	r0, r6
 521 00e8 FFF7FEFF 		bl	test_printf
 522              	.LVL31:
 523              		.loc 2 359 3 is_stmt 0 view .LVU141
 524              	.LBE465:
 525              	.LBE464:
 526              		.loc 1 1017 5 is_stmt 1 view .LVU142
 527              	.LBB466:
 528              	.LBI466:
 529              		.loc 2 381 20 view .LVU143
 530              	.LBB467:
 531              		.loc 2 383 3 view .LVU144
 532 00ec 2946     		mov	r1, r5
 533 00ee 2046     		mov	r0, r4
 534 00f0 FFF7FEFF 		bl	test_printf
 535              	.LVL32:
 536              		.loc 2 383 3 is_stmt 0 view .LVU145
 537              	.LBE467:
 538              	.LBE466:
 539              		.loc 1 1020 3 is_stmt 1 view .LVU146
 540              		.loc 1 1020 19 view .LVU147
 541              		.loc 1 1023 3 view .LVU148
ARM GAS  /tmp/ccuqlnP4.s 			page 11


 542 00f4 0923     		movs	r3, #9
 543              	.LBB468:
 544              	.LBB469:
 545              		.loc 2 371 3 is_stmt 0 view .LVU149
 546 00f6 1449     		ldr	r1, .L5+52
 547              	.LBE469:
 548              	.LBE468:
 549              		.loc 1 1023 3 view .LVU150
 550 00f8 3B60     		str	r3, [r7]
 551              		.loc 1 1026 5 is_stmt 1 view .LVU151
 552              	.LVL33:
 553              	.LBB471:
 554              	.LBI468:
 555              		.loc 2 369 20 view .LVU152
 556              	.LBB470:
 557              		.loc 2 371 3 view .LVU153
 558 00fa 4046     		mov	r0, r8
 559 00fc FFF7FEFF 		bl	test_printf
 560              	.LVL34:
 561              		.loc 2 371 3 is_stmt 0 view .LVU154
 562              	.LBE470:
 563              	.LBE471:
 564              		.loc 1 1027 5 is_stmt 1 view .LVU155
 565              	.LBB472:
 566              	.LBI472:
 567              		.loc 2 357 20 view .LVU156
 568              	.LBB473:
 569              		.loc 2 359 3 view .LVU157
 570 0100 2821     		movs	r1, #40
 571 0102 3046     		mov	r0, r6
 572 0104 FFF7FEFF 		bl	test_printf
 573              	.LVL35:
 574              		.loc 2 359 3 is_stmt 0 view .LVU158
 575              	.LBE473:
 576              	.LBE472:
 577              		.loc 1 1028 5 is_stmt 1 view .LVU159
 578              	.LBB474:
 579              	.LBI474:
 580              		.loc 2 381 20 view .LVU160
 581              	.LBB475:
 582              		.loc 2 383 3 view .LVU161
 583 0108 2946     		mov	r1, r5
 584 010a 2046     		mov	r0, r4
 585              	.LBE475:
 586              	.LBE474:
 587              		.loc 1 1032 1 is_stmt 0 view .LVU162
 588 010c BDE8F843 		pop	{r3, r4, r5, r6, r7, r8, r9, lr}
 589              		.cfi_restore 14
 590              		.cfi_restore 9
 591              		.cfi_restore 8
 592              		.cfi_restore 7
 593              		.cfi_restore 6
 594              		.cfi_restore 5
 595              		.cfi_restore 4
 596              		.cfi_restore 3
 597              		.cfi_def_cfa_offset 0
 598              	.LBB477:
ARM GAS  /tmp/ccuqlnP4.s 			page 12


 599              	.LBB476:
 600              		.loc 2 383 3 view .LVU163
 601 0110 FFF7FEBF 		b	test_printf
 602              	.LVL36:
 603              	.L6:
 604              		.align	2
 605              	.L5:
 606 0114 10000000 		.word	.LC1
 607 0118 00000000 		.word	chtest
 608 011c 14000000 		.word	.LC2
 609 0120 18000000 		.word	.LC3
 610 0124 20000000 		.word	.LC4
 611 0128 00000000 		.word	.LC0
 612 012c 28000000 		.word	.LC5
 613 0130 38000000 		.word	.LC6
 614 0134 48000000 		.word	.LC7
 615 0138 58000000 		.word	.LC8
 616 013c 68000000 		.word	.LC9
 617 0140 78000000 		.word	.LC10
 618 0144 88000000 		.word	.LC11
 619 0148 98000000 		.word	.LC12
 620              	.LBE476:
 621              	.LBE477:
 622              		.cfi_endproc
 623              	.LFE425:
 624              		.size	rt_test_012_012_execute, .-rt_test_012_012_execute
 625              		.section	.rodata.rt_test_012_011_execute.str1.4,"aMS",%progbits,1
 626              		.align	2
 627              	.LC13:
 628 0000 2D2D2D20 		.ascii	"--- Score : \000"
 628      53636F72 
 628      65203A20 
 628      00
 629 000d 000000   		.align	2
 630              	.LC14:
 631 0010 206C6F63 		.ascii	" lock+unlock/S\000"
 631      6B2B756E 
 631      6C6F636B 
 631      2F5300
 632              		.section	.text.rt_test_012_011_execute,"ax",%progbits
 633              		.align	1
 634              		.p2align 4,,15
 635              		.syntax unified
 636              		.thumb
 637              		.thumb_func
 638              		.fpu softvfp
 639              		.type	rt_test_012_011_execute, %function
 640              	rt_test_012_011_execute:
 641              	.LFB424:
 642              		.loc 1 872 43 is_stmt 1 view -0
 643              		.cfi_startproc
 644              		@ args = 0, pretend = 0, frame = 0
 645              		@ frame_needed = 0, uses_anonymous_args = 0
 646              		.loc 1 873 3 view .LVU165
 647              		.loc 1 877 3 view .LVU166
 648              		.loc 1 872 43 is_stmt 0 view .LVU167
 649 0000 2DE9F041 		push	{r4, r5, r6, r7, r8, lr}
ARM GAS  /tmp/ccuqlnP4.s 			page 13


 650              		.cfi_def_cfa_offset 24
 651              		.cfi_offset 4, -24
 652              		.cfi_offset 5, -20
 653              		.cfi_offset 6, -16
 654              		.cfi_offset 7, -12
 655              		.cfi_offset 8, -8
 656              		.cfi_offset 14, -4
 657              		.loc 1 877 3 view .LVU168
 658 0004 DFF87480 		ldr	r8, .L11
 659              	.LBB478:
 660              		.loc 1 885 7 view .LVU169
 661 0008 1D4C     		ldr	r4, .L11+4
 662              	.LBE478:
 663              		.loc 1 877 3 view .LVU170
 664 000a 0123     		movs	r3, #1
 665 000c C8F80030 		str	r3, [r8]
 666              	.LBB494:
 667              		.loc 1 879 5 is_stmt 1 view .LVU171
 668              		.loc 1 881 5 view .LVU172
 669              	.LVL37:
 670              		.loc 1 882 5 view .LVU173
 671              		.loc 1 882 13 is_stmt 0 view .LVU174
 672 0010 FFF7FEFF 		bl	test_wait_tick
 673              	.LVL38:
 674              		.loc 1 881 7 view .LVU175
 675 0014 0025     		movs	r5, #0
 676              		.loc 1 882 13 view .LVU176
 677 0016 0646     		mov	r6, r0
 678              	.LVL39:
 679              		.loc 1 883 5 is_stmt 1 view .LVU177
 680              		.loc 1 883 5 is_stmt 0 view .LVU178
 681              	.LBE494:
 682              		.file 3 "../ChibiOS/os/rt/include/chtime.h"
 683              		.loc 3 449 3 is_stmt 1 view .LVU179
 684              	.LBB495:
 685              		.loc 1 897 5 is_stmt 0 view .LVU180
 686 0018 42F20F77 		movw	r7, #9999
 687              	.LVL40:
 688              	.L8:
 689              		.loc 1 884 5 is_stmt 1 discriminator 1 view .LVU181
 690              		.loc 1 885 7 discriminator 1 view .LVU182
 691 001c 2046     		mov	r0, r4
 692 001e FFF7FEFF 		bl	chMtxLock
 693              	.LVL41:
 694              		.loc 1 886 7 discriminator 1 view .LVU183
 695 0022 2046     		mov	r0, r4
 696 0024 FFF7FEFF 		bl	chMtxUnlock
 697              	.LVL42:
 698              		.loc 1 887 7 discriminator 1 view .LVU184
 699 0028 2046     		mov	r0, r4
 700 002a FFF7FEFF 		bl	chMtxLock
 701              	.LVL43:
 702              		.loc 1 888 7 discriminator 1 view .LVU185
 703 002e 2046     		mov	r0, r4
 704 0030 FFF7FEFF 		bl	chMtxUnlock
 705              	.LVL44:
 706              		.loc 1 889 7 discriminator 1 view .LVU186
ARM GAS  /tmp/ccuqlnP4.s 			page 14


 707 0034 2046     		mov	r0, r4
 708 0036 FFF7FEFF 		bl	chMtxLock
 709              	.LVL45:
 710              		.loc 1 890 7 discriminator 1 view .LVU187
 711 003a 2046     		mov	r0, r4
 712 003c FFF7FEFF 		bl	chMtxUnlock
 713              	.LVL46:
 714              		.loc 1 891 7 discriminator 1 view .LVU188
 715 0040 2046     		mov	r0, r4
 716 0042 FFF7FEFF 		bl	chMtxLock
 717              	.LVL47:
 718              		.loc 1 892 7 discriminator 1 view .LVU189
 719 0046 2046     		mov	r0, r4
 720 0048 FFF7FEFF 		bl	chMtxUnlock
 721              	.LVL48:
 722              		.loc 1 893 7 discriminator 1 view .LVU190
 723              	.LBB479:
 724              	.LBB480:
 725              	.LBB481:
 726              	.LBB482:
 727              		.file 4 "../ChibiOS/os/hal/osal/rt-nil/chcore_timer.h"
 728              		.loc 4 113 10 is_stmt 0 discriminator 1 view .LVU191
 729 004c FFF7FEFF 		bl	stGetCounter
 730              	.LVL49:
 731              	.LBE482:
 732              	.LBE481:
 733              	.LBE480:
 734              	.LBB485:
 735              	.LBB486:
 736              		.loc 3 488 17 discriminator 1 view .LVU192
 737 0050 801B     		subs	r0, r0, r6
 738              	.LBE486:
 739              	.LBE485:
 740              	.LBE479:
 741              		.loc 1 897 5 discriminator 1 view .LVU193
 742 0052 B842     		cmp	r0, r7
 743              		.loc 1 893 8 discriminator 1 view .LVU194
 744 0054 05F10105 		add	r5, r5, #1
 745              	.LVL50:
 746              		.loc 1 897 13 is_stmt 1 discriminator 1 view .LVU195
 747              	.LBB491:
 748              	.LBI479:
 749              		.file 5 "../ChibiOS/os/rt/include/chvt.h"
 750              		.loc 5 177 20 discriminator 1 view .LVU196
 751              	.LBE491:
 752              	.LBE495:
 753              		.loc 5 179 3 discriminator 1 view .LVU197
 754              	.LBB496:
 755              	.LBB492:
 756              	.LBB488:
 757              	.LBI480:
 758              		.loc 5 122 25 discriminator 1 view .LVU198
 759              	.LBE488:
 760              	.LBE492:
 761              	.LBE496:
 762              		.loc 5 127 3 discriminator 1 view .LVU199
 763              	.LBB497:
ARM GAS  /tmp/ccuqlnP4.s 			page 15


 764              	.LBB493:
 765              	.LBB489:
 766              	.LBB484:
 767              	.LBI481:
 768              		.loc 4 111 25 discriminator 1 view .LVU200
 769              	.LBB483:
 770              		.loc 4 113 3 discriminator 1 view .LVU201
 771              		.loc 4 113 3 is_stmt 0 discriminator 1 view .LVU202
 772              	.LBE483:
 773              	.LBE484:
 774              	.LBE489:
 775              	.LBB490:
 776              	.LBI485:
 777              		.loc 3 484 20 is_stmt 1 discriminator 1 view .LVU203
 778              	.LBB487:
 779              		.loc 3 488 3 discriminator 1 view .LVU204
 780              		.loc 3 488 3 is_stmt 0 discriminator 1 view .LVU205
 781              	.LBE487:
 782              	.LBE490:
 783              	.LBE493:
 784              		.loc 1 897 5 discriminator 1 view .LVU206
 785 0058 E0D9     		bls	.L8
 786              	.LBE497:
 787              		.loc 1 899 3 is_stmt 1 view .LVU207
 788              		.loc 1 899 19 view .LVU208
 789              		.loc 1 902 3 view .LVU209
 790 005a 0223     		movs	r3, #2
 791              	.LBB498:
 792              	.LBB499:
 793              		.loc 2 371 3 is_stmt 0 view .LVU210
 794 005c 0949     		ldr	r1, .L11+8
 795 005e 0A48     		ldr	r0, .L11+12
 796              	.LBE499:
 797              	.LBE498:
 798              		.loc 1 902 3 view .LVU211
 799 0060 C8F80030 		str	r3, [r8]
 800              		.loc 1 904 5 is_stmt 1 view .LVU212
 801              	.LVL51:
 802              	.LBB501:
 803              	.LBI498:
 804              		.loc 2 369 20 view .LVU213
 805              	.LBB500:
 806              		.loc 2 371 3 view .LVU214
 807 0064 FFF7FEFF 		bl	test_printf
 808              	.LVL52:
 809              		.loc 2 371 3 is_stmt 0 view .LVU215
 810              	.LBE500:
 811              	.LBE501:
 812              		.loc 1 905 5 is_stmt 1 view .LVU216
 813              	.LBB502:
 814              	.LBI502:
 815              		.loc 2 357 20 view .LVU217
 816              	.LBB503:
 817              		.loc 2 359 3 view .LVU218
 818 0068 A900     		lsls	r1, r5, #2
 819              	.LVL53:
 820              		.loc 2 359 3 is_stmt 0 view .LVU219
ARM GAS  /tmp/ccuqlnP4.s 			page 16


 821 006a 0848     		ldr	r0, .L11+16
 822 006c FFF7FEFF 		bl	test_printf
 823              	.LVL54:
 824              		.loc 2 359 3 view .LVU220
 825              	.LBE503:
 826              	.LBE502:
 827              		.loc 1 906 5 is_stmt 1 view .LVU221
 828              	.LBB504:
 829              	.LBI504:
 830              		.loc 2 381 20 view .LVU222
 831              	.LBB505:
 832              		.loc 2 383 3 view .LVU223
 833              	.LBE505:
 834              	.LBE504:
 835              		.loc 1 909 1 is_stmt 0 view .LVU224
 836 0070 BDE8F041 		pop	{r4, r5, r6, r7, r8, lr}
 837              		.cfi_restore 14
 838              		.cfi_restore 8
 839              		.cfi_restore 7
 840              		.cfi_restore 6
 841              		.cfi_restore 5
 842              		.cfi_restore 4
 843              		.cfi_def_cfa_offset 0
 844              	.LVL55:
 845              	.LBB507:
 846              	.LBB506:
 847              		.loc 2 383 3 view .LVU225
 848 0074 0649     		ldr	r1, .L11+20
 849 0076 0748     		ldr	r0, .L11+24
 850 0078 FFF7FEBF 		b	test_printf
 851              	.LVL56:
 852              	.L12:
 853              		.align	2
 854              	.L11:
 855 007c 00000000 		.word	chtest
 856 0080 00000000 		.word	.LANCHOR0
 857 0084 00000000 		.word	.LC13
 858 0088 10000000 		.word	.LC1
 859 008c 14000000 		.word	.LC2
 860 0090 10000000 		.word	.LC14
 861 0094 20000000 		.word	.LC4
 862              	.LBE506:
 863              	.LBE507:
 864              		.cfi_endproc
 865              	.LFE424:
 866              		.size	rt_test_012_011_execute, .-rt_test_012_011_execute
 867              		.section	.text.rt_test_012_011_setup,"ax",%progbits
 868              		.align	1
 869              		.p2align 4,,15
 870              		.syntax unified
 871              		.thumb
 872              		.thumb_func
 873              		.fpu softvfp
 874              		.type	rt_test_012_011_setup, %function
 875              	rt_test_012_011_setup:
 876              	.LFB423:
 877              		.loc 1 868 41 is_stmt 1 view -0
ARM GAS  /tmp/ccuqlnP4.s 			page 17


 878              		.cfi_startproc
 879              		@ args = 0, pretend = 0, frame = 0
 880              		@ frame_needed = 0, uses_anonymous_args = 0
 881              		@ link register save eliminated.
 882              		.loc 1 869 3 view .LVU227
 883 0000 0148     		ldr	r0, .L14
 884 0002 FFF7FEBF 		b	chMtxObjectInit
 885              	.LVL57:
 886              	.L15:
 887 0006 00BF     		.align	2
 888              	.L14:
 889 0008 00000000 		.word	.LANCHOR0
 890              		.cfi_endproc
 891              	.LFE423:
 892              		.size	rt_test_012_011_setup, .-rt_test_012_011_setup
 893              		.section	.text.bmk_thread7,"ax",%progbits
 894              		.align	1
 895              		.p2align 4,,15
 896              		.syntax unified
 897              		.thumb
 898              		.thumb_func
 899              		.fpu softvfp
 900              		.type	bmk_thread7, %function
 901              	bmk_thread7:
 902              	.LVL58:
 903              	.LFB409:
 904              		.loc 1 119 37 view -0
 905              		.cfi_startproc
 906              		@ args = 0, pretend = 0, frame = 0
 907              		@ frame_needed = 0, uses_anonymous_args = 0
 908              		.loc 1 121 3 view .LVU229
 909              		.loc 1 122 3 view .LVU230
 910              		.loc 1 122 9 view .LVU231
 911              	.LBB508:
 912              	.LBI508:
 913              		.file 6 "../ChibiOS/os/rt/include/chthreads.h"
 914              		.loc 6 414 20 view .LVU232
 915              	.LBB509:
 916              		.loc 6 416 3 view .LVU233
 917              	.LBB510:
 918              	.LBI510:
 919              		.loc 6 341 25 view .LVU234
 920              	.LBB511:
 921              		.loc 6 343 3 view .LVU235
 922              	.LBE511:
 923              	.LBE510:
 924              	.LBE509:
 925              	.LBE508:
 926              		.loc 1 119 37 is_stmt 0 view .LVU236
 927 0000 38B5     		push	{r3, r4, r5, lr}
 928              		.cfi_def_cfa_offset 16
 929              		.cfi_offset 3, -16
 930              		.cfi_offset 4, -12
 931              		.cfi_offset 5, -8
 932              		.cfi_offset 14, -4
 933              	.LBB518:
 934              	.LBB516:
ARM GAS  /tmp/ccuqlnP4.s 			page 18


 935              	.LBB514:
 936              	.LBB512:
 937              		.loc 6 343 10 view .LVU237
 938 0002 084C     		ldr	r4, .L22
 939              	.LBE512:
 940              	.LBE514:
 941              		.loc 6 416 33 view .LVU238
 942 0004 E368     		ldr	r3, [r4, #12]
 943              	.LBE516:
 944              	.LBE518:
 945              		.loc 1 122 9 view .LVU239
 946 0006 93F82530 		ldrb	r3, [r3, #37]	@ zero_extendqisi2
 947 000a 5A07     		lsls	r2, r3, #29
 948 000c 08D4     		bmi	.L16
 949              		.loc 1 123 5 view .LVU240
 950 000e 064D     		ldr	r5, .L22+4
 951              	.LVL59:
 952              	.L18:
 953              		.loc 1 123 5 is_stmt 1 view .LVU241
 954 0010 2846     		mov	r0, r5
 955 0012 FFF7FEFF 		bl	chSemWait
 956              	.LVL60:
 957              		.loc 1 122 9 view .LVU242
 958              	.LBB519:
 959              		.loc 6 414 20 view .LVU243
 960              	.LBB517:
 961              		.loc 6 416 3 view .LVU244
 962              	.LBB515:
 963              		.loc 6 341 25 view .LVU245
 964              	.LBB513:
 965              		.loc 6 343 3 view .LVU246
 966              	.LBE513:
 967              	.LBE515:
 968              		.loc 6 416 33 is_stmt 0 view .LVU247
 969 0016 E368     		ldr	r3, [r4, #12]
 970              	.LBE517:
 971              	.LBE519:
 972              		.loc 1 122 9 view .LVU248
 973 0018 93F82530 		ldrb	r3, [r3, #37]	@ zero_extendqisi2
 974 001c 5B07     		lsls	r3, r3, #29
 975 001e F7D5     		bpl	.L18
 976              	.L16:
 977              		.loc 1 124 1 view .LVU249
 978 0020 38BD     		pop	{r3, r4, r5, pc}
 979              	.L23:
 980 0022 00BF     		.align	2
 981              	.L22:
 982 0024 00000000 		.word	ch0
 983 0028 00000000 		.word	.LANCHOR1
 984              		.cfi_endproc
 985              	.LFE409:
 986              		.size	bmk_thread7, .-bmk_thread7
 987              		.section	.rodata.rt_test_012_010_execute.str1.4,"aMS",%progbits,1
 988              		.align	2
 989              	.LC15:
 990 0000 20776169 		.ascii	" wait+signal/S\000"
 990      742B7369 
ARM GAS  /tmp/ccuqlnP4.s 			page 19


 990      676E616C 
 990      2F5300
 991              		.section	.text.rt_test_012_010_execute,"ax",%progbits
 992              		.align	1
 993              		.p2align 4,,15
 994              		.syntax unified
 995              		.thumb
 996              		.thumb_func
 997              		.fpu softvfp
 998              		.type	rt_test_012_010_execute, %function
 999              	rt_test_012_010_execute:
 1000              	.LFB422:
 1001              		.loc 1 798 43 is_stmt 1 view -0
 1002              		.cfi_startproc
 1003              		@ args = 0, pretend = 0, frame = 0
 1004              		@ frame_needed = 0, uses_anonymous_args = 0
 1005              		.loc 1 799 3 view .LVU251
 1006              		.loc 1 803 3 view .LVU252
 1007              		.loc 1 798 43 is_stmt 0 view .LVU253
 1008 0000 2DE9F041 		push	{r4, r5, r6, r7, r8, lr}
 1009              		.cfi_def_cfa_offset 24
 1010              		.cfi_offset 4, -24
 1011              		.cfi_offset 5, -20
 1012              		.cfi_offset 6, -16
 1013              		.cfi_offset 7, -12
 1014              		.cfi_offset 8, -8
 1015              		.cfi_offset 14, -4
 1016              		.loc 1 803 3 view .LVU254
 1017 0004 DFF87480 		ldr	r8, .L28
 1018              	.LBB520:
 1019              		.loc 1 811 7 view .LVU255
 1020 0008 1D4C     		ldr	r4, .L28+4
 1021              	.LBE520:
 1022              		.loc 1 803 3 view .LVU256
 1023 000a 0123     		movs	r3, #1
 1024 000c C8F80030 		str	r3, [r8]
 1025              	.LBB536:
 1026              		.loc 1 805 5 is_stmt 1 view .LVU257
 1027              		.loc 1 807 5 view .LVU258
 1028              	.LVL61:
 1029              		.loc 1 808 5 view .LVU259
 1030              		.loc 1 808 13 is_stmt 0 view .LVU260
 1031 0010 FFF7FEFF 		bl	test_wait_tick
 1032              	.LVL62:
 1033              		.loc 1 807 7 view .LVU261
 1034 0014 0025     		movs	r5, #0
 1035              		.loc 1 808 13 view .LVU262
 1036 0016 0646     		mov	r6, r0
 1037              	.LVL63:
 1038              		.loc 1 809 5 is_stmt 1 view .LVU263
 1039              		.loc 1 809 5 is_stmt 0 view .LVU264
 1040              	.LBE536:
 1041              		.loc 3 449 3 is_stmt 1 view .LVU265
 1042              	.LBB537:
 1043              		.loc 1 823 5 is_stmt 0 view .LVU266
 1044 0018 42F20F77 		movw	r7, #9999
 1045              	.LVL64:
ARM GAS  /tmp/ccuqlnP4.s 			page 20


 1046              	.L25:
 1047              		.loc 1 810 5 is_stmt 1 discriminator 1 view .LVU267
 1048              		.loc 1 811 7 discriminator 1 view .LVU268
 1049 001c 2046     		mov	r0, r4
 1050 001e FFF7FEFF 		bl	chSemWait
 1051              	.LVL65:
 1052              		.loc 1 812 7 discriminator 1 view .LVU269
 1053 0022 2046     		mov	r0, r4
 1054 0024 FFF7FEFF 		bl	chSemSignal
 1055              	.LVL66:
 1056              		.loc 1 813 7 discriminator 1 view .LVU270
 1057 0028 2046     		mov	r0, r4
 1058 002a FFF7FEFF 		bl	chSemWait
 1059              	.LVL67:
 1060              		.loc 1 814 7 discriminator 1 view .LVU271
 1061 002e 2046     		mov	r0, r4
 1062 0030 FFF7FEFF 		bl	chSemSignal
 1063              	.LVL68:
 1064              		.loc 1 815 7 discriminator 1 view .LVU272
 1065 0034 2046     		mov	r0, r4
 1066 0036 FFF7FEFF 		bl	chSemWait
 1067              	.LVL69:
 1068              		.loc 1 816 7 discriminator 1 view .LVU273
 1069 003a 2046     		mov	r0, r4
 1070 003c FFF7FEFF 		bl	chSemSignal
 1071              	.LVL70:
 1072              		.loc 1 817 7 discriminator 1 view .LVU274
 1073 0040 2046     		mov	r0, r4
 1074 0042 FFF7FEFF 		bl	chSemWait
 1075              	.LVL71:
 1076              		.loc 1 818 7 discriminator 1 view .LVU275
 1077 0046 2046     		mov	r0, r4
 1078 0048 FFF7FEFF 		bl	chSemSignal
 1079              	.LVL72:
 1080              		.loc 1 819 7 discriminator 1 view .LVU276
 1081              	.LBB521:
 1082              	.LBB522:
 1083              	.LBB523:
 1084              	.LBB524:
 1085              		.loc 4 113 10 is_stmt 0 discriminator 1 view .LVU277
 1086 004c FFF7FEFF 		bl	stGetCounter
 1087              	.LVL73:
 1088              	.LBE524:
 1089              	.LBE523:
 1090              	.LBE522:
 1091              	.LBB527:
 1092              	.LBB528:
 1093              		.loc 3 488 17 discriminator 1 view .LVU278
 1094 0050 801B     		subs	r0, r0, r6
 1095              	.LBE528:
 1096              	.LBE527:
 1097              	.LBE521:
 1098              		.loc 1 823 5 discriminator 1 view .LVU279
 1099 0052 B842     		cmp	r0, r7
 1100              		.loc 1 819 8 discriminator 1 view .LVU280
 1101 0054 05F10105 		add	r5, r5, #1
 1102              	.LVL74:
ARM GAS  /tmp/ccuqlnP4.s 			page 21


 1103              		.loc 1 823 13 is_stmt 1 discriminator 1 view .LVU281
 1104              	.LBB533:
 1105              	.LBI521:
 1106              		.loc 5 177 20 discriminator 1 view .LVU282
 1107              	.LBE533:
 1108              	.LBE537:
 1109              		.loc 5 179 3 discriminator 1 view .LVU283
 1110              	.LBB538:
 1111              	.LBB534:
 1112              	.LBB530:
 1113              	.LBI522:
 1114              		.loc 5 122 25 discriminator 1 view .LVU284
 1115              	.LBE530:
 1116              	.LBE534:
 1117              	.LBE538:
 1118              		.loc 5 127 3 discriminator 1 view .LVU285
 1119              	.LBB539:
 1120              	.LBB535:
 1121              	.LBB531:
 1122              	.LBB526:
 1123              	.LBI523:
 1124              		.loc 4 111 25 discriminator 1 view .LVU286
 1125              	.LBB525:
 1126              		.loc 4 113 3 discriminator 1 view .LVU287
 1127              		.loc 4 113 3 is_stmt 0 discriminator 1 view .LVU288
 1128              	.LBE525:
 1129              	.LBE526:
 1130              	.LBE531:
 1131              	.LBB532:
 1132              	.LBI527:
 1133              		.loc 3 484 20 is_stmt 1 discriminator 1 view .LVU289
 1134              	.LBB529:
 1135              		.loc 3 488 3 discriminator 1 view .LVU290
 1136              		.loc 3 488 3 is_stmt 0 discriminator 1 view .LVU291
 1137              	.LBE529:
 1138              	.LBE532:
 1139              	.LBE535:
 1140              		.loc 1 823 5 discriminator 1 view .LVU292
 1141 0058 E0D9     		bls	.L25
 1142              	.LBE539:
 1143              		.loc 1 825 3 is_stmt 1 view .LVU293
 1144              		.loc 1 825 19 view .LVU294
 1145              		.loc 1 828 3 view .LVU295
 1146 005a 0223     		movs	r3, #2
 1147              	.LBB540:
 1148              	.LBB541:
 1149              		.loc 2 371 3 is_stmt 0 view .LVU296
 1150 005c 0949     		ldr	r1, .L28+8
 1151 005e 0A48     		ldr	r0, .L28+12
 1152              	.LBE541:
 1153              	.LBE540:
 1154              		.loc 1 828 3 view .LVU297
 1155 0060 C8F80030 		str	r3, [r8]
 1156              		.loc 1 830 5 is_stmt 1 view .LVU298
 1157              	.LVL75:
 1158              	.LBB543:
 1159              	.LBI540:
ARM GAS  /tmp/ccuqlnP4.s 			page 22


 1160              		.loc 2 369 20 view .LVU299
 1161              	.LBB542:
 1162              		.loc 2 371 3 view .LVU300
 1163 0064 FFF7FEFF 		bl	test_printf
 1164              	.LVL76:
 1165              		.loc 2 371 3 is_stmt 0 view .LVU301
 1166              	.LBE542:
 1167              	.LBE543:
 1168              		.loc 1 831 5 is_stmt 1 view .LVU302
 1169              	.LBB544:
 1170              	.LBI544:
 1171              		.loc 2 357 20 view .LVU303
 1172              	.LBB545:
 1173              		.loc 2 359 3 view .LVU304
 1174 0068 A900     		lsls	r1, r5, #2
 1175              	.LVL77:
 1176              		.loc 2 359 3 is_stmt 0 view .LVU305
 1177 006a 0848     		ldr	r0, .L28+16
 1178 006c FFF7FEFF 		bl	test_printf
 1179              	.LVL78:
 1180              		.loc 2 359 3 view .LVU306
 1181              	.LBE545:
 1182              	.LBE544:
 1183              		.loc 1 832 5 is_stmt 1 view .LVU307
 1184              	.LBB546:
 1185              	.LBI546:
 1186              		.loc 2 381 20 view .LVU308
 1187              	.LBB547:
 1188              		.loc 2 383 3 view .LVU309
 1189              	.LBE547:
 1190              	.LBE546:
 1191              		.loc 1 835 1 is_stmt 0 view .LVU310
 1192 0070 BDE8F041 		pop	{r4, r5, r6, r7, r8, lr}
 1193              		.cfi_restore 14
 1194              		.cfi_restore 8
 1195              		.cfi_restore 7
 1196              		.cfi_restore 6
 1197              		.cfi_restore 5
 1198              		.cfi_restore 4
 1199              		.cfi_def_cfa_offset 0
 1200              	.LVL79:
 1201              	.LBB549:
 1202              	.LBB548:
 1203              		.loc 2 383 3 view .LVU311
 1204 0074 0649     		ldr	r1, .L28+20
 1205 0076 0748     		ldr	r0, .L28+24
 1206 0078 FFF7FEBF 		b	test_printf
 1207              	.LVL80:
 1208              	.L29:
 1209              		.align	2
 1210              	.L28:
 1211 007c 00000000 		.word	chtest
 1212 0080 00000000 		.word	.LANCHOR1
 1213 0084 00000000 		.word	.LC13
 1214 0088 10000000 		.word	.LC1
 1215 008c 14000000 		.word	.LC2
 1216 0090 00000000 		.word	.LC15
ARM GAS  /tmp/ccuqlnP4.s 			page 23


 1217 0094 20000000 		.word	.LC4
 1218              	.LBE548:
 1219              	.LBE549:
 1220              		.cfi_endproc
 1221              	.LFE422:
 1222              		.size	rt_test_012_010_execute, .-rt_test_012_010_execute
 1223              		.section	.text.rt_test_012_010_setup,"ax",%progbits
 1224              		.align	1
 1225              		.p2align 4,,15
 1226              		.syntax unified
 1227              		.thumb
 1228              		.thumb_func
 1229              		.fpu softvfp
 1230              		.type	rt_test_012_010_setup, %function
 1231              	rt_test_012_010_setup:
 1232              	.LFB421:
 1233              		.loc 1 794 41 is_stmt 1 view -0
 1234              		.cfi_startproc
 1235              		@ args = 0, pretend = 0, frame = 0
 1236              		@ frame_needed = 0, uses_anonymous_args = 0
 1237              		@ link register save eliminated.
 1238              		.loc 1 795 3 view .LVU313
 1239 0000 0148     		ldr	r0, .L31
 1240 0002 0121     		movs	r1, #1
 1241 0004 FFF7FEBF 		b	chSemObjectInit
 1242              	.LVL81:
 1243              	.L32:
 1244              		.align	2
 1245              	.L31:
 1246 0008 00000000 		.word	.LANCHOR1
 1247              		.cfi_endproc
 1248              	.LFE421:
 1249              		.size	rt_test_012_010_setup, .-rt_test_012_010_setup
 1250              		.section	.text.rt_test_012_007_setup,"ax",%progbits
 1251              		.align	1
 1252              		.p2align 4,,15
 1253              		.syntax unified
 1254              		.thumb
 1255              		.thumb_func
 1256              		.fpu softvfp
 1257              		.type	rt_test_012_007_setup, %function
 1258              	rt_test_012_007_setup:
 1259              	.LFB417:
 1260              		.loc 1 580 41 view -0
 1261              		.cfi_startproc
 1262              		@ args = 0, pretend = 0, frame = 0
 1263              		@ frame_needed = 0, uses_anonymous_args = 0
 1264              		@ link register save eliminated.
 1265              		.loc 1 581 3 view .LVU315
 1266 0000 0148     		ldr	r0, .L34
 1267 0002 0021     		movs	r1, #0
 1268 0004 FFF7FEBF 		b	chSemObjectInit
 1269              	.LVL82:
 1270              	.L35:
 1271              		.align	2
 1272              	.L34:
 1273 0008 00000000 		.word	.LANCHOR1
ARM GAS  /tmp/ccuqlnP4.s 			page 24


 1274              		.cfi_endproc
 1275              	.LFE417:
 1276              		.size	rt_test_012_007_setup, .-rt_test_012_007_setup
 1277              		.section	.rodata.rt_test_012_009_execute.str1.4,"aMS",%progbits,1
 1278              		.align	2
 1279              	.LC16:
 1280 0000 2074696D 		.ascii	" timers/S\000"
 1280      6572732F 
 1280      5300
 1281              		.section	.text.rt_test_012_009_execute,"ax",%progbits
 1282              		.align	1
 1283              		.p2align 4,,15
 1284              		.syntax unified
 1285              		.thumb
 1286              		.thumb_func
 1287              		.fpu softvfp
 1288              		.type	rt_test_012_009_execute, %function
 1289              	rt_test_012_009_execute:
 1290              	.LFB420:
 1291              		.loc 1 725 43 view -0
 1292              		.cfi_startproc
 1293              		@ args = 0, pretend = 0, frame = 0
 1294              		@ frame_needed = 0, uses_anonymous_args = 0
 1295              		.loc 1 726 3 view .LVU317
 1296              		.loc 1 727 3 view .LVU318
 1297              		.loc 1 732 3 view .LVU319
 1298              		.loc 1 725 43 is_stmt 0 view .LVU320
 1299 0000 2DE9F84F 		push	{r3, r4, r5, r6, r7, r8, r9, r10, fp, lr}
 1300              		.cfi_def_cfa_offset 40
 1301              		.cfi_offset 3, -40
 1302              		.cfi_offset 4, -36
 1303              		.cfi_offset 5, -32
 1304              		.cfi_offset 6, -28
 1305              		.cfi_offset 7, -24
 1306              		.cfi_offset 8, -20
 1307              		.cfi_offset 9, -16
 1308              		.cfi_offset 10, -12
 1309              		.cfi_offset 11, -8
 1310              		.cfi_offset 14, -4
 1311              		.loc 1 732 3 view .LVU321
 1312 0004 DFF880A0 		ldr	r10, .L40
 1313              	.LBB550:
 1314              		.loc 1 741 7 view .LVU322
 1315 0008 DFF880B0 		ldr	fp, .L40+4
 1316 000c 204E     		ldr	r6, .L40+8
 1317              		.loc 1 742 7 view .LVU323
 1318 000e 214D     		ldr	r5, .L40+12
 1319              	.LBE550:
 1320              		.loc 1 732 3 view .LVU324
 1321 0010 0123     		movs	r3, #1
 1322 0012 CAF80030 		str	r3, [r10]
 1323              	.LBB586:
 1324              		.loc 1 734 5 is_stmt 1 view .LVU325
 1325              		.loc 1 736 5 view .LVU326
 1326              	.LVL83:
 1327              		.loc 1 737 5 view .LVU327
 1328              		.loc 1 737 13 is_stmt 0 view .LVU328
ARM GAS  /tmp/ccuqlnP4.s 			page 25


 1329 0016 FFF7FEFF 		bl	test_wait_tick
 1330              	.LVL84:
 1331              		.loc 1 736 7 view .LVU329
 1332 001a 0024     		movs	r4, #0
 1333              		.loc 1 737 13 view .LVU330
 1334 001c 0746     		mov	r7, r0
 1335              	.LVL85:
 1336              		.loc 1 738 5 is_stmt 1 view .LVU331
 1337              		.loc 1 738 5 is_stmt 0 view .LVU332
 1338              	.LBE586:
 1339              		.loc 3 449 3 is_stmt 1 view .LVU333
 1340              	.LBB587:
 1341              	.LBB551:
 1342              	.LBB552:
 1343              	.LBB553:
 1344              	.LBB554:
 1345              		.file 7 "../ChibiOS/os/common/ext/ARM/CMSIS/Core/Include/cmsis_gcc.h"
 1346              		.loc 7 493 3 is_stmt 0 view .LVU334
 1347 001e 4FF03009 		mov	r9, #48
 1348              	.LBE554:
 1349              	.LBE553:
 1350              	.LBE552:
 1351              	.LBE551:
 1352              		.loc 1 741 7 view .LVU335
 1353 0022 A046     		mov	r8, r4
 1354              	.LVL86:
 1355              	.L37:
 1356              		.loc 1 739 5 is_stmt 1 discriminator 1 view .LVU336
 1357              		.loc 1 740 7 discriminator 1 view .LVU337
 1358              	.LBB559:
 1359              	.LBI551:
 1360              		.file 8 "../ChibiOS/os/rt/include/chsys.h"
 1361              		.loc 8 407 20 discriminator 1 view .LVU338
 1362              	.LBE559:
 1363              	.LBE587:
 1364              		.loc 8 409 3 discriminator 1 view .LVU339
 1365              	.LBB588:
 1366              	.LBB560:
 1367              	.LBB557:
 1368              	.LBI552:
 1369              		.file 9 "../ChibiOS/os/common/ports/ARMv7-M/chcore.h"
 1370              		.loc 9 806 27 discriminator 1 view .LVU340
 1371              	.LBE557:
 1372              	.LBE560:
 1373              	.LBE588:
 1374              		.loc 9 814 3 discriminator 1 view .LVU341
 1375              	.LBB589:
 1376              	.LBB561:
 1377              	.LBB558:
 1378              	.LBB556:
 1379              	.LBI553:
 1380              		.loc 7 491 27 discriminator 1 view .LVU342
 1381              	.LBB555:
 1382              		.loc 7 493 3 discriminator 1 view .LVU343
 1383              		.syntax unified
 1384              	@ 493 "../ChibiOS/os/common/ext/ARM/CMSIS/Core/Include/cmsis_gcc.h" 1
 1385 0024 89F31188 		MSR basepri, r9
ARM GAS  /tmp/ccuqlnP4.s 			page 26


 1386              	@ 0 "" 2
 1387              	.LVL87:
 1388              		.loc 7 493 3 is_stmt 0 discriminator 1 view .LVU344
 1389              		.thumb
 1390              		.syntax unified
 1391              	.LBE555:
 1392              	.LBE556:
 1393              	.LBE558:
 1394              	.LBE561:
 1395              	.LBE589:
 1396              		.loc 8 410 35 is_stmt 1 discriminator 1 view .LVU345
 1397              		.loc 8 411 21 discriminator 1 view .LVU346
 1398              	.LBB590:
 1399              		.loc 1 741 7 discriminator 1 view .LVU347
 1400 0028 0023     		movs	r3, #0
 1401 002a 5A46     		mov	r2, fp
 1402 002c 3046     		mov	r0, r6
 1403 002e 0121     		movs	r1, #1
 1404 0030 FFF7FEFF 		bl	chVTDoSetI
 1405              	.LVL88:
 1406              		.loc 1 742 7 discriminator 1 view .LVU348
 1407 0034 0023     		movs	r3, #0
 1408 0036 5A46     		mov	r2, fp
 1409 0038 42F21071 		movw	r1, #10000
 1410 003c 2846     		mov	r0, r5
 1411 003e FFF7FEFF 		bl	chVTDoSetI
 1412              	.LVL89:
 1413              		.loc 1 743 7 discriminator 1 view .LVU349
 1414 0042 3046     		mov	r0, r6
 1415 0044 FFF7FEFF 		bl	chVTDoResetI
 1416              	.LVL90:
 1417              		.loc 1 744 7 discriminator 1 view .LVU350
 1418 0048 2846     		mov	r0, r5
 1419 004a FFF7FEFF 		bl	chVTDoResetI
 1420              	.LVL91:
 1421              		.loc 1 745 7 discriminator 1 view .LVU351
 1422              	.LBB562:
 1423              	.LBI562:
 1424              		.loc 8 421 20 discriminator 1 view .LVU352
 1425              	.LBB563:
 1426              		.loc 8 423 23 discriminator 1 view .LVU353
 1427              		.loc 8 424 34 discriminator 1 view .LVU354
 1428              		.loc 8 430 3 discriminator 1 view .LVU355
 1429              		.loc 8 430 3 discriminator 1 view .LVU356
 1430              		.loc 8 430 3 discriminator 1 view .LVU357
 1431              		.loc 8 434 3 discriminator 1 view .LVU358
 1432              	.LBB564:
 1433              	.LBI564:
 1434              		.loc 9 830 27 discriminator 1 view .LVU359
 1435              	.LBE564:
 1436              	.LBE563:
 1437              	.LBE562:
 1438              	.LBE590:
 1439              		.loc 9 833 3 discriminator 1 view .LVU360
 1440              	.LBB591:
 1441              	.LBB569:
 1442              	.LBB568:
ARM GAS  /tmp/ccuqlnP4.s 			page 27


 1443              	.LBB567:
 1444              	.LBB565:
 1445              	.LBI565:
 1446              		.loc 7 491 27 discriminator 1 view .LVU361
 1447              	.LBB566:
 1448              		.loc 7 493 3 discriminator 1 view .LVU362
 1449              		.syntax unified
 1450              	@ 493 "../ChibiOS/os/common/ext/ARM/CMSIS/Core/Include/cmsis_gcc.h" 1
 1451 004e 88F31188 		MSR basepri, r8
 1452              	@ 0 "" 2
 1453              	.LVL92:
 1454              		.loc 7 493 3 is_stmt 0 discriminator 1 view .LVU363
 1455              		.thumb
 1456              		.syntax unified
 1457              	.LBE566:
 1458              	.LBE565:
 1459              	.LBE567:
 1460              	.LBE568:
 1461              	.LBE569:
 1462              		.loc 1 746 7 is_stmt 1 discriminator 1 view .LVU364
 1463              	.LBB570:
 1464              	.LBB571:
 1465              	.LBB572:
 1466              	.LBB573:
 1467              		.loc 4 113 10 is_stmt 0 discriminator 1 view .LVU365
 1468 0052 FFF7FEFF 		bl	stGetCounter
 1469              	.LVL93:
 1470              	.LBE573:
 1471              	.LBE572:
 1472              	.LBE571:
 1473              	.LBE570:
 1474              		.loc 1 750 5 discriminator 1 view .LVU366
 1475 0056 42F20F73 		movw	r3, #9999
 1476              	.LBB582:
 1477              	.LBB576:
 1478              	.LBB577:
 1479              		.loc 3 488 17 discriminator 1 view .LVU367
 1480 005a C01B     		subs	r0, r0, r7
 1481              	.LBE577:
 1482              	.LBE576:
 1483              	.LBE582:
 1484              		.loc 1 750 5 discriminator 1 view .LVU368
 1485 005c 9842     		cmp	r0, r3
 1486              		.loc 1 746 8 discriminator 1 view .LVU369
 1487 005e 04F10104 		add	r4, r4, #1
 1488              	.LVL94:
 1489              		.loc 1 750 13 is_stmt 1 discriminator 1 view .LVU370
 1490              	.LBB583:
 1491              	.LBI570:
 1492              		.loc 5 177 20 discriminator 1 view .LVU371
 1493              	.LBE583:
 1494              	.LBE591:
 1495              		.loc 5 179 3 discriminator 1 view .LVU372
 1496              	.LBB592:
 1497              	.LBB584:
 1498              	.LBB579:
 1499              	.LBI571:
ARM GAS  /tmp/ccuqlnP4.s 			page 28


 1500              		.loc 5 122 25 discriminator 1 view .LVU373
 1501              	.LBE579:
 1502              	.LBE584:
 1503              	.LBE592:
 1504              		.loc 5 127 3 discriminator 1 view .LVU374
 1505              	.LBB593:
 1506              	.LBB585:
 1507              	.LBB580:
 1508              	.LBB575:
 1509              	.LBI572:
 1510              		.loc 4 111 25 discriminator 1 view .LVU375
 1511              	.LBB574:
 1512              		.loc 4 113 3 discriminator 1 view .LVU376
 1513              		.loc 4 113 3 is_stmt 0 discriminator 1 view .LVU377
 1514              	.LBE574:
 1515              	.LBE575:
 1516              	.LBE580:
 1517              	.LBB581:
 1518              	.LBI576:
 1519              		.loc 3 484 20 is_stmt 1 discriminator 1 view .LVU378
 1520              	.LBB578:
 1521              		.loc 3 488 3 discriminator 1 view .LVU379
 1522              		.loc 3 488 3 is_stmt 0 discriminator 1 view .LVU380
 1523              	.LBE578:
 1524              	.LBE581:
 1525              	.LBE585:
 1526              		.loc 1 750 5 discriminator 1 view .LVU381
 1527 0062 DFD9     		bls	.L37
 1528              	.LBE593:
 1529              		.loc 1 752 3 is_stmt 1 view .LVU382
 1530              		.loc 1 752 19 view .LVU383
 1531              		.loc 1 755 3 view .LVU384
 1532 0064 0223     		movs	r3, #2
 1533              	.LBB594:
 1534              	.LBB595:
 1535              		.loc 2 371 3 is_stmt 0 view .LVU385
 1536 0066 0C49     		ldr	r1, .L40+16
 1537 0068 0C48     		ldr	r0, .L40+20
 1538              	.LBE595:
 1539              	.LBE594:
 1540              		.loc 1 755 3 view .LVU386
 1541 006a CAF80030 		str	r3, [r10]
 1542              		.loc 1 757 5 is_stmt 1 view .LVU387
 1543              	.LVL95:
 1544              	.LBB597:
 1545              	.LBI594:
 1546              		.loc 2 369 20 view .LVU388
 1547              	.LBB596:
 1548              		.loc 2 371 3 view .LVU389
 1549 006e FFF7FEFF 		bl	test_printf
 1550              	.LVL96:
 1551              		.loc 2 371 3 is_stmt 0 view .LVU390
 1552              	.LBE596:
 1553              	.LBE597:
 1554              		.loc 1 758 5 is_stmt 1 view .LVU391
 1555              	.LBB598:
 1556              	.LBI598:
ARM GAS  /tmp/ccuqlnP4.s 			page 29


 1557              		.loc 2 357 20 view .LVU392
 1558              	.LBB599:
 1559              		.loc 2 359 3 view .LVU393
 1560 0072 6100     		lsls	r1, r4, #1
 1561              	.LVL97:
 1562              		.loc 2 359 3 is_stmt 0 view .LVU394
 1563 0074 0A48     		ldr	r0, .L40+24
 1564 0076 FFF7FEFF 		bl	test_printf
 1565              	.LVL98:
 1566              		.loc 2 359 3 view .LVU395
 1567              	.LBE599:
 1568              	.LBE598:
 1569              		.loc 1 759 5 is_stmt 1 view .LVU396
 1570              	.LBB600:
 1571              	.LBI600:
 1572              		.loc 2 381 20 view .LVU397
 1573              	.LBB601:
 1574              		.loc 2 383 3 view .LVU398
 1575              	.LBE601:
 1576              	.LBE600:
 1577              		.loc 1 762 1 is_stmt 0 view .LVU399
 1578 007a BDE8F84F 		pop	{r3, r4, r5, r6, r7, r8, r9, r10, fp, lr}
 1579              		.cfi_restore 14
 1580              		.cfi_restore 11
 1581              		.cfi_restore 10
 1582              		.cfi_restore 9
 1583              		.cfi_restore 8
 1584              		.cfi_restore 7
 1585              		.cfi_restore 6
 1586              		.cfi_restore 5
 1587              		.cfi_restore 4
 1588              		.cfi_restore 3
 1589              		.cfi_def_cfa_offset 0
 1590              	.LVL99:
 1591              	.LBB603:
 1592              	.LBB602:
 1593              		.loc 2 383 3 view .LVU400
 1594 007e 0949     		ldr	r1, .L40+28
 1595 0080 0948     		ldr	r0, .L40+32
 1596 0082 FFF7FEBF 		b	test_printf
 1597              	.LVL100:
 1598              	.L41:
 1599 0086 00BF     		.align	2
 1600              	.L40:
 1601 0088 00000000 		.word	chtest
 1602 008c 00000000 		.word	tmo
 1603 0090 00000000 		.word	.LANCHOR2
 1604 0094 00000000 		.word	.LANCHOR3
 1605 0098 00000000 		.word	.LC13
 1606 009c 10000000 		.word	.LC1
 1607 00a0 14000000 		.word	.LC2
 1608 00a4 00000000 		.word	.LC16
 1609 00a8 20000000 		.word	.LC4
 1610              	.LBE602:
 1611              	.LBE603:
 1612              		.cfi_endproc
 1613              	.LFE420:
ARM GAS  /tmp/ccuqlnP4.s 			page 30


 1614              		.size	rt_test_012_009_execute, .-rt_test_012_009_execute
 1615              		.section	.rodata.rt_test_012_008_execute.str1.4,"aMS",%progbits,1
 1616              		.align	2
 1617              	.LC17:
 1618 0000 20637478 		.ascii	" ctxswc/S\000"
 1618      7377632F 
 1618      5300
 1619              		.section	.text.rt_test_012_008_execute,"ax",%progbits
 1620              		.align	1
 1621              		.p2align 4,,15
 1622              		.syntax unified
 1623              		.thumb
 1624              		.thumb_func
 1625              		.fpu softvfp
 1626              		.type	rt_test_012_008_execute, %function
 1627              	rt_test_012_008_execute:
 1628              	.LFB419:
 1629              		.loc 1 665 43 is_stmt 1 view -0
 1630              		.cfi_startproc
 1631              		@ args = 0, pretend = 0, frame = 8
 1632              		@ frame_needed = 0, uses_anonymous_args = 0
 1633              		.loc 1 666 3 view .LVU402
 1634              		.loc 1 671 3 view .LVU403
 1635              		.loc 1 665 43 is_stmt 0 view .LVU404
 1636 0000 2DE9F043 		push	{r4, r5, r6, r7, r8, r9, lr}
 1637              		.cfi_def_cfa_offset 28
 1638              		.cfi_offset 4, -28
 1639              		.cfi_offset 5, -24
 1640              		.cfi_offset 6, -20
 1641              		.cfi_offset 7, -16
 1642              		.cfi_offset 8, -12
 1643              		.cfi_offset 9, -8
 1644              		.cfi_offset 14, -4
 1645              	.LBB604:
 1646              	.LBB605:
 1647              	.LBB606:
 1648              	.LBB607:
 1649              		.loc 6 343 10 view .LVU405
 1650 0004 DFF8D080 		ldr	r8, .L44
 1651              	.LBE607:
 1652              	.LBE606:
 1653              	.LBE605:
 1654              	.LBE604:
 1655              		.loc 1 671 3 view .LVU406
 1656 0008 DFF8D090 		ldr	r9, .L44+4
 1657              		.loc 1 674 35 view .LVU407
 1658 000c 344F     		ldr	r7, .L44+8
 1659 000e 354D     		ldr	r5, .L44+12
 1660              		.loc 1 674 33 view .LVU408
 1661 0010 354C     		ldr	r4, .L44+16
 1662              		.loc 1 665 43 view .LVU409
 1663 0012 85B0     		sub	sp, sp, #20
 1664              		.cfi_def_cfa_offset 48
 1665              		.loc 1 671 3 view .LVU410
 1666 0014 0122     		movs	r2, #1
 1667              		.loc 1 673 7 view .LVU411
 1668 0016 0023     		movs	r3, #0
ARM GAS  /tmp/ccuqlnP4.s 			page 31


 1669              		.loc 1 671 3 view .LVU412
 1670 0018 C9F80020 		str	r2, [r9]
 1671              		.loc 1 673 5 is_stmt 1 view .LVU413
 1672              		.loc 1 673 7 is_stmt 0 view .LVU414
 1673 001c 0393     		str	r3, [sp, #12]
 1674              		.loc 1 674 5 is_stmt 1 view .LVU415
 1675 001e FFF7FEFF 		bl	test_wait_tick
 1676              	.LVL101:
 1677              		.loc 1 674 22 view .LVU416
 1678              	.LBB611:
 1679              	.LBI604:
 1680              		.loc 6 354 23 view .LVU417
 1681              	.LBB610:
 1682              		.loc 6 356 3 view .LVU418
 1683              	.LBB609:
 1684              	.LBI606:
 1685              		.loc 6 341 25 view .LVU419
 1686              	.LBB608:
 1687              		.loc 6 343 3 view .LVU420
 1688              	.LBE608:
 1689              	.LBE609:
 1690              		.loc 6 356 37 is_stmt 0 view .LVU421
 1691 0022 D8F80C30 		ldr	r3, [r8, #12]
 1692              	.LBE610:
 1693              	.LBE611:
 1694              		.loc 1 674 35 view .LVU422
 1695 0026 2868     		ldr	r0, [r5]
 1696 0028 9A68     		ldr	r2, [r3, #8]
 1697 002a 03AE     		add	r6, sp, #12
 1698 002c 3B46     		mov	r3, r7
 1699 002e 013A     		subs	r2, r2, #1
 1700 0030 0096     		str	r6, [sp]
 1701 0032 4FF4B871 		mov	r1, #368
 1702 0036 FFF7FEFF 		bl	chThdCreateStatic
 1703              	.LVL102:
 1704              	.LBB612:
 1705              	.LBB613:
 1706              		.loc 6 356 37 view .LVU423
 1707 003a D8F80C30 		ldr	r3, [r8, #12]
 1708              	.LBE613:
 1709              	.LBE612:
 1710              		.loc 1 674 33 view .LVU424
 1711 003e 2060     		str	r0, [r4]
 1712              		.loc 1 676 5 is_stmt 1 view .LVU425
 1713              	.LBB617:
 1714              	.LBI612:
 1715              		.loc 6 354 23 view .LVU426
 1716              	.LBB616:
 1717              		.loc 6 356 3 view .LVU427
 1718              	.LBB614:
 1719              	.LBI614:
 1720              		.loc 6 341 25 view .LVU428
 1721              	.LBB615:
 1722              		.loc 6 343 3 view .LVU429
 1723              	.LBE615:
 1724              	.LBE614:
 1725              	.LBE616:
ARM GAS  /tmp/ccuqlnP4.s 			page 32


 1726              	.LBE617:
 1727              		.loc 1 676 18 is_stmt 0 view .LVU430
 1728 0040 9A68     		ldr	r2, [r3, #8]
 1729 0042 6868     		ldr	r0, [r5, #4]
 1730 0044 0096     		str	r6, [sp]
 1731 0046 3B46     		mov	r3, r7
 1732 0048 013A     		subs	r2, r2, #1
 1733 004a 4FF4B871 		mov	r1, #368
 1734 004e FFF7FEFF 		bl	chThdCreateStatic
 1735              	.LVL103:
 1736              	.LBB618:
 1737              	.LBB619:
 1738              		.loc 6 356 37 view .LVU431
 1739 0052 D8F80C30 		ldr	r3, [r8, #12]
 1740              	.LBE619:
 1741              	.LBE618:
 1742              		.loc 1 676 16 view .LVU432
 1743 0056 6060     		str	r0, [r4, #4]
 1744              		.loc 1 677 5 is_stmt 1 view .LVU433
 1745              	.LBB623:
 1746              	.LBI618:
 1747              		.loc 6 354 23 view .LVU434
 1748              	.LBB622:
 1749              		.loc 6 356 3 view .LVU435
 1750              	.LBB620:
 1751              	.LBI620:
 1752              		.loc 6 341 25 view .LVU436
 1753              	.LBB621:
 1754              		.loc 6 343 3 view .LVU437
 1755              	.LBE621:
 1756              	.LBE620:
 1757              	.LBE622:
 1758              	.LBE623:
 1759              		.loc 1 677 18 is_stmt 0 view .LVU438
 1760 0058 9A68     		ldr	r2, [r3, #8]
 1761 005a A868     		ldr	r0, [r5, #8]
 1762 005c 0096     		str	r6, [sp]
 1763 005e 3B46     		mov	r3, r7
 1764 0060 013A     		subs	r2, r2, #1
 1765 0062 4FF4B871 		mov	r1, #368
 1766 0066 FFF7FEFF 		bl	chThdCreateStatic
 1767              	.LVL104:
 1768              	.LBB624:
 1769              	.LBB625:
 1770              		.loc 6 356 37 view .LVU439
 1771 006a D8F80C30 		ldr	r3, [r8, #12]
 1772              	.LBE625:
 1773              	.LBE624:
 1774              		.loc 1 677 16 view .LVU440
 1775 006e A060     		str	r0, [r4, #8]
 1776              		.loc 1 678 5 is_stmt 1 view .LVU441
 1777              	.LBB629:
 1778              	.LBI624:
 1779              		.loc 6 354 23 view .LVU442
 1780              	.LBB628:
 1781              		.loc 6 356 3 view .LVU443
 1782              	.LBB626:
ARM GAS  /tmp/ccuqlnP4.s 			page 33


 1783              	.LBI626:
 1784              		.loc 6 341 25 view .LVU444
 1785              	.LBB627:
 1786              		.loc 6 343 3 view .LVU445
 1787              	.LBE627:
 1788              	.LBE626:
 1789              	.LBE628:
 1790              	.LBE629:
 1791              		.loc 1 678 18 is_stmt 0 view .LVU446
 1792 0070 9A68     		ldr	r2, [r3, #8]
 1793 0072 E868     		ldr	r0, [r5, #12]
 1794 0074 0096     		str	r6, [sp]
 1795 0076 3B46     		mov	r3, r7
 1796 0078 013A     		subs	r2, r2, #1
 1797 007a 4FF4B871 		mov	r1, #368
 1798 007e FFF7FEFF 		bl	chThdCreateStatic
 1799              	.LVL105:
 1800              	.LBB630:
 1801              	.LBB631:
 1802              		.loc 6 356 37 view .LVU447
 1803 0082 D8F80C20 		ldr	r2, [r8, #12]
 1804              	.LBE631:
 1805              	.LBE630:
 1806              		.loc 1 678 16 view .LVU448
 1807 0086 E060     		str	r0, [r4, #12]
 1808              		.loc 1 679 5 is_stmt 1 view .LVU449
 1809              	.LBB635:
 1810              	.LBI630:
 1811              		.loc 6 354 23 view .LVU450
 1812              	.LBB634:
 1813              		.loc 6 356 3 view .LVU451
 1814              	.LBB632:
 1815              	.LBI632:
 1816              		.loc 6 341 25 view .LVU452
 1817              	.LBB633:
 1818              		.loc 6 343 3 view .LVU453
 1819              	.LBE633:
 1820              	.LBE632:
 1821              	.LBE634:
 1822              	.LBE635:
 1823              		.loc 1 679 18 is_stmt 0 view .LVU454
 1824 0088 9268     		ldr	r2, [r2, #8]
 1825 008a 2869     		ldr	r0, [r5, #16]
 1826 008c 0096     		str	r6, [sp]
 1827 008e 4FF4B871 		mov	r1, #368
 1828 0092 3B46     		mov	r3, r7
 1829 0094 013A     		subs	r2, r2, #1
 1830 0096 FFF7FEFF 		bl	chThdCreateStatic
 1831              	.LVL106:
 1832              		.loc 1 684 3 view .LVU455
 1833 009a 0223     		movs	r3, #2
 1834              		.loc 1 679 18 view .LVU456
 1835 009c 0246     		mov	r2, r0
 1836              		.loc 1 686 5 view .LVU457
 1837 009e 42F21070 		movw	r0, #10000
 1838              		.loc 1 679 16 view .LVU458
 1839 00a2 2261     		str	r2, [r4, #16]
ARM GAS  /tmp/ccuqlnP4.s 			page 34


 1840              		.loc 1 681 3 is_stmt 1 view .LVU459
 1841              		.loc 1 681 19 view .LVU460
 1842              		.loc 1 684 3 view .LVU461
 1843 00a4 C9F80030 		str	r3, [r9]
 1844              		.loc 1 686 5 view .LVU462
 1845 00a8 FFF7FEFF 		bl	chThdSleep
 1846              	.LVL107:
 1847              		.loc 1 687 5 view .LVU463
 1848 00ac FFF7FEFF 		bl	test_terminate_threads
 1849              	.LVL108:
 1850              		.loc 1 688 5 view .LVU464
 1851 00b0 FFF7FEFF 		bl	test_wait_threads
 1852              	.LVL109:
 1853              		.loc 1 690 3 view .LVU465
 1854              		.loc 1 690 19 view .LVU466
 1855              		.loc 1 693 3 view .LVU467
 1856 00b4 0323     		movs	r3, #3
 1857              	.LBB636:
 1858              	.LBB637:
 1859              		.loc 2 371 3 is_stmt 0 view .LVU468
 1860 00b6 0D49     		ldr	r1, .L44+20
 1861 00b8 0D48     		ldr	r0, .L44+24
 1862              	.LBE637:
 1863              	.LBE636:
 1864              		.loc 1 693 3 view .LVU469
 1865 00ba C9F80030 		str	r3, [r9]
 1866              		.loc 1 695 5 is_stmt 1 view .LVU470
 1867              	.LVL110:
 1868              	.LBB639:
 1869              	.LBI636:
 1870              		.loc 2 369 20 view .LVU471
 1871              	.LBB638:
 1872              		.loc 2 371 3 view .LVU472
 1873 00be FFF7FEFF 		bl	test_printf
 1874              	.LVL111:
 1875              		.loc 2 371 3 is_stmt 0 view .LVU473
 1876              	.LBE638:
 1877              	.LBE639:
 1878              		.loc 1 696 5 is_stmt 1 view .LVU474
 1879              	.LBB640:
 1880              	.LBI640:
 1881              		.loc 2 357 20 view .LVU475
 1882              	.LBB641:
 1883              		.loc 2 359 3 view .LVU476
 1884 00c2 0399     		ldr	r1, [sp, #12]
 1885 00c4 0B48     		ldr	r0, .L44+28
 1886 00c6 FFF7FEFF 		bl	test_printf
 1887              	.LVL112:
 1888              		.loc 2 359 3 is_stmt 0 view .LVU477
 1889              	.LBE641:
 1890              	.LBE640:
 1891              		.loc 1 697 5 is_stmt 1 view .LVU478
 1892              	.LBB642:
 1893              	.LBI642:
 1894              		.loc 2 381 20 view .LVU479
 1895              	.LBB643:
 1896              		.loc 2 383 3 view .LVU480
ARM GAS  /tmp/ccuqlnP4.s 			page 35


 1897 00ca 0B49     		ldr	r1, .L44+32
 1898 00cc 0B48     		ldr	r0, .L44+36
 1899 00ce FFF7FEFF 		bl	test_printf
 1900              	.LVL113:
 1901              		.loc 2 383 3 is_stmt 0 view .LVU481
 1902              	.LBE643:
 1903              	.LBE642:
 1904              		.loc 1 699 3 is_stmt 1 view .LVU482
 1905              		.loc 1 699 19 view .LVU483
 1906              		.loc 1 700 1 is_stmt 0 view .LVU484
 1907 00d2 05B0     		add	sp, sp, #20
 1908              		.cfi_def_cfa_offset 28
 1909              		@ sp needed
 1910 00d4 BDE8F083 		pop	{r4, r5, r6, r7, r8, r9, pc}
 1911              	.L45:
 1912              		.align	2
 1913              	.L44:
 1914 00d8 00000000 		.word	ch0
 1915 00dc 00000000 		.word	chtest
 1916 00e0 00000000 		.word	bmk_thread8
 1917 00e4 00000000 		.word	wa
 1918 00e8 00000000 		.word	threads
 1919 00ec 00000000 		.word	.LC13
 1920 00f0 10000000 		.word	.LC1
 1921 00f4 14000000 		.word	.LC2
 1922 00f8 00000000 		.word	.LC17
 1923 00fc 20000000 		.word	.LC4
 1924              		.cfi_endproc
 1925              	.LFE419:
 1926              		.size	rt_test_012_008_execute, .-rt_test_012_008_execute
 1927              		.section	.text.bmk_thread8,"ax",%progbits
 1928              		.align	1
 1929              		.p2align 4,,15
 1930              		.syntax unified
 1931              		.thumb
 1932              		.thumb_func
 1933              		.fpu softvfp
 1934              		.type	bmk_thread8, %function
 1935              	bmk_thread8:
 1936              	.LVL114:
 1937              	.LFB410:
 1938              		.loc 1 127 37 is_stmt 1 view -0
 1939              		.cfi_startproc
 1940              		@ args = 0, pretend = 0, frame = 0
 1941              		@ frame_needed = 0, uses_anonymous_args = 0
 1942              		.loc 1 127 37 is_stmt 0 view .LVU486
 1943 0000 38B5     		push	{r3, r4, r5, lr}
 1944              		.cfi_def_cfa_offset 16
 1945              		.cfi_offset 3, -16
 1946              		.cfi_offset 4, -12
 1947              		.cfi_offset 5, -8
 1948              		.cfi_offset 14, -4
 1949 0002 094D     		ldr	r5, .L51
 1950              		.loc 1 127 37 view .LVU487
 1951 0004 0446     		mov	r4, r0
 1952              	.LVL115:
 1953              	.L47:
ARM GAS  /tmp/ccuqlnP4.s 			page 36


 1954              		.loc 1 129 3 is_stmt 1 discriminator 1 view .LVU488
 1955              		.loc 1 130 5 discriminator 1 view .LVU489
 1956 0006 FFF7FEFF 		bl	chThdYield
 1957              	.LVL116:
 1958              		.loc 1 131 5 discriminator 1 view .LVU490
 1959 000a FFF7FEFF 		bl	chThdYield
 1960              	.LVL117:
 1961              		.loc 1 132 5 discriminator 1 view .LVU491
 1962 000e FFF7FEFF 		bl	chThdYield
 1963              	.LVL118:
 1964              		.loc 1 133 5 discriminator 1 view .LVU492
 1965 0012 FFF7FEFF 		bl	chThdYield
 1966              	.LVL119:
 1967              		.loc 1 134 5 discriminator 1 view .LVU493
 1968              		.loc 1 134 22 is_stmt 0 discriminator 1 view .LVU494
 1969 0016 2368     		ldr	r3, [r4]
 1970              	.LBB644:
 1971              	.LBB645:
 1972              		.loc 6 416 33 discriminator 1 view .LVU495
 1973 0018 EA68     		ldr	r2, [r5, #12]
 1974              	.LBE645:
 1975              	.LBE644:
 1976              		.loc 1 134 22 discriminator 1 view .LVU496
 1977 001a 0433     		adds	r3, r3, #4
 1978 001c 2360     		str	r3, [r4]
 1979              		.loc 1 138 10 is_stmt 1 discriminator 1 view .LVU497
 1980              	.LBB649:
 1981              	.LBI644:
 1982              		.loc 6 414 20 discriminator 1 view .LVU498
 1983              	.LBB648:
 1984              		.loc 6 416 3 discriminator 1 view .LVU499
 1985              	.LBB646:
 1986              	.LBI646:
 1987              		.loc 6 341 25 discriminator 1 view .LVU500
 1988              	.LBB647:
 1989              		.loc 6 343 3 discriminator 1 view .LVU501
 1990              	.LBE647:
 1991              	.LBE646:
 1992              	.LBE648:
 1993              	.LBE649:
 1994              		.loc 1 138 3 is_stmt 0 discriminator 1 view .LVU502
 1995 001e 92F82530 		ldrb	r3, [r2, #37]	@ zero_extendqisi2
 1996 0022 5B07     		lsls	r3, r3, #29
 1997 0024 EFD5     		bpl	.L47
 1998              		.loc 1 139 1 view .LVU503
 1999 0026 38BD     		pop	{r3, r4, r5, pc}
 2000              	.LVL120:
 2001              	.L52:
 2002              		.loc 1 139 1 view .LVU504
 2003              		.align	2
 2004              	.L51:
 2005 0028 00000000 		.word	ch0
 2006              		.cfi_endproc
 2007              	.LFE410:
 2008              		.size	bmk_thread8, .-bmk_thread8
 2009              		.section	.rodata.rt_test_012_007_execute.str1.4,"aMS",%progbits,1
 2010              		.align	2
ARM GAS  /tmp/ccuqlnP4.s 			page 37


 2011              	.LC18:
 2012 0000 20726573 		.ascii	" reschedules/S, \000"
 2012      63686564 
 2012      756C6573 
 2012      2F532C20 
 2012      00
 2013              		.section	.text.rt_test_012_007_execute,"ax",%progbits
 2014              		.align	1
 2015              		.p2align 4,,15
 2016              		.syntax unified
 2017              		.thumb
 2018              		.thumb_func
 2019              		.fpu softvfp
 2020              		.type	rt_test_012_007_execute, %function
 2021              	rt_test_012_007_execute:
 2022              	.LFB418:
 2023              		.loc 1 584 43 is_stmt 1 view -0
 2024              		.cfi_startproc
 2025              		@ args = 0, pretend = 0, frame = 0
 2026              		@ frame_needed = 0, uses_anonymous_args = 0
 2027              		.loc 1 585 3 view .LVU506
 2028              		.loc 1 589 3 view .LVU507
 2029              		.loc 1 584 43 is_stmt 0 view .LVU508
 2030 0000 2DE9F041 		push	{r4, r5, r6, r7, r8, lr}
 2031              		.cfi_def_cfa_offset 24
 2032              		.cfi_offset 4, -24
 2033              		.cfi_offset 5, -20
 2034              		.cfi_offset 6, -16
 2035              		.cfi_offset 7, -12
 2036              		.cfi_offset 8, -8
 2037              		.cfi_offset 14, -4
 2038              	.LBB650:
 2039              	.LBB651:
 2040              	.LBB652:
 2041              	.LBB653:
 2042              		.loc 6 343 10 view .LVU509
 2043 0004 DFF80081 		ldr	r8, .L57
 2044              	.LBE653:
 2045              	.LBE652:
 2046              	.LBE651:
 2047              	.LBE650:
 2048              		.loc 1 591 18 view .LVU510
 2049 0008 404E     		ldr	r6, .L57+4
 2050              	.LBB658:
 2051              	.LBB656:
 2052              		.loc 6 356 37 view .LVU511
 2053 000a D8F80C30 		ldr	r3, [r8, #12]
 2054              	.LBE656:
 2055              	.LBE658:
 2056              		.loc 1 589 3 view .LVU512
 2057 000e 404F     		ldr	r7, .L57+8
 2058              		.loc 1 591 18 view .LVU513
 2059 0010 9A68     		ldr	r2, [r3, #8]
 2060 0012 3068     		ldr	r0, [r6]
 2061 0014 3F4B     		ldr	r3, .L57+12
 2062              		.loc 1 584 43 view .LVU514
 2063 0016 82B0     		sub	sp, sp, #8
ARM GAS  /tmp/ccuqlnP4.s 			page 38


 2064              		.cfi_def_cfa_offset 32
 2065              		.loc 1 591 18 view .LVU515
 2066 0018 0024     		movs	r4, #0
 2067 001a 0532     		adds	r2, r2, #5
 2068 001c 4FF4B871 		mov	r1, #368
 2069              		.loc 1 589 3 view .LVU516
 2070 0020 0125     		movs	r5, #1
 2071              		.loc 1 591 18 view .LVU517
 2072 0022 0094     		str	r4, [sp]
 2073              		.loc 1 589 3 view .LVU518
 2074 0024 3D60     		str	r5, [r7]
 2075              		.loc 1 591 5 is_stmt 1 view .LVU519
 2076              	.LBB659:
 2077              	.LBI650:
 2078              		.loc 6 354 23 view .LVU520
 2079              	.LBB657:
 2080              		.loc 6 356 3 view .LVU521
 2081              	.LBB655:
 2082              	.LBI652:
 2083              		.loc 6 341 25 view .LVU522
 2084              	.LBB654:
 2085              		.loc 6 343 3 view .LVU523
 2086              	.LBE654:
 2087              	.LBE655:
 2088              	.LBE657:
 2089              	.LBE659:
 2090              		.loc 1 591 18 is_stmt 0 view .LVU524
 2091 0026 FFF7FEFF 		bl	chThdCreateStatic
 2092              	.LVL121:
 2093              	.LBB660:
 2094              	.LBB661:
 2095              		.loc 6 356 37 view .LVU525
 2096 002a D8F80C30 		ldr	r3, [r8, #12]
 2097              	.LBE661:
 2098              	.LBE660:
 2099              		.loc 1 591 16 view .LVU526
 2100 002e 3A4D     		ldr	r5, .L57+16
 2101              		.loc 1 592 18 view .LVU527
 2102 0030 9A68     		ldr	r2, [r3, #8]
 2103 0032 384B     		ldr	r3, .L57+12
 2104 0034 0094     		str	r4, [sp]
 2105 0036 0432     		adds	r2, r2, #4
 2106              		.loc 1 591 16 view .LVU528
 2107 0038 2860     		str	r0, [r5]
 2108              		.loc 1 592 5 is_stmt 1 view .LVU529
 2109              	.LBB665:
 2110              	.LBI660:
 2111              		.loc 6 354 23 view .LVU530
 2112              	.LBB664:
 2113              		.loc 6 356 3 view .LVU531
 2114              	.LBB662:
 2115              	.LBI662:
 2116              		.loc 6 341 25 view .LVU532
 2117              	.LBB663:
 2118              		.loc 6 343 3 view .LVU533
 2119              	.LBE663:
 2120              	.LBE662:
ARM GAS  /tmp/ccuqlnP4.s 			page 39


 2121              	.LBE664:
 2122              	.LBE665:
 2123              		.loc 1 592 18 is_stmt 0 view .LVU534
 2124 003a 4FF4B871 		mov	r1, #368
 2125 003e 7068     		ldr	r0, [r6, #4]
 2126 0040 FFF7FEFF 		bl	chThdCreateStatic
 2127              	.LVL122:
 2128              	.LBB666:
 2129              	.LBB667:
 2130              		.loc 6 356 37 view .LVU535
 2131 0044 D8F80C30 		ldr	r3, [r8, #12]
 2132              	.LBE667:
 2133              	.LBE666:
 2134              		.loc 1 592 16 view .LVU536
 2135 0048 6860     		str	r0, [r5, #4]
 2136              		.loc 1 593 5 is_stmt 1 view .LVU537
 2137              	.LBB671:
 2138              	.LBI666:
 2139              		.loc 6 354 23 view .LVU538
 2140              	.LBB670:
 2141              		.loc 6 356 3 view .LVU539
 2142              	.LBB668:
 2143              	.LBI668:
 2144              		.loc 6 341 25 view .LVU540
 2145              	.LBB669:
 2146              		.loc 6 343 3 view .LVU541
 2147              	.LBE669:
 2148              	.LBE668:
 2149              	.LBE670:
 2150              	.LBE671:
 2151              		.loc 1 593 18 is_stmt 0 view .LVU542
 2152 004a 9A68     		ldr	r2, [r3, #8]
 2153 004c B068     		ldr	r0, [r6, #8]
 2154 004e 314B     		ldr	r3, .L57+12
 2155 0050 0094     		str	r4, [sp]
 2156 0052 0332     		adds	r2, r2, #3
 2157 0054 4FF4B871 		mov	r1, #368
 2158 0058 FFF7FEFF 		bl	chThdCreateStatic
 2159              	.LVL123:
 2160              	.LBB672:
 2161              	.LBB673:
 2162              		.loc 6 356 37 view .LVU543
 2163 005c D8F80C30 		ldr	r3, [r8, #12]
 2164              	.LBE673:
 2165              	.LBE672:
 2166              		.loc 1 593 16 view .LVU544
 2167 0060 A860     		str	r0, [r5, #8]
 2168              		.loc 1 594 5 is_stmt 1 view .LVU545
 2169              	.LBB677:
 2170              	.LBI672:
 2171              		.loc 6 354 23 view .LVU546
 2172              	.LBB676:
 2173              		.loc 6 356 3 view .LVU547
 2174              	.LBB674:
 2175              	.LBI674:
 2176              		.loc 6 341 25 view .LVU548
 2177              	.LBB675:
ARM GAS  /tmp/ccuqlnP4.s 			page 40


 2178              		.loc 6 343 3 view .LVU549
 2179              	.LBE675:
 2180              	.LBE674:
 2181              	.LBE676:
 2182              	.LBE677:
 2183              		.loc 1 594 18 is_stmt 0 view .LVU550
 2184 0062 9A68     		ldr	r2, [r3, #8]
 2185 0064 F068     		ldr	r0, [r6, #12]
 2186 0066 2B4B     		ldr	r3, .L57+12
 2187 0068 0094     		str	r4, [sp]
 2188 006a 0232     		adds	r2, r2, #2
 2189 006c 4FF4B871 		mov	r1, #368
 2190 0070 FFF7FEFF 		bl	chThdCreateStatic
 2191              	.LVL124:
 2192              	.LBB678:
 2193              	.LBB679:
 2194              		.loc 6 356 37 view .LVU551
 2195 0074 D8F80C30 		ldr	r3, [r8, #12]
 2196              	.LBE679:
 2197              	.LBE678:
 2198              		.loc 1 594 16 view .LVU552
 2199 0078 E860     		str	r0, [r5, #12]
 2200              		.loc 1 595 5 is_stmt 1 view .LVU553
 2201              	.LBB683:
 2202              	.LBI678:
 2203              		.loc 6 354 23 view .LVU554
 2204              	.LBB682:
 2205              		.loc 6 356 3 view .LVU555
 2206              	.LBB680:
 2207              	.LBI680:
 2208              		.loc 6 341 25 view .LVU556
 2209              	.LBB681:
 2210              		.loc 6 343 3 view .LVU557
 2211              	.LBE681:
 2212              	.LBE680:
 2213              	.LBE682:
 2214              	.LBE683:
 2215              		.loc 1 595 18 is_stmt 0 view .LVU558
 2216 007a 9A68     		ldr	r2, [r3, #8]
 2217 007c 3069     		ldr	r0, [r6, #16]
 2218 007e 254B     		ldr	r3, .L57+12
 2219 0080 0094     		str	r4, [sp]
 2220 0082 0132     		adds	r2, r2, #1
 2221 0084 4FF4B871 		mov	r1, #368
 2222 0088 FFF7FEFF 		bl	chThdCreateStatic
 2223              	.LVL125:
 2224              		.loc 1 601 3 view .LVU559
 2225 008c 0223     		movs	r3, #2
 2226              		.loc 1 595 16 view .LVU560
 2227 008e 2861     		str	r0, [r5, #16]
 2228              		.loc 1 597 3 is_stmt 1 view .LVU561
 2229              		.loc 1 597 19 view .LVU562
 2230              		.loc 1 601 3 view .LVU563
 2231 0090 3B60     		str	r3, [r7]
 2232              	.LBB684:
 2233              		.loc 1 603 5 view .LVU564
 2234              		.loc 1 605 5 view .LVU565
ARM GAS  /tmp/ccuqlnP4.s 			page 41


 2235              	.LVL126:
 2236              		.loc 1 606 5 view .LVU566
 2237              		.loc 1 606 13 is_stmt 0 view .LVU567
 2238 0092 FFF7FEFF 		bl	test_wait_tick
 2239              	.LVL127:
 2240              	.LBB685:
 2241              	.LBB686:
 2242              		.file 10 "../ChibiOS/os/rt/include/chsem.h"
 2243              		.loc 10 125 3 view .LVU568
 2244 0096 214E     		ldr	r6, .L57+20
 2245              	.LBE686:
 2246              	.LBE685:
 2247              		.loc 1 606 13 view .LVU569
 2248 0098 0546     		mov	r5, r0
 2249              	.LVL128:
 2250              		.loc 1 607 5 is_stmt 1 view .LVU570
 2251              		.loc 1 607 5 is_stmt 0 view .LVU571
 2252              	.LBE684:
 2253              		.loc 3 449 3 is_stmt 1 view .LVU572
 2254              	.L54:
 2255              	.LBB705:
 2256              		.loc 1 608 5 discriminator 1 view .LVU573
 2257              		.loc 1 609 7 discriminator 1 view .LVU574
 2258              	.LBB688:
 2259              	.LBI685:
 2260              		.loc 10 123 20 discriminator 1 view .LVU575
 2261              	.LBB687:
 2262              		.loc 10 125 3 discriminator 1 view .LVU576
 2263 009a 6FF00102 		mvn	r2, #1
 2264 009e 0021     		movs	r1, #0
 2265 00a0 3046     		mov	r0, r6
 2266 00a2 FFF7FEFF 		bl	chSemResetWithMessage
 2267              	.LVL129:
 2268              		.loc 10 125 3 is_stmt 0 discriminator 1 view .LVU577
 2269              	.LBE687:
 2270              	.LBE688:
 2271              		.loc 1 610 7 is_stmt 1 discriminator 1 view .LVU578
 2272              	.LBB689:
 2273              	.LBB690:
 2274              	.LBB691:
 2275              	.LBB692:
 2276              		.loc 4 113 10 is_stmt 0 discriminator 1 view .LVU579
 2277 00a6 FFF7FEFF 		bl	stGetCounter
 2278              	.LVL130:
 2279              	.LBE692:
 2280              	.LBE691:
 2281              	.LBE690:
 2282              	.LBE689:
 2283              		.loc 1 614 5 discriminator 1 view .LVU580
 2284 00aa 42F20F73 		movw	r3, #9999
 2285              	.LBB701:
 2286              	.LBB695:
 2287              	.LBB696:
 2288              		.loc 3 488 17 discriminator 1 view .LVU581
 2289 00ae 401B     		subs	r0, r0, r5
 2290              	.LBE696:
 2291              	.LBE695:
ARM GAS  /tmp/ccuqlnP4.s 			page 42


 2292              	.LBE701:
 2293              		.loc 1 614 5 discriminator 1 view .LVU582
 2294 00b0 9842     		cmp	r0, r3
 2295              		.loc 1 610 8 discriminator 1 view .LVU583
 2296 00b2 04F10104 		add	r4, r4, #1
 2297              	.LVL131:
 2298              		.loc 1 614 13 is_stmt 1 discriminator 1 view .LVU584
 2299              	.LBB702:
 2300              	.LBI689:
 2301              		.loc 5 177 20 discriminator 1 view .LVU585
 2302              	.LBE702:
 2303              	.LBE705:
 2304              		.loc 5 179 3 discriminator 1 view .LVU586
 2305              	.LBB706:
 2306              	.LBB703:
 2307              	.LBB698:
 2308              	.LBI690:
 2309              		.loc 5 122 25 discriminator 1 view .LVU587
 2310              	.LBE698:
 2311              	.LBE703:
 2312              	.LBE706:
 2313              		.loc 5 127 3 discriminator 1 view .LVU588
 2314              	.LBB707:
 2315              	.LBB704:
 2316              	.LBB699:
 2317              	.LBB694:
 2318              	.LBI691:
 2319              		.loc 4 111 25 discriminator 1 view .LVU589
 2320              	.LBB693:
 2321              		.loc 4 113 3 discriminator 1 view .LVU590
 2322              		.loc 4 113 3 is_stmt 0 discriminator 1 view .LVU591
 2323              	.LBE693:
 2324              	.LBE694:
 2325              	.LBE699:
 2326              	.LBB700:
 2327              	.LBI695:
 2328              		.loc 3 484 20 is_stmt 1 discriminator 1 view .LVU592
 2329              	.LBB697:
 2330              		.loc 3 488 3 discriminator 1 view .LVU593
 2331              		.loc 3 488 3 is_stmt 0 discriminator 1 view .LVU594
 2332              	.LBE697:
 2333              	.LBE700:
 2334              	.LBE704:
 2335              		.loc 1 614 5 discriminator 1 view .LVU595
 2336 00b6 F0D9     		bls	.L54
 2337              	.LBE707:
 2338              		.loc 1 616 3 is_stmt 1 view .LVU596
 2339              		.loc 1 616 19 view .LVU597
 2340              		.loc 1 619 3 view .LVU598
 2341 00b8 0323     		movs	r3, #3
 2342 00ba 3B60     		str	r3, [r7]
 2343              		.loc 1 621 5 view .LVU599
 2344 00bc FFF7FEFF 		bl	test_terminate_threads
 2345              	.LVL132:
 2346              		.loc 1 622 5 view .LVU600
 2347              	.LBB708:
 2348              	.LBI708:
ARM GAS  /tmp/ccuqlnP4.s 			page 43


 2349              		.loc 10 123 20 view .LVU601
 2350              	.LBB709:
 2351              		.loc 10 125 3 view .LVU602
 2352 00c0 6FF00102 		mvn	r2, #1
 2353 00c4 1548     		ldr	r0, .L57+20
 2354 00c6 0021     		movs	r1, #0
 2355 00c8 FFF7FEFF 		bl	chSemResetWithMessage
 2356              	.LVL133:
 2357              		.loc 10 125 3 is_stmt 0 view .LVU603
 2358              	.LBE709:
 2359              	.LBE708:
 2360              		.loc 1 623 5 is_stmt 1 view .LVU604
 2361 00cc FFF7FEFF 		bl	test_wait_threads
 2362              	.LVL134:
 2363              		.loc 1 625 3 view .LVU605
 2364              		.loc 1 625 19 view .LVU606
 2365              		.loc 1 628 3 view .LVU607
 2366 00d0 0423     		movs	r3, #4
 2367              	.LBB710:
 2368              	.LBB711:
 2369              		.loc 2 371 3 is_stmt 0 view .LVU608
 2370 00d2 1349     		ldr	r1, .L57+24
 2371 00d4 1348     		ldr	r0, .L57+28
 2372              	.LBE711:
 2373              	.LBE710:
 2374              		.loc 1 628 3 view .LVU609
 2375 00d6 3B60     		str	r3, [r7]
 2376              		.loc 1 630 5 is_stmt 1 view .LVU610
 2377              	.LVL135:
 2378              	.LBB713:
 2379              	.LBI710:
 2380              		.loc 2 369 20 view .LVU611
 2381              	.LBB712:
 2382              		.loc 2 371 3 view .LVU612
 2383 00d8 FFF7FEFF 		bl	test_printf
 2384              	.LVL136:
 2385              		.loc 2 371 3 is_stmt 0 view .LVU613
 2386              	.LBE712:
 2387              	.LBE713:
 2388              		.loc 1 631 5 is_stmt 1 view .LVU614
 2389              	.LBB714:
 2390              	.LBI714:
 2391              		.loc 2 357 20 view .LVU615
 2392              	.LBB715:
 2393              		.loc 2 359 3 view .LVU616
 2394 00dc 2146     		mov	r1, r4
 2395 00de 1248     		ldr	r0, .L57+32
 2396 00e0 FFF7FEFF 		bl	test_printf
 2397              	.LVL137:
 2398              		.loc 2 359 3 is_stmt 0 view .LVU617
 2399              	.LBE715:
 2400              	.LBE714:
 2401              		.loc 1 632 5 is_stmt 1 view .LVU618
 2402              	.LBB716:
 2403              	.LBI716:
 2404              		.loc 2 369 20 view .LVU619
 2405              	.LBB717:
ARM GAS  /tmp/ccuqlnP4.s 			page 44


 2406              		.loc 2 371 3 view .LVU620
 2407              	.LBE717:
 2408              	.LBE716:
 2409              		.loc 1 633 5 is_stmt 0 view .LVU621
 2410 00e4 04EB4404 		add	r4, r4, r4, lsl #1
 2411              	.LVL138:
 2412              	.LBB719:
 2413              	.LBB718:
 2414              		.loc 2 371 3 view .LVU622
 2415 00e8 1049     		ldr	r1, .L57+36
 2416 00ea 0E48     		ldr	r0, .L57+28
 2417 00ec FFF7FEFF 		bl	test_printf
 2418              	.LVL139:
 2419              		.loc 2 371 3 view .LVU623
 2420              	.LBE718:
 2421              	.LBE719:
 2422              		.loc 1 633 5 is_stmt 1 view .LVU624
 2423              	.LBB720:
 2424              	.LBI720:
 2425              		.loc 2 357 20 view .LVU625
 2426              	.LBB721:
 2427              		.loc 2 359 3 view .LVU626
 2428 00f0 6100     		lsls	r1, r4, #1
 2429 00f2 0D48     		ldr	r0, .L57+32
 2430 00f4 FFF7FEFF 		bl	test_printf
 2431              	.LVL140:
 2432              	.LBE721:
 2433              	.LBE720:
 2434              		.loc 1 634 5 view .LVU627
 2435              	.LBB722:
 2436              	.LBI722:
 2437              		.loc 2 381 20 view .LVU628
 2438              	.LBB723:
 2439              		.loc 2 383 3 view .LVU629
 2440 00f8 0D49     		ldr	r1, .L57+40
 2441 00fa 0E48     		ldr	r0, .L57+44
 2442              	.LBE723:
 2443              	.LBE722:
 2444              		.loc 1 637 1 is_stmt 0 view .LVU630
 2445 00fc 02B0     		add	sp, sp, #8
 2446              		.cfi_def_cfa_offset 24
 2447              		@ sp needed
 2448 00fe BDE8F041 		pop	{r4, r5, r6, r7, r8, lr}
 2449              		.cfi_restore 14
 2450              		.cfi_restore 8
 2451              		.cfi_restore 7
 2452              		.cfi_restore 6
 2453              		.cfi_restore 5
 2454              		.cfi_restore 4
 2455              		.cfi_def_cfa_offset 0
 2456              	.LVL141:
 2457              	.LBB725:
 2458              	.LBB724:
 2459              		.loc 2 383 3 view .LVU631
 2460 0102 FFF7FEBF 		b	test_printf
 2461              	.LVL142:
 2462              	.L58:
ARM GAS  /tmp/ccuqlnP4.s 			page 45


 2463 0106 00BF     		.align	2
 2464              	.L57:
 2465 0108 00000000 		.word	ch0
 2466 010c 00000000 		.word	wa
 2467 0110 00000000 		.word	chtest
 2468 0114 00000000 		.word	bmk_thread7
 2469 0118 00000000 		.word	threads
 2470 011c 00000000 		.word	.LANCHOR1
 2471 0120 00000000 		.word	.LC13
 2472 0124 10000000 		.word	.LC1
 2473 0128 14000000 		.word	.LC2
 2474 012c 00000000 		.word	.LC18
 2475 0130 00000000 		.word	.LC17
 2476 0134 20000000 		.word	.LC4
 2477              	.LBE724:
 2478              	.LBE725:
 2479              		.cfi_endproc
 2480              	.LFE418:
 2481              		.size	rt_test_012_007_execute, .-rt_test_012_007_execute
 2482              		.section	.rodata.rt_test_012_006_execute.str1.4,"aMS",%progbits,1
 2483              		.align	2
 2484              	.LC19:
 2485 0000 20746872 		.ascii	" threads/S\000"
 2485      65616473 
 2485      2F5300
 2486              		.section	.text.rt_test_012_006_execute,"ax",%progbits
 2487              		.align	1
 2488              		.p2align 4,,15
 2489              		.syntax unified
 2490              		.thumb
 2491              		.thumb_func
 2492              		.fpu softvfp
 2493              		.type	rt_test_012_006_execute, %function
 2494              	rt_test_012_006_execute:
 2495              	.LFB416:
 2496              		.loc 1 510 43 is_stmt 1 view -0
 2497              		.cfi_startproc
 2498              		@ args = 0, pretend = 0, frame = 0
 2499              		@ frame_needed = 0, uses_anonymous_args = 0
 2500              		.loc 1 511 3 view .LVU633
 2501              		.loc 1 512 3 view .LVU634
 2502              	.LBB726:
 2503              	.LBI726:
 2504              		.loc 6 354 23 view .LVU635
 2505              	.LBB727:
 2506              		.loc 6 356 3 view .LVU636
 2507              	.LBB728:
 2508              	.LBI728:
 2509              		.loc 6 341 25 view .LVU637
 2510              	.LBB729:
 2511              		.loc 6 343 3 view .LVU638
 2512              	.LBE729:
 2513              	.LBE728:
 2514              	.LBE727:
 2515              	.LBE726:
 2516              		.loc 1 510 43 is_stmt 0 view .LVU639
 2517 0000 2DE9F047 		push	{r4, r5, r6, r7, r8, r9, r10, lr}
ARM GAS  /tmp/ccuqlnP4.s 			page 46


 2518              		.cfi_def_cfa_offset 32
 2519              		.cfi_offset 4, -32
 2520              		.cfi_offset 5, -28
 2521              		.cfi_offset 6, -24
 2522              		.cfi_offset 7, -20
 2523              		.cfi_offset 8, -16
 2524              		.cfi_offset 9, -12
 2525              		.cfi_offset 10, -8
 2526              		.cfi_offset 14, -4
 2527              	.LBB734:
 2528              	.LBB732:
 2529              	.LBB731:
 2530              	.LBB730:
 2531              		.loc 6 343 10 view .LVU640
 2532 0004 1C4B     		ldr	r3, .L63
 2533              	.LBE730:
 2534              	.LBE731:
 2535              	.LBE732:
 2536              	.LBE734:
 2537              		.loc 1 518 3 view .LVU641
 2538 0006 DFF87490 		ldr	r9, .L63+4
 2539              	.LBB735:
 2540              	.LBB733:
 2541              		.loc 6 356 37 view .LVU642
 2542 000a DA68     		ldr	r2, [r3, #12]
 2543              	.LBE733:
 2544              	.LBE735:
 2545              		.loc 1 525 7 view .LVU643
 2546 000c DFF870A0 		ldr	r10, .L63+8
 2547              		.loc 1 512 11 view .LVU644
 2548 0010 9668     		ldr	r6, [r2, #8]
 2549              		.loc 1 518 3 view .LVU645
 2550 0012 0123     		movs	r3, #1
 2551              		.loc 1 510 43 view .LVU646
 2552 0014 82B0     		sub	sp, sp, #8
 2553              		.cfi_def_cfa_offset 40
 2554              		.loc 1 518 3 view .LVU647
 2555 0016 C9F80030 		str	r3, [r9]
 2556              		.loc 1 512 11 view .LVU648
 2557 001a 1E44     		add	r6, r6, r3
 2558              	.LVL143:
 2559              		.loc 1 513 3 is_stmt 1 view .LVU649
 2560              		.loc 1 518 3 view .LVU650
 2561              		.loc 1 520 5 view .LVU651
 2562              		.loc 1 521 5 view .LVU652
 2563              		.loc 1 521 13 is_stmt 0 view .LVU653
 2564 001c FFF7FEFF 		bl	test_wait_tick
 2565              	.LVL144:
 2566              		.loc 1 525 7 view .LVU654
 2567 0020 184B     		ldr	r3, .L63+12
 2568              		.loc 1 520 7 view .LVU655
 2569 0022 0024     		movs	r4, #0
 2570              		.loc 1 525 7 view .LVU656
 2571 0024 D3F80080 		ldr	r8, [r3]
 2572              		.loc 1 521 13 view .LVU657
 2573 0028 0546     		mov	r5, r0
 2574              	.LVL145:
ARM GAS  /tmp/ccuqlnP4.s 			page 47


 2575              		.loc 1 522 5 is_stmt 1 view .LVU658
 2576              		.loc 3 449 3 view .LVU659
 2577              		.loc 1 525 7 is_stmt 0 view .LVU660
 2578 002a 2746     		mov	r7, r4
 2579              	.LVL146:
 2580              	.L60:
 2581              		.loc 1 523 5 is_stmt 1 discriminator 1 view .LVU661
 2582              		.loc 1 525 7 discriminator 1 view .LVU662
 2583 002c 5346     		mov	r3, r10
 2584 002e 3246     		mov	r2, r6
 2585 0030 4FF4B871 		mov	r1, #368
 2586 0034 0097     		str	r7, [sp]
 2587 0036 4046     		mov	r0, r8
 2588 0038 FFF7FEFF 		bl	chThdCreateStatic
 2589              	.LVL147:
 2590 003c FFF7FEFF 		bl	chThdRelease
 2591              	.LVL148:
 2592              		.loc 1 529 7 discriminator 1 view .LVU663
 2593              	.LBB736:
 2594              	.LBB737:
 2595              	.LBB738:
 2596              	.LBB739:
 2597              		.loc 4 113 10 is_stmt 0 discriminator 1 view .LVU664
 2598 0040 FFF7FEFF 		bl	stGetCounter
 2599              	.LVL149:
 2600              	.LBE739:
 2601              	.LBE738:
 2602              	.LBE737:
 2603              	.LBE736:
 2604              		.loc 1 533 5 discriminator 1 view .LVU665
 2605 0044 42F20F73 		movw	r3, #9999
 2606              	.LBB748:
 2607              	.LBB742:
 2608              	.LBB743:
 2609              		.loc 3 488 17 discriminator 1 view .LVU666
 2610 0048 401B     		subs	r0, r0, r5
 2611              	.LBE743:
 2612              	.LBE742:
 2613              	.LBE748:
 2614              		.loc 1 533 5 discriminator 1 view .LVU667
 2615 004a 9842     		cmp	r0, r3
 2616              		.loc 1 529 8 discriminator 1 view .LVU668
 2617 004c 04F10104 		add	r4, r4, #1
 2618              	.LVL150:
 2619              		.loc 1 533 13 is_stmt 1 discriminator 1 view .LVU669
 2620              	.LBB749:
 2621              	.LBI736:
 2622              		.loc 5 177 20 discriminator 1 view .LVU670
 2623              	.LBE749:
 2624              		.loc 5 179 3 discriminator 1 view .LVU671
 2625              	.LBB750:
 2626              	.LBB745:
 2627              	.LBI737:
 2628              		.loc 5 122 25 discriminator 1 view .LVU672
 2629              	.LBE745:
 2630              	.LBE750:
 2631              		.loc 5 127 3 discriminator 1 view .LVU673
ARM GAS  /tmp/ccuqlnP4.s 			page 48


 2632              	.LBB751:
 2633              	.LBB746:
 2634              	.LBB741:
 2635              	.LBI738:
 2636              		.loc 4 111 25 discriminator 1 view .LVU674
 2637              	.LBB740:
 2638              		.loc 4 113 3 discriminator 1 view .LVU675
 2639              		.loc 4 113 3 is_stmt 0 discriminator 1 view .LVU676
 2640              	.LBE740:
 2641              	.LBE741:
 2642              	.LBE746:
 2643              	.LBB747:
 2644              	.LBI742:
 2645              		.loc 3 484 20 is_stmt 1 discriminator 1 view .LVU677
 2646              	.LBB744:
 2647              		.loc 3 488 3 discriminator 1 view .LVU678
 2648              		.loc 3 488 3 is_stmt 0 discriminator 1 view .LVU679
 2649              	.LBE744:
 2650              	.LBE747:
 2651              	.LBE751:
 2652              		.loc 1 533 5 discriminator 1 view .LVU680
 2653 0050 ECD9     		bls	.L60
 2654              		.loc 1 535 3 is_stmt 1 view .LVU681
 2655              		.loc 1 535 19 view .LVU682
 2656              		.loc 1 538 3 view .LVU683
 2657 0052 0223     		movs	r3, #2
 2658              	.LBB752:
 2659              	.LBB753:
 2660              		.loc 2 371 3 is_stmt 0 view .LVU684
 2661 0054 0C49     		ldr	r1, .L63+16
 2662 0056 0D48     		ldr	r0, .L63+20
 2663              	.LBE753:
 2664              	.LBE752:
 2665              		.loc 1 538 3 view .LVU685
 2666 0058 C9F80030 		str	r3, [r9]
 2667              		.loc 1 540 5 is_stmt 1 view .LVU686
 2668              	.LVL151:
 2669              	.LBB755:
 2670              	.LBI752:
 2671              		.loc 2 369 20 view .LVU687
 2672              	.LBB754:
 2673              		.loc 2 371 3 view .LVU688
 2674 005c FFF7FEFF 		bl	test_printf
 2675              	.LVL152:
 2676              		.loc 2 371 3 is_stmt 0 view .LVU689
 2677              	.LBE754:
 2678              	.LBE755:
 2679              		.loc 1 541 5 is_stmt 1 view .LVU690
 2680              	.LBB756:
 2681              	.LBI756:
 2682              		.loc 2 357 20 view .LVU691
 2683              	.LBB757:
 2684              		.loc 2 359 3 view .LVU692
 2685 0060 2146     		mov	r1, r4
 2686 0062 0B48     		ldr	r0, .L63+24
 2687 0064 FFF7FEFF 		bl	test_printf
 2688              	.LVL153:
ARM GAS  /tmp/ccuqlnP4.s 			page 49


 2689              		.loc 2 359 3 is_stmt 0 view .LVU693
 2690              	.LBE757:
 2691              	.LBE756:
 2692              		.loc 1 542 5 is_stmt 1 view .LVU694
 2693              	.LBB758:
 2694              	.LBI758:
 2695              		.loc 2 381 20 view .LVU695
 2696              	.LBB759:
 2697              		.loc 2 383 3 view .LVU696
 2698 0068 0A49     		ldr	r1, .L63+28
 2699 006a 0B48     		ldr	r0, .L63+32
 2700              	.LBE759:
 2701              	.LBE758:
 2702              		.loc 1 545 1 is_stmt 0 view .LVU697
 2703 006c 02B0     		add	sp, sp, #8
 2704              		.cfi_def_cfa_offset 32
 2705              		@ sp needed
 2706 006e BDE8F047 		pop	{r4, r5, r6, r7, r8, r9, r10, lr}
 2707              		.cfi_restore 14
 2708              		.cfi_restore 10
 2709              		.cfi_restore 9
 2710              		.cfi_restore 8
 2711              		.cfi_restore 7
 2712              		.cfi_restore 6
 2713              		.cfi_restore 5
 2714              		.cfi_restore 4
 2715              		.cfi_def_cfa_offset 0
 2716              	.LVL154:
 2717              	.LBB761:
 2718              	.LBB760:
 2719              		.loc 2 383 3 view .LVU698
 2720 0072 FFF7FEBF 		b	test_printf
 2721              	.LVL155:
 2722              	.L64:
 2723 0076 00BF     		.align	2
 2724              	.L63:
 2725 0078 00000000 		.word	ch0
 2726 007c 00000000 		.word	chtest
 2727 0080 00000000 		.word	bmk_thread3
 2728 0084 00000000 		.word	wa
 2729 0088 00000000 		.word	.LC13
 2730 008c 10000000 		.word	.LC1
 2731 0090 14000000 		.word	.LC2
 2732 0094 00000000 		.word	.LC19
 2733 0098 20000000 		.word	.LC4
 2734              	.LBE760:
 2735              	.LBE761:
 2736              		.cfi_endproc
 2737              	.LFE416:
 2738              		.size	rt_test_012_006_execute, .-rt_test_012_006_execute
 2739              		.section	.text.bmk_thread3,"ax",%progbits
 2740              		.align	1
 2741              		.p2align 4,,15
 2742              		.syntax unified
 2743              		.thumb
 2744              		.thumb_func
 2745              		.fpu softvfp
ARM GAS  /tmp/ccuqlnP4.s 			page 50


 2746              		.type	bmk_thread3, %function
 2747              	bmk_thread3:
 2748              	.LVL156:
 2749              	.LFB407:
 2750              		.loc 1 100 37 is_stmt 1 view -0
 2751              		.cfi_startproc
 2752              		@ args = 0, pretend = 0, frame = 0
 2753              		@ frame_needed = 0, uses_anonymous_args = 0
 2754              		@ link register save eliminated.
 2755              		.loc 1 102 3 view .LVU700
 2756 0000 FFF7FEBF 		b	chThdExit
 2757              	.LVL157:
 2758              		.loc 1 102 3 is_stmt 0 view .LVU701
 2759              		.cfi_endproc
 2760              	.LFE407:
 2761              		.size	bmk_thread3, .-bmk_thread3
 2762              		.section	.text.rt_test_012_005_execute,"ax",%progbits
 2763              		.align	1
 2764              		.p2align 4,,15
 2765              		.syntax unified
 2766              		.thumb
 2767              		.thumb_func
 2768              		.fpu softvfp
 2769              		.type	rt_test_012_005_execute, %function
 2770              	rt_test_012_005_execute:
 2771              	.LFB415:
 2772              		.loc 1 451 43 is_stmt 1 view -0
 2773              		.cfi_startproc
 2774              		@ args = 0, pretend = 0, frame = 0
 2775              		@ frame_needed = 0, uses_anonymous_args = 0
 2776              		.loc 1 452 3 view .LVU703
 2777              		.loc 1 453 3 view .LVU704
 2778              	.LBB762:
 2779              	.LBI762:
 2780              		.loc 6 354 23 view .LVU705
 2781              	.LBB763:
 2782              		.loc 6 356 3 view .LVU706
 2783              	.LBB764:
 2784              	.LBI764:
 2785              		.loc 6 341 25 view .LVU707
 2786              	.LBB765:
 2787              		.loc 6 343 3 view .LVU708
 2788              	.LBE765:
 2789              	.LBE764:
 2790              	.LBE763:
 2791              	.LBE762:
 2792              		.loc 1 451 43 is_stmt 0 view .LVU709
 2793 0000 2DE9F047 		push	{r4, r5, r6, r7, r8, r9, r10, lr}
 2794              		.cfi_def_cfa_offset 32
 2795              		.cfi_offset 4, -32
 2796              		.cfi_offset 5, -28
 2797              		.cfi_offset 6, -24
 2798              		.cfi_offset 7, -20
 2799              		.cfi_offset 8, -16
 2800              		.cfi_offset 9, -12
 2801              		.cfi_offset 10, -8
 2802              		.cfi_offset 14, -4
ARM GAS  /tmp/ccuqlnP4.s 			page 51


 2803              	.LBB770:
 2804              	.LBB768:
 2805              	.LBB767:
 2806              	.LBB766:
 2807              		.loc 6 343 10 view .LVU710
 2808 0004 1C4B     		ldr	r3, .L70
 2809              	.LBE766:
 2810              	.LBE767:
 2811              	.LBE768:
 2812              	.LBE770:
 2813              		.loc 1 459 3 view .LVU711
 2814 0006 DFF87490 		ldr	r9, .L70+4
 2815              	.LBB771:
 2816              	.LBB769:
 2817              		.loc 6 356 37 view .LVU712
 2818 000a DA68     		ldr	r2, [r3, #12]
 2819              	.LBE769:
 2820              	.LBE771:
 2821              		.loc 1 465 7 view .LVU713
 2822 000c DFF870A0 		ldr	r10, .L70+8
 2823              		.loc 1 453 11 view .LVU714
 2824 0010 9668     		ldr	r6, [r2, #8]
 2825              		.loc 1 459 3 view .LVU715
 2826 0012 0123     		movs	r3, #1
 2827              		.loc 1 451 43 view .LVU716
 2828 0014 82B0     		sub	sp, sp, #8
 2829              		.cfi_def_cfa_offset 40
 2830              		.loc 1 459 3 view .LVU717
 2831 0016 C9F80030 		str	r3, [r9]
 2832              		.loc 1 462 13 view .LVU718
 2833 001a FFF7FEFF 		bl	test_wait_tick
 2834              	.LVL158:
 2835              		.loc 1 465 7 view .LVU719
 2836 001e 194B     		ldr	r3, .L70+12
 2837              		.loc 1 461 7 view .LVU720
 2838 0020 0024     		movs	r4, #0
 2839              		.loc 1 465 7 view .LVU721
 2840 0022 D3F80080 		ldr	r8, [r3]
 2841              		.loc 1 453 11 view .LVU722
 2842 0026 013E     		subs	r6, r6, #1
 2843              	.LVL159:
 2844              		.loc 1 454 3 is_stmt 1 view .LVU723
 2845              		.loc 1 459 3 view .LVU724
 2846              		.loc 1 461 5 view .LVU725
 2847              		.loc 1 462 5 view .LVU726
 2848              		.loc 1 462 13 is_stmt 0 view .LVU727
 2849 0028 0546     		mov	r5, r0
 2850              	.LVL160:
 2851              		.loc 1 463 5 is_stmt 1 view .LVU728
 2852              		.loc 3 449 3 view .LVU729
 2853              		.loc 1 465 7 is_stmt 0 view .LVU730
 2854 002a 2746     		mov	r7, r4
 2855              	.LVL161:
 2856              	.L67:
 2857              		.loc 1 464 5 is_stmt 1 discriminator 1 view .LVU731
 2858              		.loc 1 465 7 discriminator 1 view .LVU732
 2859 002c 5346     		mov	r3, r10
ARM GAS  /tmp/ccuqlnP4.s 			page 52


 2860 002e 3246     		mov	r2, r6
 2861 0030 4FF4B871 		mov	r1, #368
 2862 0034 0097     		str	r7, [sp]
 2863 0036 4046     		mov	r0, r8
 2864 0038 FFF7FEFF 		bl	chThdCreateStatic
 2865              	.LVL162:
 2866 003c FFF7FEFF 		bl	chThdWait
 2867              	.LVL163:
 2868              		.loc 1 466 7 discriminator 1 view .LVU733
 2869              	.LBB772:
 2870              	.LBB773:
 2871              	.LBB774:
 2872              	.LBB775:
 2873              		.loc 4 113 10 is_stmt 0 discriminator 1 view .LVU734
 2874 0040 FFF7FEFF 		bl	stGetCounter
 2875              	.LVL164:
 2876              	.LBE775:
 2877              	.LBE774:
 2878              	.LBE773:
 2879              	.LBE772:
 2880              		.loc 1 470 5 discriminator 1 view .LVU735
 2881 0044 42F20F73 		movw	r3, #9999
 2882              	.LBB784:
 2883              	.LBB778:
 2884              	.LBB779:
 2885              		.loc 3 488 17 discriminator 1 view .LVU736
 2886 0048 401B     		subs	r0, r0, r5
 2887              	.LBE779:
 2888              	.LBE778:
 2889              	.LBE784:
 2890              		.loc 1 470 5 discriminator 1 view .LVU737
 2891 004a 9842     		cmp	r0, r3
 2892              		.loc 1 466 8 discriminator 1 view .LVU738
 2893 004c 04F10104 		add	r4, r4, #1
 2894              	.LVL165:
 2895              		.loc 1 470 13 is_stmt 1 discriminator 1 view .LVU739
 2896              	.LBB785:
 2897              	.LBI772:
 2898              		.loc 5 177 20 discriminator 1 view .LVU740
 2899              	.LBE785:
 2900              		.loc 5 179 3 discriminator 1 view .LVU741
 2901              	.LBB786:
 2902              	.LBB781:
 2903              	.LBI773:
 2904              		.loc 5 122 25 discriminator 1 view .LVU742
 2905              	.LBE781:
 2906              	.LBE786:
 2907              		.loc 5 127 3 discriminator 1 view .LVU743
 2908              	.LBB787:
 2909              	.LBB782:
 2910              	.LBB777:
 2911              	.LBI774:
 2912              		.loc 4 111 25 discriminator 1 view .LVU744
 2913              	.LBB776:
 2914              		.loc 4 113 3 discriminator 1 view .LVU745
 2915              		.loc 4 113 3 is_stmt 0 discriminator 1 view .LVU746
 2916              	.LBE776:
ARM GAS  /tmp/ccuqlnP4.s 			page 53


 2917              	.LBE777:
 2918              	.LBE782:
 2919              	.LBB783:
 2920              	.LBI778:
 2921              		.loc 3 484 20 is_stmt 1 discriminator 1 view .LVU747
 2922              	.LBB780:
 2923              		.loc 3 488 3 discriminator 1 view .LVU748
 2924              		.loc 3 488 3 is_stmt 0 discriminator 1 view .LVU749
 2925              	.LBE780:
 2926              	.LBE783:
 2927              	.LBE787:
 2928              		.loc 1 470 5 discriminator 1 view .LVU750
 2929 0050 ECD9     		bls	.L67
 2930              		.loc 1 472 3 is_stmt 1 view .LVU751
 2931              		.loc 1 472 19 view .LVU752
 2932              		.loc 1 475 3 view .LVU753
 2933 0052 0223     		movs	r3, #2
 2934              	.LBB788:
 2935              	.LBB789:
 2936              		.loc 2 371 3 is_stmt 0 view .LVU754
 2937 0054 0C49     		ldr	r1, .L70+16
 2938 0056 0D48     		ldr	r0, .L70+20
 2939              	.LBE789:
 2940              	.LBE788:
 2941              		.loc 1 475 3 view .LVU755
 2942 0058 C9F80030 		str	r3, [r9]
 2943              		.loc 1 477 5 is_stmt 1 view .LVU756
 2944              	.LVL166:
 2945              	.LBB791:
 2946              	.LBI788:
 2947              		.loc 2 369 20 view .LVU757
 2948              	.LBB790:
 2949              		.loc 2 371 3 view .LVU758
 2950 005c FFF7FEFF 		bl	test_printf
 2951              	.LVL167:
 2952              		.loc 2 371 3 is_stmt 0 view .LVU759
 2953              	.LBE790:
 2954              	.LBE791:
 2955              		.loc 1 478 5 is_stmt 1 view .LVU760
 2956              	.LBB792:
 2957              	.LBI792:
 2958              		.loc 2 357 20 view .LVU761
 2959              	.LBB793:
 2960              		.loc 2 359 3 view .LVU762
 2961 0060 2146     		mov	r1, r4
 2962 0062 0B48     		ldr	r0, .L70+24
 2963 0064 FFF7FEFF 		bl	test_printf
 2964              	.LVL168:
 2965              		.loc 2 359 3 is_stmt 0 view .LVU763
 2966              	.LBE793:
 2967              	.LBE792:
 2968              		.loc 1 479 5 is_stmt 1 view .LVU764
 2969              	.LBB794:
 2970              	.LBI794:
 2971              		.loc 2 381 20 view .LVU765
 2972              	.LBB795:
 2973              		.loc 2 383 3 view .LVU766
ARM GAS  /tmp/ccuqlnP4.s 			page 54


 2974 0068 0A49     		ldr	r1, .L70+28
 2975 006a 0B48     		ldr	r0, .L70+32
 2976              	.LBE795:
 2977              	.LBE794:
 2978              		.loc 1 482 1 is_stmt 0 view .LVU767
 2979 006c 02B0     		add	sp, sp, #8
 2980              		.cfi_def_cfa_offset 32
 2981              		@ sp needed
 2982 006e BDE8F047 		pop	{r4, r5, r6, r7, r8, r9, r10, lr}
 2983              		.cfi_restore 14
 2984              		.cfi_restore 10
 2985              		.cfi_restore 9
 2986              		.cfi_restore 8
 2987              		.cfi_restore 7
 2988              		.cfi_restore 6
 2989              		.cfi_restore 5
 2990              		.cfi_restore 4
 2991              		.cfi_def_cfa_offset 0
 2992              	.LVL169:
 2993              	.LBB797:
 2994              	.LBB796:
 2995              		.loc 2 383 3 view .LVU768
 2996 0072 FFF7FEBF 		b	test_printf
 2997              	.LVL170:
 2998              	.L71:
 2999 0076 00BF     		.align	2
 3000              	.L70:
 3001 0078 00000000 		.word	ch0
 3002 007c 00000000 		.word	chtest
 3003 0080 00000000 		.word	bmk_thread3
 3004 0084 00000000 		.word	wa
 3005 0088 00000000 		.word	.LC13
 3006 008c 10000000 		.word	.LC1
 3007 0090 14000000 		.word	.LC2
 3008 0094 00000000 		.word	.LC19
 3009 0098 20000000 		.word	.LC4
 3010              	.LBE796:
 3011              	.LBE797:
 3012              		.cfi_endproc
 3013              	.LFE415:
 3014              		.size	rt_test_012_005_execute, .-rt_test_012_005_execute
 3015              		.section	.text.rt_test_012_004_execute,"ax",%progbits
 3016              		.align	1
 3017              		.p2align 4,,15
 3018              		.syntax unified
 3019              		.thumb
 3020              		.thumb_func
 3021              		.fpu softvfp
 3022              		.type	rt_test_012_004_execute, %function
 3023              	rt_test_012_004_execute:
 3024              	.LFB414:
 3025              		.loc 1 370 43 is_stmt 1 view -0
 3026              		.cfi_startproc
 3027              		@ args = 0, pretend = 0, frame = 0
 3028              		@ frame_needed = 0, uses_anonymous_args = 0
 3029              		.loc 1 371 3 view .LVU770
 3030              		.loc 1 372 3 view .LVU771
ARM GAS  /tmp/ccuqlnP4.s 			page 55


 3031              		.loc 1 375 3 view .LVU772
 3032              		.loc 1 370 43 is_stmt 0 view .LVU773
 3033 0000 2DE9F047 		push	{r4, r5, r6, r7, r8, r9, r10, lr}
 3034              		.cfi_def_cfa_offset 32
 3035              		.cfi_offset 4, -32
 3036              		.cfi_offset 5, -28
 3037              		.cfi_offset 6, -24
 3038              		.cfi_offset 7, -20
 3039              		.cfi_offset 8, -16
 3040              		.cfi_offset 9, -12
 3041              		.cfi_offset 10, -8
 3042              		.cfi_offset 14, -4
 3043              	.LBB798:
 3044              	.LBB799:
 3045              	.LBB800:
 3046              	.LBB801:
 3047              		.loc 6 343 10 view .LVU774
 3048 0004 2D4B     		ldr	r3, .L76
 3049              	.LBE801:
 3050              	.LBE800:
 3051              	.LBE799:
 3052              	.LBE798:
 3053              		.loc 1 377 23 view .LVU775
 3054 0006 2E49     		ldr	r1, .L76+4
 3055              	.LBB806:
 3056              	.LBB804:
 3057              		.loc 6 356 37 view .LVU776
 3058 0008 DB68     		ldr	r3, [r3, #12]
 3059              	.LBE804:
 3060              	.LBE806:
 3061              		.loc 1 375 3 view .LVU777
 3062 000a DFF8B8A0 		ldr	r10, .L76+8
 3063              		.loc 1 377 23 view .LVU778
 3064 000e 9A68     		ldr	r2, [r3, #8]
 3065 0010 0868     		ldr	r0, [r1]
 3066 0012 2D4B     		ldr	r3, .L76+12
 3067              		.loc 1 370 43 view .LVU779
 3068 0014 82B0     		sub	sp, sp, #8
 3069              		.cfi_def_cfa_offset 40
 3070              		.loc 1 377 23 view .LVU780
 3071 0016 0025     		movs	r5, #0
 3072              		.loc 1 375 3 view .LVU781
 3073 0018 0121     		movs	r1, #1
 3074              		.loc 1 377 23 view .LVU782
 3075 001a 0132     		adds	r2, r2, #1
 3076              		.loc 1 375 3 view .LVU783
 3077 001c CAF80010 		str	r1, [r10]
 3078              		.loc 1 377 5 is_stmt 1 view .LVU784
 3079              	.LBB807:
 3080              	.LBI798:
 3081              		.loc 6 354 23 view .LVU785
 3082              	.LBB805:
 3083              		.loc 6 356 3 view .LVU786
 3084              	.LBB803:
 3085              	.LBI800:
 3086              		.loc 6 341 25 view .LVU787
 3087              	.LBB802:
ARM GAS  /tmp/ccuqlnP4.s 			page 56


 3088              		.loc 6 343 3 view .LVU788
 3089              	.LBE802:
 3090              	.LBE803:
 3091              	.LBE805:
 3092              	.LBE807:
 3093              		.loc 1 377 23 is_stmt 0 view .LVU789
 3094 0020 0095     		str	r5, [sp]
 3095 0022 4FF4B871 		mov	r1, #368
 3096 0026 FFF7FEFF 		bl	chThdCreateStatic
 3097              	.LVL171:
 3098              		.loc 1 377 21 view .LVU790
 3099 002a 284A     		ldr	r2, .L76+16
 3100              		.loc 1 384 3 view .LVU791
 3101 002c 0223     		movs	r3, #2
 3102              		.loc 1 377 21 view .LVU792
 3103 002e 1060     		str	r0, [r2]
 3104              		.loc 1 377 23 view .LVU793
 3105 0030 0446     		mov	r4, r0
 3106              	.LVL172:
 3107              		.loc 1 380 3 is_stmt 1 view .LVU794
 3108              		.loc 1 380 19 view .LVU795
 3109              		.loc 1 384 3 view .LVU796
 3110 0032 CAF80030 		str	r3, [r10]
 3111              	.LBB808:
 3112              		.loc 1 386 5 view .LVU797
 3113              		.loc 1 388 5 view .LVU798
 3114              	.LVL173:
 3115              		.loc 1 389 5 view .LVU799
 3116              		.loc 1 389 13 is_stmt 0 view .LVU800
 3117 0036 FFF7FEFF 		bl	test_wait_tick
 3118              	.LVL174:
 3119              	.LBB809:
 3120              	.LBB810:
 3121              	.LBB811:
 3122              	.LBB812:
 3123              		.loc 7 493 3 view .LVU801
 3124 003a 4FF03008 		mov	r8, #48
 3125              	.LBE812:
 3126              	.LBE811:
 3127              	.LBE810:
 3128              	.LBE809:
 3129              		.loc 1 389 13 view .LVU802
 3130 003e 0646     		mov	r6, r0
 3131              	.LVL175:
 3132              		.loc 1 390 5 is_stmt 1 view .LVU803
 3133              		.loc 1 390 5 is_stmt 0 view .LVU804
 3134              	.LBE808:
 3135              		.loc 3 449 3 is_stmt 1 view .LVU805
 3136              	.LBB843:
 3137              		.loc 1 393 7 is_stmt 0 view .LVU806
 3138 0040 2F46     		mov	r7, r5
 3139              		.loc 1 402 5 view .LVU807
 3140 0042 42F20F79 		movw	r9, #9999
 3141              	.LVL176:
 3142              	.L73:
 3143              		.loc 1 391 5 is_stmt 1 discriminator 1 view .LVU808
 3144              		.loc 1 392 7 discriminator 1 view .LVU809
ARM GAS  /tmp/ccuqlnP4.s 			page 57


 3145              	.LBB817:
 3146              	.LBI809:
 3147              		.loc 8 407 20 discriminator 1 view .LVU810
 3148              	.LBE817:
 3149              	.LBE843:
 3150              		.loc 8 409 3 discriminator 1 view .LVU811
 3151              	.LBB844:
 3152              	.LBB818:
 3153              	.LBB815:
 3154              	.LBI810:
 3155              		.loc 9 806 27 discriminator 1 view .LVU812
 3156              	.LBE815:
 3157              	.LBE818:
 3158              	.LBE844:
 3159              		.loc 9 814 3 discriminator 1 view .LVU813
 3160              	.LBB845:
 3161              	.LBB819:
 3162              	.LBB816:
 3163              	.LBB814:
 3164              	.LBI811:
 3165              		.loc 7 491 27 discriminator 1 view .LVU814
 3166              	.LBB813:
 3167              		.loc 7 493 3 discriminator 1 view .LVU815
 3168              		.syntax unified
 3169              	@ 493 "../ChibiOS/os/common/ext/ARM/CMSIS/Core/Include/cmsis_gcc.h" 1
 3170 0046 88F31188 		MSR basepri, r8
 3171              	@ 0 "" 2
 3172              	.LVL177:
 3173              		.loc 7 493 3 is_stmt 0 discriminator 1 view .LVU816
 3174              		.thumb
 3175              		.syntax unified
 3176              	.LBE813:
 3177              	.LBE814:
 3178              	.LBE816:
 3179              	.LBE819:
 3180              	.LBE845:
 3181              		.loc 8 410 35 is_stmt 1 discriminator 1 view .LVU817
 3182              		.loc 8 411 21 discriminator 1 view .LVU818
 3183              	.LBB846:
 3184              		.loc 1 393 7 discriminator 1 view .LVU819
 3185 004a 0021     		movs	r1, #0
 3186 004c 2046     		mov	r0, r4
 3187 004e FFF7FEFF 		bl	chSchWakeupS
 3188              	.LVL178:
 3189              		.loc 1 394 7 discriminator 1 view .LVU820
 3190 0052 2046     		mov	r0, r4
 3191 0054 0021     		movs	r1, #0
 3192 0056 FFF7FEFF 		bl	chSchWakeupS
 3193              	.LVL179:
 3194              		.loc 1 395 7 discriminator 1 view .LVU821
 3195 005a 2046     		mov	r0, r4
 3196 005c 0021     		movs	r1, #0
 3197 005e FFF7FEFF 		bl	chSchWakeupS
 3198              	.LVL180:
 3199              		.loc 1 396 7 discriminator 1 view .LVU822
 3200 0062 0021     		movs	r1, #0
 3201 0064 2046     		mov	r0, r4
ARM GAS  /tmp/ccuqlnP4.s 			page 58


 3202 0066 FFF7FEFF 		bl	chSchWakeupS
 3203              	.LVL181:
 3204              		.loc 1 397 7 discriminator 1 view .LVU823
 3205              	.LBB820:
 3206              	.LBI820:
 3207              		.loc 8 421 20 discriminator 1 view .LVU824
 3208              	.LBB821:
 3209              		.loc 8 423 23 discriminator 1 view .LVU825
 3210              		.loc 8 424 34 discriminator 1 view .LVU826
 3211              		.loc 8 430 3 discriminator 1 view .LVU827
 3212              		.loc 8 430 3 discriminator 1 view .LVU828
 3213              		.loc 8 430 3 discriminator 1 view .LVU829
 3214              		.loc 8 434 3 discriminator 1 view .LVU830
 3215              	.LBB822:
 3216              	.LBI822:
 3217              		.loc 9 830 27 discriminator 1 view .LVU831
 3218              	.LBE822:
 3219              	.LBE821:
 3220              	.LBE820:
 3221              	.LBE846:
 3222              		.loc 9 833 3 discriminator 1 view .LVU832
 3223              	.LBB847:
 3224              	.LBB827:
 3225              	.LBB826:
 3226              	.LBB825:
 3227              	.LBB823:
 3228              	.LBI823:
 3229              		.loc 7 491 27 discriminator 1 view .LVU833
 3230              	.LBB824:
 3231              		.loc 7 493 3 discriminator 1 view .LVU834
 3232              		.syntax unified
 3233              	@ 493 "../ChibiOS/os/common/ext/ARM/CMSIS/Core/Include/cmsis_gcc.h" 1
 3234 006a 87F31188 		MSR basepri, r7
 3235              	@ 0 "" 2
 3236              	.LVL182:
 3237              		.loc 7 493 3 is_stmt 0 discriminator 1 view .LVU835
 3238              		.thumb
 3239              		.syntax unified
 3240              	.LBE824:
 3241              	.LBE823:
 3242              	.LBE825:
 3243              	.LBE826:
 3244              	.LBE827:
 3245              		.loc 1 398 7 is_stmt 1 discriminator 1 view .LVU836
 3246              	.LBB828:
 3247              	.LBB829:
 3248              	.LBB830:
 3249              	.LBB831:
 3250              		.loc 4 113 10 is_stmt 0 discriminator 1 view .LVU837
 3251 006e FFF7FEFF 		bl	stGetCounter
 3252              	.LVL183:
 3253              	.LBE831:
 3254              	.LBE830:
 3255              	.LBE829:
 3256              	.LBB834:
 3257              	.LBB835:
 3258              		.loc 3 488 17 discriminator 1 view .LVU838
ARM GAS  /tmp/ccuqlnP4.s 			page 59


 3259 0072 801B     		subs	r0, r0, r6
 3260              	.LBE835:
 3261              	.LBE834:
 3262              	.LBE828:
 3263              		.loc 1 402 5 discriminator 1 view .LVU839
 3264 0074 4845     		cmp	r0, r9
 3265              		.loc 1 398 9 discriminator 1 view .LVU840
 3266 0076 05F10405 		add	r5, r5, #4
 3267              	.LVL184:
 3268              		.loc 1 402 13 is_stmt 1 discriminator 1 view .LVU841
 3269              	.LBB840:
 3270              	.LBI828:
 3271              		.loc 5 177 20 discriminator 1 view .LVU842
 3272              	.LBE840:
 3273              	.LBE847:
 3274              		.loc 5 179 3 discriminator 1 view .LVU843
 3275              	.LBB848:
 3276              	.LBB841:
 3277              	.LBB837:
 3278              	.LBI829:
 3279              		.loc 5 122 25 discriminator 1 view .LVU844
 3280              	.LBE837:
 3281              	.LBE841:
 3282              	.LBE848:
 3283              		.loc 5 127 3 discriminator 1 view .LVU845
 3284              	.LBB849:
 3285              	.LBB842:
 3286              	.LBB838:
 3287              	.LBB833:
 3288              	.LBI830:
 3289              		.loc 4 111 25 discriminator 1 view .LVU846
 3290              	.LBB832:
 3291              		.loc 4 113 3 discriminator 1 view .LVU847
 3292              		.loc 4 113 3 is_stmt 0 discriminator 1 view .LVU848
 3293              	.LBE832:
 3294              	.LBE833:
 3295              	.LBE838:
 3296              	.LBB839:
 3297              	.LBI834:
 3298              		.loc 3 484 20 is_stmt 1 discriminator 1 view .LVU849
 3299              	.LBB836:
 3300              		.loc 3 488 3 discriminator 1 view .LVU850
 3301              		.loc 3 488 3 is_stmt 0 discriminator 1 view .LVU851
 3302              	.LBE836:
 3303              	.LBE839:
 3304              	.LBE842:
 3305              		.loc 1 402 5 discriminator 1 view .LVU852
 3306 007a E4D9     		bls	.L73
 3307              	.LBE849:
 3308              		.loc 1 404 3 is_stmt 1 view .LVU853
 3309              		.loc 1 404 19 view .LVU854
 3310              		.loc 1 407 3 view .LVU855
 3311 007c 0323     		movs	r3, #3
 3312 007e CAF80030 		str	r3, [r10]
 3313              		.loc 1 409 5 view .LVU856
 3314              	.LBB850:
 3315              	.LBI850:
ARM GAS  /tmp/ccuqlnP4.s 			page 60


 3316              		.loc 8 407 20 view .LVU857
 3317              	.LBE850:
 3318              		.loc 8 409 3 view .LVU858
 3319              	.LBB855:
 3320              	.LBB851:
 3321              	.LBI851:
 3322              		.loc 9 806 27 view .LVU859
 3323              	.LBE851:
 3324              	.LBE855:
 3325              		.loc 9 814 3 view .LVU860
 3326              	.LVL185:
 3327              	.LBB856:
 3328              	.LBB854:
 3329              	.LBB852:
 3330              	.LBI852:
 3331              		.loc 7 491 27 view .LVU861
 3332              	.LBB853:
 3333              		.loc 7 493 3 view .LVU862
 3334              		.syntax unified
 3335              	@ 493 "../ChibiOS/os/common/ext/ARM/CMSIS/Core/Include/cmsis_gcc.h" 1
 3336 0082 88F31188 		MSR basepri, r8
 3337              	@ 0 "" 2
 3338              	.LVL186:
 3339              		.loc 7 493 3 is_stmt 0 view .LVU863
 3340              		.thumb
 3341              		.syntax unified
 3342              	.LBE853:
 3343              	.LBE852:
 3344              	.LBE854:
 3345              	.LBE856:
 3346              		.loc 8 410 35 is_stmt 1 view .LVU864
 3347              		.loc 8 411 21 view .LVU865
 3348              		.loc 1 410 5 view .LVU866
 3349 0086 4FF0FF31 		mov	r1, #-1
 3350 008a 2046     		mov	r0, r4
 3351 008c FFF7FEFF 		bl	chSchWakeupS
 3352              	.LVL187:
 3353              		.loc 1 411 5 view .LVU867
 3354              	.LBB857:
 3355              	.LBI857:
 3356              		.loc 8 421 20 view .LVU868
 3357              	.LBB858:
 3358              		.loc 8 423 23 view .LVU869
 3359              		.loc 8 424 34 view .LVU870
 3360              		.loc 8 430 3 view .LVU871
 3361              		.loc 8 430 3 view .LVU872
 3362              		.loc 8 430 3 view .LVU873
 3363              		.loc 8 434 3 view .LVU874
 3364              	.LBB859:
 3365              	.LBI859:
 3366              		.loc 9 830 27 view .LVU875
 3367              	.LBE859:
 3368              	.LBE858:
 3369              	.LBE857:
 3370              		.loc 9 833 3 view .LVU876
 3371              	.LBB864:
 3372              	.LBB863:
ARM GAS  /tmp/ccuqlnP4.s 			page 61


 3373              	.LBB862:
 3374              	.LBB860:
 3375              	.LBI860:
 3376              		.loc 7 491 27 view .LVU877
 3377              	.LBB861:
 3378              		.loc 7 493 3 view .LVU878
 3379              		.syntax unified
 3380              	@ 493 "../ChibiOS/os/common/ext/ARM/CMSIS/Core/Include/cmsis_gcc.h" 1
 3381 0090 87F31188 		MSR basepri, r7
 3382              	@ 0 "" 2
 3383              	.LVL188:
 3384              		.loc 7 493 3 is_stmt 0 view .LVU879
 3385              		.thumb
 3386              		.syntax unified
 3387              	.LBE861:
 3388              	.LBE860:
 3389              	.LBE862:
 3390              	.LBE863:
 3391              	.LBE864:
 3392              		.loc 1 412 5 is_stmt 1 view .LVU880
 3393 0094 FFF7FEFF 		bl	test_wait_threads
 3394              	.LVL189:
 3395              		.loc 1 414 3 view .LVU881
 3396              		.loc 1 414 19 view .LVU882
 3397              		.loc 1 417 3 view .LVU883
 3398 0098 0423     		movs	r3, #4
 3399              	.LBB865:
 3400              	.LBB866:
 3401              		.loc 2 371 3 is_stmt 0 view .LVU884
 3402 009a 0D49     		ldr	r1, .L76+20
 3403 009c 0D48     		ldr	r0, .L76+24
 3404              	.LBE866:
 3405              	.LBE865:
 3406              		.loc 1 417 3 view .LVU885
 3407 009e CAF80030 		str	r3, [r10]
 3408              		.loc 1 419 5 is_stmt 1 view .LVU886
 3409              	.LVL190:
 3410              	.LBB868:
 3411              	.LBI865:
 3412              		.loc 2 369 20 view .LVU887
 3413              	.LBB867:
 3414              		.loc 2 371 3 view .LVU888
 3415 00a2 FFF7FEFF 		bl	test_printf
 3416              	.LVL191:
 3417              		.loc 2 371 3 is_stmt 0 view .LVU889
 3418              	.LBE867:
 3419              	.LBE868:
 3420              		.loc 1 420 5 is_stmt 1 view .LVU890
 3421              	.LBB869:
 3422              	.LBI869:
 3423              		.loc 2 357 20 view .LVU891
 3424              	.LBB870:
 3425              		.loc 2 359 3 view .LVU892
 3426 00a6 6900     		lsls	r1, r5, #1
 3427              	.LVL192:
 3428              		.loc 2 359 3 is_stmt 0 view .LVU893
 3429 00a8 0B48     		ldr	r0, .L76+28
ARM GAS  /tmp/ccuqlnP4.s 			page 62


 3430 00aa FFF7FEFF 		bl	test_printf
 3431              	.LVL193:
 3432              		.loc 2 359 3 view .LVU894
 3433              	.LBE870:
 3434              	.LBE869:
 3435              		.loc 1 421 5 is_stmt 1 view .LVU895
 3436              	.LBB871:
 3437              	.LBI871:
 3438              		.loc 2 381 20 view .LVU896
 3439              	.LBB872:
 3440              		.loc 2 383 3 view .LVU897
 3441 00ae 0B49     		ldr	r1, .L76+32
 3442 00b0 0B48     		ldr	r0, .L76+36
 3443              	.LBE872:
 3444              	.LBE871:
 3445              		.loc 1 424 1 is_stmt 0 view .LVU898
 3446 00b2 02B0     		add	sp, sp, #8
 3447              		.cfi_def_cfa_offset 32
 3448              		@ sp needed
 3449 00b4 BDE8F047 		pop	{r4, r5, r6, r7, r8, r9, r10, lr}
 3450              		.cfi_restore 14
 3451              		.cfi_restore 10
 3452              		.cfi_restore 9
 3453              		.cfi_restore 8
 3454              		.cfi_restore 7
 3455              		.cfi_restore 6
 3456              		.cfi_restore 5
 3457              		.cfi_restore 4
 3458              		.cfi_def_cfa_offset 0
 3459              	.LVL194:
 3460              	.LBB874:
 3461              	.LBB873:
 3462              		.loc 2 383 3 view .LVU899
 3463 00b8 FFF7FEBF 		b	test_printf
 3464              	.LVL195:
 3465              	.L77:
 3466              		.align	2
 3467              	.L76:
 3468 00bc 00000000 		.word	ch0
 3469 00c0 00000000 		.word	wa
 3470 00c4 00000000 		.word	chtest
 3471 00c8 00000000 		.word	bmk_thread4
 3472 00cc 00000000 		.word	threads
 3473 00d0 00000000 		.word	.LC13
 3474 00d4 10000000 		.word	.LC1
 3475 00d8 14000000 		.word	.LC2
 3476 00dc 00000000 		.word	.LC17
 3477 00e0 20000000 		.word	.LC4
 3478              	.LBE873:
 3479              	.LBE874:
 3480              		.cfi_endproc
 3481              	.LFE414:
 3482              		.size	rt_test_012_004_execute, .-rt_test_012_004_execute
 3483              		.section	.text.bmk_thread4,"ax",%progbits
 3484              		.align	1
 3485              		.p2align 4,,15
 3486              		.syntax unified
ARM GAS  /tmp/ccuqlnP4.s 			page 63


 3487              		.thumb
 3488              		.thumb_func
 3489              		.fpu softvfp
 3490              		.type	bmk_thread4, %function
 3491              	bmk_thread4:
 3492              	.LVL196:
 3493              	.LFB408:
 3494              		.loc 1 105 37 is_stmt 1 view -0
 3495              		.cfi_startproc
 3496              		@ args = 0, pretend = 0, frame = 0
 3497              		@ frame_needed = 0, uses_anonymous_args = 0
 3498              		.loc 1 106 3 view .LVU901
 3499              		.loc 1 107 3 view .LVU902
 3500              	.LBB875:
 3501              	.LBI875:
 3502              		.loc 6 341 25 view .LVU903
 3503              	.LBB876:
 3504              		.loc 6 343 3 view .LVU904
 3505              		.loc 6 343 10 is_stmt 0 view .LVU905
 3506 0000 074A     		ldr	r2, .L83
 3507              	.LBE876:
 3508              	.LBE875:
 3509              		.loc 1 105 37 view .LVU906
 3510 0002 10B5     		push	{r4, lr}
 3511              		.cfi_def_cfa_offset 8
 3512              		.cfi_offset 4, -8
 3513              		.cfi_offset 14, -4
 3514              	.LBB878:
 3515              	.LBB879:
 3516              	.LBB880:
 3517              	.LBB881:
 3518              	.LBB882:
 3519              		.loc 7 493 3 view .LVU907
 3520 0004 3023     		movs	r3, #48
 3521              	.LBE882:
 3522              	.LBE881:
 3523              	.LBE880:
 3524              	.LBE879:
 3525              	.LBE878:
 3526              	.LBB889:
 3527              	.LBB877:
 3528              		.loc 6 343 10 view .LVU908
 3529 0006 D468     		ldr	r4, [r2, #12]
 3530              	.LVL197:
 3531              		.loc 6 343 10 view .LVU909
 3532              	.LBE877:
 3533              	.LBE889:
 3534              		.loc 1 109 3 is_stmt 1 view .LVU910
 3535              		.loc 1 110 3 view .LVU911
 3536              	.LBB890:
 3537              	.LBI878:
 3538              		.loc 8 407 20 view .LVU912
 3539              	.LBB887:
 3540              		.loc 8 409 3 view .LVU913
 3541              	.LBB885:
 3542              	.LBI880:
 3543              		.loc 9 806 27 view .LVU914
ARM GAS  /tmp/ccuqlnP4.s 			page 64


 3544              	.LBE885:
 3545              	.LBE887:
 3546              	.LBE890:
 3547              		.loc 9 814 3 view .LVU915
 3548              	.LBB891:
 3549              	.LBB888:
 3550              	.LBB886:
 3551              	.LBB884:
 3552              	.LBI881:
 3553              		.loc 7 491 27 view .LVU916
 3554              	.LBB883:
 3555              		.loc 7 493 3 view .LVU917
 3556              		.syntax unified
 3557              	@ 493 "../ChibiOS/os/common/ext/ARM/CMSIS/Core/Include/cmsis_gcc.h" 1
 3558 0008 83F31188 		MSR basepri, r3
 3559              	@ 0 "" 2
 3560              	.LVL198:
 3561              		.loc 7 493 3 is_stmt 0 view .LVU918
 3562              		.thumb
 3563              		.syntax unified
 3564              	.LBE883:
 3565              	.LBE884:
 3566              	.LBE886:
 3567              		.loc 8 410 35 is_stmt 1 view .LVU919
 3568              		.loc 8 411 21 view .LVU920
 3569              	.L79:
 3570              		.loc 8 411 21 is_stmt 0 view .LVU921
 3571              	.LBE888:
 3572              	.LBE891:
 3573              		.loc 1 111 3 is_stmt 1 discriminator 1 view .LVU922
 3574              		.loc 1 112 5 discriminator 1 view .LVU923
 3575 000c 0320     		movs	r0, #3
 3576 000e FFF7FEFF 		bl	chSchGoSleepS
 3577              	.LVL199:
 3578              		.loc 1 113 5 discriminator 1 view .LVU924
 3579              		.loc 1 114 11 discriminator 1 view .LVU925
 3580              		.loc 1 114 3 is_stmt 0 discriminator 1 view .LVU926
 3581 0012 A36A     		ldr	r3, [r4, #40]
 3582 0014 002B     		cmp	r3, #0
 3583 0016 F9D0     		beq	.L79
 3584              		.loc 1 115 3 is_stmt 1 view .LVU927
 3585              	.LBB892:
 3586              	.LBI892:
 3587              		.loc 8 421 20 view .LVU928
 3588              	.LBB893:
 3589              		.loc 8 423 23 view .LVU929
 3590              		.loc 8 424 34 view .LVU930
 3591              		.loc 8 430 3 view .LVU931
 3592              		.loc 8 430 3 view .LVU932
 3593              		.loc 8 430 3 view .LVU933
 3594              		.loc 8 434 3 view .LVU934
 3595              	.LBB894:
 3596              	.LBI894:
 3597              		.loc 9 830 27 view .LVU935
 3598              	.LBE894:
 3599              	.LBE893:
 3600              	.LBE892:
ARM GAS  /tmp/ccuqlnP4.s 			page 65


 3601              		.loc 9 833 3 view .LVU936
 3602              	.LVL200:
 3603              	.LBB899:
 3604              	.LBB898:
 3605              	.LBB897:
 3606              	.LBB895:
 3607              	.LBI895:
 3608              		.loc 7 491 27 view .LVU937
 3609              	.LBB896:
 3610              		.loc 7 493 3 view .LVU938
 3611 0018 0023     		movs	r3, #0
 3612              		.syntax unified
 3613              	@ 493 "../ChibiOS/os/common/ext/ARM/CMSIS/Core/Include/cmsis_gcc.h" 1
 3614 001a 83F31188 		MSR basepri, r3
 3615              	@ 0 "" 2
 3616              	.LVL201:
 3617              		.loc 7 493 3 is_stmt 0 view .LVU939
 3618              		.thumb
 3619              		.syntax unified
 3620              	.LBE896:
 3621              	.LBE895:
 3622              	.LBE897:
 3623              	.LBE898:
 3624              	.LBE899:
 3625              		.loc 1 116 1 view .LVU940
 3626 001e 10BD     		pop	{r4, pc}
 3627              	.LVL202:
 3628              	.L84:
 3629              		.loc 1 116 1 view .LVU941
 3630              		.align	2
 3631              	.L83:
 3632 0020 00000000 		.word	ch0
 3633              		.cfi_endproc
 3634              	.LFE408:
 3635              		.size	bmk_thread4, .-bmk_thread4
 3636              		.section	.text.bmk_thread1,"ax",%progbits
 3637              		.align	1
 3638              		.p2align 4,,15
 3639              		.syntax unified
 3640              		.thumb
 3641              		.thumb_func
 3642              		.fpu softvfp
 3643              		.type	bmk_thread1, %function
 3644              	bmk_thread1:
 3645              	.LVL203:
 3646              	.LFB405:
 3647              		.loc 1 70 37 is_stmt 1 view -0
 3648              		.cfi_startproc
 3649              		@ args = 0, pretend = 0, frame = 0
 3650              		@ frame_needed = 0, uses_anonymous_args = 0
 3651              		.loc 1 70 37 is_stmt 0 view .LVU943
 3652 0000 70B5     		push	{r4, r5, r6, lr}
 3653              		.cfi_def_cfa_offset 16
 3654              		.cfi_offset 4, -16
 3655              		.cfi_offset 5, -12
 3656              		.cfi_offset 6, -8
 3657              		.cfi_offset 14, -4
ARM GAS  /tmp/ccuqlnP4.s 			page 66


 3658              	.LBB900:
 3659              	.LBB901:
 3660              	.LBB902:
 3661              	.LBB903:
 3662              	.LBB904:
 3663              	.LBB905:
 3664              		.loc 7 493 3 view .LVU944
 3665 0002 3026     		movs	r6, #48
 3666              	.LBE905:
 3667              	.LBE904:
 3668              	.LBE903:
 3669              	.LBE902:
 3670              	.LBB910:
 3671              	.LBB911:
 3672              	.LBB912:
 3673              	.LBB913:
 3674              	.LBB914:
 3675 0004 0025     		movs	r5, #0
 3676              	.LVL204:
 3677              	.L86:
 3678              		.loc 7 493 3 view .LVU945
 3679              	.LBE914:
 3680              	.LBE913:
 3681              	.LBE912:
 3682              	.LBE911:
 3683              	.LBE910:
 3684              	.LBE901:
 3685              	.LBE900:
 3686              		.loc 1 71 3 is_stmt 1 discriminator 1 view .LVU946
 3687              		.loc 1 72 3 discriminator 1 view .LVU947
 3688              		.loc 1 74 3 discriminator 1 view .LVU948
 3689              		.loc 1 75 3 discriminator 1 view .LVU949
 3690              		.loc 1 76 5 discriminator 1 view .LVU950
 3691              	.LBB931:
 3692              	.LBI900:
 3693              		.file 11 "../ChibiOS/os/rt/include/chmsg.h"
 3694              		.loc 11 95 25 discriminator 1 view .LVU951
 3695              	.LBB926:
 3696              		.loc 11 96 3 discriminator 1 view .LVU952
 3697              		.loc 11 98 3 discriminator 1 view .LVU953
 3698              	.LBB921:
 3699              	.LBI902:
 3700              		.loc 8 407 20 discriminator 1 view .LVU954
 3701              	.LBE921:
 3702              	.LBE926:
 3703              	.LBE931:
 3704              		.loc 8 409 3 discriminator 1 view .LVU955
 3705              	.LBB932:
 3706              	.LBB927:
 3707              	.LBB922:
 3708              	.LBB908:
 3709              	.LBI903:
 3710              		.loc 9 806 27 discriminator 1 view .LVU956
 3711              	.LBE908:
 3712              	.LBE922:
 3713              	.LBE927:
 3714              	.LBE932:
ARM GAS  /tmp/ccuqlnP4.s 			page 67


 3715              		.loc 9 814 3 discriminator 1 view .LVU957
 3716              	.LBB933:
 3717              	.LBB928:
 3718              	.LBB923:
 3719              	.LBB909:
 3720              	.LBB907:
 3721              	.LBI904:
 3722              		.loc 7 491 27 discriminator 1 view .LVU958
 3723              	.LBB906:
 3724              		.loc 7 493 3 discriminator 1 view .LVU959
 3725              		.syntax unified
 3726              	@ 493 "../ChibiOS/os/common/ext/ARM/CMSIS/Core/Include/cmsis_gcc.h" 1
 3727 0006 86F31188 		MSR basepri, r6
 3728              	@ 0 "" 2
 3729              	.LVL205:
 3730              		.loc 7 493 3 is_stmt 0 discriminator 1 view .LVU960
 3731              		.thumb
 3732              		.syntax unified
 3733              	.LBE906:
 3734              	.LBE907:
 3735              	.LBE909:
 3736              	.LBE923:
 3737              	.LBE928:
 3738              	.LBE933:
 3739              		.loc 8 410 35 is_stmt 1 discriminator 1 view .LVU961
 3740              		.loc 8 411 21 discriminator 1 view .LVU962
 3741              	.LBB934:
 3742              	.LBB929:
 3743              		.loc 11 99 3 discriminator 1 view .LVU963
 3744              		.loc 11 99 8 is_stmt 0 discriminator 1 view .LVU964
 3745 000a FFF7FEFF 		bl	chMsgWaitS
 3746              	.LVL206:
 3747              		.loc 11 100 3 is_stmt 1 discriminator 1 view .LVU965
 3748              	.LBB924:
 3749              	.LBI910:
 3750              		.loc 8 421 20 discriminator 1 view .LVU966
 3751              	.LBB919:
 3752              		.loc 8 423 23 discriminator 1 view .LVU967
 3753              		.loc 8 424 34 discriminator 1 view .LVU968
 3754              		.loc 8 430 3 discriminator 1 view .LVU969
 3755              		.loc 8 430 3 discriminator 1 view .LVU970
 3756              		.loc 8 430 3 discriminator 1 view .LVU971
 3757              		.loc 8 434 3 discriminator 1 view .LVU972
 3758              	.LBB917:
 3759              	.LBI912:
 3760              		.loc 9 830 27 discriminator 1 view .LVU973
 3761              	.LBE917:
 3762              	.LBE919:
 3763              	.LBE924:
 3764              	.LBE929:
 3765              	.LBE934:
 3766              		.loc 9 833 3 discriminator 1 view .LVU974
 3767              	.LBB935:
 3768              	.LBB930:
 3769              	.LBB925:
 3770              	.LBB920:
 3771              	.LBB918:
ARM GAS  /tmp/ccuqlnP4.s 			page 68


 3772              	.LBB916:
 3773              	.LBI913:
 3774              		.loc 7 491 27 discriminator 1 view .LVU975
 3775              	.LBB915:
 3776              		.loc 7 493 3 discriminator 1 view .LVU976
 3777              		.syntax unified
 3778              	@ 493 "../ChibiOS/os/common/ext/ARM/CMSIS/Core/Include/cmsis_gcc.h" 1
 3779 000e 85F31188 		MSR basepri, r5
 3780              	@ 0 "" 2
 3781              	.LVL207:
 3782              		.loc 7 493 3 is_stmt 0 discriminator 1 view .LVU977
 3783              		.thumb
 3784              		.syntax unified
 3785              	.LBE915:
 3786              	.LBE916:
 3787              	.LBE918:
 3788              	.LBE920:
 3789              	.LBE925:
 3790              		.loc 11 102 3 is_stmt 1 discriminator 1 view .LVU978
 3791              		.loc 11 102 3 is_stmt 0 discriminator 1 view .LVU979
 3792              	.LBE930:
 3793              	.LBE935:
 3794              		.loc 1 77 5 is_stmt 1 discriminator 1 view .LVU980
 3795              	.LBB936:
 3796              	.LBI936:
 3797              		.loc 11 190 21 discriminator 1 view .LVU981
 3798              	.LBB937:
 3799              		.loc 11 192 3 discriminator 1 view .LVU982
 3800              		.loc 11 192 3 discriminator 1 view .LVU983
 3801              		.loc 11 192 3 discriminator 1 view .LVU984
 3802              		.loc 11 194 3 discriminator 1 view .LVU985
 3803              		.loc 11 194 15 is_stmt 0 discriminator 1 view .LVU986
 3804 0012 846A     		ldr	r4, [r0, #40]
 3805              	.LVL208:
 3806              		.loc 11 194 15 discriminator 1 view .LVU987
 3807              	.LBE937:
 3808              	.LBE936:
 3809              		.loc 1 78 5 is_stmt 1 discriminator 1 view .LVU988
 3810 0014 2146     		mov	r1, r4
 3811 0016 FFF7FEFF 		bl	chMsgRelease
 3812              	.LVL209:
 3813              		.loc 1 79 11 discriminator 1 view .LVU989
 3814              		.loc 1 79 3 is_stmt 0 discriminator 1 view .LVU990
 3815 001a 002C     		cmp	r4, #0
 3816 001c F3D1     		bne	.L86
 3817              		.loc 1 80 1 view .LVU991
 3818 001e 70BD     		pop	{r4, r5, r6, pc}
 3819              		.loc 1 80 1 view .LVU992
 3820              		.cfi_endproc
 3821              	.LFE405:
 3822              		.size	bmk_thread1, .-bmk_thread1
 3823              		.section	.text.msg_loop_test,"ax",%progbits
 3824              		.align	1
 3825              		.p2align 4,,15
 3826              		.syntax unified
 3827              		.thumb
 3828              		.thumb_func
ARM GAS  /tmp/ccuqlnP4.s 			page 69


 3829              		.fpu softvfp
 3830              		.type	msg_loop_test, %function
 3831              	msg_loop_test:
 3832              	.LVL210:
 3833              	.LFB406:
 3834              		.loc 1 82 58 is_stmt 1 view -0
 3835              		.cfi_startproc
 3836              		@ args = 0, pretend = 0, frame = 0
 3837              		@ frame_needed = 0, uses_anonymous_args = 0
 3838              		.loc 1 83 3 view .LVU994
 3839              		.loc 1 85 3 view .LVU995
 3840              		.loc 1 86 3 view .LVU996
 3841              		.loc 1 82 58 is_stmt 0 view .LVU997
 3842 0000 F8B5     		push	{r3, r4, r5, r6, r7, lr}
 3843              		.cfi_def_cfa_offset 24
 3844              		.cfi_offset 3, -24
 3845              		.cfi_offset 4, -20
 3846              		.cfi_offset 5, -16
 3847              		.cfi_offset 6, -12
 3848              		.cfi_offset 7, -8
 3849              		.cfi_offset 14, -4
 3850              		.loc 1 82 58 view .LVU998
 3851 0002 0546     		mov	r5, r0
 3852              		.loc 1 86 11 view .LVU999
 3853 0004 FFF7FEFF 		bl	test_wait_tick
 3854              	.LVL211:
 3855              		.loc 1 85 12 view .LVU1000
 3856 0008 0024     		movs	r4, #0
 3857              		.loc 1 86 11 view .LVU1001
 3858 000a 0646     		mov	r6, r0
 3859              	.LVL212:
 3860              		.loc 1 87 3 is_stmt 1 view .LVU1002
 3861              		.loc 3 449 3 view .LVU1003
 3862              		.loc 1 94 3 is_stmt 0 view .LVU1004
 3863 000c 42F20F77 		movw	r7, #9999
 3864              	.LVL213:
 3865              	.L90:
 3866              		.loc 1 88 3 is_stmt 1 discriminator 1 view .LVU1005
 3867              		.loc 1 89 5 discriminator 1 view .LVU1006
 3868              		.loc 1 89 11 is_stmt 0 discriminator 1 view .LVU1007
 3869 0010 0121     		movs	r1, #1
 3870 0012 2846     		mov	r0, r5
 3871 0014 FFF7FEFF 		bl	chMsgSend
 3872              	.LVL214:
 3873              		.loc 1 90 5 is_stmt 1 discriminator 1 view .LVU1008
 3874              	.LBB938:
 3875              	.LBB939:
 3876              	.LBB940:
 3877              	.LBB941:
 3878              		.loc 4 113 10 is_stmt 0 discriminator 1 view .LVU1009
 3879 0018 FFF7FEFF 		bl	stGetCounter
 3880              	.LVL215:
 3881              	.LBE941:
 3882              	.LBE940:
 3883              	.LBE939:
 3884              	.LBB944:
 3885              	.LBB945:
ARM GAS  /tmp/ccuqlnP4.s 			page 70


 3886              		.loc 3 488 17 discriminator 1 view .LVU1010
 3887 001c 801B     		subs	r0, r0, r6
 3888              	.LBE945:
 3889              	.LBE944:
 3890              	.LBE938:
 3891              		.loc 1 94 3 discriminator 1 view .LVU1011
 3892 001e B842     		cmp	r0, r7
 3893              		.loc 1 90 6 discriminator 1 view .LVU1012
 3894 0020 04F10104 		add	r4, r4, #1
 3895              	.LVL216:
 3896              		.loc 1 94 11 is_stmt 1 discriminator 1 view .LVU1013
 3897              	.LBB950:
 3898              	.LBI938:
 3899              		.loc 5 177 20 discriminator 1 view .LVU1014
 3900              	.LBE950:
 3901              		.loc 5 179 3 discriminator 1 view .LVU1015
 3902              	.LBB951:
 3903              	.LBB947:
 3904              	.LBI939:
 3905              		.loc 5 122 25 discriminator 1 view .LVU1016
 3906              	.LBE947:
 3907              	.LBE951:
 3908              		.loc 5 127 3 discriminator 1 view .LVU1017
 3909              	.LBB952:
 3910              	.LBB948:
 3911              	.LBB943:
 3912              	.LBI940:
 3913              		.loc 4 111 25 discriminator 1 view .LVU1018
 3914              	.LBB942:
 3915              		.loc 4 113 3 discriminator 1 view .LVU1019
 3916              		.loc 4 113 3 is_stmt 0 discriminator 1 view .LVU1020
 3917              	.LBE942:
 3918              	.LBE943:
 3919              	.LBE948:
 3920              	.LBB949:
 3921              	.LBI944:
 3922              		.loc 3 484 20 is_stmt 1 discriminator 1 view .LVU1021
 3923              	.LBB946:
 3924              		.loc 3 488 3 discriminator 1 view .LVU1022
 3925              		.loc 3 488 3 is_stmt 0 discriminator 1 view .LVU1023
 3926              	.LBE946:
 3927              	.LBE949:
 3928              	.LBE952:
 3929              		.loc 1 94 3 discriminator 1 view .LVU1024
 3930 0024 F4D9     		bls	.L90
 3931              		.loc 1 95 3 is_stmt 1 view .LVU1025
 3932              		.loc 1 95 9 is_stmt 0 view .LVU1026
 3933 0026 0021     		movs	r1, #0
 3934 0028 2846     		mov	r0, r5
 3935 002a FFF7FEFF 		bl	chMsgSend
 3936              	.LVL217:
 3937              		.loc 1 96 3 is_stmt 1 view .LVU1027
 3938              		.loc 1 97 1 is_stmt 0 view .LVU1028
 3939 002e 2046     		mov	r0, r4
 3940 0030 F8BD     		pop	{r3, r4, r5, r6, r7, pc}
 3941              		.loc 1 97 1 view .LVU1029
 3942              		.cfi_endproc
ARM GAS  /tmp/ccuqlnP4.s 			page 71


 3943              	.LFE406:
 3944              		.size	msg_loop_test, .-msg_loop_test
 3945 0032 00BF     		.section	.rodata.rt_test_012_003_execute.str1.4,"aMS",%progbits,1
 3946              		.align	2
 3947              	.LC20:
 3948 0000 206D7367 		.ascii	" msgs/S, \000"
 3948      732F532C 
 3948      2000
 3949              		.section	.text.rt_test_012_003_execute,"ax",%progbits
 3950              		.align	1
 3951              		.p2align 4,,15
 3952              		.syntax unified
 3953              		.thumb
 3954              		.thumb_func
 3955              		.fpu softvfp
 3956              		.type	rt_test_012_003_execute, %function
 3957              	rt_test_012_003_execute:
 3958              	.LFB413:
 3959              		.loc 1 300 43 is_stmt 1 view -0
 3960              		.cfi_startproc
 3961              		@ args = 0, pretend = 0, frame = 0
 3962              		@ frame_needed = 0, uses_anonymous_args = 0
 3963              		.loc 1 301 3 view .LVU1031
 3964              		.loc 1 305 3 view .LVU1032
 3965              		.loc 1 300 43 is_stmt 0 view .LVU1033
 3966 0000 2DE9F043 		push	{r4, r5, r6, r7, r8, r9, lr}
 3967              		.cfi_def_cfa_offset 28
 3968              		.cfi_offset 4, -28
 3969              		.cfi_offset 5, -24
 3970              		.cfi_offset 6, -20
 3971              		.cfi_offset 7, -16
 3972              		.cfi_offset 8, -12
 3973              		.cfi_offset 9, -8
 3974              		.cfi_offset 14, -4
 3975              	.LBB953:
 3976              	.LBB954:
 3977              	.LBB955:
 3978              	.LBB956:
 3979              		.loc 6 343 10 view .LVU1034
 3980 0004 364F     		ldr	r7, .L95
 3981              	.LBE956:
 3982              	.LBE955:
 3983              	.LBE954:
 3984              	.LBE953:
 3985              		.loc 1 307 18 view .LVU1035
 3986 0006 374D     		ldr	r5, .L95+4
 3987              	.LBB961:
 3988              	.LBB959:
 3989              		.loc 6 356 37 view .LVU1036
 3990 0008 FB68     		ldr	r3, [r7, #12]
 3991              	.LBE959:
 3992              	.LBE961:
 3993              		.loc 1 305 3 view .LVU1037
 3994 000a DFF8DC80 		ldr	r8, .L95+8
 3995              		.loc 1 307 18 view .LVU1038
 3996 000e 9A68     		ldr	r2, [r3, #8]
 3997 0010 2868     		ldr	r0, [r5]
ARM GAS  /tmp/ccuqlnP4.s 			page 72


 3998 0012 364B     		ldr	r3, .L95+12
 3999              		.loc 1 315 18 view .LVU1039
 4000 0014 DFF8D890 		ldr	r9, .L95+16
 4001              		.loc 1 300 43 view .LVU1040
 4002 0018 83B0     		sub	sp, sp, #12
 4003              		.cfi_def_cfa_offset 40
 4004              		.loc 1 307 18 view .LVU1041
 4005 001a 0026     		movs	r6, #0
 4006 001c 0096     		str	r6, [sp]
 4007 001e 0132     		adds	r2, r2, #1
 4008 0020 4FF4B871 		mov	r1, #368
 4009              		.loc 1 305 3 view .LVU1042
 4010 0024 0124     		movs	r4, #1
 4011 0026 C8F80040 		str	r4, [r8]
 4012              		.loc 1 307 5 is_stmt 1 view .LVU1043
 4013              	.LBB962:
 4014              	.LBI953:
 4015              		.loc 6 354 23 view .LVU1044
 4016              	.LBB960:
 4017              		.loc 6 356 3 view .LVU1045
 4018              	.LBB958:
 4019              	.LBI955:
 4020              		.loc 6 341 25 view .LVU1046
 4021              	.LBB957:
 4022              		.loc 6 343 3 view .LVU1047
 4023              	.LBE957:
 4024              	.LBE958:
 4025              	.LBE960:
 4026              	.LBE962:
 4027              		.loc 1 307 18 is_stmt 0 view .LVU1048
 4028 002a FFF7FEFF 		bl	chThdCreateStatic
 4029              	.LVL218:
 4030              	.LBB963:
 4031              	.LBB964:
 4032              		.loc 6 356 37 view .LVU1049
 4033 002e FB68     		ldr	r3, [r7, #12]
 4034              	.LBE964:
 4035              	.LBE963:
 4036              		.loc 1 307 16 view .LVU1050
 4037 0030 304C     		ldr	r4, .L95+20
 4038              		.loc 1 315 18 view .LVU1051
 4039 0032 9A68     		ldr	r2, [r3, #8]
 4040 0034 0096     		str	r6, [sp]
 4041              		.loc 1 313 3 view .LVU1052
 4042 0036 4FF0020C 		mov	ip, #2
 4043              		.loc 1 307 16 view .LVU1053
 4044 003a 2060     		str	r0, [r4]
 4045              		.loc 1 309 3 is_stmt 1 view .LVU1054
 4046              		.loc 1 309 19 view .LVU1055
 4047              		.loc 1 313 3 view .LVU1056
 4048              		.loc 1 315 18 is_stmt 0 view .LVU1057
 4049 003c 4B46     		mov	r3, r9
 4050 003e 6868     		ldr	r0, [r5, #4]
 4051              		.loc 1 313 3 view .LVU1058
 4052 0040 C8F800C0 		str	ip, [r8]
 4053              		.loc 1 315 5 is_stmt 1 view .LVU1059
 4054              	.LBB968:
ARM GAS  /tmp/ccuqlnP4.s 			page 73


 4055              	.LBI963:
 4056              		.loc 6 354 23 view .LVU1060
 4057              	.LBB967:
 4058              		.loc 6 356 3 view .LVU1061
 4059              	.LBB965:
 4060              	.LBI965:
 4061              		.loc 6 341 25 view .LVU1062
 4062              	.LBB966:
 4063              		.loc 6 343 3 view .LVU1063
 4064              	.LBE966:
 4065              	.LBE965:
 4066              	.LBE967:
 4067              	.LBE968:
 4068              		.loc 1 315 18 is_stmt 0 view .LVU1064
 4069 0044 023A     		subs	r2, r2, #2
 4070 0046 4FF4B871 		mov	r1, #368
 4071 004a FFF7FEFF 		bl	chThdCreateStatic
 4072              	.LVL219:
 4073              	.LBB969:
 4074              	.LBB970:
 4075              		.loc 6 356 37 view .LVU1065
 4076 004e FB68     		ldr	r3, [r7, #12]
 4077              	.LBE970:
 4078              	.LBE969:
 4079              		.loc 1 315 16 view .LVU1066
 4080 0050 6060     		str	r0, [r4, #4]
 4081              		.loc 1 316 5 is_stmt 1 view .LVU1067
 4082              	.LBB974:
 4083              	.LBI969:
 4084              		.loc 6 354 23 view .LVU1068
 4085              	.LBB973:
 4086              		.loc 6 356 3 view .LVU1069
 4087              	.LBB971:
 4088              	.LBI971:
 4089              		.loc 6 341 25 view .LVU1070
 4090              	.LBB972:
 4091              		.loc 6 343 3 view .LVU1071
 4092              	.LBE972:
 4093              	.LBE971:
 4094              	.LBE973:
 4095              	.LBE974:
 4096              		.loc 1 316 18 is_stmt 0 view .LVU1072
 4097 0052 9A68     		ldr	r2, [r3, #8]
 4098 0054 A868     		ldr	r0, [r5, #8]
 4099 0056 0096     		str	r6, [sp]
 4100 0058 4B46     		mov	r3, r9
 4101 005a 033A     		subs	r2, r2, #3
 4102 005c 4FF4B871 		mov	r1, #368
 4103 0060 FFF7FEFF 		bl	chThdCreateStatic
 4104              	.LVL220:
 4105              	.LBB975:
 4106              	.LBB976:
 4107              		.loc 6 356 37 view .LVU1073
 4108 0064 FB68     		ldr	r3, [r7, #12]
 4109              	.LBE976:
 4110              	.LBE975:
 4111              		.loc 1 316 16 view .LVU1074
ARM GAS  /tmp/ccuqlnP4.s 			page 74


 4112 0066 A060     		str	r0, [r4, #8]
 4113              		.loc 1 317 5 is_stmt 1 view .LVU1075
 4114              	.LBB980:
 4115              	.LBI975:
 4116              		.loc 6 354 23 view .LVU1076
 4117              	.LBB979:
 4118              		.loc 6 356 3 view .LVU1077
 4119              	.LBB977:
 4120              	.LBI977:
 4121              		.loc 6 341 25 view .LVU1078
 4122              	.LBB978:
 4123              		.loc 6 343 3 view .LVU1079
 4124              	.LBE978:
 4125              	.LBE977:
 4126              	.LBE979:
 4127              	.LBE980:
 4128              		.loc 1 317 18 is_stmt 0 view .LVU1080
 4129 0068 9A68     		ldr	r2, [r3, #8]
 4130 006a E868     		ldr	r0, [r5, #12]
 4131 006c 0096     		str	r6, [sp]
 4132 006e 4B46     		mov	r3, r9
 4133 0070 043A     		subs	r2, r2, #4
 4134 0072 4FF4B871 		mov	r1, #368
 4135 0076 FFF7FEFF 		bl	chThdCreateStatic
 4136              	.LVL221:
 4137              	.LBB981:
 4138              	.LBB982:
 4139              		.loc 6 356 37 view .LVU1081
 4140 007a FA68     		ldr	r2, [r7, #12]
 4141              	.LBE982:
 4142              	.LBE981:
 4143              		.loc 1 317 16 view .LVU1082
 4144 007c E060     		str	r0, [r4, #12]
 4145              		.loc 1 318 5 is_stmt 1 view .LVU1083
 4146              	.LBB986:
 4147              	.LBI981:
 4148              		.loc 6 354 23 view .LVU1084
 4149              	.LBB985:
 4150              		.loc 6 356 3 view .LVU1085
 4151              	.LBB983:
 4152              	.LBI983:
 4153              		.loc 6 341 25 view .LVU1086
 4154              	.LBB984:
 4155              		.loc 6 343 3 view .LVU1087
 4156              	.LBE984:
 4157              	.LBE983:
 4158              	.LBE985:
 4159              	.LBE986:
 4160              		.loc 1 318 18 is_stmt 0 view .LVU1088
 4161 007e 9268     		ldr	r2, [r2, #8]
 4162 0080 2869     		ldr	r0, [r5, #16]
 4163 0082 0096     		str	r6, [sp]
 4164 0084 4FF4B871 		mov	r1, #368
 4165 0088 4B46     		mov	r3, r9
 4166 008a 053A     		subs	r2, r2, #5
 4167 008c FFF7FEFF 		bl	chThdCreateStatic
 4168              	.LVL222:
ARM GAS  /tmp/ccuqlnP4.s 			page 75


 4169 0090 0346     		mov	r3, r0
 4170              		.loc 1 324 3 view .LVU1089
 4171 0092 0322     		movs	r2, #3
 4172              		.loc 1 318 16 view .LVU1090
 4173 0094 2361     		str	r3, [r4, #16]
 4174              		.loc 1 320 3 is_stmt 1 view .LVU1091
 4175              		.loc 1 320 19 view .LVU1092
 4176              		.loc 1 324 3 view .LVU1093
 4177              		.loc 1 326 5 view .LVU1094
 4178              		.loc 1 326 9 is_stmt 0 view .LVU1095
 4179 0096 2068     		ldr	r0, [r4]
 4180              		.loc 1 324 3 view .LVU1096
 4181 0098 C8F80020 		str	r2, [r8]
 4182              		.loc 1 326 9 view .LVU1097
 4183 009c FFF7FEFF 		bl	msg_loop_test
 4184              	.LVL223:
 4185              	.LBB987:
 4186              	.LBB988:
 4187              		.loc 2 371 3 view .LVU1098
 4188 00a0 154E     		ldr	r6, .L95+24
 4189              	.LBE988:
 4190              	.LBE987:
 4191              	.LBB991:
 4192              	.LBB992:
 4193              		.loc 2 359 3 view .LVU1099
 4194 00a2 164D     		ldr	r5, .L95+28
 4195              	.LBE992:
 4196              	.LBE991:
 4197              		.loc 1 326 9 view .LVU1100
 4198 00a4 0446     		mov	r4, r0
 4199              	.LVL224:
 4200              		.loc 1 327 5 is_stmt 1 view .LVU1101
 4201 00a6 FFF7FEFF 		bl	test_wait_threads
 4202              	.LVL225:
 4203              		.loc 1 329 3 view .LVU1102
 4204              		.loc 1 329 19 view .LVU1103
 4205              		.loc 1 332 3 view .LVU1104
 4206 00aa 0423     		movs	r3, #4
 4207              	.LBB994:
 4208              	.LBB989:
 4209              		.loc 2 371 3 is_stmt 0 view .LVU1105
 4210 00ac 1449     		ldr	r1, .L95+32
 4211              	.LBE989:
 4212              	.LBE994:
 4213              		.loc 1 332 3 view .LVU1106
 4214 00ae C8F80030 		str	r3, [r8]
 4215              		.loc 1 334 5 is_stmt 1 view .LVU1107
 4216              	.LVL226:
 4217              	.LBB995:
 4218              	.LBI987:
 4219              		.loc 2 369 20 view .LVU1108
 4220              	.LBB990:
 4221              		.loc 2 371 3 view .LVU1109
 4222 00b2 3046     		mov	r0, r6
 4223 00b4 FFF7FEFF 		bl	test_printf
 4224              	.LVL227:
 4225              		.loc 2 371 3 is_stmt 0 view .LVU1110
ARM GAS  /tmp/ccuqlnP4.s 			page 76


 4226              	.LBE990:
 4227              	.LBE995:
 4228              		.loc 1 335 5 is_stmt 1 view .LVU1111
 4229              	.LBB996:
 4230              	.LBI991:
 4231              		.loc 2 357 20 view .LVU1112
 4232              	.LBB993:
 4233              		.loc 2 359 3 view .LVU1113
 4234 00b8 2146     		mov	r1, r4
 4235 00ba 2846     		mov	r0, r5
 4236 00bc FFF7FEFF 		bl	test_printf
 4237              	.LVL228:
 4238              		.loc 2 359 3 is_stmt 0 view .LVU1114
 4239              	.LBE993:
 4240              	.LBE996:
 4241              		.loc 1 336 5 is_stmt 1 view .LVU1115
 4242              	.LBB997:
 4243              	.LBI997:
 4244              		.loc 2 369 20 view .LVU1116
 4245              	.LBB998:
 4246              		.loc 2 371 3 view .LVU1117
 4247 00c0 1049     		ldr	r1, .L95+36
 4248 00c2 3046     		mov	r0, r6
 4249 00c4 FFF7FEFF 		bl	test_printf
 4250              	.LVL229:
 4251              		.loc 2 371 3 is_stmt 0 view .LVU1118
 4252              	.LBE998:
 4253              	.LBE997:
 4254              		.loc 1 337 5 is_stmt 1 view .LVU1119
 4255              	.LBB999:
 4256              	.LBI999:
 4257              		.loc 2 357 20 view .LVU1120
 4258              	.LBB1000:
 4259              		.loc 2 359 3 view .LVU1121
 4260 00c8 6100     		lsls	r1, r4, #1
 4261              	.LVL230:
 4262              		.loc 2 359 3 is_stmt 0 view .LVU1122
 4263 00ca 2846     		mov	r0, r5
 4264 00cc FFF7FEFF 		bl	test_printf
 4265              	.LVL231:
 4266              		.loc 2 359 3 view .LVU1123
 4267              	.LBE1000:
 4268              	.LBE999:
 4269              		.loc 1 338 5 is_stmt 1 view .LVU1124
 4270              	.LBB1001:
 4271              	.LBI1001:
 4272              		.loc 2 381 20 view .LVU1125
 4273              	.LBB1002:
 4274              		.loc 2 383 3 view .LVU1126
 4275 00d0 0D49     		ldr	r1, .L95+40
 4276 00d2 0E48     		ldr	r0, .L95+44
 4277              	.LBE1002:
 4278              	.LBE1001:
 4279              		.loc 1 341 1 is_stmt 0 view .LVU1127
 4280 00d4 03B0     		add	sp, sp, #12
 4281              		.cfi_def_cfa_offset 28
 4282              		@ sp needed
ARM GAS  /tmp/ccuqlnP4.s 			page 77


 4283 00d6 BDE8F043 		pop	{r4, r5, r6, r7, r8, r9, lr}
 4284              		.cfi_restore 14
 4285              		.cfi_restore 9
 4286              		.cfi_restore 8
 4287              		.cfi_restore 7
 4288              		.cfi_restore 6
 4289              		.cfi_restore 5
 4290              		.cfi_restore 4
 4291              		.cfi_def_cfa_offset 0
 4292              	.LVL232:
 4293              	.LBB1004:
 4294              	.LBB1003:
 4295              		.loc 2 383 3 view .LVU1128
 4296 00da FFF7FEBF 		b	test_printf
 4297              	.LVL233:
 4298              	.L96:
 4299 00de 00BF     		.align	2
 4300              	.L95:
 4301 00e0 00000000 		.word	ch0
 4302 00e4 00000000 		.word	wa
 4303 00e8 00000000 		.word	chtest
 4304 00ec 00000000 		.word	bmk_thread1
 4305 00f0 00000000 		.word	bmk_thread3
 4306 00f4 00000000 		.word	threads
 4307 00f8 10000000 		.word	.LC1
 4308 00fc 14000000 		.word	.LC2
 4309 0100 00000000 		.word	.LC13
 4310 0104 00000000 		.word	.LC20
 4311 0108 00000000 		.word	.LC17
 4312 010c 20000000 		.word	.LC4
 4313              	.LBE1003:
 4314              	.LBE1004:
 4315              		.cfi_endproc
 4316              	.LFE413:
 4317              		.size	rt_test_012_003_execute, .-rt_test_012_003_execute
 4318              		.section	.text.rt_test_012_002_execute,"ax",%progbits
 4319              		.align	1
 4320              		.p2align 4,,15
 4321              		.syntax unified
 4322              		.thumb
 4323              		.thumb_func
 4324              		.fpu softvfp
 4325              		.type	rt_test_012_002_execute, %function
 4326              	rt_test_012_002_execute:
 4327              	.LFB412:
 4328              		.loc 1 233 43 is_stmt 1 view -0
 4329              		.cfi_startproc
 4330              		@ args = 0, pretend = 0, frame = 0
 4331              		@ frame_needed = 0, uses_anonymous_args = 0
 4332              		.loc 1 234 3 view .LVU1130
 4333              		.loc 1 238 3 view .LVU1131
 4334              		.loc 1 233 43 is_stmt 0 view .LVU1132
 4335 0000 F0B5     		push	{r4, r5, r6, r7, lr}
 4336              		.cfi_def_cfa_offset 20
 4337              		.cfi_offset 4, -20
 4338              		.cfi_offset 5, -16
 4339              		.cfi_offset 6, -12
ARM GAS  /tmp/ccuqlnP4.s 			page 78


 4340              		.cfi_offset 7, -8
 4341              		.cfi_offset 14, -4
 4342              	.LBB1005:
 4343              	.LBB1006:
 4344              	.LBB1007:
 4345              	.LBB1008:
 4346              		.loc 6 343 10 view .LVU1133
 4347 0002 1A4B     		ldr	r3, .L99
 4348              	.LBE1008:
 4349              	.LBE1007:
 4350              	.LBE1006:
 4351              	.LBE1005:
 4352              		.loc 1 240 18 view .LVU1134
 4353 0004 1A49     		ldr	r1, .L99+4
 4354              	.LBB1013:
 4355              	.LBB1011:
 4356              		.loc 6 356 37 view .LVU1135
 4357 0006 DB68     		ldr	r3, [r3, #12]
 4358              	.LBE1011:
 4359              	.LBE1013:
 4360              		.loc 1 238 3 view .LVU1136
 4361 0008 1A4D     		ldr	r5, .L99+8
 4362              		.loc 1 240 18 view .LVU1137
 4363 000a 9A68     		ldr	r2, [r3, #8]
 4364 000c 0868     		ldr	r0, [r1]
 4365 000e 1A4B     		ldr	r3, .L99+12
 4366              	.LBB1014:
 4367              	.LBB1015:
 4368              		.loc 2 371 3 view .LVU1138
 4369 0010 1A4F     		ldr	r7, .L99+16
 4370              	.LBE1015:
 4371              	.LBE1014:
 4372              	.LBB1018:
 4373              	.LBB1019:
 4374              		.loc 2 359 3 view .LVU1139
 4375 0012 1B4E     		ldr	r6, .L99+20
 4376              	.LBE1019:
 4377              	.LBE1018:
 4378              		.loc 1 233 43 view .LVU1140
 4379 0014 83B0     		sub	sp, sp, #12
 4380              		.cfi_def_cfa_offset 32
 4381              		.loc 1 240 18 view .LVU1141
 4382 0016 0024     		movs	r4, #0
 4383              		.loc 1 238 3 view .LVU1142
 4384 0018 0121     		movs	r1, #1
 4385              		.loc 1 240 18 view .LVU1143
 4386 001a 0094     		str	r4, [sp]
 4387              		.loc 1 238 3 view .LVU1144
 4388 001c 2960     		str	r1, [r5]
 4389              		.loc 1 240 5 is_stmt 1 view .LVU1145
 4390              	.LBB1021:
 4391              	.LBI1005:
 4392              		.loc 6 354 23 view .LVU1146
 4393              	.LBB1012:
 4394              		.loc 6 356 3 view .LVU1147
 4395              	.LBB1010:
 4396              	.LBI1007:
ARM GAS  /tmp/ccuqlnP4.s 			page 79


 4397              		.loc 6 341 25 view .LVU1148
 4398              	.LBB1009:
 4399              		.loc 6 343 3 view .LVU1149
 4400              	.LBE1009:
 4401              	.LBE1010:
 4402              	.LBE1012:
 4403              	.LBE1021:
 4404              		.loc 1 240 18 is_stmt 0 view .LVU1150
 4405 001e 0132     		adds	r2, r2, #1
 4406 0020 4FF4B871 		mov	r1, #368
 4407 0024 FFF7FEFF 		bl	chThdCreateStatic
 4408              	.LVL234:
 4409              		.loc 1 240 16 view .LVU1151
 4410 0028 164B     		ldr	r3, .L99+24
 4411              		.loc 1 246 3 view .LVU1152
 4412 002a 0222     		movs	r2, #2
 4413              		.loc 1 240 16 view .LVU1153
 4414 002c 1860     		str	r0, [r3]
 4415              		.loc 1 242 3 is_stmt 1 view .LVU1154
 4416              		.loc 1 242 19 view .LVU1155
 4417              		.loc 1 246 3 view .LVU1156
 4418              		.loc 1 248 5 view .LVU1157
 4419              		.loc 1 246 3 is_stmt 0 view .LVU1158
 4420 002e 2A60     		str	r2, [r5]
 4421              		.loc 1 248 9 view .LVU1159
 4422 0030 FFF7FEFF 		bl	msg_loop_test
 4423              	.LVL235:
 4424 0034 0446     		mov	r4, r0
 4425              	.LVL236:
 4426              		.loc 1 249 5 is_stmt 1 view .LVU1160
 4427 0036 FFF7FEFF 		bl	test_wait_threads
 4428              	.LVL237:
 4429              		.loc 1 251 3 view .LVU1161
 4430              		.loc 1 251 19 view .LVU1162
 4431              		.loc 1 254 3 view .LVU1163
 4432 003a 0323     		movs	r3, #3
 4433              	.LBB1022:
 4434              	.LBB1016:
 4435              		.loc 2 371 3 is_stmt 0 view .LVU1164
 4436 003c 1249     		ldr	r1, .L99+28
 4437              	.LBE1016:
 4438              	.LBE1022:
 4439              		.loc 1 254 3 view .LVU1165
 4440 003e 2B60     		str	r3, [r5]
 4441              		.loc 1 256 5 is_stmt 1 view .LVU1166
 4442              	.LVL238:
 4443              	.LBB1023:
 4444              	.LBI1014:
 4445              		.loc 2 369 20 view .LVU1167
 4446              	.LBB1017:
 4447              		.loc 2 371 3 view .LVU1168
 4448 0040 3846     		mov	r0, r7
 4449 0042 FFF7FEFF 		bl	test_printf
 4450              	.LVL239:
 4451              		.loc 2 371 3 is_stmt 0 view .LVU1169
 4452              	.LBE1017:
 4453              	.LBE1023:
ARM GAS  /tmp/ccuqlnP4.s 			page 80


 4454              		.loc 1 257 5 is_stmt 1 view .LVU1170
 4455              	.LBB1024:
 4456              	.LBI1018:
 4457              		.loc 2 357 20 view .LVU1171
 4458              	.LBB1020:
 4459              		.loc 2 359 3 view .LVU1172
 4460 0046 2146     		mov	r1, r4
 4461 0048 3046     		mov	r0, r6
 4462 004a FFF7FEFF 		bl	test_printf
 4463              	.LVL240:
 4464              		.loc 2 359 3 is_stmt 0 view .LVU1173
 4465              	.LBE1020:
 4466              	.LBE1024:
 4467              		.loc 1 258 5 is_stmt 1 view .LVU1174
 4468              	.LBB1025:
 4469              	.LBI1025:
 4470              		.loc 2 369 20 view .LVU1175
 4471              	.LBB1026:
 4472              		.loc 2 371 3 view .LVU1176
 4473 004e 0F49     		ldr	r1, .L99+32
 4474 0050 3846     		mov	r0, r7
 4475 0052 FFF7FEFF 		bl	test_printf
 4476              	.LVL241:
 4477              		.loc 2 371 3 is_stmt 0 view .LVU1177
 4478              	.LBE1026:
 4479              	.LBE1025:
 4480              		.loc 1 259 5 is_stmt 1 view .LVU1178
 4481              	.LBB1027:
 4482              	.LBI1027:
 4483              		.loc 2 357 20 view .LVU1179
 4484              	.LBB1028:
 4485              		.loc 2 359 3 view .LVU1180
 4486 0056 6100     		lsls	r1, r4, #1
 4487              	.LVL242:
 4488              		.loc 2 359 3 is_stmt 0 view .LVU1181
 4489 0058 3046     		mov	r0, r6
 4490 005a FFF7FEFF 		bl	test_printf
 4491              	.LVL243:
 4492              		.loc 2 359 3 view .LVU1182
 4493              	.LBE1028:
 4494              	.LBE1027:
 4495              		.loc 1 260 5 is_stmt 1 view .LVU1183
 4496              	.LBB1029:
 4497              	.LBI1029:
 4498              		.loc 2 381 20 view .LVU1184
 4499              	.LBB1030:
 4500              		.loc 2 383 3 view .LVU1185
 4501 005e 0C49     		ldr	r1, .L99+36
 4502 0060 0C48     		ldr	r0, .L99+40
 4503              	.LBE1030:
 4504              	.LBE1029:
 4505              		.loc 1 263 1 is_stmt 0 view .LVU1186
 4506 0062 03B0     		add	sp, sp, #12
 4507              		.cfi_def_cfa_offset 20
 4508              		@ sp needed
 4509 0064 BDE8F040 		pop	{r4, r5, r6, r7, lr}
 4510              		.cfi_restore 14
ARM GAS  /tmp/ccuqlnP4.s 			page 81


 4511              		.cfi_restore 7
 4512              		.cfi_restore 6
 4513              		.cfi_restore 5
 4514              		.cfi_restore 4
 4515              		.cfi_def_cfa_offset 0
 4516              	.LVL244:
 4517              	.LBB1032:
 4518              	.LBB1031:
 4519              		.loc 2 383 3 view .LVU1187
 4520 0068 FFF7FEBF 		b	test_printf
 4521              	.LVL245:
 4522              	.L100:
 4523              		.align	2
 4524              	.L99:
 4525 006c 00000000 		.word	ch0
 4526 0070 00000000 		.word	wa
 4527 0074 00000000 		.word	chtest
 4528 0078 00000000 		.word	bmk_thread1
 4529 007c 10000000 		.word	.LC1
 4530 0080 14000000 		.word	.LC2
 4531 0084 00000000 		.word	threads
 4532 0088 00000000 		.word	.LC13
 4533 008c 00000000 		.word	.LC20
 4534 0090 00000000 		.word	.LC17
 4535 0094 20000000 		.word	.LC4
 4536              	.LBE1031:
 4537              	.LBE1032:
 4538              		.cfi_endproc
 4539              	.LFE412:
 4540              		.size	rt_test_012_002_execute, .-rt_test_012_002_execute
 4541              		.section	.text.rt_test_012_001_execute,"ax",%progbits
 4542              		.align	1
 4543              		.p2align 4,,15
 4544              		.syntax unified
 4545              		.thumb
 4546              		.thumb_func
 4547              		.fpu softvfp
 4548              		.type	rt_test_012_001_execute, %function
 4549              	rt_test_012_001_execute:
 4550              	.LFB411:
 4551              		.loc 1 169 43 is_stmt 1 view -0
 4552              		.cfi_startproc
 4553              		@ args = 0, pretend = 0, frame = 0
 4554              		@ frame_needed = 0, uses_anonymous_args = 0
 4555              		.loc 1 170 3 view .LVU1189
 4556              		.loc 1 174 3 view .LVU1190
 4557              		.loc 1 169 43 is_stmt 0 view .LVU1191
 4558 0000 F0B5     		push	{r4, r5, r6, r7, lr}
 4559              		.cfi_def_cfa_offset 20
 4560              		.cfi_offset 4, -20
 4561              		.cfi_offset 5, -16
 4562              		.cfi_offset 6, -12
 4563              		.cfi_offset 7, -8
 4564              		.cfi_offset 14, -4
 4565              	.LBB1033:
 4566              	.LBB1034:
 4567              	.LBB1035:
ARM GAS  /tmp/ccuqlnP4.s 			page 82


 4568              	.LBB1036:
 4569              		.loc 6 343 10 view .LVU1192
 4570 0002 1A4B     		ldr	r3, .L103
 4571              	.LBE1036:
 4572              	.LBE1035:
 4573              	.LBE1034:
 4574              	.LBE1033:
 4575              		.loc 1 176 18 view .LVU1193
 4576 0004 1A49     		ldr	r1, .L103+4
 4577              	.LBB1041:
 4578              	.LBB1039:
 4579              		.loc 6 356 37 view .LVU1194
 4580 0006 DB68     		ldr	r3, [r3, #12]
 4581              	.LBE1039:
 4582              	.LBE1041:
 4583              		.loc 1 174 3 view .LVU1195
 4584 0008 1A4D     		ldr	r5, .L103+8
 4585              		.loc 1 176 18 view .LVU1196
 4586 000a 9A68     		ldr	r2, [r3, #8]
 4587 000c 0868     		ldr	r0, [r1]
 4588 000e 1A4B     		ldr	r3, .L103+12
 4589              	.LBB1042:
 4590              	.LBB1043:
 4591              		.loc 2 371 3 view .LVU1197
 4592 0010 1A4F     		ldr	r7, .L103+16
 4593              	.LBE1043:
 4594              	.LBE1042:
 4595              	.LBB1046:
 4596              	.LBB1047:
 4597              		.loc 2 359 3 view .LVU1198
 4598 0012 1B4E     		ldr	r6, .L103+20
 4599              	.LBE1047:
 4600              	.LBE1046:
 4601              		.loc 1 169 43 view .LVU1199
 4602 0014 83B0     		sub	sp, sp, #12
 4603              		.cfi_def_cfa_offset 32
 4604              		.loc 1 176 18 view .LVU1200
 4605 0016 0024     		movs	r4, #0
 4606              		.loc 1 174 3 view .LVU1201
 4607 0018 0121     		movs	r1, #1
 4608              		.loc 1 176 18 view .LVU1202
 4609 001a 0094     		str	r4, [sp]
 4610              		.loc 1 174 3 view .LVU1203
 4611 001c 2960     		str	r1, [r5]
 4612              		.loc 1 176 5 is_stmt 1 view .LVU1204
 4613              	.LBB1049:
 4614              	.LBI1033:
 4615              		.loc 6 354 23 view .LVU1205
 4616              	.LBB1040:
 4617              		.loc 6 356 3 view .LVU1206
 4618              	.LBB1038:
 4619              	.LBI1035:
 4620              		.loc 6 341 25 view .LVU1207
 4621              	.LBB1037:
 4622              		.loc 6 343 3 view .LVU1208
 4623              	.LBE1037:
 4624              	.LBE1038:
ARM GAS  /tmp/ccuqlnP4.s 			page 83


 4625              	.LBE1040:
 4626              	.LBE1049:
 4627              		.loc 1 176 18 is_stmt 0 view .LVU1209
 4628 001e 013A     		subs	r2, r2, #1
 4629 0020 4FF4B871 		mov	r1, #368
 4630 0024 FFF7FEFF 		bl	chThdCreateStatic
 4631              	.LVL246:
 4632              		.loc 1 176 16 view .LVU1210
 4633 0028 164B     		ldr	r3, .L103+24
 4634              		.loc 1 182 3 view .LVU1211
 4635 002a 0222     		movs	r2, #2
 4636              		.loc 1 176 16 view .LVU1212
 4637 002c 1860     		str	r0, [r3]
 4638              		.loc 1 178 3 is_stmt 1 view .LVU1213
 4639              		.loc 1 178 19 view .LVU1214
 4640              		.loc 1 182 3 view .LVU1215
 4641              		.loc 1 184 5 view .LVU1216
 4642              		.loc 1 182 3 is_stmt 0 view .LVU1217
 4643 002e 2A60     		str	r2, [r5]
 4644              		.loc 1 184 9 view .LVU1218
 4645 0030 FFF7FEFF 		bl	msg_loop_test
 4646              	.LVL247:
 4647 0034 0446     		mov	r4, r0
 4648              	.LVL248:
 4649              		.loc 1 185 5 is_stmt 1 view .LVU1219
 4650 0036 FFF7FEFF 		bl	test_wait_threads
 4651              	.LVL249:
 4652              		.loc 1 187 3 view .LVU1220
 4653              		.loc 1 187 19 view .LVU1221
 4654              		.loc 1 190 3 view .LVU1222
 4655 003a 0323     		movs	r3, #3
 4656              	.LBB1050:
 4657              	.LBB1044:
 4658              		.loc 2 371 3 is_stmt 0 view .LVU1223
 4659 003c 1249     		ldr	r1, .L103+28
 4660              	.LBE1044:
 4661              	.LBE1050:
 4662              		.loc 1 190 3 view .LVU1224
 4663 003e 2B60     		str	r3, [r5]
 4664              		.loc 1 192 5 is_stmt 1 view .LVU1225
 4665              	.LVL250:
 4666              	.LBB1051:
 4667              	.LBI1042:
 4668              		.loc 2 369 20 view .LVU1226
 4669              	.LBB1045:
 4670              		.loc 2 371 3 view .LVU1227
 4671 0040 3846     		mov	r0, r7
 4672 0042 FFF7FEFF 		bl	test_printf
 4673              	.LVL251:
 4674              		.loc 2 371 3 is_stmt 0 view .LVU1228
 4675              	.LBE1045:
 4676              	.LBE1051:
 4677              		.loc 1 193 5 is_stmt 1 view .LVU1229
 4678              	.LBB1052:
 4679              	.LBI1046:
 4680              		.loc 2 357 20 view .LVU1230
 4681              	.LBB1048:
ARM GAS  /tmp/ccuqlnP4.s 			page 84


 4682              		.loc 2 359 3 view .LVU1231
 4683 0046 2146     		mov	r1, r4
 4684 0048 3046     		mov	r0, r6
 4685 004a FFF7FEFF 		bl	test_printf
 4686              	.LVL252:
 4687              		.loc 2 359 3 is_stmt 0 view .LVU1232
 4688              	.LBE1048:
 4689              	.LBE1052:
 4690              		.loc 1 194 5 is_stmt 1 view .LVU1233
 4691              	.LBB1053:
 4692              	.LBI1053:
 4693              		.loc 2 369 20 view .LVU1234
 4694              	.LBB1054:
 4695              		.loc 2 371 3 view .LVU1235
 4696 004e 0F49     		ldr	r1, .L103+32
 4697 0050 3846     		mov	r0, r7
 4698 0052 FFF7FEFF 		bl	test_printf
 4699              	.LVL253:
 4700              		.loc 2 371 3 is_stmt 0 view .LVU1236
 4701              	.LBE1054:
 4702              	.LBE1053:
 4703              		.loc 1 195 5 is_stmt 1 view .LVU1237
 4704              	.LBB1055:
 4705              	.LBI1055:
 4706              		.loc 2 357 20 view .LVU1238
 4707              	.LBB1056:
 4708              		.loc 2 359 3 view .LVU1239
 4709 0056 6100     		lsls	r1, r4, #1
 4710              	.LVL254:
 4711              		.loc 2 359 3 is_stmt 0 view .LVU1240
 4712 0058 3046     		mov	r0, r6
 4713 005a FFF7FEFF 		bl	test_printf
 4714              	.LVL255:
 4715              		.loc 2 359 3 view .LVU1241
 4716              	.LBE1056:
 4717              	.LBE1055:
 4718              		.loc 1 196 5 is_stmt 1 view .LVU1242
 4719              	.LBB1057:
 4720              	.LBI1057:
 4721              		.loc 2 381 20 view .LVU1243
 4722              	.LBB1058:
 4723              		.loc 2 383 3 view .LVU1244
 4724 005e 0C49     		ldr	r1, .L103+36
 4725 0060 0C48     		ldr	r0, .L103+40
 4726              	.LBE1058:
 4727              	.LBE1057:
 4728              		.loc 1 199 1 is_stmt 0 view .LVU1245
 4729 0062 03B0     		add	sp, sp, #12
 4730              		.cfi_def_cfa_offset 20
 4731              		@ sp needed
 4732 0064 BDE8F040 		pop	{r4, r5, r6, r7, lr}
 4733              		.cfi_restore 14
 4734              		.cfi_restore 7
 4735              		.cfi_restore 6
 4736              		.cfi_restore 5
 4737              		.cfi_restore 4
 4738              		.cfi_def_cfa_offset 0
ARM GAS  /tmp/ccuqlnP4.s 			page 85


 4739              	.LVL256:
 4740              	.LBB1060:
 4741              	.LBB1059:
 4742              		.loc 2 383 3 view .LVU1246
 4743 0068 FFF7FEBF 		b	test_printf
 4744              	.LVL257:
 4745              	.L104:
 4746              		.align	2
 4747              	.L103:
 4748 006c 00000000 		.word	ch0
 4749 0070 00000000 		.word	wa
 4750 0074 00000000 		.word	chtest
 4751 0078 00000000 		.word	bmk_thread1
 4752 007c 10000000 		.word	.LC1
 4753 0080 14000000 		.word	.LC2
 4754 0084 00000000 		.word	threads
 4755 0088 00000000 		.word	.LC13
 4756 008c 00000000 		.word	.LC20
 4757 0090 00000000 		.word	.LC17
 4758 0094 20000000 		.word	.LC4
 4759              	.LBE1059:
 4760              	.LBE1060:
 4761              		.cfi_endproc
 4762              	.LFE411:
 4763              		.size	rt_test_012_001_execute, .-rt_test_012_001_execute
 4764              		.global	rt_test_sequence_012
 4765              		.section	.rodata.str1.4,"aMS",%progbits,1
 4766              		.align	2
 4767              	.LC21:
 4768 0000 42656E63 		.ascii	"Benchmarks\000"
 4768      686D6172 
 4768      6B7300
 4769              		.global	rt_test_sequence_012_array
 4770 000b 00       		.align	2
 4771              	.LC22:
 4772 000c 52414D20 		.ascii	"RAM Footprint\000"
 4772      466F6F74 
 4772      7072696E 
 4772      7400
 4773 001a 0000     		.align	2
 4774              	.LC23:
 4775 001c 4D757465 		.ascii	"Mutexes lock/unlock performance\000"
 4775      78657320 
 4775      6C6F636B 
 4775      2F756E6C 
 4775      6F636B20 
 4776              		.align	2
 4777              	.LC24:
 4778 003c 53656D61 		.ascii	"Semaphores wait/signal performance\000"
 4778      70686F72 
 4778      65732077 
 4778      6169742F 
 4778      7369676E 
 4779 005f 00       		.align	2
 4780              	.LC25:
 4781 0060 56697274 		.ascii	"Virtual Timers set/reset performance\000"
 4781      75616C20 
ARM GAS  /tmp/ccuqlnP4.s 			page 86


 4781      54696D65 
 4781      72732073 
 4781      65742F72 
 4782 0085 000000   		.align	2
 4783              	.LC26:
 4784 0088 526F756E 		.ascii	"Round-Robin voluntary reschedule\000"
 4784      642D526F 
 4784      62696E20 
 4784      766F6C75 
 4784      6E746172 
 4785 00a9 000000   		.align	2
 4786              	.LC27:
 4787 00ac 4D617373 		.ascii	"Mass reschedule performance\000"
 4787      20726573 
 4787      63686564 
 4787      756C6520 
 4787      70657266 
 4788              		.align	2
 4789              	.LC28:
 4790 00c8 54687265 		.ascii	"Threads performance, create/exit only\000"
 4790      61647320 
 4790      70657266 
 4790      6F726D61 
 4790      6E63652C 
 4791 00ee 0000     		.align	2
 4792              	.LC29:
 4793 00f0 54687265 		.ascii	"Threads performance, full cycle\000"
 4793      61647320 
 4793      70657266 
 4793      6F726D61 
 4793      6E63652C 
 4794              		.align	2
 4795              	.LC30:
 4796 0110 436F6E74 		.ascii	"Context Switch performance\000"
 4796      65787420 
 4796      53776974 
 4796      63682070 
 4796      6572666F 
 4797 012b 00       		.align	2
 4798              	.LC31:
 4799 012c 4D657373 		.ascii	"Messages performance #3\000"
 4799      61676573 
 4799      20706572 
 4799      666F726D 
 4799      616E6365 
 4800              		.align	2
 4801              	.LC32:
 4802 0144 4D657373 		.ascii	"Messages performance #2\000"
 4802      61676573 
 4802      20706572 
 4802      666F726D 
 4802      616E6365 
 4803              		.align	2
 4804              	.LC33:
 4805 015c 4D657373 		.ascii	"Messages performance #1\000"
 4805      61676573 
 4805      20706572 
ARM GAS  /tmp/ccuqlnP4.s 			page 87


 4805      666F726D 
 4805      616E6365 
 4806              		.section	.bss.mtx1,"aw",%nobits
 4807              		.align	2
 4808              		.set	.LANCHOR0,. + 0
 4809              		.type	mtx1, %object
 4810              		.size	mtx1, 16
 4811              	mtx1:
 4812 0000 00000000 		.space	16
 4812      00000000 
 4812      00000000 
 4812      00000000 
 4813              		.section	.bss.sem1,"aw",%nobits
 4814              		.align	2
 4815              		.set	.LANCHOR1,. + 0
 4816              		.type	sem1, %object
 4817              		.size	sem1, 12
 4818              	sem1:
 4819 0000 00000000 		.space	12
 4819      00000000 
 4819      00000000 
 4820              		.section	.bss.vt1.1,"aw",%nobits
 4821              		.align	2
 4822              		.set	.LANCHOR2,. + 0
 4823              		.type	vt1.1, %object
 4824              		.size	vt1.1, 24
 4825              	vt1.1:
 4826 0000 00000000 		.space	24
 4826      00000000 
 4826      00000000 
 4826      00000000 
 4826      00000000 
 4827              		.section	.bss.vt2.0,"aw",%nobits
 4828              		.align	2
 4829              		.set	.LANCHOR3,. + 0
 4830              		.type	vt2.0, %object
 4831              		.size	vt2.0, 24
 4832              	vt2.0:
 4833 0000 00000000 		.space	24
 4833      00000000 
 4833      00000000 
 4833      00000000 
 4833      00000000 
 4834              		.section	.rodata.rt_test_012_001,"a"
 4835              		.align	2
 4836              		.type	rt_test_012_001, %object
 4837              		.size	rt_test_012_001, 16
 4838              	rt_test_012_001:
 4839 0000 5C010000 		.word	.LC33
 4840 0004 00000000 		.word	0
 4841 0008 00000000 		.word	0
 4842 000c 00000000 		.word	rt_test_012_001_execute
 4843              		.section	.rodata.rt_test_012_002,"a"
 4844              		.align	2
 4845              		.type	rt_test_012_002, %object
 4846              		.size	rt_test_012_002, 16
 4847              	rt_test_012_002:
ARM GAS  /tmp/ccuqlnP4.s 			page 88


 4848 0000 44010000 		.word	.LC32
 4849 0004 00000000 		.word	0
 4850 0008 00000000 		.word	0
 4851 000c 00000000 		.word	rt_test_012_002_execute
 4852              		.section	.rodata.rt_test_012_003,"a"
 4853              		.align	2
 4854              		.type	rt_test_012_003, %object
 4855              		.size	rt_test_012_003, 16
 4856              	rt_test_012_003:
 4857 0000 2C010000 		.word	.LC31
 4858 0004 00000000 		.word	0
 4859 0008 00000000 		.word	0
 4860 000c 00000000 		.word	rt_test_012_003_execute
 4861              		.section	.rodata.rt_test_012_004,"a"
 4862              		.align	2
 4863              		.type	rt_test_012_004, %object
 4864              		.size	rt_test_012_004, 16
 4865              	rt_test_012_004:
 4866 0000 10010000 		.word	.LC30
 4867 0004 00000000 		.word	0
 4868 0008 00000000 		.word	0
 4869 000c 00000000 		.word	rt_test_012_004_execute
 4870              		.section	.rodata.rt_test_012_005,"a"
 4871              		.align	2
 4872              		.type	rt_test_012_005, %object
 4873              		.size	rt_test_012_005, 16
 4874              	rt_test_012_005:
 4875 0000 F0000000 		.word	.LC29
 4876 0004 00000000 		.word	0
 4877 0008 00000000 		.word	0
 4878 000c 00000000 		.word	rt_test_012_005_execute
 4879              		.section	.rodata.rt_test_012_006,"a"
 4880              		.align	2
 4881              		.type	rt_test_012_006, %object
 4882              		.size	rt_test_012_006, 16
 4883              	rt_test_012_006:
 4884 0000 C8000000 		.word	.LC28
 4885 0004 00000000 		.word	0
 4886 0008 00000000 		.word	0
 4887 000c 00000000 		.word	rt_test_012_006_execute
 4888              		.section	.rodata.rt_test_012_007,"a"
 4889              		.align	2
 4890              		.type	rt_test_012_007, %object
 4891              		.size	rt_test_012_007, 16
 4892              	rt_test_012_007:
 4893 0000 AC000000 		.word	.LC27
 4894 0004 00000000 		.word	rt_test_012_007_setup
 4895 0008 00000000 		.word	0
 4896 000c 00000000 		.word	rt_test_012_007_execute
 4897              		.section	.rodata.rt_test_012_008,"a"
 4898              		.align	2
 4899              		.type	rt_test_012_008, %object
 4900              		.size	rt_test_012_008, 16
 4901              	rt_test_012_008:
 4902 0000 88000000 		.word	.LC26
 4903 0004 00000000 		.word	0
 4904 0008 00000000 		.word	0
ARM GAS  /tmp/ccuqlnP4.s 			page 89


 4905 000c 00000000 		.word	rt_test_012_008_execute
 4906              		.section	.rodata.rt_test_012_009,"a"
 4907              		.align	2
 4908              		.type	rt_test_012_009, %object
 4909              		.size	rt_test_012_009, 16
 4910              	rt_test_012_009:
 4911 0000 60000000 		.word	.LC25
 4912 0004 00000000 		.word	0
 4913 0008 00000000 		.word	0
 4914 000c 00000000 		.word	rt_test_012_009_execute
 4915              		.section	.rodata.rt_test_012_010,"a"
 4916              		.align	2
 4917              		.type	rt_test_012_010, %object
 4918              		.size	rt_test_012_010, 16
 4919              	rt_test_012_010:
 4920 0000 3C000000 		.word	.LC24
 4921 0004 00000000 		.word	rt_test_012_010_setup
 4922 0008 00000000 		.word	0
 4923 000c 00000000 		.word	rt_test_012_010_execute
 4924              		.section	.rodata.rt_test_012_011,"a"
 4925              		.align	2
 4926              		.type	rt_test_012_011, %object
 4927              		.size	rt_test_012_011, 16
 4928              	rt_test_012_011:
 4929 0000 1C000000 		.word	.LC23
 4930 0004 00000000 		.word	rt_test_012_011_setup
 4931 0008 00000000 		.word	0
 4932 000c 00000000 		.word	rt_test_012_011_execute
 4933              		.section	.rodata.rt_test_012_012,"a"
 4934              		.align	2
 4935              		.type	rt_test_012_012, %object
 4936              		.size	rt_test_012_012, 16
 4937              	rt_test_012_012:
 4938 0000 0C000000 		.word	.LC22
 4939 0004 00000000 		.word	0
 4940 0008 00000000 		.word	0
 4941 000c 00000000 		.word	rt_test_012_012_execute
 4942              		.section	.rodata.rt_test_sequence_012,"a"
 4943              		.align	2
 4944              		.type	rt_test_sequence_012, %object
 4945              		.size	rt_test_sequence_012, 8
 4946              	rt_test_sequence_012:
 4947 0000 00000000 		.word	.LC21
 4948 0004 00000000 		.word	rt_test_sequence_012_array
 4949              		.section	.rodata.rt_test_sequence_012_array,"a"
 4950              		.align	2
 4951              		.type	rt_test_sequence_012_array, %object
 4952              		.size	rt_test_sequence_012_array, 52
 4953              	rt_test_sequence_012_array:
 4954 0000 00000000 		.word	rt_test_012_001
 4955 0004 00000000 		.word	rt_test_012_002
 4956 0008 00000000 		.word	rt_test_012_003
 4957 000c 00000000 		.word	rt_test_012_004
 4958 0010 00000000 		.word	rt_test_012_005
 4959 0014 00000000 		.word	rt_test_012_006
 4960 0018 00000000 		.word	rt_test_012_007
 4961 001c 00000000 		.word	rt_test_012_008
ARM GAS  /tmp/ccuqlnP4.s 			page 90


 4962 0020 00000000 		.word	rt_test_012_009
 4963 0024 00000000 		.word	rt_test_012_010
 4964 0028 00000000 		.word	rt_test_012_011
 4965 002c 00000000 		.word	rt_test_012_012
 4966 0030 00000000 		.word	0
 4967              		.text
 4968              	.Letext0:
 4969              		.file 12 "/opt/gcc-arm-none-eabi/gcc-arm-none-eabi-10.3-2021.07/lib/gcc/arm-none-eabi/10.3.1/inclu
 4970              		.file 13 "/opt/gcc-arm-none-eabi/gcc-arm-none-eabi-10.3-2021.07/arm-none-eabi/include/machine/_def
 4971              		.file 14 "/opt/gcc-arm-none-eabi/gcc-arm-none-eabi-10.3-2021.07/arm-none-eabi/include/sys/_stdint.
 4972              		.file 15 "../ChibiOS/os/common/ports/ARM-common/chtypes.h"
 4973              		.file 16 "../ChibiOS/os/rt/include/chearly.h"
 4974              		.file 17 "../ChibiOS/os/rt/include/chobjects.h"
 4975              		.file 18 "../ChibiOS/os/rt/include/chrfcu.h"
 4976              		.file 19 "../ChibiOS/os/rt/include/chdebug.h"
 4977              		.file 20 "../ChibiOS/os/rt/include/chlists.h"
 4978              		.file 21 "../ChibiOS/os/rt/include/chmtx.h"
 4979              		.file 22 "../ChibiOS/os/hal/include/hal_streams.h"
 4980              		.file 23 "../ChibiOS/test/rt/source/test/rt_test_sequence_012.h"
 4981              		.file 24 "../ChibiOS/test/rt/source/test/rt_test_root.h"
 4982              		.file 25 "../ChibiOS/os/hal/include/hal_st.h"
 4983              		.file 26 "../ChibiOS/os/rt/include/chschd.h"
 4984              		.section	.debug_info,"",%progbits
 4985              	.Ldebug_info0:
 4986 0000 AD380000 		.4byte	0x38ad
 4987 0004 0400     		.2byte	0x4
 4988 0006 00000000 		.4byte	.Ldebug_abbrev0
 4989 000a 04       		.byte	0x4
 4990 000b 01       		.uleb128 0x1
 4991 000c 29060000 		.4byte	.LASF228
 4992 0010 0C       		.byte	0xc
 4993 0011 DE040000 		.4byte	.LASF229
 4994 0015 17000000 		.4byte	.LASF230
 4995 0019 680E0000 		.4byte	.Ldebug_ranges0+0xe68
 4996 001d 00000000 		.4byte	0
 4997 0021 00000000 		.4byte	.Ldebug_line0
 4998 0025 02       		.uleb128 0x2
 4999 0026 04       		.byte	0x4
 5000 0027 05       		.byte	0x5
 5001 0028 696E7400 		.ascii	"int\000"
 5002 002c 03       		.uleb128 0x3
 5003 002d 10000000 		.4byte	.LASF4
 5004 0031 0C       		.byte	0xc
 5005 0032 D1       		.byte	0xd1
 5006 0033 17       		.byte	0x17
 5007 0034 38000000 		.4byte	0x38
 5008 0038 04       		.uleb128 0x4
 5009 0039 04       		.byte	0x4
 5010 003a 07       		.byte	0x7
 5011 003b D4050000 		.4byte	.LASF0
 5012 003f 04       		.uleb128 0x4
 5013 0040 08       		.byte	0x8
 5014 0041 05       		.byte	0x5
 5015 0042 27050000 		.4byte	.LASF1
 5016 0046 04       		.uleb128 0x4
 5017 0047 08       		.byte	0x8
 5018 0048 04       		.byte	0x4
ARM GAS  /tmp/ccuqlnP4.s 			page 91


 5019 0049 69070000 		.4byte	.LASF2
 5020 004d 04       		.uleb128 0x4
 5021 004e 01       		.byte	0x1
 5022 004f 06       		.byte	0x6
 5023 0050 21020000 		.4byte	.LASF3
 5024 0054 03       		.uleb128 0x3
 5025 0055 87010000 		.4byte	.LASF5
 5026 0059 0D       		.byte	0xd
 5027 005a 2B       		.byte	0x2b
 5028 005b 18       		.byte	0x18
 5029 005c 60000000 		.4byte	0x60
 5030 0060 04       		.uleb128 0x4
 5031 0061 01       		.byte	0x1
 5032 0062 08       		.byte	0x8
 5033 0063 6E020000 		.4byte	.LASF6
 5034 0067 04       		.uleb128 0x4
 5035 0068 02       		.byte	0x2
 5036 0069 05       		.byte	0x5
 5037 006a B6090000 		.4byte	.LASF7
 5038 006e 04       		.uleb128 0x4
 5039 006f 02       		.byte	0x2
 5040 0070 07       		.byte	0x7
 5041 0071 740B0000 		.4byte	.LASF8
 5042 0075 03       		.uleb128 0x3
 5043 0076 BD0B0000 		.4byte	.LASF9
 5044 007a 0D       		.byte	0xd
 5045 007b 4D       		.byte	0x4d
 5046 007c 18       		.byte	0x18
 5047 007d 81000000 		.4byte	0x81
 5048 0081 04       		.uleb128 0x4
 5049 0082 04       		.byte	0x4
 5050 0083 05       		.byte	0x5
 5051 0084 A4010000 		.4byte	.LASF10
 5052 0088 03       		.uleb128 0x3
 5053 0089 14050000 		.4byte	.LASF11
 5054 008d 0D       		.byte	0xd
 5055 008e 4F       		.byte	0x4f
 5056 008f 19       		.byte	0x19
 5057 0090 94000000 		.4byte	0x94
 5058 0094 04       		.uleb128 0x4
 5059 0095 04       		.byte	0x4
 5060 0096 07       		.byte	0x7
 5061 0097 07040000 		.4byte	.LASF12
 5062 009b 03       		.uleb128 0x3
 5063 009c F0030000 		.4byte	.LASF13
 5064 00a0 0D       		.byte	0xd
 5065 00a1 69       		.byte	0x69
 5066 00a2 19       		.byte	0x19
 5067 00a3 A7000000 		.4byte	0xa7
 5068 00a7 04       		.uleb128 0x4
 5069 00a8 08       		.byte	0x8
 5070 00a9 07       		.byte	0x7
 5071 00aa E2070000 		.4byte	.LASF14
 5072 00ae 03       		.uleb128 0x3
 5073 00af 4A020000 		.4byte	.LASF15
 5074 00b3 0E       		.byte	0xe
 5075 00b4 18       		.byte	0x18
ARM GAS  /tmp/ccuqlnP4.s 			page 92


 5076 00b5 13       		.byte	0x13
 5077 00b6 54000000 		.4byte	0x54
 5078 00ba 05       		.uleb128 0x5
 5079 00bb AE000000 		.4byte	0xae
 5080 00bf 03       		.uleb128 0x3
 5081 00c0 83000000 		.4byte	.LASF16
 5082 00c4 0E       		.byte	0xe
 5083 00c5 2C       		.byte	0x2c
 5084 00c6 13       		.byte	0x13
 5085 00c7 75000000 		.4byte	0x75
 5086 00cb 03       		.uleb128 0x3
 5087 00cc 4F0B0000 		.4byte	.LASF17
 5088 00d0 0E       		.byte	0xe
 5089 00d1 30       		.byte	0x30
 5090 00d2 14       		.byte	0x14
 5091 00d3 88000000 		.4byte	0x88
 5092 00d7 03       		.uleb128 0x3
 5093 00d8 E7090000 		.4byte	.LASF18
 5094 00dc 0E       		.byte	0xe
 5095 00dd 3C       		.byte	0x3c
 5096 00de 14       		.byte	0x14
 5097 00df 9B000000 		.4byte	0x9b
 5098 00e3 06       		.uleb128 0x6
 5099 00e4 D7000000 		.4byte	0xd7
 5100 00e8 03       		.uleb128 0x3
 5101 00e9 39080000 		.4byte	.LASF19
 5102 00ed 0F       		.byte	0xf
 5103 00ee 48       		.byte	0x48
 5104 00ef 1D       		.byte	0x1d
 5105 00f0 D7000000 		.4byte	0xd7
 5106 00f4 03       		.uleb128 0x3
 5107 00f5 09030000 		.4byte	.LASF20
 5108 00f9 10       		.byte	0x10
 5109 00fa 50       		.byte	0x50
 5110 00fb 19       		.byte	0x19
 5111 00fc E8000000 		.4byte	0xe8
 5112 0100 03       		.uleb128 0x3
 5113 0101 2D090000 		.4byte	.LASF21
 5114 0105 10       		.byte	0x10
 5115 0106 53       		.byte	0x53
 5116 0107 19       		.byte	0x19
 5117 0108 AE000000 		.4byte	0xae
 5118 010c 03       		.uleb128 0x3
 5119 010d DB010000 		.4byte	.LASF22
 5120 0111 10       		.byte	0x10
 5121 0112 54       		.byte	0x54
 5122 0113 19       		.byte	0x19
 5123 0114 AE000000 		.4byte	0xae
 5124 0118 03       		.uleb128 0x3
 5125 0119 230B0000 		.4byte	.LASF23
 5126 011d 10       		.byte	0x10
 5127 011e 55       		.byte	0x55
 5128 011f 19       		.byte	0x19
 5129 0120 AE000000 		.4byte	0xae
 5130 0124 03       		.uleb128 0x3
 5131 0125 71000000 		.4byte	.LASF24
 5132 0129 10       		.byte	0x10
ARM GAS  /tmp/ccuqlnP4.s 			page 93


 5133 012a 57       		.byte	0x57
 5134 012b 19       		.byte	0x19
 5135 012c CB000000 		.4byte	0xcb
 5136 0130 03       		.uleb128 0x3
 5137 0131 12080000 		.4byte	.LASF25
 5138 0135 10       		.byte	0x10
 5139 0136 58       		.byte	0x58
 5140 0137 19       		.byte	0x19
 5141 0138 BF000000 		.4byte	0xbf
 5142 013c 03       		.uleb128 0x3
 5143 013d 5C020000 		.4byte	.LASF26
 5144 0141 10       		.byte	0x10
 5145 0142 5A       		.byte	0x5a
 5146 0143 19       		.byte	0x19
 5147 0144 CB000000 		.4byte	0xcb
 5148 0148 03       		.uleb128 0x3
 5149 0149 6A030000 		.4byte	.LASF27
 5150 014d 10       		.byte	0x10
 5151 014e 5C       		.byte	0x5c
 5152 014f 19       		.byte	0x19
 5153 0150 BF000000 		.4byte	0xbf
 5154 0154 03       		.uleb128 0x3
 5155 0155 52020000 		.4byte	.LASF28
 5156 0159 10       		.byte	0x10
 5157 015a 80       		.byte	0x80
 5158 015b 12       		.byte	0x12
 5159 015c 38000000 		.4byte	0x38
 5160 0160 03       		.uleb128 0x3
 5161 0161 51070000 		.4byte	.LASF29
 5162 0165 10       		.byte	0x10
 5163 0166 85       		.byte	0x85
 5164 0167 1A       		.byte	0x1a
 5165 0168 6C010000 		.4byte	0x16c
 5166 016c 07       		.uleb128 0x7
 5167 016d 63040000 		.4byte	.LASF44
 5168 0171 48       		.byte	0x48
 5169 0172 11       		.byte	0x11
 5170 0173 9C       		.byte	0x9c
 5171 0174 08       		.byte	0x8
 5172 0175 4F020000 		.4byte	0x24f
 5173 0179 08       		.uleb128 0x8
 5174 017a 68647200 		.ascii	"hdr\000"
 5175 017e 11       		.byte	0x11
 5176 017f AD       		.byte	0xad
 5177 0180 05       		.byte	0x5
 5178 0181 03060000 		.4byte	0x603
 5179 0185 00       		.byte	0
 5180 0186 08       		.uleb128 0x8
 5181 0187 63747800 		.ascii	"ctx\000"
 5182 018b 11       		.byte	0x11
 5183 018c B1       		.byte	0xb1
 5184 018d 21       		.byte	0x21
 5185 018e EA040000 		.4byte	0x4ea
 5186 0192 0C       		.byte	0xc
 5187 0193 09       		.uleb128 0x9
 5188 0194 63030000 		.4byte	.LASF30
 5189 0198 11       		.byte	0x11
ARM GAS  /tmp/ccuqlnP4.s 			page 94


 5190 0199 B6       		.byte	0xb6
 5191 019a 21       		.byte	0x21
 5192 019b 9C030000 		.4byte	0x39c
 5193 019f 10       		.byte	0x10
 5194 01a0 09       		.uleb128 0x9
 5195 01a1 5E000000 		.4byte	.LASF31
 5196 01a5 11       		.byte	0x11
 5197 01a6 BB       		.byte	0xbb
 5198 01a7 22       		.byte	0x22
 5199 01a8 10070000 		.4byte	0x710
 5200 01ac 18       		.byte	0x18
 5201 01ad 09       		.uleb128 0x9
 5202 01ae 71090000 		.4byte	.LASF32
 5203 01b2 11       		.byte	0x11
 5204 01b3 C0       		.byte	0xc0
 5205 01b4 22       		.byte	0x22
 5206 01b5 28030000 		.4byte	0x328
 5207 01b9 1C       		.byte	0x1c
 5208 01ba 09       		.uleb128 0x9
 5209 01bb FB080000 		.4byte	.LASF33
 5210 01bf 11       		.byte	0x11
 5211 01c0 C9       		.byte	0xc9
 5212 01c1 22       		.byte	0x22
 5213 01c2 16070000 		.4byte	0x716
 5214 01c6 20       		.byte	0x20
 5215 01c7 09       		.uleb128 0x9
 5216 01c8 0B010000 		.4byte	.LASF34
 5217 01cc 11       		.byte	0x11
 5218 01cd CE       		.byte	0xce
 5219 01ce 21       		.byte	0x21
 5220 01cf 0C010000 		.4byte	0x10c
 5221 01d3 24       		.byte	0x24
 5222 01d4 09       		.uleb128 0x9
 5223 01d5 03030000 		.4byte	.LASF35
 5224 01d9 11       		.byte	0x11
 5225 01da D2       		.byte	0xd2
 5226 01db 21       		.byte	0x21
 5227 01dc 00010000 		.4byte	0x100
 5228 01e0 25       		.byte	0x25
 5229 01e1 09       		.uleb128 0x9
 5230 01e2 8C080000 		.4byte	.LASF36
 5231 01e6 11       		.byte	0x11
 5232 01e7 D7       		.byte	0xd7
 5233 01e8 21       		.byte	0x21
 5234 01e9 18010000 		.4byte	0x118
 5235 01ed 26       		.byte	0x26
 5236 01ee 0A       		.uleb128 0xa
 5237 01ef 7500     		.ascii	"u\000"
 5238 01f1 11       		.byte	0x11
 5239 01f2 2801     		.2byte	0x128
 5240 01f4 21       		.byte	0x21
 5241 01f5 31060000 		.4byte	0x631
 5242 01f9 28       		.byte	0x28
 5243 01fa 0B       		.uleb128 0xb
 5244 01fb 130B0000 		.4byte	.LASF37
 5245 01ff 11       		.byte	0x11
 5246 0200 2D01     		.2byte	0x12d
ARM GAS  /tmp/ccuqlnP4.s 			page 95


 5247 0202 21       		.byte	0x21
 5248 0203 6F030000 		.4byte	0x36f
 5249 0207 2C       		.byte	0x2c
 5250 0208 0B       		.uleb128 0xb
 5251 0209 790A0000 		.4byte	.LASF38
 5252 020d 11       		.byte	0x11
 5253 020e 3301     		.2byte	0x133
 5254 0210 21       		.byte	0x21
 5255 0211 9C030000 		.4byte	0x39c
 5256 0215 30       		.byte	0x30
 5257 0216 0B       		.uleb128 0xb
 5258 0217 E4010000 		.4byte	.LASF39
 5259 021b 11       		.byte	0x11
 5260 021c 3901     		.2byte	0x139
 5261 021e 21       		.byte	0x21
 5262 021f 3C010000 		.4byte	0x13c
 5263 0223 38       		.byte	0x38
 5264 0224 0B       		.uleb128 0xb
 5265 0225 1F050000 		.4byte	.LASF40
 5266 0229 11       		.byte	0x11
 5267 022a 4001     		.2byte	0x140
 5268 022c 22       		.byte	0x22
 5269 022d 0A070000 		.4byte	0x70a
 5270 0231 3C       		.byte	0x3c
 5271 0232 0B       		.uleb128 0xb
 5272 0233 A0040000 		.4byte	.LASF41
 5273 0237 11       		.byte	0x11
 5274 0238 4401     		.2byte	0x144
 5275 023a 21       		.byte	0x21
 5276 023b 24010000 		.4byte	0x124
 5277 023f 40       		.byte	0x40
 5278 0240 0B       		.uleb128 0xb
 5279 0241 23030000 		.4byte	.LASF42
 5280 0245 11       		.byte	0x11
 5281 0246 4B01     		.2byte	0x14b
 5282 0248 22       		.byte	0x22
 5283 0249 82050000 		.4byte	0x582
 5284 024d 44       		.byte	0x44
 5285 024e 00       		.byte	0
 5286 024f 03       		.uleb128 0x3
 5287 0250 F2050000 		.4byte	.LASF43
 5288 0254 10       		.byte	0x10
 5289 0255 8A       		.byte	0x8a
 5290 0256 1F       		.byte	0x1f
 5291 0257 5B020000 		.4byte	0x25b
 5292 025b 0C       		.uleb128 0xc
 5293 025c 96030000 		.4byte	.LASF45
 5294 0260 88       		.byte	0x88
 5295 0261 11       		.byte	0x11
 5296 0262 8A01     		.2byte	0x18a
 5297 0264 08       		.byte	0x8
 5298 0265 DA020000 		.4byte	0x2da
 5299 0269 0B       		.uleb128 0xb
 5300 026a 27090000 		.4byte	.LASF46
 5301 026e 11       		.byte	0x11
 5302 026f 8E01     		.2byte	0x18e
 5303 0271 21       		.byte	0x21
ARM GAS  /tmp/ccuqlnP4.s 			page 96


 5304 0272 47070000 		.4byte	0x747
 5305 0276 00       		.byte	0
 5306 0277 0B       		.uleb128 0xb
 5307 0278 0C0B0000 		.4byte	.LASF47
 5308 027c 11       		.byte	0x11
 5309 027d 9201     		.2byte	0x192
 5310 027f 21       		.byte	0x21
 5311 0280 BE050000 		.4byte	0x5be
 5312 0284 10       		.byte	0x10
 5313 0285 0B       		.uleb128 0xb
 5314 0286 D00A0000 		.4byte	.LASF48
 5315 028a 11       		.byte	0x11
 5316 028b 9901     		.2byte	0x199
 5317 028d 21       		.byte	0x21
 5318 028e E5050000 		.4byte	0x5e5
 5319 0292 28       		.byte	0x28
 5320 0293 0B       		.uleb128 0xb
 5321 0294 14030000 		.4byte	.LASF49
 5322 0298 11       		.byte	0x11
 5323 0299 9E01     		.2byte	0x19e
 5324 029b 21       		.byte	0x21
 5325 029c 54010000 		.4byte	0x154
 5326 02a0 30       		.byte	0x30
 5327 02a1 0B       		.uleb128 0xb
 5328 02a2 540A0000 		.4byte	.LASF50
 5329 02a6 11       		.byte	0x11
 5330 02a7 A401     		.2byte	0x1a4
 5331 02a9 21       		.byte	0x21
 5332 02aa 01030000 		.4byte	0x301
 5333 02ae 34       		.byte	0x34
 5334 02af 0B       		.uleb128 0xb
 5335 02b0 04010000 		.4byte	.LASF51
 5336 02b4 11       		.byte	0x11
 5337 02b5 A901     		.2byte	0x1a9
 5338 02b7 22       		.byte	0x22
 5339 02b8 BB070000 		.4byte	0x7bb
 5340 02bc 38       		.byte	0x38
 5341 02bd 0B       		.uleb128 0xb
 5342 02be B4080000 		.4byte	.LASF52
 5343 02c2 11       		.byte	0x11
 5344 02c3 AD01     		.2byte	0x1ad
 5345 02c5 21       		.byte	0x21
 5346 02c6 60010000 		.4byte	0x160
 5347 02ca 3C       		.byte	0x3c
 5348 02cb 0A       		.uleb128 0xa
 5349 02cc 64626700 		.ascii	"dbg\000"
 5350 02d0 11       		.byte	0x11
 5351 02d1 B101     		.2byte	0x1b1
 5352 02d3 21       		.byte	0x21
 5353 02d4 3F030000 		.4byte	0x33f
 5354 02d8 84       		.byte	0x84
 5355 02d9 00       		.byte	0
 5356 02da 03       		.uleb128 0x3
 5357 02db 2E040000 		.4byte	.LASF53
 5358 02df 12       		.byte	0x12
 5359 02e0 3F       		.byte	0x3f
 5360 02e1 12       		.byte	0x12
ARM GAS  /tmp/ccuqlnP4.s 			page 97


 5361 02e2 CB000000 		.4byte	0xcb
 5362 02e6 07       		.uleb128 0x7
 5363 02e7 11010000 		.4byte	.LASF54
 5364 02eb 04       		.byte	0x4
 5365 02ec 12       		.byte	0x12
 5366 02ed 44       		.byte	0x44
 5367 02ee 10       		.byte	0x10
 5368 02ef 01030000 		.4byte	0x301
 5369 02f3 09       		.uleb128 0x9
 5370 02f4 A3050000 		.4byte	.LASF55
 5371 02f8 12       		.byte	0x12
 5372 02f9 48       		.byte	0x48
 5373 02fa 21       		.byte	0x21
 5374 02fb DA020000 		.4byte	0x2da
 5375 02ff 00       		.byte	0
 5376 0300 00       		.byte	0
 5377 0301 03       		.uleb128 0x3
 5378 0302 CC040000 		.4byte	.LASF56
 5379 0306 12       		.byte	0x12
 5380 0307 49       		.byte	0x49
 5381 0308 03       		.byte	0x3
 5382 0309 E6020000 		.4byte	0x2e6
 5383 030d 07       		.uleb128 0x7
 5384 030e C00A0000 		.4byte	.LASF57
 5385 0312 04       		.byte	0x4
 5386 0313 13       		.byte	0x13
 5387 0314 3E       		.byte	0x3e
 5388 0315 10       		.byte	0x10
 5389 0316 28030000 		.4byte	0x328
 5390 031a 09       		.uleb128 0x9
 5391 031b 91020000 		.4byte	.LASF58
 5392 031f 13       		.byte	0x13
 5393 0320 46       		.byte	0x46
 5394 0321 24       		.byte	0x24
 5395 0322 2E030000 		.4byte	0x32e
 5396 0326 00       		.byte	0
 5397 0327 00       		.byte	0
 5398 0328 0D       		.uleb128 0xd
 5399 0329 04       		.byte	0x4
 5400 032a 3A030000 		.4byte	0x33a
 5401 032e 06       		.uleb128 0x6
 5402 032f 28030000 		.4byte	0x328
 5403 0333 04       		.uleb128 0x4
 5404 0334 01       		.byte	0x1
 5405 0335 08       		.byte	0x8
 5406 0336 DF020000 		.4byte	.LASF59
 5407 033a 05       		.uleb128 0x5
 5408 033b 33030000 		.4byte	0x333
 5409 033f 03       		.uleb128 0x3
 5410 0340 BD020000 		.4byte	.LASF60
 5411 0344 13       		.byte	0x13
 5412 0345 51       		.byte	0x51
 5413 0346 03       		.byte	0x3
 5414 0347 0D030000 		.4byte	0x30d
 5415 034b 03       		.uleb128 0x3
 5416 034c 54000000 		.4byte	.LASF61
 5417 0350 03       		.byte	0x3
ARM GAS  /tmp/ccuqlnP4.s 			page 98


 5418 0351 6D       		.byte	0x6d
 5419 0352 12       		.byte	0x12
 5420 0353 CB000000 		.4byte	0xcb
 5421 0357 03       		.uleb128 0x3
 5422 0358 35050000 		.4byte	.LASF62
 5423 035c 03       		.byte	0x3
 5424 035d 79       		.byte	0x79
 5425 035e 12       		.byte	0x12
 5426 035f CB000000 		.4byte	0xcb
 5427 0363 03       		.uleb128 0x3
 5428 0364 1D070000 		.4byte	.LASF63
 5429 0368 03       		.byte	0x3
 5430 0369 9B       		.byte	0x9b
 5431 036a 12       		.byte	0x12
 5432 036b D7000000 		.4byte	0xd7
 5433 036f 03       		.uleb128 0x3
 5434 0370 05020000 		.4byte	.LASF64
 5435 0374 14       		.byte	0x14
 5436 0375 32       		.byte	0x32
 5437 0376 18       		.byte	0x18
 5438 0377 7B030000 		.4byte	0x37b
 5439 037b 07       		.uleb128 0x7
 5440 037c 0F020000 		.4byte	.LASF65
 5441 0380 04       		.byte	0x4
 5442 0381 14       		.byte	0x14
 5443 0382 38       		.byte	0x38
 5444 0383 08       		.byte	0x8
 5445 0384 96030000 		.4byte	0x396
 5446 0388 09       		.uleb128 0x9
 5447 0389 FA0B0000 		.4byte	.LASF66
 5448 038d 14       		.byte	0x14
 5449 038e 39       		.byte	0x39
 5450 038f 1A       		.byte	0x1a
 5451 0390 96030000 		.4byte	0x396
 5452 0394 00       		.byte	0
 5453 0395 00       		.byte	0
 5454 0396 0D       		.uleb128 0xd
 5455 0397 04       		.byte	0x4
 5456 0398 6F030000 		.4byte	0x36f
 5457 039c 03       		.uleb128 0x3
 5458 039d 19040000 		.4byte	.LASF67
 5459 03a1 14       		.byte	0x14
 5460 03a2 3F       		.byte	0x3f
 5461 03a3 19       		.byte	0x19
 5462 03a4 A8030000 		.4byte	0x3a8
 5463 03a8 07       		.uleb128 0x7
 5464 03a9 F9070000 		.4byte	.LASF68
 5465 03ad 08       		.byte	0x8
 5466 03ae 14       		.byte	0x14
 5467 03af 45       		.byte	0x45
 5468 03b0 08       		.byte	0x8
 5469 03b1 D0030000 		.4byte	0x3d0
 5470 03b5 09       		.uleb128 0x9
 5471 03b6 FA0B0000 		.4byte	.LASF66
 5472 03ba 14       		.byte	0x14
 5473 03bb 46       		.byte	0x46
 5474 03bc 1A       		.byte	0x1a
ARM GAS  /tmp/ccuqlnP4.s 			page 99


 5475 03bd D0030000 		.4byte	0x3d0
 5476 03c1 00       		.byte	0
 5477 03c2 09       		.uleb128 0x9
 5478 03c3 0B0C0000 		.4byte	.LASF69
 5479 03c7 14       		.byte	0x14
 5480 03c8 47       		.byte	0x47
 5481 03c9 1A       		.byte	0x1a
 5482 03ca D0030000 		.4byte	0x3d0
 5483 03ce 04       		.byte	0x4
 5484 03cf 00       		.byte	0
 5485 03d0 0D       		.uleb128 0xd
 5486 03d1 04       		.byte	0x4
 5487 03d2 9C030000 		.4byte	0x39c
 5488 03d6 03       		.uleb128 0x3
 5489 03d7 7A050000 		.4byte	.LASF70
 5490 03db 14       		.byte	0x14
 5491 03dc 4E       		.byte	0x4e
 5492 03dd 22       		.byte	0x22
 5493 03de E2030000 		.4byte	0x3e2
 5494 03e2 07       		.uleb128 0x7
 5495 03e3 D5090000 		.4byte	.LASF71
 5496 03e7 0C       		.byte	0xc
 5497 03e8 14       		.byte	0x14
 5498 03e9 55       		.byte	0x55
 5499 03ea 08       		.byte	0x8
 5500 03eb 17040000 		.4byte	0x417
 5501 03ef 09       		.uleb128 0x9
 5502 03f0 FA0B0000 		.4byte	.LASF66
 5503 03f4 14       		.byte	0x14
 5504 03f5 56       		.byte	0x56
 5505 03f6 1A       		.byte	0x1a
 5506 03f7 17040000 		.4byte	0x417
 5507 03fb 00       		.byte	0
 5508 03fc 09       		.uleb128 0x9
 5509 03fd 0B0C0000 		.4byte	.LASF69
 5510 0401 14       		.byte	0x14
 5511 0402 57       		.byte	0x57
 5512 0403 1A       		.byte	0x1a
 5513 0404 17040000 		.4byte	0x417
 5514 0408 04       		.byte	0x4
 5515 0409 09       		.uleb128 0x9
 5516 040a 63010000 		.4byte	.LASF72
 5517 040e 14       		.byte	0x14
 5518 040f 58       		.byte	0x58
 5519 0410 19       		.byte	0x19
 5520 0411 24010000 		.4byte	0x124
 5521 0415 08       		.byte	0x8
 5522 0416 00       		.byte	0
 5523 0417 0D       		.uleb128 0xd
 5524 0418 04       		.byte	0x4
 5525 0419 D6030000 		.4byte	0x3d6
 5526 041d 03       		.uleb128 0x3
 5527 041e 00000000 		.4byte	.LASF73
 5528 0422 14       		.byte	0x14
 5529 0423 5F       		.byte	0x5f
 5530 0424 1E       		.byte	0x1e
 5531 0425 29040000 		.4byte	0x429
ARM GAS  /tmp/ccuqlnP4.s 			page 100


 5532 0429 07       		.uleb128 0x7
 5533 042a 33070000 		.4byte	.LASF74
 5534 042e 0C       		.byte	0xc
 5535 042f 14       		.byte	0x14
 5536 0430 64       		.byte	0x64
 5537 0431 08       		.byte	0x8
 5538 0432 5E040000 		.4byte	0x45e
 5539 0436 09       		.uleb128 0x9
 5540 0437 FA0B0000 		.4byte	.LASF66
 5541 043b 14       		.byte	0x14
 5542 043c 65       		.byte	0x65
 5543 043d 1A       		.byte	0x1a
 5544 043e 5E040000 		.4byte	0x45e
 5545 0442 00       		.byte	0
 5546 0443 09       		.uleb128 0x9
 5547 0444 0B0C0000 		.4byte	.LASF69
 5548 0448 14       		.byte	0x14
 5549 0449 66       		.byte	0x66
 5550 044a 1A       		.byte	0x1a
 5551 044b 5E040000 		.4byte	0x45e
 5552 044f 04       		.byte	0x4
 5553 0450 09       		.uleb128 0x9
 5554 0451 33080000 		.4byte	.LASF75
 5555 0455 14       		.byte	0x14
 5556 0456 67       		.byte	0x67
 5557 0457 19       		.byte	0x19
 5558 0458 57030000 		.4byte	0x357
 5559 045c 08       		.byte	0x8
 5560 045d 00       		.byte	0
 5561 045e 0D       		.uleb128 0xd
 5562 045f 04       		.byte	0x4
 5563 0460 1D040000 		.4byte	0x41d
 5564 0464 0C       		.uleb128 0xc
 5565 0465 90070000 		.4byte	.LASF76
 5566 0469 24       		.byte	0x24
 5567 046a 09       		.byte	0x9
 5568 046b E001     		.2byte	0x1e0
 5569 046d 08       		.byte	0x8
 5570 046e EA040000 		.4byte	0x4ea
 5571 0472 0A       		.uleb128 0xa
 5572 0473 723400   		.ascii	"r4\000"
 5573 0476 09       		.byte	0x9
 5574 0477 F901     		.2byte	0x1f9
 5575 0479 11       		.byte	0x11
 5576 047a CB000000 		.4byte	0xcb
 5577 047e 00       		.byte	0
 5578 047f 0A       		.uleb128 0xa
 5579 0480 723500   		.ascii	"r5\000"
 5580 0483 09       		.byte	0x9
 5581 0484 FA01     		.2byte	0x1fa
 5582 0486 11       		.byte	0x11
 5583 0487 CB000000 		.4byte	0xcb
 5584 048b 04       		.byte	0x4
 5585 048c 0A       		.uleb128 0xa
 5586 048d 723600   		.ascii	"r6\000"
 5587 0490 09       		.byte	0x9
 5588 0491 FB01     		.2byte	0x1fb
ARM GAS  /tmp/ccuqlnP4.s 			page 101


 5589 0493 11       		.byte	0x11
 5590 0494 CB000000 		.4byte	0xcb
 5591 0498 08       		.byte	0x8
 5592 0499 0A       		.uleb128 0xa
 5593 049a 723700   		.ascii	"r7\000"
 5594 049d 09       		.byte	0x9
 5595 049e FC01     		.2byte	0x1fc
 5596 04a0 11       		.byte	0x11
 5597 04a1 CB000000 		.4byte	0xcb
 5598 04a5 0C       		.byte	0xc
 5599 04a6 0A       		.uleb128 0xa
 5600 04a7 723800   		.ascii	"r8\000"
 5601 04aa 09       		.byte	0x9
 5602 04ab FD01     		.2byte	0x1fd
 5603 04ad 11       		.byte	0x11
 5604 04ae CB000000 		.4byte	0xcb
 5605 04b2 10       		.byte	0x10
 5606 04b3 0A       		.uleb128 0xa
 5607 04b4 723900   		.ascii	"r9\000"
 5608 04b7 09       		.byte	0x9
 5609 04b8 FE01     		.2byte	0x1fe
 5610 04ba 11       		.byte	0x11
 5611 04bb CB000000 		.4byte	0xcb
 5612 04bf 14       		.byte	0x14
 5613 04c0 0A       		.uleb128 0xa
 5614 04c1 72313000 		.ascii	"r10\000"
 5615 04c5 09       		.byte	0x9
 5616 04c6 FF01     		.2byte	0x1ff
 5617 04c8 11       		.byte	0x11
 5618 04c9 CB000000 		.4byte	0xcb
 5619 04cd 18       		.byte	0x18
 5620 04ce 0A       		.uleb128 0xa
 5621 04cf 72313100 		.ascii	"r11\000"
 5622 04d3 09       		.byte	0x9
 5623 04d4 0002     		.2byte	0x200
 5624 04d6 11       		.byte	0x11
 5625 04d7 CB000000 		.4byte	0xcb
 5626 04db 1C       		.byte	0x1c
 5627 04dc 0A       		.uleb128 0xa
 5628 04dd 6C7200   		.ascii	"lr\000"
 5629 04e0 09       		.byte	0x9
 5630 04e1 0102     		.2byte	0x201
 5631 04e3 11       		.byte	0x11
 5632 04e4 CB000000 		.4byte	0xcb
 5633 04e8 20       		.byte	0x20
 5634 04e9 00       		.byte	0
 5635 04ea 0C       		.uleb128 0xc
 5636 04eb 390B0000 		.4byte	.LASF77
 5637 04ef 04       		.byte	0x4
 5638 04f0 09       		.byte	0x9
 5639 04f1 0A02     		.2byte	0x20a
 5640 04f3 08       		.byte	0x8
 5641 04f4 06050000 		.4byte	0x506
 5642 04f8 0A       		.uleb128 0xa
 5643 04f9 737000   		.ascii	"sp\000"
 5644 04fc 09       		.byte	0x9
 5645 04fd 0B02     		.2byte	0x20b
ARM GAS  /tmp/ccuqlnP4.s 			page 102


 5646 04ff 1A       		.byte	0x1a
 5647 0500 06050000 		.4byte	0x506
 5648 0504 00       		.byte	0
 5649 0505 00       		.byte	0
 5650 0506 0D       		.uleb128 0xd
 5651 0507 04       		.byte	0x4
 5652 0508 64040000 		.4byte	0x464
 5653 050c 03       		.uleb128 0x3
 5654 050d 83040000 		.4byte	.LASF78
 5655 0511 11       		.byte	0x11
 5656 0512 3C       		.byte	0x3c
 5657 0513 21       		.byte	0x21
 5658 0514 18050000 		.4byte	0x518
 5659 0518 07       		.uleb128 0x7
 5660 0519 D1070000 		.4byte	.LASF79
 5661 051d 18       		.byte	0x18
 5662 051e 11       		.byte	0x11
 5663 051f 4B       		.byte	0x4b
 5664 0520 08       		.byte	0x8
 5665 0521 5A050000 		.4byte	0x55a
 5666 0525 09       		.uleb128 0x9
 5667 0526 41070000 		.4byte	.LASF80
 5668 052a 11       		.byte	0x11
 5669 052b 4F       		.byte	0x4f
 5670 052c 21       		.byte	0x21
 5671 052d 1D040000 		.4byte	0x41d
 5672 0531 00       		.byte	0
 5673 0532 09       		.uleb128 0x9
 5674 0533 080A0000 		.4byte	.LASF81
 5675 0537 11       		.byte	0x11
 5676 0538 53       		.byte	0x53
 5677 0539 21       		.byte	0x21
 5678 053a 5A050000 		.4byte	0x55a
 5679 053e 0C       		.byte	0xc
 5680 053f 08       		.uleb128 0x8
 5681 0540 70617200 		.ascii	"par\000"
 5682 0544 11       		.byte	0x11
 5683 0545 57       		.byte	0x57
 5684 0546 22       		.byte	0x22
 5685 0547 82050000 		.4byte	0x582
 5686 054b 10       		.byte	0x10
 5687 054c 09       		.uleb128 0x9
 5688 054d 4D000000 		.4byte	.LASF82
 5689 0551 11       		.byte	0x11
 5690 0552 5B       		.byte	0x5b
 5691 0553 21       		.byte	0x21
 5692 0554 57030000 		.4byte	0x357
 5693 0558 14       		.byte	0x14
 5694 0559 00       		.byte	0
 5695 055a 03       		.uleb128 0x3
 5696 055b 8B000000 		.4byte	.LASF83
 5697 055f 11       		.byte	0x11
 5698 0560 46       		.byte	0x46
 5699 0561 10       		.byte	0x10
 5700 0562 66050000 		.4byte	0x566
 5701 0566 0D       		.uleb128 0xd
 5702 0567 04       		.byte	0x4
ARM GAS  /tmp/ccuqlnP4.s 			page 103


 5703 0568 6C050000 		.4byte	0x56c
 5704 056c 0E       		.uleb128 0xe
 5705 056d 7C050000 		.4byte	0x57c
 5706 0571 0F       		.uleb128 0xf
 5707 0572 7C050000 		.4byte	0x57c
 5708 0576 0F       		.uleb128 0xf
 5709 0577 82050000 		.4byte	0x582
 5710 057b 00       		.byte	0
 5711 057c 0D       		.uleb128 0xd
 5712 057d 04       		.byte	0x4
 5713 057e 0C050000 		.4byte	0x50c
 5714 0582 10       		.uleb128 0x10
 5715 0583 04       		.byte	0x4
 5716 0584 05       		.uleb128 0x5
 5717 0585 82050000 		.4byte	0x582
 5718 0589 07       		.uleb128 0x7
 5719 058a 94000000 		.4byte	.LASF84
 5720 058e 18       		.byte	0x18
 5721 058f 11       		.byte	0x11
 5722 0590 64       		.byte	0x64
 5723 0591 10       		.byte	0x10
 5724 0592 BE050000 		.4byte	0x5be
 5725 0596 09       		.uleb128 0x9
 5726 0597 41070000 		.4byte	.LASF80
 5727 059b 11       		.byte	0x11
 5728 059c 68       		.byte	0x68
 5729 059d 21       		.byte	0x21
 5730 059e 1D040000 		.4byte	0x41d
 5731 05a2 00       		.byte	0
 5732 05a3 09       		.uleb128 0x9
 5733 05a4 7C020000 		.4byte	.LASF85
 5734 05a8 11       		.byte	0x11
 5735 05a9 73       		.byte	0x73
 5736 05aa 21       		.byte	0x21
 5737 05ab 4B030000 		.4byte	0x34b
 5738 05af 0C       		.byte	0xc
 5739 05b0 09       		.uleb128 0x9
 5740 05b1 17020000 		.4byte	.LASF86
 5741 05b5 11       		.byte	0x11
 5742 05b6 79       		.byte	0x79
 5743 05b7 21       		.byte	0x21
 5744 05b8 E3000000 		.4byte	0xe3
 5745 05bc 10       		.byte	0x10
 5746 05bd 00       		.byte	0
 5747 05be 03       		.uleb128 0x3
 5748 05bf 6D040000 		.4byte	.LASF87
 5749 05c3 11       		.byte	0x11
 5750 05c4 7B       		.byte	0x7b
 5751 05c5 03       		.byte	0x3
 5752 05c6 89050000 		.4byte	0x589
 5753 05ca 07       		.uleb128 0x7
 5754 05cb 57010000 		.4byte	.LASF88
 5755 05cf 08       		.byte	0x8
 5756 05d0 11       		.byte	0x11
 5757 05d1 80       		.byte	0x80
 5758 05d2 10       		.byte	0x10
 5759 05d3 E5050000 		.4byte	0x5e5
ARM GAS  /tmp/ccuqlnP4.s 			page 104


 5760 05d7 09       		.uleb128 0x9
 5761 05d8 A9080000 		.4byte	.LASF89
 5762 05dc 11       		.byte	0x11
 5763 05dd 84       		.byte	0x84
 5764 05de 21       		.byte	0x21
 5765 05df 9C030000 		.4byte	0x39c
 5766 05e3 00       		.byte	0
 5767 05e4 00       		.byte	0
 5768 05e5 03       		.uleb128 0x3
 5769 05e6 BD000000 		.4byte	.LASF90
 5770 05ea 11       		.byte	0x11
 5771 05eb 85       		.byte	0x85
 5772 05ec 03       		.byte	0x3
 5773 05ed CA050000 		.4byte	0x5ca
 5774 05f1 03       		.uleb128 0x3
 5775 05f2 75070000 		.4byte	.LASF91
 5776 05f6 11       		.byte	0x11
 5777 05f7 8A       		.byte	0x8a
 5778 05f8 14       		.byte	0x14
 5779 05f9 FD050000 		.4byte	0x5fd
 5780 05fd 0D       		.uleb128 0xd
 5781 05fe 04       		.byte	0x4
 5782 05ff 60010000 		.4byte	0x160
 5783 0603 11       		.uleb128 0x11
 5784 0604 0C       		.byte	0xc
 5785 0605 11       		.byte	0x11
 5786 0606 A0       		.byte	0xa0
 5787 0607 03       		.byte	0x3
 5788 0608 31060000 		.4byte	0x631
 5789 060c 12       		.uleb128 0x12
 5790 060d F0060000 		.4byte	.LASF92
 5791 0611 11       		.byte	0x11
 5792 0612 A4       		.byte	0xa4
 5793 0613 21       		.byte	0x21
 5794 0614 6F030000 		.4byte	0x36f
 5795 0618 12       		.uleb128 0x12
 5796 0619 A9080000 		.4byte	.LASF89
 5797 061d 11       		.byte	0x11
 5798 061e A8       		.byte	0xa8
 5799 061f 21       		.byte	0x21
 5800 0620 9C030000 		.4byte	0x39c
 5801 0624 12       		.uleb128 0x12
 5802 0625 35090000 		.4byte	.LASF93
 5803 0629 11       		.byte	0x11
 5804 062a AC       		.byte	0xac
 5805 062b 21       		.byte	0x21
 5806 062c D6030000 		.4byte	0x3d6
 5807 0630 00       		.byte	0
 5808 0631 11       		.uleb128 0x11
 5809 0632 04       		.byte	0x4
 5810 0633 11       		.byte	0x11
 5811 0634 EB       		.byte	0xeb
 5812 0635 03       		.byte	0x3
 5813 0636 A1060000 		.4byte	0x6a1
 5814 063a 12       		.uleb128 0x12
 5815 063b 6D0B0000 		.4byte	.LASF94
 5816 063f 11       		.byte	0x11
ARM GAS  /tmp/ccuqlnP4.s 			page 105


 5817 0640 F2       		.byte	0xf2
 5818 0641 21       		.byte	0x21
 5819 0642 30010000 		.4byte	0x130
 5820 0646 12       		.uleb128 0x12
 5821 0647 68010000 		.4byte	.LASF95
 5822 064b 11       		.byte	0x11
 5823 064c F9       		.byte	0xf9
 5824 064d 21       		.byte	0x21
 5825 064e 30010000 		.4byte	0x130
 5826 0652 13       		.uleb128 0x13
 5827 0653 FC020000 		.4byte	.LASF96
 5828 0657 11       		.byte	0x11
 5829 0658 0001     		.2byte	0x100
 5830 065a 22       		.byte	0x22
 5831 065b 82050000 		.4byte	0x582
 5832 065f 13       		.uleb128 0x13
 5833 0660 68020000 		.4byte	.LASF97
 5834 0664 11       		.byte	0x11
 5835 0665 0701     		.2byte	0x107
 5836 0667 22       		.byte	0x22
 5837 0668 A1060000 		.4byte	0x6a1
 5838 066c 13       		.uleb128 0x13
 5839 066d 88070000 		.4byte	.LASF98
 5840 0671 11       		.byte	0x11
 5841 0672 0C01     		.2byte	0x10c
 5842 0674 21       		.byte	0x21
 5843 0675 30010000 		.4byte	0x130
 5844 0679 13       		.uleb128 0x13
 5845 067a 46000000 		.4byte	.LASF99
 5846 067e 11       		.byte	0x11
 5847 067f 1501     		.2byte	0x115
 5848 0681 22       		.byte	0x22
 5849 0682 CF060000 		.4byte	0x6cf
 5850 0686 13       		.uleb128 0x13
 5851 0687 81030000 		.4byte	.LASF100
 5852 068b 11       		.byte	0x11
 5853 068c 1E01     		.2byte	0x11e
 5854 068e 22       		.byte	0x22
 5855 068f 0A070000 		.4byte	0x70a
 5856 0693 13       		.uleb128 0x13
 5857 0694 2D020000 		.4byte	.LASF101
 5858 0698 11       		.byte	0x11
 5859 0699 2601     		.2byte	0x126
 5860 069b 21       		.byte	0x21
 5861 069c 3C010000 		.4byte	0x13c
 5862 06a0 00       		.byte	0
 5863 06a1 0D       		.uleb128 0xd
 5864 06a2 04       		.byte	0x4
 5865 06a3 F1050000 		.4byte	0x5f1
 5866 06a7 07       		.uleb128 0x7
 5867 06a8 51040000 		.4byte	.LASF102
 5868 06ac 0C       		.byte	0xc
 5869 06ad 0A       		.byte	0xa
 5870 06ae 34       		.byte	0x34
 5871 06af 10       		.byte	0x10
 5872 06b0 CF060000 		.4byte	0x6cf
 5873 06b4 09       		.uleb128 0x9
ARM GAS  /tmp/ccuqlnP4.s 			page 106


 5874 06b5 A9080000 		.4byte	.LASF89
 5875 06b9 0A       		.byte	0xa
 5876 06ba 35       		.byte	0x35
 5877 06bb 19       		.byte	0x19
 5878 06bc 9C030000 		.4byte	0x39c
 5879 06c0 00       		.byte	0
 5880 06c1 08       		.uleb128 0x8
 5881 06c2 636E7400 		.ascii	"cnt\000"
 5882 06c6 0A       		.byte	0xa
 5883 06c7 37       		.byte	0x37
 5884 06c8 19       		.byte	0x19
 5885 06c9 48010000 		.4byte	0x148
 5886 06cd 08       		.byte	0x8
 5887 06ce 00       		.byte	0
 5888 06cf 0D       		.uleb128 0xd
 5889 06d0 04       		.byte	0x4
 5890 06d1 A7060000 		.4byte	0x6a7
 5891 06d5 07       		.uleb128 0x7
 5892 06d6 0D0A0000 		.4byte	.LASF103
 5893 06da 10       		.byte	0x10
 5894 06db 15       		.byte	0x15
 5895 06dc 39       		.byte	0x39
 5896 06dd 08       		.byte	0x8
 5897 06de 0A070000 		.4byte	0x70a
 5898 06e2 09       		.uleb128 0x9
 5899 06e3 A9080000 		.4byte	.LASF89
 5900 06e7 15       		.byte	0x15
 5901 06e8 3A       		.byte	0x3a
 5902 06e9 19       		.byte	0x19
 5903 06ea 9C030000 		.4byte	0x39c
 5904 06ee 00       		.byte	0
 5905 06ef 09       		.uleb128 0x9
 5906 06f0 5E000000 		.4byte	.LASF31
 5907 06f4 15       		.byte	0x15
 5908 06f5 3C       		.byte	0x3c
 5909 06f6 1A       		.byte	0x1a
 5910 06f7 FD050000 		.4byte	0x5fd
 5911 06fb 08       		.byte	0x8
 5912 06fc 09       		.uleb128 0x9
 5913 06fd FA0B0000 		.4byte	.LASF66
 5914 0701 15       		.byte	0x15
 5915 0702 3E       		.byte	0x3e
 5916 0703 1A       		.byte	0x1a
 5917 0704 E6070000 		.4byte	0x7e6
 5918 0708 0C       		.byte	0xc
 5919 0709 00       		.byte	0
 5920 070a 0D       		.uleb128 0xd
 5921 070b 04       		.byte	0x4
 5922 070c D5060000 		.4byte	0x6d5
 5923 0710 0D       		.uleb128 0xd
 5924 0711 04       		.byte	0x4
 5925 0712 4F020000 		.4byte	0x24f
 5926 0716 0D       		.uleb128 0xd
 5927 0717 04       		.byte	0x4
 5928 0718 F4000000 		.4byte	0xf4
 5929 071c 0C       		.uleb128 0xc
 5930 071d 88030000 		.4byte	.LASF104
ARM GAS  /tmp/ccuqlnP4.s 			page 107


 5931 0721 10       		.byte	0x10
 5932 0722 11       		.byte	0x11
 5933 0723 5C01     		.2byte	0x15c
 5934 0725 10       		.byte	0x10
 5935 0726 47070000 		.4byte	0x747
 5936 072a 0B       		.uleb128 0xb
 5937 072b 35090000 		.4byte	.LASF93
 5938 072f 11       		.byte	0x11
 5939 0730 6101     		.2byte	0x161
 5940 0732 21       		.byte	0x21
 5941 0733 D6030000 		.4byte	0x3d6
 5942 0737 00       		.byte	0
 5943 0738 0B       		.uleb128 0xb
 5944 0739 E8060000 		.4byte	.LASF105
 5945 073d 11       		.byte	0x11
 5946 073e 6501     		.2byte	0x165
 5947 0740 22       		.byte	0x22
 5948 0741 FD050000 		.4byte	0x5fd
 5949 0745 0C       		.byte	0xc
 5950 0746 00       		.byte	0
 5951 0747 14       		.uleb128 0x14
 5952 0748 93040000 		.4byte	.LASF106
 5953 074c 11       		.byte	0x11
 5954 074d 6601     		.2byte	0x166
 5955 074f 03       		.byte	0x3
 5956 0750 1C070000 		.4byte	0x71c
 5957 0754 0C       		.uleb128 0xc
 5958 0755 A0090000 		.4byte	.LASF107
 5959 0759 14       		.byte	0x14
 5960 075a 11       		.byte	0x11
 5961 075b 6B01     		.2byte	0x16b
 5962 075d 10       		.byte	0x10
 5963 075e A9070000 		.4byte	0x7a9
 5964 0762 0B       		.uleb128 0xb
 5965 0763 71090000 		.4byte	.LASF32
 5966 0767 11       		.byte	0x11
 5967 0768 6F01     		.2byte	0x16f
 5968 076a 22       		.byte	0x22
 5969 076b 28030000 		.4byte	0x328
 5970 076f 00       		.byte	0
 5971 0770 0B       		.uleb128 0xb
 5972 0771 02080000 		.4byte	.LASF108
 5973 0775 11       		.byte	0x11
 5974 0776 7501     		.2byte	0x175
 5975 0778 22       		.byte	0x22
 5976 0779 16070000 		.4byte	0x716
 5977 077d 04       		.byte	0x4
 5978 077e 0B       		.uleb128 0xb
 5979 077f 29030000 		.4byte	.LASF109
 5980 0783 11       		.byte	0x11
 5981 0784 7901     		.2byte	0x179
 5982 0786 22       		.byte	0x22
 5983 0787 16070000 		.4byte	0x716
 5984 078b 08       		.byte	0x8
 5985 078c 0B       		.uleb128 0xb
 5986 078d AD0B0000 		.4byte	.LASF110
 5987 0791 11       		.byte	0x11
ARM GAS  /tmp/ccuqlnP4.s 			page 108


 5988 0792 7F01     		.2byte	0x17f
 5989 0794 22       		.byte	0x22
 5990 0795 16070000 		.4byte	0x716
 5991 0799 0C       		.byte	0xc
 5992 079a 0B       		.uleb128 0xb
 5993 079b 5A070000 		.4byte	.LASF111
 5994 079f 11       		.byte	0x11
 5995 07a0 8301     		.2byte	0x183
 5996 07a2 22       		.byte	0x22
 5997 07a3 16070000 		.4byte	0x716
 5998 07a7 10       		.byte	0x10
 5999 07a8 00       		.byte	0
 6000 07a9 14       		.uleb128 0x14
 6001 07aa C0090000 		.4byte	.LASF112
 6002 07ae 11       		.byte	0x11
 6003 07af 8501     		.2byte	0x185
 6004 07b1 03       		.byte	0x3
 6005 07b2 54070000 		.4byte	0x754
 6006 07b6 05       		.uleb128 0x5
 6007 07b7 A9070000 		.4byte	0x7a9
 6008 07bb 0D       		.uleb128 0xd
 6009 07bc 04       		.byte	0x4
 6010 07bd B6070000 		.4byte	0x7b6
 6011 07c1 15       		.uleb128 0x15
 6012 07c2 63683000 		.ascii	"ch0\000"
 6013 07c6 08       		.byte	0x8
 6014 07c7 4101     		.2byte	0x141
 6015 07c9 16       		.byte	0x16
 6016 07ca 4F020000 		.4byte	0x24f
 6017 07ce 03       		.uleb128 0x3
 6018 07cf FF0B0000 		.4byte	.LASF113
 6019 07d3 0A       		.byte	0xa
 6020 07d4 38       		.byte	0x38
 6021 07d5 03       		.byte	0x3
 6022 07d6 A7060000 		.4byte	0x6a7
 6023 07da 03       		.uleb128 0x3
 6024 07db 1B0B0000 		.4byte	.LASF114
 6025 07df 15       		.byte	0x15
 6026 07e0 34       		.byte	0x34
 6027 07e1 19       		.byte	0x19
 6028 07e2 D5060000 		.4byte	0x6d5
 6029 07e6 0D       		.uleb128 0xd
 6030 07e7 04       		.byte	0x4
 6031 07e8 DA070000 		.4byte	0x7da
 6032 07ec 04       		.uleb128 0x4
 6033 07ed 01       		.byte	0x1
 6034 07ee 02       		.byte	0x2
 6035 07ef CC020000 		.4byte	.LASF115
 6036 07f3 0D       		.uleb128 0xd
 6037 07f4 04       		.byte	0x4
 6038 07f5 AE000000 		.4byte	0xae
 6039 07f9 07       		.uleb128 0x7
 6040 07fa 0F090000 		.4byte	.LASF116
 6041 07fe 14       		.byte	0x14
 6042 07ff 16       		.byte	0x16
 6043 0800 48       		.byte	0x48
 6044 0801 08       		.byte	0x8
ARM GAS  /tmp/ccuqlnP4.s 			page 109


 6045 0802 48080000 		.4byte	0x848
 6046 0806 09       		.uleb128 0x9
 6047 0807 580B0000 		.4byte	.LASF117
 6048 080b 16       		.byte	0x16
 6049 080c 49       		.byte	0x49
 6050 080d 03       		.byte	0x3
 6051 080e 2C000000 		.4byte	0x2c
 6052 0812 00       		.byte	0
 6053 0813 09       		.uleb128 0x9
 6054 0814 D1000000 		.4byte	.LASF118
 6055 0818 16       		.byte	0x16
 6056 0819 49       		.byte	0x49
 6057 081a 03       		.byte	0x3
 6058 081b 6C080000 		.4byte	0x86c
 6059 081f 04       		.byte	0x4
 6060 0820 09       		.uleb128 0x9
 6061 0821 C0050000 		.4byte	.LASF119
 6062 0825 16       		.byte	0x16
 6063 0826 49       		.byte	0x49
 6064 0827 03       		.byte	0x3
 6065 0828 8B080000 		.4byte	0x88b
 6066 082c 08       		.byte	0x8
 6067 082d 08       		.uleb128 0x8
 6068 082e 70757400 		.ascii	"put\000"
 6069 0832 16       		.byte	0x16
 6070 0833 49       		.byte	0x49
 6071 0834 03       		.byte	0x3
 6072 0835 A5080000 		.4byte	0x8a5
 6073 0839 0C       		.byte	0xc
 6074 083a 08       		.uleb128 0x8
 6075 083b 67657400 		.ascii	"get\000"
 6076 083f 16       		.byte	0x16
 6077 0840 49       		.byte	0x49
 6078 0841 03       		.byte	0x3
 6079 0842 BA080000 		.4byte	0x8ba
 6080 0846 10       		.byte	0x10
 6081 0847 00       		.byte	0
 6082 0848 05       		.uleb128 0x5
 6083 0849 F9070000 		.4byte	0x7f9
 6084 084d 16       		.uleb128 0x16
 6085 084e 2C000000 		.4byte	0x2c
 6086 0852 66080000 		.4byte	0x866
 6087 0856 0F       		.uleb128 0xf
 6088 0857 82050000 		.4byte	0x582
 6089 085b 0F       		.uleb128 0xf
 6090 085c 66080000 		.4byte	0x866
 6091 0860 0F       		.uleb128 0xf
 6092 0861 2C000000 		.4byte	0x2c
 6093 0865 00       		.byte	0
 6094 0866 0D       		.uleb128 0xd
 6095 0867 04       		.byte	0x4
 6096 0868 BA000000 		.4byte	0xba
 6097 086c 0D       		.uleb128 0xd
 6098 086d 04       		.byte	0x4
 6099 086e 4D080000 		.4byte	0x84d
 6100 0872 16       		.uleb128 0x16
 6101 0873 2C000000 		.4byte	0x2c
ARM GAS  /tmp/ccuqlnP4.s 			page 110


 6102 0877 8B080000 		.4byte	0x88b
 6103 087b 0F       		.uleb128 0xf
 6104 087c 82050000 		.4byte	0x582
 6105 0880 0F       		.uleb128 0xf
 6106 0881 F3070000 		.4byte	0x7f3
 6107 0885 0F       		.uleb128 0xf
 6108 0886 2C000000 		.4byte	0x2c
 6109 088a 00       		.byte	0
 6110 088b 0D       		.uleb128 0xd
 6111 088c 04       		.byte	0x4
 6112 088d 72080000 		.4byte	0x872
 6113 0891 16       		.uleb128 0x16
 6114 0892 30010000 		.4byte	0x130
 6115 0896 A5080000 		.4byte	0x8a5
 6116 089a 0F       		.uleb128 0xf
 6117 089b 82050000 		.4byte	0x582
 6118 089f 0F       		.uleb128 0xf
 6119 08a0 AE000000 		.4byte	0xae
 6120 08a4 00       		.byte	0
 6121 08a5 0D       		.uleb128 0xd
 6122 08a6 04       		.byte	0x4
 6123 08a7 91080000 		.4byte	0x891
 6124 08ab 16       		.uleb128 0x16
 6125 08ac 30010000 		.4byte	0x130
 6126 08b0 BA080000 		.4byte	0x8ba
 6127 08b4 0F       		.uleb128 0xf
 6128 08b5 82050000 		.4byte	0x582
 6129 08b9 00       		.byte	0
 6130 08ba 0D       		.uleb128 0xd
 6131 08bb 04       		.byte	0x4
 6132 08bc AB080000 		.4byte	0x8ab
 6133 08c0 17       		.uleb128 0x17
 6134 08c1 04       		.byte	0x4
 6135 08c2 16       		.byte	0x16
 6136 08c3 53       		.byte	0x53
 6137 08c4 09       		.byte	0x9
 6138 08c5 D7080000 		.4byte	0x8d7
 6139 08c9 08       		.uleb128 0x8
 6140 08ca 766D7400 		.ascii	"vmt\000"
 6141 08ce 16       		.byte	0x16
 6142 08cf 55       		.byte	0x55
 6143 08d0 29       		.byte	0x29
 6144 08d1 D7080000 		.4byte	0x8d7
 6145 08d5 00       		.byte	0
 6146 08d6 00       		.byte	0
 6147 08d7 0D       		.uleb128 0xd
 6148 08d8 04       		.byte	0x4
 6149 08d9 48080000 		.4byte	0x848
 6150 08dd 03       		.uleb128 0x3
 6151 08de EF000000 		.4byte	.LASF120
 6152 08e2 16       		.byte	0x16
 6153 08e3 57       		.byte	0x57
 6154 08e4 03       		.byte	0x3
 6155 08e5 C0080000 		.4byte	0x8c0
 6156 08e9 03       		.uleb128 0x3
 6157 08ea ED0A0000 		.4byte	.LASF121
 6158 08ee 02       		.byte	0x2
ARM GAS  /tmp/ccuqlnP4.s 			page 111


 6159 08ef 7D       		.byte	0x7d
 6160 08f0 0F       		.byte	0xf
 6161 08f1 F5080000 		.4byte	0x8f5
 6162 08f5 0D       		.uleb128 0xd
 6163 08f6 04       		.byte	0x4
 6164 08f7 FB080000 		.4byte	0x8fb
 6165 08fb 16       		.uleb128 0x16
 6166 08fc 25000000 		.4byte	0x25
 6167 0900 0A090000 		.4byte	0x90a
 6168 0904 0F       		.uleb128 0xf
 6169 0905 25000000 		.4byte	0x25
 6170 0909 00       		.byte	0
 6171 090a 17       		.uleb128 0x17
 6172 090b 28       		.byte	0x28
 6173 090c 02       		.byte	0x2
 6174 090d 82       		.byte	0x82
 6175 090e 09       		.byte	0x9
 6176 090f 7C090000 		.4byte	0x97c
 6177 0913 09       		.uleb128 0x9
 6178 0914 C70B0000 		.4byte	.LASF122
 6179 0918 02       		.byte	0x2
 6180 0919 86       		.byte	0x86
 6181 091a 15       		.byte	0x15
 6182 091b 38000000 		.4byte	0x38
 6183 091f 00       		.byte	0
 6184 0920 09       		.uleb128 0x9
 6185 0921 CC030000 		.4byte	.LASF123
 6186 0925 02       		.byte	0x2
 6187 0926 8A       		.byte	0x8a
 6188 0927 15       		.byte	0x15
 6189 0928 EC070000 		.4byte	0x7ec
 6190 092c 04       		.byte	0x4
 6191 092d 09       		.uleb128 0x9
 6192 092e 7C010000 		.4byte	.LASF124
 6193 0932 02       		.byte	0x2
 6194 0933 8E       		.byte	0x8e
 6195 0934 15       		.byte	0x15
 6196 0935 EC070000 		.4byte	0x7ec
 6197 0939 05       		.byte	0x5
 6198 093a 09       		.uleb128 0x9
 6199 093b 53030000 		.4byte	.LASF125
 6200 093f 02       		.byte	0x2
 6201 0940 92       		.byte	0x92
 6202 0941 16       		.byte	0x16
 6203 0942 28030000 		.4byte	0x328
 6204 0946 08       		.byte	0x8
 6205 0947 09       		.uleb128 0x9
 6206 0948 680B0000 		.4byte	.LASF126
 6207 094c 02       		.byte	0x2
 6208 094d 96       		.byte	0x96
 6209 094e 16       		.byte	0x16
 6210 094f 7C090000 		.4byte	0x97c
 6211 0953 0C       		.byte	0xc
 6212 0954 09       		.uleb128 0x9
 6213 0955 BF080000 		.4byte	.LASF127
 6214 0959 02       		.byte	0x2
 6215 095a 9A       		.byte	0x9a
ARM GAS  /tmp/ccuqlnP4.s 			page 112


 6216 095b 15       		.byte	0x15
 6217 095c 82090000 		.4byte	0x982
 6218 0960 10       		.byte	0x10
 6219 0961 09       		.uleb128 0x9
 6220 0962 E50A0000 		.4byte	.LASF128
 6221 0966 02       		.byte	0x2
 6222 0967 9E       		.byte	0x9e
 6223 0968 15       		.byte	0x15
 6224 0969 E9080000 		.4byte	0x8e9
 6225 096d 20       		.byte	0x20
 6226 096e 09       		.uleb128 0x9
 6227 096f 38030000 		.4byte	.LASF129
 6228 0973 02       		.byte	0x2
 6229 0974 A3       		.byte	0xa3
 6230 0975 19       		.byte	0x19
 6231 0976 92090000 		.4byte	0x992
 6232 097a 24       		.byte	0x24
 6233 097b 00       		.byte	0
 6234 097c 0D       		.uleb128 0xd
 6235 097d 04       		.byte	0x4
 6236 097e 33030000 		.4byte	0x333
 6237 0982 18       		.uleb128 0x18
 6238 0983 33030000 		.4byte	0x333
 6239 0987 92090000 		.4byte	0x992
 6240 098b 19       		.uleb128 0x19
 6241 098c 38000000 		.4byte	0x38
 6242 0990 0F       		.byte	0xf
 6243 0991 00       		.byte	0
 6244 0992 0D       		.uleb128 0xd
 6245 0993 04       		.byte	0x4
 6246 0994 DD080000 		.4byte	0x8dd
 6247 0998 03       		.uleb128 0x3
 6248 0999 100C0000 		.4byte	.LASF130
 6249 099d 02       		.byte	0x2
 6250 099e A5       		.byte	0xa5
 6251 099f 03       		.byte	0x3
 6252 09a0 0A090000 		.4byte	0x90a
 6253 09a4 17       		.uleb128 0x17
 6254 09a5 10       		.byte	0x10
 6255 09a6 02       		.byte	0x2
 6256 09a7 AA       		.byte	0xaa
 6257 09a8 09       		.byte	0x9
 6258 09a9 E2090000 		.4byte	0x9e2
 6259 09ad 09       		.uleb128 0x9
 6260 09ae 71090000 		.4byte	.LASF32
 6261 09b2 02       		.byte	0x2
 6262 09b3 AB       		.byte	0xab
 6263 09b4 0F       		.byte	0xf
 6264 09b5 28030000 		.4byte	0x328
 6265 09b9 00       		.byte	0
 6266 09ba 09       		.uleb128 0x9
 6267 09bb 7B030000 		.4byte	.LASF131
 6268 09bf 02       		.byte	0x2
 6269 09c0 AC       		.byte	0xac
 6270 09c1 0A       		.byte	0xa
 6271 09c2 E3090000 		.4byte	0x9e3
 6272 09c6 04       		.byte	0x4
ARM GAS  /tmp/ccuqlnP4.s 			page 113


 6273 09c7 09       		.uleb128 0x9
 6274 09c8 20060000 		.4byte	.LASF132
 6275 09cc 02       		.byte	0x2
 6276 09cd AD       		.byte	0xad
 6277 09ce 0A       		.byte	0xa
 6278 09cf E3090000 		.4byte	0x9e3
 6279 09d3 08       		.byte	0x8
 6280 09d4 09       		.uleb128 0x9
 6281 09d5 79080000 		.4byte	.LASF133
 6282 09d9 02       		.byte	0x2
 6283 09da AE       		.byte	0xae
 6284 09db 0A       		.byte	0xa
 6285 09dc E3090000 		.4byte	0x9e3
 6286 09e0 0C       		.byte	0xc
 6287 09e1 00       		.byte	0
 6288 09e2 1A       		.uleb128 0x1a
 6289 09e3 0D       		.uleb128 0xd
 6290 09e4 04       		.byte	0x4
 6291 09e5 E2090000 		.4byte	0x9e2
 6292 09e9 03       		.uleb128 0x3
 6293 09ea D3040000 		.4byte	.LASF134
 6294 09ee 02       		.byte	0x2
 6295 09ef AF       		.byte	0xaf
 6296 09f0 03       		.byte	0x3
 6297 09f1 A4090000 		.4byte	0x9a4
 6298 09f5 05       		.uleb128 0x5
 6299 09f6 E9090000 		.4byte	0x9e9
 6300 09fa 17       		.uleb128 0x17
 6301 09fb 08       		.byte	0x8
 6302 09fc 02       		.byte	0x2
 6303 09fd B4       		.byte	0xb4
 6304 09fe 09       		.byte	0x9
 6305 09ff 1E0A0000 		.4byte	0xa1e
 6306 0a03 09       		.uleb128 0x9
 6307 0a04 71090000 		.4byte	.LASF32
 6308 0a08 02       		.byte	0x2
 6309 0a09 B5       		.byte	0xb5
 6310 0a0a 16       		.byte	0x16
 6311 0a0b 28030000 		.4byte	0x328
 6312 0a0f 00       		.byte	0
 6313 0a10 09       		.uleb128 0x9
 6314 0a11 BA050000 		.4byte	.LASF135
 6315 0a15 02       		.byte	0x2
 6316 0a16 B6       		.byte	0xb6
 6317 0a17 1E       		.byte	0x1e
 6318 0a18 1E0A0000 		.4byte	0xa1e
 6319 0a1c 04       		.byte	0x4
 6320 0a1d 00       		.byte	0
 6321 0a1e 0D       		.uleb128 0xd
 6322 0a1f 04       		.byte	0x4
 6323 0a20 2A0A0000 		.4byte	0xa2a
 6324 0a24 0D       		.uleb128 0xd
 6325 0a25 04       		.byte	0x4
 6326 0a26 F5090000 		.4byte	0x9f5
 6327 0a2a 05       		.uleb128 0x5
 6328 0a2b 240A0000 		.4byte	0xa24
 6329 0a2f 03       		.uleb128 0x3
ARM GAS  /tmp/ccuqlnP4.s 			page 114


 6330 0a30 BD030000 		.4byte	.LASF136
 6331 0a34 02       		.byte	0x2
 6332 0a35 B7       		.byte	0xb7
 6333 0a36 03       		.byte	0x3
 6334 0a37 FA090000 		.4byte	0x9fa
 6335 0a3b 05       		.uleb128 0x5
 6336 0a3c 2F0A0000 		.4byte	0xa2f
 6337 0a40 1B       		.uleb128 0x1b
 6338 0a41 1C030000 		.4byte	.LASF137
 6339 0a45 02       		.byte	0x2
 6340 0a46 2901     		.2byte	0x129
 6341 0a48 1A       		.byte	0x1a
 6342 0a49 98090000 		.4byte	0x998
 6343 0a4d 1C       		.uleb128 0x1c
 6344 0a4e 45090000 		.4byte	.LASF138
 6345 0a52 17       		.byte	0x17
 6346 0a53 19       		.byte	0x19
 6347 0a54 1D       		.byte	0x1d
 6348 0a55 3B0A0000 		.4byte	0xa3b
 6349 0a59 18       		.uleb128 0x18
 6350 0a5a FD050000 		.4byte	0x5fd
 6351 0a5e 690A0000 		.4byte	0xa69
 6352 0a62 19       		.uleb128 0x19
 6353 0a63 38000000 		.4byte	0x38
 6354 0a67 04       		.byte	0x4
 6355 0a68 00       		.byte	0
 6356 0a69 1C       		.uleb128 0x1c
 6357 0a6a 07090000 		.4byte	.LASF139
 6358 0a6e 18       		.byte	0x18
 6359 0a6f 5D       		.byte	0x5d
 6360 0a70 12       		.byte	0x12
 6361 0a71 590A0000 		.4byte	0xa59
 6362 0a75 18       		.uleb128 0x18
 6363 0a76 84050000 		.4byte	0x584
 6364 0a7a 850A0000 		.4byte	0xa85
 6365 0a7e 19       		.uleb128 0x19
 6366 0a7f 38000000 		.4byte	0x38
 6367 0a83 04       		.byte	0x4
 6368 0a84 00       		.byte	0
 6369 0a85 05       		.uleb128 0x5
 6370 0a86 750A0000 		.4byte	0xa75
 6371 0a8a 1D       		.uleb128 0x1d
 6372 0a8b 776100   		.ascii	"wa\000"
 6373 0a8e 18       		.byte	0x18
 6374 0a8f 5E       		.byte	0x5e
 6375 0a90 18       		.byte	0x18
 6376 0a91 850A0000 		.4byte	0xa85
 6377 0a95 1E       		.uleb128 0x1e
 6378 0a96 5E040000 		.4byte	.LASF140
 6379 0a9a 01       		.byte	0x1
 6380 0a9b 39       		.byte	0x39
 6381 0a9c 14       		.byte	0x14
 6382 0a9d CE070000 		.4byte	0x7ce
 6383 0aa1 05       		.uleb128 0x5
 6384 0aa2 03       		.byte	0x3
 6385 0aa3 00000000 		.4byte	sem1
 6386 0aa7 1E       		.uleb128 0x1e
ARM GAS  /tmp/ccuqlnP4.s 			page 115


 6387 0aa8 BF040000 		.4byte	.LASF141
 6388 0aac 01       		.byte	0x1
 6389 0aad 3C       		.byte	0x3c
 6390 0aae 10       		.byte	0x10
 6391 0aaf DA070000 		.4byte	0x7da
 6392 0ab3 05       		.uleb128 0x5
 6393 0ab4 03       		.byte	0x3
 6394 0ab5 00000000 		.4byte	mtx1
 6395 0ab9 1E       		.uleb128 0x1e
 6396 0aba 240A0000 		.4byte	.LASF142
 6397 0abe 01       		.byte	0x1
 6398 0abf C9       		.byte	0xc9
 6399 0ac0 19       		.byte	0x19
 6400 0ac1 F5090000 		.4byte	0x9f5
 6401 0ac5 05       		.uleb128 0x5
 6402 0ac6 03       		.byte	0x3
 6403 0ac7 00000000 		.4byte	rt_test_012_001
 6404 0acb 1F       		.uleb128 0x1f
 6405 0acc 340A0000 		.4byte	.LASF143
 6406 0ad0 01       		.byte	0x1
 6407 0ad1 0901     		.2byte	0x109
 6408 0ad3 19       		.byte	0x19
 6409 0ad4 F5090000 		.4byte	0x9f5
 6410 0ad8 05       		.uleb128 0x5
 6411 0ad9 03       		.byte	0x3
 6412 0ada 00000000 		.4byte	rt_test_012_002
 6413 0ade 1F       		.uleb128 0x1f
 6414 0adf 440A0000 		.4byte	.LASF144
 6415 0ae3 01       		.byte	0x1
 6416 0ae4 5701     		.2byte	0x157
 6417 0ae6 19       		.byte	0x19
 6418 0ae7 F5090000 		.4byte	0x9f5
 6419 0aeb 05       		.uleb128 0x5
 6420 0aec 03       		.byte	0x3
 6421 0aed 00000000 		.4byte	rt_test_012_003
 6422 0af1 1F       		.uleb128 0x1f
 6423 0af2 CD080000 		.4byte	.LASF145
 6424 0af6 01       		.byte	0x1
 6425 0af7 AA01     		.2byte	0x1aa
 6426 0af9 19       		.byte	0x19
 6427 0afa F5090000 		.4byte	0x9f5
 6428 0afe 05       		.uleb128 0x5
 6429 0aff 03       		.byte	0x3
 6430 0b00 00000000 		.4byte	rt_test_012_004
 6431 0b04 1F       		.uleb128 0x1f
 6432 0b05 590A0000 		.4byte	.LASF146
 6433 0b09 01       		.byte	0x1
 6434 0b0a E401     		.2byte	0x1e4
 6435 0b0c 19       		.byte	0x19
 6436 0b0d F5090000 		.4byte	0x9f5
 6437 0b11 05       		.uleb128 0x5
 6438 0b12 03       		.byte	0x3
 6439 0b13 00000000 		.4byte	rt_test_012_005
 6440 0b17 1F       		.uleb128 0x1f
 6441 0b18 690A0000 		.4byte	.LASF147
 6442 0b1c 01       		.byte	0x1
 6443 0b1d 2302     		.2byte	0x223
ARM GAS  /tmp/ccuqlnP4.s 			page 116


 6444 0b1f 19       		.byte	0x19
 6445 0b20 F5090000 		.4byte	0x9f5
 6446 0b24 05       		.uleb128 0x5
 6447 0b25 03       		.byte	0x3
 6448 0b26 00000000 		.4byte	rt_test_012_006
 6449 0b2a 1F       		.uleb128 0x1f
 6450 0b2b EB080000 		.4byte	.LASF148
 6451 0b2f 01       		.byte	0x1
 6452 0b30 7F02     		.2byte	0x27f
 6453 0b32 19       		.byte	0x19
 6454 0b33 F5090000 		.4byte	0x9f5
 6455 0b37 05       		.uleb128 0x5
 6456 0b38 03       		.byte	0x3
 6457 0b39 00000000 		.4byte	rt_test_012_007
 6458 0b3d 1F       		.uleb128 0x1f
 6459 0b3e 820A0000 		.4byte	.LASF149
 6460 0b42 01       		.byte	0x1
 6461 0b43 BE02     		.2byte	0x2be
 6462 0b45 19       		.byte	0x19
 6463 0b46 F5090000 		.4byte	0x9f5
 6464 0b4a 05       		.uleb128 0x5
 6465 0b4b 03       		.byte	0x3
 6466 0b4c 00000000 		.4byte	rt_test_012_008
 6467 0b50 1F       		.uleb128 0x1f
 6468 0b51 920A0000 		.4byte	.LASF150
 6469 0b55 01       		.byte	0x1
 6470 0b56 FC02     		.2byte	0x2fc
 6471 0b58 19       		.byte	0x19
 6472 0b59 F5090000 		.4byte	0x9f5
 6473 0b5d 05       		.uleb128 0x5
 6474 0b5e 03       		.byte	0x3
 6475 0b5f 00000000 		.4byte	rt_test_012_009
 6476 0b63 1F       		.uleb128 0x1f
 6477 0b64 80090000 		.4byte	.LASF151
 6478 0b68 01       		.byte	0x1
 6479 0b69 4503     		.2byte	0x345
 6480 0b6b 19       		.byte	0x19
 6481 0b6c F5090000 		.4byte	0x9f5
 6482 0b70 05       		.uleb128 0x5
 6483 0b71 03       		.byte	0x3
 6484 0b72 00000000 		.4byte	rt_test_012_010
 6485 0b76 1F       		.uleb128 0x1f
 6486 0b77 90090000 		.4byte	.LASF152
 6487 0b7b 01       		.byte	0x1
 6488 0b7c 8F03     		.2byte	0x38f
 6489 0b7e 19       		.byte	0x19
 6490 0b7f F5090000 		.4byte	0x9f5
 6491 0b83 05       		.uleb128 0x5
 6492 0b84 03       		.byte	0x3
 6493 0b85 00000000 		.4byte	rt_test_012_011
 6494 0b89 1F       		.uleb128 0x1f
 6495 0b8a FC0A0000 		.4byte	.LASF153
 6496 0b8e 01       		.byte	0x1
 6497 0b8f 0A04     		.2byte	0x40a
 6498 0b91 19       		.byte	0x19
 6499 0b92 F5090000 		.4byte	0x9f5
 6500 0b96 05       		.uleb128 0x5
ARM GAS  /tmp/ccuqlnP4.s 			page 117


 6501 0b97 03       		.byte	0x3
 6502 0b98 00000000 		.4byte	rt_test_012_012
 6503 0b9c 18       		.uleb128 0x18
 6504 0b9d 2A0A0000 		.4byte	0xa2a
 6505 0ba1 AC0B0000 		.4byte	0xbac
 6506 0ba5 19       		.uleb128 0x19
 6507 0ba6 38000000 		.4byte	0x38
 6508 0baa 0C       		.byte	0xc
 6509 0bab 00       		.byte	0
 6510 0bac 05       		.uleb128 0x5
 6511 0bad 9C0B0000 		.4byte	0xb9c
 6512 0bb1 20       		.uleb128 0x20
 6513 0bb2 18080000 		.4byte	.LASF154
 6514 0bb6 01       		.byte	0x1
 6515 0bb7 1804     		.2byte	0x418
 6516 0bb9 1A       		.byte	0x1a
 6517 0bba AC0B0000 		.4byte	0xbac
 6518 0bbe 05       		.uleb128 0x5
 6519 0bbf 03       		.byte	0x3
 6520 0bc0 00000000 		.4byte	rt_test_sequence_012_array
 6521 0bc4 21       		.uleb128 0x21
 6522 0bc5 4D0A0000 		.4byte	0xa4d
 6523 0bc9 01       		.byte	0x1
 6524 0bca 3704     		.2byte	0x437
 6525 0bcc 16       		.byte	0x16
 6526 0bcd 05       		.uleb128 0x5
 6527 0bce 03       		.byte	0x3
 6528 0bcf 00000000 		.4byte	rt_test_sequence_012
 6529 0bd3 22       		.uleb128 0x22
 6530 0bd4 3F010000 		.4byte	.LASF155
 6531 0bd8 01       		.byte	0x1
 6532 0bd9 AA03     		.2byte	0x3aa
 6533 0bdb 0D       		.byte	0xd
 6534 0bdc 00000000 		.4byte	.LFB425
 6535 0be0 4C010000 		.4byte	.LFE425-.LFB425
 6536 0be4 01       		.uleb128 0x1
 6537 0be5 9C       		.byte	0x9c
 6538 0be6 5C120000 		.4byte	0x125c
 6539 0bea 23       		.uleb128 0x23
 6540 0beb 8A350000 		.4byte	0x358a
 6541 0bef 18000000 		.4byte	.LBI396
 6542 0bf3 01       		.byte	.LVU16
 6543 0bf4 00000000 		.4byte	.Ldebug_ranges0+0
 6544 0bf8 01       		.byte	0x1
 6545 0bf9 AF03     		.2byte	0x3af
 6546 0bfb 05       		.byte	0x5
 6547 0bfc 270C0000 		.4byte	0xc27
 6548 0c00 24       		.uleb128 0x24
 6549 0c01 98350000 		.4byte	0x3598
 6550 0c05 02000000 		.4byte	.LLST0
 6551 0c09 00000000 		.4byte	.LVUS0
 6552 0c0d 25       		.uleb128 0x25
 6553 0c0e 1C000000 		.4byte	.LVL2
 6554 0c12 7D370000 		.4byte	0x377d
 6555 0c16 26       		.uleb128 0x26
 6556 0c17 01       		.uleb128 0x1
 6557 0c18 50       		.byte	0x50
ARM GAS  /tmp/ccuqlnP4.s 			page 118


 6558 0c19 02       		.uleb128 0x2
 6559 0c1a 78       		.byte	0x78
 6560 0c1b 00       		.sleb128 0
 6561 0c1c 26       		.uleb128 0x26
 6562 0c1d 01       		.uleb128 0x1
 6563 0c1e 51       		.byte	0x51
 6564 0c1f 05       		.uleb128 0x5
 6565 0c20 03       		.byte	0x3
 6566 0c21 00000000 		.4byte	.LC0
 6567 0c25 00       		.byte	0
 6568 0c26 00       		.byte	0
 6569 0c27 23       		.uleb128 0x23
 6570 0c28 A6350000 		.4byte	0x35a6
 6571 0c2c 1C000000 		.4byte	.LBI401
 6572 0c30 02       		.byte	.LVU20
 6573 0c31 28000000 		.4byte	.Ldebug_ranges0+0x28
 6574 0c35 01       		.byte	0x1
 6575 0c36 B003     		.2byte	0x3b0
 6576 0c38 05       		.byte	0x5
 6577 0c39 610C0000 		.4byte	0xc61
 6578 0c3d 24       		.uleb128 0x24
 6579 0c3e B4350000 		.4byte	0x35b4
 6580 0c42 1C000000 		.4byte	.LLST1
 6581 0c46 1A000000 		.4byte	.LVUS1
 6582 0c4a 25       		.uleb128 0x25
 6583 0c4b 24000000 		.4byte	.LVL3
 6584 0c4f 7D370000 		.4byte	0x377d
 6585 0c53 26       		.uleb128 0x26
 6586 0c54 01       		.uleb128 0x1
 6587 0c55 50       		.byte	0x50
 6588 0c56 02       		.uleb128 0x2
 6589 0c57 76       		.byte	0x76
 6590 0c58 00       		.sleb128 0
 6591 0c59 26       		.uleb128 0x26
 6592 0c5a 01       		.uleb128 0x1
 6593 0c5b 51       		.byte	0x51
 6594 0c5c 02       		.uleb128 0x2
 6595 0c5d 08       		.byte	0x8
 6596 0c5e 88       		.byte	0x88
 6597 0c5f 00       		.byte	0
 6598 0c60 00       		.byte	0
 6599 0c61 23       		.uleb128 0x23
 6600 0c62 6E350000 		.4byte	0x356e
 6601 0c66 24000000 		.4byte	.LBI404
 6602 0c6a 02       		.byte	.LVU24
 6603 0c6b 40000000 		.4byte	.Ldebug_ranges0+0x40
 6604 0c6f 01       		.byte	0x1
 6605 0c70 B103     		.2byte	0x3b1
 6606 0c72 05       		.byte	0x5
 6607 0c73 9B0C0000 		.4byte	0xc9b
 6608 0c77 24       		.uleb128 0x24
 6609 0c78 7C350000 		.4byte	0x357c
 6610 0c7c 33000000 		.4byte	.LLST2
 6611 0c80 31000000 		.4byte	.LVUS2
 6612 0c84 25       		.uleb128 0x25
 6613 0c85 2C000000 		.4byte	.LVL4
 6614 0c89 7D370000 		.4byte	0x377d
ARM GAS  /tmp/ccuqlnP4.s 			page 119


 6615 0c8d 26       		.uleb128 0x26
 6616 0c8e 01       		.uleb128 0x1
 6617 0c8f 50       		.byte	0x50
 6618 0c90 02       		.uleb128 0x2
 6619 0c91 74       		.byte	0x74
 6620 0c92 00       		.sleb128 0
 6621 0c93 26       		.uleb128 0x26
 6622 0c94 01       		.uleb128 0x1
 6623 0c95 51       		.byte	0x51
 6624 0c96 02       		.uleb128 0x2
 6625 0c97 75       		.byte	0x75
 6626 0c98 00       		.sleb128 0
 6627 0c99 00       		.byte	0
 6628 0c9a 00       		.byte	0
 6629 0c9b 23       		.uleb128 0x23
 6630 0c9c 8A350000 		.4byte	0x358a
 6631 0ca0 32000000 		.4byte	.LBI412
 6632 0ca4 01       		.byte	.LVU33
 6633 0ca5 58000000 		.4byte	.Ldebug_ranges0+0x58
 6634 0ca9 01       		.byte	0x1
 6635 0caa B803     		.2byte	0x3b8
 6636 0cac 05       		.byte	0x5
 6637 0cad D80C0000 		.4byte	0xcd8
 6638 0cb1 24       		.uleb128 0x24
 6639 0cb2 98350000 		.4byte	0x3598
 6640 0cb6 4D000000 		.4byte	.LLST3
 6641 0cba 4B000000 		.4byte	.LVUS3
 6642 0cbe 25       		.uleb128 0x25
 6643 0cbf 38000000 		.4byte	.LVL6
 6644 0cc3 7D370000 		.4byte	0x377d
 6645 0cc7 26       		.uleb128 0x26
 6646 0cc8 01       		.uleb128 0x1
 6647 0cc9 50       		.byte	0x50
 6648 0cca 02       		.uleb128 0x2
 6649 0ccb 78       		.byte	0x78
 6650 0ccc 00       		.sleb128 0
 6651 0ccd 26       		.uleb128 0x26
 6652 0cce 01       		.uleb128 0x1
 6653 0ccf 51       		.byte	0x51
 6654 0cd0 05       		.uleb128 0x5
 6655 0cd1 03       		.byte	0x3
 6656 0cd2 28000000 		.4byte	.LC5
 6657 0cd6 00       		.byte	0
 6658 0cd7 00       		.byte	0
 6659 0cd8 27       		.uleb128 0x27
 6660 0cd9 A6350000 		.4byte	0x35a6
 6661 0cdd 38000000 		.4byte	.LBI416
 6662 0ce1 02       		.byte	.LVU37
 6663 0ce2 38000000 		.4byte	.LBB416
 6664 0ce6 08000000 		.4byte	.LBE416-.LBB416
 6665 0cea 01       		.byte	0x1
 6666 0ceb B903     		.2byte	0x3b9
 6667 0ced 05       		.byte	0x5
 6668 0cee 160D0000 		.4byte	0xd16
 6669 0cf2 24       		.uleb128 0x24
 6670 0cf3 B4350000 		.4byte	0x35b4
 6671 0cf7 67000000 		.4byte	.LLST4
ARM GAS  /tmp/ccuqlnP4.s 			page 120


 6672 0cfb 65000000 		.4byte	.LVUS4
 6673 0cff 25       		.uleb128 0x25
 6674 0d00 40000000 		.4byte	.LVL7
 6675 0d04 7D370000 		.4byte	0x377d
 6676 0d08 26       		.uleb128 0x26
 6677 0d09 01       		.uleb128 0x1
 6678 0d0a 50       		.byte	0x50
 6679 0d0b 02       		.uleb128 0x2
 6680 0d0c 76       		.byte	0x76
 6681 0d0d 00       		.sleb128 0
 6682 0d0e 26       		.uleb128 0x26
 6683 0d0f 01       		.uleb128 0x1
 6684 0d10 51       		.byte	0x51
 6685 0d11 02       		.uleb128 0x2
 6686 0d12 08       		.byte	0x8
 6687 0d13 48       		.byte	0x48
 6688 0d14 00       		.byte	0
 6689 0d15 00       		.byte	0
 6690 0d16 27       		.uleb128 0x27
 6691 0d17 6E350000 		.4byte	0x356e
 6692 0d1b 40000000 		.4byte	.LBI418
 6693 0d1f 02       		.byte	.LVU41
 6694 0d20 40000000 		.4byte	.LBB418
 6695 0d24 08000000 		.4byte	.LBE418-.LBB418
 6696 0d28 01       		.byte	0x1
 6697 0d29 BA03     		.2byte	0x3ba
 6698 0d2b 05       		.byte	0x5
 6699 0d2c 540D0000 		.4byte	0xd54
 6700 0d30 24       		.uleb128 0x24
 6701 0d31 7C350000 		.4byte	0x357c
 6702 0d35 7E000000 		.4byte	.LLST5
 6703 0d39 7C000000 		.4byte	.LVUS5
 6704 0d3d 25       		.uleb128 0x25
 6705 0d3e 48000000 		.4byte	.LVL8
 6706 0d42 7D370000 		.4byte	0x377d
 6707 0d46 26       		.uleb128 0x26
 6708 0d47 01       		.uleb128 0x1
 6709 0d48 50       		.byte	0x50
 6710 0d49 02       		.uleb128 0x2
 6711 0d4a 74       		.byte	0x74
 6712 0d4b 00       		.sleb128 0
 6713 0d4c 26       		.uleb128 0x26
 6714 0d4d 01       		.uleb128 0x1
 6715 0d4e 51       		.byte	0x51
 6716 0d4f 02       		.uleb128 0x2
 6717 0d50 75       		.byte	0x75
 6718 0d51 00       		.sleb128 0
 6719 0d52 00       		.byte	0
 6720 0d53 00       		.byte	0
 6721 0d54 23       		.uleb128 0x23
 6722 0d55 8A350000 		.4byte	0x358a
 6723 0d59 4E000000 		.4byte	.LBI420
 6724 0d5d 01       		.byte	.LVU50
 6725 0d5e 70000000 		.4byte	.Ldebug_ranges0+0x70
 6726 0d62 01       		.byte	0x1
 6727 0d63 C103     		.2byte	0x3c1
 6728 0d65 05       		.byte	0x5
ARM GAS  /tmp/ccuqlnP4.s 			page 121


 6729 0d66 910D0000 		.4byte	0xd91
 6730 0d6a 24       		.uleb128 0x24
 6731 0d6b 98350000 		.4byte	0x3598
 6732 0d6f 98000000 		.4byte	.LLST6
 6733 0d73 96000000 		.4byte	.LVUS6
 6734 0d77 25       		.uleb128 0x25
 6735 0d78 54000000 		.4byte	.LVL10
 6736 0d7c 7D370000 		.4byte	0x377d
 6737 0d80 26       		.uleb128 0x26
 6738 0d81 01       		.uleb128 0x1
 6739 0d82 50       		.byte	0x50
 6740 0d83 02       		.uleb128 0x2
 6741 0d84 78       		.byte	0x78
 6742 0d85 00       		.sleb128 0
 6743 0d86 26       		.uleb128 0x26
 6744 0d87 01       		.uleb128 0x1
 6745 0d88 51       		.byte	0x51
 6746 0d89 05       		.uleb128 0x5
 6747 0d8a 03       		.byte	0x3
 6748 0d8b 38000000 		.4byte	.LC6
 6749 0d8f 00       		.byte	0
 6750 0d90 00       		.byte	0
 6751 0d91 27       		.uleb128 0x27
 6752 0d92 A6350000 		.4byte	0x35a6
 6753 0d96 54000000 		.4byte	.LBI424
 6754 0d9a 02       		.byte	.LVU54
 6755 0d9b 54000000 		.4byte	.LBB424
 6756 0d9f 08000000 		.4byte	.LBE424-.LBB424
 6757 0da3 01       		.byte	0x1
 6758 0da4 C203     		.2byte	0x3c2
 6759 0da6 05       		.byte	0x5
 6760 0da7 CE0D0000 		.4byte	0xdce
 6761 0dab 24       		.uleb128 0x24
 6762 0dac B4350000 		.4byte	0x35b4
 6763 0db0 B2000000 		.4byte	.LLST7
 6764 0db4 B0000000 		.4byte	.LVUS7
 6765 0db8 25       		.uleb128 0x25
 6766 0db9 5C000000 		.4byte	.LVL11
 6767 0dbd 7D370000 		.4byte	0x377d
 6768 0dc1 26       		.uleb128 0x26
 6769 0dc2 01       		.uleb128 0x1
 6770 0dc3 50       		.byte	0x50
 6771 0dc4 02       		.uleb128 0x2
 6772 0dc5 76       		.byte	0x76
 6773 0dc6 00       		.sleb128 0
 6774 0dc7 26       		.uleb128 0x26
 6775 0dc8 01       		.uleb128 0x1
 6776 0dc9 51       		.byte	0x51
 6777 0dca 01       		.uleb128 0x1
 6778 0dcb 48       		.byte	0x48
 6779 0dcc 00       		.byte	0
 6780 0dcd 00       		.byte	0
 6781 0dce 27       		.uleb128 0x27
 6782 0dcf 6E350000 		.4byte	0x356e
 6783 0dd3 5C000000 		.4byte	.LBI426
 6784 0dd7 02       		.byte	.LVU58
 6785 0dd8 5C000000 		.4byte	.LBB426
ARM GAS  /tmp/ccuqlnP4.s 			page 122


 6786 0ddc 08000000 		.4byte	.LBE426-.LBB426
 6787 0de0 01       		.byte	0x1
 6788 0de1 C303     		.2byte	0x3c3
 6789 0de3 05       		.byte	0x5
 6790 0de4 0C0E0000 		.4byte	0xe0c
 6791 0de8 24       		.uleb128 0x24
 6792 0de9 7C350000 		.4byte	0x357c
 6793 0ded C8000000 		.4byte	.LLST8
 6794 0df1 C6000000 		.4byte	.LVUS8
 6795 0df5 25       		.uleb128 0x25
 6796 0df6 64000000 		.4byte	.LVL12
 6797 0dfa 7D370000 		.4byte	0x377d
 6798 0dfe 26       		.uleb128 0x26
 6799 0dff 01       		.uleb128 0x1
 6800 0e00 50       		.byte	0x50
 6801 0e01 02       		.uleb128 0x2
 6802 0e02 74       		.byte	0x74
 6803 0e03 00       		.sleb128 0
 6804 0e04 26       		.uleb128 0x26
 6805 0e05 01       		.uleb128 0x1
 6806 0e06 51       		.byte	0x51
 6807 0e07 02       		.uleb128 0x2
 6808 0e08 75       		.byte	0x75
 6809 0e09 00       		.sleb128 0
 6810 0e0a 00       		.byte	0
 6811 0e0b 00       		.byte	0
 6812 0e0c 23       		.uleb128 0x23
 6813 0e0d 8A350000 		.4byte	0x358a
 6814 0e11 6E000000 		.4byte	.LBI428
 6815 0e15 01       		.byte	.LVU67
 6816 0e16 88000000 		.4byte	.Ldebug_ranges0+0x88
 6817 0e1a 01       		.byte	0x1
 6818 0e1b CB03     		.2byte	0x3cb
 6819 0e1d 05       		.byte	0x5
 6820 0e1e 490E0000 		.4byte	0xe49
 6821 0e22 24       		.uleb128 0x24
 6822 0e23 98350000 		.4byte	0x3598
 6823 0e27 E2000000 		.4byte	.LLST9
 6824 0e2b E0000000 		.4byte	.LVUS9
 6825 0e2f 25       		.uleb128 0x25
 6826 0e30 74000000 		.4byte	.LVL14
 6827 0e34 7D370000 		.4byte	0x377d
 6828 0e38 26       		.uleb128 0x26
 6829 0e39 01       		.uleb128 0x1
 6830 0e3a 50       		.byte	0x50
 6831 0e3b 02       		.uleb128 0x2
 6832 0e3c 78       		.byte	0x78
 6833 0e3d 00       		.sleb128 0
 6834 0e3e 26       		.uleb128 0x26
 6835 0e3f 01       		.uleb128 0x1
 6836 0e40 51       		.byte	0x51
 6837 0e41 05       		.uleb128 0x5
 6838 0e42 03       		.byte	0x3
 6839 0e43 48000000 		.4byte	.LC7
 6840 0e47 00       		.byte	0
 6841 0e48 00       		.byte	0
 6842 0e49 27       		.uleb128 0x27
ARM GAS  /tmp/ccuqlnP4.s 			page 123


 6843 0e4a A6350000 		.4byte	0x35a6
 6844 0e4e 74000000 		.4byte	.LBI432
 6845 0e52 02       		.byte	.LVU71
 6846 0e53 74000000 		.4byte	.LBB432
 6847 0e57 08000000 		.4byte	.LBE432-.LBB432
 6848 0e5b 01       		.byte	0x1
 6849 0e5c CC03     		.2byte	0x3cc
 6850 0e5e 05       		.byte	0x5
 6851 0e5f 860E0000 		.4byte	0xe86
 6852 0e63 24       		.uleb128 0x24
 6853 0e64 B4350000 		.4byte	0x35b4
 6854 0e68 FC000000 		.4byte	.LLST10
 6855 0e6c FA000000 		.4byte	.LVUS10
 6856 0e70 25       		.uleb128 0x25
 6857 0e71 7C000000 		.4byte	.LVL15
 6858 0e75 7D370000 		.4byte	0x377d
 6859 0e79 26       		.uleb128 0x26
 6860 0e7a 01       		.uleb128 0x1
 6861 0e7b 50       		.byte	0x50
 6862 0e7c 02       		.uleb128 0x2
 6863 0e7d 76       		.byte	0x76
 6864 0e7e 00       		.sleb128 0
 6865 0e7f 26       		.uleb128 0x26
 6866 0e80 01       		.uleb128 0x1
 6867 0e81 51       		.byte	0x51
 6868 0e82 01       		.uleb128 0x1
 6869 0e83 3C       		.byte	0x3c
 6870 0e84 00       		.byte	0
 6871 0e85 00       		.byte	0
 6872 0e86 27       		.uleb128 0x27
 6873 0e87 6E350000 		.4byte	0x356e
 6874 0e8b 7C000000 		.4byte	.LBI434
 6875 0e8f 02       		.byte	.LVU75
 6876 0e90 7C000000 		.4byte	.LBB434
 6877 0e94 08000000 		.4byte	.LBE434-.LBB434
 6878 0e98 01       		.byte	0x1
 6879 0e99 CD03     		.2byte	0x3cd
 6880 0e9b 05       		.byte	0x5
 6881 0e9c C40E0000 		.4byte	0xec4
 6882 0ea0 24       		.uleb128 0x24
 6883 0ea1 7C350000 		.4byte	0x357c
 6884 0ea5 12010000 		.4byte	.LLST11
 6885 0ea9 10010000 		.4byte	.LVUS11
 6886 0ead 25       		.uleb128 0x25
 6887 0eae 84000000 		.4byte	.LVL16
 6888 0eb2 7D370000 		.4byte	0x377d
 6889 0eb6 26       		.uleb128 0x26
 6890 0eb7 01       		.uleb128 0x1
 6891 0eb8 50       		.byte	0x50
 6892 0eb9 02       		.uleb128 0x2
 6893 0eba 74       		.byte	0x74
 6894 0ebb 00       		.sleb128 0
 6895 0ebc 26       		.uleb128 0x26
 6896 0ebd 01       		.uleb128 0x1
 6897 0ebe 51       		.byte	0x51
 6898 0ebf 02       		.uleb128 0x2
 6899 0ec0 75       		.byte	0x75
ARM GAS  /tmp/ccuqlnP4.s 			page 124


 6900 0ec1 00       		.sleb128 0
 6901 0ec2 00       		.byte	0
 6902 0ec3 00       		.byte	0
 6903 0ec4 23       		.uleb128 0x23
 6904 0ec5 8A350000 		.4byte	0x358a
 6905 0ec9 8A000000 		.4byte	.LBI436
 6906 0ecd 01       		.byte	.LVU84
 6907 0ece A0000000 		.4byte	.Ldebug_ranges0+0xa0
 6908 0ed2 01       		.byte	0x1
 6909 0ed3 D603     		.2byte	0x3d6
 6910 0ed5 05       		.byte	0x5
 6911 0ed6 010F0000 		.4byte	0xf01
 6912 0eda 24       		.uleb128 0x24
 6913 0edb 98350000 		.4byte	0x3598
 6914 0edf 2C010000 		.4byte	.LLST12
 6915 0ee3 2A010000 		.4byte	.LVUS12
 6916 0ee7 25       		.uleb128 0x25
 6917 0ee8 90000000 		.4byte	.LVL18
 6918 0eec 7D370000 		.4byte	0x377d
 6919 0ef0 26       		.uleb128 0x26
 6920 0ef1 01       		.uleb128 0x1
 6921 0ef2 50       		.byte	0x50
 6922 0ef3 02       		.uleb128 0x2
 6923 0ef4 78       		.byte	0x78
 6924 0ef5 00       		.sleb128 0
 6925 0ef6 26       		.uleb128 0x26
 6926 0ef7 01       		.uleb128 0x1
 6927 0ef8 51       		.byte	0x51
 6928 0ef9 05       		.uleb128 0x5
 6929 0efa 03       		.byte	0x3
 6930 0efb 58000000 		.4byte	.LC8
 6931 0eff 00       		.byte	0
 6932 0f00 00       		.byte	0
 6933 0f01 27       		.uleb128 0x27
 6934 0f02 A6350000 		.4byte	0x35a6
 6935 0f06 90000000 		.4byte	.LBI440
 6936 0f0a 02       		.byte	.LVU88
 6937 0f0b 90000000 		.4byte	.LBB440
 6938 0f0f 08000000 		.4byte	.LBE440-.LBB440
 6939 0f13 01       		.byte	0x1
 6940 0f14 D703     		.2byte	0x3d7
 6941 0f16 05       		.byte	0x5
 6942 0f17 3E0F0000 		.4byte	0xf3e
 6943 0f1b 24       		.uleb128 0x24
 6944 0f1c B4350000 		.4byte	0x35b4
 6945 0f20 46010000 		.4byte	.LLST13
 6946 0f24 44010000 		.4byte	.LVUS13
 6947 0f28 25       		.uleb128 0x25
 6948 0f29 98000000 		.4byte	.LVL19
 6949 0f2d 7D370000 		.4byte	0x377d
 6950 0f31 26       		.uleb128 0x26
 6951 0f32 01       		.uleb128 0x1
 6952 0f33 50       		.byte	0x50
 6953 0f34 02       		.uleb128 0x2
 6954 0f35 76       		.byte	0x76
 6955 0f36 00       		.sleb128 0
 6956 0f37 26       		.uleb128 0x26
ARM GAS  /tmp/ccuqlnP4.s 			page 125


 6957 0f38 01       		.uleb128 0x1
 6958 0f39 51       		.byte	0x51
 6959 0f3a 01       		.uleb128 0x1
 6960 0f3b 40       		.byte	0x40
 6961 0f3c 00       		.byte	0
 6962 0f3d 00       		.byte	0
 6963 0f3e 27       		.uleb128 0x27
 6964 0f3f 6E350000 		.4byte	0x356e
 6965 0f43 98000000 		.4byte	.LBI442
 6966 0f47 02       		.byte	.LVU92
 6967 0f48 98000000 		.4byte	.LBB442
 6968 0f4c 08000000 		.4byte	.LBE442-.LBB442
 6969 0f50 01       		.byte	0x1
 6970 0f51 D803     		.2byte	0x3d8
 6971 0f53 05       		.byte	0x5
 6972 0f54 7C0F0000 		.4byte	0xf7c
 6973 0f58 24       		.uleb128 0x24
 6974 0f59 7C350000 		.4byte	0x357c
 6975 0f5d 5C010000 		.4byte	.LLST14
 6976 0f61 5A010000 		.4byte	.LVUS14
 6977 0f65 25       		.uleb128 0x25
 6978 0f66 A0000000 		.4byte	.LVL20
 6979 0f6a 7D370000 		.4byte	0x377d
 6980 0f6e 26       		.uleb128 0x26
 6981 0f6f 01       		.uleb128 0x1
 6982 0f70 50       		.byte	0x50
 6983 0f71 02       		.uleb128 0x2
 6984 0f72 74       		.byte	0x74
 6985 0f73 00       		.sleb128 0
 6986 0f74 26       		.uleb128 0x26
 6987 0f75 01       		.uleb128 0x1
 6988 0f76 51       		.byte	0x51
 6989 0f77 02       		.uleb128 0x2
 6990 0f78 75       		.byte	0x75
 6991 0f79 00       		.sleb128 0
 6992 0f7a 00       		.byte	0
 6993 0f7b 00       		.byte	0
 6994 0f7c 23       		.uleb128 0x23
 6995 0f7d 8A350000 		.4byte	0x358a
 6996 0f81 A6000000 		.4byte	.LBI444
 6997 0f85 01       		.byte	.LVU101
 6998 0f86 B8000000 		.4byte	.Ldebug_ranges0+0xb8
 6999 0f8a 01       		.byte	0x1
 7000 0f8b E103     		.2byte	0x3e1
 7001 0f8d 05       		.byte	0x5
 7002 0f8e B90F0000 		.4byte	0xfb9
 7003 0f92 24       		.uleb128 0x24
 7004 0f93 98350000 		.4byte	0x3598
 7005 0f97 76010000 		.4byte	.LLST15
 7006 0f9b 74010000 		.4byte	.LVUS15
 7007 0f9f 25       		.uleb128 0x25
 7008 0fa0 AC000000 		.4byte	.LVL22
 7009 0fa4 7D370000 		.4byte	0x377d
 7010 0fa8 26       		.uleb128 0x26
 7011 0fa9 01       		.uleb128 0x1
 7012 0faa 50       		.byte	0x50
 7013 0fab 02       		.uleb128 0x2
ARM GAS  /tmp/ccuqlnP4.s 			page 126


 7014 0fac 78       		.byte	0x78
 7015 0fad 00       		.sleb128 0
 7016 0fae 26       		.uleb128 0x26
 7017 0faf 01       		.uleb128 0x1
 7018 0fb0 51       		.byte	0x51
 7019 0fb1 05       		.uleb128 0x5
 7020 0fb2 03       		.byte	0x3
 7021 0fb3 68000000 		.4byte	.LC9
 7022 0fb7 00       		.byte	0
 7023 0fb8 00       		.byte	0
 7024 0fb9 27       		.uleb128 0x27
 7025 0fba A6350000 		.4byte	0x35a6
 7026 0fbe AC000000 		.4byte	.LBI448
 7027 0fc2 02       		.byte	.LVU105
 7028 0fc3 AC000000 		.4byte	.LBB448
 7029 0fc7 08000000 		.4byte	.LBE448-.LBB448
 7030 0fcb 01       		.byte	0x1
 7031 0fcc E203     		.2byte	0x3e2
 7032 0fce 05       		.byte	0x5
 7033 0fcf F60F0000 		.4byte	0xff6
 7034 0fd3 24       		.uleb128 0x24
 7035 0fd4 B4350000 		.4byte	0x35b4
 7036 0fd8 90010000 		.4byte	.LLST16
 7037 0fdc 8E010000 		.4byte	.LVUS16
 7038 0fe0 25       		.uleb128 0x25
 7039 0fe1 B4000000 		.4byte	.LVL23
 7040 0fe5 7D370000 		.4byte	0x377d
 7041 0fe9 26       		.uleb128 0x26
 7042 0fea 01       		.uleb128 0x1
 7043 0feb 50       		.byte	0x50
 7044 0fec 02       		.uleb128 0x2
 7045 0fed 76       		.byte	0x76
 7046 0fee 00       		.sleb128 0
 7047 0fef 26       		.uleb128 0x26
 7048 0ff0 01       		.uleb128 0x1
 7049 0ff1 51       		.byte	0x51
 7050 0ff2 01       		.uleb128 0x1
 7051 0ff3 38       		.byte	0x38
 7052 0ff4 00       		.byte	0
 7053 0ff5 00       		.byte	0
 7054 0ff6 27       		.uleb128 0x27
 7055 0ff7 6E350000 		.4byte	0x356e
 7056 0ffb B4000000 		.4byte	.LBI450
 7057 0fff 02       		.byte	.LVU109
 7058 1000 B4000000 		.4byte	.LBB450
 7059 1004 08000000 		.4byte	.LBE450-.LBB450
 7060 1008 01       		.byte	0x1
 7061 1009 E303     		.2byte	0x3e3
 7062 100b 05       		.byte	0x5
 7063 100c 34100000 		.4byte	0x1034
 7064 1010 24       		.uleb128 0x24
 7065 1011 7C350000 		.4byte	0x357c
 7066 1015 A6010000 		.4byte	.LLST17
 7067 1019 A4010000 		.4byte	.LVUS17
 7068 101d 25       		.uleb128 0x25
 7069 101e BC000000 		.4byte	.LVL24
 7070 1022 7D370000 		.4byte	0x377d
ARM GAS  /tmp/ccuqlnP4.s 			page 127


 7071 1026 26       		.uleb128 0x26
 7072 1027 01       		.uleb128 0x1
 7073 1028 50       		.byte	0x50
 7074 1029 02       		.uleb128 0x2
 7075 102a 74       		.byte	0x74
 7076 102b 00       		.sleb128 0
 7077 102c 26       		.uleb128 0x26
 7078 102d 01       		.uleb128 0x1
 7079 102e 51       		.byte	0x51
 7080 102f 02       		.uleb128 0x2
 7081 1030 75       		.byte	0x75
 7082 1031 00       		.sleb128 0
 7083 1032 00       		.byte	0
 7084 1033 00       		.byte	0
 7085 1034 23       		.uleb128 0x23
 7086 1035 8A350000 		.4byte	0x358a
 7087 1039 C2000000 		.4byte	.LBI452
 7088 103d 01       		.byte	.LVU118
 7089 103e D0000000 		.4byte	.Ldebug_ranges0+0xd0
 7090 1042 01       		.byte	0x1
 7091 1043 EC03     		.2byte	0x3ec
 7092 1045 05       		.byte	0x5
 7093 1046 71100000 		.4byte	0x1071
 7094 104a 24       		.uleb128 0x24
 7095 104b 98350000 		.4byte	0x3598
 7096 104f C0010000 		.4byte	.LLST18
 7097 1053 BE010000 		.4byte	.LVUS18
 7098 1057 25       		.uleb128 0x25
 7099 1058 C8000000 		.4byte	.LVL26
 7100 105c 7D370000 		.4byte	0x377d
 7101 1060 26       		.uleb128 0x26
 7102 1061 01       		.uleb128 0x1
 7103 1062 50       		.byte	0x50
 7104 1063 02       		.uleb128 0x2
 7105 1064 78       		.byte	0x78
 7106 1065 00       		.sleb128 0
 7107 1066 26       		.uleb128 0x26
 7108 1067 01       		.uleb128 0x1
 7109 1068 51       		.byte	0x51
 7110 1069 05       		.uleb128 0x5
 7111 106a 03       		.byte	0x3
 7112 106b 78000000 		.4byte	.LC10
 7113 106f 00       		.byte	0
 7114 1070 00       		.byte	0
 7115 1071 27       		.uleb128 0x27
 7116 1072 A6350000 		.4byte	0x35a6
 7117 1076 C8000000 		.4byte	.LBI456
 7118 107a 02       		.byte	.LVU122
 7119 107b C8000000 		.4byte	.LBB456
 7120 107f 08000000 		.4byte	.LBE456-.LBB456
 7121 1083 01       		.byte	0x1
 7122 1084 ED03     		.2byte	0x3ed
 7123 1086 05       		.byte	0x5
 7124 1087 AF100000 		.4byte	0x10af
 7125 108b 24       		.uleb128 0x24
 7126 108c B4350000 		.4byte	0x35b4
 7127 1090 DA010000 		.4byte	.LLST19
ARM GAS  /tmp/ccuqlnP4.s 			page 128


 7128 1094 D8010000 		.4byte	.LVUS19
 7129 1098 25       		.uleb128 0x25
 7130 1099 D0000000 		.4byte	.LVL27
 7131 109d 7D370000 		.4byte	0x377d
 7132 10a1 26       		.uleb128 0x26
 7133 10a2 01       		.uleb128 0x1
 7134 10a3 50       		.byte	0x50
 7135 10a4 02       		.uleb128 0x2
 7136 10a5 76       		.byte	0x76
 7137 10a6 00       		.sleb128 0
 7138 10a7 26       		.uleb128 0x26
 7139 10a8 01       		.uleb128 0x1
 7140 10a9 51       		.byte	0x51
 7141 10aa 02       		.uleb128 0x2
 7142 10ab 79       		.byte	0x79
 7143 10ac 00       		.sleb128 0
 7144 10ad 00       		.byte	0
 7145 10ae 00       		.byte	0
 7146 10af 27       		.uleb128 0x27
 7147 10b0 6E350000 		.4byte	0x356e
 7148 10b4 D0000000 		.4byte	.LBI458
 7149 10b8 02       		.byte	.LVU126
 7150 10b9 D0000000 		.4byte	.LBB458
 7151 10bd 08000000 		.4byte	.LBE458-.LBB458
 7152 10c1 01       		.byte	0x1
 7153 10c2 EE03     		.2byte	0x3ee
 7154 10c4 05       		.byte	0x5
 7155 10c5 ED100000 		.4byte	0x10ed
 7156 10c9 24       		.uleb128 0x24
 7157 10ca 7C350000 		.4byte	0x357c
 7158 10ce F0010000 		.4byte	.LLST20
 7159 10d2 EE010000 		.4byte	.LVUS20
 7160 10d6 25       		.uleb128 0x25
 7161 10d7 D8000000 		.4byte	.LVL28
 7162 10db 7D370000 		.4byte	0x377d
 7163 10df 26       		.uleb128 0x26
 7164 10e0 01       		.uleb128 0x1
 7165 10e1 50       		.byte	0x50
 7166 10e2 02       		.uleb128 0x2
 7167 10e3 74       		.byte	0x74
 7168 10e4 00       		.sleb128 0
 7169 10e5 26       		.uleb128 0x26
 7170 10e6 01       		.uleb128 0x1
 7171 10e7 51       		.byte	0x51
 7172 10e8 02       		.uleb128 0x2
 7173 10e9 75       		.byte	0x75
 7174 10ea 00       		.sleb128 0
 7175 10eb 00       		.byte	0
 7176 10ec 00       		.byte	0
 7177 10ed 23       		.uleb128 0x23
 7178 10ee 8A350000 		.4byte	0x358a
 7179 10f2 DE000000 		.4byte	.LBI460
 7180 10f6 01       		.byte	.LVU135
 7181 10f7 E8000000 		.4byte	.Ldebug_ranges0+0xe8
 7182 10fb 01       		.byte	0x1
 7183 10fc F703     		.2byte	0x3f7
 7184 10fe 05       		.byte	0x5
ARM GAS  /tmp/ccuqlnP4.s 			page 129


 7185 10ff 2A110000 		.4byte	0x112a
 7186 1103 24       		.uleb128 0x24
 7187 1104 98350000 		.4byte	0x3598
 7188 1108 0A020000 		.4byte	.LLST21
 7189 110c 08020000 		.4byte	.LVUS21
 7190 1110 25       		.uleb128 0x25
 7191 1111 E4000000 		.4byte	.LVL30
 7192 1115 7D370000 		.4byte	0x377d
 7193 1119 26       		.uleb128 0x26
 7194 111a 01       		.uleb128 0x1
 7195 111b 50       		.byte	0x50
 7196 111c 02       		.uleb128 0x2
 7197 111d 78       		.byte	0x78
 7198 111e 00       		.sleb128 0
 7199 111f 26       		.uleb128 0x26
 7200 1120 01       		.uleb128 0x1
 7201 1121 51       		.byte	0x51
 7202 1122 05       		.uleb128 0x5
 7203 1123 03       		.byte	0x3
 7204 1124 88000000 		.4byte	.LC11
 7205 1128 00       		.byte	0
 7206 1129 00       		.byte	0
 7207 112a 27       		.uleb128 0x27
 7208 112b A6350000 		.4byte	0x35a6
 7209 112f E4000000 		.4byte	.LBI464
 7210 1133 02       		.byte	.LVU139
 7211 1134 E4000000 		.4byte	.LBB464
 7212 1138 08000000 		.4byte	.LBE464-.LBB464
 7213 113c 01       		.byte	0x1
 7214 113d F803     		.2byte	0x3f8
 7215 113f 05       		.byte	0x5
 7216 1140 67110000 		.4byte	0x1167
 7217 1144 24       		.uleb128 0x24
 7218 1145 B4350000 		.4byte	0x35b4
 7219 1149 24020000 		.4byte	.LLST22
 7220 114d 22020000 		.4byte	.LVUS22
 7221 1151 25       		.uleb128 0x25
 7222 1152 EC000000 		.4byte	.LVL31
 7223 1156 7D370000 		.4byte	0x377d
 7224 115a 26       		.uleb128 0x26
 7225 115b 01       		.uleb128 0x1
 7226 115c 50       		.byte	0x50
 7227 115d 02       		.uleb128 0x2
 7228 115e 76       		.byte	0x76
 7229 115f 00       		.sleb128 0
 7230 1160 26       		.uleb128 0x26
 7231 1161 01       		.uleb128 0x1
 7232 1162 51       		.byte	0x51
 7233 1163 01       		.uleb128 0x1
 7234 1164 44       		.byte	0x44
 7235 1165 00       		.byte	0
 7236 1166 00       		.byte	0
 7237 1167 27       		.uleb128 0x27
 7238 1168 6E350000 		.4byte	0x356e
 7239 116c EC000000 		.4byte	.LBI466
 7240 1170 02       		.byte	.LVU143
 7241 1171 EC000000 		.4byte	.LBB466
ARM GAS  /tmp/ccuqlnP4.s 			page 130


 7242 1175 08000000 		.4byte	.LBE466-.LBB466
 7243 1179 01       		.byte	0x1
 7244 117a F903     		.2byte	0x3f9
 7245 117c 05       		.byte	0x5
 7246 117d A5110000 		.4byte	0x11a5
 7247 1181 24       		.uleb128 0x24
 7248 1182 7C350000 		.4byte	0x357c
 7249 1186 3A020000 		.4byte	.LLST23
 7250 118a 38020000 		.4byte	.LVUS23
 7251 118e 25       		.uleb128 0x25
 7252 118f F4000000 		.4byte	.LVL32
 7253 1193 7D370000 		.4byte	0x377d
 7254 1197 26       		.uleb128 0x26
 7255 1198 01       		.uleb128 0x1
 7256 1199 50       		.byte	0x50
 7257 119a 02       		.uleb128 0x2
 7258 119b 74       		.byte	0x74
 7259 119c 00       		.sleb128 0
 7260 119d 26       		.uleb128 0x26
 7261 119e 01       		.uleb128 0x1
 7262 119f 51       		.byte	0x51
 7263 11a0 02       		.uleb128 0x2
 7264 11a1 75       		.byte	0x75
 7265 11a2 00       		.sleb128 0
 7266 11a3 00       		.byte	0
 7267 11a4 00       		.byte	0
 7268 11a5 23       		.uleb128 0x23
 7269 11a6 8A350000 		.4byte	0x358a
 7270 11aa FA000000 		.4byte	.LBI468
 7271 11ae 01       		.byte	.LVU152
 7272 11af 00010000 		.4byte	.Ldebug_ranges0+0x100
 7273 11b3 01       		.byte	0x1
 7274 11b4 0204     		.2byte	0x402
 7275 11b6 05       		.byte	0x5
 7276 11b7 E2110000 		.4byte	0x11e2
 7277 11bb 24       		.uleb128 0x24
 7278 11bc 98350000 		.4byte	0x3598
 7279 11c0 54020000 		.4byte	.LLST24
 7280 11c4 52020000 		.4byte	.LVUS24
 7281 11c8 25       		.uleb128 0x25
 7282 11c9 00010000 		.4byte	.LVL34
 7283 11cd 7D370000 		.4byte	0x377d
 7284 11d1 26       		.uleb128 0x26
 7285 11d2 01       		.uleb128 0x1
 7286 11d3 50       		.byte	0x50
 7287 11d4 02       		.uleb128 0x2
 7288 11d5 78       		.byte	0x78
 7289 11d6 00       		.sleb128 0
 7290 11d7 26       		.uleb128 0x26
 7291 11d8 01       		.uleb128 0x1
 7292 11d9 51       		.byte	0x51
 7293 11da 05       		.uleb128 0x5
 7294 11db 03       		.byte	0x3
 7295 11dc 98000000 		.4byte	.LC12
 7296 11e0 00       		.byte	0
 7297 11e1 00       		.byte	0
 7298 11e2 27       		.uleb128 0x27
ARM GAS  /tmp/ccuqlnP4.s 			page 131


 7299 11e3 A6350000 		.4byte	0x35a6
 7300 11e7 00010000 		.4byte	.LBI472
 7301 11eb 02       		.byte	.LVU156
 7302 11ec 00010000 		.4byte	.LBB472
 7303 11f0 08000000 		.4byte	.LBE472-.LBB472
 7304 11f4 01       		.byte	0x1
 7305 11f5 0304     		.2byte	0x403
 7306 11f7 05       		.byte	0x5
 7307 11f8 20120000 		.4byte	0x1220
 7308 11fc 24       		.uleb128 0x24
 7309 11fd B4350000 		.4byte	0x35b4
 7310 1201 6E020000 		.4byte	.LLST25
 7311 1205 6C020000 		.4byte	.LVUS25
 7312 1209 25       		.uleb128 0x25
 7313 120a 08010000 		.4byte	.LVL35
 7314 120e 7D370000 		.4byte	0x377d
 7315 1212 26       		.uleb128 0x26
 7316 1213 01       		.uleb128 0x1
 7317 1214 50       		.byte	0x50
 7318 1215 02       		.uleb128 0x2
 7319 1216 76       		.byte	0x76
 7320 1217 00       		.sleb128 0
 7321 1218 26       		.uleb128 0x26
 7322 1219 01       		.uleb128 0x1
 7323 121a 51       		.byte	0x51
 7324 121b 02       		.uleb128 0x2
 7325 121c 08       		.byte	0x8
 7326 121d 28       		.byte	0x28
 7327 121e 00       		.byte	0
 7328 121f 00       		.byte	0
 7329 1220 28       		.uleb128 0x28
 7330 1221 6E350000 		.4byte	0x356e
 7331 1225 08010000 		.4byte	.LBI474
 7332 1229 02       		.byte	.LVU160
 7333 122a 18010000 		.4byte	.Ldebug_ranges0+0x118
 7334 122e 01       		.byte	0x1
 7335 122f 0404     		.2byte	0x404
 7336 1231 05       		.byte	0x5
 7337 1232 29       		.uleb128 0x29
 7338 1233 7C350000 		.4byte	0x357c
 7339 1237 06       		.uleb128 0x6
 7340 1238 03       		.byte	0x3
 7341 1239 18000000 		.4byte	.LC3
 7342 123d 9F       		.byte	0x9f
 7343 123e 2A       		.uleb128 0x2a
 7344 123f 14010000 		.4byte	.LVL36
 7345 1243 7D370000 		.4byte	0x377d
 7346 1247 26       		.uleb128 0x26
 7347 1248 01       		.uleb128 0x1
 7348 1249 50       		.byte	0x50
 7349 124a 05       		.uleb128 0x5
 7350 124b 03       		.byte	0x3
 7351 124c 20000000 		.4byte	.LC4
 7352 1250 26       		.uleb128 0x26
 7353 1251 01       		.uleb128 0x1
 7354 1252 51       		.byte	0x51
 7355 1253 05       		.uleb128 0x5
ARM GAS  /tmp/ccuqlnP4.s 			page 132


 7356 1254 03       		.byte	0x3
 7357 1255 18000000 		.4byte	.LC3
 7358 1259 00       		.byte	0
 7359 125a 00       		.byte	0
 7360 125b 00       		.byte	0
 7361 125c 22       		.uleb128 0x22
 7362 125d D8030000 		.4byte	.LASF156
 7363 1261 01       		.byte	0x1
 7364 1262 6803     		.2byte	0x368
 7365 1264 0D       		.byte	0xd
 7366 1265 00000000 		.4byte	.LFB424
 7367 1269 98000000 		.4byte	.LFE424-.LFB424
 7368 126d 01       		.uleb128 0x1
 7369 126e 9C       		.byte	0x9c
 7370 126f B1140000 		.4byte	0x14b1
 7371 1273 2B       		.uleb128 0x2b
 7372 1274 6E00     		.ascii	"n\000"
 7373 1276 01       		.byte	0x1
 7374 1277 6903     		.2byte	0x369
 7375 1279 0C       		.byte	0xc
 7376 127a CB000000 		.4byte	0xcb
 7377 127e 87020000 		.4byte	.LLST26
 7378 1282 83020000 		.4byte	.LVUS26
 7379 1286 2C       		.uleb128 0x2c
 7380 1287 30010000 		.4byte	.Ldebug_ranges0+0x130
 7381 128b F2130000 		.4byte	0x13f2
 7382 128f 2D       		.uleb128 0x2d
 7383 1290 BA0A0000 		.4byte	.LASF157
 7384 1294 01       		.byte	0x1
 7385 1295 6F03     		.2byte	0x36f
 7386 1297 0F       		.byte	0xf
 7387 1298 4B030000 		.4byte	0x34b
 7388 129c AA020000 		.4byte	.LLST27
 7389 12a0 A6020000 		.4byte	.LVUS27
 7390 12a4 2B       		.uleb128 0x2b
 7391 12a5 656E6400 		.ascii	"end\000"
 7392 12a9 01       		.byte	0x1
 7393 12aa 6F03     		.2byte	0x36f
 7394 12ac 16       		.byte	0x16
 7395 12ad 4B030000 		.4byte	0x34b
 7396 12b1 CC020000 		.4byte	.LLST28
 7397 12b5 C8020000 		.4byte	.LVUS28
 7398 12b9 23       		.uleb128 0x23
 7399 12ba 6B360000 		.4byte	0x366b
 7400 12be 58000000 		.4byte	.LBI479
 7401 12c2 01       		.byte	.LVU196
 7402 12c3 60010000 		.4byte	.Ldebug_ranges0+0x160
 7403 12c7 01       		.byte	0x1
 7404 12c8 8103     		.2byte	0x381
 7405 12ca 0E       		.byte	0xe
 7406 12cb 4C130000 		.4byte	0x134c
 7407 12cf 24       		.uleb128 0x24
 7408 12d0 88360000 		.4byte	0x3688
 7409 12d4 F4020000 		.4byte	.LLST29
 7410 12d8 F2020000 		.4byte	.LVUS29
 7411 12dc 24       		.uleb128 0x24
 7412 12dd 7C360000 		.4byte	0x367c
ARM GAS  /tmp/ccuqlnP4.s 			page 133


 7413 12e1 0D030000 		.4byte	.LLST30
 7414 12e5 0B030000 		.4byte	.LVUS30
 7415 12e9 2E       		.uleb128 0x2e
 7416 12ea 95360000 		.4byte	0x3695
 7417 12ee 58000000 		.4byte	.LBI480
 7418 12f2 03       		.byte	.LVU198
 7419 12f3 88010000 		.4byte	.Ldebug_ranges0+0x188
 7420 12f7 05       		.byte	0x5
 7421 12f8 B3       		.byte	0xb3
 7422 12f9 0A       		.byte	0xa
 7423 12fa 1A130000 		.4byte	0x131a
 7424 12fe 2F       		.uleb128 0x2f
 7425 12ff D9360000 		.4byte	0x36d9
 7426 1303 58000000 		.4byte	.LBI481
 7427 1307 05       		.byte	.LVU200
 7428 1308 A8010000 		.4byte	.Ldebug_ranges0+0x1a8
 7429 130c 05       		.byte	0x5
 7430 130d 7F       		.byte	0x7f
 7431 130e 0A       		.byte	0xa
 7432 130f 30       		.uleb128 0x30
 7433 1310 50000000 		.4byte	.LVL49
 7434 1314 8A370000 		.4byte	0x378a
 7435 1318 00       		.byte	0
 7436 1319 00       		.byte	0
 7437 131a 2F       		.uleb128 0x2f
 7438 131b 16370000 		.4byte	0x3716
 7439 131f 58000000 		.4byte	.LBI485
 7440 1323 08       		.byte	.LVU203
 7441 1324 C0010000 		.4byte	.Ldebug_ranges0+0x1c0
 7442 1328 05       		.byte	0x5
 7443 1329 B3       		.byte	0xb3
 7444 132a 0A       		.byte	0xa
 7445 132b 24       		.uleb128 0x24
 7446 132c 42370000 		.4byte	0x3742
 7447 1330 22030000 		.4byte	.LLST31
 7448 1334 20030000 		.4byte	.LVUS31
 7449 1338 24       		.uleb128 0x24
 7450 1339 35370000 		.4byte	0x3735
 7451 133d 3B030000 		.4byte	.LLST32
 7452 1341 39030000 		.4byte	.LVUS32
 7453 1345 31       		.uleb128 0x31
 7454 1346 28370000 		.4byte	0x3728
 7455 134a 00       		.byte	0
 7456 134b 00       		.byte	0
 7457 134c 30       		.uleb128 0x30
 7458 134d 14000000 		.4byte	.LVL38
 7459 1351 96370000 		.4byte	0x3796
 7460 1355 32       		.uleb128 0x32
 7461 1356 22000000 		.4byte	.LVL41
 7462 135a A2370000 		.4byte	0x37a2
 7463 135e 69130000 		.4byte	0x1369
 7464 1362 26       		.uleb128 0x26
 7465 1363 01       		.uleb128 0x1
 7466 1364 50       		.byte	0x50
 7467 1365 02       		.uleb128 0x2
 7468 1366 74       		.byte	0x74
 7469 1367 00       		.sleb128 0
ARM GAS  /tmp/ccuqlnP4.s 			page 134


 7470 1368 00       		.byte	0
 7471 1369 32       		.uleb128 0x32
 7472 136a 28000000 		.4byte	.LVL42
 7473 136e AE370000 		.4byte	0x37ae
 7474 1372 7D130000 		.4byte	0x137d
 7475 1376 26       		.uleb128 0x26
 7476 1377 01       		.uleb128 0x1
 7477 1378 50       		.byte	0x50
 7478 1379 02       		.uleb128 0x2
 7479 137a 74       		.byte	0x74
 7480 137b 00       		.sleb128 0
 7481 137c 00       		.byte	0
 7482 137d 32       		.uleb128 0x32
 7483 137e 2E000000 		.4byte	.LVL43
 7484 1382 A2370000 		.4byte	0x37a2
 7485 1386 91130000 		.4byte	0x1391
 7486 138a 26       		.uleb128 0x26
 7487 138b 01       		.uleb128 0x1
 7488 138c 50       		.byte	0x50
 7489 138d 02       		.uleb128 0x2
 7490 138e 74       		.byte	0x74
 7491 138f 00       		.sleb128 0
 7492 1390 00       		.byte	0
 7493 1391 32       		.uleb128 0x32
 7494 1392 34000000 		.4byte	.LVL44
 7495 1396 AE370000 		.4byte	0x37ae
 7496 139a A5130000 		.4byte	0x13a5
 7497 139e 26       		.uleb128 0x26
 7498 139f 01       		.uleb128 0x1
 7499 13a0 50       		.byte	0x50
 7500 13a1 02       		.uleb128 0x2
 7501 13a2 74       		.byte	0x74
 7502 13a3 00       		.sleb128 0
 7503 13a4 00       		.byte	0
 7504 13a5 32       		.uleb128 0x32
 7505 13a6 3A000000 		.4byte	.LVL45
 7506 13aa A2370000 		.4byte	0x37a2
 7507 13ae B9130000 		.4byte	0x13b9
 7508 13b2 26       		.uleb128 0x26
 7509 13b3 01       		.uleb128 0x1
 7510 13b4 50       		.byte	0x50
 7511 13b5 02       		.uleb128 0x2
 7512 13b6 74       		.byte	0x74
 7513 13b7 00       		.sleb128 0
 7514 13b8 00       		.byte	0
 7515 13b9 32       		.uleb128 0x32
 7516 13ba 40000000 		.4byte	.LVL46
 7517 13be AE370000 		.4byte	0x37ae
 7518 13c2 CD130000 		.4byte	0x13cd
 7519 13c6 26       		.uleb128 0x26
 7520 13c7 01       		.uleb128 0x1
 7521 13c8 50       		.byte	0x50
 7522 13c9 02       		.uleb128 0x2
 7523 13ca 74       		.byte	0x74
 7524 13cb 00       		.sleb128 0
 7525 13cc 00       		.byte	0
 7526 13cd 32       		.uleb128 0x32
ARM GAS  /tmp/ccuqlnP4.s 			page 135


 7527 13ce 46000000 		.4byte	.LVL47
 7528 13d2 A2370000 		.4byte	0x37a2
 7529 13d6 E1130000 		.4byte	0x13e1
 7530 13da 26       		.uleb128 0x26
 7531 13db 01       		.uleb128 0x1
 7532 13dc 50       		.byte	0x50
 7533 13dd 02       		.uleb128 0x2
 7534 13de 74       		.byte	0x74
 7535 13df 00       		.sleb128 0
 7536 13e0 00       		.byte	0
 7537 13e1 25       		.uleb128 0x25
 7538 13e2 4C000000 		.4byte	.LVL48
 7539 13e6 AE370000 		.4byte	0x37ae
 7540 13ea 26       		.uleb128 0x26
 7541 13eb 01       		.uleb128 0x1
 7542 13ec 50       		.byte	0x50
 7543 13ed 02       		.uleb128 0x2
 7544 13ee 74       		.byte	0x74
 7545 13ef 00       		.sleb128 0
 7546 13f0 00       		.byte	0
 7547 13f1 00       		.byte	0
 7548 13f2 23       		.uleb128 0x23
 7549 13f3 8A350000 		.4byte	0x358a
 7550 13f7 64000000 		.4byte	.LBI498
 7551 13fb 01       		.byte	.LVU213
 7552 13fc D8010000 		.4byte	.Ldebug_ranges0+0x1d8
 7553 1400 01       		.byte	0x1
 7554 1401 8803     		.2byte	0x388
 7555 1403 05       		.byte	0x5
 7556 1404 32140000 		.4byte	0x1432
 7557 1408 24       		.uleb128 0x24
 7558 1409 98350000 		.4byte	0x3598
 7559 140d 50030000 		.4byte	.LLST33
 7560 1411 4E030000 		.4byte	.LVUS33
 7561 1415 25       		.uleb128 0x25
 7562 1416 68000000 		.4byte	.LVL52
 7563 141a 7D370000 		.4byte	0x377d
 7564 141e 26       		.uleb128 0x26
 7565 141f 01       		.uleb128 0x1
 7566 1420 50       		.byte	0x50
 7567 1421 05       		.uleb128 0x5
 7568 1422 03       		.byte	0x3
 7569 1423 10000000 		.4byte	.LC1
 7570 1427 26       		.uleb128 0x26
 7571 1428 01       		.uleb128 0x1
 7572 1429 51       		.byte	0x51
 7573 142a 05       		.uleb128 0x5
 7574 142b 03       		.byte	0x3
 7575 142c 00000000 		.4byte	.LC13
 7576 1430 00       		.byte	0
 7577 1431 00       		.byte	0
 7578 1432 27       		.uleb128 0x27
 7579 1433 A6350000 		.4byte	0x35a6
 7580 1437 68000000 		.4byte	.LBI502
 7581 143b 02       		.byte	.LVU217
 7582 143c 68000000 		.4byte	.LBB502
 7583 1440 08000000 		.4byte	.LBE502-.LBB502
ARM GAS  /tmp/ccuqlnP4.s 			page 136


 7584 1444 01       		.byte	0x1
 7585 1445 8903     		.2byte	0x389
 7586 1447 05       		.byte	0x5
 7587 1448 75140000 		.4byte	0x1475
 7588 144c 24       		.uleb128 0x24
 7589 144d B4350000 		.4byte	0x35b4
 7590 1451 6E030000 		.4byte	.LLST34
 7591 1455 68030000 		.4byte	.LVUS34
 7592 1459 25       		.uleb128 0x25
 7593 145a 70000000 		.4byte	.LVL54
 7594 145e 7D370000 		.4byte	0x377d
 7595 1462 26       		.uleb128 0x26
 7596 1463 01       		.uleb128 0x1
 7597 1464 50       		.byte	0x50
 7598 1465 05       		.uleb128 0x5
 7599 1466 03       		.byte	0x3
 7600 1467 14000000 		.4byte	.LC2
 7601 146b 26       		.uleb128 0x26
 7602 146c 01       		.uleb128 0x1
 7603 146d 51       		.byte	0x51
 7604 146e 04       		.uleb128 0x4
 7605 146f 75       		.byte	0x75
 7606 1470 00       		.sleb128 0
 7607 1471 32       		.byte	0x32
 7608 1472 24       		.byte	0x24
 7609 1473 00       		.byte	0
 7610 1474 00       		.byte	0
 7611 1475 28       		.uleb128 0x28
 7612 1476 6E350000 		.4byte	0x356e
 7613 147a 70000000 		.4byte	.LBI504
 7614 147e 02       		.byte	.LVU222
 7615 147f F0010000 		.4byte	.Ldebug_ranges0+0x1f0
 7616 1483 01       		.byte	0x1
 7617 1484 8A03     		.2byte	0x38a
 7618 1486 05       		.byte	0x5
 7619 1487 29       		.uleb128 0x29
 7620 1488 7C350000 		.4byte	0x357c
 7621 148c 06       		.uleb128 0x6
 7622 148d 03       		.byte	0x3
 7623 148e 10000000 		.4byte	.LC14
 7624 1492 9F       		.byte	0x9f
 7625 1493 2A       		.uleb128 0x2a
 7626 1494 7C000000 		.4byte	.LVL56
 7627 1498 7D370000 		.4byte	0x377d
 7628 149c 26       		.uleb128 0x26
 7629 149d 01       		.uleb128 0x1
 7630 149e 50       		.byte	0x50
 7631 149f 05       		.uleb128 0x5
 7632 14a0 03       		.byte	0x3
 7633 14a1 20000000 		.4byte	.LC4
 7634 14a5 26       		.uleb128 0x26
 7635 14a6 01       		.uleb128 0x1
 7636 14a7 51       		.byte	0x51
 7637 14a8 05       		.uleb128 0x5
 7638 14a9 03       		.byte	0x3
 7639 14aa 10000000 		.4byte	.LC14
 7640 14ae 00       		.byte	0
ARM GAS  /tmp/ccuqlnP4.s 			page 137


 7641 14af 00       		.byte	0
 7642 14b0 00       		.byte	0
 7643 14b1 22       		.uleb128 0x22
 7644 14b2 0A060000 		.4byte	.LASF158
 7645 14b6 01       		.byte	0x1
 7646 14b7 6403     		.2byte	0x364
 7647 14b9 0D       		.byte	0xd
 7648 14ba 00000000 		.4byte	.LFB423
 7649 14be 0C000000 		.4byte	.LFE423-.LFB423
 7650 14c2 01       		.uleb128 0x1
 7651 14c3 9C       		.byte	0x9c
 7652 14c4 DC140000 		.4byte	0x14dc
 7653 14c8 2A       		.uleb128 0x2a
 7654 14c9 06000000 		.4byte	.LVL57
 7655 14cd BA370000 		.4byte	0x37ba
 7656 14d1 26       		.uleb128 0x26
 7657 14d2 01       		.uleb128 0x1
 7658 14d3 50       		.byte	0x50
 7659 14d4 05       		.uleb128 0x5
 7660 14d5 03       		.byte	0x3
 7661 14d6 00000000 		.4byte	.LANCHOR0
 7662 14da 00       		.byte	0
 7663 14db 00       		.byte	0
 7664 14dc 22       		.uleb128 0x22
 7665 14dd 9C070000 		.4byte	.LASF159
 7666 14e1 01       		.byte	0x1
 7667 14e2 1E03     		.2byte	0x31e
 7668 14e4 0D       		.byte	0xd
 7669 14e5 00000000 		.4byte	.LFB422
 7670 14e9 98000000 		.4byte	.LFE422-.LFB422
 7671 14ed 01       		.uleb128 0x1
 7672 14ee 9C       		.byte	0x9c
 7673 14ef 31170000 		.4byte	0x1731
 7674 14f3 2B       		.uleb128 0x2b
 7675 14f4 6E00     		.ascii	"n\000"
 7676 14f6 01       		.byte	0x1
 7677 14f7 1F03     		.2byte	0x31f
 7678 14f9 0C       		.byte	0xc
 7679 14fa CB000000 		.4byte	0xcb
 7680 14fe A3030000 		.4byte	.LLST36
 7681 1502 9F030000 		.4byte	.LVUS36
 7682 1506 2C       		.uleb128 0x2c
 7683 1507 48020000 		.4byte	.Ldebug_ranges0+0x248
 7684 150b 72160000 		.4byte	0x1672
 7685 150f 2D       		.uleb128 0x2d
 7686 1510 BA0A0000 		.4byte	.LASF157
 7687 1514 01       		.byte	0x1
 7688 1515 2503     		.2byte	0x325
 7689 1517 0F       		.byte	0xf
 7690 1518 4B030000 		.4byte	0x34b
 7691 151c C6030000 		.4byte	.LLST37
 7692 1520 C2030000 		.4byte	.LVUS37
 7693 1524 2B       		.uleb128 0x2b
 7694 1525 656E6400 		.ascii	"end\000"
 7695 1529 01       		.byte	0x1
 7696 152a 2503     		.2byte	0x325
 7697 152c 16       		.byte	0x16
ARM GAS  /tmp/ccuqlnP4.s 			page 138


 7698 152d 4B030000 		.4byte	0x34b
 7699 1531 E8030000 		.4byte	.LLST38
 7700 1535 E4030000 		.4byte	.LVUS38
 7701 1539 23       		.uleb128 0x23
 7702 153a 6B360000 		.4byte	0x366b
 7703 153e 58000000 		.4byte	.LBI521
 7704 1542 01       		.byte	.LVU282
 7705 1543 78020000 		.4byte	.Ldebug_ranges0+0x278
 7706 1547 01       		.byte	0x1
 7707 1548 3703     		.2byte	0x337
 7708 154a 0E       		.byte	0xe
 7709 154b CC150000 		.4byte	0x15cc
 7710 154f 24       		.uleb128 0x24
 7711 1550 88360000 		.4byte	0x3688
 7712 1554 10040000 		.4byte	.LLST39
 7713 1558 0E040000 		.4byte	.LVUS39
 7714 155c 24       		.uleb128 0x24
 7715 155d 7C360000 		.4byte	0x367c
 7716 1561 29040000 		.4byte	.LLST40
 7717 1565 27040000 		.4byte	.LVUS40
 7718 1569 2E       		.uleb128 0x2e
 7719 156a 95360000 		.4byte	0x3695
 7720 156e 58000000 		.4byte	.LBI522
 7721 1572 03       		.byte	.LVU284
 7722 1573 A0020000 		.4byte	.Ldebug_ranges0+0x2a0
 7723 1577 05       		.byte	0x5
 7724 1578 B3       		.byte	0xb3
 7725 1579 0A       		.byte	0xa
 7726 157a 9A150000 		.4byte	0x159a
 7727 157e 2F       		.uleb128 0x2f
 7728 157f D9360000 		.4byte	0x36d9
 7729 1583 58000000 		.4byte	.LBI523
 7730 1587 05       		.byte	.LVU286
 7731 1588 C0020000 		.4byte	.Ldebug_ranges0+0x2c0
 7732 158c 05       		.byte	0x5
 7733 158d 7F       		.byte	0x7f
 7734 158e 0A       		.byte	0xa
 7735 158f 30       		.uleb128 0x30
 7736 1590 50000000 		.4byte	.LVL73
 7737 1594 8A370000 		.4byte	0x378a
 7738 1598 00       		.byte	0
 7739 1599 00       		.byte	0
 7740 159a 2F       		.uleb128 0x2f
 7741 159b 16370000 		.4byte	0x3716
 7742 159f 58000000 		.4byte	.LBI527
 7743 15a3 08       		.byte	.LVU289
 7744 15a4 D8020000 		.4byte	.Ldebug_ranges0+0x2d8
 7745 15a8 05       		.byte	0x5
 7746 15a9 B3       		.byte	0xb3
 7747 15aa 0A       		.byte	0xa
 7748 15ab 24       		.uleb128 0x24
 7749 15ac 42370000 		.4byte	0x3742
 7750 15b0 3E040000 		.4byte	.LLST41
 7751 15b4 3C040000 		.4byte	.LVUS41
 7752 15b8 24       		.uleb128 0x24
 7753 15b9 35370000 		.4byte	0x3735
 7754 15bd 57040000 		.4byte	.LLST42
ARM GAS  /tmp/ccuqlnP4.s 			page 139


 7755 15c1 55040000 		.4byte	.LVUS42
 7756 15c5 31       		.uleb128 0x31
 7757 15c6 28370000 		.4byte	0x3728
 7758 15ca 00       		.byte	0
 7759 15cb 00       		.byte	0
 7760 15cc 30       		.uleb128 0x30
 7761 15cd 14000000 		.4byte	.LVL62
 7762 15d1 96370000 		.4byte	0x3796
 7763 15d5 32       		.uleb128 0x32
 7764 15d6 22000000 		.4byte	.LVL65
 7765 15da C6370000 		.4byte	0x37c6
 7766 15de E9150000 		.4byte	0x15e9
 7767 15e2 26       		.uleb128 0x26
 7768 15e3 01       		.uleb128 0x1
 7769 15e4 50       		.byte	0x50
 7770 15e5 02       		.uleb128 0x2
 7771 15e6 74       		.byte	0x74
 7772 15e7 00       		.sleb128 0
 7773 15e8 00       		.byte	0
 7774 15e9 32       		.uleb128 0x32
 7775 15ea 28000000 		.4byte	.LVL66
 7776 15ee D2370000 		.4byte	0x37d2
 7777 15f2 FD150000 		.4byte	0x15fd
 7778 15f6 26       		.uleb128 0x26
 7779 15f7 01       		.uleb128 0x1
 7780 15f8 50       		.byte	0x50
 7781 15f9 02       		.uleb128 0x2
 7782 15fa 74       		.byte	0x74
 7783 15fb 00       		.sleb128 0
 7784 15fc 00       		.byte	0
 7785 15fd 32       		.uleb128 0x32
 7786 15fe 2E000000 		.4byte	.LVL67
 7787 1602 C6370000 		.4byte	0x37c6
 7788 1606 11160000 		.4byte	0x1611
 7789 160a 26       		.uleb128 0x26
 7790 160b 01       		.uleb128 0x1
 7791 160c 50       		.byte	0x50
 7792 160d 02       		.uleb128 0x2
 7793 160e 74       		.byte	0x74
 7794 160f 00       		.sleb128 0
 7795 1610 00       		.byte	0
 7796 1611 32       		.uleb128 0x32
 7797 1612 34000000 		.4byte	.LVL68
 7798 1616 D2370000 		.4byte	0x37d2
 7799 161a 25160000 		.4byte	0x1625
 7800 161e 26       		.uleb128 0x26
 7801 161f 01       		.uleb128 0x1
 7802 1620 50       		.byte	0x50
 7803 1621 02       		.uleb128 0x2
 7804 1622 74       		.byte	0x74
 7805 1623 00       		.sleb128 0
 7806 1624 00       		.byte	0
 7807 1625 32       		.uleb128 0x32
 7808 1626 3A000000 		.4byte	.LVL69
 7809 162a C6370000 		.4byte	0x37c6
 7810 162e 39160000 		.4byte	0x1639
 7811 1632 26       		.uleb128 0x26
ARM GAS  /tmp/ccuqlnP4.s 			page 140


 7812 1633 01       		.uleb128 0x1
 7813 1634 50       		.byte	0x50
 7814 1635 02       		.uleb128 0x2
 7815 1636 74       		.byte	0x74
 7816 1637 00       		.sleb128 0
 7817 1638 00       		.byte	0
 7818 1639 32       		.uleb128 0x32
 7819 163a 40000000 		.4byte	.LVL70
 7820 163e D2370000 		.4byte	0x37d2
 7821 1642 4D160000 		.4byte	0x164d
 7822 1646 26       		.uleb128 0x26
 7823 1647 01       		.uleb128 0x1
 7824 1648 50       		.byte	0x50
 7825 1649 02       		.uleb128 0x2
 7826 164a 74       		.byte	0x74
 7827 164b 00       		.sleb128 0
 7828 164c 00       		.byte	0
 7829 164d 32       		.uleb128 0x32
 7830 164e 46000000 		.4byte	.LVL71
 7831 1652 C6370000 		.4byte	0x37c6
 7832 1656 61160000 		.4byte	0x1661
 7833 165a 26       		.uleb128 0x26
 7834 165b 01       		.uleb128 0x1
 7835 165c 50       		.byte	0x50
 7836 165d 02       		.uleb128 0x2
 7837 165e 74       		.byte	0x74
 7838 165f 00       		.sleb128 0
 7839 1660 00       		.byte	0
 7840 1661 25       		.uleb128 0x25
 7841 1662 4C000000 		.4byte	.LVL72
 7842 1666 D2370000 		.4byte	0x37d2
 7843 166a 26       		.uleb128 0x26
 7844 166b 01       		.uleb128 0x1
 7845 166c 50       		.byte	0x50
 7846 166d 02       		.uleb128 0x2
 7847 166e 74       		.byte	0x74
 7848 166f 00       		.sleb128 0
 7849 1670 00       		.byte	0
 7850 1671 00       		.byte	0
 7851 1672 23       		.uleb128 0x23
 7852 1673 8A350000 		.4byte	0x358a
 7853 1677 64000000 		.4byte	.LBI540
 7854 167b 01       		.byte	.LVU299
 7855 167c F0020000 		.4byte	.Ldebug_ranges0+0x2f0
 7856 1680 01       		.byte	0x1
 7857 1681 3E03     		.2byte	0x33e
 7858 1683 05       		.byte	0x5
 7859 1684 B2160000 		.4byte	0x16b2
 7860 1688 24       		.uleb128 0x24
 7861 1689 98350000 		.4byte	0x3598
 7862 168d 6C040000 		.4byte	.LLST43
 7863 1691 6A040000 		.4byte	.LVUS43
 7864 1695 25       		.uleb128 0x25
 7865 1696 68000000 		.4byte	.LVL76
 7866 169a 7D370000 		.4byte	0x377d
 7867 169e 26       		.uleb128 0x26
 7868 169f 01       		.uleb128 0x1
ARM GAS  /tmp/ccuqlnP4.s 			page 141


 7869 16a0 50       		.byte	0x50
 7870 16a1 05       		.uleb128 0x5
 7871 16a2 03       		.byte	0x3
 7872 16a3 10000000 		.4byte	.LC1
 7873 16a7 26       		.uleb128 0x26
 7874 16a8 01       		.uleb128 0x1
 7875 16a9 51       		.byte	0x51
 7876 16aa 05       		.uleb128 0x5
 7877 16ab 03       		.byte	0x3
 7878 16ac 00000000 		.4byte	.LC13
 7879 16b0 00       		.byte	0
 7880 16b1 00       		.byte	0
 7881 16b2 27       		.uleb128 0x27
 7882 16b3 A6350000 		.4byte	0x35a6
 7883 16b7 68000000 		.4byte	.LBI544
 7884 16bb 02       		.byte	.LVU303
 7885 16bc 68000000 		.4byte	.LBB544
 7886 16c0 08000000 		.4byte	.LBE544-.LBB544
 7887 16c4 01       		.byte	0x1
 7888 16c5 3F03     		.2byte	0x33f
 7889 16c7 05       		.byte	0x5
 7890 16c8 F5160000 		.4byte	0x16f5
 7891 16cc 24       		.uleb128 0x24
 7892 16cd B4350000 		.4byte	0x35b4
 7893 16d1 8A040000 		.4byte	.LLST44
 7894 16d5 84040000 		.4byte	.LVUS44
 7895 16d9 25       		.uleb128 0x25
 7896 16da 70000000 		.4byte	.LVL78
 7897 16de 7D370000 		.4byte	0x377d
 7898 16e2 26       		.uleb128 0x26
 7899 16e3 01       		.uleb128 0x1
 7900 16e4 50       		.byte	0x50
 7901 16e5 05       		.uleb128 0x5
 7902 16e6 03       		.byte	0x3
 7903 16e7 14000000 		.4byte	.LC2
 7904 16eb 26       		.uleb128 0x26
 7905 16ec 01       		.uleb128 0x1
 7906 16ed 51       		.byte	0x51
 7907 16ee 04       		.uleb128 0x4
 7908 16ef 75       		.byte	0x75
 7909 16f0 00       		.sleb128 0
 7910 16f1 32       		.byte	0x32
 7911 16f2 24       		.byte	0x24
 7912 16f3 00       		.byte	0
 7913 16f4 00       		.byte	0
 7914 16f5 28       		.uleb128 0x28
 7915 16f6 6E350000 		.4byte	0x356e
 7916 16fa 70000000 		.4byte	.LBI546
 7917 16fe 02       		.byte	.LVU308
 7918 16ff 08030000 		.4byte	.Ldebug_ranges0+0x308
 7919 1703 01       		.byte	0x1
 7920 1704 4003     		.2byte	0x340
 7921 1706 05       		.byte	0x5
 7922 1707 29       		.uleb128 0x29
 7923 1708 7C350000 		.4byte	0x357c
 7924 170c 06       		.uleb128 0x6
 7925 170d 03       		.byte	0x3
ARM GAS  /tmp/ccuqlnP4.s 			page 142


 7926 170e 00000000 		.4byte	.LC15
 7927 1712 9F       		.byte	0x9f
 7928 1713 2A       		.uleb128 0x2a
 7929 1714 7C000000 		.4byte	.LVL80
 7930 1718 7D370000 		.4byte	0x377d
 7931 171c 26       		.uleb128 0x26
 7932 171d 01       		.uleb128 0x1
 7933 171e 50       		.byte	0x50
 7934 171f 05       		.uleb128 0x5
 7935 1720 03       		.byte	0x3
 7936 1721 20000000 		.4byte	.LC4
 7937 1725 26       		.uleb128 0x26
 7938 1726 01       		.uleb128 0x1
 7939 1727 51       		.byte	0x51
 7940 1728 05       		.uleb128 0x5
 7941 1729 03       		.byte	0x3
 7942 172a 00000000 		.4byte	.LC15
 7943 172e 00       		.byte	0
 7944 172f 00       		.byte	0
 7945 1730 00       		.byte	0
 7946 1731 22       		.uleb128 0x22
 7947 1732 34020000 		.4byte	.LASF160
 7948 1736 01       		.byte	0x1
 7949 1737 1A03     		.2byte	0x31a
 7950 1739 0D       		.byte	0xd
 7951 173a 00000000 		.4byte	.LFB421
 7952 173e 0C000000 		.4byte	.LFE421-.LFB421
 7953 1742 01       		.uleb128 0x1
 7954 1743 9C       		.byte	0x9c
 7955 1744 61170000 		.4byte	0x1761
 7956 1748 2A       		.uleb128 0x2a
 7957 1749 08000000 		.4byte	.LVL81
 7958 174d DE370000 		.4byte	0x37de
 7959 1751 26       		.uleb128 0x26
 7960 1752 01       		.uleb128 0x1
 7961 1753 50       		.byte	0x50
 7962 1754 05       		.uleb128 0x5
 7963 1755 03       		.byte	0x3
 7964 1756 00000000 		.4byte	.LANCHOR1
 7965 175a 26       		.uleb128 0x26
 7966 175b 01       		.uleb128 0x1
 7967 175c 51       		.byte	0x51
 7968 175d 01       		.uleb128 0x1
 7969 175e 31       		.byte	0x31
 7970 175f 00       		.byte	0
 7971 1760 00       		.byte	0
 7972 1761 22       		.uleb128 0x22
 7973 1762 A20A0000 		.4byte	.LASF161
 7974 1766 01       		.byte	0x1
 7975 1767 D502     		.2byte	0x2d5
 7976 1769 0D       		.byte	0xd
 7977 176a 00000000 		.4byte	.LFB420
 7978 176e AC000000 		.4byte	.LFE420-.LFB420
 7979 1772 01       		.uleb128 0x1
 7980 1773 9C       		.byte	0x9c
 7981 1774 4E1A0000 		.4byte	0x1a4e
 7982 1778 33       		.uleb128 0x33
ARM GAS  /tmp/ccuqlnP4.s 			page 143


 7983 1779 76743100 		.ascii	"vt1\000"
 7984 177d 01       		.byte	0x1
 7985 177e D602     		.2byte	0x2d6
 7986 1780 1A       		.byte	0x1a
 7987 1781 0C050000 		.4byte	0x50c
 7988 1785 05       		.uleb128 0x5
 7989 1786 03       		.byte	0x3
 7990 1787 00000000 		.4byte	vt1.1
 7991 178b 33       		.uleb128 0x33
 7992 178c 76743200 		.ascii	"vt2\000"
 7993 1790 01       		.byte	0x1
 7994 1791 D602     		.2byte	0x2d6
 7995 1793 1F       		.byte	0x1f
 7996 1794 0C050000 		.4byte	0x50c
 7997 1798 05       		.uleb128 0x5
 7998 1799 03       		.byte	0x3
 7999 179a 00000000 		.4byte	vt2.0
 8000 179e 2B       		.uleb128 0x2b
 8001 179f 6E00     		.ascii	"n\000"
 8002 17a1 01       		.byte	0x1
 8003 17a2 D702     		.2byte	0x2d7
 8004 17a4 0C       		.byte	0xc
 8005 17a5 CB000000 		.4byte	0xcb
 8006 17a9 BF040000 		.4byte	.LLST45
 8007 17ad BB040000 		.4byte	.LVUS45
 8008 17b1 2C       		.uleb128 0x2c
 8009 17b2 20030000 		.4byte	.Ldebug_ranges0+0x320
 8010 17b6 8F190000 		.4byte	0x198f
 8011 17ba 2D       		.uleb128 0x2d
 8012 17bb BA0A0000 		.4byte	.LASF157
 8013 17bf 01       		.byte	0x1
 8014 17c0 DE02     		.2byte	0x2de
 8015 17c2 0F       		.byte	0xf
 8016 17c3 4B030000 		.4byte	0x34b
 8017 17c7 E2040000 		.4byte	.LLST46
 8018 17cb DE040000 		.4byte	.LVUS46
 8019 17cf 2B       		.uleb128 0x2b
 8020 17d0 656E6400 		.ascii	"end\000"
 8021 17d4 01       		.byte	0x1
 8022 17d5 DE02     		.2byte	0x2de
 8023 17d7 16       		.byte	0x16
 8024 17d8 4B030000 		.4byte	0x34b
 8025 17dc 04050000 		.4byte	.LLST47
 8026 17e0 00050000 		.4byte	.LVUS47
 8027 17e4 23       		.uleb128 0x23
 8028 17e5 CF360000 		.4byte	0x36cf
 8029 17e9 24000000 		.4byte	.LBI551
 8030 17ed 02       		.byte	.LVU338
 8031 17ee 70030000 		.4byte	.Ldebug_ranges0+0x370
 8032 17f2 01       		.byte	0x1
 8033 17f3 E402     		.2byte	0x2e4
 8034 17f5 07       		.byte	0x7
 8035 17f6 2E180000 		.4byte	0x182e
 8036 17fa 28       		.uleb128 0x28
 8037 17fb F0360000 		.4byte	0x36f0
 8038 17ff 24000000 		.4byte	.LBI552
 8039 1803 04       		.byte	.LVU340
ARM GAS  /tmp/ccuqlnP4.s 			page 144


 8040 1804 98030000 		.4byte	.Ldebug_ranges0+0x398
 8041 1808 08       		.byte	0x8
 8042 1809 9901     		.2byte	0x199
 8043 180b 03       		.byte	0x3
 8044 180c 28       		.uleb128 0x28
 8045 180d FA360000 		.4byte	0x36fa
 8046 1811 24000000 		.4byte	.LBI553
 8047 1815 06       		.byte	.LVU342
 8048 1816 B8030000 		.4byte	.Ldebug_ranges0+0x3b8
 8049 181a 09       		.byte	0x9
 8050 181b 2E03     		.2byte	0x32e
 8051 181d 03       		.byte	0x3
 8052 181e 24       		.uleb128 0x24
 8053 181f 08370000 		.4byte	0x3708
 8054 1823 2C050000 		.4byte	.LLST48
 8055 1827 2A050000 		.4byte	.LVUS48
 8056 182b 00       		.byte	0
 8057 182c 00       		.byte	0
 8058 182d 00       		.byte	0
 8059 182e 23       		.uleb128 0x23
 8060 182f A2360000 		.4byte	0x36a2
 8061 1833 4E000000 		.4byte	.LBI562
 8062 1837 01       		.byte	.LVU352
 8063 1838 D0030000 		.4byte	.Ldebug_ranges0+0x3d0
 8064 183c 01       		.byte	0x1
 8065 183d E902     		.2byte	0x2e9
 8066 183f 07       		.byte	0x7
 8067 1840 82180000 		.4byte	0x1882
 8068 1844 34       		.uleb128 0x34
 8069 1845 D0030000 		.4byte	.Ldebug_ranges0+0x3d0
 8070 1849 28       		.uleb128 0x28
 8071 184a E6360000 		.4byte	0x36e6
 8072 184e 4E000000 		.4byte	.LBI564
 8073 1852 08       		.byte	.LVU359
 8074 1853 D0030000 		.4byte	.Ldebug_ranges0+0x3d0
 8075 1857 08       		.byte	0x8
 8076 1858 B201     		.2byte	0x1b2
 8077 185a 03       		.byte	0x3
 8078 185b 35       		.uleb128 0x35
 8079 185c FA360000 		.4byte	0x36fa
 8080 1860 4E000000 		.4byte	.LBI565
 8081 1864 0A       		.byte	.LVU361
 8082 1865 4E000000 		.4byte	.LBB565
 8083 1869 04000000 		.4byte	.LBE565-.LBB565
 8084 186d 09       		.byte	0x9
 8085 186e 4103     		.2byte	0x341
 8086 1870 03       		.byte	0x3
 8087 1871 24       		.uleb128 0x24
 8088 1872 08370000 		.4byte	0x3708
 8089 1876 43050000 		.4byte	.LLST49
 8090 187a 41050000 		.4byte	.LVUS49
 8091 187e 00       		.byte	0
 8092 187f 00       		.byte	0
 8093 1880 00       		.byte	0
 8094 1881 00       		.byte	0
 8095 1882 23       		.uleb128 0x23
 8096 1883 6B360000 		.4byte	0x366b
ARM GAS  /tmp/ccuqlnP4.s 			page 145


 8097 1887 62000000 		.4byte	.LBI570
 8098 188b 01       		.byte	.LVU371
 8099 188c E8030000 		.4byte	.Ldebug_ranges0+0x3e8
 8100 1890 01       		.byte	0x1
 8101 1891 EE02     		.2byte	0x2ee
 8102 1893 0E       		.byte	0xe
 8103 1894 15190000 		.4byte	0x1915
 8104 1898 24       		.uleb128 0x24
 8105 1899 88360000 		.4byte	0x3688
 8106 189d 59050000 		.4byte	.LLST50
 8107 18a1 57050000 		.4byte	.LVUS50
 8108 18a5 24       		.uleb128 0x24
 8109 18a6 7C360000 		.4byte	0x367c
 8110 18aa 72050000 		.4byte	.LLST51
 8111 18ae 70050000 		.4byte	.LVUS51
 8112 18b2 2E       		.uleb128 0x2e
 8113 18b3 95360000 		.4byte	0x3695
 8114 18b7 62000000 		.4byte	.LBI571
 8115 18bb 03       		.byte	.LVU373
 8116 18bc 18040000 		.4byte	.Ldebug_ranges0+0x418
 8117 18c0 05       		.byte	0x5
 8118 18c1 B3       		.byte	0xb3
 8119 18c2 0A       		.byte	0xa
 8120 18c3 E3180000 		.4byte	0x18e3
 8121 18c7 2F       		.uleb128 0x2f
 8122 18c8 D9360000 		.4byte	0x36d9
 8123 18cc 62000000 		.4byte	.LBI572
 8124 18d0 05       		.byte	.LVU375
 8125 18d1 38040000 		.4byte	.Ldebug_ranges0+0x438
 8126 18d5 05       		.byte	0x5
 8127 18d6 7F       		.byte	0x7f
 8128 18d7 0A       		.byte	0xa
 8129 18d8 30       		.uleb128 0x30
 8130 18d9 56000000 		.4byte	.LVL93
 8131 18dd 8A370000 		.4byte	0x378a
 8132 18e1 00       		.byte	0
 8133 18e2 00       		.byte	0
 8134 18e3 2F       		.uleb128 0x2f
 8135 18e4 16370000 		.4byte	0x3716
 8136 18e8 62000000 		.4byte	.LBI576
 8137 18ec 08       		.byte	.LVU378
 8138 18ed 50040000 		.4byte	.Ldebug_ranges0+0x450
 8139 18f1 05       		.byte	0x5
 8140 18f2 B3       		.byte	0xb3
 8141 18f3 0A       		.byte	0xa
 8142 18f4 24       		.uleb128 0x24
 8143 18f5 42370000 		.4byte	0x3742
 8144 18f9 87050000 		.4byte	.LLST52
 8145 18fd 85050000 		.4byte	.LVUS52
 8146 1901 24       		.uleb128 0x24
 8147 1902 35370000 		.4byte	0x3735
 8148 1906 A0050000 		.4byte	.LLST53
 8149 190a 9E050000 		.4byte	.LVUS53
 8150 190e 31       		.uleb128 0x31
 8151 190f 28370000 		.4byte	0x3728
 8152 1913 00       		.byte	0
 8153 1914 00       		.byte	0
ARM GAS  /tmp/ccuqlnP4.s 			page 146


 8154 1915 30       		.uleb128 0x30
 8155 1916 1A000000 		.4byte	.LVL84
 8156 191a 96370000 		.4byte	0x3796
 8157 191e 32       		.uleb128 0x32
 8158 191f 34000000 		.4byte	.LVL88
 8159 1923 EA370000 		.4byte	0x37ea
 8160 1927 43190000 		.4byte	0x1943
 8161 192b 26       		.uleb128 0x26
 8162 192c 01       		.uleb128 0x1
 8163 192d 50       		.byte	0x50
 8164 192e 02       		.uleb128 0x2
 8165 192f 76       		.byte	0x76
 8166 1930 00       		.sleb128 0
 8167 1931 26       		.uleb128 0x26
 8168 1932 01       		.uleb128 0x1
 8169 1933 51       		.byte	0x51
 8170 1934 01       		.uleb128 0x1
 8171 1935 31       		.byte	0x31
 8172 1936 26       		.uleb128 0x26
 8173 1937 01       		.uleb128 0x1
 8174 1938 52       		.byte	0x52
 8175 1939 02       		.uleb128 0x2
 8176 193a 7B       		.byte	0x7b
 8177 193b 00       		.sleb128 0
 8178 193c 26       		.uleb128 0x26
 8179 193d 01       		.uleb128 0x1
 8180 193e 53       		.byte	0x53
 8181 193f 02       		.uleb128 0x2
 8182 1940 78       		.byte	0x78
 8183 1941 00       		.sleb128 0
 8184 1942 00       		.byte	0
 8185 1943 32       		.uleb128 0x32
 8186 1944 42000000 		.4byte	.LVL89
 8187 1948 EA370000 		.4byte	0x37ea
 8188 194c 6A190000 		.4byte	0x196a
 8189 1950 26       		.uleb128 0x26
 8190 1951 01       		.uleb128 0x1
 8191 1952 50       		.byte	0x50
 8192 1953 02       		.uleb128 0x2
 8193 1954 75       		.byte	0x75
 8194 1955 00       		.sleb128 0
 8195 1956 26       		.uleb128 0x26
 8196 1957 01       		.uleb128 0x1
 8197 1958 51       		.byte	0x51
 8198 1959 03       		.uleb128 0x3
 8199 195a 0A       		.byte	0xa
 8200 195b 1027     		.2byte	0x2710
 8201 195d 26       		.uleb128 0x26
 8202 195e 01       		.uleb128 0x1
 8203 195f 52       		.byte	0x52
 8204 1960 02       		.uleb128 0x2
 8205 1961 7B       		.byte	0x7b
 8206 1962 00       		.sleb128 0
 8207 1963 26       		.uleb128 0x26
 8208 1964 01       		.uleb128 0x1
 8209 1965 53       		.byte	0x53
 8210 1966 02       		.uleb128 0x2
ARM GAS  /tmp/ccuqlnP4.s 			page 147


 8211 1967 78       		.byte	0x78
 8212 1968 00       		.sleb128 0
 8213 1969 00       		.byte	0
 8214 196a 32       		.uleb128 0x32
 8215 196b 48000000 		.4byte	.LVL90
 8216 196f F6370000 		.4byte	0x37f6
 8217 1973 7E190000 		.4byte	0x197e
 8218 1977 26       		.uleb128 0x26
 8219 1978 01       		.uleb128 0x1
 8220 1979 50       		.byte	0x50
 8221 197a 02       		.uleb128 0x2
 8222 197b 76       		.byte	0x76
 8223 197c 00       		.sleb128 0
 8224 197d 00       		.byte	0
 8225 197e 25       		.uleb128 0x25
 8226 197f 4E000000 		.4byte	.LVL91
 8227 1983 F6370000 		.4byte	0x37f6
 8228 1987 26       		.uleb128 0x26
 8229 1988 01       		.uleb128 0x1
 8230 1989 50       		.byte	0x50
 8231 198a 02       		.uleb128 0x2
 8232 198b 75       		.byte	0x75
 8233 198c 00       		.sleb128 0
 8234 198d 00       		.byte	0
 8235 198e 00       		.byte	0
 8236 198f 23       		.uleb128 0x23
 8237 1990 8A350000 		.4byte	0x358a
 8238 1994 6E000000 		.4byte	.LBI594
 8239 1998 01       		.byte	.LVU388
 8240 1999 68040000 		.4byte	.Ldebug_ranges0+0x468
 8241 199d 01       		.byte	0x1
 8242 199e F502     		.2byte	0x2f5
 8243 19a0 05       		.byte	0x5
 8244 19a1 CF190000 		.4byte	0x19cf
 8245 19a5 24       		.uleb128 0x24
 8246 19a6 98350000 		.4byte	0x3598
 8247 19aa B5050000 		.4byte	.LLST54
 8248 19ae B3050000 		.4byte	.LVUS54
 8249 19b2 25       		.uleb128 0x25
 8250 19b3 72000000 		.4byte	.LVL96
 8251 19b7 7D370000 		.4byte	0x377d
 8252 19bb 26       		.uleb128 0x26
 8253 19bc 01       		.uleb128 0x1
 8254 19bd 50       		.byte	0x50
 8255 19be 05       		.uleb128 0x5
 8256 19bf 03       		.byte	0x3
 8257 19c0 10000000 		.4byte	.LC1
 8258 19c4 26       		.uleb128 0x26
 8259 19c5 01       		.uleb128 0x1
 8260 19c6 51       		.byte	0x51
 8261 19c7 05       		.uleb128 0x5
 8262 19c8 03       		.byte	0x3
 8263 19c9 00000000 		.4byte	.LC13
 8264 19cd 00       		.byte	0
 8265 19ce 00       		.byte	0
 8266 19cf 27       		.uleb128 0x27
 8267 19d0 A6350000 		.4byte	0x35a6
ARM GAS  /tmp/ccuqlnP4.s 			page 148


 8268 19d4 72000000 		.4byte	.LBI598
 8269 19d8 02       		.byte	.LVU392
 8270 19d9 72000000 		.4byte	.LBB598
 8271 19dd 08000000 		.4byte	.LBE598-.LBB598
 8272 19e1 01       		.byte	0x1
 8273 19e2 F602     		.2byte	0x2f6
 8274 19e4 05       		.byte	0x5
 8275 19e5 121A0000 		.4byte	0x1a12
 8276 19e9 24       		.uleb128 0x24
 8277 19ea B4350000 		.4byte	0x35b4
 8278 19ee D3050000 		.4byte	.LLST55
 8279 19f2 CD050000 		.4byte	.LVUS55
 8280 19f6 25       		.uleb128 0x25
 8281 19f7 7A000000 		.4byte	.LVL98
 8282 19fb 7D370000 		.4byte	0x377d
 8283 19ff 26       		.uleb128 0x26
 8284 1a00 01       		.uleb128 0x1
 8285 1a01 50       		.byte	0x50
 8286 1a02 05       		.uleb128 0x5
 8287 1a03 03       		.byte	0x3
 8288 1a04 14000000 		.4byte	.LC2
 8289 1a08 26       		.uleb128 0x26
 8290 1a09 01       		.uleb128 0x1
 8291 1a0a 51       		.byte	0x51
 8292 1a0b 04       		.uleb128 0x4
 8293 1a0c 74       		.byte	0x74
 8294 1a0d 00       		.sleb128 0
 8295 1a0e 31       		.byte	0x31
 8296 1a0f 24       		.byte	0x24
 8297 1a10 00       		.byte	0
 8298 1a11 00       		.byte	0
 8299 1a12 28       		.uleb128 0x28
 8300 1a13 6E350000 		.4byte	0x356e
 8301 1a17 7A000000 		.4byte	.LBI600
 8302 1a1b 02       		.byte	.LVU397
 8303 1a1c 80040000 		.4byte	.Ldebug_ranges0+0x480
 8304 1a20 01       		.byte	0x1
 8305 1a21 F702     		.2byte	0x2f7
 8306 1a23 05       		.byte	0x5
 8307 1a24 29       		.uleb128 0x29
 8308 1a25 7C350000 		.4byte	0x357c
 8309 1a29 06       		.uleb128 0x6
 8310 1a2a 03       		.byte	0x3
 8311 1a2b 00000000 		.4byte	.LC16
 8312 1a2f 9F       		.byte	0x9f
 8313 1a30 2A       		.uleb128 0x2a
 8314 1a31 86000000 		.4byte	.LVL100
 8315 1a35 7D370000 		.4byte	0x377d
 8316 1a39 26       		.uleb128 0x26
 8317 1a3a 01       		.uleb128 0x1
 8318 1a3b 50       		.byte	0x50
 8319 1a3c 05       		.uleb128 0x5
 8320 1a3d 03       		.byte	0x3
 8321 1a3e 20000000 		.4byte	.LC4
 8322 1a42 26       		.uleb128 0x26
 8323 1a43 01       		.uleb128 0x1
 8324 1a44 51       		.byte	0x51
ARM GAS  /tmp/ccuqlnP4.s 			page 149


 8325 1a45 05       		.uleb128 0x5
 8326 1a46 03       		.byte	0x3
 8327 1a47 00000000 		.4byte	.LC16
 8328 1a4b 00       		.byte	0
 8329 1a4c 00       		.byte	0
 8330 1a4d 00       		.byte	0
 8331 1a4e 22       		.uleb128 0x22
 8332 1a4f F5060000 		.4byte	.LASF162
 8333 1a53 01       		.byte	0x1
 8334 1a54 9902     		.2byte	0x299
 8335 1a56 0D       		.byte	0xd
 8336 1a57 00000000 		.4byte	.LFB419
 8337 1a5b 00010000 		.4byte	.LFE419-.LFB419
 8338 1a5f 01       		.uleb128 0x1
 8339 1a60 9C       		.byte	0x9c
 8340 1a61 0D1D0000 		.4byte	0x1d0d
 8341 1a65 33       		.uleb128 0x33
 8342 1a66 6E00     		.ascii	"n\000"
 8343 1a68 01       		.byte	0x1
 8344 1a69 9A02     		.2byte	0x29a
 8345 1a6b 0C       		.byte	0xc
 8346 1a6c CB000000 		.4byte	0xcb
 8347 1a70 02       		.uleb128 0x2
 8348 1a71 91       		.byte	0x91
 8349 1a72 5C       		.sleb128 -36
 8350 1a73 23       		.uleb128 0x23
 8351 1a74 4F360000 		.4byte	0x364f
 8352 1a78 22000000 		.4byte	.LBI604
 8353 1a7c 01       		.byte	.LVU417
 8354 1a7d 98040000 		.4byte	.Ldebug_ranges0+0x498
 8355 1a81 01       		.byte	0x1
 8356 1a82 A202     		.2byte	0x2a2
 8357 1a84 45       		.byte	0x45
 8358 1a85 9C1A0000 		.4byte	0x1a9c
 8359 1a89 36       		.uleb128 0x36
 8360 1a8a 5D360000 		.4byte	0x365d
 8361 1a8e 22000000 		.4byte	.LBI606
 8362 1a92 03       		.byte	.LVU419
 8363 1a93 B0040000 		.4byte	.Ldebug_ranges0+0x4b0
 8364 1a97 06       		.byte	0x6
 8365 1a98 6401     		.2byte	0x164
 8366 1a9a 0A       		.byte	0xa
 8367 1a9b 00       		.byte	0
 8368 1a9c 23       		.uleb128 0x23
 8369 1a9d 4F360000 		.4byte	0x364f
 8370 1aa1 40000000 		.4byte	.LBI612
 8371 1aa5 01       		.byte	.LVU426
 8372 1aa6 C8040000 		.4byte	.Ldebug_ranges0+0x4c8
 8373 1aaa 01       		.byte	0x1
 8374 1aab A402     		.2byte	0x2a4
 8375 1aad 34       		.byte	0x34
 8376 1aae C91A0000 		.4byte	0x1ac9
 8377 1ab2 37       		.uleb128 0x37
 8378 1ab3 5D360000 		.4byte	0x365d
 8379 1ab7 40000000 		.4byte	.LBI614
 8380 1abb 03       		.byte	.LVU428
 8381 1abc 40000000 		.4byte	.LBB614
ARM GAS  /tmp/ccuqlnP4.s 			page 150


 8382 1ac0 00000000 		.4byte	.LBE614-.LBB614
 8383 1ac4 06       		.byte	0x6
 8384 1ac5 6401     		.2byte	0x164
 8385 1ac7 0A       		.byte	0xa
 8386 1ac8 00       		.byte	0
 8387 1ac9 23       		.uleb128 0x23
 8388 1aca 4F360000 		.4byte	0x364f
 8389 1ace 58000000 		.4byte	.LBI618
 8390 1ad2 01       		.byte	.LVU434
 8391 1ad3 E0040000 		.4byte	.Ldebug_ranges0+0x4e0
 8392 1ad7 01       		.byte	0x1
 8393 1ad8 A502     		.2byte	0x2a5
 8394 1ada 34       		.byte	0x34
 8395 1adb F61A0000 		.4byte	0x1af6
 8396 1adf 37       		.uleb128 0x37
 8397 1ae0 5D360000 		.4byte	0x365d
 8398 1ae4 58000000 		.4byte	.LBI620
 8399 1ae8 03       		.byte	.LVU436
 8400 1ae9 58000000 		.4byte	.LBB620
 8401 1aed 00000000 		.4byte	.LBE620-.LBB620
 8402 1af1 06       		.byte	0x6
 8403 1af2 6401     		.2byte	0x164
 8404 1af4 0A       		.byte	0xa
 8405 1af5 00       		.byte	0
 8406 1af6 23       		.uleb128 0x23
 8407 1af7 4F360000 		.4byte	0x364f
 8408 1afb 70000000 		.4byte	.LBI624
 8409 1aff 01       		.byte	.LVU442
 8410 1b00 F8040000 		.4byte	.Ldebug_ranges0+0x4f8
 8411 1b04 01       		.byte	0x1
 8412 1b05 A602     		.2byte	0x2a6
 8413 1b07 34       		.byte	0x34
 8414 1b08 231B0000 		.4byte	0x1b23
 8415 1b0c 37       		.uleb128 0x37
 8416 1b0d 5D360000 		.4byte	0x365d
 8417 1b11 70000000 		.4byte	.LBI626
 8418 1b15 03       		.byte	.LVU444
 8419 1b16 70000000 		.4byte	.LBB626
 8420 1b1a 00000000 		.4byte	.LBE626-.LBB626
 8421 1b1e 06       		.byte	0x6
 8422 1b1f 6401     		.2byte	0x164
 8423 1b21 0A       		.byte	0xa
 8424 1b22 00       		.byte	0
 8425 1b23 23       		.uleb128 0x23
 8426 1b24 4F360000 		.4byte	0x364f
 8427 1b28 88000000 		.4byte	.LBI630
 8428 1b2c 01       		.byte	.LVU450
 8429 1b2d 10050000 		.4byte	.Ldebug_ranges0+0x510
 8430 1b31 01       		.byte	0x1
 8431 1b32 A702     		.2byte	0x2a7
 8432 1b34 34       		.byte	0x34
 8433 1b35 501B0000 		.4byte	0x1b50
 8434 1b39 37       		.uleb128 0x37
 8435 1b3a 5D360000 		.4byte	0x365d
 8436 1b3e 88000000 		.4byte	.LBI632
 8437 1b42 03       		.byte	.LVU452
 8438 1b43 88000000 		.4byte	.LBB632
ARM GAS  /tmp/ccuqlnP4.s 			page 151


 8439 1b47 00000000 		.4byte	.LBE632-.LBB632
 8440 1b4b 06       		.byte	0x6
 8441 1b4c 6401     		.2byte	0x164
 8442 1b4e 0A       		.byte	0xa
 8443 1b4f 00       		.byte	0
 8444 1b50 23       		.uleb128 0x23
 8445 1b51 8A350000 		.4byte	0x358a
 8446 1b55 BE000000 		.4byte	.LBI636
 8447 1b59 01       		.byte	.LVU471
 8448 1b5a 28050000 		.4byte	.Ldebug_ranges0+0x528
 8449 1b5e 01       		.byte	0x1
 8450 1b5f B702     		.2byte	0x2b7
 8451 1b61 05       		.byte	0x5
 8452 1b62 901B0000 		.4byte	0x1b90
 8453 1b66 24       		.uleb128 0x24
 8454 1b67 98350000 		.4byte	0x3598
 8455 1b6b 06060000 		.4byte	.LLST56
 8456 1b6f 04060000 		.4byte	.LVUS56
 8457 1b73 25       		.uleb128 0x25
 8458 1b74 C2000000 		.4byte	.LVL111
 8459 1b78 7D370000 		.4byte	0x377d
 8460 1b7c 26       		.uleb128 0x26
 8461 1b7d 01       		.uleb128 0x1
 8462 1b7e 50       		.byte	0x50
 8463 1b7f 05       		.uleb128 0x5
 8464 1b80 03       		.byte	0x3
 8465 1b81 10000000 		.4byte	.LC1
 8466 1b85 26       		.uleb128 0x26
 8467 1b86 01       		.uleb128 0x1
 8468 1b87 51       		.byte	0x51
 8469 1b88 05       		.uleb128 0x5
 8470 1b89 03       		.byte	0x3
 8471 1b8a 00000000 		.4byte	.LC13
 8472 1b8e 00       		.byte	0
 8473 1b8f 00       		.byte	0
 8474 1b90 27       		.uleb128 0x27
 8475 1b91 A6350000 		.4byte	0x35a6
 8476 1b95 C2000000 		.4byte	.LBI640
 8477 1b99 02       		.byte	.LVU475
 8478 1b9a C2000000 		.4byte	.LBB640
 8479 1b9e 08000000 		.4byte	.LBE640-.LBB640
 8480 1ba2 01       		.byte	0x1
 8481 1ba3 B802     		.2byte	0x2b8
 8482 1ba5 05       		.byte	0x5
 8483 1ba6 CB1B0000 		.4byte	0x1bcb
 8484 1baa 24       		.uleb128 0x24
 8485 1bab B4350000 		.4byte	0x35b4
 8486 1baf 20060000 		.4byte	.LLST57
 8487 1bb3 1E060000 		.4byte	.LVUS57
 8488 1bb7 25       		.uleb128 0x25
 8489 1bb8 CA000000 		.4byte	.LVL112
 8490 1bbc 7D370000 		.4byte	0x377d
 8491 1bc0 26       		.uleb128 0x26
 8492 1bc1 01       		.uleb128 0x1
 8493 1bc2 50       		.byte	0x50
 8494 1bc3 05       		.uleb128 0x5
 8495 1bc4 03       		.byte	0x3
ARM GAS  /tmp/ccuqlnP4.s 			page 152


 8496 1bc5 14000000 		.4byte	.LC2
 8497 1bc9 00       		.byte	0
 8498 1bca 00       		.byte	0
 8499 1bcb 27       		.uleb128 0x27
 8500 1bcc 6E350000 		.4byte	0x356e
 8501 1bd0 CA000000 		.4byte	.LBI642
 8502 1bd4 02       		.byte	.LVU479
 8503 1bd5 CA000000 		.4byte	.LBB642
 8504 1bd9 08000000 		.4byte	.LBE642-.LBB642
 8505 1bdd 01       		.byte	0x1
 8506 1bde B902     		.2byte	0x2b9
 8507 1be0 05       		.byte	0x5
 8508 1be1 0F1C0000 		.4byte	0x1c0f
 8509 1be5 24       		.uleb128 0x24
 8510 1be6 7C350000 		.4byte	0x357c
 8511 1bea 36060000 		.4byte	.LLST58
 8512 1bee 34060000 		.4byte	.LVUS58
 8513 1bf2 25       		.uleb128 0x25
 8514 1bf3 D2000000 		.4byte	.LVL113
 8515 1bf7 7D370000 		.4byte	0x377d
 8516 1bfb 26       		.uleb128 0x26
 8517 1bfc 01       		.uleb128 0x1
 8518 1bfd 50       		.byte	0x50
 8519 1bfe 05       		.uleb128 0x5
 8520 1bff 03       		.byte	0x3
 8521 1c00 20000000 		.4byte	.LC4
 8522 1c04 26       		.uleb128 0x26
 8523 1c05 01       		.uleb128 0x1
 8524 1c06 51       		.byte	0x51
 8525 1c07 05       		.uleb128 0x5
 8526 1c08 03       		.byte	0x3
 8527 1c09 00000000 		.4byte	.LC17
 8528 1c0d 00       		.byte	0
 8529 1c0e 00       		.byte	0
 8530 1c0f 30       		.uleb128 0x30
 8531 1c10 22000000 		.4byte	.LVL101
 8532 1c14 96370000 		.4byte	0x3796
 8533 1c18 32       		.uleb128 0x32
 8534 1c19 3A000000 		.4byte	.LVL102
 8535 1c1d 02380000 		.4byte	0x3802
 8536 1c21 411C0000 		.4byte	0x1c41
 8537 1c25 26       		.uleb128 0x26
 8538 1c26 01       		.uleb128 0x1
 8539 1c27 50       		.byte	0x50
 8540 1c28 03       		.uleb128 0x3
 8541 1c29 75       		.byte	0x75
 8542 1c2a 00       		.sleb128 0
 8543 1c2b 06       		.byte	0x6
 8544 1c2c 26       		.uleb128 0x26
 8545 1c2d 01       		.uleb128 0x1
 8546 1c2e 51       		.byte	0x51
 8547 1c2f 03       		.uleb128 0x3
 8548 1c30 0A       		.byte	0xa
 8549 1c31 7001     		.2byte	0x170
 8550 1c33 26       		.uleb128 0x26
 8551 1c34 01       		.uleb128 0x1
 8552 1c35 53       		.byte	0x53
ARM GAS  /tmp/ccuqlnP4.s 			page 153


 8553 1c36 02       		.uleb128 0x2
 8554 1c37 77       		.byte	0x77
 8555 1c38 00       		.sleb128 0
 8556 1c39 26       		.uleb128 0x26
 8557 1c3a 02       		.uleb128 0x2
 8558 1c3b 7D       		.byte	0x7d
 8559 1c3c 00       		.sleb128 0
 8560 1c3d 02       		.uleb128 0x2
 8561 1c3e 76       		.byte	0x76
 8562 1c3f 00       		.sleb128 0
 8563 1c40 00       		.byte	0
 8564 1c41 32       		.uleb128 0x32
 8565 1c42 52000000 		.4byte	.LVL103
 8566 1c46 02380000 		.4byte	0x3802
 8567 1c4a 6A1C0000 		.4byte	0x1c6a
 8568 1c4e 26       		.uleb128 0x26
 8569 1c4f 01       		.uleb128 0x1
 8570 1c50 50       		.byte	0x50
 8571 1c51 03       		.uleb128 0x3
 8572 1c52 75       		.byte	0x75
 8573 1c53 04       		.sleb128 4
 8574 1c54 06       		.byte	0x6
 8575 1c55 26       		.uleb128 0x26
 8576 1c56 01       		.uleb128 0x1
 8577 1c57 51       		.byte	0x51
 8578 1c58 03       		.uleb128 0x3
 8579 1c59 0A       		.byte	0xa
 8580 1c5a 7001     		.2byte	0x170
 8581 1c5c 26       		.uleb128 0x26
 8582 1c5d 01       		.uleb128 0x1
 8583 1c5e 53       		.byte	0x53
 8584 1c5f 02       		.uleb128 0x2
 8585 1c60 77       		.byte	0x77
 8586 1c61 00       		.sleb128 0
 8587 1c62 26       		.uleb128 0x26
 8588 1c63 02       		.uleb128 0x2
 8589 1c64 7D       		.byte	0x7d
 8590 1c65 00       		.sleb128 0
 8591 1c66 02       		.uleb128 0x2
 8592 1c67 76       		.byte	0x76
 8593 1c68 00       		.sleb128 0
 8594 1c69 00       		.byte	0
 8595 1c6a 32       		.uleb128 0x32
 8596 1c6b 6A000000 		.4byte	.LVL104
 8597 1c6f 02380000 		.4byte	0x3802
 8598 1c73 931C0000 		.4byte	0x1c93
 8599 1c77 26       		.uleb128 0x26
 8600 1c78 01       		.uleb128 0x1
 8601 1c79 50       		.byte	0x50
 8602 1c7a 03       		.uleb128 0x3
 8603 1c7b 75       		.byte	0x75
 8604 1c7c 08       		.sleb128 8
 8605 1c7d 06       		.byte	0x6
 8606 1c7e 26       		.uleb128 0x26
 8607 1c7f 01       		.uleb128 0x1
 8608 1c80 51       		.byte	0x51
 8609 1c81 03       		.uleb128 0x3
ARM GAS  /tmp/ccuqlnP4.s 			page 154


 8610 1c82 0A       		.byte	0xa
 8611 1c83 7001     		.2byte	0x170
 8612 1c85 26       		.uleb128 0x26
 8613 1c86 01       		.uleb128 0x1
 8614 1c87 53       		.byte	0x53
 8615 1c88 02       		.uleb128 0x2
 8616 1c89 77       		.byte	0x77
 8617 1c8a 00       		.sleb128 0
 8618 1c8b 26       		.uleb128 0x26
 8619 1c8c 02       		.uleb128 0x2
 8620 1c8d 7D       		.byte	0x7d
 8621 1c8e 00       		.sleb128 0
 8622 1c8f 02       		.uleb128 0x2
 8623 1c90 76       		.byte	0x76
 8624 1c91 00       		.sleb128 0
 8625 1c92 00       		.byte	0
 8626 1c93 32       		.uleb128 0x32
 8627 1c94 82000000 		.4byte	.LVL105
 8628 1c98 02380000 		.4byte	0x3802
 8629 1c9c BC1C0000 		.4byte	0x1cbc
 8630 1ca0 26       		.uleb128 0x26
 8631 1ca1 01       		.uleb128 0x1
 8632 1ca2 50       		.byte	0x50
 8633 1ca3 03       		.uleb128 0x3
 8634 1ca4 75       		.byte	0x75
 8635 1ca5 0C       		.sleb128 12
 8636 1ca6 06       		.byte	0x6
 8637 1ca7 26       		.uleb128 0x26
 8638 1ca8 01       		.uleb128 0x1
 8639 1ca9 51       		.byte	0x51
 8640 1caa 03       		.uleb128 0x3
 8641 1cab 0A       		.byte	0xa
 8642 1cac 7001     		.2byte	0x170
 8643 1cae 26       		.uleb128 0x26
 8644 1caf 01       		.uleb128 0x1
 8645 1cb0 53       		.byte	0x53
 8646 1cb1 02       		.uleb128 0x2
 8647 1cb2 77       		.byte	0x77
 8648 1cb3 00       		.sleb128 0
 8649 1cb4 26       		.uleb128 0x26
 8650 1cb5 02       		.uleb128 0x2
 8651 1cb6 7D       		.byte	0x7d
 8652 1cb7 00       		.sleb128 0
 8653 1cb8 02       		.uleb128 0x2
 8654 1cb9 76       		.byte	0x76
 8655 1cba 00       		.sleb128 0
 8656 1cbb 00       		.byte	0
 8657 1cbc 32       		.uleb128 0x32
 8658 1cbd 9A000000 		.4byte	.LVL106
 8659 1cc1 02380000 		.4byte	0x3802
 8660 1cc5 E51C0000 		.4byte	0x1ce5
 8661 1cc9 26       		.uleb128 0x26
 8662 1cca 01       		.uleb128 0x1
 8663 1ccb 50       		.byte	0x50
 8664 1ccc 03       		.uleb128 0x3
 8665 1ccd 75       		.byte	0x75
 8666 1cce 10       		.sleb128 16
ARM GAS  /tmp/ccuqlnP4.s 			page 155


 8667 1ccf 06       		.byte	0x6
 8668 1cd0 26       		.uleb128 0x26
 8669 1cd1 01       		.uleb128 0x1
 8670 1cd2 51       		.byte	0x51
 8671 1cd3 03       		.uleb128 0x3
 8672 1cd4 0A       		.byte	0xa
 8673 1cd5 7001     		.2byte	0x170
 8674 1cd7 26       		.uleb128 0x26
 8675 1cd8 01       		.uleb128 0x1
 8676 1cd9 53       		.byte	0x53
 8677 1cda 02       		.uleb128 0x2
 8678 1cdb 77       		.byte	0x77
 8679 1cdc 00       		.sleb128 0
 8680 1cdd 26       		.uleb128 0x26
 8681 1cde 02       		.uleb128 0x2
 8682 1cdf 7D       		.byte	0x7d
 8683 1ce0 00       		.sleb128 0
 8684 1ce1 02       		.uleb128 0x2
 8685 1ce2 76       		.byte	0x76
 8686 1ce3 00       		.sleb128 0
 8687 1ce4 00       		.byte	0
 8688 1ce5 32       		.uleb128 0x32
 8689 1ce6 AC000000 		.4byte	.LVL107
 8690 1cea 0F380000 		.4byte	0x380f
 8691 1cee FA1C0000 		.4byte	0x1cfa
 8692 1cf2 26       		.uleb128 0x26
 8693 1cf3 01       		.uleb128 0x1
 8694 1cf4 50       		.byte	0x50
 8695 1cf5 03       		.uleb128 0x3
 8696 1cf6 0A       		.byte	0xa
 8697 1cf7 1027     		.2byte	0x2710
 8698 1cf9 00       		.byte	0
 8699 1cfa 30       		.uleb128 0x30
 8700 1cfb B0000000 		.4byte	.LVL108
 8701 1cff 1C380000 		.4byte	0x381c
 8702 1d03 30       		.uleb128 0x30
 8703 1d04 B4000000 		.4byte	.LVL109
 8704 1d08 28380000 		.4byte	0x3828
 8705 1d0c 00       		.byte	0
 8706 1d0d 22       		.uleb128 0x22
 8707 1d0e A5030000 		.4byte	.LASF163
 8708 1d12 01       		.byte	0x1
 8709 1d13 4802     		.2byte	0x248
 8710 1d15 0D       		.byte	0xd
 8711 1d16 00000000 		.4byte	.LFB418
 8712 1d1a 38010000 		.4byte	.LFE418-.LFB418
 8713 1d1e 01       		.uleb128 0x1
 8714 1d1f 9C       		.byte	0x9c
 8715 1d20 A3210000 		.4byte	0x21a3
 8716 1d24 2B       		.uleb128 0x2b
 8717 1d25 6E00     		.ascii	"n\000"
 8718 1d27 01       		.byte	0x1
 8719 1d28 4902     		.2byte	0x249
 8720 1d2a 0C       		.byte	0xc
 8721 1d2b CB000000 		.4byte	0xcb
 8722 1d2f 52060000 		.4byte	.LLST60
 8723 1d33 4E060000 		.4byte	.LVUS60
ARM GAS  /tmp/ccuqlnP4.s 			page 156


 8724 1d37 2C       		.uleb128 0x2c
 8725 1d38 F0050000 		.4byte	.Ldebug_ranges0+0x5f0
 8726 1d3c 531E0000 		.4byte	0x1e53
 8727 1d40 2D       		.uleb128 0x2d
 8728 1d41 BA0A0000 		.4byte	.LASF157
 8729 1d45 01       		.byte	0x1
 8730 1d46 5B02     		.2byte	0x25b
 8731 1d48 0F       		.byte	0xf
 8732 1d49 4B030000 		.4byte	0x34b
 8733 1d4d 75060000 		.4byte	.LLST61
 8734 1d51 71060000 		.4byte	.LVUS61
 8735 1d55 2B       		.uleb128 0x2b
 8736 1d56 656E6400 		.ascii	"end\000"
 8737 1d5a 01       		.byte	0x1
 8738 1d5b 5B02     		.2byte	0x25b
 8739 1d5d 16       		.byte	0x16
 8740 1d5e 4B030000 		.4byte	0x34b
 8741 1d62 95060000 		.4byte	.LLST62
 8742 1d66 93060000 		.4byte	.LVUS62
 8743 1d6a 23       		.uleb128 0x23
 8744 1d6b 18360000 		.4byte	0x3618
 8745 1d6f 9A000000 		.4byte	.LBI685
 8746 1d73 05       		.byte	.LVU575
 8747 1d74 18060000 		.4byte	.Ldebug_ranges0+0x618
 8748 1d78 01       		.byte	0x1
 8749 1d79 6102     		.2byte	0x261
 8750 1d7b 07       		.byte	0x7
 8751 1d7c B61D0000 		.4byte	0x1db6
 8752 1d80 24       		.uleb128 0x24
 8753 1d81 30360000 		.4byte	0x3630
 8754 1d85 AE060000 		.4byte	.LLST63
 8755 1d89 AC060000 		.4byte	.LVUS63
 8756 1d8d 24       		.uleb128 0x24
 8757 1d8e 25360000 		.4byte	0x3625
 8758 1d92 C4060000 		.4byte	.LLST64
 8759 1d96 C2060000 		.4byte	.LVUS64
 8760 1d9a 25       		.uleb128 0x25
 8761 1d9b A6000000 		.4byte	.LVL129
 8762 1d9f 34380000 		.4byte	0x3834
 8763 1da3 26       		.uleb128 0x26
 8764 1da4 01       		.uleb128 0x1
 8765 1da5 50       		.byte	0x50
 8766 1da6 02       		.uleb128 0x2
 8767 1da7 76       		.byte	0x76
 8768 1da8 00       		.sleb128 0
 8769 1da9 26       		.uleb128 0x26
 8770 1daa 01       		.uleb128 0x1
 8771 1dab 51       		.byte	0x51
 8772 1dac 01       		.uleb128 0x1
 8773 1dad 30       		.byte	0x30
 8774 1dae 26       		.uleb128 0x26
 8775 1daf 01       		.uleb128 0x1
 8776 1db0 52       		.byte	0x52
 8777 1db1 02       		.uleb128 0x2
 8778 1db2 09       		.byte	0x9
 8779 1db3 FE       		.byte	0xfe
 8780 1db4 00       		.byte	0
ARM GAS  /tmp/ccuqlnP4.s 			page 157


 8781 1db5 00       		.byte	0
 8782 1db6 23       		.uleb128 0x23
 8783 1db7 6B360000 		.4byte	0x366b
 8784 1dbb B6000000 		.4byte	.LBI689
 8785 1dbf 01       		.byte	.LVU585
 8786 1dc0 30060000 		.4byte	.Ldebug_ranges0+0x630
 8787 1dc4 01       		.byte	0x1
 8788 1dc5 6602     		.2byte	0x266
 8789 1dc7 0E       		.byte	0xe
 8790 1dc8 491E0000 		.4byte	0x1e49
 8791 1dcc 24       		.uleb128 0x24
 8792 1dcd 88360000 		.4byte	0x3688
 8793 1dd1 DE060000 		.4byte	.LLST65
 8794 1dd5 DC060000 		.4byte	.LVUS65
 8795 1dd9 24       		.uleb128 0x24
 8796 1dda 7C360000 		.4byte	0x367c
 8797 1dde F7060000 		.4byte	.LLST66
 8798 1de2 F5060000 		.4byte	.LVUS66
 8799 1de6 2E       		.uleb128 0x2e
 8800 1de7 95360000 		.4byte	0x3695
 8801 1deb B6000000 		.4byte	.LBI690
 8802 1def 03       		.byte	.LVU587
 8803 1df0 60060000 		.4byte	.Ldebug_ranges0+0x660
 8804 1df4 05       		.byte	0x5
 8805 1df5 B3       		.byte	0xb3
 8806 1df6 0A       		.byte	0xa
 8807 1df7 171E0000 		.4byte	0x1e17
 8808 1dfb 2F       		.uleb128 0x2f
 8809 1dfc D9360000 		.4byte	0x36d9
 8810 1e00 B6000000 		.4byte	.LBI691
 8811 1e04 05       		.byte	.LVU589
 8812 1e05 80060000 		.4byte	.Ldebug_ranges0+0x680
 8813 1e09 05       		.byte	0x5
 8814 1e0a 7F       		.byte	0x7f
 8815 1e0b 0A       		.byte	0xa
 8816 1e0c 30       		.uleb128 0x30
 8817 1e0d AA000000 		.4byte	.LVL130
 8818 1e11 8A370000 		.4byte	0x378a
 8819 1e15 00       		.byte	0
 8820 1e16 00       		.byte	0
 8821 1e17 2F       		.uleb128 0x2f
 8822 1e18 16370000 		.4byte	0x3716
 8823 1e1c B6000000 		.4byte	.LBI695
 8824 1e20 08       		.byte	.LVU592
 8825 1e21 98060000 		.4byte	.Ldebug_ranges0+0x698
 8826 1e25 05       		.byte	0x5
 8827 1e26 B3       		.byte	0xb3
 8828 1e27 0A       		.byte	0xa
 8829 1e28 24       		.uleb128 0x24
 8830 1e29 42370000 		.4byte	0x3742
 8831 1e2d 0C070000 		.4byte	.LLST67
 8832 1e31 0A070000 		.4byte	.LVUS67
 8833 1e35 24       		.uleb128 0x24
 8834 1e36 35370000 		.4byte	0x3735
 8835 1e3a 25070000 		.4byte	.LLST68
 8836 1e3e 23070000 		.4byte	.LVUS68
 8837 1e42 31       		.uleb128 0x31
ARM GAS  /tmp/ccuqlnP4.s 			page 158


 8838 1e43 28370000 		.4byte	0x3728
 8839 1e47 00       		.byte	0
 8840 1e48 00       		.byte	0
 8841 1e49 30       		.uleb128 0x30
 8842 1e4a 96000000 		.4byte	.LVL127
 8843 1e4e 96370000 		.4byte	0x3796
 8844 1e52 00       		.byte	0
 8845 1e53 23       		.uleb128 0x23
 8846 1e54 4F360000 		.4byte	0x364f
 8847 1e58 26000000 		.4byte	.LBI650
 8848 1e5c 01       		.byte	.LVU520
 8849 1e5d 58050000 		.4byte	.Ldebug_ranges0+0x558
 8850 1e61 01       		.byte	0x1
 8851 1e62 4F02     		.2byte	0x24f
 8852 1e64 34       		.byte	0x34
 8853 1e65 7C1E0000 		.4byte	0x1e7c
 8854 1e69 36       		.uleb128 0x36
 8855 1e6a 5D360000 		.4byte	0x365d
 8856 1e6e 26000000 		.4byte	.LBI652
 8857 1e72 03       		.byte	.LVU522
 8858 1e73 78050000 		.4byte	.Ldebug_ranges0+0x578
 8859 1e77 06       		.byte	0x6
 8860 1e78 6401     		.2byte	0x164
 8861 1e7a 0A       		.byte	0xa
 8862 1e7b 00       		.byte	0
 8863 1e7c 23       		.uleb128 0x23
 8864 1e7d 4F360000 		.4byte	0x364f
 8865 1e81 3A000000 		.4byte	.LBI660
 8866 1e85 01       		.byte	.LVU530
 8867 1e86 90050000 		.4byte	.Ldebug_ranges0+0x590
 8868 1e8a 01       		.byte	0x1
 8869 1e8b 5002     		.2byte	0x250
 8870 1e8d 34       		.byte	0x34
 8871 1e8e A91E0000 		.4byte	0x1ea9
 8872 1e92 37       		.uleb128 0x37
 8873 1e93 5D360000 		.4byte	0x365d
 8874 1e97 3A000000 		.4byte	.LBI662
 8875 1e9b 03       		.byte	.LVU532
 8876 1e9c 3A000000 		.4byte	.LBB662
 8877 1ea0 00000000 		.4byte	.LBE662-.LBB662
 8878 1ea4 06       		.byte	0x6
 8879 1ea5 6401     		.2byte	0x164
 8880 1ea7 0A       		.byte	0xa
 8881 1ea8 00       		.byte	0
 8882 1ea9 23       		.uleb128 0x23
 8883 1eaa 4F360000 		.4byte	0x364f
 8884 1eae 4A000000 		.4byte	.LBI666
 8885 1eb2 01       		.byte	.LVU538
 8886 1eb3 A8050000 		.4byte	.Ldebug_ranges0+0x5a8
 8887 1eb7 01       		.byte	0x1
 8888 1eb8 5102     		.2byte	0x251
 8889 1eba 34       		.byte	0x34
 8890 1ebb D61E0000 		.4byte	0x1ed6
 8891 1ebf 37       		.uleb128 0x37
 8892 1ec0 5D360000 		.4byte	0x365d
 8893 1ec4 4A000000 		.4byte	.LBI668
 8894 1ec8 03       		.byte	.LVU540
ARM GAS  /tmp/ccuqlnP4.s 			page 159


 8895 1ec9 4A000000 		.4byte	.LBB668
 8896 1ecd 00000000 		.4byte	.LBE668-.LBB668
 8897 1ed1 06       		.byte	0x6
 8898 1ed2 6401     		.2byte	0x164
 8899 1ed4 0A       		.byte	0xa
 8900 1ed5 00       		.byte	0
 8901 1ed6 23       		.uleb128 0x23
 8902 1ed7 4F360000 		.4byte	0x364f
 8903 1edb 62000000 		.4byte	.LBI672
 8904 1edf 01       		.byte	.LVU546
 8905 1ee0 C0050000 		.4byte	.Ldebug_ranges0+0x5c0
 8906 1ee4 01       		.byte	0x1
 8907 1ee5 5202     		.2byte	0x252
 8908 1ee7 34       		.byte	0x34
 8909 1ee8 031F0000 		.4byte	0x1f03
 8910 1eec 37       		.uleb128 0x37
 8911 1eed 5D360000 		.4byte	0x365d
 8912 1ef1 62000000 		.4byte	.LBI674
 8913 1ef5 03       		.byte	.LVU548
 8914 1ef6 62000000 		.4byte	.LBB674
 8915 1efa 00000000 		.4byte	.LBE674-.LBB674
 8916 1efe 06       		.byte	0x6
 8917 1eff 6401     		.2byte	0x164
 8918 1f01 0A       		.byte	0xa
 8919 1f02 00       		.byte	0
 8920 1f03 23       		.uleb128 0x23
 8921 1f04 4F360000 		.4byte	0x364f
 8922 1f08 7A000000 		.4byte	.LBI678
 8923 1f0c 01       		.byte	.LVU554
 8924 1f0d D8050000 		.4byte	.Ldebug_ranges0+0x5d8
 8925 1f11 01       		.byte	0x1
 8926 1f12 5302     		.2byte	0x253
 8927 1f14 34       		.byte	0x34
 8928 1f15 301F0000 		.4byte	0x1f30
 8929 1f19 37       		.uleb128 0x37
 8930 1f1a 5D360000 		.4byte	0x365d
 8931 1f1e 7A000000 		.4byte	.LBI680
 8932 1f22 03       		.byte	.LVU556
 8933 1f23 7A000000 		.4byte	.LBB680
 8934 1f27 00000000 		.4byte	.LBE680-.LBB680
 8935 1f2b 06       		.byte	0x6
 8936 1f2c 6401     		.2byte	0x164
 8937 1f2e 0A       		.byte	0xa
 8938 1f2f 00       		.byte	0
 8939 1f30 27       		.uleb128 0x27
 8940 1f31 18360000 		.4byte	0x3618
 8941 1f35 C0000000 		.4byte	.LBI708
 8942 1f39 01       		.byte	.LVU601
 8943 1f3a C0000000 		.4byte	.LBB708
 8944 1f3e 0C000000 		.4byte	.LBE708-.LBB708
 8945 1f42 01       		.byte	0x1
 8946 1f43 6E02     		.2byte	0x26e
 8947 1f45 05       		.byte	0x5
 8948 1f46 801F0000 		.4byte	0x1f80
 8949 1f4a 24       		.uleb128 0x24
 8950 1f4b 30360000 		.4byte	0x3630
 8951 1f4f 3A070000 		.4byte	.LLST69
ARM GAS  /tmp/ccuqlnP4.s 			page 160


 8952 1f53 38070000 		.4byte	.LVUS69
 8953 1f57 24       		.uleb128 0x24
 8954 1f58 25360000 		.4byte	0x3625
 8955 1f5c 50070000 		.4byte	.LLST70
 8956 1f60 4E070000 		.4byte	.LVUS70
 8957 1f64 25       		.uleb128 0x25
 8958 1f65 CC000000 		.4byte	.LVL133
 8959 1f69 34380000 		.4byte	0x3834
 8960 1f6d 26       		.uleb128 0x26
 8961 1f6e 01       		.uleb128 0x1
 8962 1f6f 50       		.byte	0x50
 8963 1f70 02       		.uleb128 0x2
 8964 1f71 76       		.byte	0x76
 8965 1f72 00       		.sleb128 0
 8966 1f73 26       		.uleb128 0x26
 8967 1f74 01       		.uleb128 0x1
 8968 1f75 51       		.byte	0x51
 8969 1f76 01       		.uleb128 0x1
 8970 1f77 30       		.byte	0x30
 8971 1f78 26       		.uleb128 0x26
 8972 1f79 01       		.uleb128 0x1
 8973 1f7a 52       		.byte	0x52
 8974 1f7b 02       		.uleb128 0x2
 8975 1f7c 09       		.byte	0x9
 8976 1f7d FE       		.byte	0xfe
 8977 1f7e 00       		.byte	0
 8978 1f7f 00       		.byte	0
 8979 1f80 23       		.uleb128 0x23
 8980 1f81 8A350000 		.4byte	0x358a
 8981 1f85 D8000000 		.4byte	.LBI710
 8982 1f89 01       		.byte	.LVU611
 8983 1f8a B0060000 		.4byte	.Ldebug_ranges0+0x6b0
 8984 1f8e 01       		.byte	0x1
 8985 1f8f 7602     		.2byte	0x276
 8986 1f91 05       		.byte	0x5
 8987 1f92 C01F0000 		.4byte	0x1fc0
 8988 1f96 24       		.uleb128 0x24
 8989 1f97 98350000 		.4byte	0x3598
 8990 1f9b 6A070000 		.4byte	.LLST71
 8991 1f9f 68070000 		.4byte	.LVUS71
 8992 1fa3 25       		.uleb128 0x25
 8993 1fa4 DC000000 		.4byte	.LVL136
 8994 1fa8 7D370000 		.4byte	0x377d
 8995 1fac 26       		.uleb128 0x26
 8996 1fad 01       		.uleb128 0x1
 8997 1fae 50       		.byte	0x50
 8998 1faf 05       		.uleb128 0x5
 8999 1fb0 03       		.byte	0x3
 9000 1fb1 10000000 		.4byte	.LC1
 9001 1fb5 26       		.uleb128 0x26
 9002 1fb6 01       		.uleb128 0x1
 9003 1fb7 51       		.byte	0x51
 9004 1fb8 05       		.uleb128 0x5
 9005 1fb9 03       		.byte	0x3
 9006 1fba 00000000 		.4byte	.LC13
 9007 1fbe 00       		.byte	0
 9008 1fbf 00       		.byte	0
ARM GAS  /tmp/ccuqlnP4.s 			page 161


 9009 1fc0 27       		.uleb128 0x27
 9010 1fc1 A6350000 		.4byte	0x35a6
 9011 1fc5 DC000000 		.4byte	.LBI714
 9012 1fc9 02       		.byte	.LVU615
 9013 1fca DC000000 		.4byte	.LBB714
 9014 1fce 08000000 		.4byte	.LBE714-.LBB714
 9015 1fd2 01       		.byte	0x1
 9016 1fd3 7702     		.2byte	0x277
 9017 1fd5 05       		.byte	0x5
 9018 1fd6 01200000 		.4byte	0x2001
 9019 1fda 24       		.uleb128 0x24
 9020 1fdb B4350000 		.4byte	0x35b4
 9021 1fdf 84070000 		.4byte	.LLST72
 9022 1fe3 82070000 		.4byte	.LVUS72
 9023 1fe7 25       		.uleb128 0x25
 9024 1fe8 E4000000 		.4byte	.LVL137
 9025 1fec 7D370000 		.4byte	0x377d
 9026 1ff0 26       		.uleb128 0x26
 9027 1ff1 01       		.uleb128 0x1
 9028 1ff2 50       		.byte	0x50
 9029 1ff3 05       		.uleb128 0x5
 9030 1ff4 03       		.byte	0x3
 9031 1ff5 14000000 		.4byte	.LC2
 9032 1ff9 26       		.uleb128 0x26
 9033 1ffa 01       		.uleb128 0x1
 9034 1ffb 51       		.byte	0x51
 9035 1ffc 02       		.uleb128 0x2
 9036 1ffd 74       		.byte	0x74
 9037 1ffe 00       		.sleb128 0
 9038 1fff 00       		.byte	0
 9039 2000 00       		.byte	0
 9040 2001 23       		.uleb128 0x23
 9041 2002 8A350000 		.4byte	0x358a
 9042 2006 E4000000 		.4byte	.LBI716
 9043 200a 02       		.byte	.LVU619
 9044 200b C8060000 		.4byte	.Ldebug_ranges0+0x6c8
 9045 200f 01       		.byte	0x1
 9046 2010 7802     		.2byte	0x278
 9047 2012 05       		.byte	0x5
 9048 2013 41200000 		.4byte	0x2041
 9049 2017 24       		.uleb128 0x24
 9050 2018 98350000 		.4byte	0x3598
 9051 201c 99070000 		.4byte	.LLST73
 9052 2020 97070000 		.4byte	.LVUS73
 9053 2024 25       		.uleb128 0x25
 9054 2025 F0000000 		.4byte	.LVL139
 9055 2029 7D370000 		.4byte	0x377d
 9056 202d 26       		.uleb128 0x26
 9057 202e 01       		.uleb128 0x1
 9058 202f 50       		.byte	0x50
 9059 2030 05       		.uleb128 0x5
 9060 2031 03       		.byte	0x3
 9061 2032 10000000 		.4byte	.LC1
 9062 2036 26       		.uleb128 0x26
 9063 2037 01       		.uleb128 0x1
 9064 2038 51       		.byte	0x51
 9065 2039 05       		.uleb128 0x5
ARM GAS  /tmp/ccuqlnP4.s 			page 162


 9066 203a 03       		.byte	0x3
 9067 203b 00000000 		.4byte	.LC18
 9068 203f 00       		.byte	0
 9069 2040 00       		.byte	0
 9070 2041 27       		.uleb128 0x27
 9071 2042 A6350000 		.4byte	0x35a6
 9072 2046 F0000000 		.4byte	.LBI720
 9073 204a 02       		.byte	.LVU625
 9074 204b F0000000 		.4byte	.LBB720
 9075 204f 08000000 		.4byte	.LBE720-.LBB720
 9076 2053 01       		.byte	0x1
 9077 2054 7902     		.2byte	0x279
 9078 2056 05       		.byte	0x5
 9079 2057 7C200000 		.4byte	0x207c
 9080 205b 31       		.uleb128 0x31
 9081 205c B4350000 		.4byte	0x35b4
 9082 2060 25       		.uleb128 0x25
 9083 2061 F8000000 		.4byte	.LVL140
 9084 2065 7D370000 		.4byte	0x377d
 9085 2069 26       		.uleb128 0x26
 9086 206a 01       		.uleb128 0x1
 9087 206b 50       		.byte	0x50
 9088 206c 05       		.uleb128 0x5
 9089 206d 03       		.byte	0x3
 9090 206e 14000000 		.4byte	.LC2
 9091 2072 26       		.uleb128 0x26
 9092 2073 01       		.uleb128 0x1
 9093 2074 51       		.byte	0x51
 9094 2075 04       		.uleb128 0x4
 9095 2076 74       		.byte	0x74
 9096 2077 00       		.sleb128 0
 9097 2078 31       		.byte	0x31
 9098 2079 24       		.byte	0x24
 9099 207a 00       		.byte	0
 9100 207b 00       		.byte	0
 9101 207c 23       		.uleb128 0x23
 9102 207d 6E350000 		.4byte	0x356e
 9103 2081 F8000000 		.4byte	.LBI722
 9104 2085 01       		.byte	.LVU628
 9105 2086 E0060000 		.4byte	.Ldebug_ranges0+0x6e0
 9106 208a 01       		.byte	0x1
 9107 208b 7A02     		.2byte	0x27a
 9108 208d 05       		.byte	0x5
 9109 208e BB200000 		.4byte	0x20bb
 9110 2092 29       		.uleb128 0x29
 9111 2093 7C350000 		.4byte	0x357c
 9112 2097 06       		.uleb128 0x6
 9113 2098 03       		.byte	0x3
 9114 2099 00000000 		.4byte	.LC17
 9115 209d 9F       		.byte	0x9f
 9116 209e 2A       		.uleb128 0x2a
 9117 209f 06010000 		.4byte	.LVL142
 9118 20a3 7D370000 		.4byte	0x377d
 9119 20a7 26       		.uleb128 0x26
 9120 20a8 01       		.uleb128 0x1
 9121 20a9 50       		.byte	0x50
 9122 20aa 05       		.uleb128 0x5
ARM GAS  /tmp/ccuqlnP4.s 			page 163


 9123 20ab 03       		.byte	0x3
 9124 20ac 20000000 		.4byte	.LC4
 9125 20b0 26       		.uleb128 0x26
 9126 20b1 01       		.uleb128 0x1
 9127 20b2 51       		.byte	0x51
 9128 20b3 05       		.uleb128 0x5
 9129 20b4 03       		.byte	0x3
 9130 20b5 00000000 		.4byte	.LC17
 9131 20b9 00       		.byte	0
 9132 20ba 00       		.byte	0
 9133 20bb 32       		.uleb128 0x32
 9134 20bc 2A000000 		.4byte	.LVL121
 9135 20c0 02380000 		.4byte	0x3802
 9136 20c4 E7200000 		.4byte	0x20e7
 9137 20c8 26       		.uleb128 0x26
 9138 20c9 01       		.uleb128 0x1
 9139 20ca 50       		.byte	0x50
 9140 20cb 03       		.uleb128 0x3
 9141 20cc 76       		.byte	0x76
 9142 20cd 00       		.sleb128 0
 9143 20ce 06       		.byte	0x6
 9144 20cf 26       		.uleb128 0x26
 9145 20d0 01       		.uleb128 0x1
 9146 20d1 51       		.byte	0x51
 9147 20d2 03       		.uleb128 0x3
 9148 20d3 0A       		.byte	0xa
 9149 20d4 7001     		.2byte	0x170
 9150 20d6 26       		.uleb128 0x26
 9151 20d7 01       		.uleb128 0x1
 9152 20d8 53       		.byte	0x53
 9153 20d9 05       		.uleb128 0x5
 9154 20da 03       		.byte	0x3
 9155 20db 00000000 		.4byte	bmk_thread7
 9156 20df 26       		.uleb128 0x26
 9157 20e0 02       		.uleb128 0x2
 9158 20e1 7D       		.byte	0x7d
 9159 20e2 00       		.sleb128 0
 9160 20e3 02       		.uleb128 0x2
 9161 20e4 74       		.byte	0x74
 9162 20e5 00       		.sleb128 0
 9163 20e6 00       		.byte	0
 9164 20e7 32       		.uleb128 0x32
 9165 20e8 44000000 		.4byte	.LVL122
 9166 20ec 02380000 		.4byte	0x3802
 9167 20f0 0C210000 		.4byte	0x210c
 9168 20f4 26       		.uleb128 0x26
 9169 20f5 01       		.uleb128 0x1
 9170 20f6 50       		.byte	0x50
 9171 20f7 03       		.uleb128 0x3
 9172 20f8 76       		.byte	0x76
 9173 20f9 04       		.sleb128 4
 9174 20fa 06       		.byte	0x6
 9175 20fb 26       		.uleb128 0x26
 9176 20fc 01       		.uleb128 0x1
 9177 20fd 51       		.byte	0x51
 9178 20fe 03       		.uleb128 0x3
 9179 20ff 0A       		.byte	0xa
ARM GAS  /tmp/ccuqlnP4.s 			page 164


 9180 2100 7001     		.2byte	0x170
 9181 2102 26       		.uleb128 0x26
 9182 2103 01       		.uleb128 0x1
 9183 2104 53       		.byte	0x53
 9184 2105 05       		.uleb128 0x5
 9185 2106 03       		.byte	0x3
 9186 2107 00000000 		.4byte	bmk_thread7
 9187 210b 00       		.byte	0
 9188 210c 32       		.uleb128 0x32
 9189 210d 5C000000 		.4byte	.LVL123
 9190 2111 02380000 		.4byte	0x3802
 9191 2115 38210000 		.4byte	0x2138
 9192 2119 26       		.uleb128 0x26
 9193 211a 01       		.uleb128 0x1
 9194 211b 50       		.byte	0x50
 9195 211c 03       		.uleb128 0x3
 9196 211d 76       		.byte	0x76
 9197 211e 08       		.sleb128 8
 9198 211f 06       		.byte	0x6
 9199 2120 26       		.uleb128 0x26
 9200 2121 01       		.uleb128 0x1
 9201 2122 51       		.byte	0x51
 9202 2123 03       		.uleb128 0x3
 9203 2124 0A       		.byte	0xa
 9204 2125 7001     		.2byte	0x170
 9205 2127 26       		.uleb128 0x26
 9206 2128 01       		.uleb128 0x1
 9207 2129 53       		.byte	0x53
 9208 212a 05       		.uleb128 0x5
 9209 212b 03       		.byte	0x3
 9210 212c 00000000 		.4byte	bmk_thread7
 9211 2130 26       		.uleb128 0x26
 9212 2131 02       		.uleb128 0x2
 9213 2132 7D       		.byte	0x7d
 9214 2133 00       		.sleb128 0
 9215 2134 02       		.uleb128 0x2
 9216 2135 74       		.byte	0x74
 9217 2136 00       		.sleb128 0
 9218 2137 00       		.byte	0
 9219 2138 32       		.uleb128 0x32
 9220 2139 74000000 		.4byte	.LVL124
 9221 213d 02380000 		.4byte	0x3802
 9222 2141 64210000 		.4byte	0x2164
 9223 2145 26       		.uleb128 0x26
 9224 2146 01       		.uleb128 0x1
 9225 2147 50       		.byte	0x50
 9226 2148 03       		.uleb128 0x3
 9227 2149 76       		.byte	0x76
 9228 214a 0C       		.sleb128 12
 9229 214b 06       		.byte	0x6
 9230 214c 26       		.uleb128 0x26
 9231 214d 01       		.uleb128 0x1
 9232 214e 51       		.byte	0x51
 9233 214f 03       		.uleb128 0x3
 9234 2150 0A       		.byte	0xa
 9235 2151 7001     		.2byte	0x170
 9236 2153 26       		.uleb128 0x26
ARM GAS  /tmp/ccuqlnP4.s 			page 165


 9237 2154 01       		.uleb128 0x1
 9238 2155 53       		.byte	0x53
 9239 2156 05       		.uleb128 0x5
 9240 2157 03       		.byte	0x3
 9241 2158 00000000 		.4byte	bmk_thread7
 9242 215c 26       		.uleb128 0x26
 9243 215d 02       		.uleb128 0x2
 9244 215e 7D       		.byte	0x7d
 9245 215f 00       		.sleb128 0
 9246 2160 02       		.uleb128 0x2
 9247 2161 74       		.byte	0x74
 9248 2162 00       		.sleb128 0
 9249 2163 00       		.byte	0
 9250 2164 32       		.uleb128 0x32
 9251 2165 8C000000 		.4byte	.LVL125
 9252 2169 02380000 		.4byte	0x3802
 9253 216d 90210000 		.4byte	0x2190
 9254 2171 26       		.uleb128 0x26
 9255 2172 01       		.uleb128 0x1
 9256 2173 50       		.byte	0x50
 9257 2174 03       		.uleb128 0x3
 9258 2175 76       		.byte	0x76
 9259 2176 10       		.sleb128 16
 9260 2177 06       		.byte	0x6
 9261 2178 26       		.uleb128 0x26
 9262 2179 01       		.uleb128 0x1
 9263 217a 51       		.byte	0x51
 9264 217b 03       		.uleb128 0x3
 9265 217c 0A       		.byte	0xa
 9266 217d 7001     		.2byte	0x170
 9267 217f 26       		.uleb128 0x26
 9268 2180 01       		.uleb128 0x1
 9269 2181 53       		.byte	0x53
 9270 2182 05       		.uleb128 0x5
 9271 2183 03       		.byte	0x3
 9272 2184 00000000 		.4byte	bmk_thread7
 9273 2188 26       		.uleb128 0x26
 9274 2189 02       		.uleb128 0x2
 9275 218a 7D       		.byte	0x7d
 9276 218b 00       		.sleb128 0
 9277 218c 02       		.uleb128 0x2
 9278 218d 74       		.byte	0x74
 9279 218e 00       		.sleb128 0
 9280 218f 00       		.byte	0
 9281 2190 30       		.uleb128 0x30
 9282 2191 C0000000 		.4byte	.LVL132
 9283 2195 1C380000 		.4byte	0x381c
 9284 2199 30       		.uleb128 0x30
 9285 219a D0000000 		.4byte	.LVL134
 9286 219e 28380000 		.4byte	0x3828
 9287 21a2 00       		.byte	0
 9288 21a3 22       		.uleb128 0x22
 9289 21a4 A7020000 		.4byte	.LASF164
 9290 21a8 01       		.byte	0x1
 9291 21a9 4402     		.2byte	0x244
 9292 21ab 0D       		.byte	0xd
 9293 21ac 00000000 		.4byte	.LFB417
ARM GAS  /tmp/ccuqlnP4.s 			page 166


 9294 21b0 0C000000 		.4byte	.LFE417-.LFB417
 9295 21b4 01       		.uleb128 0x1
 9296 21b5 9C       		.byte	0x9c
 9297 21b6 D3210000 		.4byte	0x21d3
 9298 21ba 2A       		.uleb128 0x2a
 9299 21bb 08000000 		.4byte	.LVL82
 9300 21bf DE370000 		.4byte	0x37de
 9301 21c3 26       		.uleb128 0x26
 9302 21c4 01       		.uleb128 0x1
 9303 21c5 50       		.byte	0x50
 9304 21c6 05       		.uleb128 0x5
 9305 21c7 03       		.byte	0x3
 9306 21c8 00000000 		.4byte	.LANCHOR1
 9307 21cc 26       		.uleb128 0x26
 9308 21cd 01       		.uleb128 0x1
 9309 21ce 51       		.byte	0x51
 9310 21cf 01       		.uleb128 0x1
 9311 21d0 30       		.byte	0x30
 9312 21d1 00       		.byte	0
 9313 21d2 00       		.byte	0
 9314 21d3 22       		.uleb128 0x22
 9315 21d4 ED010000 		.4byte	.LASF165
 9316 21d8 01       		.byte	0x1
 9317 21d9 FE01     		.2byte	0x1fe
 9318 21db 0D       		.byte	0xd
 9319 21dc 00000000 		.4byte	.LFB416
 9320 21e0 9C000000 		.4byte	.LFE416-.LFB416
 9321 21e4 01       		.uleb128 0x1
 9322 21e5 9C       		.byte	0x9c
 9323 21e6 F9230000 		.4byte	0x23f9
 9324 21ea 2B       		.uleb128 0x2b
 9325 21eb 6E00     		.ascii	"n\000"
 9326 21ed 01       		.byte	0x1
 9327 21ee FF01     		.2byte	0x1ff
 9328 21f0 0C       		.byte	0xc
 9329 21f1 CB000000 		.4byte	0xcb
 9330 21f5 B5070000 		.4byte	.LLST74
 9331 21f9 B1070000 		.4byte	.LVUS74
 9332 21fd 2D       		.uleb128 0x2d
 9333 21fe 63010000 		.4byte	.LASF72
 9334 2202 01       		.byte	0x1
 9335 2203 0002     		.2byte	0x200
 9336 2205 0B       		.byte	0xb
 9337 2206 24010000 		.4byte	0x124
 9338 220a D6070000 		.4byte	.LLST75
 9339 220e D4070000 		.4byte	.LVUS75
 9340 2212 2D       		.uleb128 0x2d
 9341 2213 BA0A0000 		.4byte	.LASF157
 9342 2217 01       		.byte	0x1
 9343 2218 0102     		.2byte	0x201
 9344 221a 0D       		.byte	0xd
 9345 221b 4B030000 		.4byte	0x34b
 9346 221f ED070000 		.4byte	.LLST76
 9347 2223 E9070000 		.4byte	.LVUS76
 9348 2227 2B       		.uleb128 0x2b
 9349 2228 656E6400 		.ascii	"end\000"
 9350 222c 01       		.byte	0x1
ARM GAS  /tmp/ccuqlnP4.s 			page 167


 9351 222d 0102     		.2byte	0x201
 9352 222f 14       		.byte	0x14
 9353 2230 4B030000 		.4byte	0x34b
 9354 2234 0F080000 		.4byte	.LLST77
 9355 2238 0B080000 		.4byte	.LVUS77
 9356 223c 23       		.uleb128 0x23
 9357 223d 4F360000 		.4byte	0x364f
 9358 2241 00000000 		.4byte	.LBI726
 9359 2245 03       		.byte	.LVU635
 9360 2246 F8060000 		.4byte	.Ldebug_ranges0+0x6f8
 9361 224a 01       		.byte	0x1
 9362 224b 0002     		.2byte	0x200
 9363 224d 12       		.byte	0x12
 9364 224e 65220000 		.4byte	0x2265
 9365 2252 36       		.uleb128 0x36
 9366 2253 5D360000 		.4byte	0x365d
 9367 2257 00000000 		.4byte	.LBI728
 9368 225b 05       		.byte	.LVU637
 9369 225c 18070000 		.4byte	.Ldebug_ranges0+0x718
 9370 2260 06       		.byte	0x6
 9371 2261 6401     		.2byte	0x164
 9372 2263 0A       		.byte	0xa
 9373 2264 00       		.byte	0
 9374 2265 23       		.uleb128 0x23
 9375 2266 6B360000 		.4byte	0x366b
 9376 226a 50000000 		.4byte	.LBI736
 9377 226e 01       		.byte	.LVU670
 9378 226f 30070000 		.4byte	.Ldebug_ranges0+0x730
 9379 2273 01       		.byte	0x1
 9380 2274 1502     		.2byte	0x215
 9381 2276 0E       		.byte	0xe
 9382 2277 F8220000 		.4byte	0x22f8
 9383 227b 24       		.uleb128 0x24
 9384 227c 88360000 		.4byte	0x3688
 9385 2280 37080000 		.4byte	.LLST78
 9386 2284 35080000 		.4byte	.LVUS78
 9387 2288 24       		.uleb128 0x24
 9388 2289 7C360000 		.4byte	0x367c
 9389 228d 50080000 		.4byte	.LLST79
 9390 2291 4E080000 		.4byte	.LVUS79
 9391 2295 2E       		.uleb128 0x2e
 9392 2296 95360000 		.4byte	0x3695
 9393 229a 50000000 		.4byte	.LBI737
 9394 229e 03       		.byte	.LVU672
 9395 229f 60070000 		.4byte	.Ldebug_ranges0+0x760
 9396 22a3 05       		.byte	0x5
 9397 22a4 B3       		.byte	0xb3
 9398 22a5 0A       		.byte	0xa
 9399 22a6 C6220000 		.4byte	0x22c6
 9400 22aa 2F       		.uleb128 0x2f
 9401 22ab D9360000 		.4byte	0x36d9
 9402 22af 50000000 		.4byte	.LBI738
 9403 22b3 05       		.byte	.LVU674
 9404 22b4 80070000 		.4byte	.Ldebug_ranges0+0x780
 9405 22b8 05       		.byte	0x5
 9406 22b9 7F       		.byte	0x7f
 9407 22ba 0A       		.byte	0xa
ARM GAS  /tmp/ccuqlnP4.s 			page 168


 9408 22bb 30       		.uleb128 0x30
 9409 22bc 44000000 		.4byte	.LVL149
 9410 22c0 8A370000 		.4byte	0x378a
 9411 22c4 00       		.byte	0
 9412 22c5 00       		.byte	0
 9413 22c6 2F       		.uleb128 0x2f
 9414 22c7 16370000 		.4byte	0x3716
 9415 22cb 50000000 		.4byte	.LBI742
 9416 22cf 08       		.byte	.LVU677
 9417 22d0 98070000 		.4byte	.Ldebug_ranges0+0x798
 9418 22d4 05       		.byte	0x5
 9419 22d5 B3       		.byte	0xb3
 9420 22d6 0A       		.byte	0xa
 9421 22d7 24       		.uleb128 0x24
 9422 22d8 42370000 		.4byte	0x3742
 9423 22dc 65080000 		.4byte	.LLST80
 9424 22e0 63080000 		.4byte	.LVUS80
 9425 22e4 24       		.uleb128 0x24
 9426 22e5 35370000 		.4byte	0x3735
 9427 22e9 7E080000 		.4byte	.LLST81
 9428 22ed 7C080000 		.4byte	.LVUS81
 9429 22f1 31       		.uleb128 0x31
 9430 22f2 28370000 		.4byte	0x3728
 9431 22f6 00       		.byte	0
 9432 22f7 00       		.byte	0
 9433 22f8 23       		.uleb128 0x23
 9434 22f9 8A350000 		.4byte	0x358a
 9435 22fd 5C000000 		.4byte	.LBI752
 9436 2301 01       		.byte	.LVU687
 9437 2302 B0070000 		.4byte	.Ldebug_ranges0+0x7b0
 9438 2306 01       		.byte	0x1
 9439 2307 1C02     		.2byte	0x21c
 9440 2309 05       		.byte	0x5
 9441 230a 38230000 		.4byte	0x2338
 9442 230e 24       		.uleb128 0x24
 9443 230f 98350000 		.4byte	0x3598
 9444 2313 93080000 		.4byte	.LLST82
 9445 2317 91080000 		.4byte	.LVUS82
 9446 231b 25       		.uleb128 0x25
 9447 231c 60000000 		.4byte	.LVL152
 9448 2320 7D370000 		.4byte	0x377d
 9449 2324 26       		.uleb128 0x26
 9450 2325 01       		.uleb128 0x1
 9451 2326 50       		.byte	0x50
 9452 2327 05       		.uleb128 0x5
 9453 2328 03       		.byte	0x3
 9454 2329 10000000 		.4byte	.LC1
 9455 232d 26       		.uleb128 0x26
 9456 232e 01       		.uleb128 0x1
 9457 232f 51       		.byte	0x51
 9458 2330 05       		.uleb128 0x5
 9459 2331 03       		.byte	0x3
 9460 2332 00000000 		.4byte	.LC13
 9461 2336 00       		.byte	0
 9462 2337 00       		.byte	0
 9463 2338 27       		.uleb128 0x27
 9464 2339 A6350000 		.4byte	0x35a6
ARM GAS  /tmp/ccuqlnP4.s 			page 169


 9465 233d 60000000 		.4byte	.LBI756
 9466 2341 02       		.byte	.LVU691
 9467 2342 60000000 		.4byte	.LBB756
 9468 2346 08000000 		.4byte	.LBE756-.LBB756
 9469 234a 01       		.byte	0x1
 9470 234b 1D02     		.2byte	0x21d
 9471 234d 05       		.byte	0x5
 9472 234e 79230000 		.4byte	0x2379
 9473 2352 24       		.uleb128 0x24
 9474 2353 B4350000 		.4byte	0x35b4
 9475 2357 AD080000 		.4byte	.LLST83
 9476 235b AB080000 		.4byte	.LVUS83
 9477 235f 25       		.uleb128 0x25
 9478 2360 68000000 		.4byte	.LVL153
 9479 2364 7D370000 		.4byte	0x377d
 9480 2368 26       		.uleb128 0x26
 9481 2369 01       		.uleb128 0x1
 9482 236a 50       		.byte	0x50
 9483 236b 05       		.uleb128 0x5
 9484 236c 03       		.byte	0x3
 9485 236d 14000000 		.4byte	.LC2
 9486 2371 26       		.uleb128 0x26
 9487 2372 01       		.uleb128 0x1
 9488 2373 51       		.byte	0x51
 9489 2374 02       		.uleb128 0x2
 9490 2375 74       		.byte	0x74
 9491 2376 00       		.sleb128 0
 9492 2377 00       		.byte	0
 9493 2378 00       		.byte	0
 9494 2379 23       		.uleb128 0x23
 9495 237a 6E350000 		.4byte	0x356e
 9496 237e 68000000 		.4byte	.LBI758
 9497 2382 02       		.byte	.LVU695
 9498 2383 C8070000 		.4byte	.Ldebug_ranges0+0x7c8
 9499 2387 01       		.byte	0x1
 9500 2388 1E02     		.2byte	0x21e
 9501 238a 05       		.byte	0x5
 9502 238b B8230000 		.4byte	0x23b8
 9503 238f 29       		.uleb128 0x29
 9504 2390 7C350000 		.4byte	0x357c
 9505 2394 06       		.uleb128 0x6
 9506 2395 03       		.byte	0x3
 9507 2396 00000000 		.4byte	.LC19
 9508 239a 9F       		.byte	0x9f
 9509 239b 2A       		.uleb128 0x2a
 9510 239c 76000000 		.4byte	.LVL155
 9511 23a0 7D370000 		.4byte	0x377d
 9512 23a4 26       		.uleb128 0x26
 9513 23a5 01       		.uleb128 0x1
 9514 23a6 50       		.byte	0x50
 9515 23a7 05       		.uleb128 0x5
 9516 23a8 03       		.byte	0x3
 9517 23a9 20000000 		.4byte	.LC4
 9518 23ad 26       		.uleb128 0x26
 9519 23ae 01       		.uleb128 0x1
 9520 23af 51       		.byte	0x51
 9521 23b0 05       		.uleb128 0x5
ARM GAS  /tmp/ccuqlnP4.s 			page 170


 9522 23b1 03       		.byte	0x3
 9523 23b2 00000000 		.4byte	.LC19
 9524 23b6 00       		.byte	0
 9525 23b7 00       		.byte	0
 9526 23b8 30       		.uleb128 0x30
 9527 23b9 20000000 		.4byte	.LVL144
 9528 23bd 96370000 		.4byte	0x3796
 9529 23c1 32       		.uleb128 0x32
 9530 23c2 3C000000 		.4byte	.LVL147
 9531 23c6 02380000 		.4byte	0x3802
 9532 23ca EF230000 		.4byte	0x23ef
 9533 23ce 26       		.uleb128 0x26
 9534 23cf 01       		.uleb128 0x1
 9535 23d0 50       		.byte	0x50
 9536 23d1 02       		.uleb128 0x2
 9537 23d2 78       		.byte	0x78
 9538 23d3 00       		.sleb128 0
 9539 23d4 26       		.uleb128 0x26
 9540 23d5 01       		.uleb128 0x1
 9541 23d6 51       		.byte	0x51
 9542 23d7 03       		.uleb128 0x3
 9543 23d8 0A       		.byte	0xa
 9544 23d9 7001     		.2byte	0x170
 9545 23db 26       		.uleb128 0x26
 9546 23dc 01       		.uleb128 0x1
 9547 23dd 52       		.byte	0x52
 9548 23de 02       		.uleb128 0x2
 9549 23df 76       		.byte	0x76
 9550 23e0 00       		.sleb128 0
 9551 23e1 26       		.uleb128 0x26
 9552 23e2 01       		.uleb128 0x1
 9553 23e3 53       		.byte	0x53
 9554 23e4 02       		.uleb128 0x2
 9555 23e5 7A       		.byte	0x7a
 9556 23e6 00       		.sleb128 0
 9557 23e7 26       		.uleb128 0x26
 9558 23e8 02       		.uleb128 0x2
 9559 23e9 7D       		.byte	0x7d
 9560 23ea 00       		.sleb128 0
 9561 23eb 02       		.uleb128 0x2
 9562 23ec 77       		.byte	0x77
 9563 23ed 00       		.sleb128 0
 9564 23ee 00       		.byte	0
 9565 23ef 30       		.uleb128 0x30
 9566 23f0 40000000 		.4byte	.LVL148
 9567 23f4 40380000 		.4byte	0x3840
 9568 23f8 00       		.byte	0
 9569 23f9 22       		.uleb128 0x22
 9570 23fa 950B0000 		.4byte	.LASF166
 9571 23fe 01       		.byte	0x1
 9572 23ff C301     		.2byte	0x1c3
 9573 2401 0D       		.byte	0xd
 9574 2402 00000000 		.4byte	.LFB415
 9575 2406 9C000000 		.4byte	.LFE415-.LFB415
 9576 240a 01       		.uleb128 0x1
 9577 240b 9C       		.byte	0x9c
 9578 240c 1F260000 		.4byte	0x261f
ARM GAS  /tmp/ccuqlnP4.s 			page 171


 9579 2410 2B       		.uleb128 0x2b
 9580 2411 6E00     		.ascii	"n\000"
 9581 2413 01       		.byte	0x1
 9582 2414 C401     		.2byte	0x1c4
 9583 2416 0C       		.byte	0xc
 9584 2417 CB000000 		.4byte	0xcb
 9585 241b C4080000 		.4byte	.LLST85
 9586 241f C0080000 		.4byte	.LVUS85
 9587 2423 2D       		.uleb128 0x2d
 9588 2424 63010000 		.4byte	.LASF72
 9589 2428 01       		.byte	0x1
 9590 2429 C501     		.2byte	0x1c5
 9591 242b 0B       		.byte	0xb
 9592 242c 24010000 		.4byte	0x124
 9593 2430 E5080000 		.4byte	.LLST86
 9594 2434 E3080000 		.4byte	.LVUS86
 9595 2438 2D       		.uleb128 0x2d
 9596 2439 BA0A0000 		.4byte	.LASF157
 9597 243d 01       		.byte	0x1
 9598 243e C601     		.2byte	0x1c6
 9599 2440 0D       		.byte	0xd
 9600 2441 4B030000 		.4byte	0x34b
 9601 2445 FC080000 		.4byte	.LLST87
 9602 2449 F8080000 		.4byte	.LVUS87
 9603 244d 2B       		.uleb128 0x2b
 9604 244e 656E6400 		.ascii	"end\000"
 9605 2452 01       		.byte	0x1
 9606 2453 C601     		.2byte	0x1c6
 9607 2455 14       		.byte	0x14
 9608 2456 4B030000 		.4byte	0x34b
 9609 245a 1E090000 		.4byte	.LLST88
 9610 245e 1A090000 		.4byte	.LVUS88
 9611 2462 23       		.uleb128 0x23
 9612 2463 4F360000 		.4byte	0x364f
 9613 2467 00000000 		.4byte	.LBI762
 9614 246b 03       		.byte	.LVU705
 9615 246c E0070000 		.4byte	.Ldebug_ranges0+0x7e0
 9616 2470 01       		.byte	0x1
 9617 2471 C501     		.2byte	0x1c5
 9618 2473 12       		.byte	0x12
 9619 2474 8B240000 		.4byte	0x248b
 9620 2478 36       		.uleb128 0x36
 9621 2479 5D360000 		.4byte	0x365d
 9622 247d 00000000 		.4byte	.LBI764
 9623 2481 05       		.byte	.LVU707
 9624 2482 00080000 		.4byte	.Ldebug_ranges0+0x800
 9625 2486 06       		.byte	0x6
 9626 2487 6401     		.2byte	0x164
 9627 2489 0A       		.byte	0xa
 9628 248a 00       		.byte	0
 9629 248b 23       		.uleb128 0x23
 9630 248c 6B360000 		.4byte	0x366b
 9631 2490 50000000 		.4byte	.LBI772
 9632 2494 01       		.byte	.LVU740
 9633 2495 18080000 		.4byte	.Ldebug_ranges0+0x818
 9634 2499 01       		.byte	0x1
 9635 249a D601     		.2byte	0x1d6
ARM GAS  /tmp/ccuqlnP4.s 			page 172


 9636 249c 0E       		.byte	0xe
 9637 249d 1E250000 		.4byte	0x251e
 9638 24a1 24       		.uleb128 0x24
 9639 24a2 88360000 		.4byte	0x3688
 9640 24a6 46090000 		.4byte	.LLST89
 9641 24aa 44090000 		.4byte	.LVUS89
 9642 24ae 24       		.uleb128 0x24
 9643 24af 7C360000 		.4byte	0x367c
 9644 24b3 5F090000 		.4byte	.LLST90
 9645 24b7 5D090000 		.4byte	.LVUS90
 9646 24bb 2E       		.uleb128 0x2e
 9647 24bc 95360000 		.4byte	0x3695
 9648 24c0 50000000 		.4byte	.LBI773
 9649 24c4 03       		.byte	.LVU742
 9650 24c5 48080000 		.4byte	.Ldebug_ranges0+0x848
 9651 24c9 05       		.byte	0x5
 9652 24ca B3       		.byte	0xb3
 9653 24cb 0A       		.byte	0xa
 9654 24cc EC240000 		.4byte	0x24ec
 9655 24d0 2F       		.uleb128 0x2f
 9656 24d1 D9360000 		.4byte	0x36d9
 9657 24d5 50000000 		.4byte	.LBI774
 9658 24d9 05       		.byte	.LVU744
 9659 24da 68080000 		.4byte	.Ldebug_ranges0+0x868
 9660 24de 05       		.byte	0x5
 9661 24df 7F       		.byte	0x7f
 9662 24e0 0A       		.byte	0xa
 9663 24e1 30       		.uleb128 0x30
 9664 24e2 44000000 		.4byte	.LVL164
 9665 24e6 8A370000 		.4byte	0x378a
 9666 24ea 00       		.byte	0
 9667 24eb 00       		.byte	0
 9668 24ec 2F       		.uleb128 0x2f
 9669 24ed 16370000 		.4byte	0x3716
 9670 24f1 50000000 		.4byte	.LBI778
 9671 24f5 08       		.byte	.LVU747
 9672 24f6 80080000 		.4byte	.Ldebug_ranges0+0x880
 9673 24fa 05       		.byte	0x5
 9674 24fb B3       		.byte	0xb3
 9675 24fc 0A       		.byte	0xa
 9676 24fd 24       		.uleb128 0x24
 9677 24fe 42370000 		.4byte	0x3742
 9678 2502 74090000 		.4byte	.LLST91
 9679 2506 72090000 		.4byte	.LVUS91
 9680 250a 24       		.uleb128 0x24
 9681 250b 35370000 		.4byte	0x3735
 9682 250f 8D090000 		.4byte	.LLST92
 9683 2513 8B090000 		.4byte	.LVUS92
 9684 2517 31       		.uleb128 0x31
 9685 2518 28370000 		.4byte	0x3728
 9686 251c 00       		.byte	0
 9687 251d 00       		.byte	0
 9688 251e 23       		.uleb128 0x23
 9689 251f 8A350000 		.4byte	0x358a
 9690 2523 5C000000 		.4byte	.LBI788
 9691 2527 01       		.byte	.LVU757
 9692 2528 98080000 		.4byte	.Ldebug_ranges0+0x898
ARM GAS  /tmp/ccuqlnP4.s 			page 173


 9693 252c 01       		.byte	0x1
 9694 252d DD01     		.2byte	0x1dd
 9695 252f 05       		.byte	0x5
 9696 2530 5E250000 		.4byte	0x255e
 9697 2534 24       		.uleb128 0x24
 9698 2535 98350000 		.4byte	0x3598
 9699 2539 A2090000 		.4byte	.LLST93
 9700 253d A0090000 		.4byte	.LVUS93
 9701 2541 25       		.uleb128 0x25
 9702 2542 60000000 		.4byte	.LVL167
 9703 2546 7D370000 		.4byte	0x377d
 9704 254a 26       		.uleb128 0x26
 9705 254b 01       		.uleb128 0x1
 9706 254c 50       		.byte	0x50
 9707 254d 05       		.uleb128 0x5
 9708 254e 03       		.byte	0x3
 9709 254f 10000000 		.4byte	.LC1
 9710 2553 26       		.uleb128 0x26
 9711 2554 01       		.uleb128 0x1
 9712 2555 51       		.byte	0x51
 9713 2556 05       		.uleb128 0x5
 9714 2557 03       		.byte	0x3
 9715 2558 00000000 		.4byte	.LC13
 9716 255c 00       		.byte	0
 9717 255d 00       		.byte	0
 9718 255e 27       		.uleb128 0x27
 9719 255f A6350000 		.4byte	0x35a6
 9720 2563 60000000 		.4byte	.LBI792
 9721 2567 02       		.byte	.LVU761
 9722 2568 60000000 		.4byte	.LBB792
 9723 256c 08000000 		.4byte	.LBE792-.LBB792
 9724 2570 01       		.byte	0x1
 9725 2571 DE01     		.2byte	0x1de
 9726 2573 05       		.byte	0x5
 9727 2574 9F250000 		.4byte	0x259f
 9728 2578 24       		.uleb128 0x24
 9729 2579 B4350000 		.4byte	0x35b4
 9730 257d BC090000 		.4byte	.LLST94
 9731 2581 BA090000 		.4byte	.LVUS94
 9732 2585 25       		.uleb128 0x25
 9733 2586 68000000 		.4byte	.LVL168
 9734 258a 7D370000 		.4byte	0x377d
 9735 258e 26       		.uleb128 0x26
 9736 258f 01       		.uleb128 0x1
 9737 2590 50       		.byte	0x50
 9738 2591 05       		.uleb128 0x5
 9739 2592 03       		.byte	0x3
 9740 2593 14000000 		.4byte	.LC2
 9741 2597 26       		.uleb128 0x26
 9742 2598 01       		.uleb128 0x1
 9743 2599 51       		.byte	0x51
 9744 259a 02       		.uleb128 0x2
 9745 259b 74       		.byte	0x74
 9746 259c 00       		.sleb128 0
 9747 259d 00       		.byte	0
 9748 259e 00       		.byte	0
 9749 259f 23       		.uleb128 0x23
ARM GAS  /tmp/ccuqlnP4.s 			page 174


 9750 25a0 6E350000 		.4byte	0x356e
 9751 25a4 68000000 		.4byte	.LBI794
 9752 25a8 02       		.byte	.LVU765
 9753 25a9 B0080000 		.4byte	.Ldebug_ranges0+0x8b0
 9754 25ad 01       		.byte	0x1
 9755 25ae DF01     		.2byte	0x1df
 9756 25b0 05       		.byte	0x5
 9757 25b1 DE250000 		.4byte	0x25de
 9758 25b5 29       		.uleb128 0x29
 9759 25b6 7C350000 		.4byte	0x357c
 9760 25ba 06       		.uleb128 0x6
 9761 25bb 03       		.byte	0x3
 9762 25bc 00000000 		.4byte	.LC19
 9763 25c0 9F       		.byte	0x9f
 9764 25c1 2A       		.uleb128 0x2a
 9765 25c2 76000000 		.4byte	.LVL170
 9766 25c6 7D370000 		.4byte	0x377d
 9767 25ca 26       		.uleb128 0x26
 9768 25cb 01       		.uleb128 0x1
 9769 25cc 50       		.byte	0x50
 9770 25cd 05       		.uleb128 0x5
 9771 25ce 03       		.byte	0x3
 9772 25cf 20000000 		.4byte	.LC4
 9773 25d3 26       		.uleb128 0x26
 9774 25d4 01       		.uleb128 0x1
 9775 25d5 51       		.byte	0x51
 9776 25d6 05       		.uleb128 0x5
 9777 25d7 03       		.byte	0x3
 9778 25d8 00000000 		.4byte	.LC19
 9779 25dc 00       		.byte	0
 9780 25dd 00       		.byte	0
 9781 25de 30       		.uleb128 0x30
 9782 25df 1E000000 		.4byte	.LVL158
 9783 25e3 96370000 		.4byte	0x3796
 9784 25e7 32       		.uleb128 0x32
 9785 25e8 3C000000 		.4byte	.LVL162
 9786 25ec 02380000 		.4byte	0x3802
 9787 25f0 15260000 		.4byte	0x2615
 9788 25f4 26       		.uleb128 0x26
 9789 25f5 01       		.uleb128 0x1
 9790 25f6 50       		.byte	0x50
 9791 25f7 02       		.uleb128 0x2
 9792 25f8 78       		.byte	0x78
 9793 25f9 00       		.sleb128 0
 9794 25fa 26       		.uleb128 0x26
 9795 25fb 01       		.uleb128 0x1
 9796 25fc 51       		.byte	0x51
 9797 25fd 03       		.uleb128 0x3
 9798 25fe 0A       		.byte	0xa
 9799 25ff 7001     		.2byte	0x170
 9800 2601 26       		.uleb128 0x26
 9801 2602 01       		.uleb128 0x1
 9802 2603 52       		.byte	0x52
 9803 2604 02       		.uleb128 0x2
 9804 2605 76       		.byte	0x76
 9805 2606 00       		.sleb128 0
 9806 2607 26       		.uleb128 0x26
ARM GAS  /tmp/ccuqlnP4.s 			page 175


 9807 2608 01       		.uleb128 0x1
 9808 2609 53       		.byte	0x53
 9809 260a 02       		.uleb128 0x2
 9810 260b 7A       		.byte	0x7a
 9811 260c 00       		.sleb128 0
 9812 260d 26       		.uleb128 0x26
 9813 260e 02       		.uleb128 0x2
 9814 260f 7D       		.byte	0x7d
 9815 2610 00       		.sleb128 0
 9816 2611 02       		.uleb128 0x2
 9817 2612 77       		.byte	0x77
 9818 2613 00       		.sleb128 0
 9819 2614 00       		.byte	0
 9820 2615 30       		.uleb128 0x30
 9821 2616 40000000 		.4byte	.LVL163
 9822 261a 4D380000 		.4byte	0x384d
 9823 261e 00       		.byte	0
 9824 261f 22       		.uleb128 0x22
 9825 2620 91080000 		.4byte	.LASF167
 9826 2624 01       		.byte	0x1
 9827 2625 7201     		.2byte	0x172
 9828 2627 0D       		.byte	0xd
 9829 2628 00000000 		.4byte	.LFB414
 9830 262c E4000000 		.4byte	.LFE414-.LFB414
 9831 2630 01       		.uleb128 0x1
 9832 2631 9C       		.byte	0x9c
 9833 2632 052A0000 		.4byte	0x2a05
 9834 2636 2B       		.uleb128 0x2b
 9835 2637 747000   		.ascii	"tp\000"
 9836 263a 01       		.byte	0x1
 9837 263b 7301     		.2byte	0x173
 9838 263d 0D       		.byte	0xd
 9839 263e FD050000 		.4byte	0x5fd
 9840 2642 D3090000 		.4byte	.LLST95
 9841 2646 CF090000 		.4byte	.LVUS95
 9842 264a 2B       		.uleb128 0x2b
 9843 264b 6E00     		.ascii	"n\000"
 9844 264d 01       		.byte	0x1
 9845 264e 7401     		.2byte	0x174
 9846 2650 0C       		.byte	0xc
 9847 2651 CB000000 		.4byte	0xcb
 9848 2655 F5090000 		.4byte	.LLST96
 9849 2659 F1090000 		.4byte	.LVUS96
 9850 265d 2C       		.uleb128 0x2c
 9851 265e 00090000 		.4byte	.Ldebug_ranges0+0x900
 9852 2662 2F280000 		.4byte	0x282f
 9853 2666 2D       		.uleb128 0x2d
 9854 2667 BA0A0000 		.4byte	.LASF157
 9855 266b 01       		.byte	0x1
 9856 266c 8201     		.2byte	0x182
 9857 266e 0F       		.byte	0xf
 9858 266f 4B030000 		.4byte	0x34b
 9859 2673 180A0000 		.4byte	.LLST97
 9860 2677 140A0000 		.4byte	.LVUS97
 9861 267b 2B       		.uleb128 0x2b
 9862 267c 656E6400 		.ascii	"end\000"
 9863 2680 01       		.byte	0x1
ARM GAS  /tmp/ccuqlnP4.s 			page 176


 9864 2681 8201     		.2byte	0x182
 9865 2683 16       		.byte	0x16
 9866 2684 4B030000 		.4byte	0x34b
 9867 2688 3A0A0000 		.4byte	.LLST98
 9868 268c 360A0000 		.4byte	.LVUS98
 9869 2690 23       		.uleb128 0x23
 9870 2691 CF360000 		.4byte	0x36cf
 9871 2695 46000000 		.4byte	.LBI809
 9872 2699 02       		.byte	.LVU810
 9873 269a 48090000 		.4byte	.Ldebug_ranges0+0x948
 9874 269e 01       		.byte	0x1
 9875 269f 8801     		.2byte	0x188
 9876 26a1 07       		.byte	0x7
 9877 26a2 DA260000 		.4byte	0x26da
 9878 26a6 28       		.uleb128 0x28
 9879 26a7 F0360000 		.4byte	0x36f0
 9880 26ab 46000000 		.4byte	.LBI810
 9881 26af 04       		.byte	.LVU812
 9882 26b0 70090000 		.4byte	.Ldebug_ranges0+0x970
 9883 26b4 08       		.byte	0x8
 9884 26b5 9901     		.2byte	0x199
 9885 26b7 03       		.byte	0x3
 9886 26b8 28       		.uleb128 0x28
 9887 26b9 FA360000 		.4byte	0x36fa
 9888 26bd 46000000 		.4byte	.LBI811
 9889 26c1 06       		.byte	.LVU814
 9890 26c2 90090000 		.4byte	.Ldebug_ranges0+0x990
 9891 26c6 09       		.byte	0x9
 9892 26c7 2E03     		.2byte	0x32e
 9893 26c9 03       		.byte	0x3
 9894 26ca 24       		.uleb128 0x24
 9895 26cb 08370000 		.4byte	0x3708
 9896 26cf 620A0000 		.4byte	.LLST99
 9897 26d3 600A0000 		.4byte	.LVUS99
 9898 26d7 00       		.byte	0
 9899 26d8 00       		.byte	0
 9900 26d9 00       		.byte	0
 9901 26da 23       		.uleb128 0x23
 9902 26db A2360000 		.4byte	0x36a2
 9903 26df 6A000000 		.4byte	.LBI820
 9904 26e3 01       		.byte	.LVU824
 9905 26e4 A8090000 		.4byte	.Ldebug_ranges0+0x9a8
 9906 26e8 01       		.byte	0x1
 9907 26e9 8D01     		.2byte	0x18d
 9908 26eb 07       		.byte	0x7
 9909 26ec 2E270000 		.4byte	0x272e
 9910 26f0 34       		.uleb128 0x34
 9911 26f1 A8090000 		.4byte	.Ldebug_ranges0+0x9a8
 9912 26f5 28       		.uleb128 0x28
 9913 26f6 E6360000 		.4byte	0x36e6
 9914 26fa 6A000000 		.4byte	.LBI822
 9915 26fe 08       		.byte	.LVU831
 9916 26ff A8090000 		.4byte	.Ldebug_ranges0+0x9a8
 9917 2703 08       		.byte	0x8
 9918 2704 B201     		.2byte	0x1b2
 9919 2706 03       		.byte	0x3
 9920 2707 35       		.uleb128 0x35
ARM GAS  /tmp/ccuqlnP4.s 			page 177


 9921 2708 FA360000 		.4byte	0x36fa
 9922 270c 6A000000 		.4byte	.LBI823
 9923 2710 0A       		.byte	.LVU833
 9924 2711 6A000000 		.4byte	.LBB823
 9925 2715 04000000 		.4byte	.LBE823-.LBB823
 9926 2719 09       		.byte	0x9
 9927 271a 4103     		.2byte	0x341
 9928 271c 03       		.byte	0x3
 9929 271d 24       		.uleb128 0x24
 9930 271e 08370000 		.4byte	0x3708
 9931 2722 790A0000 		.4byte	.LLST100
 9932 2726 770A0000 		.4byte	.LVUS100
 9933 272a 00       		.byte	0
 9934 272b 00       		.byte	0
 9935 272c 00       		.byte	0
 9936 272d 00       		.byte	0
 9937 272e 23       		.uleb128 0x23
 9938 272f 6B360000 		.4byte	0x366b
 9939 2733 7A000000 		.4byte	.LBI828
 9940 2737 01       		.byte	.LVU842
 9941 2738 C0090000 		.4byte	.Ldebug_ranges0+0x9c0
 9942 273c 01       		.byte	0x1
 9943 273d 9201     		.2byte	0x192
 9944 273f 0E       		.byte	0xe
 9945 2740 C1270000 		.4byte	0x27c1
 9946 2744 24       		.uleb128 0x24
 9947 2745 88360000 		.4byte	0x3688
 9948 2749 8F0A0000 		.4byte	.LLST101
 9949 274d 8D0A0000 		.4byte	.LVUS101
 9950 2751 24       		.uleb128 0x24
 9951 2752 7C360000 		.4byte	0x367c
 9952 2756 A80A0000 		.4byte	.LLST102
 9953 275a A60A0000 		.4byte	.LVUS102
 9954 275e 2E       		.uleb128 0x2e
 9955 275f 95360000 		.4byte	0x3695
 9956 2763 7A000000 		.4byte	.LBI829
 9957 2767 03       		.byte	.LVU844
 9958 2768 E8090000 		.4byte	.Ldebug_ranges0+0x9e8
 9959 276c 05       		.byte	0x5
 9960 276d B3       		.byte	0xb3
 9961 276e 0A       		.byte	0xa
 9962 276f 8F270000 		.4byte	0x278f
 9963 2773 2F       		.uleb128 0x2f
 9964 2774 D9360000 		.4byte	0x36d9
 9965 2778 7A000000 		.4byte	.LBI830
 9966 277c 05       		.byte	.LVU846
 9967 277d 080A0000 		.4byte	.Ldebug_ranges0+0xa08
 9968 2781 05       		.byte	0x5
 9969 2782 7F       		.byte	0x7f
 9970 2783 0A       		.byte	0xa
 9971 2784 30       		.uleb128 0x30
 9972 2785 72000000 		.4byte	.LVL183
 9973 2789 8A370000 		.4byte	0x378a
 9974 278d 00       		.byte	0
 9975 278e 00       		.byte	0
 9976 278f 2F       		.uleb128 0x2f
 9977 2790 16370000 		.4byte	0x3716
ARM GAS  /tmp/ccuqlnP4.s 			page 178


 9978 2794 7A000000 		.4byte	.LBI834
 9979 2798 08       		.byte	.LVU849
 9980 2799 200A0000 		.4byte	.Ldebug_ranges0+0xa20
 9981 279d 05       		.byte	0x5
 9982 279e B3       		.byte	0xb3
 9983 279f 0A       		.byte	0xa
 9984 27a0 24       		.uleb128 0x24
 9985 27a1 42370000 		.4byte	0x3742
 9986 27a5 BD0A0000 		.4byte	.LLST103
 9987 27a9 BB0A0000 		.4byte	.LVUS103
 9988 27ad 24       		.uleb128 0x24
 9989 27ae 35370000 		.4byte	0x3735
 9990 27b2 D60A0000 		.4byte	.LLST104
 9991 27b6 D40A0000 		.4byte	.LVUS104
 9992 27ba 31       		.uleb128 0x31
 9993 27bb 28370000 		.4byte	0x3728
 9994 27bf 00       		.byte	0
 9995 27c0 00       		.byte	0
 9996 27c1 30       		.uleb128 0x30
 9997 27c2 3A000000 		.4byte	.LVL174
 9998 27c6 96370000 		.4byte	0x3796
 9999 27ca 32       		.uleb128 0x32
 10000 27cb 52000000 		.4byte	.LVL178
 10001 27cf 5A380000 		.4byte	0x385a
 10002 27d3 E4270000 		.4byte	0x27e4
 10003 27d7 26       		.uleb128 0x26
 10004 27d8 01       		.uleb128 0x1
 10005 27d9 50       		.byte	0x50
 10006 27da 02       		.uleb128 0x2
 10007 27db 74       		.byte	0x74
 10008 27dc 00       		.sleb128 0
 10009 27dd 26       		.uleb128 0x26
 10010 27de 01       		.uleb128 0x1
 10011 27df 51       		.byte	0x51
 10012 27e0 02       		.uleb128 0x2
 10013 27e1 77       		.byte	0x77
 10014 27e2 00       		.sleb128 0
 10015 27e3 00       		.byte	0
 10016 27e4 32       		.uleb128 0x32
 10017 27e5 5A000000 		.4byte	.LVL179
 10018 27e9 5A380000 		.4byte	0x385a
 10019 27ed FE270000 		.4byte	0x27fe
 10020 27f1 26       		.uleb128 0x26
 10021 27f2 01       		.uleb128 0x1
 10022 27f3 50       		.byte	0x50
 10023 27f4 02       		.uleb128 0x2
 10024 27f5 74       		.byte	0x74
 10025 27f6 00       		.sleb128 0
 10026 27f7 26       		.uleb128 0x26
 10027 27f8 01       		.uleb128 0x1
 10028 27f9 51       		.byte	0x51
 10029 27fa 02       		.uleb128 0x2
 10030 27fb 77       		.byte	0x77
 10031 27fc 00       		.sleb128 0
 10032 27fd 00       		.byte	0
 10033 27fe 32       		.uleb128 0x32
 10034 27ff 62000000 		.4byte	.LVL180
ARM GAS  /tmp/ccuqlnP4.s 			page 179


 10035 2803 5A380000 		.4byte	0x385a
 10036 2807 18280000 		.4byte	0x2818
 10037 280b 26       		.uleb128 0x26
 10038 280c 01       		.uleb128 0x1
 10039 280d 50       		.byte	0x50
 10040 280e 02       		.uleb128 0x2
 10041 280f 74       		.byte	0x74
 10042 2810 00       		.sleb128 0
 10043 2811 26       		.uleb128 0x26
 10044 2812 01       		.uleb128 0x1
 10045 2813 51       		.byte	0x51
 10046 2814 02       		.uleb128 0x2
 10047 2815 77       		.byte	0x77
 10048 2816 00       		.sleb128 0
 10049 2817 00       		.byte	0
 10050 2818 25       		.uleb128 0x25
 10051 2819 6A000000 		.4byte	.LVL181
 10052 281d 5A380000 		.4byte	0x385a
 10053 2821 26       		.uleb128 0x26
 10054 2822 01       		.uleb128 0x1
 10055 2823 50       		.byte	0x50
 10056 2824 02       		.uleb128 0x2
 10057 2825 74       		.byte	0x74
 10058 2826 00       		.sleb128 0
 10059 2827 26       		.uleb128 0x26
 10060 2828 01       		.uleb128 0x1
 10061 2829 51       		.byte	0x51
 10062 282a 02       		.uleb128 0x2
 10063 282b 77       		.byte	0x77
 10064 282c 00       		.sleb128 0
 10065 282d 00       		.byte	0
 10066 282e 00       		.byte	0
 10067 282f 23       		.uleb128 0x23
 10068 2830 4F360000 		.4byte	0x364f
 10069 2834 20000000 		.4byte	.LBI798
 10070 2838 01       		.byte	.LVU785
 10071 2839 C8080000 		.4byte	.Ldebug_ranges0+0x8c8
 10072 283d 01       		.byte	0x1
 10073 283e 7901     		.2byte	0x179
 10074 2840 39       		.byte	0x39
 10075 2841 58280000 		.4byte	0x2858
 10076 2845 36       		.uleb128 0x36
 10077 2846 5D360000 		.4byte	0x365d
 10078 284a 20000000 		.4byte	.LBI800
 10079 284e 03       		.byte	.LVU787
 10080 284f E8080000 		.4byte	.Ldebug_ranges0+0x8e8
 10081 2853 06       		.byte	0x6
 10082 2854 6401     		.2byte	0x164
 10083 2856 0A       		.byte	0xa
 10084 2857 00       		.byte	0
 10085 2858 23       		.uleb128 0x23
 10086 2859 CF360000 		.4byte	0x36cf
 10087 285d 82000000 		.4byte	.LBI850
 10088 2861 01       		.byte	.LVU857
 10089 2862 380A0000 		.4byte	.Ldebug_ranges0+0xa38
 10090 2866 01       		.byte	0x1
 10091 2867 9901     		.2byte	0x199
ARM GAS  /tmp/ccuqlnP4.s 			page 180


 10092 2869 05       		.byte	0x5
 10093 286a A6280000 		.4byte	0x28a6
 10094 286e 28       		.uleb128 0x28
 10095 286f F0360000 		.4byte	0x36f0
 10096 2873 82000000 		.4byte	.LBI851
 10097 2877 03       		.byte	.LVU859
 10098 2878 400A0000 		.4byte	.Ldebug_ranges0+0xa40
 10099 287c 08       		.byte	0x8
 10100 287d 9901     		.2byte	0x199
 10101 287f 03       		.byte	0x3
 10102 2880 35       		.uleb128 0x35
 10103 2881 FA360000 		.4byte	0x36fa
 10104 2885 82000000 		.4byte	.LBI852
 10105 2889 05       		.byte	.LVU861
 10106 288a 82000000 		.4byte	.LBB852
 10107 288e 04000000 		.4byte	.LBE852-.LBB852
 10108 2892 09       		.byte	0x9
 10109 2893 2E03     		.2byte	0x32e
 10110 2895 03       		.byte	0x3
 10111 2896 24       		.uleb128 0x24
 10112 2897 08370000 		.4byte	0x3708
 10113 289b EB0A0000 		.4byte	.LLST105
 10114 289f E90A0000 		.4byte	.LVUS105
 10115 28a3 00       		.byte	0
 10116 28a4 00       		.byte	0
 10117 28a5 00       		.byte	0
 10118 28a6 23       		.uleb128 0x23
 10119 28a7 A2360000 		.4byte	0x36a2
 10120 28ab 90000000 		.4byte	.LBI857
 10121 28af 01       		.byte	.LVU868
 10122 28b0 580A0000 		.4byte	.Ldebug_ranges0+0xa58
 10123 28b4 01       		.byte	0x1
 10124 28b5 9B01     		.2byte	0x19b
 10125 28b7 05       		.byte	0x5
 10126 28b8 FA280000 		.4byte	0x28fa
 10127 28bc 34       		.uleb128 0x34
 10128 28bd 580A0000 		.4byte	.Ldebug_ranges0+0xa58
 10129 28c1 28       		.uleb128 0x28
 10130 28c2 E6360000 		.4byte	0x36e6
 10131 28c6 90000000 		.4byte	.LBI859
 10132 28ca 08       		.byte	.LVU875
 10133 28cb 580A0000 		.4byte	.Ldebug_ranges0+0xa58
 10134 28cf 08       		.byte	0x8
 10135 28d0 B201     		.2byte	0x1b2
 10136 28d2 03       		.byte	0x3
 10137 28d3 35       		.uleb128 0x35
 10138 28d4 FA360000 		.4byte	0x36fa
 10139 28d8 90000000 		.4byte	.LBI860
 10140 28dc 0A       		.byte	.LVU877
 10141 28dd 90000000 		.4byte	.LBB860
 10142 28e1 04000000 		.4byte	.LBE860-.LBB860
 10143 28e5 09       		.byte	0x9
 10144 28e6 4103     		.2byte	0x341
 10145 28e8 03       		.byte	0x3
 10146 28e9 24       		.uleb128 0x24
 10147 28ea 08370000 		.4byte	0x3708
 10148 28ee 020B0000 		.4byte	.LLST106
ARM GAS  /tmp/ccuqlnP4.s 			page 181


 10149 28f2 000B0000 		.4byte	.LVUS106
 10150 28f6 00       		.byte	0
 10151 28f7 00       		.byte	0
 10152 28f8 00       		.byte	0
 10153 28f9 00       		.byte	0
 10154 28fa 23       		.uleb128 0x23
 10155 28fb 8A350000 		.4byte	0x358a
 10156 28ff A2000000 		.4byte	.LBI865
 10157 2903 01       		.byte	.LVU887
 10158 2904 700A0000 		.4byte	.Ldebug_ranges0+0xa70
 10159 2908 01       		.byte	0x1
 10160 2909 A301     		.2byte	0x1a3
 10161 290b 05       		.byte	0x5
 10162 290c 3A290000 		.4byte	0x293a
 10163 2910 24       		.uleb128 0x24
 10164 2911 98350000 		.4byte	0x3598
 10165 2915 180B0000 		.4byte	.LLST107
 10166 2919 160B0000 		.4byte	.LVUS107
 10167 291d 25       		.uleb128 0x25
 10168 291e A6000000 		.4byte	.LVL191
 10169 2922 7D370000 		.4byte	0x377d
 10170 2926 26       		.uleb128 0x26
 10171 2927 01       		.uleb128 0x1
 10172 2928 50       		.byte	0x50
 10173 2929 05       		.uleb128 0x5
 10174 292a 03       		.byte	0x3
 10175 292b 10000000 		.4byte	.LC1
 10176 292f 26       		.uleb128 0x26
 10177 2930 01       		.uleb128 0x1
 10178 2931 51       		.byte	0x51
 10179 2932 05       		.uleb128 0x5
 10180 2933 03       		.byte	0x3
 10181 2934 00000000 		.4byte	.LC13
 10182 2938 00       		.byte	0
 10183 2939 00       		.byte	0
 10184 293a 27       		.uleb128 0x27
 10185 293b A6350000 		.4byte	0x35a6
 10186 293f A6000000 		.4byte	.LBI869
 10187 2943 02       		.byte	.LVU891
 10188 2944 A6000000 		.4byte	.LBB869
 10189 2948 08000000 		.4byte	.LBE869-.LBB869
 10190 294c 01       		.byte	0x1
 10191 294d A401     		.2byte	0x1a4
 10192 294f 05       		.byte	0x5
 10193 2950 7D290000 		.4byte	0x297d
 10194 2954 24       		.uleb128 0x24
 10195 2955 B4350000 		.4byte	0x35b4
 10196 2959 360B0000 		.4byte	.LLST108
 10197 295d 300B0000 		.4byte	.LVUS108
 10198 2961 25       		.uleb128 0x25
 10199 2962 AE000000 		.4byte	.LVL193
 10200 2966 7D370000 		.4byte	0x377d
 10201 296a 26       		.uleb128 0x26
 10202 296b 01       		.uleb128 0x1
 10203 296c 50       		.byte	0x50
 10204 296d 05       		.uleb128 0x5
 10205 296e 03       		.byte	0x3
ARM GAS  /tmp/ccuqlnP4.s 			page 182


 10206 296f 14000000 		.4byte	.LC2
 10207 2973 26       		.uleb128 0x26
 10208 2974 01       		.uleb128 0x1
 10209 2975 51       		.byte	0x51
 10210 2976 04       		.uleb128 0x4
 10211 2977 75       		.byte	0x75
 10212 2978 00       		.sleb128 0
 10213 2979 31       		.byte	0x31
 10214 297a 24       		.byte	0x24
 10215 297b 00       		.byte	0
 10216 297c 00       		.byte	0
 10217 297d 23       		.uleb128 0x23
 10218 297e 6E350000 		.4byte	0x356e
 10219 2982 AE000000 		.4byte	.LBI871
 10220 2986 02       		.byte	.LVU896
 10221 2987 880A0000 		.4byte	.Ldebug_ranges0+0xa88
 10222 298b 01       		.byte	0x1
 10223 298c A501     		.2byte	0x1a5
 10224 298e 05       		.byte	0x5
 10225 298f BC290000 		.4byte	0x29bc
 10226 2993 29       		.uleb128 0x29
 10227 2994 7C350000 		.4byte	0x357c
 10228 2998 06       		.uleb128 0x6
 10229 2999 03       		.byte	0x3
 10230 299a 00000000 		.4byte	.LC17
 10231 299e 9F       		.byte	0x9f
 10232 299f 2A       		.uleb128 0x2a
 10233 29a0 BC000000 		.4byte	.LVL195
 10234 29a4 7D370000 		.4byte	0x377d
 10235 29a8 26       		.uleb128 0x26
 10236 29a9 01       		.uleb128 0x1
 10237 29aa 50       		.byte	0x50
 10238 29ab 05       		.uleb128 0x5
 10239 29ac 03       		.byte	0x3
 10240 29ad 20000000 		.4byte	.LC4
 10241 29b1 26       		.uleb128 0x26
 10242 29b2 01       		.uleb128 0x1
 10243 29b3 51       		.byte	0x51
 10244 29b4 05       		.uleb128 0x5
 10245 29b5 03       		.byte	0x3
 10246 29b6 00000000 		.4byte	.LC17
 10247 29ba 00       		.byte	0
 10248 29bb 00       		.byte	0
 10249 29bc 32       		.uleb128 0x32
 10250 29bd 2A000000 		.4byte	.LVL171
 10251 29c1 02380000 		.4byte	0x3802
 10252 29c5 E1290000 		.4byte	0x29e1
 10253 29c9 26       		.uleb128 0x26
 10254 29ca 01       		.uleb128 0x1
 10255 29cb 51       		.byte	0x51
 10256 29cc 03       		.uleb128 0x3
 10257 29cd 0A       		.byte	0xa
 10258 29ce 7001     		.2byte	0x170
 10259 29d0 26       		.uleb128 0x26
 10260 29d1 01       		.uleb128 0x1
 10261 29d2 53       		.byte	0x53
 10262 29d3 05       		.uleb128 0x5
ARM GAS  /tmp/ccuqlnP4.s 			page 183


 10263 29d4 03       		.byte	0x3
 10264 29d5 00000000 		.4byte	bmk_thread4
 10265 29d9 26       		.uleb128 0x26
 10266 29da 02       		.uleb128 0x2
 10267 29db 7D       		.byte	0x7d
 10268 29dc 00       		.sleb128 0
 10269 29dd 02       		.uleb128 0x2
 10270 29de 75       		.byte	0x75
 10271 29df 00       		.sleb128 0
 10272 29e0 00       		.byte	0
 10273 29e1 32       		.uleb128 0x32
 10274 29e2 90000000 		.4byte	.LVL187
 10275 29e6 5A380000 		.4byte	0x385a
 10276 29ea FB290000 		.4byte	0x29fb
 10277 29ee 26       		.uleb128 0x26
 10278 29ef 01       		.uleb128 0x1
 10279 29f0 50       		.byte	0x50
 10280 29f1 02       		.uleb128 0x2
 10281 29f2 74       		.byte	0x74
 10282 29f3 00       		.sleb128 0
 10283 29f4 26       		.uleb128 0x26
 10284 29f5 01       		.uleb128 0x1
 10285 29f6 51       		.byte	0x51
 10286 29f7 02       		.uleb128 0x2
 10287 29f8 09       		.byte	0x9
 10288 29f9 FF       		.byte	0xff
 10289 29fa 00       		.byte	0
 10290 29fb 30       		.uleb128 0x30
 10291 29fc 98000000 		.4byte	.LVL189
 10292 2a00 28380000 		.4byte	0x3828
 10293 2a04 00       		.byte	0
 10294 2a05 22       		.uleb128 0x22
 10295 2a06 50050000 		.4byte	.LASF168
 10296 2a0a 01       		.byte	0x1
 10297 2a0b 2C01     		.2byte	0x12c
 10298 2a0d 0D       		.byte	0xd
 10299 2a0e 00000000 		.4byte	.LFB413
 10300 2a12 10010000 		.4byte	.LFE413-.LFB413
 10301 2a16 01       		.uleb128 0x1
 10302 2a17 9C       		.byte	0x9c
 10303 2a18 1F2D0000 		.4byte	0x2d1f
 10304 2a1c 2B       		.uleb128 0x2b
 10305 2a1d 6E00     		.ascii	"n\000"
 10306 2a1f 01       		.byte	0x1
 10307 2a20 2D01     		.2byte	0x12d
 10308 2a22 0C       		.byte	0xc
 10309 2a23 CB000000 		.4byte	0xcb
 10310 2a27 6B0B0000 		.4byte	.LLST129
 10311 2a2b 670B0000 		.4byte	.LVUS129
 10312 2a2f 23       		.uleb128 0x23
 10313 2a30 4F360000 		.4byte	0x364f
 10314 2a34 2A000000 		.4byte	.LBI953
 10315 2a38 01       		.byte	.LVU1044
 10316 2a39 700C0000 		.4byte	.Ldebug_ranges0+0xc70
 10317 2a3d 01       		.byte	0x1
 10318 2a3e 3301     		.2byte	0x133
 10319 2a40 34       		.byte	0x34
ARM GAS  /tmp/ccuqlnP4.s 			page 184


 10320 2a41 582A0000 		.4byte	0x2a58
 10321 2a45 36       		.uleb128 0x36
 10322 2a46 5D360000 		.4byte	0x365d
 10323 2a4a 2A000000 		.4byte	.LBI955
 10324 2a4e 03       		.byte	.LVU1046
 10325 2a4f 900C0000 		.4byte	.Ldebug_ranges0+0xc90
 10326 2a53 06       		.byte	0x6
 10327 2a54 6401     		.2byte	0x164
 10328 2a56 0A       		.byte	0xa
 10329 2a57 00       		.byte	0
 10330 2a58 23       		.uleb128 0x23
 10331 2a59 4F360000 		.4byte	0x364f
 10332 2a5d 44000000 		.4byte	.LBI963
 10333 2a61 01       		.byte	.LVU1060
 10334 2a62 A80C0000 		.4byte	.Ldebug_ranges0+0xca8
 10335 2a66 01       		.byte	0x1
 10336 2a67 3B01     		.2byte	0x13b
 10337 2a69 34       		.byte	0x34
 10338 2a6a 852A0000 		.4byte	0x2a85
 10339 2a6e 37       		.uleb128 0x37
 10340 2a6f 5D360000 		.4byte	0x365d
 10341 2a73 44000000 		.4byte	.LBI965
 10342 2a77 03       		.byte	.LVU1062
 10343 2a78 44000000 		.4byte	.LBB965
 10344 2a7c 00000000 		.4byte	.LBE965-.LBB965
 10345 2a80 06       		.byte	0x6
 10346 2a81 6401     		.2byte	0x164
 10347 2a83 0A       		.byte	0xa
 10348 2a84 00       		.byte	0
 10349 2a85 23       		.uleb128 0x23
 10350 2a86 4F360000 		.4byte	0x364f
 10351 2a8a 52000000 		.4byte	.LBI969
 10352 2a8e 01       		.byte	.LVU1068
 10353 2a8f C00C0000 		.4byte	.Ldebug_ranges0+0xcc0
 10354 2a93 01       		.byte	0x1
 10355 2a94 3C01     		.2byte	0x13c
 10356 2a96 34       		.byte	0x34
 10357 2a97 B22A0000 		.4byte	0x2ab2
 10358 2a9b 37       		.uleb128 0x37
 10359 2a9c 5D360000 		.4byte	0x365d
 10360 2aa0 52000000 		.4byte	.LBI971
 10361 2aa4 03       		.byte	.LVU1070
 10362 2aa5 52000000 		.4byte	.LBB971
 10363 2aa9 00000000 		.4byte	.LBE971-.LBB971
 10364 2aad 06       		.byte	0x6
 10365 2aae 6401     		.2byte	0x164
 10366 2ab0 0A       		.byte	0xa
 10367 2ab1 00       		.byte	0
 10368 2ab2 23       		.uleb128 0x23
 10369 2ab3 4F360000 		.4byte	0x364f
 10370 2ab7 68000000 		.4byte	.LBI975
 10371 2abb 01       		.byte	.LVU1076
 10372 2abc D80C0000 		.4byte	.Ldebug_ranges0+0xcd8
 10373 2ac0 01       		.byte	0x1
 10374 2ac1 3D01     		.2byte	0x13d
 10375 2ac3 34       		.byte	0x34
 10376 2ac4 DF2A0000 		.4byte	0x2adf
ARM GAS  /tmp/ccuqlnP4.s 			page 185


 10377 2ac8 37       		.uleb128 0x37
 10378 2ac9 5D360000 		.4byte	0x365d
 10379 2acd 68000000 		.4byte	.LBI977
 10380 2ad1 03       		.byte	.LVU1078
 10381 2ad2 68000000 		.4byte	.LBB977
 10382 2ad6 00000000 		.4byte	.LBE977-.LBB977
 10383 2ada 06       		.byte	0x6
 10384 2adb 6401     		.2byte	0x164
 10385 2add 0A       		.byte	0xa
 10386 2ade 00       		.byte	0
 10387 2adf 23       		.uleb128 0x23
 10388 2ae0 4F360000 		.4byte	0x364f
 10389 2ae4 7E000000 		.4byte	.LBI981
 10390 2ae8 01       		.byte	.LVU1084
 10391 2ae9 F00C0000 		.4byte	.Ldebug_ranges0+0xcf0
 10392 2aed 01       		.byte	0x1
 10393 2aee 3E01     		.2byte	0x13e
 10394 2af0 34       		.byte	0x34
 10395 2af1 0C2B0000 		.4byte	0x2b0c
 10396 2af5 37       		.uleb128 0x37
 10397 2af6 5D360000 		.4byte	0x365d
 10398 2afa 7E000000 		.4byte	.LBI983
 10399 2afe 03       		.byte	.LVU1086
 10400 2aff 7E000000 		.4byte	.LBB983
 10401 2b03 00000000 		.4byte	.LBE983-.LBB983
 10402 2b07 06       		.byte	0x6
 10403 2b08 6401     		.2byte	0x164
 10404 2b0a 0A       		.byte	0xa
 10405 2b0b 00       		.byte	0
 10406 2b0c 23       		.uleb128 0x23
 10407 2b0d 8A350000 		.4byte	0x358a
 10408 2b11 B2000000 		.4byte	.LBI987
 10409 2b15 01       		.byte	.LVU1108
 10410 2b16 080D0000 		.4byte	.Ldebug_ranges0+0xd08
 10411 2b1a 01       		.byte	0x1
 10412 2b1b 4E01     		.2byte	0x14e
 10413 2b1d 05       		.byte	0x5
 10414 2b1e 492B0000 		.4byte	0x2b49
 10415 2b22 24       		.uleb128 0x24
 10416 2b23 98350000 		.4byte	0x3598
 10417 2b27 8B0B0000 		.4byte	.LLST130
 10418 2b2b 890B0000 		.4byte	.LVUS130
 10419 2b2f 25       		.uleb128 0x25
 10420 2b30 B8000000 		.4byte	.LVL227
 10421 2b34 7D370000 		.4byte	0x377d
 10422 2b38 26       		.uleb128 0x26
 10423 2b39 01       		.uleb128 0x1
 10424 2b3a 50       		.byte	0x50
 10425 2b3b 02       		.uleb128 0x2
 10426 2b3c 76       		.byte	0x76
 10427 2b3d 00       		.sleb128 0
 10428 2b3e 26       		.uleb128 0x26
 10429 2b3f 01       		.uleb128 0x1
 10430 2b40 51       		.byte	0x51
 10431 2b41 05       		.uleb128 0x5
 10432 2b42 03       		.byte	0x3
 10433 2b43 00000000 		.4byte	.LC13
ARM GAS  /tmp/ccuqlnP4.s 			page 186


 10434 2b47 00       		.byte	0
 10435 2b48 00       		.byte	0
 10436 2b49 23       		.uleb128 0x23
 10437 2b4a A6350000 		.4byte	0x35a6
 10438 2b4e B8000000 		.4byte	.LBI991
 10439 2b52 02       		.byte	.LVU1112
 10440 2b53 280D0000 		.4byte	.Ldebug_ranges0+0xd28
 10441 2b57 01       		.byte	0x1
 10442 2b58 4F01     		.2byte	0x14f
 10443 2b5a 05       		.byte	0x5
 10444 2b5b 832B0000 		.4byte	0x2b83
 10445 2b5f 24       		.uleb128 0x24
 10446 2b60 B4350000 		.4byte	0x35b4
 10447 2b64 A50B0000 		.4byte	.LLST131
 10448 2b68 A30B0000 		.4byte	.LVUS131
 10449 2b6c 25       		.uleb128 0x25
 10450 2b6d C0000000 		.4byte	.LVL228
 10451 2b71 7D370000 		.4byte	0x377d
 10452 2b75 26       		.uleb128 0x26
 10453 2b76 01       		.uleb128 0x1
 10454 2b77 50       		.byte	0x50
 10455 2b78 02       		.uleb128 0x2
 10456 2b79 75       		.byte	0x75
 10457 2b7a 00       		.sleb128 0
 10458 2b7b 26       		.uleb128 0x26
 10459 2b7c 01       		.uleb128 0x1
 10460 2b7d 51       		.byte	0x51
 10461 2b7e 02       		.uleb128 0x2
 10462 2b7f 74       		.byte	0x74
 10463 2b80 00       		.sleb128 0
 10464 2b81 00       		.byte	0
 10465 2b82 00       		.byte	0
 10466 2b83 27       		.uleb128 0x27
 10467 2b84 8A350000 		.4byte	0x358a
 10468 2b88 C0000000 		.4byte	.LBI997
 10469 2b8c 02       		.byte	.LVU1116
 10470 2b8d C0000000 		.4byte	.LBB997
 10471 2b91 08000000 		.4byte	.LBE997-.LBB997
 10472 2b95 01       		.byte	0x1
 10473 2b96 5001     		.2byte	0x150
 10474 2b98 05       		.byte	0x5
 10475 2b99 C42B0000 		.4byte	0x2bc4
 10476 2b9d 24       		.uleb128 0x24
 10477 2b9e 98350000 		.4byte	0x3598
 10478 2ba2 BA0B0000 		.4byte	.LLST132
 10479 2ba6 B80B0000 		.4byte	.LVUS132
 10480 2baa 25       		.uleb128 0x25
 10481 2bab C8000000 		.4byte	.LVL229
 10482 2baf 7D370000 		.4byte	0x377d
 10483 2bb3 26       		.uleb128 0x26
 10484 2bb4 01       		.uleb128 0x1
 10485 2bb5 50       		.byte	0x50
 10486 2bb6 02       		.uleb128 0x2
 10487 2bb7 76       		.byte	0x76
 10488 2bb8 00       		.sleb128 0
 10489 2bb9 26       		.uleb128 0x26
 10490 2bba 01       		.uleb128 0x1
ARM GAS  /tmp/ccuqlnP4.s 			page 187


 10491 2bbb 51       		.byte	0x51
 10492 2bbc 05       		.uleb128 0x5
 10493 2bbd 03       		.byte	0x3
 10494 2bbe 00000000 		.4byte	.LC20
 10495 2bc2 00       		.byte	0
 10496 2bc3 00       		.byte	0
 10497 2bc4 27       		.uleb128 0x27
 10498 2bc5 A6350000 		.4byte	0x35a6
 10499 2bc9 C8000000 		.4byte	.LBI999
 10500 2bcd 02       		.byte	.LVU1120
 10501 2bce C8000000 		.4byte	.LBB999
 10502 2bd2 08000000 		.4byte	.LBE999-.LBB999
 10503 2bd6 01       		.byte	0x1
 10504 2bd7 5101     		.2byte	0x151
 10505 2bd9 05       		.byte	0x5
 10506 2bda 042C0000 		.4byte	0x2c04
 10507 2bde 24       		.uleb128 0x24
 10508 2bdf B4350000 		.4byte	0x35b4
 10509 2be3 D80B0000 		.4byte	.LLST133
 10510 2be7 D20B0000 		.4byte	.LVUS133
 10511 2beb 25       		.uleb128 0x25
 10512 2bec D0000000 		.4byte	.LVL231
 10513 2bf0 7D370000 		.4byte	0x377d
 10514 2bf4 26       		.uleb128 0x26
 10515 2bf5 01       		.uleb128 0x1
 10516 2bf6 50       		.byte	0x50
 10517 2bf7 02       		.uleb128 0x2
 10518 2bf8 75       		.byte	0x75
 10519 2bf9 00       		.sleb128 0
 10520 2bfa 26       		.uleb128 0x26
 10521 2bfb 01       		.uleb128 0x1
 10522 2bfc 51       		.byte	0x51
 10523 2bfd 04       		.uleb128 0x4
 10524 2bfe 74       		.byte	0x74
 10525 2bff 00       		.sleb128 0
 10526 2c00 31       		.byte	0x31
 10527 2c01 24       		.byte	0x24
 10528 2c02 00       		.byte	0
 10529 2c03 00       		.byte	0
 10530 2c04 23       		.uleb128 0x23
 10531 2c05 6E350000 		.4byte	0x356e
 10532 2c09 D0000000 		.4byte	.LBI1001
 10533 2c0d 02       		.byte	.LVU1125
 10534 2c0e 400D0000 		.4byte	.Ldebug_ranges0+0xd40
 10535 2c12 01       		.byte	0x1
 10536 2c13 5201     		.2byte	0x152
 10537 2c15 05       		.byte	0x5
 10538 2c16 432C0000 		.4byte	0x2c43
 10539 2c1a 29       		.uleb128 0x29
 10540 2c1b 7C350000 		.4byte	0x357c
 10541 2c1f 06       		.uleb128 0x6
 10542 2c20 03       		.byte	0x3
 10543 2c21 00000000 		.4byte	.LC17
 10544 2c25 9F       		.byte	0x9f
 10545 2c26 2A       		.uleb128 0x2a
 10546 2c27 DE000000 		.4byte	.LVL233
 10547 2c2b 7D370000 		.4byte	0x377d
ARM GAS  /tmp/ccuqlnP4.s 			page 188


 10548 2c2f 26       		.uleb128 0x26
 10549 2c30 01       		.uleb128 0x1
 10550 2c31 50       		.byte	0x50
 10551 2c32 05       		.uleb128 0x5
 10552 2c33 03       		.byte	0x3
 10553 2c34 20000000 		.4byte	.LC4
 10554 2c38 26       		.uleb128 0x26
 10555 2c39 01       		.uleb128 0x1
 10556 2c3a 51       		.byte	0x51
 10557 2c3b 05       		.uleb128 0x5
 10558 2c3c 03       		.byte	0x3
 10559 2c3d 00000000 		.4byte	.LC17
 10560 2c41 00       		.byte	0
 10561 2c42 00       		.byte	0
 10562 2c43 32       		.uleb128 0x32
 10563 2c44 2E000000 		.4byte	.LVL218
 10564 2c48 02380000 		.4byte	0x3802
 10565 2c4c 6F2C0000 		.4byte	0x2c6f
 10566 2c50 26       		.uleb128 0x26
 10567 2c51 01       		.uleb128 0x1
 10568 2c52 50       		.byte	0x50
 10569 2c53 03       		.uleb128 0x3
 10570 2c54 75       		.byte	0x75
 10571 2c55 00       		.sleb128 0
 10572 2c56 06       		.byte	0x6
 10573 2c57 26       		.uleb128 0x26
 10574 2c58 01       		.uleb128 0x1
 10575 2c59 51       		.byte	0x51
 10576 2c5a 03       		.uleb128 0x3
 10577 2c5b 0A       		.byte	0xa
 10578 2c5c 7001     		.2byte	0x170
 10579 2c5e 26       		.uleb128 0x26
 10580 2c5f 01       		.uleb128 0x1
 10581 2c60 53       		.byte	0x53
 10582 2c61 05       		.uleb128 0x5
 10583 2c62 03       		.byte	0x3
 10584 2c63 00000000 		.4byte	bmk_thread1
 10585 2c67 26       		.uleb128 0x26
 10586 2c68 02       		.uleb128 0x2
 10587 2c69 7D       		.byte	0x7d
 10588 2c6a 00       		.sleb128 0
 10589 2c6b 02       		.uleb128 0x2
 10590 2c6c 76       		.byte	0x76
 10591 2c6d 00       		.sleb128 0
 10592 2c6e 00       		.byte	0
 10593 2c6f 32       		.uleb128 0x32
 10594 2c70 4E000000 		.4byte	.LVL219
 10595 2c74 02380000 		.4byte	0x3802
 10596 2c78 912C0000 		.4byte	0x2c91
 10597 2c7c 26       		.uleb128 0x26
 10598 2c7d 01       		.uleb128 0x1
 10599 2c7e 50       		.byte	0x50
 10600 2c7f 03       		.uleb128 0x3
 10601 2c80 75       		.byte	0x75
 10602 2c81 04       		.sleb128 4
 10603 2c82 06       		.byte	0x6
 10604 2c83 26       		.uleb128 0x26
ARM GAS  /tmp/ccuqlnP4.s 			page 189


 10605 2c84 01       		.uleb128 0x1
 10606 2c85 51       		.byte	0x51
 10607 2c86 03       		.uleb128 0x3
 10608 2c87 0A       		.byte	0xa
 10609 2c88 7001     		.2byte	0x170
 10610 2c8a 26       		.uleb128 0x26
 10611 2c8b 01       		.uleb128 0x1
 10612 2c8c 53       		.byte	0x53
 10613 2c8d 02       		.uleb128 0x2
 10614 2c8e 79       		.byte	0x79
 10615 2c8f 00       		.sleb128 0
 10616 2c90 00       		.byte	0
 10617 2c91 32       		.uleb128 0x32
 10618 2c92 64000000 		.4byte	.LVL220
 10619 2c96 02380000 		.4byte	0x3802
 10620 2c9a BA2C0000 		.4byte	0x2cba
 10621 2c9e 26       		.uleb128 0x26
 10622 2c9f 01       		.uleb128 0x1
 10623 2ca0 50       		.byte	0x50
 10624 2ca1 03       		.uleb128 0x3
 10625 2ca2 75       		.byte	0x75
 10626 2ca3 08       		.sleb128 8
 10627 2ca4 06       		.byte	0x6
 10628 2ca5 26       		.uleb128 0x26
 10629 2ca6 01       		.uleb128 0x1
 10630 2ca7 51       		.byte	0x51
 10631 2ca8 03       		.uleb128 0x3
 10632 2ca9 0A       		.byte	0xa
 10633 2caa 7001     		.2byte	0x170
 10634 2cac 26       		.uleb128 0x26
 10635 2cad 01       		.uleb128 0x1
 10636 2cae 53       		.byte	0x53
 10637 2caf 02       		.uleb128 0x2
 10638 2cb0 79       		.byte	0x79
 10639 2cb1 00       		.sleb128 0
 10640 2cb2 26       		.uleb128 0x26
 10641 2cb3 02       		.uleb128 0x2
 10642 2cb4 7D       		.byte	0x7d
 10643 2cb5 00       		.sleb128 0
 10644 2cb6 02       		.uleb128 0x2
 10645 2cb7 76       		.byte	0x76
 10646 2cb8 00       		.sleb128 0
 10647 2cb9 00       		.byte	0
 10648 2cba 32       		.uleb128 0x32
 10649 2cbb 7A000000 		.4byte	.LVL221
 10650 2cbf 02380000 		.4byte	0x3802
 10651 2cc3 E32C0000 		.4byte	0x2ce3
 10652 2cc7 26       		.uleb128 0x26
 10653 2cc8 01       		.uleb128 0x1
 10654 2cc9 50       		.byte	0x50
 10655 2cca 03       		.uleb128 0x3
 10656 2ccb 75       		.byte	0x75
 10657 2ccc 0C       		.sleb128 12
 10658 2ccd 06       		.byte	0x6
 10659 2cce 26       		.uleb128 0x26
 10660 2ccf 01       		.uleb128 0x1
 10661 2cd0 51       		.byte	0x51
ARM GAS  /tmp/ccuqlnP4.s 			page 190


 10662 2cd1 03       		.uleb128 0x3
 10663 2cd2 0A       		.byte	0xa
 10664 2cd3 7001     		.2byte	0x170
 10665 2cd5 26       		.uleb128 0x26
 10666 2cd6 01       		.uleb128 0x1
 10667 2cd7 53       		.byte	0x53
 10668 2cd8 02       		.uleb128 0x2
 10669 2cd9 79       		.byte	0x79
 10670 2cda 00       		.sleb128 0
 10671 2cdb 26       		.uleb128 0x26
 10672 2cdc 02       		.uleb128 0x2
 10673 2cdd 7D       		.byte	0x7d
 10674 2cde 00       		.sleb128 0
 10675 2cdf 02       		.uleb128 0x2
 10676 2ce0 76       		.byte	0x76
 10677 2ce1 00       		.sleb128 0
 10678 2ce2 00       		.byte	0
 10679 2ce3 32       		.uleb128 0x32
 10680 2ce4 90000000 		.4byte	.LVL222
 10681 2ce8 02380000 		.4byte	0x3802
 10682 2cec 0C2D0000 		.4byte	0x2d0c
 10683 2cf0 26       		.uleb128 0x26
 10684 2cf1 01       		.uleb128 0x1
 10685 2cf2 50       		.byte	0x50
 10686 2cf3 03       		.uleb128 0x3
 10687 2cf4 75       		.byte	0x75
 10688 2cf5 10       		.sleb128 16
 10689 2cf6 06       		.byte	0x6
 10690 2cf7 26       		.uleb128 0x26
 10691 2cf8 01       		.uleb128 0x1
 10692 2cf9 51       		.byte	0x51
 10693 2cfa 03       		.uleb128 0x3
 10694 2cfb 0A       		.byte	0xa
 10695 2cfc 7001     		.2byte	0x170
 10696 2cfe 26       		.uleb128 0x26
 10697 2cff 01       		.uleb128 0x1
 10698 2d00 53       		.byte	0x53
 10699 2d01 02       		.uleb128 0x2
 10700 2d02 79       		.byte	0x79
 10701 2d03 00       		.sleb128 0
 10702 2d04 26       		.uleb128 0x26
 10703 2d05 02       		.uleb128 0x2
 10704 2d06 7D       		.byte	0x7d
 10705 2d07 00       		.sleb128 0
 10706 2d08 02       		.uleb128 0x2
 10707 2d09 76       		.byte	0x76
 10708 2d0a 00       		.sleb128 0
 10709 2d0b 00       		.byte	0
 10710 2d0c 30       		.uleb128 0x30
 10711 2d0d A0000000 		.4byte	.LVL223
 10712 2d11 B9320000 		.4byte	0x32b9
 10713 2d15 30       		.uleb128 0x30
 10714 2d16 AA000000 		.4byte	.LVL225
 10715 2d1a 28380000 		.4byte	0x3828
 10716 2d1e 00       		.byte	0
 10717 2d1f 38       		.uleb128 0x38
 10718 2d20 E4020000 		.4byte	.LASF169
ARM GAS  /tmp/ccuqlnP4.s 			page 191


 10719 2d24 01       		.byte	0x1
 10720 2d25 E9       		.byte	0xe9
 10721 2d26 0D       		.byte	0xd
 10722 2d27 00000000 		.4byte	.LFB412
 10723 2d2b 98000000 		.4byte	.LFE412-.LFB412
 10724 2d2f 01       		.uleb128 0x1
 10725 2d30 9C       		.byte	0x9c
 10726 2d31 DE2E0000 		.4byte	0x2ede
 10727 2d35 39       		.uleb128 0x39
 10728 2d36 6E00     		.ascii	"n\000"
 10729 2d38 01       		.byte	0x1
 10730 2d39 EA       		.byte	0xea
 10731 2d3a 0C       		.byte	0xc
 10732 2d3b CB000000 		.4byte	0xcb
 10733 2d3f 0D0C0000 		.4byte	.LLST134
 10734 2d43 090C0000 		.4byte	.LVUS134
 10735 2d47 2E       		.uleb128 0x2e
 10736 2d48 4F360000 		.4byte	0x364f
 10737 2d4c 1E000000 		.4byte	.LBI1005
 10738 2d50 01       		.byte	.LVU1146
 10739 2d51 580D0000 		.4byte	.Ldebug_ranges0+0xd58
 10740 2d55 01       		.byte	0x1
 10741 2d56 F0       		.byte	0xf0
 10742 2d57 34       		.byte	0x34
 10743 2d58 6F2D0000 		.4byte	0x2d6f
 10744 2d5c 36       		.uleb128 0x36
 10745 2d5d 5D360000 		.4byte	0x365d
 10746 2d61 1E000000 		.4byte	.LBI1007
 10747 2d65 03       		.byte	.LVU1148
 10748 2d66 780D0000 		.4byte	.Ldebug_ranges0+0xd78
 10749 2d6a 06       		.byte	0x6
 10750 2d6b 6401     		.2byte	0x164
 10751 2d6d 0A       		.byte	0xa
 10752 2d6e 00       		.byte	0
 10753 2d6f 23       		.uleb128 0x23
 10754 2d70 8A350000 		.4byte	0x358a
 10755 2d74 40000000 		.4byte	.LBI1014
 10756 2d78 01       		.byte	.LVU1167
 10757 2d79 900D0000 		.4byte	.Ldebug_ranges0+0xd90
 10758 2d7d 01       		.byte	0x1
 10759 2d7e 0001     		.2byte	0x100
 10760 2d80 05       		.byte	0x5
 10761 2d81 AC2D0000 		.4byte	0x2dac
 10762 2d85 24       		.uleb128 0x24
 10763 2d86 98350000 		.4byte	0x3598
 10764 2d8a 2D0C0000 		.4byte	.LLST135
 10765 2d8e 2B0C0000 		.4byte	.LVUS135
 10766 2d92 25       		.uleb128 0x25
 10767 2d93 46000000 		.4byte	.LVL239
 10768 2d97 7D370000 		.4byte	0x377d
 10769 2d9b 26       		.uleb128 0x26
 10770 2d9c 01       		.uleb128 0x1
 10771 2d9d 50       		.byte	0x50
 10772 2d9e 02       		.uleb128 0x2
 10773 2d9f 77       		.byte	0x77
 10774 2da0 00       		.sleb128 0
 10775 2da1 26       		.uleb128 0x26
ARM GAS  /tmp/ccuqlnP4.s 			page 192


 10776 2da2 01       		.uleb128 0x1
 10777 2da3 51       		.byte	0x51
 10778 2da4 05       		.uleb128 0x5
 10779 2da5 03       		.byte	0x3
 10780 2da6 00000000 		.4byte	.LC13
 10781 2daa 00       		.byte	0
 10782 2dab 00       		.byte	0
 10783 2dac 23       		.uleb128 0x23
 10784 2dad A6350000 		.4byte	0x35a6
 10785 2db1 46000000 		.4byte	.LBI1018
 10786 2db5 02       		.byte	.LVU1171
 10787 2db6 B00D0000 		.4byte	.Ldebug_ranges0+0xdb0
 10788 2dba 01       		.byte	0x1
 10789 2dbb 0101     		.2byte	0x101
 10790 2dbd 05       		.byte	0x5
 10791 2dbe E62D0000 		.4byte	0x2de6
 10792 2dc2 24       		.uleb128 0x24
 10793 2dc3 B4350000 		.4byte	0x35b4
 10794 2dc7 470C0000 		.4byte	.LLST136
 10795 2dcb 450C0000 		.4byte	.LVUS136
 10796 2dcf 25       		.uleb128 0x25
 10797 2dd0 4E000000 		.4byte	.LVL240
 10798 2dd4 7D370000 		.4byte	0x377d
 10799 2dd8 26       		.uleb128 0x26
 10800 2dd9 01       		.uleb128 0x1
 10801 2dda 50       		.byte	0x50
 10802 2ddb 02       		.uleb128 0x2
 10803 2ddc 76       		.byte	0x76
 10804 2ddd 00       		.sleb128 0
 10805 2dde 26       		.uleb128 0x26
 10806 2ddf 01       		.uleb128 0x1
 10807 2de0 51       		.byte	0x51
 10808 2de1 02       		.uleb128 0x2
 10809 2de2 74       		.byte	0x74
 10810 2de3 00       		.sleb128 0
 10811 2de4 00       		.byte	0
 10812 2de5 00       		.byte	0
 10813 2de6 27       		.uleb128 0x27
 10814 2de7 8A350000 		.4byte	0x358a
 10815 2deb 4E000000 		.4byte	.LBI1025
 10816 2def 02       		.byte	.LVU1175
 10817 2df0 4E000000 		.4byte	.LBB1025
 10818 2df4 08000000 		.4byte	.LBE1025-.LBB1025
 10819 2df8 01       		.byte	0x1
 10820 2df9 0201     		.2byte	0x102
 10821 2dfb 05       		.byte	0x5
 10822 2dfc 272E0000 		.4byte	0x2e27
 10823 2e00 24       		.uleb128 0x24
 10824 2e01 98350000 		.4byte	0x3598
 10825 2e05 5C0C0000 		.4byte	.LLST137
 10826 2e09 5A0C0000 		.4byte	.LVUS137
 10827 2e0d 25       		.uleb128 0x25
 10828 2e0e 56000000 		.4byte	.LVL241
 10829 2e12 7D370000 		.4byte	0x377d
 10830 2e16 26       		.uleb128 0x26
 10831 2e17 01       		.uleb128 0x1
 10832 2e18 50       		.byte	0x50
ARM GAS  /tmp/ccuqlnP4.s 			page 193


 10833 2e19 02       		.uleb128 0x2
 10834 2e1a 77       		.byte	0x77
 10835 2e1b 00       		.sleb128 0
 10836 2e1c 26       		.uleb128 0x26
 10837 2e1d 01       		.uleb128 0x1
 10838 2e1e 51       		.byte	0x51
 10839 2e1f 05       		.uleb128 0x5
 10840 2e20 03       		.byte	0x3
 10841 2e21 00000000 		.4byte	.LC20
 10842 2e25 00       		.byte	0
 10843 2e26 00       		.byte	0
 10844 2e27 27       		.uleb128 0x27
 10845 2e28 A6350000 		.4byte	0x35a6
 10846 2e2c 56000000 		.4byte	.LBI1027
 10847 2e30 02       		.byte	.LVU1179
 10848 2e31 56000000 		.4byte	.LBB1027
 10849 2e35 08000000 		.4byte	.LBE1027-.LBB1027
 10850 2e39 01       		.byte	0x1
 10851 2e3a 0301     		.2byte	0x103
 10852 2e3c 05       		.byte	0x5
 10853 2e3d 672E0000 		.4byte	0x2e67
 10854 2e41 24       		.uleb128 0x24
 10855 2e42 B4350000 		.4byte	0x35b4
 10856 2e46 7A0C0000 		.4byte	.LLST138
 10857 2e4a 740C0000 		.4byte	.LVUS138
 10858 2e4e 25       		.uleb128 0x25
 10859 2e4f 5E000000 		.4byte	.LVL243
 10860 2e53 7D370000 		.4byte	0x377d
 10861 2e57 26       		.uleb128 0x26
 10862 2e58 01       		.uleb128 0x1
 10863 2e59 50       		.byte	0x50
 10864 2e5a 02       		.uleb128 0x2
 10865 2e5b 76       		.byte	0x76
 10866 2e5c 00       		.sleb128 0
 10867 2e5d 26       		.uleb128 0x26
 10868 2e5e 01       		.uleb128 0x1
 10869 2e5f 51       		.byte	0x51
 10870 2e60 04       		.uleb128 0x4
 10871 2e61 74       		.byte	0x74
 10872 2e62 00       		.sleb128 0
 10873 2e63 31       		.byte	0x31
 10874 2e64 24       		.byte	0x24
 10875 2e65 00       		.byte	0
 10876 2e66 00       		.byte	0
 10877 2e67 23       		.uleb128 0x23
 10878 2e68 6E350000 		.4byte	0x356e
 10879 2e6c 5E000000 		.4byte	.LBI1029
 10880 2e70 02       		.byte	.LVU1184
 10881 2e71 C80D0000 		.4byte	.Ldebug_ranges0+0xdc8
 10882 2e75 01       		.byte	0x1
 10883 2e76 0401     		.2byte	0x104
 10884 2e78 05       		.byte	0x5
 10885 2e79 A62E0000 		.4byte	0x2ea6
 10886 2e7d 29       		.uleb128 0x29
 10887 2e7e 7C350000 		.4byte	0x357c
 10888 2e82 06       		.uleb128 0x6
 10889 2e83 03       		.byte	0x3
ARM GAS  /tmp/ccuqlnP4.s 			page 194


 10890 2e84 00000000 		.4byte	.LC17
 10891 2e88 9F       		.byte	0x9f
 10892 2e89 2A       		.uleb128 0x2a
 10893 2e8a 6C000000 		.4byte	.LVL245
 10894 2e8e 7D370000 		.4byte	0x377d
 10895 2e92 26       		.uleb128 0x26
 10896 2e93 01       		.uleb128 0x1
 10897 2e94 50       		.byte	0x50
 10898 2e95 05       		.uleb128 0x5
 10899 2e96 03       		.byte	0x3
 10900 2e97 20000000 		.4byte	.LC4
 10901 2e9b 26       		.uleb128 0x26
 10902 2e9c 01       		.uleb128 0x1
 10903 2e9d 51       		.byte	0x51
 10904 2e9e 05       		.uleb128 0x5
 10905 2e9f 03       		.byte	0x3
 10906 2ea0 00000000 		.4byte	.LC17
 10907 2ea4 00       		.byte	0
 10908 2ea5 00       		.byte	0
 10909 2ea6 32       		.uleb128 0x32
 10910 2ea7 28000000 		.4byte	.LVL234
 10911 2eab 02380000 		.4byte	0x3802
 10912 2eaf CB2E0000 		.4byte	0x2ecb
 10913 2eb3 26       		.uleb128 0x26
 10914 2eb4 01       		.uleb128 0x1
 10915 2eb5 51       		.byte	0x51
 10916 2eb6 03       		.uleb128 0x3
 10917 2eb7 0A       		.byte	0xa
 10918 2eb8 7001     		.2byte	0x170
 10919 2eba 26       		.uleb128 0x26
 10920 2ebb 01       		.uleb128 0x1
 10921 2ebc 53       		.byte	0x53
 10922 2ebd 05       		.uleb128 0x5
 10923 2ebe 03       		.byte	0x3
 10924 2ebf 00000000 		.4byte	bmk_thread1
 10925 2ec3 26       		.uleb128 0x26
 10926 2ec4 02       		.uleb128 0x2
 10927 2ec5 7D       		.byte	0x7d
 10928 2ec6 00       		.sleb128 0
 10929 2ec7 02       		.uleb128 0x2
 10930 2ec8 74       		.byte	0x74
 10931 2ec9 00       		.sleb128 0
 10932 2eca 00       		.byte	0
 10933 2ecb 30       		.uleb128 0x30
 10934 2ecc 34000000 		.4byte	.LVL235
 10935 2ed0 B9320000 		.4byte	0x32b9
 10936 2ed4 30       		.uleb128 0x30
 10937 2ed5 3A000000 		.4byte	.LVL237
 10938 2ed9 28380000 		.4byte	0x3828
 10939 2edd 00       		.byte	0
 10940 2ede 38       		.uleb128 0x38
 10941 2edf D7000000 		.4byte	.LASF170
 10942 2ee3 01       		.byte	0x1
 10943 2ee4 A9       		.byte	0xa9
 10944 2ee5 0D       		.byte	0xd
 10945 2ee6 00000000 		.4byte	.LFB411
 10946 2eea 98000000 		.4byte	.LFE411-.LFB411
ARM GAS  /tmp/ccuqlnP4.s 			page 195


 10947 2eee 01       		.uleb128 0x1
 10948 2eef 9C       		.byte	0x9c
 10949 2ef0 98300000 		.4byte	0x3098
 10950 2ef4 39       		.uleb128 0x39
 10951 2ef5 6E00     		.ascii	"n\000"
 10952 2ef7 01       		.byte	0x1
 10953 2ef8 AA       		.byte	0xaa
 10954 2ef9 0C       		.byte	0xc
 10955 2efa CB000000 		.4byte	0xcb
 10956 2efe AF0C0000 		.4byte	.LLST139
 10957 2f02 AB0C0000 		.4byte	.LVUS139
 10958 2f06 2E       		.uleb128 0x2e
 10959 2f07 4F360000 		.4byte	0x364f
 10960 2f0b 1E000000 		.4byte	.LBI1033
 10961 2f0f 01       		.byte	.LVU1205
 10962 2f10 E00D0000 		.4byte	.Ldebug_ranges0+0xde0
 10963 2f14 01       		.byte	0x1
 10964 2f15 B0       		.byte	0xb0
 10965 2f16 34       		.byte	0x34
 10966 2f17 2E2F0000 		.4byte	0x2f2e
 10967 2f1b 36       		.uleb128 0x36
 10968 2f1c 5D360000 		.4byte	0x365d
 10969 2f20 1E000000 		.4byte	.LBI1035
 10970 2f24 03       		.byte	.LVU1207
 10971 2f25 000E0000 		.4byte	.Ldebug_ranges0+0xe00
 10972 2f29 06       		.byte	0x6
 10973 2f2a 6401     		.2byte	0x164
 10974 2f2c 0A       		.byte	0xa
 10975 2f2d 00       		.byte	0
 10976 2f2e 2E       		.uleb128 0x2e
 10977 2f2f 8A350000 		.4byte	0x358a
 10978 2f33 40000000 		.4byte	.LBI1042
 10979 2f37 01       		.byte	.LVU1226
 10980 2f38 180E0000 		.4byte	.Ldebug_ranges0+0xe18
 10981 2f3c 01       		.byte	0x1
 10982 2f3d C0       		.byte	0xc0
 10983 2f3e 05       		.byte	0x5
 10984 2f3f 6A2F0000 		.4byte	0x2f6a
 10985 2f43 24       		.uleb128 0x24
 10986 2f44 98350000 		.4byte	0x3598
 10987 2f48 CF0C0000 		.4byte	.LLST140
 10988 2f4c CD0C0000 		.4byte	.LVUS140
 10989 2f50 25       		.uleb128 0x25
 10990 2f51 46000000 		.4byte	.LVL251
 10991 2f55 7D370000 		.4byte	0x377d
 10992 2f59 26       		.uleb128 0x26
 10993 2f5a 01       		.uleb128 0x1
 10994 2f5b 50       		.byte	0x50
 10995 2f5c 02       		.uleb128 0x2
 10996 2f5d 77       		.byte	0x77
 10997 2f5e 00       		.sleb128 0
 10998 2f5f 26       		.uleb128 0x26
 10999 2f60 01       		.uleb128 0x1
 11000 2f61 51       		.byte	0x51
 11001 2f62 05       		.uleb128 0x5
 11002 2f63 03       		.byte	0x3
 11003 2f64 00000000 		.4byte	.LC13
ARM GAS  /tmp/ccuqlnP4.s 			page 196


 11004 2f68 00       		.byte	0
 11005 2f69 00       		.byte	0
 11006 2f6a 2E       		.uleb128 0x2e
 11007 2f6b A6350000 		.4byte	0x35a6
 11008 2f6f 46000000 		.4byte	.LBI1046
 11009 2f73 02       		.byte	.LVU1230
 11010 2f74 380E0000 		.4byte	.Ldebug_ranges0+0xe38
 11011 2f78 01       		.byte	0x1
 11012 2f79 C1       		.byte	0xc1
 11013 2f7a 05       		.byte	0x5
 11014 2f7b A32F0000 		.4byte	0x2fa3
 11015 2f7f 24       		.uleb128 0x24
 11016 2f80 B4350000 		.4byte	0x35b4
 11017 2f84 E90C0000 		.4byte	.LLST141
 11018 2f88 E70C0000 		.4byte	.LVUS141
 11019 2f8c 25       		.uleb128 0x25
 11020 2f8d 4E000000 		.4byte	.LVL252
 11021 2f91 7D370000 		.4byte	0x377d
 11022 2f95 26       		.uleb128 0x26
 11023 2f96 01       		.uleb128 0x1
 11024 2f97 50       		.byte	0x50
 11025 2f98 02       		.uleb128 0x2
 11026 2f99 76       		.byte	0x76
 11027 2f9a 00       		.sleb128 0
 11028 2f9b 26       		.uleb128 0x26
 11029 2f9c 01       		.uleb128 0x1
 11030 2f9d 51       		.byte	0x51
 11031 2f9e 02       		.uleb128 0x2
 11032 2f9f 74       		.byte	0x74
 11033 2fa0 00       		.sleb128 0
 11034 2fa1 00       		.byte	0
 11035 2fa2 00       		.byte	0
 11036 2fa3 3A       		.uleb128 0x3a
 11037 2fa4 8A350000 		.4byte	0x358a
 11038 2fa8 4E000000 		.4byte	.LBI1053
 11039 2fac 02       		.byte	.LVU1234
 11040 2fad 4E000000 		.4byte	.LBB1053
 11041 2fb1 08000000 		.4byte	.LBE1053-.LBB1053
 11042 2fb5 01       		.byte	0x1
 11043 2fb6 C2       		.byte	0xc2
 11044 2fb7 05       		.byte	0x5
 11045 2fb8 E32F0000 		.4byte	0x2fe3
 11046 2fbc 24       		.uleb128 0x24
 11047 2fbd 98350000 		.4byte	0x3598
 11048 2fc1 FE0C0000 		.4byte	.LLST142
 11049 2fc5 FC0C0000 		.4byte	.LVUS142
 11050 2fc9 25       		.uleb128 0x25
 11051 2fca 56000000 		.4byte	.LVL253
 11052 2fce 7D370000 		.4byte	0x377d
 11053 2fd2 26       		.uleb128 0x26
 11054 2fd3 01       		.uleb128 0x1
 11055 2fd4 50       		.byte	0x50
 11056 2fd5 02       		.uleb128 0x2
 11057 2fd6 77       		.byte	0x77
 11058 2fd7 00       		.sleb128 0
 11059 2fd8 26       		.uleb128 0x26
 11060 2fd9 01       		.uleb128 0x1
ARM GAS  /tmp/ccuqlnP4.s 			page 197


 11061 2fda 51       		.byte	0x51
 11062 2fdb 05       		.uleb128 0x5
 11063 2fdc 03       		.byte	0x3
 11064 2fdd 00000000 		.4byte	.LC20
 11065 2fe1 00       		.byte	0
 11066 2fe2 00       		.byte	0
 11067 2fe3 3A       		.uleb128 0x3a
 11068 2fe4 A6350000 		.4byte	0x35a6
 11069 2fe8 56000000 		.4byte	.LBI1055
 11070 2fec 02       		.byte	.LVU1238
 11071 2fed 56000000 		.4byte	.LBB1055
 11072 2ff1 08000000 		.4byte	.LBE1055-.LBB1055
 11073 2ff5 01       		.byte	0x1
 11074 2ff6 C3       		.byte	0xc3
 11075 2ff7 05       		.byte	0x5
 11076 2ff8 22300000 		.4byte	0x3022
 11077 2ffc 24       		.uleb128 0x24
 11078 2ffd B4350000 		.4byte	0x35b4
 11079 3001 1C0D0000 		.4byte	.LLST143
 11080 3005 160D0000 		.4byte	.LVUS143
 11081 3009 25       		.uleb128 0x25
 11082 300a 5E000000 		.4byte	.LVL255
 11083 300e 7D370000 		.4byte	0x377d
 11084 3012 26       		.uleb128 0x26
 11085 3013 01       		.uleb128 0x1
 11086 3014 50       		.byte	0x50
 11087 3015 02       		.uleb128 0x2
 11088 3016 76       		.byte	0x76
 11089 3017 00       		.sleb128 0
 11090 3018 26       		.uleb128 0x26
 11091 3019 01       		.uleb128 0x1
 11092 301a 51       		.byte	0x51
 11093 301b 04       		.uleb128 0x4
 11094 301c 74       		.byte	0x74
 11095 301d 00       		.sleb128 0
 11096 301e 31       		.byte	0x31
 11097 301f 24       		.byte	0x24
 11098 3020 00       		.byte	0
 11099 3021 00       		.byte	0
 11100 3022 2E       		.uleb128 0x2e
 11101 3023 6E350000 		.4byte	0x356e
 11102 3027 5E000000 		.4byte	.LBI1057
 11103 302b 02       		.byte	.LVU1243
 11104 302c 500E0000 		.4byte	.Ldebug_ranges0+0xe50
 11105 3030 01       		.byte	0x1
 11106 3031 C4       		.byte	0xc4
 11107 3032 05       		.byte	0x5
 11108 3033 60300000 		.4byte	0x3060
 11109 3037 29       		.uleb128 0x29
 11110 3038 7C350000 		.4byte	0x357c
 11111 303c 06       		.uleb128 0x6
 11112 303d 03       		.byte	0x3
 11113 303e 00000000 		.4byte	.LC17
 11114 3042 9F       		.byte	0x9f
 11115 3043 2A       		.uleb128 0x2a
 11116 3044 6C000000 		.4byte	.LVL257
 11117 3048 7D370000 		.4byte	0x377d
ARM GAS  /tmp/ccuqlnP4.s 			page 198


 11118 304c 26       		.uleb128 0x26
 11119 304d 01       		.uleb128 0x1
 11120 304e 50       		.byte	0x50
 11121 304f 05       		.uleb128 0x5
 11122 3050 03       		.byte	0x3
 11123 3051 20000000 		.4byte	.LC4
 11124 3055 26       		.uleb128 0x26
 11125 3056 01       		.uleb128 0x1
 11126 3057 51       		.byte	0x51
 11127 3058 05       		.uleb128 0x5
 11128 3059 03       		.byte	0x3
 11129 305a 00000000 		.4byte	.LC17
 11130 305e 00       		.byte	0
 11131 305f 00       		.byte	0
 11132 3060 32       		.uleb128 0x32
 11133 3061 28000000 		.4byte	.LVL246
 11134 3065 02380000 		.4byte	0x3802
 11135 3069 85300000 		.4byte	0x3085
 11136 306d 26       		.uleb128 0x26
 11137 306e 01       		.uleb128 0x1
 11138 306f 51       		.byte	0x51
 11139 3070 03       		.uleb128 0x3
 11140 3071 0A       		.byte	0xa
 11141 3072 7001     		.2byte	0x170
 11142 3074 26       		.uleb128 0x26
 11143 3075 01       		.uleb128 0x1
 11144 3076 53       		.byte	0x53
 11145 3077 05       		.uleb128 0x5
 11146 3078 03       		.byte	0x3
 11147 3079 00000000 		.4byte	bmk_thread1
 11148 307d 26       		.uleb128 0x26
 11149 307e 02       		.uleb128 0x2
 11150 307f 7D       		.byte	0x7d
 11151 3080 00       		.sleb128 0
 11152 3081 02       		.uleb128 0x2
 11153 3082 74       		.byte	0x74
 11154 3083 00       		.sleb128 0
 11155 3084 00       		.byte	0
 11156 3085 30       		.uleb128 0x30
 11157 3086 34000000 		.4byte	.LVL247
 11158 308a B9320000 		.4byte	0x32b9
 11159 308e 30       		.uleb128 0x30
 11160 308f 3A000000 		.4byte	.LVL249
 11161 3093 28380000 		.4byte	0x3828
 11162 3097 00       		.byte	0
 11163 3098 38       		.uleb128 0x38
 11164 3099 26010000 		.4byte	.LASF171
 11165 309d 01       		.byte	0x1
 11166 309e 7F       		.byte	0x7f
 11167 309f 08       		.byte	0x8
 11168 30a0 00000000 		.4byte	.LFB410
 11169 30a4 2C000000 		.4byte	.LFE410-.LFB410
 11170 30a8 01       		.uleb128 0x1
 11171 30a9 9C       		.byte	0x9c
 11172 30aa 11310000 		.4byte	0x3111
 11173 30ae 3B       		.uleb128 0x3b
 11174 30af 7000     		.ascii	"p\000"
ARM GAS  /tmp/ccuqlnP4.s 			page 199


 11175 30b1 01       		.byte	0x1
 11176 30b2 7F       		.byte	0x7f
 11177 30b3 08       		.byte	0x8
 11178 30b4 82050000 		.4byte	0x582
 11179 30b8 530D0000 		.4byte	.LLST59
 11180 30bc 4D0D0000 		.4byte	.LVUS59
 11181 30c0 2E       		.uleb128 0x2e
 11182 30c1 41360000 		.4byte	0x3641
 11183 30c5 1E000000 		.4byte	.LBI644
 11184 30c9 01       		.byte	.LVU498
 11185 30ca 40050000 		.4byte	.Ldebug_ranges0+0x540
 11186 30ce 01       		.byte	0x1
 11187 30cf 8A       		.byte	0x8a
 11188 30d0 0C       		.byte	0xc
 11189 30d1 EC300000 		.4byte	0x30ec
 11190 30d5 37       		.uleb128 0x37
 11191 30d6 5D360000 		.4byte	0x365d
 11192 30da 1E000000 		.4byte	.LBI646
 11193 30de 03       		.byte	.LVU500
 11194 30df 1E000000 		.4byte	.LBB646
 11195 30e3 00000000 		.4byte	.LBE646-.LBB646
 11196 30e7 06       		.byte	0x6
 11197 30e8 A001     		.2byte	0x1a0
 11198 30ea 12       		.byte	0x12
 11199 30eb 00       		.byte	0
 11200 30ec 30       		.uleb128 0x30
 11201 30ed 0A000000 		.4byte	.LVL116
 11202 30f1 66380000 		.4byte	0x3866
 11203 30f5 30       		.uleb128 0x30
 11204 30f6 0E000000 		.4byte	.LVL117
 11205 30fa 66380000 		.4byte	0x3866
 11206 30fe 30       		.uleb128 0x30
 11207 30ff 12000000 		.4byte	.LVL118
 11208 3103 66380000 		.4byte	0x3866
 11209 3107 30       		.uleb128 0x30
 11210 3108 16000000 		.4byte	.LVL119
 11211 310c 66380000 		.4byte	0x3866
 11212 3110 00       		.byte	0
 11213 3111 38       		.uleb128 0x38
 11214 3112 6D080000 		.4byte	.LASF172
 11215 3116 01       		.byte	0x1
 11216 3117 77       		.byte	0x77
 11217 3118 08       		.byte	0x8
 11218 3119 00000000 		.4byte	.LFB409
 11219 311d 2C000000 		.4byte	.LFE409-.LFB409
 11220 3121 01       		.uleb128 0x1
 11221 3122 9C       		.byte	0x9c
 11222 3123 72310000 		.4byte	0x3172
 11223 3127 3B       		.uleb128 0x3b
 11224 3128 7000     		.ascii	"p\000"
 11225 312a 01       		.byte	0x1
 11226 312b 77       		.byte	0x77
 11227 312c 08       		.byte	0x8
 11228 312d 82050000 		.4byte	0x582
 11229 3131 830D0000 		.4byte	.LLST35
 11230 3135 7F0D0000 		.4byte	.LVUS35
 11231 3139 2E       		.uleb128 0x2e
ARM GAS  /tmp/ccuqlnP4.s 			page 200


 11232 313a 41360000 		.4byte	0x3641
 11233 313e 00000000 		.4byte	.LBI508
 11234 3142 04       		.byte	.LVU232
 11235 3143 08020000 		.4byte	.Ldebug_ranges0+0x208
 11236 3147 01       		.byte	0x1
 11237 3148 7A       		.byte	0x7a
 11238 3149 0B       		.byte	0xb
 11239 314a 61310000 		.4byte	0x3161
 11240 314e 36       		.uleb128 0x36
 11241 314f 5D360000 		.4byte	0x365d
 11242 3153 00000000 		.4byte	.LBI510
 11243 3157 06       		.byte	.LVU234
 11244 3158 28020000 		.4byte	.Ldebug_ranges0+0x228
 11245 315c 06       		.byte	0x6
 11246 315d A001     		.2byte	0x1a0
 11247 315f 12       		.byte	0x12
 11248 3160 00       		.byte	0
 11249 3161 25       		.uleb128 0x25
 11250 3162 16000000 		.4byte	.LVL60
 11251 3166 C6370000 		.4byte	0x37c6
 11252 316a 26       		.uleb128 0x26
 11253 316b 01       		.uleb128 0x1
 11254 316c 50       		.byte	0x50
 11255 316d 02       		.uleb128 0x2
 11256 316e 75       		.byte	0x75
 11257 316f 00       		.sleb128 0
 11258 3170 00       		.byte	0
 11259 3171 00       		.byte	0
 11260 3172 38       		.uleb128 0x38
 11261 3173 61080000 		.4byte	.LASF173
 11262 3177 01       		.byte	0x1
 11263 3178 69       		.byte	0x69
 11264 3179 08       		.byte	0x8
 11265 317a 00000000 		.4byte	.LFB408
 11266 317e 24000000 		.4byte	.LFE408-.LFB408
 11267 3182 01       		.uleb128 0x1
 11268 3183 9C       		.byte	0x9c
 11269 3184 7F320000 		.4byte	0x327f
 11270 3188 3B       		.uleb128 0x3b
 11271 3189 7000     		.ascii	"p\000"
 11272 318b 01       		.byte	0x1
 11273 318c 69       		.byte	0x69
 11274 318d 08       		.byte	0x8
 11275 318e 82050000 		.4byte	0x582
 11276 3192 A80D0000 		.4byte	.LLST109
 11277 3196 A40D0000 		.4byte	.LVUS109
 11278 319a 39       		.uleb128 0x39
 11279 319b 6D736700 		.ascii	"msg\000"
 11280 319f 01       		.byte	0x1
 11281 31a0 6A       		.byte	0x6a
 11282 31a1 09       		.byte	0x9
 11283 31a2 30010000 		.4byte	0x130
 11284 31a6 CB0D0000 		.4byte	.LLST110
 11285 31aa C90D0000 		.4byte	.LVUS110
 11286 31ae 3C       		.uleb128 0x3c
 11287 31af 3A040000 		.4byte	.LASF174
 11288 31b3 01       		.byte	0x1
ARM GAS  /tmp/ccuqlnP4.s 			page 201


 11289 31b4 6B       		.byte	0x6b
 11290 31b5 0D       		.byte	0xd
 11291 31b6 FD050000 		.4byte	0x5fd
 11292 31ba E10D0000 		.4byte	.LLST111
 11293 31be DF0D0000 		.4byte	.LVUS111
 11294 31c2 3D       		.uleb128 0x3d
 11295 31c3 5D360000 		.4byte	0x365d
 11296 31c7 00000000 		.4byte	.LBI875
 11297 31cb 03       		.byte	.LVU903
 11298 31cc A00A0000 		.4byte	.Ldebug_ranges0+0xaa0
 11299 31d0 01       		.byte	0x1
 11300 31d1 6B       		.byte	0x6b
 11301 31d2 14       		.byte	0x14
 11302 31d3 2E       		.uleb128 0x2e
 11303 31d4 CF360000 		.4byte	0x36cf
 11304 31d8 08000000 		.4byte	.LBI878
 11305 31dc 03       		.byte	.LVU912
 11306 31dd B80A0000 		.4byte	.Ldebug_ranges0+0xab8
 11307 31e1 01       		.byte	0x1
 11308 31e2 6E       		.byte	0x6e
 11309 31e3 03       		.byte	0x3
 11310 31e4 1C320000 		.4byte	0x321c
 11311 31e8 28       		.uleb128 0x28
 11312 31e9 F0360000 		.4byte	0x36f0
 11313 31ed 08000000 		.4byte	.LBI880
 11314 31f1 05       		.byte	.LVU914
 11315 31f2 D80A0000 		.4byte	.Ldebug_ranges0+0xad8
 11316 31f6 08       		.byte	0x8
 11317 31f7 9901     		.2byte	0x199
 11318 31f9 03       		.byte	0x3
 11319 31fa 28       		.uleb128 0x28
 11320 31fb FA360000 		.4byte	0x36fa
 11321 31ff 08000000 		.4byte	.LBI881
 11322 3203 07       		.byte	.LVU916
 11323 3204 F80A0000 		.4byte	.Ldebug_ranges0+0xaf8
 11324 3208 09       		.byte	0x9
 11325 3209 2E03     		.2byte	0x32e
 11326 320b 03       		.byte	0x3
 11327 320c 24       		.uleb128 0x24
 11328 320d 08370000 		.4byte	0x3708
 11329 3211 F60D0000 		.4byte	.LLST112
 11330 3215 F40D0000 		.4byte	.LVUS112
 11331 3219 00       		.byte	0
 11332 321a 00       		.byte	0
 11333 321b 00       		.byte	0
 11334 321c 2E       		.uleb128 0x2e
 11335 321d A2360000 		.4byte	0x36a2
 11336 3221 18000000 		.4byte	.LBI892
 11337 3225 01       		.byte	.LVU928
 11338 3226 100B0000 		.4byte	.Ldebug_ranges0+0xb10
 11339 322a 01       		.byte	0x1
 11340 322b 73       		.byte	0x73
 11341 322c 03       		.byte	0x3
 11342 322d 6F320000 		.4byte	0x326f
 11343 3231 34       		.uleb128 0x34
 11344 3232 100B0000 		.4byte	.Ldebug_ranges0+0xb10
 11345 3236 28       		.uleb128 0x28
ARM GAS  /tmp/ccuqlnP4.s 			page 202


 11346 3237 E6360000 		.4byte	0x36e6
 11347 323b 18000000 		.4byte	.LBI894
 11348 323f 08       		.byte	.LVU935
 11349 3240 100B0000 		.4byte	.Ldebug_ranges0+0xb10
 11350 3244 08       		.byte	0x8
 11351 3245 B201     		.2byte	0x1b2
 11352 3247 03       		.byte	0x3
 11353 3248 35       		.uleb128 0x35
 11354 3249 FA360000 		.4byte	0x36fa
 11355 324d 18000000 		.4byte	.LBI895
 11356 3251 0A       		.byte	.LVU937
 11357 3252 18000000 		.4byte	.LBB895
 11358 3256 06000000 		.4byte	.LBE895-.LBB895
 11359 325a 09       		.byte	0x9
 11360 325b 4103     		.2byte	0x341
 11361 325d 03       		.byte	0x3
 11362 325e 24       		.uleb128 0x24
 11363 325f 08370000 		.4byte	0x3708
 11364 3263 0D0E0000 		.4byte	.LLST113
 11365 3267 0B0E0000 		.4byte	.LVUS113
 11366 326b 00       		.byte	0
 11367 326c 00       		.byte	0
 11368 326d 00       		.byte	0
 11369 326e 00       		.byte	0
 11370 326f 25       		.uleb128 0x25
 11371 3270 12000000 		.4byte	.LVL199
 11372 3274 73380000 		.4byte	0x3873
 11373 3278 26       		.uleb128 0x26
 11374 3279 01       		.uleb128 0x1
 11375 327a 50       		.byte	0x50
 11376 327b 01       		.uleb128 0x1
 11377 327c 33       		.byte	0x33
 11378 327d 00       		.byte	0
 11379 327e 00       		.byte	0
 11380 327f 38       		.uleb128 0x38
 11381 3280 55080000 		.4byte	.LASF175
 11382 3284 01       		.byte	0x1
 11383 3285 64       		.byte	0x64
 11384 3286 08       		.byte	0x8
 11385 3287 00000000 		.4byte	.LFB407
 11386 328b 04000000 		.4byte	.LFE407-.LFB407
 11387 328f 01       		.uleb128 0x1
 11388 3290 9C       		.byte	0x9c
 11389 3291 B9320000 		.4byte	0x32b9
 11390 3295 3B       		.uleb128 0x3b
 11391 3296 7000     		.ascii	"p\000"
 11392 3298 01       		.byte	0x1
 11393 3299 64       		.byte	0x64
 11394 329a 08       		.byte	0x8
 11395 329b 82050000 		.4byte	0x582
 11396 329f 250E0000 		.4byte	.LLST84
 11397 32a3 210E0000 		.4byte	.LVUS84
 11398 32a7 2A       		.uleb128 0x2a
 11399 32a8 04000000 		.4byte	.LVL157
 11400 32ac 7F380000 		.4byte	0x387f
 11401 32b0 26       		.uleb128 0x26
 11402 32b1 01       		.uleb128 0x1
ARM GAS  /tmp/ccuqlnP4.s 			page 203


 11403 32b2 50       		.byte	0x50
 11404 32b3 03       		.uleb128 0x3
 11405 32b4 F3       		.byte	0xf3
 11406 32b5 01       		.uleb128 0x1
 11407 32b6 50       		.byte	0x50
 11408 32b7 00       		.byte	0
 11409 32b8 00       		.byte	0
 11410 32b9 3E       		.uleb128 0x3e
 11411 32ba 2B0B0000 		.4byte	.LASF231
 11412 32be 01       		.byte	0x1
 11413 32bf 52       		.byte	0x52
 11414 32c0 1E       		.byte	0x1e
 11415 32c1 38000000 		.4byte	0x38
 11416 32c5 00000000 		.4byte	.LFB406
 11417 32c9 32000000 		.4byte	.LFE406-.LFB406
 11418 32cd 01       		.uleb128 0x1
 11419 32ce 9C       		.byte	0x9c
 11420 32cf EA330000 		.4byte	0x33ea
 11421 32d3 3B       		.uleb128 0x3b
 11422 32d4 747000   		.ascii	"tp\000"
 11423 32d7 01       		.byte	0x1
 11424 32d8 52       		.byte	0x52
 11425 32d9 36       		.byte	0x36
 11426 32da FD050000 		.4byte	0x5fd
 11427 32de 4A0E0000 		.4byte	.LLST121
 11428 32e2 460E0000 		.4byte	.LVUS121
 11429 32e6 3C       		.uleb128 0x3c
 11430 32e7 BA0A0000 		.4byte	.LASF157
 11431 32eb 01       		.byte	0x1
 11432 32ec 53       		.byte	0x53
 11433 32ed 0D       		.byte	0xd
 11434 32ee 4B030000 		.4byte	0x34b
 11435 32f2 6C0E0000 		.4byte	.LLST122
 11436 32f6 680E0000 		.4byte	.LVUS122
 11437 32fa 39       		.uleb128 0x39
 11438 32fb 656E6400 		.ascii	"end\000"
 11439 32ff 01       		.byte	0x1
 11440 3300 53       		.byte	0x53
 11441 3301 14       		.byte	0x14
 11442 3302 4B030000 		.4byte	0x34b
 11443 3306 8E0E0000 		.4byte	.LLST123
 11444 330a 8A0E0000 		.4byte	.LVUS123
 11445 330e 39       		.uleb128 0x39
 11446 330f 6E00     		.ascii	"n\000"
 11447 3311 01       		.byte	0x1
 11448 3312 55       		.byte	0x55
 11449 3313 0C       		.byte	0xc
 11450 3314 CB000000 		.4byte	0xcb
 11451 3318 B80E0000 		.4byte	.LLST124
 11452 331c B40E0000 		.4byte	.LVUS124
 11453 3320 2E       		.uleb128 0x2e
 11454 3321 6B360000 		.4byte	0x366b
 11455 3325 24000000 		.4byte	.LBI938
 11456 3329 01       		.byte	.LVU1014
 11457 332a F80B0000 		.4byte	.Ldebug_ranges0+0xbf8
 11458 332e 01       		.byte	0x1
 11459 332f 5E       		.byte	0x5e
ARM GAS  /tmp/ccuqlnP4.s 			page 204


 11460 3330 0C       		.byte	0xc
 11461 3331 B2330000 		.4byte	0x33b2
 11462 3335 24       		.uleb128 0x24
 11463 3336 88360000 		.4byte	0x3688
 11464 333a D90E0000 		.4byte	.LLST125
 11465 333e D70E0000 		.4byte	.LVUS125
 11466 3342 24       		.uleb128 0x24
 11467 3343 7C360000 		.4byte	0x367c
 11468 3347 F20E0000 		.4byte	.LLST126
 11469 334b F00E0000 		.4byte	.LVUS126
 11470 334f 2E       		.uleb128 0x2e
 11471 3350 95360000 		.4byte	0x3695
 11472 3354 24000000 		.4byte	.LBI939
 11473 3358 03       		.byte	.LVU1016
 11474 3359 200C0000 		.4byte	.Ldebug_ranges0+0xc20
 11475 335d 05       		.byte	0x5
 11476 335e B3       		.byte	0xb3
 11477 335f 0A       		.byte	0xa
 11478 3360 80330000 		.4byte	0x3380
 11479 3364 2F       		.uleb128 0x2f
 11480 3365 D9360000 		.4byte	0x36d9
 11481 3369 24000000 		.4byte	.LBI940
 11482 336d 05       		.byte	.LVU1018
 11483 336e 400C0000 		.4byte	.Ldebug_ranges0+0xc40
 11484 3372 05       		.byte	0x5
 11485 3373 7F       		.byte	0x7f
 11486 3374 0A       		.byte	0xa
 11487 3375 30       		.uleb128 0x30
 11488 3376 1C000000 		.4byte	.LVL215
 11489 337a 8A370000 		.4byte	0x378a
 11490 337e 00       		.byte	0
 11491 337f 00       		.byte	0
 11492 3380 2F       		.uleb128 0x2f
 11493 3381 16370000 		.4byte	0x3716
 11494 3385 24000000 		.4byte	.LBI944
 11495 3389 08       		.byte	.LVU1021
 11496 338a 580C0000 		.4byte	.Ldebug_ranges0+0xc58
 11497 338e 05       		.byte	0x5
 11498 338f B3       		.byte	0xb3
 11499 3390 0A       		.byte	0xa
 11500 3391 24       		.uleb128 0x24
 11501 3392 42370000 		.4byte	0x3742
 11502 3396 070F0000 		.4byte	.LLST127
 11503 339a 050F0000 		.4byte	.LVUS127
 11504 339e 24       		.uleb128 0x24
 11505 339f 35370000 		.4byte	0x3735
 11506 33a3 200F0000 		.4byte	.LLST128
 11507 33a7 1E0F0000 		.4byte	.LVUS128
 11508 33ab 31       		.uleb128 0x31
 11509 33ac 28370000 		.4byte	0x3728
 11510 33b0 00       		.byte	0
 11511 33b1 00       		.byte	0
 11512 33b2 30       		.uleb128 0x30
 11513 33b3 08000000 		.4byte	.LVL211
 11514 33b7 96370000 		.4byte	0x3796
 11515 33bb 32       		.uleb128 0x32
 11516 33bc 18000000 		.4byte	.LVL214
ARM GAS  /tmp/ccuqlnP4.s 			page 205


 11517 33c0 8C380000 		.4byte	0x388c
 11518 33c4 D4330000 		.4byte	0x33d4
 11519 33c8 26       		.uleb128 0x26
 11520 33c9 01       		.uleb128 0x1
 11521 33ca 50       		.byte	0x50
 11522 33cb 02       		.uleb128 0x2
 11523 33cc 75       		.byte	0x75
 11524 33cd 00       		.sleb128 0
 11525 33ce 26       		.uleb128 0x26
 11526 33cf 01       		.uleb128 0x1
 11527 33d0 51       		.byte	0x51
 11528 33d1 01       		.uleb128 0x1
 11529 33d2 31       		.byte	0x31
 11530 33d3 00       		.byte	0
 11531 33d4 25       		.uleb128 0x25
 11532 33d5 2E000000 		.4byte	.LVL217
 11533 33d9 8C380000 		.4byte	0x388c
 11534 33dd 26       		.uleb128 0x26
 11535 33de 01       		.uleb128 0x1
 11536 33df 50       		.byte	0x50
 11537 33e0 02       		.uleb128 0x2
 11538 33e1 75       		.byte	0x75
 11539 33e2 00       		.sleb128 0
 11540 33e3 26       		.uleb128 0x26
 11541 33e4 01       		.uleb128 0x1
 11542 33e5 51       		.byte	0x51
 11543 33e6 01       		.uleb128 0x1
 11544 33e7 30       		.byte	0x30
 11545 33e8 00       		.byte	0
 11546 33e9 00       		.byte	0
 11547 33ea 38       		.uleb128 0x38
 11548 33eb 49080000 		.4byte	.LASF176
 11549 33ef 01       		.byte	0x1
 11550 33f0 46       		.byte	0x46
 11551 33f1 08       		.byte	0x8
 11552 33f2 00000000 		.4byte	.LFB405
 11553 33f6 20000000 		.4byte	.LFE405-.LFB405
 11554 33fa 01       		.uleb128 0x1
 11555 33fb 9C       		.byte	0x9c
 11556 33fc 3B350000 		.4byte	0x353b
 11557 3400 3B       		.uleb128 0x3b
 11558 3401 7000     		.ascii	"p\000"
 11559 3403 01       		.byte	0x1
 11560 3404 46       		.byte	0x46
 11561 3405 08       		.byte	0x8
 11562 3406 82050000 		.4byte	0x582
 11563 340a 370F0000 		.4byte	.LLST114
 11564 340e 330F0000 		.4byte	.LVUS114
 11565 3412 39       		.uleb128 0x39
 11566 3413 747000   		.ascii	"tp\000"
 11567 3416 01       		.byte	0x1
 11568 3417 47       		.byte	0x47
 11569 3418 0D       		.byte	0xd
 11570 3419 FD050000 		.4byte	0x5fd
 11571 341d 5A0F0000 		.4byte	.LLST115
 11572 3421 580F0000 		.4byte	.LVUS115
 11573 3425 39       		.uleb128 0x39
ARM GAS  /tmp/ccuqlnP4.s 			page 206


 11574 3426 6D736700 		.ascii	"msg\000"
 11575 342a 01       		.byte	0x1
 11576 342b 48       		.byte	0x48
 11577 342c 09       		.byte	0x9
 11578 342d 30010000 		.4byte	0x130
 11579 3431 6F0F0000 		.4byte	.LLST116
 11580 3435 6D0F0000 		.4byte	.LVUS116
 11581 3439 2E       		.uleb128 0x2e
 11582 343a FB350000 		.4byte	0x35fb
 11583 343e 06000000 		.4byte	.LBI900
 11584 3442 06       		.byte	.LVU951
 11585 3443 280B0000 		.4byte	.Ldebug_ranges0+0xb28
 11586 3447 01       		.byte	0x1
 11587 3448 4C       		.byte	0x4c
 11588 3449 0A       		.byte	0xa
 11589 344a 03350000 		.4byte	0x3503
 11590 344e 34       		.uleb128 0x34
 11591 344f 280B0000 		.4byte	.Ldebug_ranges0+0xb28
 11592 3453 3F       		.uleb128 0x3f
 11593 3454 0C360000 		.4byte	0x360c
 11594 3458 840F0000 		.4byte	.LLST117
 11595 345c 820F0000 		.4byte	.LVUS117
 11596 3460 2E       		.uleb128 0x2e
 11597 3461 CF360000 		.4byte	0x36cf
 11598 3465 06000000 		.4byte	.LBI902
 11599 3469 09       		.byte	.LVU954
 11600 346a 600B0000 		.4byte	.Ldebug_ranges0+0xb60
 11601 346e 0B       		.byte	0xb
 11602 346f 62       		.byte	0x62
 11603 3470 03       		.byte	0x3
 11604 3471 A9340000 		.4byte	0x34a9
 11605 3475 28       		.uleb128 0x28
 11606 3476 F0360000 		.4byte	0x36f0
 11607 347a 06000000 		.4byte	.LBI903
 11608 347e 0B       		.byte	.LVU956
 11609 347f 880B0000 		.4byte	.Ldebug_ranges0+0xb88
 11610 3483 08       		.byte	0x8
 11611 3484 9901     		.2byte	0x199
 11612 3486 03       		.byte	0x3
 11613 3487 28       		.uleb128 0x28
 11614 3488 FA360000 		.4byte	0x36fa
 11615 348c 06000000 		.4byte	.LBI904
 11616 3490 0D       		.byte	.LVU958
 11617 3491 A80B0000 		.4byte	.Ldebug_ranges0+0xba8
 11618 3495 09       		.byte	0x9
 11619 3496 2E03     		.2byte	0x32e
 11620 3498 03       		.byte	0x3
 11621 3499 24       		.uleb128 0x24
 11622 349a 08370000 		.4byte	0x3708
 11623 349e 990F0000 		.4byte	.LLST118
 11624 34a2 970F0000 		.4byte	.LVUS118
 11625 34a6 00       		.byte	0
 11626 34a7 00       		.byte	0
 11627 34a8 00       		.byte	0
 11628 34a9 2E       		.uleb128 0x2e
 11629 34aa A2360000 		.4byte	0x36a2
 11630 34ae 0E000000 		.4byte	.LBI910
ARM GAS  /tmp/ccuqlnP4.s 			page 207


 11631 34b2 01       		.byte	.LVU966
 11632 34b3 C00B0000 		.4byte	.Ldebug_ranges0+0xbc0
 11633 34b7 0B       		.byte	0xb
 11634 34b8 64       		.byte	0x64
 11635 34b9 03       		.byte	0x3
 11636 34ba F8340000 		.4byte	0x34f8
 11637 34be 34       		.uleb128 0x34
 11638 34bf C00B0000 		.4byte	.Ldebug_ranges0+0xbc0
 11639 34c3 28       		.uleb128 0x28
 11640 34c4 E6360000 		.4byte	0x36e6
 11641 34c8 0E000000 		.4byte	.LBI912
 11642 34cc 08       		.byte	.LVU973
 11643 34cd C00B0000 		.4byte	.Ldebug_ranges0+0xbc0
 11644 34d1 08       		.byte	0x8
 11645 34d2 B201     		.2byte	0x1b2
 11646 34d4 03       		.byte	0x3
 11647 34d5 28       		.uleb128 0x28
 11648 34d6 FA360000 		.4byte	0x36fa
 11649 34da 0E000000 		.4byte	.LBI913
 11650 34de 0A       		.byte	.LVU975
 11651 34df E00B0000 		.4byte	.Ldebug_ranges0+0xbe0
 11652 34e3 09       		.byte	0x9
 11653 34e4 4103     		.2byte	0x341
 11654 34e6 03       		.byte	0x3
 11655 34e7 24       		.uleb128 0x24
 11656 34e8 08370000 		.4byte	0x3708
 11657 34ec B00F0000 		.4byte	.LLST119
 11658 34f0 AE0F0000 		.4byte	.LVUS119
 11659 34f4 00       		.byte	0
 11660 34f5 00       		.byte	0
 11661 34f6 00       		.byte	0
 11662 34f7 00       		.byte	0
 11663 34f8 30       		.uleb128 0x30
 11664 34f9 0E000000 		.4byte	.LVL206
 11665 34fd 98380000 		.4byte	0x3898
 11666 3501 00       		.byte	0
 11667 3502 00       		.byte	0
 11668 3503 3A       		.uleb128 0x3a
 11669 3504 C0350000 		.4byte	0x35c0
 11670 3508 12000000 		.4byte	.LBI936
 11671 350c 04       		.byte	.LVU981
 11672 350d 12000000 		.4byte	.LBB936
 11673 3511 02000000 		.4byte	.LBE936-.LBB936
 11674 3515 01       		.byte	0x1
 11675 3516 4D       		.byte	0x4d
 11676 3517 0B       		.byte	0xb
 11677 3518 2A350000 		.4byte	0x352a
 11678 351c 24       		.uleb128 0x24
 11679 351d D1350000 		.4byte	0x35d1
 11680 3521 C60F0000 		.4byte	.LLST120
 11681 3525 C40F0000 		.4byte	.LVUS120
 11682 3529 00       		.byte	0
 11683 352a 25       		.uleb128 0x25
 11684 352b 1A000000 		.4byte	.LVL209
 11685 352f A4380000 		.4byte	0x38a4
 11686 3533 26       		.uleb128 0x26
 11687 3534 01       		.uleb128 0x1
ARM GAS  /tmp/ccuqlnP4.s 			page 208


 11688 3535 51       		.byte	0x51
 11689 3536 02       		.uleb128 0x2
 11690 3537 74       		.byte	0x74
 11691 3538 00       		.sleb128 0
 11692 3539 00       		.byte	0
 11693 353a 00       		.byte	0
 11694 353b 40       		.uleb128 0x40
 11695 353c 746D6F00 		.ascii	"tmo\000"
 11696 3540 01       		.byte	0x1
 11697 3541 3F       		.byte	0x3f
 11698 3542 0D       		.byte	0xd
 11699 3543 00000000 		.4byte	.LFB404
 11700 3547 02000000 		.4byte	.LFE404-.LFB404
 11701 354b 01       		.uleb128 0x1
 11702 354c 9C       		.byte	0x9c
 11703 354d 6E350000 		.4byte	0x356e
 11704 3551 41       		.uleb128 0x41
 11705 3552 76747000 		.ascii	"vtp\000"
 11706 3556 01       		.byte	0x1
 11707 3557 3F       		.byte	0x3f
 11708 3558 22       		.byte	0x22
 11709 3559 7C050000 		.4byte	0x57c
 11710 355d 01       		.uleb128 0x1
 11711 355e 50       		.byte	0x50
 11712 355f 42       		.uleb128 0x42
 11713 3560 4B040000 		.4byte	.LASF177
 11714 3564 01       		.byte	0x1
 11715 3565 3F       		.byte	0x3f
 11716 3566 2D       		.byte	0x2d
 11717 3567 82050000 		.4byte	0x582
 11718 356b 01       		.uleb128 0x1
 11719 356c 51       		.byte	0x51
 11720 356d 00       		.byte	0
 11721 356e 43       		.uleb128 0x43
 11722 356f D80A0000 		.4byte	.LASF178
 11723 3573 02       		.byte	0x2
 11724 3574 7D01     		.2byte	0x17d
 11725 3576 14       		.byte	0x14
 11726 3577 03       		.byte	0x3
 11727 3578 8A350000 		.4byte	0x358a
 11728 357c 44       		.uleb128 0x44
 11729 357d AF080000 		.4byte	.LASF180
 11730 3581 02       		.byte	0x2
 11731 3582 7D01     		.2byte	0x17d
 11732 3584 2D       		.byte	0x2d
 11733 3585 28030000 		.4byte	0x328
 11734 3589 00       		.byte	0
 11735 358a 43       		.uleb128 0x43
 11736 358b C5010000 		.4byte	.LASF179
 11737 358f 02       		.byte	0x2
 11738 3590 7101     		.2byte	0x171
 11739 3592 14       		.byte	0x14
 11740 3593 03       		.byte	0x3
 11741 3594 A6350000 		.4byte	0x35a6
 11742 3598 44       		.uleb128 0x44
 11743 3599 AF080000 		.4byte	.LASF180
 11744 359d 02       		.byte	0x2
ARM GAS  /tmp/ccuqlnP4.s 			page 209


 11745 359e 7101     		.2byte	0x171
 11746 35a0 2B       		.byte	0x2b
 11747 35a1 28030000 		.4byte	0x328
 11748 35a5 00       		.byte	0
 11749 35a6 43       		.uleb128 0x43
 11750 35a7 9B020000 		.4byte	.LASF181
 11751 35ab 02       		.byte	0x2
 11752 35ac 6501     		.2byte	0x165
 11753 35ae 14       		.byte	0x14
 11754 35af 03       		.byte	0x3
 11755 35b0 C0350000 		.4byte	0x35c0
 11756 35b4 45       		.uleb128 0x45
 11757 35b5 6E00     		.ascii	"n\000"
 11758 35b7 02       		.byte	0x2
 11759 35b8 6501     		.2byte	0x165
 11760 35ba 29       		.byte	0x29
 11761 35bb CB000000 		.4byte	0xcb
 11762 35bf 00       		.byte	0
 11763 35c0 46       		.uleb128 0x46
 11764 35c1 460B0000 		.4byte	.LASF182
 11765 35c5 0B       		.byte	0xb
 11766 35c6 BE       		.byte	0xbe
 11767 35c7 15       		.byte	0x15
 11768 35c8 30010000 		.4byte	0x130
 11769 35cc 03       		.byte	0x3
 11770 35cd E6350000 		.4byte	0x35e6
 11771 35d1 47       		.uleb128 0x47
 11772 35d2 747000   		.ascii	"tp\000"
 11773 35d5 0B       		.byte	0xb
 11774 35d6 BE       		.byte	0xbe
 11775 35d7 28       		.byte	0x28
 11776 35d8 FD050000 		.4byte	0x5fd
 11777 35dc 48       		.uleb128 0x48
 11778 35dd C8000000 		.4byte	.LASF191
 11779 35e1 F6350000 		.4byte	0x35f6
 11780 35e5 00       		.byte	0
 11781 35e6 18       		.uleb128 0x18
 11782 35e7 3A030000 		.4byte	0x33a
 11783 35eb F6350000 		.4byte	0x35f6
 11784 35ef 19       		.uleb128 0x19
 11785 35f0 38000000 		.4byte	0x38
 11786 35f4 08       		.byte	0x8
 11787 35f5 00       		.byte	0
 11788 35f6 05       		.uleb128 0x5
 11789 35f7 E6350000 		.4byte	0x35e6
 11790 35fb 46       		.uleb128 0x46
 11791 35fc 00060000 		.4byte	.LASF183
 11792 3600 0B       		.byte	0xb
 11793 3601 5F       		.byte	0x5f
 11794 3602 19       		.byte	0x19
 11795 3603 FD050000 		.4byte	0x5fd
 11796 3607 03       		.byte	0x3
 11797 3608 18360000 		.4byte	0x3618
 11798 360c 49       		.uleb128 0x49
 11799 360d 747000   		.ascii	"tp\000"
 11800 3610 0B       		.byte	0xb
 11801 3611 60       		.byte	0x60
ARM GAS  /tmp/ccuqlnP4.s 			page 210


 11802 3612 0D       		.byte	0xd
 11803 3613 FD050000 		.4byte	0x5fd
 11804 3617 00       		.byte	0
 11805 3618 4A       		.uleb128 0x4a
 11806 3619 98050000 		.4byte	.LASF184
 11807 361d 0A       		.byte	0xa
 11808 361e 7B       		.byte	0x7b
 11809 361f 14       		.byte	0x14
 11810 3620 03       		.byte	0x3
 11811 3621 3B360000 		.4byte	0x363b
 11812 3625 47       		.uleb128 0x47
 11813 3626 737000   		.ascii	"sp\000"
 11814 3629 0A       		.byte	0xa
 11815 362a 7B       		.byte	0x7b
 11816 362b 2C       		.byte	0x2c
 11817 362c 3B360000 		.4byte	0x363b
 11818 3630 47       		.uleb128 0x47
 11819 3631 6E00     		.ascii	"n\000"
 11820 3633 0A       		.byte	0xa
 11821 3634 7B       		.byte	0x7b
 11822 3635 36       		.byte	0x36
 11823 3636 48010000 		.4byte	0x148
 11824 363a 00       		.byte	0
 11825 363b 0D       		.uleb128 0xd
 11826 363c 04       		.byte	0x4
 11827 363d CE070000 		.4byte	0x7ce
 11828 3641 4B       		.uleb128 0x4b
 11829 3642 E40B0000 		.4byte	.LASF185
 11830 3646 06       		.byte	0x6
 11831 3647 9E01     		.2byte	0x19e
 11832 3649 14       		.byte	0x14
 11833 364a EC070000 		.4byte	0x7ec
 11834 364e 03       		.byte	0x3
 11835 364f 4B       		.uleb128 0x4b
 11836 3650 AB000000 		.4byte	.LASF186
 11837 3654 06       		.byte	0x6
 11838 3655 6201     		.2byte	0x162
 11839 3657 17       		.byte	0x17
 11840 3658 24010000 		.4byte	0x124
 11841 365c 03       		.byte	0x3
 11842 365d 4B       		.uleb128 0x4b
 11843 365e 160A0000 		.4byte	.LASF187
 11844 3662 06       		.byte	0x6
 11845 3663 5501     		.2byte	0x155
 11846 3665 19       		.byte	0x19
 11847 3666 FD050000 		.4byte	0x5fd
 11848 366a 03       		.byte	0x3
 11849 366b 46       		.uleb128 0x46
 11850 366c F0090000 		.4byte	.LASF188
 11851 3670 05       		.byte	0x5
 11852 3671 B1       		.byte	0xb1
 11853 3672 14       		.byte	0x14
 11854 3673 EC070000 		.4byte	0x7ec
 11855 3677 03       		.byte	0x3
 11856 3678 95360000 		.4byte	0x3695
 11857 367c 4C       		.uleb128 0x4c
 11858 367d BA0A0000 		.4byte	.LASF157
ARM GAS  /tmp/ccuqlnP4.s 			page 211


 11859 3681 05       		.byte	0x5
 11860 3682 B1       		.byte	0xb1
 11861 3683 36       		.byte	0x36
 11862 3684 4B030000 		.4byte	0x34b
 11863 3688 47       		.uleb128 0x47
 11864 3689 656E6400 		.ascii	"end\000"
 11865 368d 05       		.byte	0x5
 11866 368e B1       		.byte	0xb1
 11867 368f 47       		.byte	0x47
 11868 3690 4B030000 		.4byte	0x34b
 11869 3694 00       		.byte	0
 11870 3695 4D       		.uleb128 0x4d
 11871 3696 B4070000 		.4byte	.LASF189
 11872 369a 05       		.byte	0x5
 11873 369b 7A       		.byte	0x7a
 11874 369c 19       		.byte	0x19
 11875 369d 4B030000 		.4byte	0x34b
 11876 36a1 03       		.byte	0x3
 11877 36a2 43       		.uleb128 0x43
 11878 36a3 FB030000 		.4byte	.LASF190
 11879 36a7 08       		.byte	0x8
 11880 36a8 A501     		.2byte	0x1a5
 11881 36aa 14       		.byte	0x14
 11882 36ab 03       		.byte	0x3
 11883 36ac BA360000 		.4byte	0x36ba
 11884 36b0 48       		.uleb128 0x48
 11885 36b1 C8000000 		.4byte	.LASF191
 11886 36b5 CA360000 		.4byte	0x36ca
 11887 36b9 00       		.byte	0
 11888 36ba 18       		.uleb128 0x18
 11889 36bb 3A030000 		.4byte	0x33a
 11890 36bf CA360000 		.4byte	0x36ca
 11891 36c3 19       		.uleb128 0x19
 11892 36c4 38000000 		.4byte	0x38
 11893 36c8 0B       		.byte	0xb
 11894 36c9 00       		.byte	0
 11895 36ca 05       		.uleb128 0x5
 11896 36cb BA360000 		.4byte	0x36ba
 11897 36cf 4E       		.uleb128 0x4e
 11898 36d0 24040000 		.4byte	.LASF193
 11899 36d4 08       		.byte	0x8
 11900 36d5 9701     		.2byte	0x197
 11901 36d7 14       		.byte	0x14
 11902 36d8 03       		.byte	0x3
 11903 36d9 4D       		.uleb128 0x4d
 11904 36da 3F030000 		.4byte	.LASF192
 11905 36de 04       		.byte	0x4
 11906 36df 6F       		.byte	0x6f
 11907 36e0 19       		.byte	0x19
 11908 36e1 4B030000 		.4byte	0x34b
 11909 36e5 03       		.byte	0x3
 11910 36e6 4E       		.uleb128 0x4e
 11911 36e7 AD010000 		.4byte	.LASF194
 11912 36eb 09       		.byte	0x9
 11913 36ec 3E03     		.2byte	0x33e
 11914 36ee 1B       		.byte	0x1b
 11915 36ef 03       		.byte	0x3
ARM GAS  /tmp/ccuqlnP4.s 			page 212


 11916 36f0 4E       		.uleb128 0x4e
 11917 36f1 76090000 		.4byte	.LASF195
 11918 36f5 09       		.byte	0x9
 11919 36f6 2603     		.2byte	0x326
 11920 36f8 1B       		.byte	0x1b
 11921 36f9 03       		.byte	0x3
 11922 36fa 43       		.uleb128 0x43
 11923 36fb DD080000 		.4byte	.LASF196
 11924 36ff 07       		.byte	0x7
 11925 3700 EB01     		.2byte	0x1eb
 11926 3702 1B       		.byte	0x1b
 11927 3703 03       		.byte	0x3
 11928 3704 16370000 		.4byte	0x3716
 11929 3708 44       		.uleb128 0x44
 11930 3709 C4040000 		.4byte	.LASF197
 11931 370d 07       		.byte	0x7
 11932 370e EB01     		.2byte	0x1eb
 11933 3710 32       		.byte	0x32
 11934 3711 CB000000 		.4byte	0xcb
 11935 3715 00       		.byte	0
 11936 3716 4F       		.uleb128 0x4f
 11937 3717 E1050000 		.4byte	.LASF198
 11938 371b 03       		.byte	0x3
 11939 371c E401     		.2byte	0x1e4
 11940 371e 14       		.byte	0x14
 11941 371f EC070000 		.4byte	0x7ec
 11942 3723 03       		.byte	0x3
 11943 3724 50370000 		.4byte	0x3750
 11944 3728 44       		.uleb128 0x44
 11945 3729 02090000 		.4byte	.LASF199
 11946 372d 03       		.byte	0x3
 11947 372e E401     		.2byte	0x1e4
 11948 3730 2F       		.byte	0x2f
 11949 3731 4B030000 		.4byte	0x34b
 11950 3735 44       		.uleb128 0x44
 11951 3736 BA0A0000 		.4byte	.LASF157
 11952 373a 03       		.byte	0x3
 11953 373b E501     		.2byte	0x1e5
 11954 373d 2F       		.byte	0x2f
 11955 373e 4B030000 		.4byte	0x34b
 11956 3742 45       		.uleb128 0x45
 11957 3743 656E6400 		.ascii	"end\000"
 11958 3747 03       		.byte	0x3
 11959 3748 E601     		.2byte	0x1e6
 11960 374a 2F       		.byte	0x2f
 11961 374b 4B030000 		.4byte	0x34b
 11962 374f 00       		.byte	0
 11963 3750 4F       		.uleb128 0x4f
 11964 3751 D0010000 		.4byte	.LASF200
 11965 3755 03       		.byte	0x3
 11966 3756 BA01     		.2byte	0x1ba
 11967 3758 19       		.byte	0x19
 11968 3759 4B030000 		.4byte	0x34b
 11969 375d 03       		.byte	0x3
 11970 375e 7D370000 		.4byte	0x377d
 11971 3762 44       		.uleb128 0x44
 11972 3763 9C010000 		.4byte	.LASF201
ARM GAS  /tmp/ccuqlnP4.s 			page 213


 11973 3767 03       		.byte	0x3
 11974 3768 BA01     		.2byte	0x1ba
 11975 376a 2E       		.byte	0x2e
 11976 376b 4B030000 		.4byte	0x34b
 11977 376f 44       		.uleb128 0x44
 11978 3770 3C090000 		.4byte	.LASF202
 11979 3774 03       		.byte	0x3
 11980 3775 BB01     		.2byte	0x1bb
 11981 3777 32       		.byte	0x32
 11982 3778 57030000 		.4byte	0x357
 11983 377c 00       		.byte	0
 11984 377d 50       		.uleb128 0x50
 11985 377e 85020000 		.4byte	.LASF203
 11986 3782 85020000 		.4byte	.LASF203
 11987 3786 02       		.byte	0x2
 11988 3787 3901     		.2byte	0x139
 11989 3789 07       		.byte	0x7
 11990 378a 51       		.uleb128 0x51
 11991 378b 43050000 		.4byte	.LASF204
 11992 378f 43050000 		.4byte	.LASF204
 11993 3793 19       		.byte	0x19
 11994 3794 4B       		.byte	0x4b
 11995 3795 0D       		.byte	0xd
 11996 3796 51       		.uleb128 0x51
 11997 3797 C5050000 		.4byte	.LASF205
 11998 379b C5050000 		.4byte	.LASF205
 11999 379f 18       		.byte	0x18
 12000 37a0 63       		.byte	0x63
 12001 37a1 0B       		.byte	0xb
 12002 37a2 51       		.uleb128 0x51
 12003 37a3 29070000 		.4byte	.LASF206
 12004 37a7 29070000 		.4byte	.LASF206
 12005 37ab 15       		.byte	0x15
 12006 37ac 67       		.byte	0x67
 12007 37ad 08       		.byte	0x8
 12008 37ae 51       		.uleb128 0x51
 12009 37af B9010000 		.4byte	.LASF207
 12010 37b3 B9010000 		.4byte	.LASF207
 12011 37b7 15       		.byte	0x15
 12012 37b8 6B       		.byte	0x6b
 12013 37b9 08       		.byte	0x8
 12014 37ba 51       		.uleb128 0x51
 12015 37bb D40B0000 		.4byte	.LASF208
 12016 37bf D40B0000 		.4byte	.LASF208
 12017 37c3 15       		.byte	0x15
 12018 37c4 66       		.byte	0x66
 12019 37c5 08       		.byte	0x8
 12020 37c6 51       		.uleb128 0x51
 12021 37c7 79000000 		.4byte	.LASF209
 12022 37cb 79000000 		.4byte	.LASF209
 12023 37cf 0A       		.byte	0xa
 12024 37d0 5E       		.byte	0x5e
 12025 37d1 09       		.byte	0x9
 12026 37d2 51       		.uleb128 0x51
 12027 37d3 3F040000 		.4byte	.LASF210
 12028 37d7 3F040000 		.4byte	.LASF210
 12029 37db 0A       		.byte	0xa
ARM GAS  /tmp/ccuqlnP4.s 			page 214


 12030 37dc 62       		.byte	0x62
 12031 37dd 08       		.byte	0x8
 12032 37de 51       		.uleb128 0x51
 12033 37df 0D070000 		.4byte	.LASF211
 12034 37e3 0D070000 		.4byte	.LASF211
 12035 37e7 0A       		.byte	0xa
 12036 37e8 5B       		.byte	0x5b
 12037 37e9 08       		.byte	0x8
 12038 37ea 51       		.uleb128 0x51
 12039 37eb 71010000 		.4byte	.LASF212
 12040 37ef 71010000 		.4byte	.LASF212
 12041 37f3 05       		.byte	0x5
 12042 37f4 4A       		.byte	0x4a
 12043 37f5 08       		.byte	0x8
 12044 37f6 51       		.uleb128 0x51
 12045 37f7 19010000 		.4byte	.LASF213
 12046 37fb 19010000 		.4byte	.LASF213
 12047 37ff 05       		.byte	0x5
 12048 3800 4E       		.byte	0x4e
 12049 3801 08       		.byte	0x8
 12050 3802 50       		.uleb128 0x50
 12051 3803 68050000 		.4byte	.LASF214
 12052 3807 68050000 		.4byte	.LASF214
 12053 380b 06       		.byte	0x6
 12054 380c 2C01     		.2byte	0x12c
 12055 380e 0D       		.byte	0xd
 12056 380f 50       		.uleb128 0x50
 12057 3810 70030000 		.4byte	.LASF215
 12058 3814 70030000 		.4byte	.LASF215
 12059 3818 06       		.byte	0x6
 12060 3819 4201     		.2byte	0x142
 12061 381b 08       		.byte	0x8
 12062 381c 51       		.uleb128 0x51
 12063 381d 5A090000 		.4byte	.LASF216
 12064 3821 5A090000 		.4byte	.LASF216
 12065 3825 18       		.byte	0x18
 12066 3826 61       		.byte	0x61
 12067 3827 06       		.byte	0x6
 12068 3828 51       		.uleb128 0x51
 12069 3829 A8050000 		.4byte	.LASF217
 12070 382d A8050000 		.4byte	.LASF217
 12071 3831 18       		.byte	0x18
 12072 3832 62       		.byte	0x62
 12073 3833 06       		.byte	0x6
 12074 3834 51       		.uleb128 0x51
 12075 3835 A9040000 		.4byte	.LASF218
 12076 3839 A9040000 		.4byte	.LASF218
 12077 383d 0A       		.byte	0xa
 12078 383e 5C       		.byte	0x5c
 12079 383f 08       		.byte	0x8
 12080 3840 50       		.uleb128 0x50
 12081 3841 32010000 		.4byte	.LASF219
 12082 3845 32010000 		.4byte	.LASF219
 12083 3849 06       		.byte	0x6
 12084 384a 3101     		.2byte	0x131
 12085 384c 08       		.byte	0x8
 12086 384d 50       		.uleb128 0x50
ARM GAS  /tmp/ccuqlnP4.s 			page 215


 12087 384e 47070000 		.4byte	.LASF220
 12088 3852 47070000 		.4byte	.LASF220
 12089 3856 06       		.byte	0x6
 12090 3857 3601     		.2byte	0x136
 12091 3859 09       		.byte	0x9
 12092 385a 51       		.uleb128 0x51
 12093 385b D2020000 		.4byte	.LASF221
 12094 385f D2020000 		.4byte	.LASF221
 12095 3863 1A       		.byte	0x1a
 12096 3864 9A       		.byte	0x9a
 12097 3865 08       		.byte	0x8
 12098 3866 50       		.uleb128 0x50
 12099 3867 91010000 		.4byte	.LASF222
 12100 386b 91010000 		.4byte	.LASF222
 12101 386f 06       		.byte	0x6
 12102 3870 4501     		.2byte	0x145
 12103 3872 08       		.byte	0x8
 12104 3873 51       		.uleb128 0x51
 12105 3874 870B0000 		.4byte	.LASF223
 12106 3878 870B0000 		.4byte	.LASF223
 12107 387c 1A       		.byte	0x1a
 12108 387d 98       		.byte	0x98
 12109 387e 08       		.byte	0x8
 12110 387f 50       		.uleb128 0x50
 12111 3880 C7070000 		.4byte	.LASF224
 12112 3884 C7070000 		.4byte	.LASF224
 12113 3888 06       		.byte	0x6
 12114 3889 3301     		.2byte	0x133
 12115 388b 08       		.byte	0x8
 12116 388c 51       		.uleb128 0x51
 12117 388d 8E050000 		.4byte	.LASF225
 12118 3891 8E050000 		.4byte	.LASF225
 12119 3895 0B       		.byte	0xb
 12120 3896 42       		.byte	0x42
 12121 3897 09       		.byte	0x9
 12122 3898 51       		.uleb128 0x51
 12123 3899 81080000 		.4byte	.LASF226
 12124 389d 81080000 		.4byte	.LASF226
 12125 38a1 0B       		.byte	0xb
 12126 38a2 43       		.byte	0x43
 12127 38a3 0D       		.byte	0xd
 12128 38a4 51       		.uleb128 0x51
 12129 38a5 64000000 		.4byte	.LASF227
 12130 38a9 64000000 		.4byte	.LASF227
 12131 38ad 0B       		.byte	0xb
 12132 38ae 46       		.byte	0x46
 12133 38af 08       		.byte	0x8
 12134 38b0 00       		.byte	0
 12135              		.section	.debug_abbrev,"",%progbits
 12136              	.Ldebug_abbrev0:
 12137 0000 01       		.uleb128 0x1
 12138 0001 11       		.uleb128 0x11
 12139 0002 01       		.byte	0x1
 12140 0003 25       		.uleb128 0x25
 12141 0004 0E       		.uleb128 0xe
 12142 0005 13       		.uleb128 0x13
 12143 0006 0B       		.uleb128 0xb
ARM GAS  /tmp/ccuqlnP4.s 			page 216


 12144 0007 03       		.uleb128 0x3
 12145 0008 0E       		.uleb128 0xe
 12146 0009 1B       		.uleb128 0x1b
 12147 000a 0E       		.uleb128 0xe
 12148 000b 55       		.uleb128 0x55
 12149 000c 17       		.uleb128 0x17
 12150 000d 11       		.uleb128 0x11
 12151 000e 01       		.uleb128 0x1
 12152 000f 10       		.uleb128 0x10
 12153 0010 17       		.uleb128 0x17
 12154 0011 00       		.byte	0
 12155 0012 00       		.byte	0
 12156 0013 02       		.uleb128 0x2
 12157 0014 24       		.uleb128 0x24
 12158 0015 00       		.byte	0
 12159 0016 0B       		.uleb128 0xb
 12160 0017 0B       		.uleb128 0xb
 12161 0018 3E       		.uleb128 0x3e
 12162 0019 0B       		.uleb128 0xb
 12163 001a 03       		.uleb128 0x3
 12164 001b 08       		.uleb128 0x8
 12165 001c 00       		.byte	0
 12166 001d 00       		.byte	0
 12167 001e 03       		.uleb128 0x3
 12168 001f 16       		.uleb128 0x16
 12169 0020 00       		.byte	0
 12170 0021 03       		.uleb128 0x3
 12171 0022 0E       		.uleb128 0xe
 12172 0023 3A       		.uleb128 0x3a
 12173 0024 0B       		.uleb128 0xb
 12174 0025 3B       		.uleb128 0x3b
 12175 0026 0B       		.uleb128 0xb
 12176 0027 39       		.uleb128 0x39
 12177 0028 0B       		.uleb128 0xb
 12178 0029 49       		.uleb128 0x49
 12179 002a 13       		.uleb128 0x13
 12180 002b 00       		.byte	0
 12181 002c 00       		.byte	0
 12182 002d 04       		.uleb128 0x4
 12183 002e 24       		.uleb128 0x24
 12184 002f 00       		.byte	0
 12185 0030 0B       		.uleb128 0xb
 12186 0031 0B       		.uleb128 0xb
 12187 0032 3E       		.uleb128 0x3e
 12188 0033 0B       		.uleb128 0xb
 12189 0034 03       		.uleb128 0x3
 12190 0035 0E       		.uleb128 0xe
 12191 0036 00       		.byte	0
 12192 0037 00       		.byte	0
 12193 0038 05       		.uleb128 0x5
 12194 0039 26       		.uleb128 0x26
 12195 003a 00       		.byte	0
 12196 003b 49       		.uleb128 0x49
 12197 003c 13       		.uleb128 0x13
 12198 003d 00       		.byte	0
 12199 003e 00       		.byte	0
 12200 003f 06       		.uleb128 0x6
ARM GAS  /tmp/ccuqlnP4.s 			page 217


 12201 0040 35       		.uleb128 0x35
 12202 0041 00       		.byte	0
 12203 0042 49       		.uleb128 0x49
 12204 0043 13       		.uleb128 0x13
 12205 0044 00       		.byte	0
 12206 0045 00       		.byte	0
 12207 0046 07       		.uleb128 0x7
 12208 0047 13       		.uleb128 0x13
 12209 0048 01       		.byte	0x1
 12210 0049 03       		.uleb128 0x3
 12211 004a 0E       		.uleb128 0xe
 12212 004b 0B       		.uleb128 0xb
 12213 004c 0B       		.uleb128 0xb
 12214 004d 3A       		.uleb128 0x3a
 12215 004e 0B       		.uleb128 0xb
 12216 004f 3B       		.uleb128 0x3b
 12217 0050 0B       		.uleb128 0xb
 12218 0051 39       		.uleb128 0x39
 12219 0052 0B       		.uleb128 0xb
 12220 0053 01       		.uleb128 0x1
 12221 0054 13       		.uleb128 0x13
 12222 0055 00       		.byte	0
 12223 0056 00       		.byte	0
 12224 0057 08       		.uleb128 0x8
 12225 0058 0D       		.uleb128 0xd
 12226 0059 00       		.byte	0
 12227 005a 03       		.uleb128 0x3
 12228 005b 08       		.uleb128 0x8
 12229 005c 3A       		.uleb128 0x3a
 12230 005d 0B       		.uleb128 0xb
 12231 005e 3B       		.uleb128 0x3b
 12232 005f 0B       		.uleb128 0xb
 12233 0060 39       		.uleb128 0x39
 12234 0061 0B       		.uleb128 0xb
 12235 0062 49       		.uleb128 0x49
 12236 0063 13       		.uleb128 0x13
 12237 0064 38       		.uleb128 0x38
 12238 0065 0B       		.uleb128 0xb
 12239 0066 00       		.byte	0
 12240 0067 00       		.byte	0
 12241 0068 09       		.uleb128 0x9
 12242 0069 0D       		.uleb128 0xd
 12243 006a 00       		.byte	0
 12244 006b 03       		.uleb128 0x3
 12245 006c 0E       		.uleb128 0xe
 12246 006d 3A       		.uleb128 0x3a
 12247 006e 0B       		.uleb128 0xb
 12248 006f 3B       		.uleb128 0x3b
 12249 0070 0B       		.uleb128 0xb
 12250 0071 39       		.uleb128 0x39
 12251 0072 0B       		.uleb128 0xb
 12252 0073 49       		.uleb128 0x49
 12253 0074 13       		.uleb128 0x13
 12254 0075 38       		.uleb128 0x38
 12255 0076 0B       		.uleb128 0xb
 12256 0077 00       		.byte	0
 12257 0078 00       		.byte	0
ARM GAS  /tmp/ccuqlnP4.s 			page 218


 12258 0079 0A       		.uleb128 0xa
 12259 007a 0D       		.uleb128 0xd
 12260 007b 00       		.byte	0
 12261 007c 03       		.uleb128 0x3
 12262 007d 08       		.uleb128 0x8
 12263 007e 3A       		.uleb128 0x3a
 12264 007f 0B       		.uleb128 0xb
 12265 0080 3B       		.uleb128 0x3b
 12266 0081 05       		.uleb128 0x5
 12267 0082 39       		.uleb128 0x39
 12268 0083 0B       		.uleb128 0xb
 12269 0084 49       		.uleb128 0x49
 12270 0085 13       		.uleb128 0x13
 12271 0086 38       		.uleb128 0x38
 12272 0087 0B       		.uleb128 0xb
 12273 0088 00       		.byte	0
 12274 0089 00       		.byte	0
 12275 008a 0B       		.uleb128 0xb
 12276 008b 0D       		.uleb128 0xd
 12277 008c 00       		.byte	0
 12278 008d 03       		.uleb128 0x3
 12279 008e 0E       		.uleb128 0xe
 12280 008f 3A       		.uleb128 0x3a
 12281 0090 0B       		.uleb128 0xb
 12282 0091 3B       		.uleb128 0x3b
 12283 0092 05       		.uleb128 0x5
 12284 0093 39       		.uleb128 0x39
 12285 0094 0B       		.uleb128 0xb
 12286 0095 49       		.uleb128 0x49
 12287 0096 13       		.uleb128 0x13
 12288 0097 38       		.uleb128 0x38
 12289 0098 0B       		.uleb128 0xb
 12290 0099 00       		.byte	0
 12291 009a 00       		.byte	0
 12292 009b 0C       		.uleb128 0xc
 12293 009c 13       		.uleb128 0x13
 12294 009d 01       		.byte	0x1
 12295 009e 03       		.uleb128 0x3
 12296 009f 0E       		.uleb128 0xe
 12297 00a0 0B       		.uleb128 0xb
 12298 00a1 0B       		.uleb128 0xb
 12299 00a2 3A       		.uleb128 0x3a
 12300 00a3 0B       		.uleb128 0xb
 12301 00a4 3B       		.uleb128 0x3b
 12302 00a5 05       		.uleb128 0x5
 12303 00a6 39       		.uleb128 0x39
 12304 00a7 0B       		.uleb128 0xb
 12305 00a8 01       		.uleb128 0x1
 12306 00a9 13       		.uleb128 0x13
 12307 00aa 00       		.byte	0
 12308 00ab 00       		.byte	0
 12309 00ac 0D       		.uleb128 0xd
 12310 00ad 0F       		.uleb128 0xf
 12311 00ae 00       		.byte	0
 12312 00af 0B       		.uleb128 0xb
 12313 00b0 0B       		.uleb128 0xb
 12314 00b1 49       		.uleb128 0x49
ARM GAS  /tmp/ccuqlnP4.s 			page 219


 12315 00b2 13       		.uleb128 0x13
 12316 00b3 00       		.byte	0
 12317 00b4 00       		.byte	0
 12318 00b5 0E       		.uleb128 0xe
 12319 00b6 15       		.uleb128 0x15
 12320 00b7 01       		.byte	0x1
 12321 00b8 27       		.uleb128 0x27
 12322 00b9 19       		.uleb128 0x19
 12323 00ba 01       		.uleb128 0x1
 12324 00bb 13       		.uleb128 0x13
 12325 00bc 00       		.byte	0
 12326 00bd 00       		.byte	0
 12327 00be 0F       		.uleb128 0xf
 12328 00bf 05       		.uleb128 0x5
 12329 00c0 00       		.byte	0
 12330 00c1 49       		.uleb128 0x49
 12331 00c2 13       		.uleb128 0x13
 12332 00c3 00       		.byte	0
 12333 00c4 00       		.byte	0
 12334 00c5 10       		.uleb128 0x10
 12335 00c6 0F       		.uleb128 0xf
 12336 00c7 00       		.byte	0
 12337 00c8 0B       		.uleb128 0xb
 12338 00c9 0B       		.uleb128 0xb
 12339 00ca 00       		.byte	0
 12340 00cb 00       		.byte	0
 12341 00cc 11       		.uleb128 0x11
 12342 00cd 17       		.uleb128 0x17
 12343 00ce 01       		.byte	0x1
 12344 00cf 0B       		.uleb128 0xb
 12345 00d0 0B       		.uleb128 0xb
 12346 00d1 3A       		.uleb128 0x3a
 12347 00d2 0B       		.uleb128 0xb
 12348 00d3 3B       		.uleb128 0x3b
 12349 00d4 0B       		.uleb128 0xb
 12350 00d5 39       		.uleb128 0x39
 12351 00d6 0B       		.uleb128 0xb
 12352 00d7 01       		.uleb128 0x1
 12353 00d8 13       		.uleb128 0x13
 12354 00d9 00       		.byte	0
 12355 00da 00       		.byte	0
 12356 00db 12       		.uleb128 0x12
 12357 00dc 0D       		.uleb128 0xd
 12358 00dd 00       		.byte	0
 12359 00de 03       		.uleb128 0x3
 12360 00df 0E       		.uleb128 0xe
 12361 00e0 3A       		.uleb128 0x3a
 12362 00e1 0B       		.uleb128 0xb
 12363 00e2 3B       		.uleb128 0x3b
 12364 00e3 0B       		.uleb128 0xb
 12365 00e4 39       		.uleb128 0x39
 12366 00e5 0B       		.uleb128 0xb
 12367 00e6 49       		.uleb128 0x49
 12368 00e7 13       		.uleb128 0x13
 12369 00e8 00       		.byte	0
 12370 00e9 00       		.byte	0
 12371 00ea 13       		.uleb128 0x13
ARM GAS  /tmp/ccuqlnP4.s 			page 220


 12372 00eb 0D       		.uleb128 0xd
 12373 00ec 00       		.byte	0
 12374 00ed 03       		.uleb128 0x3
 12375 00ee 0E       		.uleb128 0xe
 12376 00ef 3A       		.uleb128 0x3a
 12377 00f0 0B       		.uleb128 0xb
 12378 00f1 3B       		.uleb128 0x3b
 12379 00f2 05       		.uleb128 0x5
 12380 00f3 39       		.uleb128 0x39
 12381 00f4 0B       		.uleb128 0xb
 12382 00f5 49       		.uleb128 0x49
 12383 00f6 13       		.uleb128 0x13
 12384 00f7 00       		.byte	0
 12385 00f8 00       		.byte	0
 12386 00f9 14       		.uleb128 0x14
 12387 00fa 16       		.uleb128 0x16
 12388 00fb 00       		.byte	0
 12389 00fc 03       		.uleb128 0x3
 12390 00fd 0E       		.uleb128 0xe
 12391 00fe 3A       		.uleb128 0x3a
 12392 00ff 0B       		.uleb128 0xb
 12393 0100 3B       		.uleb128 0x3b
 12394 0101 05       		.uleb128 0x5
 12395 0102 39       		.uleb128 0x39
 12396 0103 0B       		.uleb128 0xb
 12397 0104 49       		.uleb128 0x49
 12398 0105 13       		.uleb128 0x13
 12399 0106 00       		.byte	0
 12400 0107 00       		.byte	0
 12401 0108 15       		.uleb128 0x15
 12402 0109 34       		.uleb128 0x34
 12403 010a 00       		.byte	0
 12404 010b 03       		.uleb128 0x3
 12405 010c 08       		.uleb128 0x8
 12406 010d 3A       		.uleb128 0x3a
 12407 010e 0B       		.uleb128 0xb
 12408 010f 3B       		.uleb128 0x3b
 12409 0110 05       		.uleb128 0x5
 12410 0111 39       		.uleb128 0x39
 12411 0112 0B       		.uleb128 0xb
 12412 0113 49       		.uleb128 0x49
 12413 0114 13       		.uleb128 0x13
 12414 0115 3F       		.uleb128 0x3f
 12415 0116 19       		.uleb128 0x19
 12416 0117 3C       		.uleb128 0x3c
 12417 0118 19       		.uleb128 0x19
 12418 0119 00       		.byte	0
 12419 011a 00       		.byte	0
 12420 011b 16       		.uleb128 0x16
 12421 011c 15       		.uleb128 0x15
 12422 011d 01       		.byte	0x1
 12423 011e 27       		.uleb128 0x27
 12424 011f 19       		.uleb128 0x19
 12425 0120 49       		.uleb128 0x49
 12426 0121 13       		.uleb128 0x13
 12427 0122 01       		.uleb128 0x1
 12428 0123 13       		.uleb128 0x13
ARM GAS  /tmp/ccuqlnP4.s 			page 221


 12429 0124 00       		.byte	0
 12430 0125 00       		.byte	0
 12431 0126 17       		.uleb128 0x17
 12432 0127 13       		.uleb128 0x13
 12433 0128 01       		.byte	0x1
 12434 0129 0B       		.uleb128 0xb
 12435 012a 0B       		.uleb128 0xb
 12436 012b 3A       		.uleb128 0x3a
 12437 012c 0B       		.uleb128 0xb
 12438 012d 3B       		.uleb128 0x3b
 12439 012e 0B       		.uleb128 0xb
 12440 012f 39       		.uleb128 0x39
 12441 0130 0B       		.uleb128 0xb
 12442 0131 01       		.uleb128 0x1
 12443 0132 13       		.uleb128 0x13
 12444 0133 00       		.byte	0
 12445 0134 00       		.byte	0
 12446 0135 18       		.uleb128 0x18
 12447 0136 01       		.uleb128 0x1
 12448 0137 01       		.byte	0x1
 12449 0138 49       		.uleb128 0x49
 12450 0139 13       		.uleb128 0x13
 12451 013a 01       		.uleb128 0x1
 12452 013b 13       		.uleb128 0x13
 12453 013c 00       		.byte	0
 12454 013d 00       		.byte	0
 12455 013e 19       		.uleb128 0x19
 12456 013f 21       		.uleb128 0x21
 12457 0140 00       		.byte	0
 12458 0141 49       		.uleb128 0x49
 12459 0142 13       		.uleb128 0x13
 12460 0143 2F       		.uleb128 0x2f
 12461 0144 0B       		.uleb128 0xb
 12462 0145 00       		.byte	0
 12463 0146 00       		.byte	0
 12464 0147 1A       		.uleb128 0x1a
 12465 0148 15       		.uleb128 0x15
 12466 0149 00       		.byte	0
 12467 014a 27       		.uleb128 0x27
 12468 014b 19       		.uleb128 0x19
 12469 014c 00       		.byte	0
 12470 014d 00       		.byte	0
 12471 014e 1B       		.uleb128 0x1b
 12472 014f 34       		.uleb128 0x34
 12473 0150 00       		.byte	0
 12474 0151 03       		.uleb128 0x3
 12475 0152 0E       		.uleb128 0xe
 12476 0153 3A       		.uleb128 0x3a
 12477 0154 0B       		.uleb128 0xb
 12478 0155 3B       		.uleb128 0x3b
 12479 0156 05       		.uleb128 0x5
 12480 0157 39       		.uleb128 0x39
 12481 0158 0B       		.uleb128 0xb
 12482 0159 49       		.uleb128 0x49
 12483 015a 13       		.uleb128 0x13
 12484 015b 3F       		.uleb128 0x3f
 12485 015c 19       		.uleb128 0x19
ARM GAS  /tmp/ccuqlnP4.s 			page 222


 12486 015d 3C       		.uleb128 0x3c
 12487 015e 19       		.uleb128 0x19
 12488 015f 00       		.byte	0
 12489 0160 00       		.byte	0
 12490 0161 1C       		.uleb128 0x1c
 12491 0162 34       		.uleb128 0x34
 12492 0163 00       		.byte	0
 12493 0164 03       		.uleb128 0x3
 12494 0165 0E       		.uleb128 0xe
 12495 0166 3A       		.uleb128 0x3a
 12496 0167 0B       		.uleb128 0xb
 12497 0168 3B       		.uleb128 0x3b
 12498 0169 0B       		.uleb128 0xb
 12499 016a 39       		.uleb128 0x39
 12500 016b 0B       		.uleb128 0xb
 12501 016c 49       		.uleb128 0x49
 12502 016d 13       		.uleb128 0x13
 12503 016e 3F       		.uleb128 0x3f
 12504 016f 19       		.uleb128 0x19
 12505 0170 3C       		.uleb128 0x3c
 12506 0171 19       		.uleb128 0x19
 12507 0172 00       		.byte	0
 12508 0173 00       		.byte	0
 12509 0174 1D       		.uleb128 0x1d
 12510 0175 34       		.uleb128 0x34
 12511 0176 00       		.byte	0
 12512 0177 03       		.uleb128 0x3
 12513 0178 08       		.uleb128 0x8
 12514 0179 3A       		.uleb128 0x3a
 12515 017a 0B       		.uleb128 0xb
 12516 017b 3B       		.uleb128 0x3b
 12517 017c 0B       		.uleb128 0xb
 12518 017d 39       		.uleb128 0x39
 12519 017e 0B       		.uleb128 0xb
 12520 017f 49       		.uleb128 0x49
 12521 0180 13       		.uleb128 0x13
 12522 0181 3F       		.uleb128 0x3f
 12523 0182 19       		.uleb128 0x19
 12524 0183 3C       		.uleb128 0x3c
 12525 0184 19       		.uleb128 0x19
 12526 0185 00       		.byte	0
 12527 0186 00       		.byte	0
 12528 0187 1E       		.uleb128 0x1e
 12529 0188 34       		.uleb128 0x34
 12530 0189 00       		.byte	0
 12531 018a 03       		.uleb128 0x3
 12532 018b 0E       		.uleb128 0xe
 12533 018c 3A       		.uleb128 0x3a
 12534 018d 0B       		.uleb128 0xb
 12535 018e 3B       		.uleb128 0x3b
 12536 018f 0B       		.uleb128 0xb
 12537 0190 39       		.uleb128 0x39
 12538 0191 0B       		.uleb128 0xb
 12539 0192 49       		.uleb128 0x49
 12540 0193 13       		.uleb128 0x13
 12541 0194 02       		.uleb128 0x2
 12542 0195 18       		.uleb128 0x18
ARM GAS  /tmp/ccuqlnP4.s 			page 223


 12543 0196 00       		.byte	0
 12544 0197 00       		.byte	0
 12545 0198 1F       		.uleb128 0x1f
 12546 0199 34       		.uleb128 0x34
 12547 019a 00       		.byte	0
 12548 019b 03       		.uleb128 0x3
 12549 019c 0E       		.uleb128 0xe
 12550 019d 3A       		.uleb128 0x3a
 12551 019e 0B       		.uleb128 0xb
 12552 019f 3B       		.uleb128 0x3b
 12553 01a0 05       		.uleb128 0x5
 12554 01a1 39       		.uleb128 0x39
 12555 01a2 0B       		.uleb128 0xb
 12556 01a3 49       		.uleb128 0x49
 12557 01a4 13       		.uleb128 0x13
 12558 01a5 02       		.uleb128 0x2
 12559 01a6 18       		.uleb128 0x18
 12560 01a7 00       		.byte	0
 12561 01a8 00       		.byte	0
 12562 01a9 20       		.uleb128 0x20
 12563 01aa 34       		.uleb128 0x34
 12564 01ab 00       		.byte	0
 12565 01ac 03       		.uleb128 0x3
 12566 01ad 0E       		.uleb128 0xe
 12567 01ae 3A       		.uleb128 0x3a
 12568 01af 0B       		.uleb128 0xb
 12569 01b0 3B       		.uleb128 0x3b
 12570 01b1 05       		.uleb128 0x5
 12571 01b2 39       		.uleb128 0x39
 12572 01b3 0B       		.uleb128 0xb
 12573 01b4 49       		.uleb128 0x49
 12574 01b5 13       		.uleb128 0x13
 12575 01b6 3F       		.uleb128 0x3f
 12576 01b7 19       		.uleb128 0x19
 12577 01b8 02       		.uleb128 0x2
 12578 01b9 18       		.uleb128 0x18
 12579 01ba 00       		.byte	0
 12580 01bb 00       		.byte	0
 12581 01bc 21       		.uleb128 0x21
 12582 01bd 34       		.uleb128 0x34
 12583 01be 00       		.byte	0
 12584 01bf 47       		.uleb128 0x47
 12585 01c0 13       		.uleb128 0x13
 12586 01c1 3A       		.uleb128 0x3a
 12587 01c2 0B       		.uleb128 0xb
 12588 01c3 3B       		.uleb128 0x3b
 12589 01c4 05       		.uleb128 0x5
 12590 01c5 39       		.uleb128 0x39
 12591 01c6 0B       		.uleb128 0xb
 12592 01c7 02       		.uleb128 0x2
 12593 01c8 18       		.uleb128 0x18
 12594 01c9 00       		.byte	0
 12595 01ca 00       		.byte	0
 12596 01cb 22       		.uleb128 0x22
 12597 01cc 2E       		.uleb128 0x2e
 12598 01cd 01       		.byte	0x1
 12599 01ce 03       		.uleb128 0x3
ARM GAS  /tmp/ccuqlnP4.s 			page 224


 12600 01cf 0E       		.uleb128 0xe
 12601 01d0 3A       		.uleb128 0x3a
 12602 01d1 0B       		.uleb128 0xb
 12603 01d2 3B       		.uleb128 0x3b
 12604 01d3 05       		.uleb128 0x5
 12605 01d4 39       		.uleb128 0x39
 12606 01d5 0B       		.uleb128 0xb
 12607 01d6 27       		.uleb128 0x27
 12608 01d7 19       		.uleb128 0x19
 12609 01d8 11       		.uleb128 0x11
 12610 01d9 01       		.uleb128 0x1
 12611 01da 12       		.uleb128 0x12
 12612 01db 06       		.uleb128 0x6
 12613 01dc 40       		.uleb128 0x40
 12614 01dd 18       		.uleb128 0x18
 12615 01de 9742     		.uleb128 0x2117
 12616 01e0 19       		.uleb128 0x19
 12617 01e1 01       		.uleb128 0x1
 12618 01e2 13       		.uleb128 0x13
 12619 01e3 00       		.byte	0
 12620 01e4 00       		.byte	0
 12621 01e5 23       		.uleb128 0x23
 12622 01e6 1D       		.uleb128 0x1d
 12623 01e7 01       		.byte	0x1
 12624 01e8 31       		.uleb128 0x31
 12625 01e9 13       		.uleb128 0x13
 12626 01ea 52       		.uleb128 0x52
 12627 01eb 01       		.uleb128 0x1
 12628 01ec B842     		.uleb128 0x2138
 12629 01ee 0B       		.uleb128 0xb
 12630 01ef 55       		.uleb128 0x55
 12631 01f0 17       		.uleb128 0x17
 12632 01f1 58       		.uleb128 0x58
 12633 01f2 0B       		.uleb128 0xb
 12634 01f3 59       		.uleb128 0x59
 12635 01f4 05       		.uleb128 0x5
 12636 01f5 57       		.uleb128 0x57
 12637 01f6 0B       		.uleb128 0xb
 12638 01f7 01       		.uleb128 0x1
 12639 01f8 13       		.uleb128 0x13
 12640 01f9 00       		.byte	0
 12641 01fa 00       		.byte	0
 12642 01fb 24       		.uleb128 0x24
 12643 01fc 05       		.uleb128 0x5
 12644 01fd 00       		.byte	0
 12645 01fe 31       		.uleb128 0x31
 12646 01ff 13       		.uleb128 0x13
 12647 0200 02       		.uleb128 0x2
 12648 0201 17       		.uleb128 0x17
 12649 0202 B742     		.uleb128 0x2137
 12650 0204 17       		.uleb128 0x17
 12651 0205 00       		.byte	0
 12652 0206 00       		.byte	0
 12653 0207 25       		.uleb128 0x25
 12654 0208 898201   		.uleb128 0x4109
 12655 020b 01       		.byte	0x1
 12656 020c 11       		.uleb128 0x11
ARM GAS  /tmp/ccuqlnP4.s 			page 225


 12657 020d 01       		.uleb128 0x1
 12658 020e 31       		.uleb128 0x31
 12659 020f 13       		.uleb128 0x13
 12660 0210 00       		.byte	0
 12661 0211 00       		.byte	0
 12662 0212 26       		.uleb128 0x26
 12663 0213 8A8201   		.uleb128 0x410a
 12664 0216 00       		.byte	0
 12665 0217 02       		.uleb128 0x2
 12666 0218 18       		.uleb128 0x18
 12667 0219 9142     		.uleb128 0x2111
 12668 021b 18       		.uleb128 0x18
 12669 021c 00       		.byte	0
 12670 021d 00       		.byte	0
 12671 021e 27       		.uleb128 0x27
 12672 021f 1D       		.uleb128 0x1d
 12673 0220 01       		.byte	0x1
 12674 0221 31       		.uleb128 0x31
 12675 0222 13       		.uleb128 0x13
 12676 0223 52       		.uleb128 0x52
 12677 0224 01       		.uleb128 0x1
 12678 0225 B842     		.uleb128 0x2138
 12679 0227 0B       		.uleb128 0xb
 12680 0228 11       		.uleb128 0x11
 12681 0229 01       		.uleb128 0x1
 12682 022a 12       		.uleb128 0x12
 12683 022b 06       		.uleb128 0x6
 12684 022c 58       		.uleb128 0x58
 12685 022d 0B       		.uleb128 0xb
 12686 022e 59       		.uleb128 0x59
 12687 022f 05       		.uleb128 0x5
 12688 0230 57       		.uleb128 0x57
 12689 0231 0B       		.uleb128 0xb
 12690 0232 01       		.uleb128 0x1
 12691 0233 13       		.uleb128 0x13
 12692 0234 00       		.byte	0
 12693 0235 00       		.byte	0
 12694 0236 28       		.uleb128 0x28
 12695 0237 1D       		.uleb128 0x1d
 12696 0238 01       		.byte	0x1
 12697 0239 31       		.uleb128 0x31
 12698 023a 13       		.uleb128 0x13
 12699 023b 52       		.uleb128 0x52
 12700 023c 01       		.uleb128 0x1
 12701 023d B842     		.uleb128 0x2138
 12702 023f 0B       		.uleb128 0xb
 12703 0240 55       		.uleb128 0x55
 12704 0241 17       		.uleb128 0x17
 12705 0242 58       		.uleb128 0x58
 12706 0243 0B       		.uleb128 0xb
 12707 0244 59       		.uleb128 0x59
 12708 0245 05       		.uleb128 0x5
 12709 0246 57       		.uleb128 0x57
 12710 0247 0B       		.uleb128 0xb
 12711 0248 00       		.byte	0
 12712 0249 00       		.byte	0
 12713 024a 29       		.uleb128 0x29
ARM GAS  /tmp/ccuqlnP4.s 			page 226


 12714 024b 05       		.uleb128 0x5
 12715 024c 00       		.byte	0
 12716 024d 31       		.uleb128 0x31
 12717 024e 13       		.uleb128 0x13
 12718 024f 02       		.uleb128 0x2
 12719 0250 18       		.uleb128 0x18
 12720 0251 00       		.byte	0
 12721 0252 00       		.byte	0
 12722 0253 2A       		.uleb128 0x2a
 12723 0254 898201   		.uleb128 0x4109
 12724 0257 01       		.byte	0x1
 12725 0258 11       		.uleb128 0x11
 12726 0259 01       		.uleb128 0x1
 12727 025a 9542     		.uleb128 0x2115
 12728 025c 19       		.uleb128 0x19
 12729 025d 31       		.uleb128 0x31
 12730 025e 13       		.uleb128 0x13
 12731 025f 00       		.byte	0
 12732 0260 00       		.byte	0
 12733 0261 2B       		.uleb128 0x2b
 12734 0262 34       		.uleb128 0x34
 12735 0263 00       		.byte	0
 12736 0264 03       		.uleb128 0x3
 12737 0265 08       		.uleb128 0x8
 12738 0266 3A       		.uleb128 0x3a
 12739 0267 0B       		.uleb128 0xb
 12740 0268 3B       		.uleb128 0x3b
 12741 0269 05       		.uleb128 0x5
 12742 026a 39       		.uleb128 0x39
 12743 026b 0B       		.uleb128 0xb
 12744 026c 49       		.uleb128 0x49
 12745 026d 13       		.uleb128 0x13
 12746 026e 02       		.uleb128 0x2
 12747 026f 17       		.uleb128 0x17
 12748 0270 B742     		.uleb128 0x2137
 12749 0272 17       		.uleb128 0x17
 12750 0273 00       		.byte	0
 12751 0274 00       		.byte	0
 12752 0275 2C       		.uleb128 0x2c
 12753 0276 0B       		.uleb128 0xb
 12754 0277 01       		.byte	0x1
 12755 0278 55       		.uleb128 0x55
 12756 0279 17       		.uleb128 0x17
 12757 027a 01       		.uleb128 0x1
 12758 027b 13       		.uleb128 0x13
 12759 027c 00       		.byte	0
 12760 027d 00       		.byte	0
 12761 027e 2D       		.uleb128 0x2d
 12762 027f 34       		.uleb128 0x34
 12763 0280 00       		.byte	0
 12764 0281 03       		.uleb128 0x3
 12765 0282 0E       		.uleb128 0xe
 12766 0283 3A       		.uleb128 0x3a
 12767 0284 0B       		.uleb128 0xb
 12768 0285 3B       		.uleb128 0x3b
 12769 0286 05       		.uleb128 0x5
 12770 0287 39       		.uleb128 0x39
ARM GAS  /tmp/ccuqlnP4.s 			page 227


 12771 0288 0B       		.uleb128 0xb
 12772 0289 49       		.uleb128 0x49
 12773 028a 13       		.uleb128 0x13
 12774 028b 02       		.uleb128 0x2
 12775 028c 17       		.uleb128 0x17
 12776 028d B742     		.uleb128 0x2137
 12777 028f 17       		.uleb128 0x17
 12778 0290 00       		.byte	0
 12779 0291 00       		.byte	0
 12780 0292 2E       		.uleb128 0x2e
 12781 0293 1D       		.uleb128 0x1d
 12782 0294 01       		.byte	0x1
 12783 0295 31       		.uleb128 0x31
 12784 0296 13       		.uleb128 0x13
 12785 0297 52       		.uleb128 0x52
 12786 0298 01       		.uleb128 0x1
 12787 0299 B842     		.uleb128 0x2138
 12788 029b 0B       		.uleb128 0xb
 12789 029c 55       		.uleb128 0x55
 12790 029d 17       		.uleb128 0x17
 12791 029e 58       		.uleb128 0x58
 12792 029f 0B       		.uleb128 0xb
 12793 02a0 59       		.uleb128 0x59
 12794 02a1 0B       		.uleb128 0xb
 12795 02a2 57       		.uleb128 0x57
 12796 02a3 0B       		.uleb128 0xb
 12797 02a4 01       		.uleb128 0x1
 12798 02a5 13       		.uleb128 0x13
 12799 02a6 00       		.byte	0
 12800 02a7 00       		.byte	0
 12801 02a8 2F       		.uleb128 0x2f
 12802 02a9 1D       		.uleb128 0x1d
 12803 02aa 01       		.byte	0x1
 12804 02ab 31       		.uleb128 0x31
 12805 02ac 13       		.uleb128 0x13
 12806 02ad 52       		.uleb128 0x52
 12807 02ae 01       		.uleb128 0x1
 12808 02af B842     		.uleb128 0x2138
 12809 02b1 0B       		.uleb128 0xb
 12810 02b2 55       		.uleb128 0x55
 12811 02b3 17       		.uleb128 0x17
 12812 02b4 58       		.uleb128 0x58
 12813 02b5 0B       		.uleb128 0xb
 12814 02b6 59       		.uleb128 0x59
 12815 02b7 0B       		.uleb128 0xb
 12816 02b8 57       		.uleb128 0x57
 12817 02b9 0B       		.uleb128 0xb
 12818 02ba 00       		.byte	0
 12819 02bb 00       		.byte	0
 12820 02bc 30       		.uleb128 0x30
 12821 02bd 898201   		.uleb128 0x4109
 12822 02c0 00       		.byte	0
 12823 02c1 11       		.uleb128 0x11
 12824 02c2 01       		.uleb128 0x1
 12825 02c3 31       		.uleb128 0x31
 12826 02c4 13       		.uleb128 0x13
 12827 02c5 00       		.byte	0
ARM GAS  /tmp/ccuqlnP4.s 			page 228


 12828 02c6 00       		.byte	0
 12829 02c7 31       		.uleb128 0x31
 12830 02c8 05       		.uleb128 0x5
 12831 02c9 00       		.byte	0
 12832 02ca 31       		.uleb128 0x31
 12833 02cb 13       		.uleb128 0x13
 12834 02cc 00       		.byte	0
 12835 02cd 00       		.byte	0
 12836 02ce 32       		.uleb128 0x32
 12837 02cf 898201   		.uleb128 0x4109
 12838 02d2 01       		.byte	0x1
 12839 02d3 11       		.uleb128 0x11
 12840 02d4 01       		.uleb128 0x1
 12841 02d5 31       		.uleb128 0x31
 12842 02d6 13       		.uleb128 0x13
 12843 02d7 01       		.uleb128 0x1
 12844 02d8 13       		.uleb128 0x13
 12845 02d9 00       		.byte	0
 12846 02da 00       		.byte	0
 12847 02db 33       		.uleb128 0x33
 12848 02dc 34       		.uleb128 0x34
 12849 02dd 00       		.byte	0
 12850 02de 03       		.uleb128 0x3
 12851 02df 08       		.uleb128 0x8
 12852 02e0 3A       		.uleb128 0x3a
 12853 02e1 0B       		.uleb128 0xb
 12854 02e2 3B       		.uleb128 0x3b
 12855 02e3 05       		.uleb128 0x5
 12856 02e4 39       		.uleb128 0x39
 12857 02e5 0B       		.uleb128 0xb
 12858 02e6 49       		.uleb128 0x49
 12859 02e7 13       		.uleb128 0x13
 12860 02e8 02       		.uleb128 0x2
 12861 02e9 18       		.uleb128 0x18
 12862 02ea 00       		.byte	0
 12863 02eb 00       		.byte	0
 12864 02ec 34       		.uleb128 0x34
 12865 02ed 0B       		.uleb128 0xb
 12866 02ee 01       		.byte	0x1
 12867 02ef 55       		.uleb128 0x55
 12868 02f0 17       		.uleb128 0x17
 12869 02f1 00       		.byte	0
 12870 02f2 00       		.byte	0
 12871 02f3 35       		.uleb128 0x35
 12872 02f4 1D       		.uleb128 0x1d
 12873 02f5 01       		.byte	0x1
 12874 02f6 31       		.uleb128 0x31
 12875 02f7 13       		.uleb128 0x13
 12876 02f8 52       		.uleb128 0x52
 12877 02f9 01       		.uleb128 0x1
 12878 02fa B842     		.uleb128 0x2138
 12879 02fc 0B       		.uleb128 0xb
 12880 02fd 11       		.uleb128 0x11
 12881 02fe 01       		.uleb128 0x1
 12882 02ff 12       		.uleb128 0x12
 12883 0300 06       		.uleb128 0x6
 12884 0301 58       		.uleb128 0x58
ARM GAS  /tmp/ccuqlnP4.s 			page 229


 12885 0302 0B       		.uleb128 0xb
 12886 0303 59       		.uleb128 0x59
 12887 0304 05       		.uleb128 0x5
 12888 0305 57       		.uleb128 0x57
 12889 0306 0B       		.uleb128 0xb
 12890 0307 00       		.byte	0
 12891 0308 00       		.byte	0
 12892 0309 36       		.uleb128 0x36
 12893 030a 1D       		.uleb128 0x1d
 12894 030b 00       		.byte	0
 12895 030c 31       		.uleb128 0x31
 12896 030d 13       		.uleb128 0x13
 12897 030e 52       		.uleb128 0x52
 12898 030f 01       		.uleb128 0x1
 12899 0310 B842     		.uleb128 0x2138
 12900 0312 0B       		.uleb128 0xb
 12901 0313 55       		.uleb128 0x55
 12902 0314 17       		.uleb128 0x17
 12903 0315 58       		.uleb128 0x58
 12904 0316 0B       		.uleb128 0xb
 12905 0317 59       		.uleb128 0x59
 12906 0318 05       		.uleb128 0x5
 12907 0319 57       		.uleb128 0x57
 12908 031a 0B       		.uleb128 0xb
 12909 031b 00       		.byte	0
 12910 031c 00       		.byte	0
 12911 031d 37       		.uleb128 0x37
 12912 031e 1D       		.uleb128 0x1d
 12913 031f 00       		.byte	0
 12914 0320 31       		.uleb128 0x31
 12915 0321 13       		.uleb128 0x13
 12916 0322 52       		.uleb128 0x52
 12917 0323 01       		.uleb128 0x1
 12918 0324 B842     		.uleb128 0x2138
 12919 0326 0B       		.uleb128 0xb
 12920 0327 11       		.uleb128 0x11
 12921 0328 01       		.uleb128 0x1
 12922 0329 12       		.uleb128 0x12
 12923 032a 06       		.uleb128 0x6
 12924 032b 58       		.uleb128 0x58
 12925 032c 0B       		.uleb128 0xb
 12926 032d 59       		.uleb128 0x59
 12927 032e 05       		.uleb128 0x5
 12928 032f 57       		.uleb128 0x57
 12929 0330 0B       		.uleb128 0xb
 12930 0331 00       		.byte	0
 12931 0332 00       		.byte	0
 12932 0333 38       		.uleb128 0x38
 12933 0334 2E       		.uleb128 0x2e
 12934 0335 01       		.byte	0x1
 12935 0336 03       		.uleb128 0x3
 12936 0337 0E       		.uleb128 0xe
 12937 0338 3A       		.uleb128 0x3a
 12938 0339 0B       		.uleb128 0xb
 12939 033a 3B       		.uleb128 0x3b
 12940 033b 0B       		.uleb128 0xb
 12941 033c 39       		.uleb128 0x39
ARM GAS  /tmp/ccuqlnP4.s 			page 230


 12942 033d 0B       		.uleb128 0xb
 12943 033e 27       		.uleb128 0x27
 12944 033f 19       		.uleb128 0x19
 12945 0340 11       		.uleb128 0x11
 12946 0341 01       		.uleb128 0x1
 12947 0342 12       		.uleb128 0x12
 12948 0343 06       		.uleb128 0x6
 12949 0344 40       		.uleb128 0x40
 12950 0345 18       		.uleb128 0x18
 12951 0346 9742     		.uleb128 0x2117
 12952 0348 19       		.uleb128 0x19
 12953 0349 01       		.uleb128 0x1
 12954 034a 13       		.uleb128 0x13
 12955 034b 00       		.byte	0
 12956 034c 00       		.byte	0
 12957 034d 39       		.uleb128 0x39
 12958 034e 34       		.uleb128 0x34
 12959 034f 00       		.byte	0
 12960 0350 03       		.uleb128 0x3
 12961 0351 08       		.uleb128 0x8
 12962 0352 3A       		.uleb128 0x3a
 12963 0353 0B       		.uleb128 0xb
 12964 0354 3B       		.uleb128 0x3b
 12965 0355 0B       		.uleb128 0xb
 12966 0356 39       		.uleb128 0x39
 12967 0357 0B       		.uleb128 0xb
 12968 0358 49       		.uleb128 0x49
 12969 0359 13       		.uleb128 0x13
 12970 035a 02       		.uleb128 0x2
 12971 035b 17       		.uleb128 0x17
 12972 035c B742     		.uleb128 0x2137
 12973 035e 17       		.uleb128 0x17
 12974 035f 00       		.byte	0
 12975 0360 00       		.byte	0
 12976 0361 3A       		.uleb128 0x3a
 12977 0362 1D       		.uleb128 0x1d
 12978 0363 01       		.byte	0x1
 12979 0364 31       		.uleb128 0x31
 12980 0365 13       		.uleb128 0x13
 12981 0366 52       		.uleb128 0x52
 12982 0367 01       		.uleb128 0x1
 12983 0368 B842     		.uleb128 0x2138
 12984 036a 0B       		.uleb128 0xb
 12985 036b 11       		.uleb128 0x11
 12986 036c 01       		.uleb128 0x1
 12987 036d 12       		.uleb128 0x12
 12988 036e 06       		.uleb128 0x6
 12989 036f 58       		.uleb128 0x58
 12990 0370 0B       		.uleb128 0xb
 12991 0371 59       		.uleb128 0x59
 12992 0372 0B       		.uleb128 0xb
 12993 0373 57       		.uleb128 0x57
 12994 0374 0B       		.uleb128 0xb
 12995 0375 01       		.uleb128 0x1
 12996 0376 13       		.uleb128 0x13
 12997 0377 00       		.byte	0
 12998 0378 00       		.byte	0
ARM GAS  /tmp/ccuqlnP4.s 			page 231


 12999 0379 3B       		.uleb128 0x3b
 13000 037a 05       		.uleb128 0x5
 13001 037b 00       		.byte	0
 13002 037c 03       		.uleb128 0x3
 13003 037d 08       		.uleb128 0x8
 13004 037e 3A       		.uleb128 0x3a
 13005 037f 0B       		.uleb128 0xb
 13006 0380 3B       		.uleb128 0x3b
 13007 0381 0B       		.uleb128 0xb
 13008 0382 39       		.uleb128 0x39
 13009 0383 0B       		.uleb128 0xb
 13010 0384 49       		.uleb128 0x49
 13011 0385 13       		.uleb128 0x13
 13012 0386 02       		.uleb128 0x2
 13013 0387 17       		.uleb128 0x17
 13014 0388 B742     		.uleb128 0x2137
 13015 038a 17       		.uleb128 0x17
 13016 038b 00       		.byte	0
 13017 038c 00       		.byte	0
 13018 038d 3C       		.uleb128 0x3c
 13019 038e 34       		.uleb128 0x34
 13020 038f 00       		.byte	0
 13021 0390 03       		.uleb128 0x3
 13022 0391 0E       		.uleb128 0xe
 13023 0392 3A       		.uleb128 0x3a
 13024 0393 0B       		.uleb128 0xb
 13025 0394 3B       		.uleb128 0x3b
 13026 0395 0B       		.uleb128 0xb
 13027 0396 39       		.uleb128 0x39
 13028 0397 0B       		.uleb128 0xb
 13029 0398 49       		.uleb128 0x49
 13030 0399 13       		.uleb128 0x13
 13031 039a 02       		.uleb128 0x2
 13032 039b 17       		.uleb128 0x17
 13033 039c B742     		.uleb128 0x2137
 13034 039e 17       		.uleb128 0x17
 13035 039f 00       		.byte	0
 13036 03a0 00       		.byte	0
 13037 03a1 3D       		.uleb128 0x3d
 13038 03a2 1D       		.uleb128 0x1d
 13039 03a3 00       		.byte	0
 13040 03a4 31       		.uleb128 0x31
 13041 03a5 13       		.uleb128 0x13
 13042 03a6 52       		.uleb128 0x52
 13043 03a7 01       		.uleb128 0x1
 13044 03a8 B842     		.uleb128 0x2138
 13045 03aa 0B       		.uleb128 0xb
 13046 03ab 55       		.uleb128 0x55
 13047 03ac 17       		.uleb128 0x17
 13048 03ad 58       		.uleb128 0x58
 13049 03ae 0B       		.uleb128 0xb
 13050 03af 59       		.uleb128 0x59
 13051 03b0 0B       		.uleb128 0xb
 13052 03b1 57       		.uleb128 0x57
 13053 03b2 0B       		.uleb128 0xb
 13054 03b3 00       		.byte	0
 13055 03b4 00       		.byte	0
ARM GAS  /tmp/ccuqlnP4.s 			page 232


 13056 03b5 3E       		.uleb128 0x3e
 13057 03b6 2E       		.uleb128 0x2e
 13058 03b7 01       		.byte	0x1
 13059 03b8 03       		.uleb128 0x3
 13060 03b9 0E       		.uleb128 0xe
 13061 03ba 3A       		.uleb128 0x3a
 13062 03bb 0B       		.uleb128 0xb
 13063 03bc 3B       		.uleb128 0x3b
 13064 03bd 0B       		.uleb128 0xb
 13065 03be 39       		.uleb128 0x39
 13066 03bf 0B       		.uleb128 0xb
 13067 03c0 27       		.uleb128 0x27
 13068 03c1 19       		.uleb128 0x19
 13069 03c2 49       		.uleb128 0x49
 13070 03c3 13       		.uleb128 0x13
 13071 03c4 11       		.uleb128 0x11
 13072 03c5 01       		.uleb128 0x1
 13073 03c6 12       		.uleb128 0x12
 13074 03c7 06       		.uleb128 0x6
 13075 03c8 40       		.uleb128 0x40
 13076 03c9 18       		.uleb128 0x18
 13077 03ca 9742     		.uleb128 0x2117
 13078 03cc 19       		.uleb128 0x19
 13079 03cd 01       		.uleb128 0x1
 13080 03ce 13       		.uleb128 0x13
 13081 03cf 00       		.byte	0
 13082 03d0 00       		.byte	0
 13083 03d1 3F       		.uleb128 0x3f
 13084 03d2 34       		.uleb128 0x34
 13085 03d3 00       		.byte	0
 13086 03d4 31       		.uleb128 0x31
 13087 03d5 13       		.uleb128 0x13
 13088 03d6 02       		.uleb128 0x2
 13089 03d7 17       		.uleb128 0x17
 13090 03d8 B742     		.uleb128 0x2137
 13091 03da 17       		.uleb128 0x17
 13092 03db 00       		.byte	0
 13093 03dc 00       		.byte	0
 13094 03dd 40       		.uleb128 0x40
 13095 03de 2E       		.uleb128 0x2e
 13096 03df 01       		.byte	0x1
 13097 03e0 03       		.uleb128 0x3
 13098 03e1 08       		.uleb128 0x8
 13099 03e2 3A       		.uleb128 0x3a
 13100 03e3 0B       		.uleb128 0xb
 13101 03e4 3B       		.uleb128 0x3b
 13102 03e5 0B       		.uleb128 0xb
 13103 03e6 39       		.uleb128 0x39
 13104 03e7 0B       		.uleb128 0xb
 13105 03e8 27       		.uleb128 0x27
 13106 03e9 19       		.uleb128 0x19
 13107 03ea 11       		.uleb128 0x11
 13108 03eb 01       		.uleb128 0x1
 13109 03ec 12       		.uleb128 0x12
 13110 03ed 06       		.uleb128 0x6
 13111 03ee 40       		.uleb128 0x40
 13112 03ef 18       		.uleb128 0x18
ARM GAS  /tmp/ccuqlnP4.s 			page 233


 13113 03f0 9742     		.uleb128 0x2117
 13114 03f2 19       		.uleb128 0x19
 13115 03f3 01       		.uleb128 0x1
 13116 03f4 13       		.uleb128 0x13
 13117 03f5 00       		.byte	0
 13118 03f6 00       		.byte	0
 13119 03f7 41       		.uleb128 0x41
 13120 03f8 05       		.uleb128 0x5
 13121 03f9 00       		.byte	0
 13122 03fa 03       		.uleb128 0x3
 13123 03fb 08       		.uleb128 0x8
 13124 03fc 3A       		.uleb128 0x3a
 13125 03fd 0B       		.uleb128 0xb
 13126 03fe 3B       		.uleb128 0x3b
 13127 03ff 0B       		.uleb128 0xb
 13128 0400 39       		.uleb128 0x39
 13129 0401 0B       		.uleb128 0xb
 13130 0402 49       		.uleb128 0x49
 13131 0403 13       		.uleb128 0x13
 13132 0404 02       		.uleb128 0x2
 13133 0405 18       		.uleb128 0x18
 13134 0406 00       		.byte	0
 13135 0407 00       		.byte	0
 13136 0408 42       		.uleb128 0x42
 13137 0409 05       		.uleb128 0x5
 13138 040a 00       		.byte	0
 13139 040b 03       		.uleb128 0x3
 13140 040c 0E       		.uleb128 0xe
 13141 040d 3A       		.uleb128 0x3a
 13142 040e 0B       		.uleb128 0xb
 13143 040f 3B       		.uleb128 0x3b
 13144 0410 0B       		.uleb128 0xb
 13145 0411 39       		.uleb128 0x39
 13146 0412 0B       		.uleb128 0xb
 13147 0413 49       		.uleb128 0x49
 13148 0414 13       		.uleb128 0x13
 13149 0415 02       		.uleb128 0x2
 13150 0416 18       		.uleb128 0x18
 13151 0417 00       		.byte	0
 13152 0418 00       		.byte	0
 13153 0419 43       		.uleb128 0x43
 13154 041a 2E       		.uleb128 0x2e
 13155 041b 01       		.byte	0x1
 13156 041c 03       		.uleb128 0x3
 13157 041d 0E       		.uleb128 0xe
 13158 041e 3A       		.uleb128 0x3a
 13159 041f 0B       		.uleb128 0xb
 13160 0420 3B       		.uleb128 0x3b
 13161 0421 05       		.uleb128 0x5
 13162 0422 39       		.uleb128 0x39
 13163 0423 0B       		.uleb128 0xb
 13164 0424 27       		.uleb128 0x27
 13165 0425 19       		.uleb128 0x19
 13166 0426 20       		.uleb128 0x20
 13167 0427 0B       		.uleb128 0xb
 13168 0428 01       		.uleb128 0x1
 13169 0429 13       		.uleb128 0x13
ARM GAS  /tmp/ccuqlnP4.s 			page 234


 13170 042a 00       		.byte	0
 13171 042b 00       		.byte	0
 13172 042c 44       		.uleb128 0x44
 13173 042d 05       		.uleb128 0x5
 13174 042e 00       		.byte	0
 13175 042f 03       		.uleb128 0x3
 13176 0430 0E       		.uleb128 0xe
 13177 0431 3A       		.uleb128 0x3a
 13178 0432 0B       		.uleb128 0xb
 13179 0433 3B       		.uleb128 0x3b
 13180 0434 05       		.uleb128 0x5
 13181 0435 39       		.uleb128 0x39
 13182 0436 0B       		.uleb128 0xb
 13183 0437 49       		.uleb128 0x49
 13184 0438 13       		.uleb128 0x13
 13185 0439 00       		.byte	0
 13186 043a 00       		.byte	0
 13187 043b 45       		.uleb128 0x45
 13188 043c 05       		.uleb128 0x5
 13189 043d 00       		.byte	0
 13190 043e 03       		.uleb128 0x3
 13191 043f 08       		.uleb128 0x8
 13192 0440 3A       		.uleb128 0x3a
 13193 0441 0B       		.uleb128 0xb
 13194 0442 3B       		.uleb128 0x3b
 13195 0443 05       		.uleb128 0x5
 13196 0444 39       		.uleb128 0x39
 13197 0445 0B       		.uleb128 0xb
 13198 0446 49       		.uleb128 0x49
 13199 0447 13       		.uleb128 0x13
 13200 0448 00       		.byte	0
 13201 0449 00       		.byte	0
 13202 044a 46       		.uleb128 0x46
 13203 044b 2E       		.uleb128 0x2e
 13204 044c 01       		.byte	0x1
 13205 044d 03       		.uleb128 0x3
 13206 044e 0E       		.uleb128 0xe
 13207 044f 3A       		.uleb128 0x3a
 13208 0450 0B       		.uleb128 0xb
 13209 0451 3B       		.uleb128 0x3b
 13210 0452 0B       		.uleb128 0xb
 13211 0453 39       		.uleb128 0x39
 13212 0454 0B       		.uleb128 0xb
 13213 0455 27       		.uleb128 0x27
 13214 0456 19       		.uleb128 0x19
 13215 0457 49       		.uleb128 0x49
 13216 0458 13       		.uleb128 0x13
 13217 0459 20       		.uleb128 0x20
 13218 045a 0B       		.uleb128 0xb
 13219 045b 01       		.uleb128 0x1
 13220 045c 13       		.uleb128 0x13
 13221 045d 00       		.byte	0
 13222 045e 00       		.byte	0
 13223 045f 47       		.uleb128 0x47
 13224 0460 05       		.uleb128 0x5
 13225 0461 00       		.byte	0
 13226 0462 03       		.uleb128 0x3
ARM GAS  /tmp/ccuqlnP4.s 			page 235


 13227 0463 08       		.uleb128 0x8
 13228 0464 3A       		.uleb128 0x3a
 13229 0465 0B       		.uleb128 0xb
 13230 0466 3B       		.uleb128 0x3b
 13231 0467 0B       		.uleb128 0xb
 13232 0468 39       		.uleb128 0x39
 13233 0469 0B       		.uleb128 0xb
 13234 046a 49       		.uleb128 0x49
 13235 046b 13       		.uleb128 0x13
 13236 046c 00       		.byte	0
 13237 046d 00       		.byte	0
 13238 046e 48       		.uleb128 0x48
 13239 046f 34       		.uleb128 0x34
 13240 0470 00       		.byte	0
 13241 0471 03       		.uleb128 0x3
 13242 0472 0E       		.uleb128 0xe
 13243 0473 49       		.uleb128 0x49
 13244 0474 13       		.uleb128 0x13
 13245 0475 34       		.uleb128 0x34
 13246 0476 19       		.uleb128 0x19
 13247 0477 00       		.byte	0
 13248 0478 00       		.byte	0
 13249 0479 49       		.uleb128 0x49
 13250 047a 34       		.uleb128 0x34
 13251 047b 00       		.byte	0
 13252 047c 03       		.uleb128 0x3
 13253 047d 08       		.uleb128 0x8
 13254 047e 3A       		.uleb128 0x3a
 13255 047f 0B       		.uleb128 0xb
 13256 0480 3B       		.uleb128 0x3b
 13257 0481 0B       		.uleb128 0xb
 13258 0482 39       		.uleb128 0x39
 13259 0483 0B       		.uleb128 0xb
 13260 0484 49       		.uleb128 0x49
 13261 0485 13       		.uleb128 0x13
 13262 0486 00       		.byte	0
 13263 0487 00       		.byte	0
 13264 0488 4A       		.uleb128 0x4a
 13265 0489 2E       		.uleb128 0x2e
 13266 048a 01       		.byte	0x1
 13267 048b 03       		.uleb128 0x3
 13268 048c 0E       		.uleb128 0xe
 13269 048d 3A       		.uleb128 0x3a
 13270 048e 0B       		.uleb128 0xb
 13271 048f 3B       		.uleb128 0x3b
 13272 0490 0B       		.uleb128 0xb
 13273 0491 39       		.uleb128 0x39
 13274 0492 0B       		.uleb128 0xb
 13275 0493 27       		.uleb128 0x27
 13276 0494 19       		.uleb128 0x19
 13277 0495 20       		.uleb128 0x20
 13278 0496 0B       		.uleb128 0xb
 13279 0497 01       		.uleb128 0x1
 13280 0498 13       		.uleb128 0x13
 13281 0499 00       		.byte	0
 13282 049a 00       		.byte	0
 13283 049b 4B       		.uleb128 0x4b
ARM GAS  /tmp/ccuqlnP4.s 			page 236


 13284 049c 2E       		.uleb128 0x2e
 13285 049d 00       		.byte	0
 13286 049e 03       		.uleb128 0x3
 13287 049f 0E       		.uleb128 0xe
 13288 04a0 3A       		.uleb128 0x3a
 13289 04a1 0B       		.uleb128 0xb
 13290 04a2 3B       		.uleb128 0x3b
 13291 04a3 05       		.uleb128 0x5
 13292 04a4 39       		.uleb128 0x39
 13293 04a5 0B       		.uleb128 0xb
 13294 04a6 27       		.uleb128 0x27
 13295 04a7 19       		.uleb128 0x19
 13296 04a8 49       		.uleb128 0x49
 13297 04a9 13       		.uleb128 0x13
 13298 04aa 20       		.uleb128 0x20
 13299 04ab 0B       		.uleb128 0xb
 13300 04ac 00       		.byte	0
 13301 04ad 00       		.byte	0
 13302 04ae 4C       		.uleb128 0x4c
 13303 04af 05       		.uleb128 0x5
 13304 04b0 00       		.byte	0
 13305 04b1 03       		.uleb128 0x3
 13306 04b2 0E       		.uleb128 0xe
 13307 04b3 3A       		.uleb128 0x3a
 13308 04b4 0B       		.uleb128 0xb
 13309 04b5 3B       		.uleb128 0x3b
 13310 04b6 0B       		.uleb128 0xb
 13311 04b7 39       		.uleb128 0x39
 13312 04b8 0B       		.uleb128 0xb
 13313 04b9 49       		.uleb128 0x49
 13314 04ba 13       		.uleb128 0x13
 13315 04bb 00       		.byte	0
 13316 04bc 00       		.byte	0
 13317 04bd 4D       		.uleb128 0x4d
 13318 04be 2E       		.uleb128 0x2e
 13319 04bf 00       		.byte	0
 13320 04c0 03       		.uleb128 0x3
 13321 04c1 0E       		.uleb128 0xe
 13322 04c2 3A       		.uleb128 0x3a
 13323 04c3 0B       		.uleb128 0xb
 13324 04c4 3B       		.uleb128 0x3b
 13325 04c5 0B       		.uleb128 0xb
 13326 04c6 39       		.uleb128 0x39
 13327 04c7 0B       		.uleb128 0xb
 13328 04c8 27       		.uleb128 0x27
 13329 04c9 19       		.uleb128 0x19
 13330 04ca 49       		.uleb128 0x49
 13331 04cb 13       		.uleb128 0x13
 13332 04cc 20       		.uleb128 0x20
 13333 04cd 0B       		.uleb128 0xb
 13334 04ce 00       		.byte	0
 13335 04cf 00       		.byte	0
 13336 04d0 4E       		.uleb128 0x4e
 13337 04d1 2E       		.uleb128 0x2e
 13338 04d2 00       		.byte	0
 13339 04d3 03       		.uleb128 0x3
 13340 04d4 0E       		.uleb128 0xe
ARM GAS  /tmp/ccuqlnP4.s 			page 237


 13341 04d5 3A       		.uleb128 0x3a
 13342 04d6 0B       		.uleb128 0xb
 13343 04d7 3B       		.uleb128 0x3b
 13344 04d8 05       		.uleb128 0x5
 13345 04d9 39       		.uleb128 0x39
 13346 04da 0B       		.uleb128 0xb
 13347 04db 27       		.uleb128 0x27
 13348 04dc 19       		.uleb128 0x19
 13349 04dd 20       		.uleb128 0x20
 13350 04de 0B       		.uleb128 0xb
 13351 04df 00       		.byte	0
 13352 04e0 00       		.byte	0
 13353 04e1 4F       		.uleb128 0x4f
 13354 04e2 2E       		.uleb128 0x2e
 13355 04e3 01       		.byte	0x1
 13356 04e4 03       		.uleb128 0x3
 13357 04e5 0E       		.uleb128 0xe
 13358 04e6 3A       		.uleb128 0x3a
 13359 04e7 0B       		.uleb128 0xb
 13360 04e8 3B       		.uleb128 0x3b
 13361 04e9 05       		.uleb128 0x5
 13362 04ea 39       		.uleb128 0x39
 13363 04eb 0B       		.uleb128 0xb
 13364 04ec 27       		.uleb128 0x27
 13365 04ed 19       		.uleb128 0x19
 13366 04ee 49       		.uleb128 0x49
 13367 04ef 13       		.uleb128 0x13
 13368 04f0 20       		.uleb128 0x20
 13369 04f1 0B       		.uleb128 0xb
 13370 04f2 01       		.uleb128 0x1
 13371 04f3 13       		.uleb128 0x13
 13372 04f4 00       		.byte	0
 13373 04f5 00       		.byte	0
 13374 04f6 50       		.uleb128 0x50
 13375 04f7 2E       		.uleb128 0x2e
 13376 04f8 00       		.byte	0
 13377 04f9 3F       		.uleb128 0x3f
 13378 04fa 19       		.uleb128 0x19
 13379 04fb 3C       		.uleb128 0x3c
 13380 04fc 19       		.uleb128 0x19
 13381 04fd 6E       		.uleb128 0x6e
 13382 04fe 0E       		.uleb128 0xe
 13383 04ff 03       		.uleb128 0x3
 13384 0500 0E       		.uleb128 0xe
 13385 0501 3A       		.uleb128 0x3a
 13386 0502 0B       		.uleb128 0xb
 13387 0503 3B       		.uleb128 0x3b
 13388 0504 05       		.uleb128 0x5
 13389 0505 39       		.uleb128 0x39
 13390 0506 0B       		.uleb128 0xb
 13391 0507 00       		.byte	0
 13392 0508 00       		.byte	0
 13393 0509 51       		.uleb128 0x51
 13394 050a 2E       		.uleb128 0x2e
 13395 050b 00       		.byte	0
 13396 050c 3F       		.uleb128 0x3f
 13397 050d 19       		.uleb128 0x19
ARM GAS  /tmp/ccuqlnP4.s 			page 238


 13398 050e 3C       		.uleb128 0x3c
 13399 050f 19       		.uleb128 0x19
 13400 0510 6E       		.uleb128 0x6e
 13401 0511 0E       		.uleb128 0xe
 13402 0512 03       		.uleb128 0x3
 13403 0513 0E       		.uleb128 0xe
 13404 0514 3A       		.uleb128 0x3a
 13405 0515 0B       		.uleb128 0xb
 13406 0516 3B       		.uleb128 0x3b
 13407 0517 0B       		.uleb128 0xb
 13408 0518 39       		.uleb128 0x39
 13409 0519 0B       		.uleb128 0xb
 13410 051a 00       		.byte	0
 13411 051b 00       		.byte	0
 13412 051c 00       		.byte	0
 13413              		.section	.debug_loc,"",%progbits
 13414              	.Ldebug_loc0:
 13415              	.LVUS0:
 13416 0000 01       		.uleb128 .LVU16
 13417 0001 00       		.uleb128 .LVU18
 13418              	.LLST0:
 13419 0002 18000000 		.4byte	.LVL1
 13420 0006 1C000000 		.4byte	.LVL2
 13421 000a 0600     		.2byte	0x6
 13422 000c 03       		.byte	0x3
 13423 000d 00000000 		.4byte	.LC0
 13424 0011 9F       		.byte	0x9f
 13425 0012 00000000 		.4byte	0
 13426 0016 00000000 		.4byte	0
 13427              	.LVUS1:
 13428 001a 02       		.uleb128 .LVU20
 13429 001b 00       		.uleb128 .LVU22
 13430              	.LLST1:
 13431 001c 1C000000 		.4byte	.LVL2
 13432 0020 24000000 		.4byte	.LVL3
 13433 0024 0300     		.2byte	0x3
 13434 0026 08       		.byte	0x8
 13435 0027 88       		.byte	0x88
 13436 0028 9F       		.byte	0x9f
 13437 0029 00000000 		.4byte	0
 13438 002d 00000000 		.4byte	0
 13439              	.LVUS2:
 13440 0031 02       		.uleb128 .LVU24
 13441 0032 00       		.uleb128 .LVU26
 13442              	.LLST2:
 13443 0033 24000000 		.4byte	.LVL3
 13444 0037 2C000000 		.4byte	.LVL4
 13445 003b 0600     		.2byte	0x6
 13446 003d 03       		.byte	0x3
 13447 003e 18000000 		.4byte	.LC3
 13448 0042 9F       		.byte	0x9f
 13449 0043 00000000 		.4byte	0
 13450 0047 00000000 		.4byte	0
 13451              	.LVUS3:
 13452 004b 01       		.uleb128 .LVU33
 13453 004c 00       		.uleb128 .LVU35
 13454              	.LLST3:
ARM GAS  /tmp/ccuqlnP4.s 			page 239


 13455 004d 32000000 		.4byte	.LVL5
 13456 0051 38000000 		.4byte	.LVL6
 13457 0055 0600     		.2byte	0x6
 13458 0057 03       		.byte	0x3
 13459 0058 28000000 		.4byte	.LC5
 13460 005c 9F       		.byte	0x9f
 13461 005d 00000000 		.4byte	0
 13462 0061 00000000 		.4byte	0
 13463              	.LVUS4:
 13464 0065 02       		.uleb128 .LVU37
 13465 0066 00       		.uleb128 .LVU39
 13466              	.LLST4:
 13467 0067 38000000 		.4byte	.LVL6
 13468 006b 40000000 		.4byte	.LVL7
 13469 006f 0300     		.2byte	0x3
 13470 0071 08       		.byte	0x8
 13471 0072 48       		.byte	0x48
 13472 0073 9F       		.byte	0x9f
 13473 0074 00000000 		.4byte	0
 13474 0078 00000000 		.4byte	0
 13475              	.LVUS5:
 13476 007c 02       		.uleb128 .LVU41
 13477 007d 00       		.uleb128 .LVU43
 13478              	.LLST5:
 13479 007e 40000000 		.4byte	.LVL7
 13480 0082 48000000 		.4byte	.LVL8
 13481 0086 0600     		.2byte	0x6
 13482 0088 03       		.byte	0x3
 13483 0089 18000000 		.4byte	.LC3
 13484 008d 9F       		.byte	0x9f
 13485 008e 00000000 		.4byte	0
 13486 0092 00000000 		.4byte	0
 13487              	.LVUS6:
 13488 0096 01       		.uleb128 .LVU50
 13489 0097 00       		.uleb128 .LVU52
 13490              	.LLST6:
 13491 0098 4E000000 		.4byte	.LVL9
 13492 009c 54000000 		.4byte	.LVL10
 13493 00a0 0600     		.2byte	0x6
 13494 00a2 03       		.byte	0x3
 13495 00a3 38000000 		.4byte	.LC6
 13496 00a7 9F       		.byte	0x9f
 13497 00a8 00000000 		.4byte	0
 13498 00ac 00000000 		.4byte	0
 13499              	.LVUS7:
 13500 00b0 02       		.uleb128 .LVU54
 13501 00b1 00       		.uleb128 .LVU56
 13502              	.LLST7:
 13503 00b2 54000000 		.4byte	.LVL10
 13504 00b6 5C000000 		.4byte	.LVL11
 13505 00ba 0200     		.2byte	0x2
 13506 00bc 48       		.byte	0x48
 13507 00bd 9F       		.byte	0x9f
 13508 00be 00000000 		.4byte	0
 13509 00c2 00000000 		.4byte	0
 13510              	.LVUS8:
 13511 00c6 02       		.uleb128 .LVU58
ARM GAS  /tmp/ccuqlnP4.s 			page 240


 13512 00c7 00       		.uleb128 .LVU60
 13513              	.LLST8:
 13514 00c8 5C000000 		.4byte	.LVL11
 13515 00cc 64000000 		.4byte	.LVL12
 13516 00d0 0600     		.2byte	0x6
 13517 00d2 03       		.byte	0x3
 13518 00d3 18000000 		.4byte	.LC3
 13519 00d7 9F       		.byte	0x9f
 13520 00d8 00000000 		.4byte	0
 13521 00dc 00000000 		.4byte	0
 13522              	.LVUS9:
 13523 00e0 01       		.uleb128 .LVU67
 13524 00e1 00       		.uleb128 .LVU69
 13525              	.LLST9:
 13526 00e2 6E000000 		.4byte	.LVL13
 13527 00e6 74000000 		.4byte	.LVL14
 13528 00ea 0600     		.2byte	0x6
 13529 00ec 03       		.byte	0x3
 13530 00ed 48000000 		.4byte	.LC7
 13531 00f1 9F       		.byte	0x9f
 13532 00f2 00000000 		.4byte	0
 13533 00f6 00000000 		.4byte	0
 13534              	.LVUS10:
 13535 00fa 02       		.uleb128 .LVU71
 13536 00fb 00       		.uleb128 .LVU73
 13537              	.LLST10:
 13538 00fc 74000000 		.4byte	.LVL14
 13539 0100 7C000000 		.4byte	.LVL15
 13540 0104 0200     		.2byte	0x2
 13541 0106 3C       		.byte	0x3c
 13542 0107 9F       		.byte	0x9f
 13543 0108 00000000 		.4byte	0
 13544 010c 00000000 		.4byte	0
 13545              	.LVUS11:
 13546 0110 02       		.uleb128 .LVU75
 13547 0111 00       		.uleb128 .LVU77
 13548              	.LLST11:
 13549 0112 7C000000 		.4byte	.LVL15
 13550 0116 84000000 		.4byte	.LVL16
 13551 011a 0600     		.2byte	0x6
 13552 011c 03       		.byte	0x3
 13553 011d 18000000 		.4byte	.LC3
 13554 0121 9F       		.byte	0x9f
 13555 0122 00000000 		.4byte	0
 13556 0126 00000000 		.4byte	0
 13557              	.LVUS12:
 13558 012a 01       		.uleb128 .LVU84
 13559 012b 00       		.uleb128 .LVU86
 13560              	.LLST12:
 13561 012c 8A000000 		.4byte	.LVL17
 13562 0130 90000000 		.4byte	.LVL18
 13563 0134 0600     		.2byte	0x6
 13564 0136 03       		.byte	0x3
 13565 0137 58000000 		.4byte	.LC8
 13566 013b 9F       		.byte	0x9f
 13567 013c 00000000 		.4byte	0
 13568 0140 00000000 		.4byte	0
ARM GAS  /tmp/ccuqlnP4.s 			page 241


 13569              	.LVUS13:
 13570 0144 02       		.uleb128 .LVU88
 13571 0145 00       		.uleb128 .LVU90
 13572              	.LLST13:
 13573 0146 90000000 		.4byte	.LVL18
 13574 014a 98000000 		.4byte	.LVL19
 13575 014e 0200     		.2byte	0x2
 13576 0150 40       		.byte	0x40
 13577 0151 9F       		.byte	0x9f
 13578 0152 00000000 		.4byte	0
 13579 0156 00000000 		.4byte	0
 13580              	.LVUS14:
 13581 015a 02       		.uleb128 .LVU92
 13582 015b 00       		.uleb128 .LVU94
 13583              	.LLST14:
 13584 015c 98000000 		.4byte	.LVL19
 13585 0160 A0000000 		.4byte	.LVL20
 13586 0164 0600     		.2byte	0x6
 13587 0166 03       		.byte	0x3
 13588 0167 18000000 		.4byte	.LC3
 13589 016b 9F       		.byte	0x9f
 13590 016c 00000000 		.4byte	0
 13591 0170 00000000 		.4byte	0
 13592              	.LVUS15:
 13593 0174 01       		.uleb128 .LVU101
 13594 0175 00       		.uleb128 .LVU103
 13595              	.LLST15:
 13596 0176 A6000000 		.4byte	.LVL21
 13597 017a AC000000 		.4byte	.LVL22
 13598 017e 0600     		.2byte	0x6
 13599 0180 03       		.byte	0x3
 13600 0181 68000000 		.4byte	.LC9
 13601 0185 9F       		.byte	0x9f
 13602 0186 00000000 		.4byte	0
 13603 018a 00000000 		.4byte	0
 13604              	.LVUS16:
 13605 018e 02       		.uleb128 .LVU105
 13606 018f 00       		.uleb128 .LVU107
 13607              	.LLST16:
 13608 0190 AC000000 		.4byte	.LVL22
 13609 0194 B4000000 		.4byte	.LVL23
 13610 0198 0200     		.2byte	0x2
 13611 019a 38       		.byte	0x38
 13612 019b 9F       		.byte	0x9f
 13613 019c 00000000 		.4byte	0
 13614 01a0 00000000 		.4byte	0
 13615              	.LVUS17:
 13616 01a4 02       		.uleb128 .LVU109
 13617 01a5 00       		.uleb128 .LVU111
 13618              	.LLST17:
 13619 01a6 B4000000 		.4byte	.LVL23
 13620 01aa BC000000 		.4byte	.LVL24
 13621 01ae 0600     		.2byte	0x6
 13622 01b0 03       		.byte	0x3
 13623 01b1 18000000 		.4byte	.LC3
 13624 01b5 9F       		.byte	0x9f
 13625 01b6 00000000 		.4byte	0
ARM GAS  /tmp/ccuqlnP4.s 			page 242


 13626 01ba 00000000 		.4byte	0
 13627              	.LVUS18:
 13628 01be 01       		.uleb128 .LVU118
 13629 01bf 00       		.uleb128 .LVU120
 13630              	.LLST18:
 13631 01c0 C2000000 		.4byte	.LVL25
 13632 01c4 C8000000 		.4byte	.LVL26
 13633 01c8 0600     		.2byte	0x6
 13634 01ca 03       		.byte	0x3
 13635 01cb 78000000 		.4byte	.LC10
 13636 01cf 9F       		.byte	0x9f
 13637 01d0 00000000 		.4byte	0
 13638 01d4 00000000 		.4byte	0
 13639              	.LVUS19:
 13640 01d8 02       		.uleb128 .LVU122
 13641 01d9 00       		.uleb128 .LVU124
 13642              	.LLST19:
 13643 01da C8000000 		.4byte	.LVL26
 13644 01de D0000000 		.4byte	.LVL27
 13645 01e2 0200     		.2byte	0x2
 13646 01e4 34       		.byte	0x34
 13647 01e5 9F       		.byte	0x9f
 13648 01e6 00000000 		.4byte	0
 13649 01ea 00000000 		.4byte	0
 13650              	.LVUS20:
 13651 01ee 02       		.uleb128 .LVU126
 13652 01ef 00       		.uleb128 .LVU128
 13653              	.LLST20:
 13654 01f0 D0000000 		.4byte	.LVL27
 13655 01f4 D8000000 		.4byte	.LVL28
 13656 01f8 0600     		.2byte	0x6
 13657 01fa 03       		.byte	0x3
 13658 01fb 18000000 		.4byte	.LC3
 13659 01ff 9F       		.byte	0x9f
 13660 0200 00000000 		.4byte	0
 13661 0204 00000000 		.4byte	0
 13662              	.LVUS21:
 13663 0208 01       		.uleb128 .LVU135
 13664 0209 00       		.uleb128 .LVU137
 13665              	.LLST21:
 13666 020a DE000000 		.4byte	.LVL29
 13667 020e E4000000 		.4byte	.LVL30
 13668 0212 0600     		.2byte	0x6
 13669 0214 03       		.byte	0x3
 13670 0215 88000000 		.4byte	.LC11
 13671 0219 9F       		.byte	0x9f
 13672 021a 00000000 		.4byte	0
 13673 021e 00000000 		.4byte	0
 13674              	.LVUS22:
 13675 0222 02       		.uleb128 .LVU139
 13676 0223 00       		.uleb128 .LVU141
 13677              	.LLST22:
 13678 0224 E4000000 		.4byte	.LVL30
 13679 0228 EC000000 		.4byte	.LVL31
 13680 022c 0200     		.2byte	0x2
 13681 022e 44       		.byte	0x44
 13682 022f 9F       		.byte	0x9f
ARM GAS  /tmp/ccuqlnP4.s 			page 243


 13683 0230 00000000 		.4byte	0
 13684 0234 00000000 		.4byte	0
 13685              	.LVUS23:
 13686 0238 02       		.uleb128 .LVU143
 13687 0239 00       		.uleb128 .LVU145
 13688              	.LLST23:
 13689 023a EC000000 		.4byte	.LVL31
 13690 023e F4000000 		.4byte	.LVL32
 13691 0242 0600     		.2byte	0x6
 13692 0244 03       		.byte	0x3
 13693 0245 18000000 		.4byte	.LC3
 13694 0249 9F       		.byte	0x9f
 13695 024a 00000000 		.4byte	0
 13696 024e 00000000 		.4byte	0
 13697              	.LVUS24:
 13698 0252 01       		.uleb128 .LVU152
 13699 0253 00       		.uleb128 .LVU154
 13700              	.LLST24:
 13701 0254 FA000000 		.4byte	.LVL33
 13702 0258 00010000 		.4byte	.LVL34
 13703 025c 0600     		.2byte	0x6
 13704 025e 03       		.byte	0x3
 13705 025f 98000000 		.4byte	.LC12
 13706 0263 9F       		.byte	0x9f
 13707 0264 00000000 		.4byte	0
 13708 0268 00000000 		.4byte	0
 13709              	.LVUS25:
 13710 026c 02       		.uleb128 .LVU156
 13711 026d 00       		.uleb128 .LVU158
 13712              	.LLST25:
 13713 026e 00010000 		.4byte	.LVL34
 13714 0272 08010000 		.4byte	.LVL35
 13715 0276 0300     		.2byte	0x3
 13716 0278 08       		.byte	0x8
 13717 0279 28       		.byte	0x28
 13718 027a 9F       		.byte	0x9f
 13719 027b 00000000 		.4byte	0
 13720 027f 00000000 		.4byte	0
 13721              	.LVUS26:
 13722 0283 02       		.uleb128 .LVU173
 13723 0284 00       		.uleb128 .LVU181
 13724 0285 00       		.uleb128 .LVU181
 13725 0286 00       		.uleb128 .LVU225
 13726              	.LLST26:
 13727 0287 10000000 		.4byte	.LVL37
 13728 028b 1C000000 		.4byte	.LVL40
 13729 028f 0200     		.2byte	0x2
 13730 0291 30       		.byte	0x30
 13731 0292 9F       		.byte	0x9f
 13732 0293 1C000000 		.4byte	.LVL40
 13733 0297 74000000 		.4byte	.LVL55
 13734 029b 0100     		.2byte	0x1
 13735 029d 55       		.byte	0x55
 13736 029e 00000000 		.4byte	0
 13737 02a2 00000000 		.4byte	0
 13738              	.LVUS27:
 13739 02a6 00       		.uleb128 .LVU177
ARM GAS  /tmp/ccuqlnP4.s 			page 244


 13740 02a7 00       		.uleb128 .LVU181
 13741 02a8 00       		.uleb128 .LVU181
 13742 02a9 00       		.uleb128 .LVU225
 13743              	.LLST27:
 13744 02aa 18000000 		.4byte	.LVL39
 13745 02ae 1C000000 		.4byte	.LVL40
 13746 02b2 0100     		.2byte	0x1
 13747 02b4 50       		.byte	0x50
 13748 02b5 1C000000 		.4byte	.LVL40
 13749 02b9 74000000 		.4byte	.LVL55
 13750 02bd 0100     		.2byte	0x1
 13751 02bf 56       		.byte	0x56
 13752 02c0 00000000 		.4byte	0
 13753 02c4 00000000 		.4byte	0
 13754              	.LVUS28:
 13755 02c8 03       		.uleb128 .LVU180
 13756 02c9 00       		.uleb128 .LVU181
 13757 02ca 00       		.uleb128 .LVU181
 13758 02cb 00       		.uleb128 .LVU225
 13759              	.LLST28:
 13760 02cc 18000000 		.4byte	.LVL39
 13761 02d0 1C000000 		.4byte	.LVL40
 13762 02d4 0500     		.2byte	0x5
 13763 02d6 70       		.byte	0x70
 13764 02d7 90CE00   		.sleb128 10000
 13765 02da 9F       		.byte	0x9f
 13766 02db 1C000000 		.4byte	.LVL40
 13767 02df 74000000 		.4byte	.LVL55
 13768 02e3 0500     		.2byte	0x5
 13769 02e5 76       		.byte	0x76
 13770 02e6 90CE00   		.sleb128 10000
 13771 02e9 9F       		.byte	0x9f
 13772 02ea 00000000 		.4byte	0
 13773 02ee 00000000 		.4byte	0
 13774              	.LVUS29:
 13775 02f2 01       		.uleb128 .LVU196
 13776 02f3 0A       		.uleb128 .LVU205
 13777              	.LLST29:
 13778 02f4 58000000 		.4byte	.LVL50
 13779 02f8 58000000 		.4byte	.LVL50
 13780 02fc 0500     		.2byte	0x5
 13781 02fe 76       		.byte	0x76
 13782 02ff 90CE00   		.sleb128 10000
 13783 0302 9F       		.byte	0x9f
 13784 0303 00000000 		.4byte	0
 13785 0307 00000000 		.4byte	0
 13786              	.LVUS30:
 13787 030b 01       		.uleb128 .LVU196
 13788 030c 0A       		.uleb128 .LVU205
 13789              	.LLST30:
 13790 030d 58000000 		.4byte	.LVL50
 13791 0311 58000000 		.4byte	.LVL50
 13792 0315 0100     		.2byte	0x1
 13793 0317 56       		.byte	0x56
 13794 0318 00000000 		.4byte	0
 13795 031c 00000000 		.4byte	0
 13796              	.LVUS31:
ARM GAS  /tmp/ccuqlnP4.s 			page 245


 13797 0320 07       		.uleb128 .LVU202
 13798 0321 0A       		.uleb128 .LVU205
 13799              	.LLST31:
 13800 0322 58000000 		.4byte	.LVL50
 13801 0326 58000000 		.4byte	.LVL50
 13802 032a 0500     		.2byte	0x5
 13803 032c 76       		.byte	0x76
 13804 032d 90CE00   		.sleb128 10000
 13805 0330 9F       		.byte	0x9f
 13806 0331 00000000 		.4byte	0
 13807 0335 00000000 		.4byte	0
 13808              	.LVUS32:
 13809 0339 07       		.uleb128 .LVU202
 13810 033a 0A       		.uleb128 .LVU205
 13811              	.LLST32:
 13812 033b 58000000 		.4byte	.LVL50
 13813 033f 58000000 		.4byte	.LVL50
 13814 0343 0100     		.2byte	0x1
 13815 0345 56       		.byte	0x56
 13816 0346 00000000 		.4byte	0
 13817 034a 00000000 		.4byte	0
 13818              	.LVUS33:
 13819 034e 01       		.uleb128 .LVU213
 13820 034f 00       		.uleb128 .LVU215
 13821              	.LLST33:
 13822 0350 64000000 		.4byte	.LVL51
 13823 0354 68000000 		.4byte	.LVL52
 13824 0358 0600     		.2byte	0x6
 13825 035a 03       		.byte	0x3
 13826 035b 00000000 		.4byte	.LC13
 13827 035f 9F       		.byte	0x9f
 13828 0360 00000000 		.4byte	0
 13829 0364 00000000 		.4byte	0
 13830              	.LVUS34:
 13831 0368 02       		.uleb128 .LVU217
 13832 0369 00       		.uleb128 .LVU219
 13833 036a 00       		.uleb128 .LVU219
 13834 036b 00       		.uleb128 .LVU220
 13835 036c 00       		.uleb128 .LVU220
 13836 036d 00       		.uleb128 .LVU220
 13837              	.LLST34:
 13838 036e 68000000 		.4byte	.LVL52
 13839 0372 6A000000 		.4byte	.LVL53
 13840 0376 0500     		.2byte	0x5
 13841 0378 75       		.byte	0x75
 13842 0379 00       		.sleb128 0
 13843 037a 32       		.byte	0x32
 13844 037b 24       		.byte	0x24
 13845 037c 9F       		.byte	0x9f
 13846 037d 6A000000 		.4byte	.LVL53
 13847 0381 6F000000 		.4byte	.LVL54-1
 13848 0385 0100     		.2byte	0x1
 13849 0387 51       		.byte	0x51
 13850 0388 6F000000 		.4byte	.LVL54-1
 13851 038c 70000000 		.4byte	.LVL54
 13852 0390 0500     		.2byte	0x5
 13853 0392 75       		.byte	0x75
ARM GAS  /tmp/ccuqlnP4.s 			page 246


 13854 0393 00       		.sleb128 0
 13855 0394 32       		.byte	0x32
 13856 0395 24       		.byte	0x24
 13857 0396 9F       		.byte	0x9f
 13858 0397 00000000 		.4byte	0
 13859 039b 00000000 		.4byte	0
 13860              	.LVUS36:
 13861 039f 02       		.uleb128 .LVU259
 13862 03a0 00       		.uleb128 .LVU267
 13863 03a1 00       		.uleb128 .LVU267
 13864 03a2 00       		.uleb128 .LVU311
 13865              	.LLST36:
 13866 03a3 10000000 		.4byte	.LVL61
 13867 03a7 1C000000 		.4byte	.LVL64
 13868 03ab 0200     		.2byte	0x2
 13869 03ad 30       		.byte	0x30
 13870 03ae 9F       		.byte	0x9f
 13871 03af 1C000000 		.4byte	.LVL64
 13872 03b3 74000000 		.4byte	.LVL79
 13873 03b7 0100     		.2byte	0x1
 13874 03b9 55       		.byte	0x55
 13875 03ba 00000000 		.4byte	0
 13876 03be 00000000 		.4byte	0
 13877              	.LVUS37:
 13878 03c2 00       		.uleb128 .LVU263
 13879 03c3 00       		.uleb128 .LVU267
 13880 03c4 00       		.uleb128 .LVU267
 13881 03c5 00       		.uleb128 .LVU311
 13882              	.LLST37:
 13883 03c6 18000000 		.4byte	.LVL63
 13884 03ca 1C000000 		.4byte	.LVL64
 13885 03ce 0100     		.2byte	0x1
 13886 03d0 50       		.byte	0x50
 13887 03d1 1C000000 		.4byte	.LVL64
 13888 03d5 74000000 		.4byte	.LVL79
 13889 03d9 0100     		.2byte	0x1
 13890 03db 56       		.byte	0x56
 13891 03dc 00000000 		.4byte	0
 13892 03e0 00000000 		.4byte	0
 13893              	.LVUS38:
 13894 03e4 03       		.uleb128 .LVU266
 13895 03e5 00       		.uleb128 .LVU267
 13896 03e6 00       		.uleb128 .LVU267
 13897 03e7 00       		.uleb128 .LVU311
 13898              	.LLST38:
 13899 03e8 18000000 		.4byte	.LVL63
 13900 03ec 1C000000 		.4byte	.LVL64
 13901 03f0 0500     		.2byte	0x5
 13902 03f2 70       		.byte	0x70
 13903 03f3 90CE00   		.sleb128 10000
 13904 03f6 9F       		.byte	0x9f
 13905 03f7 1C000000 		.4byte	.LVL64
 13906 03fb 74000000 		.4byte	.LVL79
 13907 03ff 0500     		.2byte	0x5
 13908 0401 76       		.byte	0x76
 13909 0402 90CE00   		.sleb128 10000
 13910 0405 9F       		.byte	0x9f
ARM GAS  /tmp/ccuqlnP4.s 			page 247


 13911 0406 00000000 		.4byte	0
 13912 040a 00000000 		.4byte	0
 13913              	.LVUS39:
 13914 040e 01       		.uleb128 .LVU282
 13915 040f 0A       		.uleb128 .LVU291
 13916              	.LLST39:
 13917 0410 58000000 		.4byte	.LVL74
 13918 0414 58000000 		.4byte	.LVL74
 13919 0418 0500     		.2byte	0x5
 13920 041a 76       		.byte	0x76
 13921 041b 90CE00   		.sleb128 10000
 13922 041e 9F       		.byte	0x9f
 13923 041f 00000000 		.4byte	0
 13924 0423 00000000 		.4byte	0
 13925              	.LVUS40:
 13926 0427 01       		.uleb128 .LVU282
 13927 0428 0A       		.uleb128 .LVU291
 13928              	.LLST40:
 13929 0429 58000000 		.4byte	.LVL74
 13930 042d 58000000 		.4byte	.LVL74
 13931 0431 0100     		.2byte	0x1
 13932 0433 56       		.byte	0x56
 13933 0434 00000000 		.4byte	0
 13934 0438 00000000 		.4byte	0
 13935              	.LVUS41:
 13936 043c 07       		.uleb128 .LVU288
 13937 043d 0A       		.uleb128 .LVU291
 13938              	.LLST41:
 13939 043e 58000000 		.4byte	.LVL74
 13940 0442 58000000 		.4byte	.LVL74
 13941 0446 0500     		.2byte	0x5
 13942 0448 76       		.byte	0x76
 13943 0449 90CE00   		.sleb128 10000
 13944 044c 9F       		.byte	0x9f
 13945 044d 00000000 		.4byte	0
 13946 0451 00000000 		.4byte	0
 13947              	.LVUS42:
 13948 0455 07       		.uleb128 .LVU288
 13949 0456 0A       		.uleb128 .LVU291
 13950              	.LLST42:
 13951 0457 58000000 		.4byte	.LVL74
 13952 045b 58000000 		.4byte	.LVL74
 13953 045f 0100     		.2byte	0x1
 13954 0461 56       		.byte	0x56
 13955 0462 00000000 		.4byte	0
 13956 0466 00000000 		.4byte	0
 13957              	.LVUS43:
 13958 046a 01       		.uleb128 .LVU299
 13959 046b 00       		.uleb128 .LVU301
 13960              	.LLST43:
 13961 046c 64000000 		.4byte	.LVL75
 13962 0470 68000000 		.4byte	.LVL76
 13963 0474 0600     		.2byte	0x6
 13964 0476 03       		.byte	0x3
 13965 0477 00000000 		.4byte	.LC13
 13966 047b 9F       		.byte	0x9f
 13967 047c 00000000 		.4byte	0
ARM GAS  /tmp/ccuqlnP4.s 			page 248


 13968 0480 00000000 		.4byte	0
 13969              	.LVUS44:
 13970 0484 02       		.uleb128 .LVU303
 13971 0485 00       		.uleb128 .LVU305
 13972 0486 00       		.uleb128 .LVU305
 13973 0487 00       		.uleb128 .LVU306
 13974 0488 00       		.uleb128 .LVU306
 13975 0489 00       		.uleb128 .LVU306
 13976              	.LLST44:
 13977 048a 68000000 		.4byte	.LVL76
 13978 048e 6A000000 		.4byte	.LVL77
 13979 0492 0500     		.2byte	0x5
 13980 0494 75       		.byte	0x75
 13981 0495 00       		.sleb128 0
 13982 0496 32       		.byte	0x32
 13983 0497 24       		.byte	0x24
 13984 0498 9F       		.byte	0x9f
 13985 0499 6A000000 		.4byte	.LVL77
 13986 049d 6F000000 		.4byte	.LVL78-1
 13987 04a1 0100     		.2byte	0x1
 13988 04a3 51       		.byte	0x51
 13989 04a4 6F000000 		.4byte	.LVL78-1
 13990 04a8 70000000 		.4byte	.LVL78
 13991 04ac 0500     		.2byte	0x5
 13992 04ae 75       		.byte	0x75
 13993 04af 00       		.sleb128 0
 13994 04b0 32       		.byte	0x32
 13995 04b1 24       		.byte	0x24
 13996 04b2 9F       		.byte	0x9f
 13997 04b3 00000000 		.4byte	0
 13998 04b7 00000000 		.4byte	0
 13999              	.LVUS45:
 14000 04bb 02       		.uleb128 .LVU327
 14001 04bc 00       		.uleb128 .LVU336
 14002 04bd 00       		.uleb128 .LVU336
 14003 04be 00       		.uleb128 .LVU400
 14004              	.LLST45:
 14005 04bf 16000000 		.4byte	.LVL83
 14006 04c3 24000000 		.4byte	.LVL86
 14007 04c7 0200     		.2byte	0x2
 14008 04c9 30       		.byte	0x30
 14009 04ca 9F       		.byte	0x9f
 14010 04cb 24000000 		.4byte	.LVL86
 14011 04cf 7E000000 		.4byte	.LVL99
 14012 04d3 0100     		.2byte	0x1
 14013 04d5 54       		.byte	0x54
 14014 04d6 00000000 		.4byte	0
 14015 04da 00000000 		.4byte	0
 14016              	.LVUS46:
 14017 04de 00       		.uleb128 .LVU331
 14018 04df 00       		.uleb128 .LVU336
 14019 04e0 00       		.uleb128 .LVU336
 14020 04e1 00       		.uleb128 .LVU400
 14021              	.LLST46:
 14022 04e2 1E000000 		.4byte	.LVL85
 14023 04e6 24000000 		.4byte	.LVL86
 14024 04ea 0100     		.2byte	0x1
ARM GAS  /tmp/ccuqlnP4.s 			page 249


 14025 04ec 50       		.byte	0x50
 14026 04ed 24000000 		.4byte	.LVL86
 14027 04f1 7E000000 		.4byte	.LVL99
 14028 04f5 0100     		.2byte	0x1
 14029 04f7 57       		.byte	0x57
 14030 04f8 00000000 		.4byte	0
 14031 04fc 00000000 		.4byte	0
 14032              	.LVUS47:
 14033 0500 03       		.uleb128 .LVU334
 14034 0501 00       		.uleb128 .LVU336
 14035 0502 00       		.uleb128 .LVU336
 14036 0503 00       		.uleb128 .LVU400
 14037              	.LLST47:
 14038 0504 1E000000 		.4byte	.LVL85
 14039 0508 24000000 		.4byte	.LVL86
 14040 050c 0500     		.2byte	0x5
 14041 050e 70       		.byte	0x70
 14042 050f 90CE00   		.sleb128 10000
 14043 0512 9F       		.byte	0x9f
 14044 0513 24000000 		.4byte	.LVL86
 14045 0517 7E000000 		.4byte	.LVL99
 14046 051b 0500     		.2byte	0x5
 14047 051d 77       		.byte	0x77
 14048 051e 90CE00   		.sleb128 10000
 14049 0521 9F       		.byte	0x9f
 14050 0522 00000000 		.4byte	0
 14051 0526 00000000 		.4byte	0
 14052              	.LVUS48:
 14053 052a 06       		.uleb128 .LVU342
 14054 052b 00       		.uleb128 .LVU344
 14055              	.LLST48:
 14056 052c 24000000 		.4byte	.LVL86
 14057 0530 28000000 		.4byte	.LVL87
 14058 0534 0300     		.2byte	0x3
 14059 0536 08       		.byte	0x8
 14060 0537 30       		.byte	0x30
 14061 0538 9F       		.byte	0x9f
 14062 0539 00000000 		.4byte	0
 14063 053d 00000000 		.4byte	0
 14064              	.LVUS49:
 14065 0541 0A       		.uleb128 .LVU361
 14066 0542 00       		.uleb128 .LVU363
 14067              	.LLST49:
 14068 0543 4E000000 		.4byte	.LVL91
 14069 0547 52000000 		.4byte	.LVL92
 14070 054b 0200     		.2byte	0x2
 14071 054d 30       		.byte	0x30
 14072 054e 9F       		.byte	0x9f
 14073 054f 00000000 		.4byte	0
 14074 0553 00000000 		.4byte	0
 14075              	.LVUS50:
 14076 0557 01       		.uleb128 .LVU371
 14077 0558 0A       		.uleb128 .LVU380
 14078              	.LLST50:
 14079 0559 62000000 		.4byte	.LVL94
 14080 055d 62000000 		.4byte	.LVL94
 14081 0561 0500     		.2byte	0x5
ARM GAS  /tmp/ccuqlnP4.s 			page 250


 14082 0563 77       		.byte	0x77
 14083 0564 90CE00   		.sleb128 10000
 14084 0567 9F       		.byte	0x9f
 14085 0568 00000000 		.4byte	0
 14086 056c 00000000 		.4byte	0
 14087              	.LVUS51:
 14088 0570 01       		.uleb128 .LVU371
 14089 0571 0A       		.uleb128 .LVU380
 14090              	.LLST51:
 14091 0572 62000000 		.4byte	.LVL94
 14092 0576 62000000 		.4byte	.LVL94
 14093 057a 0100     		.2byte	0x1
 14094 057c 57       		.byte	0x57
 14095 057d 00000000 		.4byte	0
 14096 0581 00000000 		.4byte	0
 14097              	.LVUS52:
 14098 0585 07       		.uleb128 .LVU377
 14099 0586 0A       		.uleb128 .LVU380
 14100              	.LLST52:
 14101 0587 62000000 		.4byte	.LVL94
 14102 058b 62000000 		.4byte	.LVL94
 14103 058f 0500     		.2byte	0x5
 14104 0591 77       		.byte	0x77
 14105 0592 90CE00   		.sleb128 10000
 14106 0595 9F       		.byte	0x9f
 14107 0596 00000000 		.4byte	0
 14108 059a 00000000 		.4byte	0
 14109              	.LVUS53:
 14110 059e 07       		.uleb128 .LVU377
 14111 059f 0A       		.uleb128 .LVU380
 14112              	.LLST53:
 14113 05a0 62000000 		.4byte	.LVL94
 14114 05a4 62000000 		.4byte	.LVL94
 14115 05a8 0100     		.2byte	0x1
 14116 05aa 57       		.byte	0x57
 14117 05ab 00000000 		.4byte	0
 14118 05af 00000000 		.4byte	0
 14119              	.LVUS54:
 14120 05b3 01       		.uleb128 .LVU388
 14121 05b4 00       		.uleb128 .LVU390
 14122              	.LLST54:
 14123 05b5 6E000000 		.4byte	.LVL95
 14124 05b9 72000000 		.4byte	.LVL96
 14125 05bd 0600     		.2byte	0x6
 14126 05bf 03       		.byte	0x3
 14127 05c0 00000000 		.4byte	.LC13
 14128 05c4 9F       		.byte	0x9f
 14129 05c5 00000000 		.4byte	0
 14130 05c9 00000000 		.4byte	0
 14131              	.LVUS55:
 14132 05cd 02       		.uleb128 .LVU392
 14133 05ce 00       		.uleb128 .LVU394
 14134 05cf 00       		.uleb128 .LVU394
 14135 05d0 00       		.uleb128 .LVU395
 14136 05d1 00       		.uleb128 .LVU395
 14137 05d2 00       		.uleb128 .LVU395
 14138              	.LLST55:
ARM GAS  /tmp/ccuqlnP4.s 			page 251


 14139 05d3 72000000 		.4byte	.LVL96
 14140 05d7 74000000 		.4byte	.LVL97
 14141 05db 0500     		.2byte	0x5
 14142 05dd 74       		.byte	0x74
 14143 05de 00       		.sleb128 0
 14144 05df 31       		.byte	0x31
 14145 05e0 24       		.byte	0x24
 14146 05e1 9F       		.byte	0x9f
 14147 05e2 74000000 		.4byte	.LVL97
 14148 05e6 79000000 		.4byte	.LVL98-1
 14149 05ea 0100     		.2byte	0x1
 14150 05ec 51       		.byte	0x51
 14151 05ed 79000000 		.4byte	.LVL98-1
 14152 05f1 7A000000 		.4byte	.LVL98
 14153 05f5 0500     		.2byte	0x5
 14154 05f7 74       		.byte	0x74
 14155 05f8 00       		.sleb128 0
 14156 05f9 31       		.byte	0x31
 14157 05fa 24       		.byte	0x24
 14158 05fb 9F       		.byte	0x9f
 14159 05fc 00000000 		.4byte	0
 14160 0600 00000000 		.4byte	0
 14161              	.LVUS56:
 14162 0604 01       		.uleb128 .LVU471
 14163 0605 00       		.uleb128 .LVU473
 14164              	.LLST56:
 14165 0606 BE000000 		.4byte	.LVL110
 14166 060a C2000000 		.4byte	.LVL111
 14167 060e 0600     		.2byte	0x6
 14168 0610 03       		.byte	0x3
 14169 0611 00000000 		.4byte	.LC13
 14170 0615 9F       		.byte	0x9f
 14171 0616 00000000 		.4byte	0
 14172 061a 00000000 		.4byte	0
 14173              	.LVUS57:
 14174 061e 02       		.uleb128 .LVU475
 14175 061f 00       		.uleb128 .LVU477
 14176              	.LLST57:
 14177 0620 C2000000 		.4byte	.LVL111
 14178 0624 C9000000 		.4byte	.LVL112-1
 14179 0628 0200     		.2byte	0x2
 14180 062a 76       		.byte	0x76
 14181 062b 00       		.sleb128 0
 14182 062c 00000000 		.4byte	0
 14183 0630 00000000 		.4byte	0
 14184              	.LVUS58:
 14185 0634 02       		.uleb128 .LVU479
 14186 0635 00       		.uleb128 .LVU481
 14187              	.LLST58:
 14188 0636 CA000000 		.4byte	.LVL112
 14189 063a D2000000 		.4byte	.LVL113
 14190 063e 0600     		.2byte	0x6
 14191 0640 03       		.byte	0x3
 14192 0641 00000000 		.4byte	.LC17
 14193 0645 9F       		.byte	0x9f
 14194 0646 00000000 		.4byte	0
 14195 064a 00000000 		.4byte	0
ARM GAS  /tmp/ccuqlnP4.s 			page 252


 14196              	.LVUS60:
 14197 064e 02       		.uleb128 .LVU566
 14198 064f 03       		.uleb128 .LVU573
 14199 0650 03       		.uleb128 .LVU573
 14200 0651 00       		.uleb128 .LVU622
 14201              	.LLST60:
 14202 0652 92000000 		.4byte	.LVL126
 14203 0656 9A000000 		.4byte	.LVL128
 14204 065a 0200     		.2byte	0x2
 14205 065c 30       		.byte	0x30
 14206 065d 9F       		.byte	0x9f
 14207 065e 9A000000 		.4byte	.LVL128
 14208 0662 E8000000 		.4byte	.LVL138
 14209 0666 0100     		.2byte	0x1
 14210 0668 54       		.byte	0x54
 14211 0669 00000000 		.4byte	0
 14212 066d 00000000 		.4byte	0
 14213              	.LVUS61:
 14214 0671 00       		.uleb128 .LVU570
 14215 0672 03       		.uleb128 .LVU573
 14216 0673 03       		.uleb128 .LVU573
 14217 0674 00       		.uleb128 .LVU631
 14218              	.LLST61:
 14219 0675 9A000000 		.4byte	.LVL128
 14220 0679 9A000000 		.4byte	.LVL128
 14221 067d 0100     		.2byte	0x1
 14222 067f 50       		.byte	0x50
 14223 0680 9A000000 		.4byte	.LVL128
 14224 0684 02010000 		.4byte	.LVL141
 14225 0688 0100     		.2byte	0x1
 14226 068a 55       		.byte	0x55
 14227 068b 00000000 		.4byte	0
 14228 068f 00000000 		.4byte	0
 14229              	.LVUS62:
 14230 0693 03       		.uleb128 .LVU573
 14231 0694 00       		.uleb128 .LVU631
 14232              	.LLST62:
 14233 0695 9A000000 		.4byte	.LVL128
 14234 0699 02010000 		.4byte	.LVL141
 14235 069d 0500     		.2byte	0x5
 14236 069f 75       		.byte	0x75
 14237 06a0 90CE00   		.sleb128 10000
 14238 06a3 9F       		.byte	0x9f
 14239 06a4 00000000 		.4byte	0
 14240 06a8 00000000 		.4byte	0
 14241              	.LVUS63:
 14242 06ac 05       		.uleb128 .LVU575
 14243 06ad 00       		.uleb128 .LVU577
 14244              	.LLST63:
 14245 06ae 9A000000 		.4byte	.LVL128
 14246 06b2 A6000000 		.4byte	.LVL129
 14247 06b6 0200     		.2byte	0x2
 14248 06b8 30       		.byte	0x30
 14249 06b9 9F       		.byte	0x9f
 14250 06ba 00000000 		.4byte	0
 14251 06be 00000000 		.4byte	0
 14252              	.LVUS64:
ARM GAS  /tmp/ccuqlnP4.s 			page 253


 14253 06c2 05       		.uleb128 .LVU575
 14254 06c3 00       		.uleb128 .LVU577
 14255              	.LLST64:
 14256 06c4 9A000000 		.4byte	.LVL128
 14257 06c8 A6000000 		.4byte	.LVL129
 14258 06cc 0600     		.2byte	0x6
 14259 06ce 03       		.byte	0x3
 14260 06cf 00000000 		.4byte	sem1
 14261 06d3 9F       		.byte	0x9f
 14262 06d4 00000000 		.4byte	0
 14263 06d8 00000000 		.4byte	0
 14264              	.LVUS65:
 14265 06dc 01       		.uleb128 .LVU585
 14266 06dd 0A       		.uleb128 .LVU594
 14267              	.LLST65:
 14268 06de B6000000 		.4byte	.LVL131
 14269 06e2 B6000000 		.4byte	.LVL131
 14270 06e6 0500     		.2byte	0x5
 14271 06e8 75       		.byte	0x75
 14272 06e9 90CE00   		.sleb128 10000
 14273 06ec 9F       		.byte	0x9f
 14274 06ed 00000000 		.4byte	0
 14275 06f1 00000000 		.4byte	0
 14276              	.LVUS66:
 14277 06f5 01       		.uleb128 .LVU585
 14278 06f6 0A       		.uleb128 .LVU594
 14279              	.LLST66:
 14280 06f7 B6000000 		.4byte	.LVL131
 14281 06fb B6000000 		.4byte	.LVL131
 14282 06ff 0100     		.2byte	0x1
 14283 0701 55       		.byte	0x55
 14284 0702 00000000 		.4byte	0
 14285 0706 00000000 		.4byte	0
 14286              	.LVUS67:
 14287 070a 07       		.uleb128 .LVU591
 14288 070b 0A       		.uleb128 .LVU594
 14289              	.LLST67:
 14290 070c B6000000 		.4byte	.LVL131
 14291 0710 B6000000 		.4byte	.LVL131
 14292 0714 0500     		.2byte	0x5
 14293 0716 75       		.byte	0x75
 14294 0717 90CE00   		.sleb128 10000
 14295 071a 9F       		.byte	0x9f
 14296 071b 00000000 		.4byte	0
 14297 071f 00000000 		.4byte	0
 14298              	.LVUS68:
 14299 0723 07       		.uleb128 .LVU591
 14300 0724 0A       		.uleb128 .LVU594
 14301              	.LLST68:
 14302 0725 B6000000 		.4byte	.LVL131
 14303 0729 B6000000 		.4byte	.LVL131
 14304 072d 0100     		.2byte	0x1
 14305 072f 55       		.byte	0x55
 14306 0730 00000000 		.4byte	0
 14307 0734 00000000 		.4byte	0
 14308              	.LVUS69:
 14309 0738 01       		.uleb128 .LVU601
ARM GAS  /tmp/ccuqlnP4.s 			page 254


 14310 0739 00       		.uleb128 .LVU603
 14311              	.LLST69:
 14312 073a C0000000 		.4byte	.LVL132
 14313 073e CC000000 		.4byte	.LVL133
 14314 0742 0200     		.2byte	0x2
 14315 0744 30       		.byte	0x30
 14316 0745 9F       		.byte	0x9f
 14317 0746 00000000 		.4byte	0
 14318 074a 00000000 		.4byte	0
 14319              	.LVUS70:
 14320 074e 01       		.uleb128 .LVU601
 14321 074f 00       		.uleb128 .LVU603
 14322              	.LLST70:
 14323 0750 C0000000 		.4byte	.LVL132
 14324 0754 CC000000 		.4byte	.LVL133
 14325 0758 0600     		.2byte	0x6
 14326 075a 03       		.byte	0x3
 14327 075b 00000000 		.4byte	sem1
 14328 075f 9F       		.byte	0x9f
 14329 0760 00000000 		.4byte	0
 14330 0764 00000000 		.4byte	0
 14331              	.LVUS71:
 14332 0768 01       		.uleb128 .LVU611
 14333 0769 00       		.uleb128 .LVU613
 14334              	.LLST71:
 14335 076a D8000000 		.4byte	.LVL135
 14336 076e DC000000 		.4byte	.LVL136
 14337 0772 0600     		.2byte	0x6
 14338 0774 03       		.byte	0x3
 14339 0775 00000000 		.4byte	.LC13
 14340 0779 9F       		.byte	0x9f
 14341 077a 00000000 		.4byte	0
 14342 077e 00000000 		.4byte	0
 14343              	.LVUS72:
 14344 0782 02       		.uleb128 .LVU615
 14345 0783 00       		.uleb128 .LVU617
 14346              	.LLST72:
 14347 0784 DC000000 		.4byte	.LVL136
 14348 0788 E4000000 		.4byte	.LVL137
 14349 078c 0100     		.2byte	0x1
 14350 078e 54       		.byte	0x54
 14351 078f 00000000 		.4byte	0
 14352 0793 00000000 		.4byte	0
 14353              	.LVUS73:
 14354 0797 02       		.uleb128 .LVU619
 14355 0798 00       		.uleb128 .LVU623
 14356              	.LLST73:
 14357 0799 E4000000 		.4byte	.LVL137
 14358 079d F0000000 		.4byte	.LVL139
 14359 07a1 0600     		.2byte	0x6
 14360 07a3 03       		.byte	0x3
 14361 07a4 00000000 		.4byte	.LC18
 14362 07a8 9F       		.byte	0x9f
 14363 07a9 00000000 		.4byte	0
 14364 07ad 00000000 		.4byte	0
 14365              	.LVUS74:
 14366 07b1 03       		.uleb128 .LVU652
ARM GAS  /tmp/ccuqlnP4.s 			page 255


 14367 07b2 00       		.uleb128 .LVU661
 14368 07b3 00       		.uleb128 .LVU661
 14369 07b4 00       		.uleb128 .LVU698
 14370              	.LLST74:
 14371 07b5 1C000000 		.4byte	.LVL143
 14372 07b9 2C000000 		.4byte	.LVL146
 14373 07bd 0200     		.2byte	0x2
 14374 07bf 30       		.byte	0x30
 14375 07c0 9F       		.byte	0x9f
 14376 07c1 2C000000 		.4byte	.LVL146
 14377 07c5 72000000 		.4byte	.LVL154
 14378 07c9 0100     		.2byte	0x1
 14379 07cb 54       		.byte	0x54
 14380 07cc 00000000 		.4byte	0
 14381 07d0 00000000 		.4byte	0
 14382              	.LVUS75:
 14383 07d4 00       		.uleb128 .LVU649
 14384 07d5 00       		.uleb128 .LVU698
 14385              	.LLST75:
 14386 07d6 1C000000 		.4byte	.LVL143
 14387 07da 72000000 		.4byte	.LVL154
 14388 07de 0100     		.2byte	0x1
 14389 07e0 56       		.byte	0x56
 14390 07e1 00000000 		.4byte	0
 14391 07e5 00000000 		.4byte	0
 14392              	.LVUS76:
 14393 07e9 00       		.uleb128 .LVU658
 14394 07ea 00       		.uleb128 .LVU661
 14395 07eb 00       		.uleb128 .LVU661
 14396 07ec 00       		.uleb128 .LVU698
 14397              	.LLST76:
 14398 07ed 2A000000 		.4byte	.LVL145
 14399 07f1 2C000000 		.4byte	.LVL146
 14400 07f5 0100     		.2byte	0x1
 14401 07f7 50       		.byte	0x50
 14402 07f8 2C000000 		.4byte	.LVL146
 14403 07fc 72000000 		.4byte	.LVL154
 14404 0800 0100     		.2byte	0x1
 14405 0802 55       		.byte	0x55
 14406 0803 00000000 		.4byte	0
 14407 0807 00000000 		.4byte	0
 14408              	.LVUS77:
 14409 080b 02       		.uleb128 .LVU660
 14410 080c 00       		.uleb128 .LVU661
 14411 080d 00       		.uleb128 .LVU661
 14412 080e 00       		.uleb128 .LVU698
 14413              	.LLST77:
 14414 080f 2A000000 		.4byte	.LVL145
 14415 0813 2C000000 		.4byte	.LVL146
 14416 0817 0500     		.2byte	0x5
 14417 0819 70       		.byte	0x70
 14418 081a 90CE00   		.sleb128 10000
 14419 081d 9F       		.byte	0x9f
 14420 081e 2C000000 		.4byte	.LVL146
 14421 0822 72000000 		.4byte	.LVL154
 14422 0826 0500     		.2byte	0x5
 14423 0828 75       		.byte	0x75
ARM GAS  /tmp/ccuqlnP4.s 			page 256


 14424 0829 90CE00   		.sleb128 10000
 14425 082c 9F       		.byte	0x9f
 14426 082d 00000000 		.4byte	0
 14427 0831 00000000 		.4byte	0
 14428              	.LVUS78:
 14429 0835 01       		.uleb128 .LVU670
 14430 0836 0A       		.uleb128 .LVU679
 14431              	.LLST78:
 14432 0837 50000000 		.4byte	.LVL150
 14433 083b 50000000 		.4byte	.LVL150
 14434 083f 0500     		.2byte	0x5
 14435 0841 75       		.byte	0x75
 14436 0842 90CE00   		.sleb128 10000
 14437 0845 9F       		.byte	0x9f
 14438 0846 00000000 		.4byte	0
 14439 084a 00000000 		.4byte	0
 14440              	.LVUS79:
 14441 084e 01       		.uleb128 .LVU670
 14442 084f 0A       		.uleb128 .LVU679
 14443              	.LLST79:
 14444 0850 50000000 		.4byte	.LVL150
 14445 0854 50000000 		.4byte	.LVL150
 14446 0858 0100     		.2byte	0x1
 14447 085a 55       		.byte	0x55
 14448 085b 00000000 		.4byte	0
 14449 085f 00000000 		.4byte	0
 14450              	.LVUS80:
 14451 0863 07       		.uleb128 .LVU676
 14452 0864 0A       		.uleb128 .LVU679
 14453              	.LLST80:
 14454 0865 50000000 		.4byte	.LVL150
 14455 0869 50000000 		.4byte	.LVL150
 14456 086d 0500     		.2byte	0x5
 14457 086f 75       		.byte	0x75
 14458 0870 90CE00   		.sleb128 10000
 14459 0873 9F       		.byte	0x9f
 14460 0874 00000000 		.4byte	0
 14461 0878 00000000 		.4byte	0
 14462              	.LVUS81:
 14463 087c 07       		.uleb128 .LVU676
 14464 087d 0A       		.uleb128 .LVU679
 14465              	.LLST81:
 14466 087e 50000000 		.4byte	.LVL150
 14467 0882 50000000 		.4byte	.LVL150
 14468 0886 0100     		.2byte	0x1
 14469 0888 55       		.byte	0x55
 14470 0889 00000000 		.4byte	0
 14471 088d 00000000 		.4byte	0
 14472              	.LVUS82:
 14473 0891 01       		.uleb128 .LVU687
 14474 0892 00       		.uleb128 .LVU689
 14475              	.LLST82:
 14476 0893 5C000000 		.4byte	.LVL151
 14477 0897 60000000 		.4byte	.LVL152
 14478 089b 0600     		.2byte	0x6
 14479 089d 03       		.byte	0x3
 14480 089e 00000000 		.4byte	.LC13
ARM GAS  /tmp/ccuqlnP4.s 			page 257


 14481 08a2 9F       		.byte	0x9f
 14482 08a3 00000000 		.4byte	0
 14483 08a7 00000000 		.4byte	0
 14484              	.LVUS83:
 14485 08ab 02       		.uleb128 .LVU691
 14486 08ac 00       		.uleb128 .LVU693
 14487              	.LLST83:
 14488 08ad 60000000 		.4byte	.LVL152
 14489 08b1 68000000 		.4byte	.LVL153
 14490 08b5 0100     		.2byte	0x1
 14491 08b7 54       		.byte	0x54
 14492 08b8 00000000 		.4byte	0
 14493 08bc 00000000 		.4byte	0
 14494              	.LVUS85:
 14495 08c0 03       		.uleb128 .LVU726
 14496 08c1 00       		.uleb128 .LVU731
 14497 08c2 00       		.uleb128 .LVU731
 14498 08c3 00       		.uleb128 .LVU768
 14499              	.LLST85:
 14500 08c4 28000000 		.4byte	.LVL159
 14501 08c8 2C000000 		.4byte	.LVL161
 14502 08cc 0200     		.2byte	0x2
 14503 08ce 30       		.byte	0x30
 14504 08cf 9F       		.byte	0x9f
 14505 08d0 2C000000 		.4byte	.LVL161
 14506 08d4 72000000 		.4byte	.LVL169
 14507 08d8 0100     		.2byte	0x1
 14508 08da 54       		.byte	0x54
 14509 08db 00000000 		.4byte	0
 14510 08df 00000000 		.4byte	0
 14511              	.LVUS86:
 14512 08e3 00       		.uleb128 .LVU723
 14513 08e4 00       		.uleb128 .LVU768
 14514              	.LLST86:
 14515 08e5 28000000 		.4byte	.LVL159
 14516 08e9 72000000 		.4byte	.LVL169
 14517 08ed 0100     		.2byte	0x1
 14518 08ef 56       		.byte	0x56
 14519 08f0 00000000 		.4byte	0
 14520 08f4 00000000 		.4byte	0
 14521              	.LVUS87:
 14522 08f8 00       		.uleb128 .LVU728
 14523 08f9 00       		.uleb128 .LVU731
 14524 08fa 00       		.uleb128 .LVU731
 14525 08fb 00       		.uleb128 .LVU768
 14526              	.LLST87:
 14527 08fc 2A000000 		.4byte	.LVL160
 14528 0900 2C000000 		.4byte	.LVL161
 14529 0904 0100     		.2byte	0x1
 14530 0906 50       		.byte	0x50
 14531 0907 2C000000 		.4byte	.LVL161
 14532 090b 72000000 		.4byte	.LVL169
 14533 090f 0100     		.2byte	0x1
 14534 0911 55       		.byte	0x55
 14535 0912 00000000 		.4byte	0
 14536 0916 00000000 		.4byte	0
 14537              	.LVUS88:
ARM GAS  /tmp/ccuqlnP4.s 			page 258


 14538 091a 02       		.uleb128 .LVU730
 14539 091b 00       		.uleb128 .LVU731
 14540 091c 00       		.uleb128 .LVU731
 14541 091d 00       		.uleb128 .LVU768
 14542              	.LLST88:
 14543 091e 2A000000 		.4byte	.LVL160
 14544 0922 2C000000 		.4byte	.LVL161
 14545 0926 0500     		.2byte	0x5
 14546 0928 70       		.byte	0x70
 14547 0929 90CE00   		.sleb128 10000
 14548 092c 9F       		.byte	0x9f
 14549 092d 2C000000 		.4byte	.LVL161
 14550 0931 72000000 		.4byte	.LVL169
 14551 0935 0500     		.2byte	0x5
 14552 0937 75       		.byte	0x75
 14553 0938 90CE00   		.sleb128 10000
 14554 093b 9F       		.byte	0x9f
 14555 093c 00000000 		.4byte	0
 14556 0940 00000000 		.4byte	0
 14557              	.LVUS89:
 14558 0944 01       		.uleb128 .LVU740
 14559 0945 0A       		.uleb128 .LVU749
 14560              	.LLST89:
 14561 0946 50000000 		.4byte	.LVL165
 14562 094a 50000000 		.4byte	.LVL165
 14563 094e 0500     		.2byte	0x5
 14564 0950 75       		.byte	0x75
 14565 0951 90CE00   		.sleb128 10000
 14566 0954 9F       		.byte	0x9f
 14567 0955 00000000 		.4byte	0
 14568 0959 00000000 		.4byte	0
 14569              	.LVUS90:
 14570 095d 01       		.uleb128 .LVU740
 14571 095e 0A       		.uleb128 .LVU749
 14572              	.LLST90:
 14573 095f 50000000 		.4byte	.LVL165
 14574 0963 50000000 		.4byte	.LVL165
 14575 0967 0100     		.2byte	0x1
 14576 0969 55       		.byte	0x55
 14577 096a 00000000 		.4byte	0
 14578 096e 00000000 		.4byte	0
 14579              	.LVUS91:
 14580 0972 07       		.uleb128 .LVU746
 14581 0973 0A       		.uleb128 .LVU749
 14582              	.LLST91:
 14583 0974 50000000 		.4byte	.LVL165
 14584 0978 50000000 		.4byte	.LVL165
 14585 097c 0500     		.2byte	0x5
 14586 097e 75       		.byte	0x75
 14587 097f 90CE00   		.sleb128 10000
 14588 0982 9F       		.byte	0x9f
 14589 0983 00000000 		.4byte	0
 14590 0987 00000000 		.4byte	0
 14591              	.LVUS92:
 14592 098b 07       		.uleb128 .LVU746
 14593 098c 0A       		.uleb128 .LVU749
 14594              	.LLST92:
ARM GAS  /tmp/ccuqlnP4.s 			page 259


 14595 098d 50000000 		.4byte	.LVL165
 14596 0991 50000000 		.4byte	.LVL165
 14597 0995 0100     		.2byte	0x1
 14598 0997 55       		.byte	0x55
 14599 0998 00000000 		.4byte	0
 14600 099c 00000000 		.4byte	0
 14601              	.LVUS93:
 14602 09a0 01       		.uleb128 .LVU757
 14603 09a1 00       		.uleb128 .LVU759
 14604              	.LLST93:
 14605 09a2 5C000000 		.4byte	.LVL166
 14606 09a6 60000000 		.4byte	.LVL167
 14607 09aa 0600     		.2byte	0x6
 14608 09ac 03       		.byte	0x3
 14609 09ad 00000000 		.4byte	.LC13
 14610 09b1 9F       		.byte	0x9f
 14611 09b2 00000000 		.4byte	0
 14612 09b6 00000000 		.4byte	0
 14613              	.LVUS94:
 14614 09ba 02       		.uleb128 .LVU761
 14615 09bb 00       		.uleb128 .LVU763
 14616              	.LLST94:
 14617 09bc 60000000 		.4byte	.LVL167
 14618 09c0 68000000 		.4byte	.LVL168
 14619 09c4 0100     		.2byte	0x1
 14620 09c6 54       		.byte	0x54
 14621 09c7 00000000 		.4byte	0
 14622 09cb 00000000 		.4byte	0
 14623              	.LVUS95:
 14624 09cf 00       		.uleb128 .LVU794
 14625 09d0 00       		.uleb128 .LVU801
 14626 09d1 00       		.uleb128 .LVU801
 14627 09d2 00       		.uleb128 .LVU899
 14628              	.LLST95:
 14629 09d3 32000000 		.4byte	.LVL172
 14630 09d7 39000000 		.4byte	.LVL174-1
 14631 09db 0100     		.2byte	0x1
 14632 09dd 50       		.byte	0x50
 14633 09de 39000000 		.4byte	.LVL174-1
 14634 09e2 B8000000 		.4byte	.LVL194
 14635 09e6 0100     		.2byte	0x1
 14636 09e8 54       		.byte	0x54
 14637 09e9 00000000 		.4byte	0
 14638 09ed 00000000 		.4byte	0
 14639              	.LVUS96:
 14640 09f1 02       		.uleb128 .LVU799
 14641 09f2 00       		.uleb128 .LVU808
 14642 09f3 00       		.uleb128 .LVU808
 14643 09f4 00       		.uleb128 .LVU899
 14644              	.LLST96:
 14645 09f5 36000000 		.4byte	.LVL173
 14646 09f9 46000000 		.4byte	.LVL176
 14647 09fd 0200     		.2byte	0x2
 14648 09ff 30       		.byte	0x30
 14649 0a00 9F       		.byte	0x9f
 14650 0a01 46000000 		.4byte	.LVL176
 14651 0a05 B8000000 		.4byte	.LVL194
ARM GAS  /tmp/ccuqlnP4.s 			page 260


 14652 0a09 0100     		.2byte	0x1
 14653 0a0b 55       		.byte	0x55
 14654 0a0c 00000000 		.4byte	0
 14655 0a10 00000000 		.4byte	0
 14656              	.LVUS97:
 14657 0a14 00       		.uleb128 .LVU803
 14658 0a15 00       		.uleb128 .LVU808
 14659 0a16 00       		.uleb128 .LVU808
 14660 0a17 00       		.uleb128 .LVU899
 14661              	.LLST97:
 14662 0a18 40000000 		.4byte	.LVL175
 14663 0a1c 46000000 		.4byte	.LVL176
 14664 0a20 0100     		.2byte	0x1
 14665 0a22 50       		.byte	0x50
 14666 0a23 46000000 		.4byte	.LVL176
 14667 0a27 B8000000 		.4byte	.LVL194
 14668 0a2b 0100     		.2byte	0x1
 14669 0a2d 56       		.byte	0x56
 14670 0a2e 00000000 		.4byte	0
 14671 0a32 00000000 		.4byte	0
 14672              	.LVUS98:
 14673 0a36 03       		.uleb128 .LVU806
 14674 0a37 00       		.uleb128 .LVU808
 14675 0a38 00       		.uleb128 .LVU808
 14676 0a39 00       		.uleb128 .LVU899
 14677              	.LLST98:
 14678 0a3a 40000000 		.4byte	.LVL175
 14679 0a3e 46000000 		.4byte	.LVL176
 14680 0a42 0500     		.2byte	0x5
 14681 0a44 70       		.byte	0x70
 14682 0a45 90CE00   		.sleb128 10000
 14683 0a48 9F       		.byte	0x9f
 14684 0a49 46000000 		.4byte	.LVL176
 14685 0a4d B8000000 		.4byte	.LVL194
 14686 0a51 0500     		.2byte	0x5
 14687 0a53 76       		.byte	0x76
 14688 0a54 90CE00   		.sleb128 10000
 14689 0a57 9F       		.byte	0x9f
 14690 0a58 00000000 		.4byte	0
 14691 0a5c 00000000 		.4byte	0
 14692              	.LVUS99:
 14693 0a60 06       		.uleb128 .LVU814
 14694 0a61 00       		.uleb128 .LVU816
 14695              	.LLST99:
 14696 0a62 46000000 		.4byte	.LVL176
 14697 0a66 4A000000 		.4byte	.LVL177
 14698 0a6a 0300     		.2byte	0x3
 14699 0a6c 08       		.byte	0x8
 14700 0a6d 30       		.byte	0x30
 14701 0a6e 9F       		.byte	0x9f
 14702 0a6f 00000000 		.4byte	0
 14703 0a73 00000000 		.4byte	0
 14704              	.LVUS100:
 14705 0a77 0A       		.uleb128 .LVU833
 14706 0a78 00       		.uleb128 .LVU835
 14707              	.LLST100:
 14708 0a79 6A000000 		.4byte	.LVL181
ARM GAS  /tmp/ccuqlnP4.s 			page 261


 14709 0a7d 6E000000 		.4byte	.LVL182
 14710 0a81 0200     		.2byte	0x2
 14711 0a83 30       		.byte	0x30
 14712 0a84 9F       		.byte	0x9f
 14713 0a85 00000000 		.4byte	0
 14714 0a89 00000000 		.4byte	0
 14715              	.LVUS101:
 14716 0a8d 01       		.uleb128 .LVU842
 14717 0a8e 0A       		.uleb128 .LVU851
 14718              	.LLST101:
 14719 0a8f 7A000000 		.4byte	.LVL184
 14720 0a93 7A000000 		.4byte	.LVL184
 14721 0a97 0500     		.2byte	0x5
 14722 0a99 76       		.byte	0x76
 14723 0a9a 90CE00   		.sleb128 10000
 14724 0a9d 9F       		.byte	0x9f
 14725 0a9e 00000000 		.4byte	0
 14726 0aa2 00000000 		.4byte	0
 14727              	.LVUS102:
 14728 0aa6 01       		.uleb128 .LVU842
 14729 0aa7 0A       		.uleb128 .LVU851
 14730              	.LLST102:
 14731 0aa8 7A000000 		.4byte	.LVL184
 14732 0aac 7A000000 		.4byte	.LVL184
 14733 0ab0 0100     		.2byte	0x1
 14734 0ab2 56       		.byte	0x56
 14735 0ab3 00000000 		.4byte	0
 14736 0ab7 00000000 		.4byte	0
 14737              	.LVUS103:
 14738 0abb 07       		.uleb128 .LVU848
 14739 0abc 0A       		.uleb128 .LVU851
 14740              	.LLST103:
 14741 0abd 7A000000 		.4byte	.LVL184
 14742 0ac1 7A000000 		.4byte	.LVL184
 14743 0ac5 0500     		.2byte	0x5
 14744 0ac7 76       		.byte	0x76
 14745 0ac8 90CE00   		.sleb128 10000
 14746 0acb 9F       		.byte	0x9f
 14747 0acc 00000000 		.4byte	0
 14748 0ad0 00000000 		.4byte	0
 14749              	.LVUS104:
 14750 0ad4 07       		.uleb128 .LVU848
 14751 0ad5 0A       		.uleb128 .LVU851
 14752              	.LLST104:
 14753 0ad6 7A000000 		.4byte	.LVL184
 14754 0ada 7A000000 		.4byte	.LVL184
 14755 0ade 0100     		.2byte	0x1
 14756 0ae0 56       		.byte	0x56
 14757 0ae1 00000000 		.4byte	0
 14758 0ae5 00000000 		.4byte	0
 14759              	.LVUS105:
 14760 0ae9 05       		.uleb128 .LVU861
 14761 0aea 00       		.uleb128 .LVU863
 14762              	.LLST105:
 14763 0aeb 82000000 		.4byte	.LVL185
 14764 0aef 86000000 		.4byte	.LVL186
 14765 0af3 0300     		.2byte	0x3
ARM GAS  /tmp/ccuqlnP4.s 			page 262


 14766 0af5 08       		.byte	0x8
 14767 0af6 30       		.byte	0x30
 14768 0af7 9F       		.byte	0x9f
 14769 0af8 00000000 		.4byte	0
 14770 0afc 00000000 		.4byte	0
 14771              	.LVUS106:
 14772 0b00 0A       		.uleb128 .LVU877
 14773 0b01 00       		.uleb128 .LVU879
 14774              	.LLST106:
 14775 0b02 90000000 		.4byte	.LVL187
 14776 0b06 94000000 		.4byte	.LVL188
 14777 0b0a 0200     		.2byte	0x2
 14778 0b0c 30       		.byte	0x30
 14779 0b0d 9F       		.byte	0x9f
 14780 0b0e 00000000 		.4byte	0
 14781 0b12 00000000 		.4byte	0
 14782              	.LVUS107:
 14783 0b16 01       		.uleb128 .LVU887
 14784 0b17 00       		.uleb128 .LVU889
 14785              	.LLST107:
 14786 0b18 A2000000 		.4byte	.LVL190
 14787 0b1c A6000000 		.4byte	.LVL191
 14788 0b20 0600     		.2byte	0x6
 14789 0b22 03       		.byte	0x3
 14790 0b23 00000000 		.4byte	.LC13
 14791 0b27 9F       		.byte	0x9f
 14792 0b28 00000000 		.4byte	0
 14793 0b2c 00000000 		.4byte	0
 14794              	.LVUS108:
 14795 0b30 02       		.uleb128 .LVU891
 14796 0b31 00       		.uleb128 .LVU893
 14797 0b32 00       		.uleb128 .LVU893
 14798 0b33 00       		.uleb128 .LVU894
 14799 0b34 00       		.uleb128 .LVU894
 14800 0b35 00       		.uleb128 .LVU894
 14801              	.LLST108:
 14802 0b36 A6000000 		.4byte	.LVL191
 14803 0b3a A8000000 		.4byte	.LVL192
 14804 0b3e 0500     		.2byte	0x5
 14805 0b40 75       		.byte	0x75
 14806 0b41 00       		.sleb128 0
 14807 0b42 31       		.byte	0x31
 14808 0b43 24       		.byte	0x24
 14809 0b44 9F       		.byte	0x9f
 14810 0b45 A8000000 		.4byte	.LVL192
 14811 0b49 AD000000 		.4byte	.LVL193-1
 14812 0b4d 0100     		.2byte	0x1
 14813 0b4f 51       		.byte	0x51
 14814 0b50 AD000000 		.4byte	.LVL193-1
 14815 0b54 AE000000 		.4byte	.LVL193
 14816 0b58 0500     		.2byte	0x5
 14817 0b5a 75       		.byte	0x75
 14818 0b5b 00       		.sleb128 0
 14819 0b5c 31       		.byte	0x31
 14820 0b5d 24       		.byte	0x24
 14821 0b5e 9F       		.byte	0x9f
 14822 0b5f 00000000 		.4byte	0
ARM GAS  /tmp/ccuqlnP4.s 			page 263


 14823 0b63 00000000 		.4byte	0
 14824              	.LVUS129:
 14825 0b67 00       		.uleb128 .LVU1101
 14826 0b68 00       		.uleb128 .LVU1102
 14827 0b69 00       		.uleb128 .LVU1102
 14828 0b6a 00       		.uleb128 .LVU1128
 14829              	.LLST129:
 14830 0b6b A6000000 		.4byte	.LVL224
 14831 0b6f A9000000 		.4byte	.LVL225-1
 14832 0b73 0100     		.2byte	0x1
 14833 0b75 50       		.byte	0x50
 14834 0b76 A9000000 		.4byte	.LVL225-1
 14835 0b7a DA000000 		.4byte	.LVL232
 14836 0b7e 0100     		.2byte	0x1
 14837 0b80 54       		.byte	0x54
 14838 0b81 00000000 		.4byte	0
 14839 0b85 00000000 		.4byte	0
 14840              	.LVUS130:
 14841 0b89 01       		.uleb128 .LVU1108
 14842 0b8a 00       		.uleb128 .LVU1110
 14843              	.LLST130:
 14844 0b8b B2000000 		.4byte	.LVL226
 14845 0b8f B8000000 		.4byte	.LVL227
 14846 0b93 0600     		.2byte	0x6
 14847 0b95 03       		.byte	0x3
 14848 0b96 00000000 		.4byte	.LC13
 14849 0b9a 9F       		.byte	0x9f
 14850 0b9b 00000000 		.4byte	0
 14851 0b9f 00000000 		.4byte	0
 14852              	.LVUS131:
 14853 0ba3 02       		.uleb128 .LVU1112
 14854 0ba4 00       		.uleb128 .LVU1114
 14855              	.LLST131:
 14856 0ba5 B8000000 		.4byte	.LVL227
 14857 0ba9 C0000000 		.4byte	.LVL228
 14858 0bad 0100     		.2byte	0x1
 14859 0baf 54       		.byte	0x54
 14860 0bb0 00000000 		.4byte	0
 14861 0bb4 00000000 		.4byte	0
 14862              	.LVUS132:
 14863 0bb8 02       		.uleb128 .LVU1116
 14864 0bb9 00       		.uleb128 .LVU1118
 14865              	.LLST132:
 14866 0bba C0000000 		.4byte	.LVL228
 14867 0bbe C8000000 		.4byte	.LVL229
 14868 0bc2 0600     		.2byte	0x6
 14869 0bc4 03       		.byte	0x3
 14870 0bc5 00000000 		.4byte	.LC20
 14871 0bc9 9F       		.byte	0x9f
 14872 0bca 00000000 		.4byte	0
 14873 0bce 00000000 		.4byte	0
 14874              	.LVUS133:
 14875 0bd2 02       		.uleb128 .LVU1120
 14876 0bd3 00       		.uleb128 .LVU1122
 14877 0bd4 00       		.uleb128 .LVU1122
 14878 0bd5 00       		.uleb128 .LVU1123
 14879 0bd6 00       		.uleb128 .LVU1123
ARM GAS  /tmp/ccuqlnP4.s 			page 264


 14880 0bd7 00       		.uleb128 .LVU1123
 14881              	.LLST133:
 14882 0bd8 C8000000 		.4byte	.LVL229
 14883 0bdc CA000000 		.4byte	.LVL230
 14884 0be0 0500     		.2byte	0x5
 14885 0be2 74       		.byte	0x74
 14886 0be3 00       		.sleb128 0
 14887 0be4 31       		.byte	0x31
 14888 0be5 24       		.byte	0x24
 14889 0be6 9F       		.byte	0x9f
 14890 0be7 CA000000 		.4byte	.LVL230
 14891 0beb CF000000 		.4byte	.LVL231-1
 14892 0bef 0100     		.2byte	0x1
 14893 0bf1 51       		.byte	0x51
 14894 0bf2 CF000000 		.4byte	.LVL231-1
 14895 0bf6 D0000000 		.4byte	.LVL231
 14896 0bfa 0500     		.2byte	0x5
 14897 0bfc 74       		.byte	0x74
 14898 0bfd 00       		.sleb128 0
 14899 0bfe 31       		.byte	0x31
 14900 0bff 24       		.byte	0x24
 14901 0c00 9F       		.byte	0x9f
 14902 0c01 00000000 		.4byte	0
 14903 0c05 00000000 		.4byte	0
 14904              	.LVUS134:
 14905 0c09 00       		.uleb128 .LVU1160
 14906 0c0a 00       		.uleb128 .LVU1161
 14907 0c0b 00       		.uleb128 .LVU1161
 14908 0c0c 00       		.uleb128 .LVU1187
 14909              	.LLST134:
 14910 0c0d 36000000 		.4byte	.LVL236
 14911 0c11 39000000 		.4byte	.LVL237-1
 14912 0c15 0100     		.2byte	0x1
 14913 0c17 50       		.byte	0x50
 14914 0c18 39000000 		.4byte	.LVL237-1
 14915 0c1c 68000000 		.4byte	.LVL244
 14916 0c20 0100     		.2byte	0x1
 14917 0c22 54       		.byte	0x54
 14918 0c23 00000000 		.4byte	0
 14919 0c27 00000000 		.4byte	0
 14920              	.LVUS135:
 14921 0c2b 01       		.uleb128 .LVU1167
 14922 0c2c 00       		.uleb128 .LVU1169
 14923              	.LLST135:
 14924 0c2d 40000000 		.4byte	.LVL238
 14925 0c31 46000000 		.4byte	.LVL239
 14926 0c35 0600     		.2byte	0x6
 14927 0c37 03       		.byte	0x3
 14928 0c38 00000000 		.4byte	.LC13
 14929 0c3c 9F       		.byte	0x9f
 14930 0c3d 00000000 		.4byte	0
 14931 0c41 00000000 		.4byte	0
 14932              	.LVUS136:
 14933 0c45 02       		.uleb128 .LVU1171
 14934 0c46 00       		.uleb128 .LVU1173
 14935              	.LLST136:
 14936 0c47 46000000 		.4byte	.LVL239
ARM GAS  /tmp/ccuqlnP4.s 			page 265


 14937 0c4b 4E000000 		.4byte	.LVL240
 14938 0c4f 0100     		.2byte	0x1
 14939 0c51 54       		.byte	0x54
 14940 0c52 00000000 		.4byte	0
 14941 0c56 00000000 		.4byte	0
 14942              	.LVUS137:
 14943 0c5a 02       		.uleb128 .LVU1175
 14944 0c5b 00       		.uleb128 .LVU1177
 14945              	.LLST137:
 14946 0c5c 4E000000 		.4byte	.LVL240
 14947 0c60 56000000 		.4byte	.LVL241
 14948 0c64 0600     		.2byte	0x6
 14949 0c66 03       		.byte	0x3
 14950 0c67 00000000 		.4byte	.LC20
 14951 0c6b 9F       		.byte	0x9f
 14952 0c6c 00000000 		.4byte	0
 14953 0c70 00000000 		.4byte	0
 14954              	.LVUS138:
 14955 0c74 02       		.uleb128 .LVU1179
 14956 0c75 00       		.uleb128 .LVU1181
 14957 0c76 00       		.uleb128 .LVU1181
 14958 0c77 00       		.uleb128 .LVU1182
 14959 0c78 00       		.uleb128 .LVU1182
 14960 0c79 00       		.uleb128 .LVU1182
 14961              	.LLST138:
 14962 0c7a 56000000 		.4byte	.LVL241
 14963 0c7e 58000000 		.4byte	.LVL242
 14964 0c82 0500     		.2byte	0x5
 14965 0c84 74       		.byte	0x74
 14966 0c85 00       		.sleb128 0
 14967 0c86 31       		.byte	0x31
 14968 0c87 24       		.byte	0x24
 14969 0c88 9F       		.byte	0x9f
 14970 0c89 58000000 		.4byte	.LVL242
 14971 0c8d 5D000000 		.4byte	.LVL243-1
 14972 0c91 0100     		.2byte	0x1
 14973 0c93 51       		.byte	0x51
 14974 0c94 5D000000 		.4byte	.LVL243-1
 14975 0c98 5E000000 		.4byte	.LVL243
 14976 0c9c 0500     		.2byte	0x5
 14977 0c9e 74       		.byte	0x74
 14978 0c9f 00       		.sleb128 0
 14979 0ca0 31       		.byte	0x31
 14980 0ca1 24       		.byte	0x24
 14981 0ca2 9F       		.byte	0x9f
 14982 0ca3 00000000 		.4byte	0
 14983 0ca7 00000000 		.4byte	0
 14984              	.LVUS139:
 14985 0cab 00       		.uleb128 .LVU1219
 14986 0cac 00       		.uleb128 .LVU1220
 14987 0cad 00       		.uleb128 .LVU1220
 14988 0cae 00       		.uleb128 .LVU1246
 14989              	.LLST139:
 14990 0caf 36000000 		.4byte	.LVL248
 14991 0cb3 39000000 		.4byte	.LVL249-1
 14992 0cb7 0100     		.2byte	0x1
 14993 0cb9 50       		.byte	0x50
ARM GAS  /tmp/ccuqlnP4.s 			page 266


 14994 0cba 39000000 		.4byte	.LVL249-1
 14995 0cbe 68000000 		.4byte	.LVL256
 14996 0cc2 0100     		.2byte	0x1
 14997 0cc4 54       		.byte	0x54
 14998 0cc5 00000000 		.4byte	0
 14999 0cc9 00000000 		.4byte	0
 15000              	.LVUS140:
 15001 0ccd 01       		.uleb128 .LVU1226
 15002 0cce 00       		.uleb128 .LVU1228
 15003              	.LLST140:
 15004 0ccf 40000000 		.4byte	.LVL250
 15005 0cd3 46000000 		.4byte	.LVL251
 15006 0cd7 0600     		.2byte	0x6
 15007 0cd9 03       		.byte	0x3
 15008 0cda 00000000 		.4byte	.LC13
 15009 0cde 9F       		.byte	0x9f
 15010 0cdf 00000000 		.4byte	0
 15011 0ce3 00000000 		.4byte	0
 15012              	.LVUS141:
 15013 0ce7 02       		.uleb128 .LVU1230
 15014 0ce8 00       		.uleb128 .LVU1232
 15015              	.LLST141:
 15016 0ce9 46000000 		.4byte	.LVL251
 15017 0ced 4E000000 		.4byte	.LVL252
 15018 0cf1 0100     		.2byte	0x1
 15019 0cf3 54       		.byte	0x54
 15020 0cf4 00000000 		.4byte	0
 15021 0cf8 00000000 		.4byte	0
 15022              	.LVUS142:
 15023 0cfc 02       		.uleb128 .LVU1234
 15024 0cfd 00       		.uleb128 .LVU1236
 15025              	.LLST142:
 15026 0cfe 4E000000 		.4byte	.LVL252
 15027 0d02 56000000 		.4byte	.LVL253
 15028 0d06 0600     		.2byte	0x6
 15029 0d08 03       		.byte	0x3
 15030 0d09 00000000 		.4byte	.LC20
 15031 0d0d 9F       		.byte	0x9f
 15032 0d0e 00000000 		.4byte	0
 15033 0d12 00000000 		.4byte	0
 15034              	.LVUS143:
 15035 0d16 02       		.uleb128 .LVU1238
 15036 0d17 00       		.uleb128 .LVU1240
 15037 0d18 00       		.uleb128 .LVU1240
 15038 0d19 00       		.uleb128 .LVU1241
 15039 0d1a 00       		.uleb128 .LVU1241
 15040 0d1b 00       		.uleb128 .LVU1241
 15041              	.LLST143:
 15042 0d1c 56000000 		.4byte	.LVL253
 15043 0d20 58000000 		.4byte	.LVL254
 15044 0d24 0500     		.2byte	0x5
 15045 0d26 74       		.byte	0x74
 15046 0d27 00       		.sleb128 0
 15047 0d28 31       		.byte	0x31
 15048 0d29 24       		.byte	0x24
 15049 0d2a 9F       		.byte	0x9f
 15050 0d2b 58000000 		.4byte	.LVL254
ARM GAS  /tmp/ccuqlnP4.s 			page 267


 15051 0d2f 5D000000 		.4byte	.LVL255-1
 15052 0d33 0100     		.2byte	0x1
 15053 0d35 51       		.byte	0x51
 15054 0d36 5D000000 		.4byte	.LVL255-1
 15055 0d3a 5E000000 		.4byte	.LVL255
 15056 0d3e 0500     		.2byte	0x5
 15057 0d40 74       		.byte	0x74
 15058 0d41 00       		.sleb128 0
 15059 0d42 31       		.byte	0x31
 15060 0d43 24       		.byte	0x24
 15061 0d44 9F       		.byte	0x9f
 15062 0d45 00000000 		.4byte	0
 15063 0d49 00000000 		.4byte	0
 15064              	.LVUS59:
 15065 0d4d 00       		.uleb128 0
 15066 0d4e 00       		.uleb128 .LVU488
 15067 0d4f 00       		.uleb128 .LVU488
 15068 0d50 00       		.uleb128 .LVU504
 15069 0d51 00       		.uleb128 .LVU504
 15070 0d52 00       		.uleb128 0
 15071              	.LLST59:
 15072 0d53 00000000 		.4byte	.LVL114
 15073 0d57 06000000 		.4byte	.LVL115
 15074 0d5b 0100     		.2byte	0x1
 15075 0d5d 50       		.byte	0x50
 15076 0d5e 06000000 		.4byte	.LVL115
 15077 0d62 28000000 		.4byte	.LVL120
 15078 0d66 0100     		.2byte	0x1
 15079 0d68 54       		.byte	0x54
 15080 0d69 28000000 		.4byte	.LVL120
 15081 0d6d 2C000000 		.4byte	.LFE410
 15082 0d71 0400     		.2byte	0x4
 15083 0d73 F3       		.byte	0xf3
 15084 0d74 01       		.uleb128 0x1
 15085 0d75 50       		.byte	0x50
 15086 0d76 9F       		.byte	0x9f
 15087 0d77 00000000 		.4byte	0
 15088 0d7b 00000000 		.4byte	0
 15089              	.LVUS35:
 15090 0d7f 00       		.uleb128 0
 15091 0d80 00       		.uleb128 .LVU241
 15092 0d81 00       		.uleb128 .LVU241
 15093 0d82 00       		.uleb128 0
 15094              	.LLST35:
 15095 0d83 00000000 		.4byte	.LVL58
 15096 0d87 10000000 		.4byte	.LVL59
 15097 0d8b 0100     		.2byte	0x1
 15098 0d8d 50       		.byte	0x50
 15099 0d8e 10000000 		.4byte	.LVL59
 15100 0d92 2C000000 		.4byte	.LFE409
 15101 0d96 0400     		.2byte	0x4
 15102 0d98 F3       		.byte	0xf3
 15103 0d99 01       		.uleb128 0x1
 15104 0d9a 50       		.byte	0x50
 15105 0d9b 9F       		.byte	0x9f
 15106 0d9c 00000000 		.4byte	0
 15107 0da0 00000000 		.4byte	0
ARM GAS  /tmp/ccuqlnP4.s 			page 268


 15108              	.LVUS109:
 15109 0da4 00       		.uleb128 0
 15110 0da5 03       		.uleb128 .LVU921
 15111 0da6 03       		.uleb128 .LVU921
 15112 0da7 00       		.uleb128 0
 15113              	.LLST109:
 15114 0da8 00000000 		.4byte	.LVL196
 15115 0dac 0C000000 		.4byte	.LVL198
 15116 0db0 0100     		.2byte	0x1
 15117 0db2 50       		.byte	0x50
 15118 0db3 0C000000 		.4byte	.LVL198
 15119 0db7 24000000 		.4byte	.LFE408
 15120 0dbb 0400     		.2byte	0x4
 15121 0dbd F3       		.byte	0xf3
 15122 0dbe 01       		.uleb128 0x1
 15123 0dbf 50       		.byte	0x50
 15124 0dc0 9F       		.byte	0x9f
 15125 0dc1 00000000 		.4byte	0
 15126 0dc5 00000000 		.4byte	0
 15127              	.LVUS110:
 15128 0dc9 01       		.uleb128 .LVU925
 15129 0dca 00       		.uleb128 .LVU941
 15130              	.LLST110:
 15131 0dcb 12000000 		.4byte	.LVL199
 15132 0dcf 20000000 		.4byte	.LVL202
 15133 0dd3 0200     		.2byte	0x2
 15134 0dd5 74       		.byte	0x74
 15135 0dd6 28       		.sleb128 40
 15136 0dd7 00000000 		.4byte	0
 15137 0ddb 00000000 		.4byte	0
 15138              	.LVUS111:
 15139 0ddf 00       		.uleb128 .LVU909
 15140 0de0 00       		.uleb128 .LVU941
 15141              	.LLST111:
 15142 0de1 08000000 		.4byte	.LVL197
 15143 0de5 20000000 		.4byte	.LVL202
 15144 0de9 0100     		.2byte	0x1
 15145 0deb 54       		.byte	0x54
 15146 0dec 00000000 		.4byte	0
 15147 0df0 00000000 		.4byte	0
 15148              	.LVUS112:
 15149 0df4 07       		.uleb128 .LVU916
 15150 0df5 00       		.uleb128 .LVU918
 15151              	.LLST112:
 15152 0df6 08000000 		.4byte	.LVL197
 15153 0dfa 0C000000 		.4byte	.LVL198
 15154 0dfe 0300     		.2byte	0x3
 15155 0e00 08       		.byte	0x8
 15156 0e01 30       		.byte	0x30
 15157 0e02 9F       		.byte	0x9f
 15158 0e03 00000000 		.4byte	0
 15159 0e07 00000000 		.4byte	0
 15160              	.LVUS113:
 15161 0e0b 0A       		.uleb128 .LVU937
 15162 0e0c 00       		.uleb128 .LVU939
 15163              	.LLST113:
 15164 0e0d 18000000 		.4byte	.LVL200
ARM GAS  /tmp/ccuqlnP4.s 			page 269


 15165 0e11 1E000000 		.4byte	.LVL201
 15166 0e15 0200     		.2byte	0x2
 15167 0e17 30       		.byte	0x30
 15168 0e18 9F       		.byte	0x9f
 15169 0e19 00000000 		.4byte	0
 15170 0e1d 00000000 		.4byte	0
 15171              	.LVUS84:
 15172 0e21 00       		.uleb128 0
 15173 0e22 00       		.uleb128 .LVU701
 15174 0e23 00       		.uleb128 .LVU701
 15175 0e24 00       		.uleb128 0
 15176              	.LLST84:
 15177 0e25 00000000 		.4byte	.LVL156
 15178 0e29 03000000 		.4byte	.LVL157-1
 15179 0e2d 0100     		.2byte	0x1
 15180 0e2f 50       		.byte	0x50
 15181 0e30 03000000 		.4byte	.LVL157-1
 15182 0e34 04000000 		.4byte	.LFE407
 15183 0e38 0400     		.2byte	0x4
 15184 0e3a F3       		.byte	0xf3
 15185 0e3b 01       		.uleb128 0x1
 15186 0e3c 50       		.byte	0x50
 15187 0e3d 9F       		.byte	0x9f
 15188 0e3e 00000000 		.4byte	0
 15189 0e42 00000000 		.4byte	0
 15190              	.LVUS121:
 15191 0e46 00       		.uleb128 0
 15192 0e47 00       		.uleb128 .LVU1000
 15193 0e48 00       		.uleb128 .LVU1000
 15194 0e49 00       		.uleb128 0
 15195              	.LLST121:
 15196 0e4a 00000000 		.4byte	.LVL210
 15197 0e4e 07000000 		.4byte	.LVL211-1
 15198 0e52 0100     		.2byte	0x1
 15199 0e54 50       		.byte	0x50
 15200 0e55 07000000 		.4byte	.LVL211-1
 15201 0e59 32000000 		.4byte	.LFE406
 15202 0e5d 0100     		.2byte	0x1
 15203 0e5f 55       		.byte	0x55
 15204 0e60 00000000 		.4byte	0
 15205 0e64 00000000 		.4byte	0
 15206              	.LVUS122:
 15207 0e68 00       		.uleb128 .LVU1002
 15208 0e69 00       		.uleb128 .LVU1005
 15209 0e6a 00       		.uleb128 .LVU1005
 15210 0e6b 00       		.uleb128 0
 15211              	.LLST122:
 15212 0e6c 0C000000 		.4byte	.LVL212
 15213 0e70 10000000 		.4byte	.LVL213
 15214 0e74 0100     		.2byte	0x1
 15215 0e76 50       		.byte	0x50
 15216 0e77 10000000 		.4byte	.LVL213
 15217 0e7b 32000000 		.4byte	.LFE406
 15218 0e7f 0100     		.2byte	0x1
 15219 0e81 56       		.byte	0x56
 15220 0e82 00000000 		.4byte	0
 15221 0e86 00000000 		.4byte	0
ARM GAS  /tmp/ccuqlnP4.s 			page 270


 15222              	.LVUS123:
 15223 0e8a 02       		.uleb128 .LVU1004
 15224 0e8b 00       		.uleb128 .LVU1005
 15225 0e8c 00       		.uleb128 .LVU1005
 15226 0e8d 00       		.uleb128 0
 15227              	.LLST123:
 15228 0e8e 0C000000 		.4byte	.LVL212
 15229 0e92 10000000 		.4byte	.LVL213
 15230 0e96 0500     		.2byte	0x5
 15231 0e98 70       		.byte	0x70
 15232 0e99 90CE00   		.sleb128 10000
 15233 0e9c 9F       		.byte	0x9f
 15234 0e9d 10000000 		.4byte	.LVL213
 15235 0ea1 32000000 		.4byte	.LFE406
 15236 0ea5 0500     		.2byte	0x5
 15237 0ea7 76       		.byte	0x76
 15238 0ea8 90CE00   		.sleb128 10000
 15239 0eab 9F       		.byte	0x9f
 15240 0eac 00000000 		.4byte	0
 15241 0eb0 00000000 		.4byte	0
 15242              	.LVUS124:
 15243 0eb4 03       		.uleb128 .LVU996
 15244 0eb5 00       		.uleb128 .LVU1005
 15245 0eb6 00       		.uleb128 .LVU1005
 15246 0eb7 00       		.uleb128 0
 15247              	.LLST124:
 15248 0eb8 00000000 		.4byte	.LVL210
 15249 0ebc 10000000 		.4byte	.LVL213
 15250 0ec0 0200     		.2byte	0x2
 15251 0ec2 30       		.byte	0x30
 15252 0ec3 9F       		.byte	0x9f
 15253 0ec4 10000000 		.4byte	.LVL213
 15254 0ec8 32000000 		.4byte	.LFE406
 15255 0ecc 0100     		.2byte	0x1
 15256 0ece 54       		.byte	0x54
 15257 0ecf 00000000 		.4byte	0
 15258 0ed3 00000000 		.4byte	0
 15259              	.LVUS125:
 15260 0ed7 01       		.uleb128 .LVU1014
 15261 0ed8 0A       		.uleb128 .LVU1023
 15262              	.LLST125:
 15263 0ed9 24000000 		.4byte	.LVL216
 15264 0edd 24000000 		.4byte	.LVL216
 15265 0ee1 0500     		.2byte	0x5
 15266 0ee3 76       		.byte	0x76
 15267 0ee4 90CE00   		.sleb128 10000
 15268 0ee7 9F       		.byte	0x9f
 15269 0ee8 00000000 		.4byte	0
 15270 0eec 00000000 		.4byte	0
 15271              	.LVUS126:
 15272 0ef0 01       		.uleb128 .LVU1014
 15273 0ef1 0A       		.uleb128 .LVU1023
 15274              	.LLST126:
 15275 0ef2 24000000 		.4byte	.LVL216
 15276 0ef6 24000000 		.4byte	.LVL216
 15277 0efa 0100     		.2byte	0x1
 15278 0efc 56       		.byte	0x56
ARM GAS  /tmp/ccuqlnP4.s 			page 271


 15279 0efd 00000000 		.4byte	0
 15280 0f01 00000000 		.4byte	0
 15281              	.LVUS127:
 15282 0f05 07       		.uleb128 .LVU1020
 15283 0f06 0A       		.uleb128 .LVU1023
 15284              	.LLST127:
 15285 0f07 24000000 		.4byte	.LVL216
 15286 0f0b 24000000 		.4byte	.LVL216
 15287 0f0f 0500     		.2byte	0x5
 15288 0f11 76       		.byte	0x76
 15289 0f12 90CE00   		.sleb128 10000
 15290 0f15 9F       		.byte	0x9f
 15291 0f16 00000000 		.4byte	0
 15292 0f1a 00000000 		.4byte	0
 15293              	.LVUS128:
 15294 0f1e 07       		.uleb128 .LVU1020
 15295 0f1f 0A       		.uleb128 .LVU1023
 15296              	.LLST128:
 15297 0f20 24000000 		.4byte	.LVL216
 15298 0f24 24000000 		.4byte	.LVL216
 15299 0f28 0100     		.2byte	0x1
 15300 0f2a 56       		.byte	0x56
 15301 0f2b 00000000 		.4byte	0
 15302 0f2f 00000000 		.4byte	0
 15303              	.LVUS114:
 15304 0f33 00       		.uleb128 0
 15305 0f34 00       		.uleb128 .LVU945
 15306 0f35 00       		.uleb128 .LVU945
 15307 0f36 00       		.uleb128 0
 15308              	.LLST114:
 15309 0f37 00000000 		.4byte	.LVL203
 15310 0f3b 06000000 		.4byte	.LVL204
 15311 0f3f 0100     		.2byte	0x1
 15312 0f41 50       		.byte	0x50
 15313 0f42 06000000 		.4byte	.LVL204
 15314 0f46 20000000 		.4byte	.LFE405
 15315 0f4a 0400     		.2byte	0x4
 15316 0f4c F3       		.byte	0xf3
 15317 0f4d 01       		.uleb128 0x1
 15318 0f4e 50       		.byte	0x50
 15319 0f4f 9F       		.byte	0x9f
 15320 0f50 00000000 		.4byte	0
 15321 0f54 00000000 		.4byte	0
 15322              	.LVUS115:
 15323 0f58 02       		.uleb128 .LVU979
 15324 0f59 00       		.uleb128 .LVU989
 15325              	.LLST115:
 15326 0f5a 12000000 		.4byte	.LVL207
 15327 0f5e 19000000 		.4byte	.LVL209-1
 15328 0f62 0100     		.2byte	0x1
 15329 0f64 50       		.byte	0x50
 15330 0f65 00000000 		.4byte	0
 15331 0f69 00000000 		.4byte	0
 15332              	.LVUS116:
 15333 0f6d 00       		.uleb128 .LVU987
 15334 0f6e 00       		.uleb128 0
 15335              	.LLST116:
ARM GAS  /tmp/ccuqlnP4.s 			page 272


 15336 0f6f 14000000 		.4byte	.LVL208
 15337 0f73 20000000 		.4byte	.LFE405
 15338 0f77 0100     		.2byte	0x1
 15339 0f79 54       		.byte	0x54
 15340 0f7a 00000000 		.4byte	0
 15341 0f7e 00000000 		.4byte	0
 15342              	.LVUS117:
 15343 0f82 00       		.uleb128 .LVU965
 15344 0f83 02       		.uleb128 .LVU979
 15345              	.LLST117:
 15346 0f84 0E000000 		.4byte	.LVL206
 15347 0f88 12000000 		.4byte	.LVL207
 15348 0f8c 0100     		.2byte	0x1
 15349 0f8e 50       		.byte	0x50
 15350 0f8f 00000000 		.4byte	0
 15351 0f93 00000000 		.4byte	0
 15352              	.LVUS118:
 15353 0f97 0D       		.uleb128 .LVU958
 15354 0f98 00       		.uleb128 .LVU960
 15355              	.LLST118:
 15356 0f99 06000000 		.4byte	.LVL204
 15357 0f9d 0A000000 		.4byte	.LVL205
 15358 0fa1 0300     		.2byte	0x3
 15359 0fa3 08       		.byte	0x8
 15360 0fa4 30       		.byte	0x30
 15361 0fa5 9F       		.byte	0x9f
 15362 0fa6 00000000 		.4byte	0
 15363 0faa 00000000 		.4byte	0
 15364              	.LVUS119:
 15365 0fae 0A       		.uleb128 .LVU975
 15366 0faf 00       		.uleb128 .LVU977
 15367              	.LLST119:
 15368 0fb0 0E000000 		.4byte	.LVL206
 15369 0fb4 12000000 		.4byte	.LVL207
 15370 0fb8 0200     		.2byte	0x2
 15371 0fba 30       		.byte	0x30
 15372 0fbb 9F       		.byte	0x9f
 15373 0fbc 00000000 		.4byte	0
 15374 0fc0 00000000 		.4byte	0
 15375              	.LVUS120:
 15376 0fc4 04       		.uleb128 .LVU981
 15377 0fc5 00       		.uleb128 .LVU987
 15378              	.LLST120:
 15379 0fc6 12000000 		.4byte	.LVL207
 15380 0fca 14000000 		.4byte	.LVL208
 15381 0fce 0100     		.2byte	0x1
 15382 0fd0 50       		.byte	0x50
 15383 0fd1 00000000 		.4byte	0
 15384 0fd5 00000000 		.4byte	0
 15385              		.section	.debug_aranges,"",%progbits
 15386 0000 C4000000 		.4byte	0xc4
 15387 0004 0200     		.2byte	0x2
 15388 0006 00000000 		.4byte	.Ldebug_info0
 15389 000a 04       		.byte	0x4
 15390 000b 00       		.byte	0
 15391 000c 0000     		.2byte	0
 15392 000e 0000     		.2byte	0
ARM GAS  /tmp/ccuqlnP4.s 			page 273


 15393 0010 00000000 		.4byte	.LFB404
 15394 0014 02000000 		.4byte	.LFE404-.LFB404
 15395 0018 00000000 		.4byte	.LFB425
 15396 001c 4C010000 		.4byte	.LFE425-.LFB425
 15397 0020 00000000 		.4byte	.LFB424
 15398 0024 98000000 		.4byte	.LFE424-.LFB424
 15399 0028 00000000 		.4byte	.LFB423
 15400 002c 0C000000 		.4byte	.LFE423-.LFB423
 15401 0030 00000000 		.4byte	.LFB409
 15402 0034 2C000000 		.4byte	.LFE409-.LFB409
 15403 0038 00000000 		.4byte	.LFB422
 15404 003c 98000000 		.4byte	.LFE422-.LFB422
 15405 0040 00000000 		.4byte	.LFB421
 15406 0044 0C000000 		.4byte	.LFE421-.LFB421
 15407 0048 00000000 		.4byte	.LFB417
 15408 004c 0C000000 		.4byte	.LFE417-.LFB417
 15409 0050 00000000 		.4byte	.LFB420
 15410 0054 AC000000 		.4byte	.LFE420-.LFB420
 15411 0058 00000000 		.4byte	.LFB419
 15412 005c 00010000 		.4byte	.LFE419-.LFB419
 15413 0060 00000000 		.4byte	.LFB410
 15414 0064 2C000000 		.4byte	.LFE410-.LFB410
 15415 0068 00000000 		.4byte	.LFB418
 15416 006c 38010000 		.4byte	.LFE418-.LFB418
 15417 0070 00000000 		.4byte	.LFB416
 15418 0074 9C000000 		.4byte	.LFE416-.LFB416
 15419 0078 00000000 		.4byte	.LFB407
 15420 007c 04000000 		.4byte	.LFE407-.LFB407
 15421 0080 00000000 		.4byte	.LFB415
 15422 0084 9C000000 		.4byte	.LFE415-.LFB415
 15423 0088 00000000 		.4byte	.LFB414
 15424 008c E4000000 		.4byte	.LFE414-.LFB414
 15425 0090 00000000 		.4byte	.LFB408
 15426 0094 24000000 		.4byte	.LFE408-.LFB408
 15427 0098 00000000 		.4byte	.LFB405
 15428 009c 20000000 		.4byte	.LFE405-.LFB405
 15429 00a0 00000000 		.4byte	.LFB406
 15430 00a4 32000000 		.4byte	.LFE406-.LFB406
 15431 00a8 00000000 		.4byte	.LFB413
 15432 00ac 10010000 		.4byte	.LFE413-.LFB413
 15433 00b0 00000000 		.4byte	.LFB412
 15434 00b4 98000000 		.4byte	.LFE412-.LFB412
 15435 00b8 00000000 		.4byte	.LFB411
 15436 00bc 98000000 		.4byte	.LFE411-.LFB411
 15437 00c0 00000000 		.4byte	0
 15438 00c4 00000000 		.4byte	0
 15439              		.section	.debug_ranges,"",%progbits
 15440              	.Ldebug_ranges0:
 15441 0000 04000000 		.4byte	.LBB396
 15442 0004 08000000 		.4byte	.LBE396
 15443 0008 10000000 		.4byte	.LBB407
 15444 000c 12000000 		.4byte	.LBE407
 15445 0010 14000000 		.4byte	.LBB408
 15446 0014 16000000 		.4byte	.LBE408
 15447 0018 18000000 		.4byte	.LBB409
 15448 001c 1C000000 		.4byte	.LBE409
 15449 0020 00000000 		.4byte	0
ARM GAS  /tmp/ccuqlnP4.s 			page 274


 15450 0024 00000000 		.4byte	0
 15451 0028 0A000000 		.4byte	.LBB401
 15452 002c 0C000000 		.4byte	.LBE401
 15453 0030 1C000000 		.4byte	.LBB410
 15454 0034 24000000 		.4byte	.LBE410
 15455 0038 00000000 		.4byte	0
 15456 003c 00000000 		.4byte	0
 15457 0040 0C000000 		.4byte	.LBB404
 15458 0044 10000000 		.4byte	.LBE404
 15459 0048 24000000 		.4byte	.LBB411
 15460 004c 2C000000 		.4byte	.LBE411
 15461 0050 00000000 		.4byte	0
 15462 0054 00000000 		.4byte	0
 15463 0058 2E000000 		.4byte	.LBB412
 15464 005c 30000000 		.4byte	.LBE412
 15465 0060 32000000 		.4byte	.LBB415
 15466 0064 38000000 		.4byte	.LBE415
 15467 0068 00000000 		.4byte	0
 15468 006c 00000000 		.4byte	0
 15469 0070 4A000000 		.4byte	.LBB420
 15470 0074 4C000000 		.4byte	.LBE420
 15471 0078 4E000000 		.4byte	.LBB423
 15472 007c 54000000 		.4byte	.LBE423
 15473 0080 00000000 		.4byte	0
 15474 0084 00000000 		.4byte	0
 15475 0088 68000000 		.4byte	.LBB428
 15476 008c 6A000000 		.4byte	.LBE428
 15477 0090 6E000000 		.4byte	.LBB431
 15478 0094 74000000 		.4byte	.LBE431
 15479 0098 00000000 		.4byte	0
 15480 009c 00000000 		.4byte	0
 15481 00a0 86000000 		.4byte	.LBB436
 15482 00a4 88000000 		.4byte	.LBE436
 15483 00a8 8A000000 		.4byte	.LBB439
 15484 00ac 90000000 		.4byte	.LBE439
 15485 00b0 00000000 		.4byte	0
 15486 00b4 00000000 		.4byte	0
 15487 00b8 A2000000 		.4byte	.LBB444
 15488 00bc A4000000 		.4byte	.LBE444
 15489 00c0 A6000000 		.4byte	.LBB447
 15490 00c4 AC000000 		.4byte	.LBE447
 15491 00c8 00000000 		.4byte	0
 15492 00cc 00000000 		.4byte	0
 15493 00d0 BE000000 		.4byte	.LBB452
 15494 00d4 C0000000 		.4byte	.LBE452
 15495 00d8 C2000000 		.4byte	.LBB455
 15496 00dc C8000000 		.4byte	.LBE455
 15497 00e0 00000000 		.4byte	0
 15498 00e4 00000000 		.4byte	0
 15499 00e8 DA000000 		.4byte	.LBB460
 15500 00ec DC000000 		.4byte	.LBE460
 15501 00f0 DE000000 		.4byte	.LBB463
 15502 00f4 E4000000 		.4byte	.LBE463
 15503 00f8 00000000 		.4byte	0
 15504 00fc 00000000 		.4byte	0
 15505 0100 F6000000 		.4byte	.LBB468
 15506 0104 F8000000 		.4byte	.LBE468
ARM GAS  /tmp/ccuqlnP4.s 			page 275


 15507 0108 FA000000 		.4byte	.LBB471
 15508 010c 00010000 		.4byte	.LBE471
 15509 0110 00000000 		.4byte	0
 15510 0114 00000000 		.4byte	0
 15511 0118 08010000 		.4byte	.LBB474
 15512 011c 0C010000 		.4byte	.LBE474
 15513 0120 10010000 		.4byte	.LBB477
 15514 0124 4C010000 		.4byte	.LBE477
 15515 0128 00000000 		.4byte	0
 15516 012c 00000000 		.4byte	0
 15517 0130 08000000 		.4byte	.LBB478
 15518 0134 0A000000 		.4byte	.LBE478
 15519 0138 10000000 		.4byte	.LBB494
 15520 013c 18000000 		.4byte	.LBE494
 15521 0140 18000000 		.4byte	.LBB495
 15522 0144 58000000 		.4byte	.LBE495
 15523 0148 58000000 		.4byte	.LBB496
 15524 014c 58000000 		.4byte	.LBE496
 15525 0150 58000000 		.4byte	.LBB497
 15526 0154 5A000000 		.4byte	.LBE497
 15527 0158 00000000 		.4byte	0
 15528 015c 00000000 		.4byte	0
 15529 0160 4C000000 		.4byte	.LBB479
 15530 0164 52000000 		.4byte	.LBE479
 15531 0168 58000000 		.4byte	.LBB491
 15532 016c 58000000 		.4byte	.LBE491
 15533 0170 58000000 		.4byte	.LBB492
 15534 0174 58000000 		.4byte	.LBE492
 15535 0178 58000000 		.4byte	.LBB493
 15536 017c 58000000 		.4byte	.LBE493
 15537 0180 00000000 		.4byte	0
 15538 0184 00000000 		.4byte	0
 15539 0188 4C000000 		.4byte	.LBB480
 15540 018c 50000000 		.4byte	.LBE480
 15541 0190 58000000 		.4byte	.LBB488
 15542 0194 58000000 		.4byte	.LBE488
 15543 0198 58000000 		.4byte	.LBB489
 15544 019c 58000000 		.4byte	.LBE489
 15545 01a0 00000000 		.4byte	0
 15546 01a4 00000000 		.4byte	0
 15547 01a8 4C000000 		.4byte	.LBB481
 15548 01ac 50000000 		.4byte	.LBE481
 15549 01b0 58000000 		.4byte	.LBB484
 15550 01b4 58000000 		.4byte	.LBE484
 15551 01b8 00000000 		.4byte	0
 15552 01bc 00000000 		.4byte	0
 15553 01c0 50000000 		.4byte	.LBB485
 15554 01c4 52000000 		.4byte	.LBE485
 15555 01c8 58000000 		.4byte	.LBB490
 15556 01cc 58000000 		.4byte	.LBE490
 15557 01d0 00000000 		.4byte	0
 15558 01d4 00000000 		.4byte	0
 15559 01d8 5C000000 		.4byte	.LBB498
 15560 01dc 60000000 		.4byte	.LBE498
 15561 01e0 64000000 		.4byte	.LBB501
 15562 01e4 68000000 		.4byte	.LBE501
 15563 01e8 00000000 		.4byte	0
ARM GAS  /tmp/ccuqlnP4.s 			page 276


 15564 01ec 00000000 		.4byte	0
 15565 01f0 70000000 		.4byte	.LBB504
 15566 01f4 70000000 		.4byte	.LBE504
 15567 01f8 74000000 		.4byte	.LBB507
 15568 01fc 98000000 		.4byte	.LBE507
 15569 0200 00000000 		.4byte	0
 15570 0204 00000000 		.4byte	0
 15571 0208 00000000 		.4byte	.LBB508
 15572 020c 00000000 		.4byte	.LBE508
 15573 0210 02000000 		.4byte	.LBB518
 15574 0214 06000000 		.4byte	.LBE518
 15575 0218 16000000 		.4byte	.LBB519
 15576 021c 18000000 		.4byte	.LBE519
 15577 0220 00000000 		.4byte	0
 15578 0224 00000000 		.4byte	0
 15579 0228 00000000 		.4byte	.LBB510
 15580 022c 00000000 		.4byte	.LBE510
 15581 0230 02000000 		.4byte	.LBB514
 15582 0234 04000000 		.4byte	.LBE514
 15583 0238 16000000 		.4byte	.LBB515
 15584 023c 16000000 		.4byte	.LBE515
 15585 0240 00000000 		.4byte	0
 15586 0244 00000000 		.4byte	0
 15587 0248 08000000 		.4byte	.LBB520
 15588 024c 0A000000 		.4byte	.LBE520
 15589 0250 10000000 		.4byte	.LBB536
 15590 0254 18000000 		.4byte	.LBE536
 15591 0258 18000000 		.4byte	.LBB537
 15592 025c 58000000 		.4byte	.LBE537
 15593 0260 58000000 		.4byte	.LBB538
 15594 0264 58000000 		.4byte	.LBE538
 15595 0268 58000000 		.4byte	.LBB539
 15596 026c 5A000000 		.4byte	.LBE539
 15597 0270 00000000 		.4byte	0
 15598 0274 00000000 		.4byte	0
 15599 0278 4C000000 		.4byte	.LBB521
 15600 027c 52000000 		.4byte	.LBE521
 15601 0280 58000000 		.4byte	.LBB533
 15602 0284 58000000 		.4byte	.LBE533
 15603 0288 58000000 		.4byte	.LBB534
 15604 028c 58000000 		.4byte	.LBE534
 15605 0290 58000000 		.4byte	.LBB535
 15606 0294 58000000 		.4byte	.LBE535
 15607 0298 00000000 		.4byte	0
 15608 029c 00000000 		.4byte	0
 15609 02a0 4C000000 		.4byte	.LBB522
 15610 02a4 50000000 		.4byte	.LBE522
 15611 02a8 58000000 		.4byte	.LBB530
 15612 02ac 58000000 		.4byte	.LBE530
 15613 02b0 58000000 		.4byte	.LBB531
 15614 02b4 58000000 		.4byte	.LBE531
 15615 02b8 00000000 		.4byte	0
 15616 02bc 00000000 		.4byte	0
 15617 02c0 4C000000 		.4byte	.LBB523
 15618 02c4 50000000 		.4byte	.LBE523
 15619 02c8 58000000 		.4byte	.LBB526
 15620 02cc 58000000 		.4byte	.LBE526
ARM GAS  /tmp/ccuqlnP4.s 			page 277


 15621 02d0 00000000 		.4byte	0
 15622 02d4 00000000 		.4byte	0
 15623 02d8 50000000 		.4byte	.LBB527
 15624 02dc 52000000 		.4byte	.LBE527
 15625 02e0 58000000 		.4byte	.LBB532
 15626 02e4 58000000 		.4byte	.LBE532
 15627 02e8 00000000 		.4byte	0
 15628 02ec 00000000 		.4byte	0
 15629 02f0 5C000000 		.4byte	.LBB540
 15630 02f4 60000000 		.4byte	.LBE540
 15631 02f8 64000000 		.4byte	.LBB543
 15632 02fc 68000000 		.4byte	.LBE543
 15633 0300 00000000 		.4byte	0
 15634 0304 00000000 		.4byte	0
 15635 0308 70000000 		.4byte	.LBB546
 15636 030c 70000000 		.4byte	.LBE546
 15637 0310 74000000 		.4byte	.LBB549
 15638 0314 98000000 		.4byte	.LBE549
 15639 0318 00000000 		.4byte	0
 15640 031c 00000000 		.4byte	0
 15641 0320 08000000 		.4byte	.LBB550
 15642 0324 10000000 		.4byte	.LBE550
 15643 0328 16000000 		.4byte	.LBB586
 15644 032c 1E000000 		.4byte	.LBE586
 15645 0330 1E000000 		.4byte	.LBB587
 15646 0334 24000000 		.4byte	.LBE587
 15647 0338 24000000 		.4byte	.LBB588
 15648 033c 24000000 		.4byte	.LBE588
 15649 0340 24000000 		.4byte	.LBB589
 15650 0344 28000000 		.4byte	.LBE589
 15651 0348 28000000 		.4byte	.LBB590
 15652 034c 4E000000 		.4byte	.LBE590
 15653 0350 4E000000 		.4byte	.LBB591
 15654 0354 62000000 		.4byte	.LBE591
 15655 0358 62000000 		.4byte	.LBB592
 15656 035c 62000000 		.4byte	.LBE592
 15657 0360 62000000 		.4byte	.LBB593
 15658 0364 64000000 		.4byte	.LBE593
 15659 0368 00000000 		.4byte	0
 15660 036c 00000000 		.4byte	0
 15661 0370 1E000000 		.4byte	.LBB551
 15662 0374 22000000 		.4byte	.LBE551
 15663 0378 24000000 		.4byte	.LBB559
 15664 037c 24000000 		.4byte	.LBE559
 15665 0380 24000000 		.4byte	.LBB560
 15666 0384 24000000 		.4byte	.LBE560
 15667 0388 24000000 		.4byte	.LBB561
 15668 038c 28000000 		.4byte	.LBE561
 15669 0390 00000000 		.4byte	0
 15670 0394 00000000 		.4byte	0
 15671 0398 1E000000 		.4byte	.LBB552
 15672 039c 22000000 		.4byte	.LBE552
 15673 03a0 24000000 		.4byte	.LBB557
 15674 03a4 24000000 		.4byte	.LBE557
 15675 03a8 24000000 		.4byte	.LBB558
 15676 03ac 28000000 		.4byte	.LBE558
 15677 03b0 00000000 		.4byte	0
ARM GAS  /tmp/ccuqlnP4.s 			page 278


 15678 03b4 00000000 		.4byte	0
 15679 03b8 1E000000 		.4byte	.LBB553
 15680 03bc 22000000 		.4byte	.LBE553
 15681 03c0 24000000 		.4byte	.LBB556
 15682 03c4 28000000 		.4byte	.LBE556
 15683 03c8 00000000 		.4byte	0
 15684 03cc 00000000 		.4byte	0
 15685 03d0 4E000000 		.4byte	.LBB562
 15686 03d4 4E000000 		.4byte	.LBE562
 15687 03d8 4E000000 		.4byte	.LBB569
 15688 03dc 52000000 		.4byte	.LBE569
 15689 03e0 00000000 		.4byte	0
 15690 03e4 00000000 		.4byte	0
 15691 03e8 52000000 		.4byte	.LBB570
 15692 03ec 56000000 		.4byte	.LBE570
 15693 03f0 5A000000 		.4byte	.LBB582
 15694 03f4 5C000000 		.4byte	.LBE582
 15695 03f8 62000000 		.4byte	.LBB583
 15696 03fc 62000000 		.4byte	.LBE583
 15697 0400 62000000 		.4byte	.LBB584
 15698 0404 62000000 		.4byte	.LBE584
 15699 0408 62000000 		.4byte	.LBB585
 15700 040c 62000000 		.4byte	.LBE585
 15701 0410 00000000 		.4byte	0
 15702 0414 00000000 		.4byte	0
 15703 0418 52000000 		.4byte	.LBB571
 15704 041c 56000000 		.4byte	.LBE571
 15705 0420 62000000 		.4byte	.LBB579
 15706 0424 62000000 		.4byte	.LBE579
 15707 0428 62000000 		.4byte	.LBB580
 15708 042c 62000000 		.4byte	.LBE580
 15709 0430 00000000 		.4byte	0
 15710 0434 00000000 		.4byte	0
 15711 0438 52000000 		.4byte	.LBB572
 15712 043c 56000000 		.4byte	.LBE572
 15713 0440 62000000 		.4byte	.LBB575
 15714 0444 62000000 		.4byte	.LBE575
 15715 0448 00000000 		.4byte	0
 15716 044c 00000000 		.4byte	0
 15717 0450 5A000000 		.4byte	.LBB576
 15718 0454 5C000000 		.4byte	.LBE576
 15719 0458 62000000 		.4byte	.LBB581
 15720 045c 62000000 		.4byte	.LBE581
 15721 0460 00000000 		.4byte	0
 15722 0464 00000000 		.4byte	0
 15723 0468 66000000 		.4byte	.LBB594
 15724 046c 6A000000 		.4byte	.LBE594
 15725 0470 6E000000 		.4byte	.LBB597
 15726 0474 72000000 		.4byte	.LBE597
 15727 0478 00000000 		.4byte	0
 15728 047c 00000000 		.4byte	0
 15729 0480 7A000000 		.4byte	.LBB600
 15730 0484 7A000000 		.4byte	.LBE600
 15731 0488 7E000000 		.4byte	.LBB603
 15732 048c AC000000 		.4byte	.LBE603
 15733 0490 00000000 		.4byte	0
 15734 0494 00000000 		.4byte	0
ARM GAS  /tmp/ccuqlnP4.s 			page 279


 15735 0498 04000000 		.4byte	.LBB604
 15736 049c 08000000 		.4byte	.LBE604
 15737 04a0 22000000 		.4byte	.LBB611
 15738 04a4 26000000 		.4byte	.LBE611
 15739 04a8 00000000 		.4byte	0
 15740 04ac 00000000 		.4byte	0
 15741 04b0 04000000 		.4byte	.LBB606
 15742 04b4 08000000 		.4byte	.LBE606
 15743 04b8 22000000 		.4byte	.LBB609
 15744 04bc 22000000 		.4byte	.LBE609
 15745 04c0 00000000 		.4byte	0
 15746 04c4 00000000 		.4byte	0
 15747 04c8 3A000000 		.4byte	.LBB612
 15748 04cc 3E000000 		.4byte	.LBE612
 15749 04d0 40000000 		.4byte	.LBB617
 15750 04d4 40000000 		.4byte	.LBE617
 15751 04d8 00000000 		.4byte	0
 15752 04dc 00000000 		.4byte	0
 15753 04e0 52000000 		.4byte	.LBB618
 15754 04e4 56000000 		.4byte	.LBE618
 15755 04e8 58000000 		.4byte	.LBB623
 15756 04ec 58000000 		.4byte	.LBE623
 15757 04f0 00000000 		.4byte	0
 15758 04f4 00000000 		.4byte	0
 15759 04f8 6A000000 		.4byte	.LBB624
 15760 04fc 6E000000 		.4byte	.LBE624
 15761 0500 70000000 		.4byte	.LBB629
 15762 0504 70000000 		.4byte	.LBE629
 15763 0508 00000000 		.4byte	0
 15764 050c 00000000 		.4byte	0
 15765 0510 82000000 		.4byte	.LBB630
 15766 0514 86000000 		.4byte	.LBE630
 15767 0518 88000000 		.4byte	.LBB635
 15768 051c 88000000 		.4byte	.LBE635
 15769 0520 00000000 		.4byte	0
 15770 0524 00000000 		.4byte	0
 15771 0528 B6000000 		.4byte	.LBB636
 15772 052c BA000000 		.4byte	.LBE636
 15773 0530 BE000000 		.4byte	.LBB639
 15774 0534 C2000000 		.4byte	.LBE639
 15775 0538 00000000 		.4byte	0
 15776 053c 00000000 		.4byte	0
 15777 0540 18000000 		.4byte	.LBB644
 15778 0544 1A000000 		.4byte	.LBE644
 15779 0548 1E000000 		.4byte	.LBB649
 15780 054c 1E000000 		.4byte	.LBE649
 15781 0550 00000000 		.4byte	0
 15782 0554 00000000 		.4byte	0
 15783 0558 04000000 		.4byte	.LBB650
 15784 055c 08000000 		.4byte	.LBE650
 15785 0560 0A000000 		.4byte	.LBB658
 15786 0564 0E000000 		.4byte	.LBE658
 15787 0568 26000000 		.4byte	.LBB659
 15788 056c 26000000 		.4byte	.LBE659
 15789 0570 00000000 		.4byte	0
 15790 0574 00000000 		.4byte	0
 15791 0578 04000000 		.4byte	.LBB652
ARM GAS  /tmp/ccuqlnP4.s 			page 280


 15792 057c 08000000 		.4byte	.LBE652
 15793 0580 26000000 		.4byte	.LBB655
 15794 0584 26000000 		.4byte	.LBE655
 15795 0588 00000000 		.4byte	0
 15796 058c 00000000 		.4byte	0
 15797 0590 2A000000 		.4byte	.LBB660
 15798 0594 2E000000 		.4byte	.LBE660
 15799 0598 3A000000 		.4byte	.LBB665
 15800 059c 3A000000 		.4byte	.LBE665
 15801 05a0 00000000 		.4byte	0
 15802 05a4 00000000 		.4byte	0
 15803 05a8 44000000 		.4byte	.LBB666
 15804 05ac 48000000 		.4byte	.LBE666
 15805 05b0 4A000000 		.4byte	.LBB671
 15806 05b4 4A000000 		.4byte	.LBE671
 15807 05b8 00000000 		.4byte	0
 15808 05bc 00000000 		.4byte	0
 15809 05c0 5C000000 		.4byte	.LBB672
 15810 05c4 60000000 		.4byte	.LBE672
 15811 05c8 62000000 		.4byte	.LBB677
 15812 05cc 62000000 		.4byte	.LBE677
 15813 05d0 00000000 		.4byte	0
 15814 05d4 00000000 		.4byte	0
 15815 05d8 74000000 		.4byte	.LBB678
 15816 05dc 78000000 		.4byte	.LBE678
 15817 05e0 7A000000 		.4byte	.LBB683
 15818 05e4 7A000000 		.4byte	.LBE683
 15819 05e8 00000000 		.4byte	0
 15820 05ec 00000000 		.4byte	0
 15821 05f0 92000000 		.4byte	.LBB684
 15822 05f4 9A000000 		.4byte	.LBE684
 15823 05f8 9A000000 		.4byte	.LBB705
 15824 05fc B6000000 		.4byte	.LBE705
 15825 0600 B6000000 		.4byte	.LBB706
 15826 0604 B6000000 		.4byte	.LBE706
 15827 0608 B6000000 		.4byte	.LBB707
 15828 060c B8000000 		.4byte	.LBE707
 15829 0610 00000000 		.4byte	0
 15830 0614 00000000 		.4byte	0
 15831 0618 96000000 		.4byte	.LBB685
 15832 061c 98000000 		.4byte	.LBE685
 15833 0620 9A000000 		.4byte	.LBB688
 15834 0624 A6000000 		.4byte	.LBE688
 15835 0628 00000000 		.4byte	0
 15836 062c 00000000 		.4byte	0
 15837 0630 A6000000 		.4byte	.LBB689
 15838 0634 AA000000 		.4byte	.LBE689
 15839 0638 AE000000 		.4byte	.LBB701
 15840 063c B0000000 		.4byte	.LBE701
 15841 0640 B6000000 		.4byte	.LBB702
 15842 0644 B6000000 		.4byte	.LBE702
 15843 0648 B6000000 		.4byte	.LBB703
 15844 064c B6000000 		.4byte	.LBE703
 15845 0650 B6000000 		.4byte	.LBB704
 15846 0654 B6000000 		.4byte	.LBE704
 15847 0658 00000000 		.4byte	0
 15848 065c 00000000 		.4byte	0
ARM GAS  /tmp/ccuqlnP4.s 			page 281


 15849 0660 A6000000 		.4byte	.LBB690
 15850 0664 AA000000 		.4byte	.LBE690
 15851 0668 B6000000 		.4byte	.LBB698
 15852 066c B6000000 		.4byte	.LBE698
 15853 0670 B6000000 		.4byte	.LBB699
 15854 0674 B6000000 		.4byte	.LBE699
 15855 0678 00000000 		.4byte	0
 15856 067c 00000000 		.4byte	0
 15857 0680 A6000000 		.4byte	.LBB691
 15858 0684 AA000000 		.4byte	.LBE691
 15859 0688 B6000000 		.4byte	.LBB694
 15860 068c B6000000 		.4byte	.LBE694
 15861 0690 00000000 		.4byte	0
 15862 0694 00000000 		.4byte	0
 15863 0698 AE000000 		.4byte	.LBB695
 15864 069c B0000000 		.4byte	.LBE695
 15865 06a0 B6000000 		.4byte	.LBB700
 15866 06a4 B6000000 		.4byte	.LBE700
 15867 06a8 00000000 		.4byte	0
 15868 06ac 00000000 		.4byte	0
 15869 06b0 D2000000 		.4byte	.LBB710
 15870 06b4 D6000000 		.4byte	.LBE710
 15871 06b8 D8000000 		.4byte	.LBB713
 15872 06bc DC000000 		.4byte	.LBE713
 15873 06c0 00000000 		.4byte	0
 15874 06c4 00000000 		.4byte	0
 15875 06c8 E4000000 		.4byte	.LBB716
 15876 06cc E4000000 		.4byte	.LBE716
 15877 06d0 E8000000 		.4byte	.LBB719
 15878 06d4 F0000000 		.4byte	.LBE719
 15879 06d8 00000000 		.4byte	0
 15880 06dc 00000000 		.4byte	0
 15881 06e0 F8000000 		.4byte	.LBB722
 15882 06e4 FC000000 		.4byte	.LBE722
 15883 06e8 02010000 		.4byte	.LBB725
 15884 06ec 38010000 		.4byte	.LBE725
 15885 06f0 00000000 		.4byte	0
 15886 06f4 00000000 		.4byte	0
 15887 06f8 00000000 		.4byte	.LBB726
 15888 06fc 00000000 		.4byte	.LBE726
 15889 0700 04000000 		.4byte	.LBB734
 15890 0704 06000000 		.4byte	.LBE734
 15891 0708 0A000000 		.4byte	.LBB735
 15892 070c 0C000000 		.4byte	.LBE735
 15893 0710 00000000 		.4byte	0
 15894 0714 00000000 		.4byte	0
 15895 0718 00000000 		.4byte	.LBB728
 15896 071c 00000000 		.4byte	.LBE728
 15897 0720 04000000 		.4byte	.LBB731
 15898 0724 06000000 		.4byte	.LBE731
 15899 0728 00000000 		.4byte	0
 15900 072c 00000000 		.4byte	0
 15901 0730 40000000 		.4byte	.LBB736
 15902 0734 44000000 		.4byte	.LBE736
 15903 0738 48000000 		.4byte	.LBB748
 15904 073c 4A000000 		.4byte	.LBE748
 15905 0740 50000000 		.4byte	.LBB749
ARM GAS  /tmp/ccuqlnP4.s 			page 282


 15906 0744 50000000 		.4byte	.LBE749
 15907 0748 50000000 		.4byte	.LBB750
 15908 074c 50000000 		.4byte	.LBE750
 15909 0750 50000000 		.4byte	.LBB751
 15910 0754 50000000 		.4byte	.LBE751
 15911 0758 00000000 		.4byte	0
 15912 075c 00000000 		.4byte	0
 15913 0760 40000000 		.4byte	.LBB737
 15914 0764 44000000 		.4byte	.LBE737
 15915 0768 50000000 		.4byte	.LBB745
 15916 076c 50000000 		.4byte	.LBE745
 15917 0770 50000000 		.4byte	.LBB746
 15918 0774 50000000 		.4byte	.LBE746
 15919 0778 00000000 		.4byte	0
 15920 077c 00000000 		.4byte	0
 15921 0780 40000000 		.4byte	.LBB738
 15922 0784 44000000 		.4byte	.LBE738
 15923 0788 50000000 		.4byte	.LBB741
 15924 078c 50000000 		.4byte	.LBE741
 15925 0790 00000000 		.4byte	0
 15926 0794 00000000 		.4byte	0
 15927 0798 48000000 		.4byte	.LBB742
 15928 079c 4A000000 		.4byte	.LBE742
 15929 07a0 50000000 		.4byte	.LBB747
 15930 07a4 50000000 		.4byte	.LBE747
 15931 07a8 00000000 		.4byte	0
 15932 07ac 00000000 		.4byte	0
 15933 07b0 54000000 		.4byte	.LBB752
 15934 07b4 58000000 		.4byte	.LBE752
 15935 07b8 5C000000 		.4byte	.LBB755
 15936 07bc 60000000 		.4byte	.LBE755
 15937 07c0 00000000 		.4byte	0
 15938 07c4 00000000 		.4byte	0
 15939 07c8 68000000 		.4byte	.LBB758
 15940 07cc 6C000000 		.4byte	.LBE758
 15941 07d0 72000000 		.4byte	.LBB761
 15942 07d4 9C000000 		.4byte	.LBE761
 15943 07d8 00000000 		.4byte	0
 15944 07dc 00000000 		.4byte	0
 15945 07e0 00000000 		.4byte	.LBB762
 15946 07e4 00000000 		.4byte	.LBE762
 15947 07e8 04000000 		.4byte	.LBB770
 15948 07ec 06000000 		.4byte	.LBE770
 15949 07f0 0A000000 		.4byte	.LBB771
 15950 07f4 0C000000 		.4byte	.LBE771
 15951 07f8 00000000 		.4byte	0
 15952 07fc 00000000 		.4byte	0
 15953 0800 00000000 		.4byte	.LBB764
 15954 0804 00000000 		.4byte	.LBE764
 15955 0808 04000000 		.4byte	.LBB767
 15956 080c 06000000 		.4byte	.LBE767
 15957 0810 00000000 		.4byte	0
 15958 0814 00000000 		.4byte	0
 15959 0818 40000000 		.4byte	.LBB772
 15960 081c 44000000 		.4byte	.LBE772
 15961 0820 48000000 		.4byte	.LBB784
 15962 0824 4A000000 		.4byte	.LBE784
ARM GAS  /tmp/ccuqlnP4.s 			page 283


 15963 0828 50000000 		.4byte	.LBB785
 15964 082c 50000000 		.4byte	.LBE785
 15965 0830 50000000 		.4byte	.LBB786
 15966 0834 50000000 		.4byte	.LBE786
 15967 0838 50000000 		.4byte	.LBB787
 15968 083c 50000000 		.4byte	.LBE787
 15969 0840 00000000 		.4byte	0
 15970 0844 00000000 		.4byte	0
 15971 0848 40000000 		.4byte	.LBB773
 15972 084c 44000000 		.4byte	.LBE773
 15973 0850 50000000 		.4byte	.LBB781
 15974 0854 50000000 		.4byte	.LBE781
 15975 0858 50000000 		.4byte	.LBB782
 15976 085c 50000000 		.4byte	.LBE782
 15977 0860 00000000 		.4byte	0
 15978 0864 00000000 		.4byte	0
 15979 0868 40000000 		.4byte	.LBB774
 15980 086c 44000000 		.4byte	.LBE774
 15981 0870 50000000 		.4byte	.LBB777
 15982 0874 50000000 		.4byte	.LBE777
 15983 0878 00000000 		.4byte	0
 15984 087c 00000000 		.4byte	0
 15985 0880 48000000 		.4byte	.LBB778
 15986 0884 4A000000 		.4byte	.LBE778
 15987 0888 50000000 		.4byte	.LBB783
 15988 088c 50000000 		.4byte	.LBE783
 15989 0890 00000000 		.4byte	0
 15990 0894 00000000 		.4byte	0
 15991 0898 54000000 		.4byte	.LBB788
 15992 089c 58000000 		.4byte	.LBE788
 15993 08a0 5C000000 		.4byte	.LBB791
 15994 08a4 60000000 		.4byte	.LBE791
 15995 08a8 00000000 		.4byte	0
 15996 08ac 00000000 		.4byte	0
 15997 08b0 68000000 		.4byte	.LBB794
 15998 08b4 6C000000 		.4byte	.LBE794
 15999 08b8 72000000 		.4byte	.LBB797
 16000 08bc 9C000000 		.4byte	.LBE797
 16001 08c0 00000000 		.4byte	0
 16002 08c4 00000000 		.4byte	0
 16003 08c8 04000000 		.4byte	.LBB798
 16004 08cc 06000000 		.4byte	.LBE798
 16005 08d0 08000000 		.4byte	.LBB806
 16006 08d4 0A000000 		.4byte	.LBE806
 16007 08d8 20000000 		.4byte	.LBB807
 16008 08dc 20000000 		.4byte	.LBE807
 16009 08e0 00000000 		.4byte	0
 16010 08e4 00000000 		.4byte	0
 16011 08e8 04000000 		.4byte	.LBB800
 16012 08ec 06000000 		.4byte	.LBE800
 16013 08f0 20000000 		.4byte	.LBB803
 16014 08f4 20000000 		.4byte	.LBE803
 16015 08f8 00000000 		.4byte	0
 16016 08fc 00000000 		.4byte	0
 16017 0900 36000000 		.4byte	.LBB808
 16018 0904 40000000 		.4byte	.LBE808
 16019 0908 40000000 		.4byte	.LBB843
ARM GAS  /tmp/ccuqlnP4.s 			page 284


 16020 090c 46000000 		.4byte	.LBE843
 16021 0910 46000000 		.4byte	.LBB844
 16022 0914 46000000 		.4byte	.LBE844
 16023 0918 46000000 		.4byte	.LBB845
 16024 091c 4A000000 		.4byte	.LBE845
 16025 0920 4A000000 		.4byte	.LBB846
 16026 0924 6A000000 		.4byte	.LBE846
 16027 0928 6A000000 		.4byte	.LBB847
 16028 092c 7A000000 		.4byte	.LBE847
 16029 0930 7A000000 		.4byte	.LBB848
 16030 0934 7A000000 		.4byte	.LBE848
 16031 0938 7A000000 		.4byte	.LBB849
 16032 093c 7C000000 		.4byte	.LBE849
 16033 0940 00000000 		.4byte	0
 16034 0944 00000000 		.4byte	0
 16035 0948 3A000000 		.4byte	.LBB809
 16036 094c 3E000000 		.4byte	.LBE809
 16037 0950 46000000 		.4byte	.LBB817
 16038 0954 46000000 		.4byte	.LBE817
 16039 0958 46000000 		.4byte	.LBB818
 16040 095c 46000000 		.4byte	.LBE818
 16041 0960 46000000 		.4byte	.LBB819
 16042 0964 4A000000 		.4byte	.LBE819
 16043 0968 00000000 		.4byte	0
 16044 096c 00000000 		.4byte	0
 16045 0970 3A000000 		.4byte	.LBB810
 16046 0974 3E000000 		.4byte	.LBE810
 16047 0978 46000000 		.4byte	.LBB815
 16048 097c 46000000 		.4byte	.LBE815
 16049 0980 46000000 		.4byte	.LBB816
 16050 0984 4A000000 		.4byte	.LBE816
 16051 0988 00000000 		.4byte	0
 16052 098c 00000000 		.4byte	0
 16053 0990 3A000000 		.4byte	.LBB811
 16054 0994 3E000000 		.4byte	.LBE811
 16055 0998 46000000 		.4byte	.LBB814
 16056 099c 4A000000 		.4byte	.LBE814
 16057 09a0 00000000 		.4byte	0
 16058 09a4 00000000 		.4byte	0
 16059 09a8 6A000000 		.4byte	.LBB820
 16060 09ac 6A000000 		.4byte	.LBE820
 16061 09b0 6A000000 		.4byte	.LBB827
 16062 09b4 6E000000 		.4byte	.LBE827
 16063 09b8 00000000 		.4byte	0
 16064 09bc 00000000 		.4byte	0
 16065 09c0 6E000000 		.4byte	.LBB828
 16066 09c4 74000000 		.4byte	.LBE828
 16067 09c8 7A000000 		.4byte	.LBB840
 16068 09cc 7A000000 		.4byte	.LBE840
 16069 09d0 7A000000 		.4byte	.LBB841
 16070 09d4 7A000000 		.4byte	.LBE841
 16071 09d8 7A000000 		.4byte	.LBB842
 16072 09dc 7A000000 		.4byte	.LBE842
 16073 09e0 00000000 		.4byte	0
 16074 09e4 00000000 		.4byte	0
 16075 09e8 6E000000 		.4byte	.LBB829
 16076 09ec 72000000 		.4byte	.LBE829
ARM GAS  /tmp/ccuqlnP4.s 			page 285


 16077 09f0 7A000000 		.4byte	.LBB837
 16078 09f4 7A000000 		.4byte	.LBE837
 16079 09f8 7A000000 		.4byte	.LBB838
 16080 09fc 7A000000 		.4byte	.LBE838
 16081 0a00 00000000 		.4byte	0
 16082 0a04 00000000 		.4byte	0
 16083 0a08 6E000000 		.4byte	.LBB830
 16084 0a0c 72000000 		.4byte	.LBE830
 16085 0a10 7A000000 		.4byte	.LBB833
 16086 0a14 7A000000 		.4byte	.LBE833
 16087 0a18 00000000 		.4byte	0
 16088 0a1c 00000000 		.4byte	0
 16089 0a20 72000000 		.4byte	.LBB834
 16090 0a24 74000000 		.4byte	.LBE834
 16091 0a28 7A000000 		.4byte	.LBB839
 16092 0a2c 7A000000 		.4byte	.LBE839
 16093 0a30 00000000 		.4byte	0
 16094 0a34 00000000 		.4byte	0
 16095 0a38 82000000 		.4byte	.LBB850
 16096 0a3c 82000000 		.4byte	.LBE850
 16097 0a40 82000000 		.4byte	.LBB855
 16098 0a44 82000000 		.4byte	.LBE855
 16099 0a48 82000000 		.4byte	.LBB856
 16100 0a4c 86000000 		.4byte	.LBE856
 16101 0a50 00000000 		.4byte	0
 16102 0a54 00000000 		.4byte	0
 16103 0a58 90000000 		.4byte	.LBB857
 16104 0a5c 90000000 		.4byte	.LBE857
 16105 0a60 90000000 		.4byte	.LBB864
 16106 0a64 94000000 		.4byte	.LBE864
 16107 0a68 00000000 		.4byte	0
 16108 0a6c 00000000 		.4byte	0
 16109 0a70 9A000000 		.4byte	.LBB865
 16110 0a74 9E000000 		.4byte	.LBE865
 16111 0a78 A2000000 		.4byte	.LBB868
 16112 0a7c A6000000 		.4byte	.LBE868
 16113 0a80 00000000 		.4byte	0
 16114 0a84 00000000 		.4byte	0
 16115 0a88 AE000000 		.4byte	.LBB871
 16116 0a8c B2000000 		.4byte	.LBE871
 16117 0a90 B8000000 		.4byte	.LBB874
 16118 0a94 E4000000 		.4byte	.LBE874
 16119 0a98 00000000 		.4byte	0
 16120 0a9c 00000000 		.4byte	0
 16121 0aa0 00000000 		.4byte	.LBB875
 16122 0aa4 02000000 		.4byte	.LBE875
 16123 0aa8 06000000 		.4byte	.LBB889
 16124 0aac 08000000 		.4byte	.LBE889
 16125 0ab0 00000000 		.4byte	0
 16126 0ab4 00000000 		.4byte	0
 16127 0ab8 04000000 		.4byte	.LBB878
 16128 0abc 06000000 		.4byte	.LBE878
 16129 0ac0 08000000 		.4byte	.LBB890
 16130 0ac4 08000000 		.4byte	.LBE890
 16131 0ac8 08000000 		.4byte	.LBB891
 16132 0acc 0C000000 		.4byte	.LBE891
 16133 0ad0 00000000 		.4byte	0
ARM GAS  /tmp/ccuqlnP4.s 			page 286


 16134 0ad4 00000000 		.4byte	0
 16135 0ad8 04000000 		.4byte	.LBB880
 16136 0adc 06000000 		.4byte	.LBE880
 16137 0ae0 08000000 		.4byte	.LBB885
 16138 0ae4 08000000 		.4byte	.LBE885
 16139 0ae8 08000000 		.4byte	.LBB886
 16140 0aec 0C000000 		.4byte	.LBE886
 16141 0af0 00000000 		.4byte	0
 16142 0af4 00000000 		.4byte	0
 16143 0af8 04000000 		.4byte	.LBB881
 16144 0afc 06000000 		.4byte	.LBE881
 16145 0b00 08000000 		.4byte	.LBB884
 16146 0b04 0C000000 		.4byte	.LBE884
 16147 0b08 00000000 		.4byte	0
 16148 0b0c 00000000 		.4byte	0
 16149 0b10 18000000 		.4byte	.LBB892
 16150 0b14 18000000 		.4byte	.LBE892
 16151 0b18 18000000 		.4byte	.LBB899
 16152 0b1c 1E000000 		.4byte	.LBE899
 16153 0b20 00000000 		.4byte	0
 16154 0b24 00000000 		.4byte	0
 16155 0b28 02000000 		.4byte	.LBB900
 16156 0b2c 06000000 		.4byte	.LBE900
 16157 0b30 06000000 		.4byte	.LBB931
 16158 0b34 06000000 		.4byte	.LBE931
 16159 0b38 06000000 		.4byte	.LBB932
 16160 0b3c 06000000 		.4byte	.LBE932
 16161 0b40 06000000 		.4byte	.LBB933
 16162 0b44 0A000000 		.4byte	.LBE933
 16163 0b48 0A000000 		.4byte	.LBB934
 16164 0b4c 0E000000 		.4byte	.LBE934
 16165 0b50 0E000000 		.4byte	.LBB935
 16166 0b54 12000000 		.4byte	.LBE935
 16167 0b58 00000000 		.4byte	0
 16168 0b5c 00000000 		.4byte	0
 16169 0b60 02000000 		.4byte	.LBB902
 16170 0b64 04000000 		.4byte	.LBE902
 16171 0b68 06000000 		.4byte	.LBB921
 16172 0b6c 06000000 		.4byte	.LBE921
 16173 0b70 06000000 		.4byte	.LBB922
 16174 0b74 06000000 		.4byte	.LBE922
 16175 0b78 06000000 		.4byte	.LBB923
 16176 0b7c 0A000000 		.4byte	.LBE923
 16177 0b80 00000000 		.4byte	0
 16178 0b84 00000000 		.4byte	0
 16179 0b88 02000000 		.4byte	.LBB903
 16180 0b8c 04000000 		.4byte	.LBE903
 16181 0b90 06000000 		.4byte	.LBB908
 16182 0b94 06000000 		.4byte	.LBE908
 16183 0b98 06000000 		.4byte	.LBB909
 16184 0b9c 0A000000 		.4byte	.LBE909
 16185 0ba0 00000000 		.4byte	0
 16186 0ba4 00000000 		.4byte	0
 16187 0ba8 02000000 		.4byte	.LBB904
 16188 0bac 04000000 		.4byte	.LBE904
 16189 0bb0 06000000 		.4byte	.LBB907
 16190 0bb4 0A000000 		.4byte	.LBE907
ARM GAS  /tmp/ccuqlnP4.s 			page 287


 16191 0bb8 00000000 		.4byte	0
 16192 0bbc 00000000 		.4byte	0
 16193 0bc0 04000000 		.4byte	.LBB910
 16194 0bc4 06000000 		.4byte	.LBE910
 16195 0bc8 0E000000 		.4byte	.LBB924
 16196 0bcc 0E000000 		.4byte	.LBE924
 16197 0bd0 0E000000 		.4byte	.LBB925
 16198 0bd4 12000000 		.4byte	.LBE925
 16199 0bd8 00000000 		.4byte	0
 16200 0bdc 00000000 		.4byte	0
 16201 0be0 04000000 		.4byte	.LBB913
 16202 0be4 06000000 		.4byte	.LBE913
 16203 0be8 0E000000 		.4byte	.LBB916
 16204 0bec 12000000 		.4byte	.LBE916
 16205 0bf0 00000000 		.4byte	0
 16206 0bf4 00000000 		.4byte	0
 16207 0bf8 18000000 		.4byte	.LBB938
 16208 0bfc 1E000000 		.4byte	.LBE938
 16209 0c00 24000000 		.4byte	.LBB950
 16210 0c04 24000000 		.4byte	.LBE950
 16211 0c08 24000000 		.4byte	.LBB951
 16212 0c0c 24000000 		.4byte	.LBE951
 16213 0c10 24000000 		.4byte	.LBB952
 16214 0c14 24000000 		.4byte	.LBE952
 16215 0c18 00000000 		.4byte	0
 16216 0c1c 00000000 		.4byte	0
 16217 0c20 18000000 		.4byte	.LBB939
 16218 0c24 1C000000 		.4byte	.LBE939
 16219 0c28 24000000 		.4byte	.LBB947
 16220 0c2c 24000000 		.4byte	.LBE947
 16221 0c30 24000000 		.4byte	.LBB948
 16222 0c34 24000000 		.4byte	.LBE948
 16223 0c38 00000000 		.4byte	0
 16224 0c3c 00000000 		.4byte	0
 16225 0c40 18000000 		.4byte	.LBB940
 16226 0c44 1C000000 		.4byte	.LBE940
 16227 0c48 24000000 		.4byte	.LBB943
 16228 0c4c 24000000 		.4byte	.LBE943
 16229 0c50 00000000 		.4byte	0
 16230 0c54 00000000 		.4byte	0
 16231 0c58 1C000000 		.4byte	.LBB944
 16232 0c5c 1E000000 		.4byte	.LBE944
 16233 0c60 24000000 		.4byte	.LBB949
 16234 0c64 24000000 		.4byte	.LBE949
 16235 0c68 00000000 		.4byte	0
 16236 0c6c 00000000 		.4byte	0
 16237 0c70 04000000 		.4byte	.LBB953
 16238 0c74 06000000 		.4byte	.LBE953
 16239 0c78 08000000 		.4byte	.LBB961
 16240 0c7c 0A000000 		.4byte	.LBE961
 16241 0c80 2A000000 		.4byte	.LBB962
 16242 0c84 2A000000 		.4byte	.LBE962
 16243 0c88 00000000 		.4byte	0
 16244 0c8c 00000000 		.4byte	0
 16245 0c90 04000000 		.4byte	.LBB955
 16246 0c94 06000000 		.4byte	.LBE955
 16247 0c98 2A000000 		.4byte	.LBB958
ARM GAS  /tmp/ccuqlnP4.s 			page 288


 16248 0c9c 2A000000 		.4byte	.LBE958
 16249 0ca0 00000000 		.4byte	0
 16250 0ca4 00000000 		.4byte	0
 16251 0ca8 2E000000 		.4byte	.LBB963
 16252 0cac 30000000 		.4byte	.LBE963
 16253 0cb0 44000000 		.4byte	.LBB968
 16254 0cb4 44000000 		.4byte	.LBE968
 16255 0cb8 00000000 		.4byte	0
 16256 0cbc 00000000 		.4byte	0
 16257 0cc0 4E000000 		.4byte	.LBB969
 16258 0cc4 50000000 		.4byte	.LBE969
 16259 0cc8 52000000 		.4byte	.LBB974
 16260 0ccc 52000000 		.4byte	.LBE974
 16261 0cd0 00000000 		.4byte	0
 16262 0cd4 00000000 		.4byte	0
 16263 0cd8 64000000 		.4byte	.LBB975
 16264 0cdc 66000000 		.4byte	.LBE975
 16265 0ce0 68000000 		.4byte	.LBB980
 16266 0ce4 68000000 		.4byte	.LBE980
 16267 0ce8 00000000 		.4byte	0
 16268 0cec 00000000 		.4byte	0
 16269 0cf0 7A000000 		.4byte	.LBB981
 16270 0cf4 7C000000 		.4byte	.LBE981
 16271 0cf8 7E000000 		.4byte	.LBB986
 16272 0cfc 7E000000 		.4byte	.LBE986
 16273 0d00 00000000 		.4byte	0
 16274 0d04 00000000 		.4byte	0
 16275 0d08 A0000000 		.4byte	.LBB987
 16276 0d0c A2000000 		.4byte	.LBE987
 16277 0d10 AC000000 		.4byte	.LBB994
 16278 0d14 AE000000 		.4byte	.LBE994
 16279 0d18 B2000000 		.4byte	.LBB995
 16280 0d1c B8000000 		.4byte	.LBE995
 16281 0d20 00000000 		.4byte	0
 16282 0d24 00000000 		.4byte	0
 16283 0d28 A2000000 		.4byte	.LBB991
 16284 0d2c A4000000 		.4byte	.LBE991
 16285 0d30 B8000000 		.4byte	.LBB996
 16286 0d34 C0000000 		.4byte	.LBE996
 16287 0d38 00000000 		.4byte	0
 16288 0d3c 00000000 		.4byte	0
 16289 0d40 D0000000 		.4byte	.LBB1001
 16290 0d44 D4000000 		.4byte	.LBE1001
 16291 0d48 DA000000 		.4byte	.LBB1004
 16292 0d4c 10010000 		.4byte	.LBE1004
 16293 0d50 00000000 		.4byte	0
 16294 0d54 00000000 		.4byte	0
 16295 0d58 02000000 		.4byte	.LBB1005
 16296 0d5c 04000000 		.4byte	.LBE1005
 16297 0d60 06000000 		.4byte	.LBB1013
 16298 0d64 08000000 		.4byte	.LBE1013
 16299 0d68 1E000000 		.4byte	.LBB1021
 16300 0d6c 1E000000 		.4byte	.LBE1021
 16301 0d70 00000000 		.4byte	0
 16302 0d74 00000000 		.4byte	0
 16303 0d78 02000000 		.4byte	.LBB1007
 16304 0d7c 04000000 		.4byte	.LBE1007
ARM GAS  /tmp/ccuqlnP4.s 			page 289


 16305 0d80 1E000000 		.4byte	.LBB1010
 16306 0d84 1E000000 		.4byte	.LBE1010
 16307 0d88 00000000 		.4byte	0
 16308 0d8c 00000000 		.4byte	0
 16309 0d90 10000000 		.4byte	.LBB1014
 16310 0d94 12000000 		.4byte	.LBE1014
 16311 0d98 3C000000 		.4byte	.LBB1022
 16312 0d9c 3E000000 		.4byte	.LBE1022
 16313 0da0 40000000 		.4byte	.LBB1023
 16314 0da4 46000000 		.4byte	.LBE1023
 16315 0da8 00000000 		.4byte	0
 16316 0dac 00000000 		.4byte	0
 16317 0db0 12000000 		.4byte	.LBB1018
 16318 0db4 14000000 		.4byte	.LBE1018
 16319 0db8 46000000 		.4byte	.LBB1024
 16320 0dbc 4E000000 		.4byte	.LBE1024
 16321 0dc0 00000000 		.4byte	0
 16322 0dc4 00000000 		.4byte	0
 16323 0dc8 5E000000 		.4byte	.LBB1029
 16324 0dcc 62000000 		.4byte	.LBE1029
 16325 0dd0 68000000 		.4byte	.LBB1032
 16326 0dd4 98000000 		.4byte	.LBE1032
 16327 0dd8 00000000 		.4byte	0
 16328 0ddc 00000000 		.4byte	0
 16329 0de0 02000000 		.4byte	.LBB1033
 16330 0de4 04000000 		.4byte	.LBE1033
 16331 0de8 06000000 		.4byte	.LBB1041
 16332 0dec 08000000 		.4byte	.LBE1041
 16333 0df0 1E000000 		.4byte	.LBB1049
 16334 0df4 1E000000 		.4byte	.LBE1049
 16335 0df8 00000000 		.4byte	0
 16336 0dfc 00000000 		.4byte	0
 16337 0e00 02000000 		.4byte	.LBB1035
 16338 0e04 04000000 		.4byte	.LBE1035
 16339 0e08 1E000000 		.4byte	.LBB1038
 16340 0e0c 1E000000 		.4byte	.LBE1038
 16341 0e10 00000000 		.4byte	0
 16342 0e14 00000000 		.4byte	0
 16343 0e18 10000000 		.4byte	.LBB1042
 16344 0e1c 12000000 		.4byte	.LBE1042
 16345 0e20 3C000000 		.4byte	.LBB1050
 16346 0e24 3E000000 		.4byte	.LBE1050
 16347 0e28 40000000 		.4byte	.LBB1051
 16348 0e2c 46000000 		.4byte	.LBE1051
 16349 0e30 00000000 		.4byte	0
 16350 0e34 00000000 		.4byte	0
 16351 0e38 12000000 		.4byte	.LBB1046
 16352 0e3c 14000000 		.4byte	.LBE1046
 16353 0e40 46000000 		.4byte	.LBB1052
 16354 0e44 4E000000 		.4byte	.LBE1052
 16355 0e48 00000000 		.4byte	0
 16356 0e4c 00000000 		.4byte	0
 16357 0e50 5E000000 		.4byte	.LBB1057
 16358 0e54 62000000 		.4byte	.LBE1057
 16359 0e58 68000000 		.4byte	.LBB1060
 16360 0e5c 98000000 		.4byte	.LBE1060
 16361 0e60 00000000 		.4byte	0
ARM GAS  /tmp/ccuqlnP4.s 			page 290


 16362 0e64 00000000 		.4byte	0
 16363 0e68 00000000 		.4byte	.LFB404
 16364 0e6c 02000000 		.4byte	.LFE404
 16365 0e70 00000000 		.4byte	.LFB425
 16366 0e74 4C010000 		.4byte	.LFE425
 16367 0e78 00000000 		.4byte	.LFB424
 16368 0e7c 98000000 		.4byte	.LFE424
 16369 0e80 00000000 		.4byte	.LFB423
 16370 0e84 0C000000 		.4byte	.LFE423
 16371 0e88 00000000 		.4byte	.LFB409
 16372 0e8c 2C000000 		.4byte	.LFE409
 16373 0e90 00000000 		.4byte	.LFB422
 16374 0e94 98000000 		.4byte	.LFE422
 16375 0e98 00000000 		.4byte	.LFB421
 16376 0e9c 0C000000 		.4byte	.LFE421
 16377 0ea0 00000000 		.4byte	.LFB417
 16378 0ea4 0C000000 		.4byte	.LFE417
 16379 0ea8 00000000 		.4byte	.LFB420
 16380 0eac AC000000 		.4byte	.LFE420
 16381 0eb0 00000000 		.4byte	.LFB419
 16382 0eb4 00010000 		.4byte	.LFE419
 16383 0eb8 00000000 		.4byte	.LFB410
 16384 0ebc 2C000000 		.4byte	.LFE410
 16385 0ec0 00000000 		.4byte	.LFB418
 16386 0ec4 38010000 		.4byte	.LFE418
 16387 0ec8 00000000 		.4byte	.LFB416
 16388 0ecc 9C000000 		.4byte	.LFE416
 16389 0ed0 00000000 		.4byte	.LFB407
 16390 0ed4 04000000 		.4byte	.LFE407
 16391 0ed8 00000000 		.4byte	.LFB415
 16392 0edc 9C000000 		.4byte	.LFE415
 16393 0ee0 00000000 		.4byte	.LFB414
 16394 0ee4 E4000000 		.4byte	.LFE414
 16395 0ee8 00000000 		.4byte	.LFB408
 16396 0eec 24000000 		.4byte	.LFE408
 16397 0ef0 00000000 		.4byte	.LFB405
 16398 0ef4 20000000 		.4byte	.LFE405
 16399 0ef8 00000000 		.4byte	.LFB406
 16400 0efc 32000000 		.4byte	.LFE406
 16401 0f00 00000000 		.4byte	.LFB413
 16402 0f04 10010000 		.4byte	.LFE413
 16403 0f08 00000000 		.4byte	.LFB412
 16404 0f0c 98000000 		.4byte	.LFE412
 16405 0f10 00000000 		.4byte	.LFB411
 16406 0f14 98000000 		.4byte	.LFE411
 16407 0f18 00000000 		.4byte	0
 16408 0f1c 00000000 		.4byte	0
 16409              		.section	.debug_line,"",%progbits
 16410              	.Ldebug_line0:
 16411 0000 2C200000 		.section	.debug_str,"MS",%progbits,1
 16411      03008C03 
 16411      00000201 
 16411      FB0E0D00 
 16411      01010101 
 16412              	.LASF73:
 16413 0000 63685F64 		.ascii	"ch_delta_list_t\000"
 16413      656C7461 
ARM GAS  /tmp/ccuqlnP4.s 			page 291


 16413      5F6C6973 
 16413      745F7400 
 16414              	.LASF4:
 16415 0010 73697A65 		.ascii	"size_t\000"
 16415      5F7400
 16416              	.LASF230:
 16417 0017 2F686F6D 		.ascii	"/home/bhimebau/forge/analog_in_out/application\000"
 16417      652F6268 
 16417      696D6562 
 16417      61752F66 
 16417      6F726765 
 16418              	.LASF99:
 16419 0046 77747365 		.ascii	"wtsemp\000"
 16419      6D7000
 16420              	.LASF82:
 16421 004d 72656C6F 		.ascii	"reload\000"
 16421      616400
 16422              	.LASF61:
 16423 0054 73797374 		.ascii	"systime_t\000"
 16423      696D655F 
 16423      7400
 16424              	.LASF31:
 16425 005e 6F776E65 		.ascii	"owner\000"
 16425      7200
 16426              	.LASF227:
 16427 0064 63684D73 		.ascii	"chMsgRelease\000"
 16427      6752656C 
 16427      65617365 
 16427      00
 16428              	.LASF24:
 16429 0071 74707269 		.ascii	"tprio_t\000"
 16429      6F5F7400 
 16430              	.LASF209:
 16431 0079 63685365 		.ascii	"chSemWait\000"
 16431      6D576169 
 16431      7400
 16432              	.LASF16:
 16433 0083 696E7433 		.ascii	"int32_t\000"
 16433      325F7400 
 16434              	.LASF83:
 16435 008b 76746675 		.ascii	"vtfunc_t\000"
 16435      6E635F74 
 16435      00
 16436              	.LASF84:
 16437 0094 63685F76 		.ascii	"ch_virtual_timers_list\000"
 16437      69727475 
 16437      616C5F74 
 16437      696D6572 
 16437      735F6C69 
 16438              	.LASF186:
 16439 00ab 63685468 		.ascii	"chThdGetPriorityX\000"
 16439      64476574 
 16439      5072696F 
 16439      72697479 
 16439      5800
 16440              	.LASF90:
 16441 00bd 72656769 		.ascii	"registry_t\000"
ARM GAS  /tmp/ccuqlnP4.s 			page 292


 16441      73747279 
 16441      5F7400
 16442              	.LASF191:
 16443 00c8 5F5F6675 		.ascii	"__func__\000"
 16443      6E635F5F 
 16443      00
 16444              	.LASF118:
 16445 00d1 77726974 		.ascii	"write\000"
 16445      6500
 16446              	.LASF170:
 16447 00d7 72745F74 		.ascii	"rt_test_012_001_execute\000"
 16447      6573745F 
 16447      3031325F 
 16447      3030315F 
 16447      65786563 
 16448              	.LASF120:
 16449 00ef 42617365 		.ascii	"BaseSequentialStream\000"
 16449      53657175 
 16449      656E7469 
 16449      616C5374 
 16449      7265616D 
 16450              	.LASF51:
 16451 0104 636F6E66 		.ascii	"config\000"
 16451      696700
 16452              	.LASF34:
 16453 010b 73746174 		.ascii	"state\000"
 16453      6500
 16454              	.LASF54:
 16455 0111 63685F72 		.ascii	"ch_rfcu\000"
 16455      66637500 
 16456              	.LASF213:
 16457 0119 63685654 		.ascii	"chVTDoResetI\000"
 16457      446F5265 
 16457      73657449 
 16457      00
 16458              	.LASF171:
 16459 0126 626D6B5F 		.ascii	"bmk_thread8\000"
 16459      74687265 
 16459      61643800 
 16460              	.LASF219:
 16461 0132 63685468 		.ascii	"chThdRelease\000"
 16461      6452656C 
 16461      65617365 
 16461      00
 16462              	.LASF155:
 16463 013f 72745F74 		.ascii	"rt_test_012_012_execute\000"
 16463      6573745F 
 16463      3031325F 
 16463      3031325F 
 16463      65786563 
 16464              	.LASF88:
 16465 0157 63685F72 		.ascii	"ch_registry\000"
 16465      65676973 
 16465      74727900 
 16466              	.LASF72:
 16467 0163 7072696F 		.ascii	"prio\000"
 16467      00
ARM GAS  /tmp/ccuqlnP4.s 			page 293


 16468              	.LASF95:
 16469 0168 65786974 		.ascii	"exitcode\000"
 16469      636F6465 
 16469      00
 16470              	.LASF212:
 16471 0171 63685654 		.ascii	"chVTDoSetI\000"
 16471      446F5365 
 16471      744900
 16472              	.LASF124:
 16473 017c 6C6F6361 		.ascii	"local_fail\000"
 16473      6C5F6661 
 16473      696C00
 16474              	.LASF5:
 16475 0187 5F5F7569 		.ascii	"__uint8_t\000"
 16475      6E74385F 
 16475      7400
 16476              	.LASF222:
 16477 0191 63685468 		.ascii	"chThdYield\000"
 16477      64596965 
 16477      6C6400
 16478              	.LASF201:
 16479 019c 73797374 		.ascii	"systime\000"
 16479      696D6500 
 16480              	.LASF10:
 16481 01a4 6C6F6E67 		.ascii	"long int\000"
 16481      20696E74 
 16481      00
 16482              	.LASF194:
 16483 01ad 706F7274 		.ascii	"port_unlock\000"
 16483      5F756E6C 
 16483      6F636B00 
 16484              	.LASF207:
 16485 01b9 63684D74 		.ascii	"chMtxUnlock\000"
 16485      78556E6C 
 16485      6F636B00 
 16486              	.LASF179:
 16487 01c5 74657374 		.ascii	"test_print\000"
 16487      5F707269 
 16487      6E7400
 16488              	.LASF200:
 16489 01d0 63685469 		.ascii	"chTimeAddX\000"
 16489      6D654164 
 16489      645800
 16490              	.LASF22:
 16491 01db 74737461 		.ascii	"tstate_t\000"
 16491      74655F74 
 16491      00
 16492              	.LASF39:
 16493 01e4 6570656E 		.ascii	"epending\000"
 16493      64696E67 
 16493      00
 16494              	.LASF165:
 16495 01ed 72745F74 		.ascii	"rt_test_012_006_execute\000"
 16495      6573745F 
 16495      3031325F 
 16495      3030365F 
 16495      65786563 
ARM GAS  /tmp/ccuqlnP4.s 			page 294


 16496              	.LASF64:
 16497 0205 63685F6C 		.ascii	"ch_list_t\000"
 16497      6973745F 
 16497      7400
 16498              	.LASF65:
 16499 020f 63685F6C 		.ascii	"ch_list\000"
 16499      69737400 
 16500              	.LASF86:
 16501 0217 6C617374 		.ascii	"laststamp\000"
 16501      7374616D 
 16501      7000
 16502              	.LASF3:
 16503 0221 7369676E 		.ascii	"signed char\000"
 16503      65642063 
 16503      68617200 
 16504              	.LASF101:
 16505 022d 65776D61 		.ascii	"ewmask\000"
 16505      736B00
 16506              	.LASF160:
 16507 0234 72745F74 		.ascii	"rt_test_012_010_setup\000"
 16507      6573745F 
 16507      3031325F 
 16507      3031305F 
 16507      73657475 
 16508              	.LASF15:
 16509 024a 75696E74 		.ascii	"uint8_t\000"
 16509      385F7400 
 16510              	.LASF28:
 16511 0252 636F7265 		.ascii	"core_id_t\000"
 16511      5F69645F 
 16511      7400
 16512              	.LASF26:
 16513 025c 6576656E 		.ascii	"eventmask_t\000"
 16513      746D6173 
 16513      6B5F7400 
 16514              	.LASF97:
 16515 0268 77747472 		.ascii	"wttrp\000"
 16515      7000
 16516              	.LASF6:
 16517 026e 756E7369 		.ascii	"unsigned char\000"
 16517      676E6564 
 16517      20636861 
 16517      7200
 16518              	.LASF85:
 16519 027c 6C617374 		.ascii	"lasttime\000"
 16519      74696D65 
 16519      00
 16520              	.LASF203:
 16521 0285 74657374 		.ascii	"test_printf\000"
 16521      5F707269 
 16521      6E746600 
 16522              	.LASF58:
 16523 0291 70616E69 		.ascii	"panic_msg\000"
 16523      635F6D73 
 16523      6700
 16524              	.LASF181:
 16525 029b 74657374 		.ascii	"test_printn\000"
ARM GAS  /tmp/ccuqlnP4.s 			page 295


 16525      5F707269 
 16525      6E746E00 
 16526              	.LASF164:
 16527 02a7 72745F74 		.ascii	"rt_test_012_007_setup\000"
 16527      6573745F 
 16527      3031325F 
 16527      3030375F 
 16527      73657475 
 16528              	.LASF60:
 16529 02bd 73797374 		.ascii	"system_debug_t\000"
 16529      656D5F64 
 16529      65627567 
 16529      5F7400
 16530              	.LASF115:
 16531 02cc 5F426F6F 		.ascii	"_Bool\000"
 16531      6C00
 16532              	.LASF221:
 16533 02d2 63685363 		.ascii	"chSchWakeupS\000"
 16533      6857616B 
 16533      65757053 
 16533      00
 16534              	.LASF59:
 16535 02df 63686172 		.ascii	"char\000"
 16535      00
 16536              	.LASF169:
 16537 02e4 72745F74 		.ascii	"rt_test_012_002_execute\000"
 16537      6573745F 
 16537      3031325F 
 16537      3030325F 
 16537      65786563 
 16538              	.LASF96:
 16539 02fc 77746F62 		.ascii	"wtobjp\000"
 16539      6A7000
 16540              	.LASF35:
 16541 0303 666C6167 		.ascii	"flags\000"
 16541      7300
 16542              	.LASF20:
 16543 0309 73746B61 		.ascii	"stkalign_t\000"
 16543      6C69676E 
 16543      5F7400
 16544              	.LASF49:
 16545 0314 636F7265 		.ascii	"core_id\000"
 16545      5F696400 
 16546              	.LASF137:
 16547 031c 63687465 		.ascii	"chtest\000"
 16547      737400
 16548              	.LASF42:
 16549 0323 6D706F6F 		.ascii	"mpool\000"
 16549      6C00
 16550              	.LASF109:
 16551 0329 6D61696E 		.ascii	"mainthread_end\000"
 16551      74687265 
 16551      61645F65 
 16551      6E6400
 16552              	.LASF129:
 16553 0338 73747265 		.ascii	"stream\000"
 16553      616D00
ARM GAS  /tmp/ccuqlnP4.s 			page 296


 16554              	.LASF192:
 16555 033f 706F7274 		.ascii	"port_timer_get_time\000"
 16555      5F74696D 
 16555      65725F67 
 16555      65745F74 
 16555      696D6500 
 16556              	.LASF125:
 16557 0353 6661696C 		.ascii	"failure_message\000"
 16557      7572655F 
 16557      6D657373 
 16557      61676500 
 16558              	.LASF30:
 16559 0363 72717565 		.ascii	"rqueue\000"
 16559      756500
 16560              	.LASF27:
 16561 036a 636E745F 		.ascii	"cnt_t\000"
 16561      7400
 16562              	.LASF215:
 16563 0370 63685468 		.ascii	"chThdSleep\000"
 16563      64536C65 
 16563      657000
 16564              	.LASF131:
 16565 037b 73657475 		.ascii	"setup\000"
 16565      7000
 16566              	.LASF100:
 16567 0381 77746D74 		.ascii	"wtmtxp\000"
 16567      787000
 16568              	.LASF104:
 16569 0388 63685F72 		.ascii	"ch_ready_list\000"
 16569      65616479 
 16569      5F6C6973 
 16569      7400
 16570              	.LASF45:
 16571 0396 63685F6F 		.ascii	"ch_os_instance\000"
 16571      735F696E 
 16571      7374616E 
 16571      636500
 16572              	.LASF163:
 16573 03a5 72745F74 		.ascii	"rt_test_012_007_execute\000"
 16573      6573745F 
 16573      3031325F 
 16573      3030375F 
 16573      65786563 
 16574              	.LASF136:
 16575 03bd 74657374 		.ascii	"testsequence_t\000"
 16575      73657175 
 16575      656E6365 
 16575      5F7400
 16576              	.LASF123:
 16577 03cc 676C6F62 		.ascii	"global_fail\000"
 16577      616C5F66 
 16577      61696C00 
 16578              	.LASF156:
 16579 03d8 72745F74 		.ascii	"rt_test_012_011_execute\000"
 16579      6573745F 
 16579      3031325F 
 16579      3031315F 
ARM GAS  /tmp/ccuqlnP4.s 			page 297


 16579      65786563 
 16580              	.LASF13:
 16581 03f0 5F5F7569 		.ascii	"__uint64_t\000"
 16581      6E743634 
 16581      5F7400
 16582              	.LASF190:
 16583 03fb 63685379 		.ascii	"chSysUnlock\000"
 16583      73556E6C 
 16583      6F636B00 
 16584              	.LASF12:
 16585 0407 6C6F6E67 		.ascii	"long unsigned int\000"
 16585      20756E73 
 16585      69676E65 
 16585      6420696E 
 16585      7400
 16586              	.LASF67:
 16587 0419 63685F71 		.ascii	"ch_queue_t\000"
 16587      75657565 
 16587      5F7400
 16588              	.LASF193:
 16589 0424 63685379 		.ascii	"chSysLock\000"
 16589      734C6F63 
 16589      6B00
 16590              	.LASF53:
 16591 042e 72666375 		.ascii	"rfcu_mask_t\000"
 16591      5F6D6173 
 16591      6B5F7400 
 16592              	.LASF174:
 16593 043a 73656C66 		.ascii	"self\000"
 16593      00
 16594              	.LASF210:
 16595 043f 63685365 		.ascii	"chSemSignal\000"
 16595      6D536967 
 16595      6E616C00 
 16596              	.LASF177:
 16597 044b 70617261 		.ascii	"param\000"
 16597      6D00
 16598              	.LASF102:
 16599 0451 63685F73 		.ascii	"ch_semaphore\000"
 16599      656D6170 
 16599      686F7265 
 16599      00
 16600              	.LASF140:
 16601 045e 73656D31 		.ascii	"sem1\000"
 16601      00
 16602              	.LASF44:
 16603 0463 63685F74 		.ascii	"ch_thread\000"
 16603      68726561 
 16603      6400
 16604              	.LASF87:
 16605 046d 76697274 		.ascii	"virtual_timers_list_t\000"
 16605      75616C5F 
 16605      74696D65 
 16605      72735F6C 
 16605      6973745F 
 16606              	.LASF78:
 16607 0483 76697274 		.ascii	"virtual_timer_t\000"
ARM GAS  /tmp/ccuqlnP4.s 			page 298


 16607      75616C5F 
 16607      74696D65 
 16607      725F7400 
 16608              	.LASF106:
 16609 0493 72656164 		.ascii	"ready_list_t\000"
 16609      795F6C69 
 16609      73745F74 
 16609      00
 16610              	.LASF41:
 16611 04a0 7265616C 		.ascii	"realprio\000"
 16611      7072696F 
 16611      00
 16612              	.LASF218:
 16613 04a9 63685365 		.ascii	"chSemResetWithMessage\000"
 16613      6D526573 
 16613      65745769 
 16613      74684D65 
 16613      73736167 
 16614              	.LASF141:
 16615 04bf 6D747831 		.ascii	"mtx1\000"
 16615      00
 16616              	.LASF197:
 16617 04c4 62617365 		.ascii	"basePri\000"
 16617      50726900 
 16618              	.LASF56:
 16619 04cc 72666375 		.ascii	"rfcu_t\000"
 16619      5F7400
 16620              	.LASF134:
 16621 04d3 74657374 		.ascii	"testcase_t\000"
 16621      63617365 
 16621      5F7400
 16622              	.LASF229:
 16623 04de 2E2E2F43 		.ascii	"../ChibiOS/test/rt/source/test/rt_test_sequence_012"
 16623      68696269 
 16623      4F532F74 
 16623      6573742F 
 16623      72742F73 
 16624 0511 2E6300   		.ascii	".c\000"
 16625              	.LASF11:
 16626 0514 5F5F7569 		.ascii	"__uint32_t\000"
 16626      6E743332 
 16626      5F7400
 16627              	.LASF40:
 16628 051f 6D74786C 		.ascii	"mtxlist\000"
 16628      69737400 
 16629              	.LASF1:
 16630 0527 6C6F6E67 		.ascii	"long long int\000"
 16630      206C6F6E 
 16630      6720696E 
 16630      7400
 16631              	.LASF62:
 16632 0535 73797369 		.ascii	"sysinterval_t\000"
 16632      6E746572 
 16632      76616C5F 
 16632      7400
 16633              	.LASF204:
 16634 0543 73744765 		.ascii	"stGetCounter\000"
ARM GAS  /tmp/ccuqlnP4.s 			page 299


 16634      74436F75 
 16634      6E746572 
 16634      00
 16635              	.LASF168:
 16636 0550 72745F74 		.ascii	"rt_test_012_003_execute\000"
 16636      6573745F 
 16636      3031325F 
 16636      3030335F 
 16636      65786563 
 16637              	.LASF214:
 16638 0568 63685468 		.ascii	"chThdCreateStatic\000"
 16638      64437265 
 16638      61746553 
 16638      74617469 
 16638      6300
 16639              	.LASF70:
 16640 057a 63685F70 		.ascii	"ch_priority_queue_t\000"
 16640      72696F72 
 16640      6974795F 
 16640      71756575 
 16640      655F7400 
 16641              	.LASF225:
 16642 058e 63684D73 		.ascii	"chMsgSend\000"
 16642      6753656E 
 16642      6400
 16643              	.LASF184:
 16644 0598 63685365 		.ascii	"chSemReset\000"
 16644      6D526573 
 16644      657400
 16645              	.LASF55:
 16646 05a3 6D61736B 		.ascii	"mask\000"
 16646      00
 16647              	.LASF217:
 16648 05a8 74657374 		.ascii	"test_wait_threads\000"
 16648      5F776169 
 16648      745F7468 
 16648      72656164 
 16648      7300
 16649              	.LASF135:
 16650 05ba 63617365 		.ascii	"cases\000"
 16650      7300
 16651              	.LASF119:
 16652 05c0 72656164 		.ascii	"read\000"
 16652      00
 16653              	.LASF205:
 16654 05c5 74657374 		.ascii	"test_wait_tick\000"
 16654      5F776169 
 16654      745F7469 
 16654      636B00
 16655              	.LASF0:
 16656 05d4 756E7369 		.ascii	"unsigned int\000"
 16656      676E6564 
 16656      20696E74 
 16656      00
 16657              	.LASF198:
 16658 05e1 63685469 		.ascii	"chTimeIsInRangeX\000"
 16658      6D654973 
ARM GAS  /tmp/ccuqlnP4.s 			page 300


 16658      496E5261 
 16658      6E676558 
 16658      00
 16659              	.LASF43:
 16660 05f2 6F735F69 		.ascii	"os_instance_t\000"
 16660      6E737461 
 16660      6E63655F 
 16660      7400
 16661              	.LASF183:
 16662 0600 63684D73 		.ascii	"chMsgWait\000"
 16662      67576169 
 16662      7400
 16663              	.LASF158:
 16664 060a 72745F74 		.ascii	"rt_test_012_011_setup\000"
 16664      6573745F 
 16664      3031325F 
 16664      3031315F 
 16664      73657475 
 16665              	.LASF132:
 16666 0620 74656172 		.ascii	"teardown\000"
 16666      646F776E 
 16666      00
 16667              	.LASF228:
 16668 0629 474E5520 		.ascii	"GNU C17 10.3.1 20210621 (release) -mcpu=cortex-m4 -"
 16668      43313720 
 16668      31302E33 
 16668      2E312032 
 16668      30323130 
 16669 065c 6D746875 		.ascii	"mthumb -mfloat-abi=soft -march=armv7e-m -ggdb -O2 -"
 16669      6D62202D 
 16669      6D666C6F 
 16669      61742D61 
 16669      62693D73 
 16670 068f 666F6D69 		.ascii	"fomit-frame-pointer -falign-functions=16 -ffunction"
 16670      742D6672 
 16670      616D652D 
 16670      706F696E 
 16670      74657220 
 16671 06c2 2D736563 		.ascii	"-sections -fdata-sections -fno-common\000"
 16671      74696F6E 
 16671      73202D66 
 16671      64617461 
 16671      2D736563 
 16672              	.LASF105:
 16673 06e8 63757272 		.ascii	"current\000"
 16673      656E7400 
 16674              	.LASF92:
 16675 06f0 6C697374 		.ascii	"list\000"
 16675      00
 16676              	.LASF162:
 16677 06f5 72745F74 		.ascii	"rt_test_012_008_execute\000"
 16677      6573745F 
 16677      3031325F 
 16677      3030385F 
 16677      65786563 
 16678              	.LASF211:
 16679 070d 63685365 		.ascii	"chSemObjectInit\000"
ARM GAS  /tmp/ccuqlnP4.s 			page 301


 16679      6D4F626A 
 16679      65637449 
 16679      6E697400 
 16680              	.LASF63:
 16681 071d 74696D65 		.ascii	"time_conv_t\000"
 16681      5F636F6E 
 16681      765F7400 
 16682              	.LASF206:
 16683 0729 63684D74 		.ascii	"chMtxLock\000"
 16683      784C6F63 
 16683      6B00
 16684              	.LASF74:
 16685 0733 63685F64 		.ascii	"ch_delta_list\000"
 16685      656C7461 
 16685      5F6C6973 
 16685      7400
 16686              	.LASF80:
 16687 0741 646C6973 		.ascii	"dlist\000"
 16687      7400
 16688              	.LASF220:
 16689 0747 63685468 		.ascii	"chThdWait\000"
 16689      64576169 
 16689      7400
 16690              	.LASF29:
 16691 0751 74687265 		.ascii	"thread_t\000"
 16691      61645F74 
 16691      00
 16692              	.LASF111:
 16693 075a 69646C65 		.ascii	"idlethread_end\000"
 16693      74687265 
 16693      61645F65 
 16693      6E6400
 16694              	.LASF2:
 16695 0769 6C6F6E67 		.ascii	"long double\000"
 16695      20646F75 
 16695      626C6500 
 16696              	.LASF91:
 16697 0775 74687265 		.ascii	"thread_reference_t\000"
 16697      61645F72 
 16697      65666572 
 16697      656E6365 
 16697      5F7400
 16698              	.LASF98:
 16699 0788 73656E74 		.ascii	"sentmsg\000"
 16699      6D736700 
 16700              	.LASF76:
 16701 0790 706F7274 		.ascii	"port_intctx\000"
 16701      5F696E74 
 16701      63747800 
 16702              	.LASF159:
 16703 079c 72745F74 		.ascii	"rt_test_012_010_execute\000"
 16703      6573745F 
 16703      3031325F 
 16703      3031305F 
 16703      65786563 
 16704              	.LASF189:
 16705 07b4 63685654 		.ascii	"chVTGetSystemTimeX\000"
ARM GAS  /tmp/ccuqlnP4.s 			page 302


 16705      47657453 
 16705      79737465 
 16705      6D54696D 
 16705      655800
 16706              	.LASF224:
 16707 07c7 63685468 		.ascii	"chThdExit\000"
 16707      64457869 
 16707      7400
 16708              	.LASF79:
 16709 07d1 63685F76 		.ascii	"ch_virtual_timer\000"
 16709      69727475 
 16709      616C5F74 
 16709      696D6572 
 16709      00
 16710              	.LASF14:
 16711 07e2 6C6F6E67 		.ascii	"long long unsigned int\000"
 16711      206C6F6E 
 16711      6720756E 
 16711      7369676E 
 16711      65642069 
 16712              	.LASF68:
 16713 07f9 63685F71 		.ascii	"ch_queue\000"
 16713      75657565 
 16713      00
 16714              	.LASF108:
 16715 0802 6D61696E 		.ascii	"mainthread_base\000"
 16715      74687265 
 16715      61645F62 
 16715      61736500 
 16716              	.LASF25:
 16717 0812 6D73675F 		.ascii	"msg_t\000"
 16717      7400
 16718              	.LASF154:
 16719 0818 72745F74 		.ascii	"rt_test_sequence_012_array\000"
 16719      6573745F 
 16719      73657175 
 16719      656E6365 
 16719      5F303132 
 16720              	.LASF75:
 16721 0833 64656C74 		.ascii	"delta\000"
 16721      6100
 16722              	.LASF19:
 16723 0839 706F7274 		.ascii	"port_stkalign_t\000"
 16723      5F73746B 
 16723      616C6967 
 16723      6E5F7400 
 16724              	.LASF176:
 16725 0849 626D6B5F 		.ascii	"bmk_thread1\000"
 16725      74687265 
 16725      61643100 
 16726              	.LASF175:
 16727 0855 626D6B5F 		.ascii	"bmk_thread3\000"
 16727      74687265 
 16727      61643300 
 16728              	.LASF173:
 16729 0861 626D6B5F 		.ascii	"bmk_thread4\000"
 16729      74687265 
ARM GAS  /tmp/ccuqlnP4.s 			page 303


 16729      61643400 
 16730              	.LASF172:
 16731 086d 626D6B5F 		.ascii	"bmk_thread7\000"
 16731      74687265 
 16731      61643700 
 16732              	.LASF133:
 16733 0879 65786563 		.ascii	"execute\000"
 16733      75746500 
 16734              	.LASF226:
 16735 0881 63684D73 		.ascii	"chMsgWaitS\000"
 16735      67576169 
 16735      745300
 16736              	.LASF36:
 16737 088c 72656673 		.ascii	"refs\000"
 16737      00
 16738              	.LASF167:
 16739 0891 72745F74 		.ascii	"rt_test_012_004_execute\000"
 16739      6573745F 
 16739      3031325F 
 16739      3030345F 
 16739      65786563 
 16740              	.LASF89:
 16741 08a9 71756575 		.ascii	"queue\000"
 16741      6500
 16742              	.LASF180:
 16743 08af 6D736770 		.ascii	"msgp\000"
 16743      00
 16744              	.LASF52:
 16745 08b4 6D61696E 		.ascii	"mainthread\000"
 16745      74687265 
 16745      616400
 16746              	.LASF127:
 16747 08bf 746F6B65 		.ascii	"tokens_buffer\000"
 16747      6E735F62 
 16747      75666665 
 16747      7200
 16748              	.LASF145:
 16749 08cd 72745F74 		.ascii	"rt_test_012_004\000"
 16749      6573745F 
 16749      3031325F 
 16749      30303400 
 16750              	.LASF196:
 16751 08dd 5F5F7365 		.ascii	"__set_BASEPRI\000"
 16751      745F4241 
 16751      53455052 
 16751      4900
 16752              	.LASF148:
 16753 08eb 72745F74 		.ascii	"rt_test_012_007\000"
 16753      6573745F 
 16753      3031325F 
 16753      30303700 
 16754              	.LASF33:
 16755 08fb 77616261 		.ascii	"wabase\000"
 16755      736500
 16756              	.LASF199:
 16757 0902 74696D65 		.ascii	"time\000"
 16757      00
ARM GAS  /tmp/ccuqlnP4.s 			page 304


 16758              	.LASF139:
 16759 0907 74687265 		.ascii	"threads\000"
 16759      61647300 
 16760              	.LASF116:
 16761 090f 42617365 		.ascii	"BaseSequentialStreamVMT\000"
 16761      53657175 
 16761      656E7469 
 16761      616C5374 
 16761      7265616D 
 16762              	.LASF46:
 16763 0927 726C6973 		.ascii	"rlist\000"
 16763      7400
 16764              	.LASF21:
 16765 092d 746D6F64 		.ascii	"tmode_t\000"
 16765      655F7400 
 16766              	.LASF93:
 16767 0935 70717565 		.ascii	"pqueue\000"
 16767      756500
 16768              	.LASF202:
 16769 093c 696E7465 		.ascii	"interval\000"
 16769      7276616C 
 16769      00
 16770              	.LASF138:
 16771 0945 72745F74 		.ascii	"rt_test_sequence_012\000"
 16771      6573745F 
 16771      73657175 
 16771      656E6365 
 16771      5F303132 
 16772              	.LASF216:
 16773 095a 74657374 		.ascii	"test_terminate_threads\000"
 16773      5F746572 
 16773      6D696E61 
 16773      74655F74 
 16773      68726561 
 16774              	.LASF32:
 16775 0971 6E616D65 		.ascii	"name\000"
 16775      00
 16776              	.LASF195:
 16777 0976 706F7274 		.ascii	"port_lock\000"
 16777      5F6C6F63 
 16777      6B00
 16778              	.LASF151:
 16779 0980 72745F74 		.ascii	"rt_test_012_010\000"
 16779      6573745F 
 16779      3031325F 
 16779      30313000 
 16780              	.LASF152:
 16781 0990 72745F74 		.ascii	"rt_test_012_011\000"
 16781      6573745F 
 16781      3031325F 
 16781      30313100 
 16782              	.LASF107:
 16783 09a0 63685F6F 		.ascii	"ch_os_instance_config\000"
 16783      735F696E 
 16783      7374616E 
 16783      63655F63 
 16783      6F6E6669 
ARM GAS  /tmp/ccuqlnP4.s 			page 305


 16784              	.LASF7:
 16785 09b6 73686F72 		.ascii	"short int\000"
 16785      7420696E 
 16785      7400
 16786              	.LASF112:
 16787 09c0 6F735F69 		.ascii	"os_instance_config_t\000"
 16787      6E737461 
 16787      6E63655F 
 16787      636F6E66 
 16787      69675F74 
 16788              	.LASF71:
 16789 09d5 63685F70 		.ascii	"ch_priority_queue\000"
 16789      72696F72 
 16789      6974795F 
 16789      71756575 
 16789      6500
 16790              	.LASF18:
 16791 09e7 75696E74 		.ascii	"uint64_t\000"
 16791      36345F74 
 16791      00
 16792              	.LASF188:
 16793 09f0 63685654 		.ascii	"chVTIsSystemTimeWithinX\000"
 16793      49735379 
 16793      7374656D 
 16793      54696D65 
 16793      57697468 
 16794              	.LASF81:
 16795 0a08 66756E63 		.ascii	"func\000"
 16795      00
 16796              	.LASF103:
 16797 0a0d 63685F6D 		.ascii	"ch_mutex\000"
 16797      75746578 
 16797      00
 16798              	.LASF187:
 16799 0a16 63685468 		.ascii	"chThdGetSelfX\000"
 16799      64476574 
 16799      53656C66 
 16799      5800
 16800              	.LASF142:
 16801 0a24 72745F74 		.ascii	"rt_test_012_001\000"
 16801      6573745F 
 16801      3031325F 
 16801      30303100 
 16802              	.LASF143:
 16803 0a34 72745F74 		.ascii	"rt_test_012_002\000"
 16803      6573745F 
 16803      3031325F 
 16803      30303200 
 16804              	.LASF144:
 16805 0a44 72745F74 		.ascii	"rt_test_012_003\000"
 16805      6573745F 
 16805      3031325F 
 16805      30303300 
 16806              	.LASF50:
 16807 0a54 72666375 		.ascii	"rfcu\000"
 16807      00
 16808              	.LASF146:
ARM GAS  /tmp/ccuqlnP4.s 			page 306


 16809 0a59 72745F74 		.ascii	"rt_test_012_005\000"
 16809      6573745F 
 16809      3031325F 
 16809      30303500 
 16810              	.LASF147:
 16811 0a69 72745F74 		.ascii	"rt_test_012_006\000"
 16811      6573745F 
 16811      3031325F 
 16811      30303600 
 16812              	.LASF38:
 16813 0a79 6D736771 		.ascii	"msgqueue\000"
 16813      75657565 
 16813      00
 16814              	.LASF149:
 16815 0a82 72745F74 		.ascii	"rt_test_012_008\000"
 16815      6573745F 
 16815      3031325F 
 16815      30303800 
 16816              	.LASF150:
 16817 0a92 72745F74 		.ascii	"rt_test_012_009\000"
 16817      6573745F 
 16817      3031325F 
 16817      30303900 
 16818              	.LASF161:
 16819 0aa2 72745F74 		.ascii	"rt_test_012_009_execute\000"
 16819      6573745F 
 16819      3031325F 
 16819      3030395F 
 16819      65786563 
 16820              	.LASF157:
 16821 0aba 73746172 		.ascii	"start\000"
 16821      7400
 16822              	.LASF57:
 16823 0ac0 63685F73 		.ascii	"ch_system_debug\000"
 16823      79737465 
 16823      6D5F6465 
 16823      62756700 
 16824              	.LASF48:
 16825 0ad0 7265676C 		.ascii	"reglist\000"
 16825      69737400 
 16826              	.LASF178:
 16827 0ad8 74657374 		.ascii	"test_println\000"
 16827      5F707269 
 16827      6E746C6E 
 16827      00
 16828              	.LASF128:
 16829 0ae5 70757463 		.ascii	"putchar\000"
 16829      68617200 
 16830              	.LASF121:
 16831 0aed 74657374 		.ascii	"test_putchar_t\000"
 16831      5F707574 
 16831      63686172 
 16831      5F7400
 16832              	.LASF153:
 16833 0afc 72745F74 		.ascii	"rt_test_012_012\000"
 16833      6573745F 
 16833      3031325F 
ARM GAS  /tmp/ccuqlnP4.s 			page 307


 16833      30313200 
 16834              	.LASF47:
 16835 0b0c 76746C69 		.ascii	"vtlist\000"
 16835      737400
 16836              	.LASF37:
 16837 0b13 77616974 		.ascii	"waiting\000"
 16837      696E6700 
 16838              	.LASF114:
 16839 0b1b 6D757465 		.ascii	"mutex_t\000"
 16839      785F7400 
 16840              	.LASF23:
 16841 0b23 74726566 		.ascii	"trefs_t\000"
 16841      735F7400 
 16842              	.LASF231:
 16843 0b2b 6D73675F 		.ascii	"msg_loop_test\000"
 16843      6C6F6F70 
 16843      5F746573 
 16843      7400
 16844              	.LASF77:
 16845 0b39 706F7274 		.ascii	"port_context\000"
 16845      5F636F6E 
 16845      74657874 
 16845      00
 16846              	.LASF182:
 16847 0b46 63684D73 		.ascii	"chMsgGet\000"
 16847      67476574 
 16847      00
 16848              	.LASF17:
 16849 0b4f 75696E74 		.ascii	"uint32_t\000"
 16849      33325F74 
 16849      00
 16850              	.LASF117:
 16851 0b58 696E7374 		.ascii	"instance_offset\000"
 16851      616E6365 
 16851      5F6F6666 
 16851      73657400 
 16852              	.LASF126:
 16853 0b68 746F6B70 		.ascii	"tokp\000"
 16853      00
 16854              	.LASF94:
 16855 0b6d 7264796D 		.ascii	"rdymsg\000"
 16855      736700
 16856              	.LASF8:
 16857 0b74 73686F72 		.ascii	"short unsigned int\000"
 16857      7420756E 
 16857      7369676E 
 16857      65642069 
 16857      6E7400
 16858              	.LASF223:
 16859 0b87 63685363 		.ascii	"chSchGoSleepS\000"
 16859      68476F53 
 16859      6C656570 
 16859      5300
 16860              	.LASF166:
 16861 0b95 72745F74 		.ascii	"rt_test_012_005_execute\000"
 16861      6573745F 
 16861      3031325F 
ARM GAS  /tmp/ccuqlnP4.s 			page 308


 16861      3030355F 
 16861      65786563 
 16862              	.LASF110:
 16863 0bad 69646C65 		.ascii	"idlethread_base\000"
 16863      74687265 
 16863      61645F62 
 16863      61736500 
 16864              	.LASF9:
 16865 0bbd 5F5F696E 		.ascii	"__int32_t\000"
 16865      7433325F 
 16865      7400
 16866              	.LASF122:
 16867 0bc7 63757272 		.ascii	"current_step\000"
 16867      656E745F 
 16867      73746570 
 16867      00
 16868              	.LASF208:
 16869 0bd4 63684D74 		.ascii	"chMtxObjectInit\000"
 16869      784F626A 
 16869      65637449 
 16869      6E697400 
 16870              	.LASF185:
 16871 0be4 63685468 		.ascii	"chThdShouldTerminateX\000"
 16871      6453686F 
 16871      756C6454 
 16871      65726D69 
 16871      6E617465 
 16872              	.LASF66:
 16873 0bfa 6E657874 		.ascii	"next\000"
 16873      00
 16874              	.LASF113:
 16875 0bff 73656D61 		.ascii	"semaphore_t\000"
 16875      70686F72 
 16875      655F7400 
 16876              	.LASF69:
 16877 0c0b 70726576 		.ascii	"prev\000"
 16877      00
 16878              	.LASF130:
 16879 0c10 63685F74 		.ascii	"ch_test_context_t\000"
 16879      6573745F 
 16879      636F6E74 
 16879      6578745F 
 16879      7400
 16880              		.ident	"GCC: (GNU Arm Embedded Toolchain 10.3-2021.07) 10.3.1 20210621 (release)"
ARM GAS  /tmp/ccuqlnP4.s 			page 309


DEFINED SYMBOLS
                            *ABS*:0000000000000000 rt_test_sequence_012.c
     /tmp/ccuqlnP4.s:16     .text.tmo:0000000000000000 $t
     /tmp/ccuqlnP4.s:24     .text.tmo:0000000000000000 tmo
     /tmp/ccuqlnP4.s:41     .rodata.rt_test_012_012_execute.str1.4:0000000000000000 $d
     /tmp/ccuqlnP4.s:81     .text.rt_test_012_012_execute:0000000000000000 $t
     /tmp/ccuqlnP4.s:88     .text.rt_test_012_012_execute:0000000000000000 rt_test_012_012_execute
     /tmp/ccuqlnP4.s:606    .text.rt_test_012_012_execute:0000000000000114 $d
     /tmp/ccuqlnP4.s:626    .rodata.rt_test_012_011_execute.str1.4:0000000000000000 $d
     /tmp/ccuqlnP4.s:633    .text.rt_test_012_011_execute:0000000000000000 $t
     /tmp/ccuqlnP4.s:640    .text.rt_test_012_011_execute:0000000000000000 rt_test_012_011_execute
     /tmp/ccuqlnP4.s:855    .text.rt_test_012_011_execute:000000000000007c $d
     /tmp/ccuqlnP4.s:868    .text.rt_test_012_011_setup:0000000000000000 $t
     /tmp/ccuqlnP4.s:875    .text.rt_test_012_011_setup:0000000000000000 rt_test_012_011_setup
     /tmp/ccuqlnP4.s:889    .text.rt_test_012_011_setup:0000000000000008 $d
     /tmp/ccuqlnP4.s:894    .text.bmk_thread7:0000000000000000 $t
     /tmp/ccuqlnP4.s:901    .text.bmk_thread7:0000000000000000 bmk_thread7
     /tmp/ccuqlnP4.s:982    .text.bmk_thread7:0000000000000024 $d
     /tmp/ccuqlnP4.s:988    .rodata.rt_test_012_010_execute.str1.4:0000000000000000 $d
     /tmp/ccuqlnP4.s:992    .text.rt_test_012_010_execute:0000000000000000 $t
     /tmp/ccuqlnP4.s:999    .text.rt_test_012_010_execute:0000000000000000 rt_test_012_010_execute
     /tmp/ccuqlnP4.s:1211   .text.rt_test_012_010_execute:000000000000007c $d
     /tmp/ccuqlnP4.s:1224   .text.rt_test_012_010_setup:0000000000000000 $t
     /tmp/ccuqlnP4.s:1231   .text.rt_test_012_010_setup:0000000000000000 rt_test_012_010_setup
     /tmp/ccuqlnP4.s:1246   .text.rt_test_012_010_setup:0000000000000008 $d
     /tmp/ccuqlnP4.s:1251   .text.rt_test_012_007_setup:0000000000000000 $t
     /tmp/ccuqlnP4.s:1258   .text.rt_test_012_007_setup:0000000000000000 rt_test_012_007_setup
     /tmp/ccuqlnP4.s:1273   .text.rt_test_012_007_setup:0000000000000008 $d
     /tmp/ccuqlnP4.s:1278   .rodata.rt_test_012_009_execute.str1.4:0000000000000000 $d
     /tmp/ccuqlnP4.s:1282   .text.rt_test_012_009_execute:0000000000000000 $t
     /tmp/ccuqlnP4.s:1289   .text.rt_test_012_009_execute:0000000000000000 rt_test_012_009_execute
     /tmp/ccuqlnP4.s:1601   .text.rt_test_012_009_execute:0000000000000088 $d
     /tmp/ccuqlnP4.s:1616   .rodata.rt_test_012_008_execute.str1.4:0000000000000000 $d
     /tmp/ccuqlnP4.s:1620   .text.rt_test_012_008_execute:0000000000000000 $t
     /tmp/ccuqlnP4.s:1627   .text.rt_test_012_008_execute:0000000000000000 rt_test_012_008_execute
     /tmp/ccuqlnP4.s:1914   .text.rt_test_012_008_execute:00000000000000d8 $d
     /tmp/ccuqlnP4.s:1935   .text.bmk_thread8:0000000000000000 bmk_thread8
     /tmp/ccuqlnP4.s:1928   .text.bmk_thread8:0000000000000000 $t
     /tmp/ccuqlnP4.s:2005   .text.bmk_thread8:0000000000000028 $d
     /tmp/ccuqlnP4.s:2010   .rodata.rt_test_012_007_execute.str1.4:0000000000000000 $d
     /tmp/ccuqlnP4.s:2014   .text.rt_test_012_007_execute:0000000000000000 $t
     /tmp/ccuqlnP4.s:2021   .text.rt_test_012_007_execute:0000000000000000 rt_test_012_007_execute
     /tmp/ccuqlnP4.s:2465   .text.rt_test_012_007_execute:0000000000000108 $d
     /tmp/ccuqlnP4.s:2483   .rodata.rt_test_012_006_execute.str1.4:0000000000000000 $d
     /tmp/ccuqlnP4.s:2487   .text.rt_test_012_006_execute:0000000000000000 $t
     /tmp/ccuqlnP4.s:2494   .text.rt_test_012_006_execute:0000000000000000 rt_test_012_006_execute
     /tmp/ccuqlnP4.s:2725   .text.rt_test_012_006_execute:0000000000000078 $d
     /tmp/ccuqlnP4.s:2747   .text.bmk_thread3:0000000000000000 bmk_thread3
     /tmp/ccuqlnP4.s:2740   .text.bmk_thread3:0000000000000000 $t
     /tmp/ccuqlnP4.s:2763   .text.rt_test_012_005_execute:0000000000000000 $t
     /tmp/ccuqlnP4.s:2770   .text.rt_test_012_005_execute:0000000000000000 rt_test_012_005_execute
     /tmp/ccuqlnP4.s:3001   .text.rt_test_012_005_execute:0000000000000078 $d
     /tmp/ccuqlnP4.s:3016   .text.rt_test_012_004_execute:0000000000000000 $t
     /tmp/ccuqlnP4.s:3023   .text.rt_test_012_004_execute:0000000000000000 rt_test_012_004_execute
     /tmp/ccuqlnP4.s:3468   .text.rt_test_012_004_execute:00000000000000bc $d
     /tmp/ccuqlnP4.s:3491   .text.bmk_thread4:0000000000000000 bmk_thread4
     /tmp/ccuqlnP4.s:3484   .text.bmk_thread4:0000000000000000 $t
ARM GAS  /tmp/ccuqlnP4.s 			page 310


     /tmp/ccuqlnP4.s:3632   .text.bmk_thread4:0000000000000020 $d
     /tmp/ccuqlnP4.s:3637   .text.bmk_thread1:0000000000000000 $t
     /tmp/ccuqlnP4.s:3644   .text.bmk_thread1:0000000000000000 bmk_thread1
     /tmp/ccuqlnP4.s:3824   .text.msg_loop_test:0000000000000000 $t
     /tmp/ccuqlnP4.s:3831   .text.msg_loop_test:0000000000000000 msg_loop_test
     /tmp/ccuqlnP4.s:3946   .rodata.rt_test_012_003_execute.str1.4:0000000000000000 $d
     /tmp/ccuqlnP4.s:3950   .text.rt_test_012_003_execute:0000000000000000 $t
     /tmp/ccuqlnP4.s:3957   .text.rt_test_012_003_execute:0000000000000000 rt_test_012_003_execute
     /tmp/ccuqlnP4.s:4301   .text.rt_test_012_003_execute:00000000000000e0 $d
     /tmp/ccuqlnP4.s:4319   .text.rt_test_012_002_execute:0000000000000000 $t
     /tmp/ccuqlnP4.s:4326   .text.rt_test_012_002_execute:0000000000000000 rt_test_012_002_execute
     /tmp/ccuqlnP4.s:4525   .text.rt_test_012_002_execute:000000000000006c $d
     /tmp/ccuqlnP4.s:4542   .text.rt_test_012_001_execute:0000000000000000 $t
     /tmp/ccuqlnP4.s:4549   .text.rt_test_012_001_execute:0000000000000000 rt_test_012_001_execute
     /tmp/ccuqlnP4.s:4748   .text.rt_test_012_001_execute:000000000000006c $d
     /tmp/ccuqlnP4.s:4946   .rodata.rt_test_sequence_012:0000000000000000 rt_test_sequence_012
     /tmp/ccuqlnP4.s:4766   .rodata.str1.4:0000000000000000 $d
     /tmp/ccuqlnP4.s:4953   .rodata.rt_test_sequence_012_array:0000000000000000 rt_test_sequence_012_array
     /tmp/ccuqlnP4.s:4807   .bss.mtx1:0000000000000000 $d
     /tmp/ccuqlnP4.s:4811   .bss.mtx1:0000000000000000 mtx1
     /tmp/ccuqlnP4.s:4814   .bss.sem1:0000000000000000 $d
     /tmp/ccuqlnP4.s:4818   .bss.sem1:0000000000000000 sem1
     /tmp/ccuqlnP4.s:4821   .bss.vt1.1:0000000000000000 $d
     /tmp/ccuqlnP4.s:4825   .bss.vt1.1:0000000000000000 vt1.1
     /tmp/ccuqlnP4.s:4828   .bss.vt2.0:0000000000000000 $d
     /tmp/ccuqlnP4.s:4832   .bss.vt2.0:0000000000000000 vt2.0
     /tmp/ccuqlnP4.s:4835   .rodata.rt_test_012_001:0000000000000000 $d
     /tmp/ccuqlnP4.s:4838   .rodata.rt_test_012_001:0000000000000000 rt_test_012_001
     /tmp/ccuqlnP4.s:4844   .rodata.rt_test_012_002:0000000000000000 $d
     /tmp/ccuqlnP4.s:4847   .rodata.rt_test_012_002:0000000000000000 rt_test_012_002
     /tmp/ccuqlnP4.s:4853   .rodata.rt_test_012_003:0000000000000000 $d
     /tmp/ccuqlnP4.s:4856   .rodata.rt_test_012_003:0000000000000000 rt_test_012_003
     /tmp/ccuqlnP4.s:4862   .rodata.rt_test_012_004:0000000000000000 $d
     /tmp/ccuqlnP4.s:4865   .rodata.rt_test_012_004:0000000000000000 rt_test_012_004
     /tmp/ccuqlnP4.s:4871   .rodata.rt_test_012_005:0000000000000000 $d
     /tmp/ccuqlnP4.s:4874   .rodata.rt_test_012_005:0000000000000000 rt_test_012_005
     /tmp/ccuqlnP4.s:4880   .rodata.rt_test_012_006:0000000000000000 $d
     /tmp/ccuqlnP4.s:4883   .rodata.rt_test_012_006:0000000000000000 rt_test_012_006
     /tmp/ccuqlnP4.s:4889   .rodata.rt_test_012_007:0000000000000000 $d
     /tmp/ccuqlnP4.s:4892   .rodata.rt_test_012_007:0000000000000000 rt_test_012_007
     /tmp/ccuqlnP4.s:4898   .rodata.rt_test_012_008:0000000000000000 $d
     /tmp/ccuqlnP4.s:4901   .rodata.rt_test_012_008:0000000000000000 rt_test_012_008
     /tmp/ccuqlnP4.s:4907   .rodata.rt_test_012_009:0000000000000000 $d
     /tmp/ccuqlnP4.s:4910   .rodata.rt_test_012_009:0000000000000000 rt_test_012_009
     /tmp/ccuqlnP4.s:4916   .rodata.rt_test_012_010:0000000000000000 $d
     /tmp/ccuqlnP4.s:4919   .rodata.rt_test_012_010:0000000000000000 rt_test_012_010
     /tmp/ccuqlnP4.s:4925   .rodata.rt_test_012_011:0000000000000000 $d
     /tmp/ccuqlnP4.s:4928   .rodata.rt_test_012_011:0000000000000000 rt_test_012_011
     /tmp/ccuqlnP4.s:4934   .rodata.rt_test_012_012:0000000000000000 $d
     /tmp/ccuqlnP4.s:4937   .rodata.rt_test_012_012:0000000000000000 rt_test_012_012
     /tmp/ccuqlnP4.s:4943   .rodata.rt_test_sequence_012:0000000000000000 $d
     /tmp/ccuqlnP4.s:4950   .rodata.rt_test_sequence_012_array:0000000000000000 $d

UNDEFINED SYMBOLS
test_printf
chtest
test_wait_tick
ARM GAS  /tmp/ccuqlnP4.s 			page 311


chMtxLock
chMtxUnlock
stGetCounter
chMtxObjectInit
chSemWait
ch0
chSemSignal
chSemObjectInit
chVTDoSetI
chVTDoResetI
chThdCreateStatic
chThdSleep
test_terminate_threads
test_wait_threads
wa
threads
chThdYield
chSemResetWithMessage
chThdRelease
chThdExit
chThdWait
chSchWakeupS
chSchGoSleepS
chMsgWaitS
chMsgRelease
chMsgSend
