ARM GAS  /tmp/ccVafpDf.s 			page 1


   1              		.cpu cortex-m4
   2              		.eabi_attribute 20, 1
   3              		.eabi_attribute 21, 1
   4              		.eabi_attribute 23, 3
   5              		.eabi_attribute 24, 1
   6              		.eabi_attribute 25, 1
   7              		.eabi_attribute 26, 1
   8              		.eabi_attribute 30, 2
   9              		.eabi_attribute 34, 1
  10              		.eabi_attribute 18, 4
  11              		.file	"rt_test_sequence_011.c"
  12              		.text
  13              	.Ltext0:
  14              		.cfi_sections	.debug_frame
  15              		.section	.rodata.rt_test_011_002_execute.str1.4,"aMS",%progbits,1
  16              		.align	2
  17              	.LC0:
  18 0000 64796E31 		.ascii	"dyn1\000"
  18      00
  19 0005 000000   		.align	2
  20              	.LC1:
  21 0008 4100     		.ascii	"A\000"
  22 000a 0000     		.align	2
  23              	.LC2:
  24 000c 64796E32 		.ascii	"dyn2\000"
  24      00
  25 0011 000000   		.align	2
  26              	.LC3:
  27 0014 4200     		.ascii	"B\000"
  28 0016 0000     		.align	2
  29              	.LC4:
  30 0018 64796E33 		.ascii	"dyn3\000"
  30      00
  31 001d 000000   		.align	2
  32              	.LC5:
  33 0020 4300     		.ascii	"C\000"
  34 0022 0000     		.align	2
  35              	.LC6:
  36 0024 64796E34 		.ascii	"dyn4\000"
  36      00
  37 0029 000000   		.align	2
  38              	.LC7:
  39 002c 4400     		.ascii	"D\000"
  40 002e 0000     		.align	2
  41              	.LC8:
  42 0030 64796E35 		.ascii	"dyn5\000"
  42      00
  43 0035 000000   		.align	2
  44              	.LC9:
  45 0038 4500     		.ascii	"E\000"
  46 003a 0000     		.align	2
  47              	.LC10:
  48 003c 74687265 		.ascii	"thread creation failed\000"
  48      61642063 
  48      72656174 
  48      696F6E20 
  48      6661696C 
ARM GAS  /tmp/ccVafpDf.s 			page 2


  49 0053 00       		.align	2
  50              	.LC11:
  51 0054 74687265 		.ascii	"thread creation not failed\000"
  51      61642063 
  51      72656174 
  51      696F6E20 
  51      6E6F7420 
  52 006f 00       		.align	2
  53              	.LC12:
  54 0070 696E7661 		.ascii	"invalid sequence\000"
  54      6C696420 
  54      73657175 
  54      656E6365 
  54      00
  55 0081 000000   		.align	2
  56              	.LC13:
  57 0084 41424344 		.ascii	"ABCD\000"
  57      00
  58 0089 000000   		.align	2
  59              	.LC14:
  60 008c 706F6F6C 		.ascii	"pool list empty\000"
  60      206C6973 
  60      7420656D 
  60      70747900 
  61              		.align	2
  62              	.LC15:
  63 009c 706F6F6C 		.ascii	"pool list not empty\000"
  63      206C6973 
  63      74206E6F 
  63      7420656D 
  63      70747900 
  64              		.section	.text.rt_test_011_002_execute,"ax",%progbits
  65              		.align	1
  66              		.p2align 4,,15
  67              		.arch armv7e-m
  68              		.syntax unified
  69              		.thumb
  70              		.thumb_func
  71              		.fpu softvfp
  72              		.type	rt_test_011_002_execute, %function
  73              	rt_test_011_002_execute:
  74              	.LFB408:
  75              		.file 1 "../ChibiOS/test/rt/source/test/rt_test_sequence_011.c"
  76              		.loc 1 209 43 view -0
  77              		.cfi_startproc
  78              		@ args = 0, pretend = 0, frame = 0
  79              		@ frame_needed = 0, uses_anonymous_args = 0
  80              		.loc 1 210 3 view .LVU1
  81              		.loc 1 211 3 view .LVU2
  82              		.loc 1 214 3 view .LVU3
  83              		.loc 1 209 43 is_stmt 0 view .LVU4
  84 0000 F0B5     		push	{r4, r5, r6, r7, lr}
  85              		.cfi_def_cfa_offset 20
  86              		.cfi_offset 4, -20
  87              		.cfi_offset 5, -16
  88              		.cfi_offset 6, -12
  89              		.cfi_offset 7, -8
ARM GAS  /tmp/ccVafpDf.s 			page 3


  90              		.cfi_offset 14, -4
  91              		.loc 1 214 3 view .LVU5
  92 0002 444D     		ldr	r5, .L16
  93 0004 444C     		ldr	r4, .L16+4
  94              		.loc 1 217 7 view .LVU6
  95 0006 454F     		ldr	r7, .L16+8
  96              		.loc 1 214 3 view .LVU7
  97 0008 0123     		movs	r3, #1
  98              		.loc 1 209 43 view .LVU8
  99 000a 83B0     		sub	sp, sp, #12
 100              		.cfi_def_cfa_offset 32
 101              		.loc 1 214 3 view .LVU9
 102 000c 2B60     		str	r3, [r5]
 103              		.loc 1 216 5 is_stmt 1 view .LVU10
 104              	.LVL0:
 105              		.loc 1 216 17 view .LVU11
 106 000e 04F11006 		add	r6, r4, #16
 107              	.LVL1:
 108              	.L2:
 109              		.loc 1 217 7 discriminator 3 view .LVU12
 110 0012 54F8041B 		ldr	r1, [r4], #4
 111 0016 3846     		mov	r0, r7
 112 0018 FFF7FEFF 		bl	chPoolFree
 113              	.LVL2:
 114              		.loc 1 216 24 discriminator 3 view .LVU13
 115              		.loc 1 216 17 discriminator 3 view .LVU14
 116              		.loc 1 216 5 is_stmt 0 discriminator 3 view .LVU15
 117 001c A642     		cmp	r6, r4
 118 001e F8D1     		bne	.L2
 119              		.loc 1 219 3 is_stmt 1 view .LVU16
 120              		.loc 1 219 19 view .LVU17
 121              		.loc 1 222 3 view .LVU18
 122              		.loc 1 224 5 view .LVU19
 123              	.LBB14:
 124              	.LBI14:
 125              		.file 2 "../ChibiOS/os/rt/include/chthreads.h"
 126              		.loc 2 354 23 view .LVU20
 127              	.LBB15:
 128              		.loc 2 356 3 view .LVU21
 129              	.LBB16:
 130              	.LBI16:
 131              		.loc 2 341 25 view .LVU22
 132              	.LBB17:
 133              		.loc 2 343 3 view .LVU23
 134              		.loc 2 343 10 is_stmt 0 view .LVU24
 135 0020 3F4B     		ldr	r3, .L16+12
 136              	.LBE17:
 137              	.LBE16:
 138              	.LBE15:
 139              	.LBE14:
 140              		.loc 1 231 18 view .LVU25
 141 0022 404A     		ldr	r2, .L16+16
 142              	.LBB20:
 143              	.LBB18:
 144              		.loc 2 356 37 view .LVU26
 145 0024 D968     		ldr	r1, [r3, #12]
 146              	.LBE18:
ARM GAS  /tmp/ccVafpDf.s 			page 4


 147              	.LBE20:
 148              		.loc 1 231 18 view .LVU27
 149 0026 3D48     		ldr	r0, .L16+8
 150              	.LBB21:
 151              	.LBB19:
 152              		.loc 2 356 37 view .LVU28
 153 0028 8E68     		ldr	r6, [r1, #8]
 154              	.LVL3:
 155              		.loc 2 356 37 view .LVU29
 156              	.LBE19:
 157              	.LBE21:
 158              		.loc 1 226 3 is_stmt 1 view .LVU30
 159              		.loc 1 226 19 view .LVU31
 160              		.loc 1 229 3 view .LVU32
 161              		.loc 1 231 18 is_stmt 0 view .LVU33
 162 002a 3F4B     		ldr	r3, .L16+20
 163 002c 0092     		str	r2, [sp]
 164              		.loc 1 229 3 view .LVU34
 165 002e 0321     		movs	r1, #3
 166              		.loc 1 231 18 view .LVU35
 167 0030 721E     		subs	r2, r6, #1
 168              		.loc 1 229 3 view .LVU36
 169 0032 2960     		str	r1, [r5]
 170              		.loc 1 231 5 is_stmt 1 view .LVU37
 171              		.loc 1 231 18 is_stmt 0 view .LVU38
 172 0034 3D49     		ldr	r1, .L16+24
 173              		.loc 1 231 16 view .LVU39
 174 0036 3E4C     		ldr	r4, .L16+28
 175              		.loc 1 231 18 view .LVU40
 176 0038 FFF7FEFF 		bl	chThdCreateFromMemoryPool
 177              	.LVL4:
 178              		.loc 1 232 18 view .LVU41
 179 003c 3D4B     		ldr	r3, .L16+32
 180 003e 0093     		str	r3, [sp]
 181 0040 3D49     		ldr	r1, .L16+36
 182 0042 394B     		ldr	r3, .L16+20
 183              		.loc 1 231 16 view .LVU42
 184 0044 2060     		str	r0, [r4]
 185              		.loc 1 232 5 is_stmt 1 view .LVU43
 186              		.loc 1 232 18 is_stmt 0 view .LVU44
 187 0046 B21E     		subs	r2, r6, #2
 188 0048 3448     		ldr	r0, .L16+8
 189 004a FFF7FEFF 		bl	chThdCreateFromMemoryPool
 190              	.LVL5:
 191              		.loc 1 233 18 view .LVU45
 192 004e 3B4B     		ldr	r3, .L16+40
 193 0050 0093     		str	r3, [sp]
 194 0052 3B49     		ldr	r1, .L16+44
 195 0054 344B     		ldr	r3, .L16+20
 196              		.loc 1 232 16 view .LVU46
 197 0056 6060     		str	r0, [r4, #4]
 198              		.loc 1 233 5 is_stmt 1 view .LVU47
 199              		.loc 1 233 18 is_stmt 0 view .LVU48
 200 0058 F21E     		subs	r2, r6, #3
 201 005a 3048     		ldr	r0, .L16+8
 202 005c FFF7FEFF 		bl	chThdCreateFromMemoryPool
 203              	.LVL6:
ARM GAS  /tmp/ccVafpDf.s 			page 5


 204              		.loc 1 234 18 view .LVU49
 205 0060 384B     		ldr	r3, .L16+48
 206 0062 0093     		str	r3, [sp]
 207 0064 3849     		ldr	r1, .L16+52
 208 0066 304B     		ldr	r3, .L16+20
 209              		.loc 1 233 16 view .LVU50
 210 0068 A060     		str	r0, [r4, #8]
 211              		.loc 1 234 5 is_stmt 1 view .LVU51
 212              		.loc 1 234 18 is_stmt 0 view .LVU52
 213 006a 321F     		subs	r2, r6, #4
 214 006c 2B48     		ldr	r0, .L16+8
 215 006e FFF7FEFF 		bl	chThdCreateFromMemoryPool
 216              	.LVL7:
 217              		.loc 1 235 18 view .LVU53
 218 0072 364B     		ldr	r3, .L16+56
 219 0074 0093     		str	r3, [sp]
 220 0076 721F     		subs	r2, r6, #5
 221 0078 2B4B     		ldr	r3, .L16+20
 222              		.loc 1 234 16 view .LVU54
 223 007a E060     		str	r0, [r4, #12]
 224              		.loc 1 235 5 is_stmt 1 view .LVU55
 225              		.loc 1 235 18 is_stmt 0 view .LVU56
 226 007c 3449     		ldr	r1, .L16+60
 227 007e 2748     		ldr	r0, .L16+8
 228 0080 FFF7FEFF 		bl	chThdCreateFromMemoryPool
 229              	.LVL8:
 230              		.loc 1 242 5 view .LVU57
 231 0084 2368     		ldr	r3, [r4]
 232              		.loc 1 235 16 view .LVU58
 233 0086 2061     		str	r0, [r4, #16]
 234              		.loc 1 237 3 is_stmt 1 view .LVU59
 235              		.loc 1 237 19 view .LVU60
 236              		.loc 1 240 3 view .LVU61
 237 0088 0422     		movs	r2, #4
 238 008a 2A60     		str	r2, [r5]
 239              		.loc 1 242 5 view .LVU62
 240 008c 002B     		cmp	r3, #0
 241 008e 3ED0     		beq	.L8
 242              		.loc 1 242 5 is_stmt 0 discriminator 1 view .LVU63
 243 0090 6068     		ldr	r0, [r4, #4]
 244 0092 28B1     		cbz	r0, .L3
 245              		.loc 1 242 5 discriminator 3 view .LVU64
 246 0094 A068     		ldr	r0, [r4, #8]
 247 0096 18B1     		cbz	r0, .L3
 248              		.loc 1 242 5 discriminator 5 view .LVU65
 249 0098 E068     		ldr	r0, [r4, #12]
 250 009a 0038     		subs	r0, r0, #0
 251 009c 18BF     		it	ne
 252 009e 0120     		movne	r0, #1
 253              	.L3:
 254              		.loc 1 242 5 discriminator 10 view .LVU66
 255 00a0 2C49     		ldr	r1, .L16+64
 256 00a2 FFF7FEFF 		bl	__test_assert
 257              	.LVL9:
 258 00a6 08B1     		cbz	r0, .L15
 259              	.LVL10:
 260              	.L1:
ARM GAS  /tmp/ccVafpDf.s 			page 6


 261              		.loc 1 269 1 view .LVU67
 262 00a8 03B0     		add	sp, sp, #12
 263              		.cfi_remember_state
 264              		.cfi_def_cfa_offset 20
 265              		@ sp needed
 266 00aa F0BD     		pop	{r4, r5, r6, r7, pc}
 267              	.LVL11:
 268              	.L15:
 269              		.cfi_restore_state
 270              		.loc 1 246 42 is_stmt 1 view .LVU68
 271              		.loc 1 247 5 view .LVU69
 272 00ac 2069     		ldr	r0, [r4, #16]
 273 00ae 2A49     		ldr	r1, .L16+68
 274 00b0 B0FA80F0 		clz	r0, r0
 275 00b4 4009     		lsrs	r0, r0, #5
 276 00b6 FFF7FEFF 		bl	__test_assert
 277              	.LVL12:
 278 00ba 0028     		cmp	r0, #0
 279 00bc F4D1     		bne	.L1
 280              		.loc 1 248 46 view .LVU70
 281              		.loc 1 250 3 view .LVU71
 282              		.loc 1 250 19 view .LVU72
 283              		.loc 1 254 3 view .LVU73
 284 00be 0523     		movs	r3, #5
 285 00c0 2B60     		str	r3, [r5]
 286              		.loc 1 256 5 view .LVU74
 287 00c2 FFF7FEFF 		bl	test_wait_threads
 288              	.LVL13:
 289              		.loc 1 257 5 view .LVU75
 290 00c6 2549     		ldr	r1, .L16+72
 291 00c8 2548     		ldr	r0, .L16+76
 292 00ca FFF7FEFF 		bl	__test_assert_sequence
 293              	.LVL14:
 294 00ce 0028     		cmp	r0, #0
 295 00d0 EAD1     		bne	.L1
 296              		.loc 1 257 53 discriminator 2 view .LVU76
 297              		.loc 1 259 3 discriminator 2 view .LVU77
 298              		.loc 1 259 19 discriminator 2 view .LVU78
 299              		.loc 1 262 3 discriminator 2 view .LVU79
 300 00d2 0623     		movs	r3, #6
 301              		.loc 1 265 7 is_stmt 0 discriminator 2 view .LVU80
 302 00d4 114F     		ldr	r7, .L16+8
 303 00d6 234E     		ldr	r6, .L16+80
 304              	.LVL15:
 305              		.loc 1 262 3 discriminator 2 view .LVU81
 306 00d8 2B60     		str	r3, [r5]
 307              		.loc 1 264 5 is_stmt 1 discriminator 2 view .LVU82
 308              	.LVL16:
 309              		.loc 1 264 17 discriminator 2 view .LVU83
 310              		.loc 1 262 3 is_stmt 0 discriminator 2 view .LVU84
 311 00da 0424     		movs	r4, #4
 312              	.LVL17:
 313              	.L7:
 314              		.loc 1 265 7 is_stmt 1 view .LVU85
 315 00dc 3846     		mov	r0, r7
 316 00de FFF7FEFF 		bl	chPoolAlloc
 317              	.LVL18:
ARM GAS  /tmp/ccVafpDf.s 			page 7


 318 00e2 0038     		subs	r0, r0, #0
 319 00e4 18BF     		it	ne
 320 00e6 0120     		movne	r0, #1
 321 00e8 3146     		mov	r1, r6
 322 00ea FFF7FEFF 		bl	__test_assert
 323              	.LVL19:
 324              		.loc 1 264 24 view .LVU86
 325              		.loc 1 264 17 view .LVU87
 326              		.loc 1 265 7 is_stmt 0 view .LVU88
 327 00ee 0028     		cmp	r0, #0
 328 00f0 DAD1     		bne	.L1
 329              		.loc 1 264 5 discriminator 2 view .LVU89
 330 00f2 013C     		subs	r4, r4, #1
 331              	.LVL20:
 332              		.loc 1 264 5 discriminator 2 view .LVU90
 333 00f4 F2D1     		bne	.L7
 334              		.loc 1 265 64 is_stmt 1 view .LVU91
 335              		.loc 1 266 5 view .LVU92
 336 00f6 0948     		ldr	r0, .L16+8
 337 00f8 FFF7FEFF 		bl	chPoolAlloc
 338              	.LVL21:
 339 00fc 1A49     		ldr	r1, .L16+84
 340 00fe B0FA80F0 		clz	r0, r0
 341 0102 4009     		lsrs	r0, r0, #5
 342              		.loc 1 269 1 is_stmt 0 view .LVU93
 343 0104 03B0     		add	sp, sp, #12
 344              		.cfi_remember_state
 345              		.cfi_def_cfa_offset 20
 346              		@ sp needed
 347 0106 BDE8F040 		pop	{r4, r5, r6, r7, lr}
 348              		.cfi_restore 14
 349              		.cfi_restore 7
 350              		.cfi_restore 6
 351              		.cfi_restore 5
 352              		.cfi_restore 4
 353              		.cfi_def_cfa_offset 0
 354              	.LVL22:
 355              		.loc 1 266 5 view .LVU94
 356 010a FFF7FEBF 		b	__test_assert
 357              	.LVL23:
 358              	.L8:
 359              		.cfi_restore_state
 360              		.loc 1 266 5 view .LVU95
 361 010e 1846     		mov	r0, r3
 362 0110 C6E7     		b	.L3
 363              	.L17:
 364 0112 00BF     		.align	2
 365              	.L16:
 366 0114 00000000 		.word	chtest
 367 0118 00000000 		.word	wa
 368 011c 00000000 		.word	.LANCHOR0
 369 0120 00000000 		.word	ch0
 370 0124 08000000 		.word	.LC1
 371 0128 00000000 		.word	dyn_thread1
 372 012c 00000000 		.word	.LC0
 373 0130 00000000 		.word	threads
 374 0134 14000000 		.word	.LC3
ARM GAS  /tmp/ccVafpDf.s 			page 8


 375 0138 0C000000 		.word	.LC2
 376 013c 20000000 		.word	.LC5
 377 0140 18000000 		.word	.LC4
 378 0144 2C000000 		.word	.LC7
 379 0148 24000000 		.word	.LC6
 380 014c 38000000 		.word	.LC9
 381 0150 30000000 		.word	.LC8
 382 0154 3C000000 		.word	.LC10
 383 0158 54000000 		.word	.LC11
 384 015c 70000000 		.word	.LC12
 385 0160 84000000 		.word	.LC13
 386 0164 8C000000 		.word	.LC14
 387 0168 9C000000 		.word	.LC15
 388              		.cfi_endproc
 389              	.LFE408:
 390              		.size	rt_test_011_002_execute, .-rt_test_011_002_execute
 391              		.section	.text.dyn_thread1,"ax",%progbits
 392              		.align	1
 393              		.p2align 4,,15
 394              		.syntax unified
 395              		.thumb
 396              		.thumb_func
 397              		.fpu softvfp
 398              		.type	dyn_thread1, %function
 399              	dyn_thread1:
 400              	.LVL24:
 401              	.LFB404:
 402              		.loc 1 57 37 is_stmt 1 view -0
 403              		.cfi_startproc
 404              		@ args = 0, pretend = 0, frame = 0
 405              		@ frame_needed = 0, uses_anonymous_args = 0
 406              		@ link register save eliminated.
 407              		.loc 1 59 3 view .LVU97
 408 0000 0078     		ldrb	r0, [r0]	@ zero_extendqisi2
 409              	.LVL25:
 410              		.loc 1 59 3 is_stmt 0 view .LVU98
 411 0002 FFF7FEBF 		b	test_emit_token
 412              	.LVL26:
 413              		.cfi_endproc
 414              	.LFE404:
 415              		.size	dyn_thread1, .-dyn_thread1
 416 0006 00BF     		.section	.text.rt_test_011_002_setup,"ax",%progbits
 417              		.align	1
 418              		.p2align 4,,15
 419              		.syntax unified
 420              		.thumb
 421              		.thumb_func
 422              		.fpu softvfp
 423              		.type	rt_test_011_002_setup, %function
 424              	rt_test_011_002_setup:
 425              	.LFB407:
 426              		.loc 1 205 41 is_stmt 1 view -0
 427              		.cfi_startproc
 428              		@ args = 0, pretend = 0, frame = 0
 429              		@ frame_needed = 0, uses_anonymous_args = 0
 430              		@ link register save eliminated.
 431              		.loc 1 206 3 view .LVU100
ARM GAS  /tmp/ccVafpDf.s 			page 9


 432              	.LVL27:
 433              	.LBB22:
 434              	.LBI22:
 435              		.file 3 "../ChibiOS/os/oslib/include/chmempools.h"
 436              		.loc 3 189 20 view .LVU101
 437              	.LBB23:
 438              		.loc 3 193 3 view .LVU102
 439 0000 0348     		ldr	r0, .L20
 440 0002 0023     		movs	r3, #0
 441 0004 0422     		movs	r2, #4
 442 0006 4FF4B871 		mov	r1, #368
 443 000a FFF7FEBF 		b	chPoolObjectInitAligned
 444              	.LVL28:
 445              	.L21:
 446 000e 00BF     		.align	2
 447              	.L20:
 448 0010 00000000 		.word	.LANCHOR0
 449              	.LBE23:
 450              	.LBE22:
 451              		.cfi_endproc
 452              	.LFE407:
 453              		.size	rt_test_011_002_setup, .-rt_test_011_002_setup
 454              		.section	.rodata.rt_test_011_001_execute.str1.4,"aMS",%progbits,1
 455              		.align	2
 456              	.LC16:
 457 0000 68656170 		.ascii	"heap fragmented\000"
 457      20667261 
 457      676D656E 
 457      74656400 
 458              		.align	2
 459              	.LC17:
 460 0010 414200   		.ascii	"AB\000"
 461 0013 00       		.align	2
 462              	.LC18:
 463 0014 66726167 		.ascii	"fragmentation changed\000"
 463      6D656E74 
 463      6174696F 
 463      6E206368 
 463      616E6765 
 464 002a 0000     		.align	2
 465              	.LC19:
 466 002c 746F7461 		.ascii	"total free space changed\000"
 466      6C206672 
 466      65652073 
 466      70616365 
 466      20636861 
 467 0045 000000   		.align	2
 468              	.LC20:
 469 0048 6C617267 		.ascii	"largest fragment size changed\000"
 469      65737420 
 469      66726167 
 469      6D656E74 
 469      2073697A 
 470              		.section	.text.rt_test_011_001_execute,"ax",%progbits
 471              		.align	1
 472              		.p2align 4,,15
 473              		.syntax unified
ARM GAS  /tmp/ccVafpDf.s 			page 10


 474              		.thumb
 475              		.thumb_func
 476              		.fpu softvfp
 477              		.type	rt_test_011_001_execute, %function
 478              	rt_test_011_001_execute:
 479              	.LFB406:
 480              		.loc 1 98 43 view -0
 481              		.cfi_startproc
 482              		@ args = 0, pretend = 0, frame = 16
 483              		@ frame_needed = 0, uses_anonymous_args = 0
 484              		.loc 1 99 3 view .LVU104
 485              		.loc 1 100 3 view .LVU105
 486              		.loc 1 101 3 view .LVU106
 487              		.loc 1 104 3 view .LVU107
 488              		.loc 1 106 5 view .LVU108
 489              	.LBB24:
 490              	.LBI24:
 491              		.loc 2 354 23 view .LVU109
 492              	.LBB25:
 493              		.loc 2 356 3 view .LVU110
 494              	.LBB26:
 495              	.LBI26:
 496              		.loc 2 341 25 view .LVU111
 497              	.LBB27:
 498              		.loc 2 343 3 view .LVU112
 499              	.LBE27:
 500              	.LBE26:
 501              	.LBE25:
 502              	.LBE24:
 503              		.loc 1 98 43 is_stmt 0 view .LVU113
 504 0000 2DE9F041 		push	{r4, r5, r6, r7, r8, lr}
 505              		.cfi_def_cfa_offset 24
 506              		.cfi_offset 4, -24
 507              		.cfi_offset 5, -20
 508              		.cfi_offset 6, -16
 509              		.cfi_offset 7, -12
 510              		.cfi_offset 8, -8
 511              		.cfi_offset 14, -4
 512              	.LBB33:
 513              	.LBB30:
 514              	.LBB29:
 515              	.LBB28:
 516              		.loc 2 343 10 view .LVU114
 517 0004 474B     		ldr	r3, .L28
 518              	.LBE28:
 519              	.LBE29:
 520              	.LBE30:
 521              	.LBE33:
 522              		.loc 1 111 3 view .LVU115
 523 0006 484D     		ldr	r5, .L28+4
 524              	.LBB34:
 525              	.LBB31:
 526              		.loc 2 356 37 view .LVU116
 527 0008 DB68     		ldr	r3, [r3, #12]
 528              	.LBE31:
 529              	.LBE34:
 530              		.loc 1 113 10 view .LVU117
ARM GAS  /tmp/ccVafpDf.s 			page 11


 531 000a 4848     		ldr	r0, .L28+8
 532              	.LBB35:
 533              	.LBB32:
 534              		.loc 2 356 37 view .LVU118
 535 000c 9E68     		ldr	r6, [r3, #8]
 536              	.LVL29:
 537              		.loc 2 356 37 view .LVU119
 538              	.LBE32:
 539              	.LBE35:
 540              		.loc 1 108 3 is_stmt 1 view .LVU120
 541              		.loc 1 108 19 view .LVU121
 542              		.loc 1 111 3 view .LVU122
 543              		.loc 1 113 5 view .LVU123
 544              		.loc 1 98 43 is_stmt 0 view .LVU124
 545 000e 86B0     		sub	sp, sp, #24
 546              		.cfi_def_cfa_offset 48
 547              		.loc 1 113 10 view .LVU125
 548 0010 02A9     		add	r1, sp, #8
 549              		.loc 1 111 3 view .LVU126
 550 0012 0224     		movs	r4, #2
 551              		.loc 1 113 10 view .LVU127
 552 0014 03AA     		add	r2, sp, #12
 553              		.loc 1 111 3 view .LVU128
 554 0016 2C60     		str	r4, [r5]
 555              		.loc 1 113 10 view .LVU129
 556 0018 FFF7FEFF 		bl	chHeapStatus
 557              	.LVL30:
 558 001c 0446     		mov	r4, r0
 559              	.LVL31:
 560              		.loc 1 114 5 is_stmt 1 view .LVU130
 561 001e A0F10100 		sub	r0, #1
 562              	.LVL32:
 563              		.loc 1 114 5 is_stmt 0 view .LVU131
 564 0022 B0FA80F0 		clz	r0, r0
 565 0026 4249     		ldr	r1, .L28+12
 566 0028 4009     		lsrs	r0, r0, #5
 567 002a FFF7FEFF 		bl	__test_assert
 568              	.LVL33:
 569 002e 10B1     		cbz	r0, .L27
 570              	.LVL34:
 571              	.L22:
 572              		.loc 1 169 1 view .LVU132
 573 0030 06B0     		add	sp, sp, #24
 574              		.cfi_remember_state
 575              		.cfi_def_cfa_offset 24
 576              		@ sp needed
 577 0032 BDE8F081 		pop	{r4, r5, r6, r7, r8, pc}
 578              	.LVL35:
 579              	.L27:
 580              		.cfi_restore_state
 581              		.loc 1 114 44 is_stmt 1 discriminator 2 view .LVU133
 582              		.loc 1 116 3 discriminator 2 view .LVU134
 583              		.loc 1 116 19 discriminator 2 view .LVU135
 584              		.loc 1 119 3 discriminator 2 view .LVU136
 585              		.loc 1 121 18 is_stmt 0 discriminator 2 view .LVU137
 586 0036 3F4A     		ldr	r2, .L28+16
 587 0038 DFF8FC80 		ldr	r8, .L28+20
ARM GAS  /tmp/ccVafpDf.s 			page 12


 588 003c 0192     		str	r2, [sp, #4]
 589              		.loc 1 119 3 discriminator 2 view .LVU138
 590 003e 0323     		movs	r3, #3
 591 0040 2B60     		str	r3, [r5]
 592              		.loc 1 121 5 is_stmt 1 discriminator 2 view .LVU139
 593              		.loc 1 121 18 is_stmt 0 discriminator 2 view .LVU140
 594 0042 4FF4B871 		mov	r1, #368
 595 0046 3D4A     		ldr	r2, .L28+24
 596 0048 3848     		ldr	r0, .L28+8
 597 004a CDF80080 		str	r8, [sp]
 598 004e 731E     		subs	r3, r6, #1
 599 0050 FFF7FEFF 		bl	chThdCreateFromHeap
 600              	.LVL36:
 601              		.loc 1 121 16 discriminator 2 view .LVU141
 602 0054 3A4F     		ldr	r7, .L28+28
 603              		.loc 1 125 5 discriminator 2 view .LVU142
 604 0056 3B49     		ldr	r1, .L28+32
 605              		.loc 1 121 16 discriminator 2 view .LVU143
 606 0058 3860     		str	r0, [r7]
 607              		.loc 1 125 5 is_stmt 1 discriminator 2 view .LVU144
 608 005a 0038     		subs	r0, r0, #0
 609 005c 18BF     		it	ne
 610 005e 0120     		movne	r0, #1
 611 0060 FFF7FEFF 		bl	__test_assert
 612              	.LVL37:
 613 0064 0028     		cmp	r0, #0
 614 0066 E3D1     		bne	.L22
 615              		.loc 1 125 62 discriminator 2 view .LVU145
 616              		.loc 1 127 3 discriminator 2 view .LVU146
 617              		.loc 1 127 19 discriminator 2 view .LVU147
 618              		.loc 1 130 3 discriminator 2 view .LVU148
 619              		.loc 1 132 18 is_stmt 0 discriminator 2 view .LVU149
 620 0068 374B     		ldr	r3, .L28+36
 621 006a 0193     		str	r3, [sp, #4]
 622 006c 4FF4B871 		mov	r1, #368
 623              		.loc 1 130 3 discriminator 2 view .LVU150
 624 0070 4FF0040C 		mov	ip, #4
 625              		.loc 1 132 18 discriminator 2 view .LVU151
 626 0074 354A     		ldr	r2, .L28+40
 627 0076 2D48     		ldr	r0, .L28+8
 628 0078 CDF80080 		str	r8, [sp]
 629 007c B31E     		subs	r3, r6, #2
 630              		.loc 1 130 3 discriminator 2 view .LVU152
 631 007e C5F800C0 		str	ip, [r5]
 632              		.loc 1 132 5 is_stmt 1 discriminator 2 view .LVU153
 633              		.loc 1 132 18 is_stmt 0 discriminator 2 view .LVU154
 634 0082 FFF7FEFF 		bl	chThdCreateFromHeap
 635              	.LVL38:
 636              		.loc 1 132 16 discriminator 2 view .LVU155
 637 0086 7860     		str	r0, [r7, #4]
 638              		.loc 1 136 5 is_stmt 1 discriminator 2 view .LVU156
 639 0088 0038     		subs	r0, r0, #0
 640 008a 18BF     		it	ne
 641 008c 0120     		movne	r0, #1
 642 008e 2D49     		ldr	r1, .L28+32
 643 0090 FFF7FEFF 		bl	__test_assert
 644              	.LVL39:
ARM GAS  /tmp/ccVafpDf.s 			page 13


 645 0094 0028     		cmp	r0, #0
 646 0096 CBD1     		bne	.L22
 647              		.loc 1 136 62 discriminator 2 view .LVU157
 648              		.loc 1 138 3 discriminator 2 view .LVU158
 649              		.loc 1 138 19 discriminator 2 view .LVU159
 650              		.loc 1 141 3 discriminator 2 view .LVU160
 651              		.loc 1 143 18 is_stmt 0 discriminator 2 view .LVU161
 652 0098 2D49     		ldr	r1, .L28+44
 653 009a 0191     		str	r1, [sp, #4]
 654 009c F31E     		subs	r3, r6, #3
 655 009e 4FF00041 		mov	r1, #-2147483648
 656              		.loc 1 141 3 discriminator 2 view .LVU162
 657 00a2 0526     		movs	r6, #5
 658              	.LVL40:
 659              		.loc 1 143 18 discriminator 2 view .LVU163
 660 00a4 2B4A     		ldr	r2, .L28+48
 661 00a6 2148     		ldr	r0, .L28+8
 662 00a8 CDF80080 		str	r8, [sp]
 663              		.loc 1 141 3 discriminator 2 view .LVU164
 664 00ac 2E60     		str	r6, [r5]
 665              		.loc 1 143 5 is_stmt 1 discriminator 2 view .LVU165
 666              		.loc 1 143 18 is_stmt 0 discriminator 2 view .LVU166
 667 00ae FFF7FEFF 		bl	chThdCreateFromHeap
 668              	.LVL41:
 669              		.loc 1 143 18 discriminator 2 view .LVU167
 670 00b2 0346     		mov	r3, r0
 671              		.loc 1 147 5 discriminator 2 view .LVU168
 672 00b4 B0FA80F0 		clz	r0, r0
 673 00b8 2749     		ldr	r1, .L28+52
 674              		.loc 1 143 16 discriminator 2 view .LVU169
 675 00ba BB60     		str	r3, [r7, #8]
 676              		.loc 1 147 5 is_stmt 1 discriminator 2 view .LVU170
 677 00bc F040     		lsrs	r0, r0, r6
 678 00be FFF7FEFF 		bl	__test_assert
 679              	.LVL42:
 680 00c2 0028     		cmp	r0, #0
 681 00c4 B4D1     		bne	.L22
 682              		.loc 1 147 66 discriminator 2 view .LVU171
 683              		.loc 1 149 3 discriminator 2 view .LVU172
 684              		.loc 1 149 19 discriminator 2 view .LVU173
 685              		.loc 1 153 3 discriminator 2 view .LVU174
 686 00c6 0623     		movs	r3, #6
 687 00c8 2B60     		str	r3, [r5]
 688              		.loc 1 155 5 discriminator 2 view .LVU175
 689 00ca FFF7FEFF 		bl	test_wait_threads
 690              	.LVL43:
 691              		.loc 1 156 5 discriminator 2 view .LVU176
 692 00ce 2349     		ldr	r1, .L28+56
 693 00d0 2348     		ldr	r0, .L28+60
 694 00d2 FFF7FEFF 		bl	__test_assert_sequence
 695              	.LVL44:
 696 00d6 0028     		cmp	r0, #0
 697 00d8 AAD1     		bne	.L22
 698              		.loc 1 156 51 discriminator 2 view .LVU177
 699              		.loc 1 158 3 discriminator 2 view .LVU178
 700              		.loc 1 158 19 discriminator 2 view .LVU179
 701              		.loc 1 161 3 discriminator 2 view .LVU180
ARM GAS  /tmp/ccVafpDf.s 			page 14


 702              		.loc 1 163 10 is_stmt 0 discriminator 2 view .LVU181
 703 00da 04A9     		add	r1, sp, #16
 704              		.loc 1 161 3 discriminator 2 view .LVU182
 705 00dc 0723     		movs	r3, #7
 706              		.loc 1 163 10 discriminator 2 view .LVU183
 707 00de 1348     		ldr	r0, .L28+8
 708              		.loc 1 161 3 discriminator 2 view .LVU184
 709 00e0 2B60     		str	r3, [r5]
 710              		.loc 1 163 5 is_stmt 1 discriminator 2 view .LVU185
 711              		.loc 1 163 10 is_stmt 0 discriminator 2 view .LVU186
 712 00e2 05AA     		add	r2, sp, #20
 713 00e4 FFF7FEFF 		bl	chHeapStatus
 714              	.LVL45:
 715              		.loc 1 164 5 is_stmt 1 discriminator 2 view .LVU187
 716 00e8 201A     		subs	r0, r4, r0
 717              	.LVL46:
 718              		.loc 1 164 5 is_stmt 0 discriminator 2 view .LVU188
 719 00ea B0FA80F0 		clz	r0, r0
 720 00ee 1D49     		ldr	r1, .L28+64
 721 00f0 4009     		lsrs	r0, r0, #5
 722 00f2 FFF7FEFF 		bl	__test_assert
 723              	.LVL47:
 724 00f6 0028     		cmp	r0, #0
 725 00f8 9AD1     		bne	.L22
 726              		.loc 1 164 51 is_stmt 1 discriminator 2 view .LVU189
 727              		.loc 1 165 5 discriminator 2 view .LVU190
 728 00fa 0298     		ldr	r0, [sp, #8]
 729 00fc 049B     		ldr	r3, [sp, #16]
 730 00fe 1A49     		ldr	r1, .L28+68
 731 0100 C01A     		subs	r0, r0, r3
 732 0102 B0FA80F0 		clz	r0, r0
 733 0106 4009     		lsrs	r0, r0, #5
 734 0108 FFF7FEFF 		bl	__test_assert
 735              	.LVL48:
 736 010c 0028     		cmp	r0, #0
 737 010e 8FD1     		bne	.L22
 738              		.loc 1 165 62 discriminator 2 view .LVU191
 739              		.loc 1 166 5 discriminator 2 view .LVU192
 740 0110 0398     		ldr	r0, [sp, #12]
 741 0112 059B     		ldr	r3, [sp, #20]
 742 0114 1549     		ldr	r1, .L28+72
 743 0116 C01A     		subs	r0, r0, r3
 744 0118 B0FA80F0 		clz	r0, r0
 745 011c 4009     		lsrs	r0, r0, #5
 746 011e FFF7FEFF 		bl	__test_assert
 747              	.LVL49:
 748              		.loc 1 166 5 discriminator 2 view .LVU193
 749 0122 85E7     		b	.L22
 750              	.L29:
 751              		.align	2
 752              	.L28:
 753 0124 00000000 		.word	ch0
 754 0128 00000000 		.word	chtest
 755 012c 00000000 		.word	.LANCHOR1
 756 0130 00000000 		.word	.LC16
 757 0134 08000000 		.word	.LC1
 758 0138 00000000 		.word	dyn_thread1
ARM GAS  /tmp/ccVafpDf.s 			page 15


 759 013c 00000000 		.word	.LC0
 760 0140 00000000 		.word	threads
 761 0144 3C000000 		.word	.LC10
 762 0148 14000000 		.word	.LC3
 763 014c 0C000000 		.word	.LC2
 764 0150 20000000 		.word	.LC5
 765 0154 18000000 		.word	.LC4
 766 0158 54000000 		.word	.LC11
 767 015c 70000000 		.word	.LC12
 768 0160 10000000 		.word	.LC17
 769 0164 14000000 		.word	.LC18
 770 0168 2C000000 		.word	.LC19
 771 016c 48000000 		.word	.LC20
 772              		.cfi_endproc
 773              	.LFE406:
 774              		.size	rt_test_011_001_execute, .-rt_test_011_001_execute
 775              		.section	.text.rt_test_011_001_setup,"ax",%progbits
 776              		.align	1
 777              		.p2align 4,,15
 778              		.syntax unified
 779              		.thumb
 780              		.thumb_func
 781              		.fpu softvfp
 782              		.type	rt_test_011_001_setup, %function
 783              	rt_test_011_001_setup:
 784              	.LFB405:
 785              		.loc 1 94 41 view -0
 786              		.cfi_startproc
 787              		@ args = 0, pretend = 0, frame = 0
 788              		@ frame_needed = 0, uses_anonymous_args = 0
 789              		@ link register save eliminated.
 790              		.loc 1 95 3 view .LVU195
 791 0000 0249     		ldr	r1, .L31
 792 0002 0348     		ldr	r0, .L31+4
 793 0004 4FF4E662 		mov	r2, #1840
 794 0008 FFF7FEBF 		b	chHeapObjectInit
 795              	.LVL50:
 796              	.L32:
 797              		.align	2
 798              	.L31:
 799 000c 00000000 		.word	test_buffer
 800 0010 00000000 		.word	.LANCHOR1
 801              		.cfi_endproc
 802              	.LFE405:
 803              		.size	rt_test_011_001_setup, .-rt_test_011_001_setup
 804              		.global	rt_test_sequence_011
 805              		.section	.rodata.str1.4,"aMS",%progbits,1
 806              		.align	2
 807              	.LC21:
 808 0000 44796E61 		.ascii	"Dynamic threads\000"
 808      6D696320 
 808      74687265 
 808      61647300 
 809              		.global	rt_test_sequence_011_array
 810              		.align	2
 811              	.LC22:
 812 0010 54687265 		.ascii	"Threads creation from Memory Pool\000"
ARM GAS  /tmp/ccVafpDf.s 			page 16


 812      61647320 
 812      63726561 
 812      74696F6E 
 812      2066726F 
 813 0032 0000     		.align	2
 814              	.LC23:
 815 0034 54687265 		.ascii	"Threads creation from Memory Heap\000"
 815      61647320 
 815      63726561 
 815      74696F6E 
 815      2066726F 
 816              		.section	.bss.heap1,"aw",%nobits
 817              		.align	2
 818              		.set	.LANCHOR1,. + 0
 819              		.type	heap1, %object
 820              		.size	heap1, 28
 821              	heap1:
 822 0000 00000000 		.space	28
 822      00000000 
 822      00000000 
 822      00000000 
 822      00000000 
 823              		.section	.bss.mp1,"aw",%nobits
 824              		.align	2
 825              		.set	.LANCHOR0,. + 0
 826              		.type	mp1, %object
 827              		.size	mp1, 16
 828              	mp1:
 829 0000 00000000 		.space	16
 829      00000000 
 829      00000000 
 829      00000000 
 830              		.section	.rodata.rt_test_011_001,"a"
 831              		.align	2
 832              		.type	rt_test_011_001, %object
 833              		.size	rt_test_011_001, 16
 834              	rt_test_011_001:
 835 0000 34000000 		.word	.LC23
 836 0004 00000000 		.word	rt_test_011_001_setup
 837 0008 00000000 		.word	0
 838 000c 00000000 		.word	rt_test_011_001_execute
 839              		.section	.rodata.rt_test_011_002,"a"
 840              		.align	2
 841              		.type	rt_test_011_002, %object
 842              		.size	rt_test_011_002, 16
 843              	rt_test_011_002:
 844 0000 10000000 		.word	.LC22
 845 0004 00000000 		.word	rt_test_011_002_setup
 846 0008 00000000 		.word	0
 847 000c 00000000 		.word	rt_test_011_002_execute
 848              		.section	.rodata.rt_test_sequence_011,"a"
 849              		.align	2
 850              		.type	rt_test_sequence_011, %object
 851              		.size	rt_test_sequence_011, 8
 852              	rt_test_sequence_011:
 853 0000 00000000 		.word	.LC21
 854 0004 00000000 		.word	rt_test_sequence_011_array
ARM GAS  /tmp/ccVafpDf.s 			page 17


 855              		.section	.rodata.rt_test_sequence_011_array,"a"
 856              		.align	2
 857              		.type	rt_test_sequence_011_array, %object
 858              		.size	rt_test_sequence_011_array, 12
 859              	rt_test_sequence_011_array:
 860 0000 00000000 		.word	rt_test_011_001
 861 0004 00000000 		.word	rt_test_011_002
 862 0008 00000000 		.word	0
 863              		.text
 864              	.Letext0:
 865              		.file 4 "/opt/gcc-arm-none-eabi/gcc-arm-none-eabi-10.3-2021.07/lib/gcc/arm-none-eabi/10.3.1/includ
 866              		.file 5 "/opt/gcc-arm-none-eabi/gcc-arm-none-eabi-10.3-2021.07/arm-none-eabi/include/machine/_defa
 867              		.file 6 "/opt/gcc-arm-none-eabi/gcc-arm-none-eabi-10.3-2021.07/arm-none-eabi/include/sys/_stdint.h
 868              		.file 7 "../ChibiOS/os/common/ports/ARM-common/chtypes.h"
 869              		.file 8 "../ChibiOS/os/rt/include/chearly.h"
 870              		.file 9 "../ChibiOS/os/rt/include/chobjects.h"
 871              		.file 10 "../ChibiOS/os/rt/include/chrfcu.h"
 872              		.file 11 "../ChibiOS/os/rt/include/chdebug.h"
 873              		.file 12 "../ChibiOS/os/rt/include/chtime.h"
 874              		.file 13 "../ChibiOS/os/rt/include/chlists.h"
 875              		.file 14 "../ChibiOS/os/common/ports/ARMv7-M/chcore.h"
 876              		.file 15 "../ChibiOS/os/rt/include/chsem.h"
 877              		.file 16 "../ChibiOS/os/rt/include/chmtx.h"
 878              		.file 17 "../ChibiOS/os/oslib/include/chmemcore.h"
 879              		.file 18 "../ChibiOS/os/oslib/include/chmemheaps.h"
 880              		.file 19 "../ChibiOS/os/hal/include/hal_streams.h"
 881              		.file 20 "../ChibiOS/os/test/include/ch_test.h"
 882              		.file 21 "../ChibiOS/test/rt/source/test/rt_test_sequence_011.h"
 883              		.file 22 "../ChibiOS/test/rt/source/test/rt_test_root.h"
 884              		.file 23 "../ChibiOS/os/rt/include/chsys.h"
 885              		.file 24 "../ChibiOS/os/rt/include/chdynamic.h"