ARM GAS  /tmp/ccfrLUJI.s 			page 1


   1              		.cpu cortex-m4
   2              		.eabi_attribute 20, 1
   3              		.eabi_attribute 21, 1
   4              		.eabi_attribute 23, 3
   5              		.eabi_attribute 24, 1
   6              		.eabi_attribute 25, 1
   7              		.eabi_attribute 26, 1
   8              		.eabi_attribute 30, 2
   9              		.eabi_attribute 34, 1
  10              		.eabi_attribute 18, 4
  11              		.file	"rt_test_sequence_002.c"
  12              		.text
  13              	.Ltext0:
  14              		.cfi_sections	.debug_frame
  15              		.section	.text.rt_test_002_003_execute,"ax",%progbits
  16              		.align	1
  17              		.p2align 4,,15
  18              		.arch armv7e-m
  19              		.syntax unified
  20              		.thumb
  21              		.thumb_func
  22              		.fpu softvfp
  23              		.type	rt_test_002_003_execute, %function
  24              	rt_test_002_003_execute:
  25              	.LFB407:
  26              		.file 1 "../ChibiOS/test/rt/source/test/rt_test_sequence_002.c"
  27              		.loc 1 223 43 view -0
  28              		.cfi_startproc
  29              		@ args = 0, pretend = 0, frame = 0
  30              		@ frame_needed = 0, uses_anonymous_args = 0
  31              		@ link register save eliminated.
  32              		.loc 1 227 3 view .LVU1
  33 0000 074B     		ldr	r3, .L3
  34 0002 0122     		movs	r2, #1
  35 0004 1A60     		str	r2, [r3]
  36              		.loc 1 229 5 view .LVU2
  37              	.LBB342:
  38              	.LBI342:
  39              		.file 2 "../ChibiOS/os/rt/include/chsys.h"
  40              		.loc 2 379 20 view .LVU3
  41              	.LBE342:
  42              		.loc 2 381 3 view .LVU4
  43              	.LBB350:
  44              	.LBB343:
  45              	.LBI343:
  46              		.file 3 "../ChibiOS/os/common/ports/ARMv7-M/chcore.h"
  47              		.loc 3 876 27 view .LVU5
  48              	.LBE343:
  49              	.LBE350:
  50              		.loc 3 879 3 view .LVU6
  51              	.LVL0:
  52              	.LBB351:
  53              	.LBB348:
  54              	.LBB344:
  55              	.LBI344:
  56              		.file 4 "../ChibiOS/os/common/ext/ARM/CMSIS/Core/Include/cmsis_gcc.h"
  57              		.loc 4 491 27 view .LVU7
ARM GAS  /tmp/ccfrLUJI.s 			page 2


  58              	.LBB345:
  59              		.loc 4 493 3 view .LVU8
  60 0006 3023     		movs	r3, #48
  61              		.syntax unified
  62              	@ 493 "../ChibiOS/os/common/ext/ARM/CMSIS/Core/Include/cmsis_gcc.h" 1
  63 0008 83F31188 		MSR basepri, r3
  64              	@ 0 "" 2
  65              	.LVL1:
  66              		.loc 4 493 3 is_stmt 0 view .LVU9
  67              		.thumb
  68              		.syntax unified
  69              	.LBE345:
  70              	.LBE344:
  71              	.LBE348:
  72              	.LBE351:
  73              		.loc 3 880 3 is_stmt 1 view .LVU10
  74              	.LBB352:
  75              	.LBB349:
  76              	.LBB346:
  77              	.LBI346:
  78              		.loc 4 129 27 view .LVU11
  79              	.LBB347:
  80              		.loc 4 131 3 view .LVU12
  81              		.syntax unified
  82              	@ 131 "../ChibiOS/os/common/ext/ARM/CMSIS/Core/Include/cmsis_gcc.h" 1
  83 000c 62B6     		cpsie i
  84              	@ 0 "" 2
  85              		.thumb
  86              		.syntax unified
  87              	.LBE347:
  88              	.LBE346:
  89              	.LBE349:
  90              	.LBE352:
  91              		.loc 2 382 24 view .LVU13
  92              		.loc 1 230 5 view .LVU14
  93              	.LBB353:
  94              	.LBI353:
  95              		.loc 2 362 20 view .LVU15
  96              	.LBE353:
  97              		.loc 2 364 3 view .LVU16
  98              	.LBB358:
  99              	.LBB354:
 100              	.LBI354:
 101              		.loc 3 866 27 view .LVU17
 102              	.LBE354:
 103              	.LBE358:
 104              		.loc 3 868 3 view .LVU18
 105              	.LBB359:
 106              	.LBB357:
 107              	.LBB355:
 108              	.LBI355:
 109              		.loc 4 140 27 view .LVU19
 110              	.LBB356:
 111              		.loc 4 142 3 view .LVU20
 112              		.syntax unified
 113              	@ 142 "../ChibiOS/os/common/ext/ARM/CMSIS/Core/Include/cmsis_gcc.h" 1
 114 000e 72B6     		cpsid i
ARM GAS  /tmp/ccfrLUJI.s 			page 3


 115              	@ 0 "" 2
 116              		.thumb
 117              		.syntax unified
 118              	.LBE356:
 119              	.LBE355:
 120              	.LBE357:
 121              	.LBE359:
 122              		.loc 2 365 24 view .LVU21
 123              		.loc 1 231 5 view .LVU22
 124              	.LBB360:
 125              	.LBI360:
 126              		.loc 2 379 20 view .LVU23
 127              	.LBE360:
 128              		.loc 2 381 3 view .LVU24
 129              	.LBB368:
 130              	.LBB361:
 131              	.LBI361:
 132              		.loc 3 876 27 view .LVU25
 133              	.LBE361:
 134              	.LBE368:
 135              		.loc 3 879 3 view .LVU26
 136              	.LVL2:
 137              	.LBB369:
 138              	.LBB366:
 139              	.LBB362:
 140              	.LBI362:
 141              		.loc 4 491 27 view .LVU27
 142              	.LBB363:
 143              		.loc 4 493 3 view .LVU28
 144              		.syntax unified
 145              	@ 493 "../ChibiOS/os/common/ext/ARM/CMSIS/Core/Include/cmsis_gcc.h" 1
 146 0010 83F31188 		MSR basepri, r3
 147              	@ 0 "" 2
 148              	.LVL3:
 149              		.loc 4 493 3 is_stmt 0 view .LVU29
 150              		.thumb
 151              		.syntax unified
 152              	.LBE363:
 153              	.LBE362:
 154              	.LBE366:
 155              	.LBE369:
 156              		.loc 3 880 3 is_stmt 1 view .LVU30
 157              	.LBB370:
 158              	.LBB367:
 159              	.LBB364:
 160              	.LBI364:
 161              		.loc 4 129 27 view .LVU31
 162              	.LBB365:
 163              		.loc 4 131 3 view .LVU32
 164              		.syntax unified
 165              	@ 131 "../ChibiOS/os/common/ext/ARM/CMSIS/Core/Include/cmsis_gcc.h" 1
 166 0014 62B6     		cpsie i
 167              	@ 0 "" 2
 168              		.thumb
 169              		.syntax unified
 170              	.LBE365:
 171              	.LBE364:
ARM GAS  /tmp/ccfrLUJI.s 			page 4


 172              	.LBE367:
 173              	.LBE370:
 174              		.loc 2 382 24 view .LVU33
 175              		.loc 1 232 5 view .LVU34
 176              	.LBB371:
 177              	.LBI371:
 178              		.loc 2 394 20 view .LVU35
 179              	.LBE371:
 180              		.loc 2 396 23 view .LVU36
 181              		.loc 2 397 3 view .LVU37
 182              	.LBB379:
 183              	.LBB372:
 184              	.LBI372:
 185              		.loc 3 890 27 view .LVU38
 186              	.LBE372:
 187              	.LBE379:
 188              		.loc 3 893 3 view .LVU39
 189              	.LVL4:
 190              	.LBB380:
 191              	.LBB377:
 192              	.LBB373:
 193              	.LBI373:
 194              		.loc 4 491 27 view .LVU40
 195              	.LBB374:
 196              		.loc 4 493 3 view .LVU41
 197 0016 0023     		movs	r3, #0
 198              		.syntax unified
 199              	@ 493 "../ChibiOS/os/common/ext/ARM/CMSIS/Core/Include/cmsis_gcc.h" 1
 200 0018 83F31188 		MSR basepri, r3
 201              	@ 0 "" 2
 202              	.LVL5:
 203              		.loc 4 493 3 is_stmt 0 view .LVU42
 204              		.thumb
 205              		.syntax unified
 206              	.LBE374:
 207              	.LBE373:
 208              	.LBE377:
 209              	.LBE380:
 210              		.loc 3 895 3 is_stmt 1 view .LVU43
 211              	.LBB381:
 212              	.LBB378:
 213              	.LBB375:
 214              	.LBI375:
 215              		.loc 4 129 27 view .LVU44
 216              	.LBB376:
 217              		.loc 4 131 3 view .LVU45
 218              		.syntax unified
 219              	@ 131 "../ChibiOS/os/common/ext/ARM/CMSIS/Core/Include/cmsis_gcc.h" 1
 220 001c 62B6     		cpsie i
 221              	@ 0 "" 2
 222              		.thumb
 223              		.syntax unified
 224              	.LBE376:
 225              	.LBE375:
 226              	.LBE378:
 227              	.LBE381:
 228              		.loc 1 234 3 view .LVU46
ARM GAS  /tmp/ccfrLUJI.s 			page 5


 229              		.loc 1 234 19 view .LVU47
 230              		.loc 1 235 1 is_stmt 0 view .LVU48
 231 001e 7047     		bx	lr
 232              	.L4:
 233              		.align	2
 234              	.L3:
 235 0020 00000000 		.word	chtest
 236              		.cfi_endproc
 237              	.LFE407:
 238              		.size	rt_test_002_003_execute, .-rt_test_002_003_execute
 239              		.section	.text.vtcb,"ax",%progbits
 240              		.align	1
 241              		.p2align 4,,15
 242              		.syntax unified
 243              		.thumb
 244              		.thumb_func
 245              		.fpu softvfp
 246              		.type	vtcb, %function
 247              	vtcb:
 248              	.LVL6:
 249              	.LFB404:
 250              		.loc 1 47 49 is_stmt 1 view -0
 251              		.cfi_startproc
 252              		@ args = 0, pretend = 0, frame = 0
 253              		@ frame_needed = 0, uses_anonymous_args = 0
 254              		.loc 1 48 3 view .LVU50
 255              		.loc 1 50 3 view .LVU51
 256              		.loc 1 51 3 view .LVU52
 257              		.loc 1 54 3 view .LVU53
 258              	.LBB382:
 259              	.LBI382:
 260              		.loc 2 451 20 view .LVU54
 261              	.LBE382:
 262              		.loc 2 453 3 view .LVU55
 263              	.LBB394:
 264              	.LBB383:
 265              	.LBI383:
 266              		.loc 3 845 27 view .LVU56
 267              	.LBE383:
 268              	.LBE394:
 269              		.loc 3 847 3 view .LVU57
 270              	.LBB395:
 271              	.LBB391:
 272              	.LBB384:
 273              	.LBI384:
 274              		.loc 3 806 27 view .LVU58
 275              	.LBE384:
 276              	.LBE391:
 277              	.LBE395:
 278              		.loc 3 814 3 view .LVU59
 279              	.LBB396:
 280              	.LBB392:
 281              	.LBB389:
 282              	.LBB385:
 283              	.LBI385:
 284              		.loc 4 491 27 view .LVU60
 285              	.LBB386:
ARM GAS  /tmp/ccfrLUJI.s 			page 6


 286              		.loc 4 493 3 view .LVU61
 287              	.LBE386:
 288              	.LBE385:
 289              	.LBE389:
 290              	.LBE392:
 291              	.LBE396:
 292              		.loc 1 47 49 is_stmt 0 view .LVU62
 293 0000 10B5     		push	{r4, lr}
 294              		.cfi_def_cfa_offset 8
 295              		.cfi_offset 4, -8
 296              		.cfi_offset 14, -4
 297              	.LBB397:
 298              	.LBB393:
 299              	.LBB390:
 300              	.LBB388:
 301              	.LBB387:
 302              		.loc 4 493 3 view .LVU63
 303 0002 3023     		movs	r3, #48
 304              		.syntax unified
 305              	@ 493 "../ChibiOS/os/common/ext/ARM/CMSIS/Core/Include/cmsis_gcc.h" 1
 306 0004 83F31188 		MSR basepri, r3
 307              	@ 0 "" 2
 308              	.LVL7:
 309              		.loc 4 493 3 view .LVU64
 310              		.thumb
 311              		.syntax unified
 312              	.LBE387:
 313              	.LBE388:
 314              	.LBE390:
 315              	.LBE393:
 316              	.LBE397:
 317              		.loc 2 454 35 is_stmt 1 view .LVU65
 318              		.loc 2 455 30 view .LVU66
 319              		.loc 1 55 3 view .LVU67
 320              	.LBB398:
 321              	.LBI398:
 322              		.loc 2 473 20 view .LVU68
 323              	.LBE398:
 324              		.loc 2 475 32 view .LVU69
 325              		.loc 2 476 34 view .LVU70
 326              		.loc 2 477 3 view .LVU71
 327              	.LBB406:
 328              	.LBB399:
 329              	.LBI399:
 330              		.loc 3 856 27 view .LVU72
 331              	.LBE399:
 332              	.LBE406:
 333              		.loc 3 858 3 view .LVU73
 334              	.LBB407:
 335              	.LBB404:
 336              	.LBB400:
 337              	.LBI400:
 338              		.loc 3 830 27 view .LVU74
 339              	.LBE400:
 340              	.LBE404:
 341              	.LBE407:
 342              		.loc 3 833 3 view .LVU75
ARM GAS  /tmp/ccfrLUJI.s 			page 7


 343              	.LBB408:
 344              	.LBB405:
 345              	.LBB403:
 346              	.LBB401:
 347              	.LBI401:
 348              		.loc 4 491 27 view .LVU76
 349              	.LBB402:
 350              		.loc 4 493 3 view .LVU77
 351 0008 0024     		movs	r4, #0
 352              		.syntax unified
 353              	@ 493 "../ChibiOS/os/common/ext/ARM/CMSIS/Core/Include/cmsis_gcc.h" 1
 354 000a 84F31188 		MSR basepri, r4
 355              	@ 0 "" 2
 356              	.LVL8:
 357              		.loc 4 493 3 is_stmt 0 view .LVU78
 358              		.thumb
 359              		.syntax unified
 360              	.LBE402:
 361              	.LBE401:
 362              	.LBE403:
 363              	.LBE405:
 364              	.LBE408:
 365              		.loc 1 58 3 is_stmt 1 view .LVU79
 366              	.LBB409:
 367              	.LBI409:
 368              		.loc 2 451 20 view .LVU80
 369              	.LBE409:
 370              		.loc 2 453 3 view .LVU81
 371              	.LBB417:
 372              	.LBB410:
 373              	.LBI410:
 374              		.loc 3 845 27 view .LVU82
 375              	.LBE410:
 376              	.LBE417:
 377              		.loc 3 847 3 view .LVU83
 378              	.LBB418:
 379              	.LBB415:
 380              	.LBB411:
 381              	.LBI411:
 382              		.loc 3 806 27 view .LVU84
 383              	.LBE411:
 384              	.LBE415:
 385              	.LBE418:
 386              		.loc 3 814 3 view .LVU85
 387              	.LBB419:
 388              	.LBB416:
 389              	.LBB414:
 390              	.LBB412:
 391              	.LBI412:
 392              		.loc 4 491 27 view .LVU86
 393              	.LBB413:
 394              		.loc 4 493 3 view .LVU87
 395              		.syntax unified
 396              	@ 493 "../ChibiOS/os/common/ext/ARM/CMSIS/Core/Include/cmsis_gcc.h" 1
 397 000e 83F31188 		MSR basepri, r3
 398              	@ 0 "" 2
 399              	.LVL9:
ARM GAS  /tmp/ccfrLUJI.s 			page 8


 400              		.loc 4 493 3 is_stmt 0 view .LVU88
 401              		.thumb
 402              		.syntax unified
 403              	.LBE413:
 404              	.LBE412:
 405              	.LBE414:
 406              	.LBE416:
 407              	.LBE419:
 408              		.loc 2 454 35 is_stmt 1 view .LVU89
 409              		.loc 2 455 30 view .LVU90
 410              		.loc 1 59 3 view .LVU91
 411              		.loc 1 59 9 is_stmt 0 view .LVU92
 412 0012 FFF7FEFF 		bl	chSysGetStatusAndLockX
 413              	.LVL10:
 414              		.loc 1 60 3 is_stmt 1 view .LVU93
 415 0016 FFF7FEFF 		bl	chSysRestoreStatusX
 416              	.LVL11:
 417              		.loc 1 61 3 view .LVU94
 418              	.LBB420:
 419              	.LBI420:
 420              		.loc 2 473 20 view .LVU95
 421              	.LBE420:
 422              		.loc 2 475 32 view .LVU96
 423              		.loc 2 476 34 view .LVU97
 424              		.loc 2 477 3 view .LVU98
 425              	.LBB428:
 426              	.LBB421:
 427              	.LBI421:
 428              		.loc 3 856 27 view .LVU99
 429              	.LBE421:
 430              	.LBE428:
 431              		.loc 3 858 3 view .LVU100
 432              	.LBB429:
 433              	.LBB426:
 434              	.LBB422:
 435              	.LBI422:
 436              		.loc 3 830 27 view .LVU101
 437              	.LBE422:
 438              	.LBE426:
 439              	.LBE429:
 440              		.loc 3 833 3 view .LVU102
 441              	.LBB430:
 442              	.LBB427:
 443              	.LBB425:
 444              	.LBB423:
 445              	.LBI423:
 446              		.loc 4 491 27 view .LVU103
 447              	.LBB424:
 448              		.loc 4 493 3 view .LVU104
 449              		.syntax unified
 450              	@ 493 "../ChibiOS/os/common/ext/ARM/CMSIS/Core/Include/cmsis_gcc.h" 1
 451 001a 84F31188 		MSR basepri, r4
 452              	@ 0 "" 2
 453              	.LVL12:
 454              		.loc 4 493 3 is_stmt 0 view .LVU105
 455              		.thumb
 456              		.syntax unified
ARM GAS  /tmp/ccfrLUJI.s 			page 9


 457              	.LBE424:
 458              	.LBE423:
 459              	.LBE425:
 460              	.LBE427:
 461              	.LBE430:
 462              		.loc 1 62 1 view .LVU106
 463 001e 10BD     		pop	{r4, pc}
 464              		.cfi_endproc
 465              	.LFE404:
 466              		.size	vtcb, .-vtcb
 467              		.section	.rodata.rt_test_002_001_execute.str1.4,"aMS",%progbits,1
 468              		.align	2
 469              	.LC0:
 470 0000 72656164 		.ascii	"ready list check failed\000"
 470      79206C69 
 470      73742063 
 470      6865636B 
 470      20666169 
 471              		.align	2
 472              	.LC1:
 473 0018 76697274 		.ascii	"virtual timers list check failed\000"
 473      75616C20 
 473      74696D65 
 473      7273206C 
 473      69737420 
 474 0039 000000   		.align	2
 475              	.LC2:
 476 003c 72656769 		.ascii	"registry list check failed\000"
 476      73747279 
 476      206C6973 
 476      74206368 
 476      65636B20 
 477 0057 00       		.align	2
 478              	.LC3:
 479 0058 706F7274 		.ascii	"port layer check failed\000"
 479      206C6179 
 479      65722063 
 479      6865636B 
 479      20666169 
 480              		.section	.text.rt_test_002_001_execute,"ax",%progbits
 481              		.align	1
 482              		.p2align 4,,15
 483              		.syntax unified
 484              		.thumb
 485              		.thumb_func
 486              		.fpu softvfp
 487              		.type	rt_test_002_001_execute, %function
 488              	rt_test_002_001_execute:
 489              	.LFB405:
 490              		.loc 1 83 43 is_stmt 1 view -0
 491              		.cfi_startproc
 492              		@ args = 0, pretend = 0, frame = 0
 493              		@ frame_needed = 0, uses_anonymous_args = 0
 494              		.loc 1 84 3 view .LVU108
 495              		.loc 1 87 3 view .LVU109
 496              		.loc 1 83 43 is_stmt 0 view .LVU110
 497 0000 70B5     		push	{r4, r5, r6, lr}
ARM GAS  /tmp/ccfrLUJI.s 			page 10


 498              		.cfi_def_cfa_offset 16
 499              		.cfi_offset 4, -16
 500              		.cfi_offset 5, -12
 501              		.cfi_offset 6, -8
 502              		.cfi_offset 14, -4
 503              		.loc 1 87 3 view .LVU111
 504 0002 244E     		ldr	r6, .L13
 505 0004 0120     		movs	r0, #1
 506 0006 3060     		str	r0, [r6]
 507              		.loc 1 89 5 is_stmt 1 view .LVU112
 508              	.LBB478:
 509              	.LBI478:
 510              		.loc 2 407 20 view .LVU113
 511              	.LBE478:
 512              		.loc 2 409 3 view .LVU114
 513              	.LBB483:
 514              	.LBB479:
 515              	.LBI479:
 516              		.loc 3 806 27 view .LVU115
 517              	.LBE479:
 518              	.LBE483:
 519              		.loc 3 814 3 view .LVU116
 520              	.LVL13:
 521              	.LBB484:
 522              	.LBB482:
 523              	.LBB480:
 524              	.LBI480:
 525              		.loc 4 491 27 view .LVU117
 526              	.LBB481:
 527              		.loc 4 493 3 view .LVU118
 528 0008 3025     		movs	r5, #48
 529              		.syntax unified
 530              	@ 493 "../ChibiOS/os/common/ext/ARM/CMSIS/Core/Include/cmsis_gcc.h" 1
 531 000a 85F31188 		MSR basepri, r5
 532              	@ 0 "" 2
 533              	.LVL14:
 534              		.loc 4 493 3 is_stmt 0 view .LVU119
 535              		.thumb
 536              		.syntax unified
 537              	.LBE481:
 538              	.LBE480:
 539              	.LBE482:
 540              	.LBE484:
 541              		.loc 2 410 35 is_stmt 1 view .LVU120
 542              		.loc 2 411 21 view .LVU121
 543              		.loc 1 90 5 view .LVU122
 544              		.loc 1 90 14 is_stmt 0 view .LVU123
 545 000e FFF7FEFF 		bl	chSysIntegrityCheckI
 546              	.LVL15:
 547              		.loc 1 91 5 is_stmt 1 view .LVU124
 548              	.LBB485:
 549              	.LBI485:
 550              		.loc 2 421 20 view .LVU125
 551              	.LBB486:
 552              		.loc 2 423 23 view .LVU126
 553              		.loc 2 424 34 view .LVU127
 554              		.loc 2 430 3 view .LVU128
ARM GAS  /tmp/ccfrLUJI.s 			page 11


 555              		.loc 2 430 3 view .LVU129
 556              		.loc 2 430 3 view .LVU130
 557              		.loc 2 434 3 view .LVU131
 558              	.LBB487:
 559              	.LBI487:
 560              		.loc 3 830 27 view .LVU132
 561              	.LBE487:
 562              	.LBE486:
 563              	.LBE485:
 564              		.loc 3 833 3 view .LVU133
 565              	.LBB492:
 566              	.LBB491:
 567              	.LBB490:
 568              	.LBB488:
 569              	.LBI488:
 570              		.loc 4 491 27 view .LVU134
 571              	.LBB489:
 572              		.loc 4 493 3 view .LVU135
 573 0012 0023     		movs	r3, #0
 574              		.syntax unified
 575              	@ 493 "../ChibiOS/os/common/ext/ARM/CMSIS/Core/Include/cmsis_gcc.h" 1
 576 0014 83F31188 		MSR basepri, r3
 577              	@ 0 "" 2
 578              	.LVL16:
 579              		.loc 4 493 3 is_stmt 0 view .LVU136
 580              		.thumb
 581              		.syntax unified
 582              	.LBE489:
 583              	.LBE488:
 584              	.LBE490:
 585              	.LBE491:
 586              	.LBE492:
 587              		.loc 1 92 5 is_stmt 1 view .LVU137
 588 0018 80F00100 		eor	r0, r0, #1
 589              	.LVL17:
 590              		.loc 1 92 5 is_stmt 0 view .LVU138
 591 001c 1E49     		ldr	r1, .L13+4
 592 001e C0B2     		uxtb	r0, r0
 593 0020 FFF7FEFF 		bl	__test_assert
 594              	.LVL18:
 595 0024 00B1     		cbz	r0, .L12
 596              	.L7:
 597              		.loc 1 125 1 view .LVU139
 598 0026 70BD     		pop	{r4, r5, r6, pc}
 599              	.L12:
 600              	.LBB493:
 601              	.LBI493:
 602              		.loc 1 83 13 is_stmt 1 view .LVU140
 603              	.LBB494:
 604              		.loc 1 92 60 view .LVU141
 605              		.loc 1 94 3 view .LVU142
 606              		.loc 1 94 19 view .LVU143
 607              		.loc 1 97 3 view .LVU144
 608 0028 0446     		mov	r4, r0
 609 002a 0220     		movs	r0, #2
 610 002c 3060     		str	r0, [r6]
 611              		.loc 1 99 5 view .LVU145
ARM GAS  /tmp/ccfrLUJI.s 			page 12


 612              	.LBB495:
 613              	.LBI495:
 614              		.loc 2 407 20 view .LVU146
 615              	.LBE495:
 616              	.LBE494:
 617              	.LBE493:
 618              		.loc 2 409 3 view .LVU147
 619              	.LBB553:
 620              	.LBB540:
 621              	.LBB500:
 622              	.LBB496:
 623              	.LBI496:
 624              		.loc 3 806 27 view .LVU148
 625              	.LBE496:
 626              	.LBE500:
 627              	.LBE540:
 628              	.LBE553:
 629              		.loc 3 814 3 view .LVU149
 630              	.LVL19:
 631              	.LBB554:
 632              	.LBB541:
 633              	.LBB501:
 634              	.LBB499:
 635              	.LBB497:
 636              	.LBI497:
 637              		.loc 4 491 27 view .LVU150
 638              	.LBB498:
 639              		.loc 4 493 3 view .LVU151
 640              		.syntax unified
 641              	@ 493 "../ChibiOS/os/common/ext/ARM/CMSIS/Core/Include/cmsis_gcc.h" 1
 642 002e 85F31188 		MSR basepri, r5
 643              	@ 0 "" 2
 644              	.LVL20:
 645              		.loc 4 493 3 is_stmt 0 view .LVU152
 646              		.thumb
 647              		.syntax unified
 648              	.LBE498:
 649              	.LBE497:
 650              	.LBE499:
 651              	.LBE501:
 652              	.LBE541:
 653              	.LBE554:
 654              		.loc 2 410 35 is_stmt 1 view .LVU153
 655              		.loc 2 411 21 view .LVU154
 656              	.LBB555:
 657              	.LBB542:
 658              		.loc 1 100 5 view .LVU155
 659              		.loc 1 100 14 is_stmt 0 view .LVU156
 660 0032 FFF7FEFF 		bl	chSysIntegrityCheckI
 661              	.LVL21:
 662              		.loc 1 101 5 is_stmt 1 view .LVU157
 663              	.LBB502:
 664              	.LBI502:
 665              		.loc 2 421 20 view .LVU158
 666              	.LBB503:
 667              		.loc 2 423 23 view .LVU159
 668              		.loc 2 424 34 view .LVU160
ARM GAS  /tmp/ccfrLUJI.s 			page 13


 669              		.loc 2 430 3 view .LVU161
 670              		.loc 2 430 3 view .LVU162
 671              		.loc 2 430 3 view .LVU163
 672              		.loc 2 434 3 view .LVU164
 673              	.LBB504:
 674              	.LBI504:
 675              		.loc 3 830 27 view .LVU165
 676              	.LBE504:
 677              	.LBE503:
 678              	.LBE502:
 679              	.LBE542:
 680              	.LBE555:
 681              		.loc 3 833 3 view .LVU166
 682              	.LBB556:
 683              	.LBB543:
 684              	.LBB509:
 685              	.LBB508:
 686              	.LBB507:
 687              	.LBB505:
 688              	.LBI505:
 689              		.loc 4 491 27 view .LVU167
 690              	.LBB506:
 691              		.loc 4 493 3 view .LVU168
 692              		.syntax unified
 693              	@ 493 "../ChibiOS/os/common/ext/ARM/CMSIS/Core/Include/cmsis_gcc.h" 1
 694 0036 84F31188 		MSR basepri, r4
 695              	@ 0 "" 2
 696              	.LVL22:
 697              		.loc 4 493 3 is_stmt 0 view .LVU169
 698              		.thumb
 699              		.syntax unified
 700              	.LBE506:
 701              	.LBE505:
 702              	.LBE507:
 703              	.LBE508:
 704              	.LBE509:
 705              		.loc 1 102 5 is_stmt 1 view .LVU170
 706 003a 80F00100 		eor	r0, r0, #1
 707              	.LVL23:
 708              		.loc 1 102 5 is_stmt 0 view .LVU171
 709 003e 1749     		ldr	r1, .L13+8
 710 0040 C0B2     		uxtb	r0, r0
 711 0042 FFF7FEFF 		bl	__test_assert
 712              	.LVL24:
 713 0046 0446     		mov	r4, r0
 714 0048 0028     		cmp	r0, #0
 715 004a ECD1     		bne	.L7
 716              		.loc 1 102 69 is_stmt 1 view .LVU172
 717              		.loc 1 104 3 view .LVU173
 718              		.loc 1 104 19 view .LVU174
 719              		.loc 1 107 3 view .LVU175
 720 004c 0323     		movs	r3, #3
 721 004e 3360     		str	r3, [r6]
 722              		.loc 1 109 5 view .LVU176
 723              	.LBB510:
 724              	.LBI510:
 725              		.loc 2 407 20 view .LVU177
ARM GAS  /tmp/ccfrLUJI.s 			page 14


 726              	.LBE510:
 727              	.LBE543:
 728              	.LBE556:
 729              		.loc 2 409 3 view .LVU178
 730              	.LBB557:
 731              	.LBB544:
 732              	.LBB515:
 733              	.LBB511:
 734              	.LBI511:
 735              		.loc 3 806 27 view .LVU179
 736              	.LBE511:
 737              	.LBE515:
 738              	.LBE544:
 739              	.LBE557:
 740              		.loc 3 814 3 view .LVU180
 741              	.LVL25:
 742              	.LBB558:
 743              	.LBB545:
 744              	.LBB516:
 745              	.LBB514:
 746              	.LBB512:
 747              	.LBI512:
 748              		.loc 4 491 27 view .LVU181
 749              	.LBB513:
 750              		.loc 4 493 3 view .LVU182
 751              		.syntax unified
 752              	@ 493 "../ChibiOS/os/common/ext/ARM/CMSIS/Core/Include/cmsis_gcc.h" 1
 753 0050 85F31188 		MSR basepri, r5
 754              	@ 0 "" 2
 755              	.LVL26:
 756              		.loc 4 493 3 is_stmt 0 view .LVU183
 757              		.thumb
 758              		.syntax unified
 759              	.LBE513:
 760              	.LBE512:
 761              	.LBE514:
 762              	.LBE516:
 763              	.LBE545:
 764              	.LBE558:
 765              		.loc 2 410 35 is_stmt 1 view .LVU184
 766              		.loc 2 411 21 view .LVU185
 767              	.LBB559:
 768              	.LBB546:
 769              		.loc 1 110 5 view .LVU186
 770              		.loc 1 110 14 is_stmt 0 view .LVU187
 771 0054 0420     		movs	r0, #4
 772 0056 FFF7FEFF 		bl	chSysIntegrityCheckI
 773              	.LVL27:
 774              		.loc 1 111 5 is_stmt 1 view .LVU188
 775              	.LBB517:
 776              	.LBI517:
 777              		.loc 2 421 20 view .LVU189
 778              	.LBB518:
 779              		.loc 2 423 23 view .LVU190
 780              		.loc 2 424 34 view .LVU191
 781              		.loc 2 430 3 view .LVU192
 782              		.loc 2 430 3 view .LVU193
ARM GAS  /tmp/ccfrLUJI.s 			page 15


 783              		.loc 2 430 3 view .LVU194
 784              		.loc 2 434 3 view .LVU195
 785              	.LBB519:
 786              	.LBI519:
 787              		.loc 3 830 27 view .LVU196
 788              	.LBE519:
 789              	.LBE518:
 790              	.LBE517:
 791              	.LBE546:
 792              	.LBE559:
 793              		.loc 3 833 3 view .LVU197
 794              	.LBB560:
 795              	.LBB547:
 796              	.LBB524:
 797              	.LBB523:
 798              	.LBB522:
 799              	.LBB520:
 800              	.LBI520:
 801              		.loc 4 491 27 view .LVU198
 802              	.LBB521:
 803              		.loc 4 493 3 view .LVU199
 804              		.syntax unified
 805              	@ 493 "../ChibiOS/os/common/ext/ARM/CMSIS/Core/Include/cmsis_gcc.h" 1
 806 005a 84F31188 		MSR basepri, r4
 807              	@ 0 "" 2
 808              	.LVL28:
 809              		.loc 4 493 3 is_stmt 0 view .LVU200
 810              		.thumb
 811              		.syntax unified
 812              	.LBE521:
 813              	.LBE520:
 814              	.LBE522:
 815              	.LBE523:
 816              	.LBE524:
 817              		.loc 1 112 5 is_stmt 1 view .LVU201
 818 005e 80F00100 		eor	r0, r0, #1
 819              	.LVL29:
 820              		.loc 1 112 5 is_stmt 0 view .LVU202
 821 0062 0F49     		ldr	r1, .L13+12
 822 0064 C0B2     		uxtb	r0, r0
 823 0066 FFF7FEFF 		bl	__test_assert
 824              	.LVL30:
 825 006a 0446     		mov	r4, r0
 826 006c 0028     		cmp	r0, #0
 827 006e DAD1     		bne	.L7
 828              		.loc 1 112 63 is_stmt 1 view .LVU203
 829              		.loc 1 114 3 view .LVU204
 830              		.loc 1 114 19 view .LVU205
 831              		.loc 1 117 3 view .LVU206
 832 0070 0423     		movs	r3, #4
 833 0072 3360     		str	r3, [r6]
 834              		.loc 1 119 5 view .LVU207
 835              	.LBB525:
 836              	.LBI525:
 837              		.loc 2 407 20 view .LVU208
 838              	.LBE525:
 839              	.LBE547:
ARM GAS  /tmp/ccfrLUJI.s 			page 16


 840              	.LBE560:
 841              		.loc 2 409 3 view .LVU209
 842              	.LBB561:
 843              	.LBB548:
 844              	.LBB530:
 845              	.LBB526:
 846              	.LBI526:
 847              		.loc 3 806 27 view .LVU210
 848              	.LBE526:
 849              	.LBE530:
 850              	.LBE548:
 851              	.LBE561:
 852              		.loc 3 814 3 view .LVU211
 853              	.LVL31:
 854              	.LBB562:
 855              	.LBB549:
 856              	.LBB531:
 857              	.LBB529:
 858              	.LBB527:
 859              	.LBI527:
 860              		.loc 4 491 27 view .LVU212
 861              	.LBB528:
 862              		.loc 4 493 3 view .LVU213
 863              		.syntax unified
 864              	@ 493 "../ChibiOS/os/common/ext/ARM/CMSIS/Core/Include/cmsis_gcc.h" 1
 865 0074 85F31188 		MSR basepri, r5
 866              	@ 0 "" 2
 867              	.LVL32:
 868              		.loc 4 493 3 is_stmt 0 view .LVU214
 869              		.thumb
 870              		.syntax unified
 871              	.LBE528:
 872              	.LBE527:
 873              	.LBE529:
 874              	.LBE531:
 875              	.LBE549:
 876              	.LBE562:
 877              		.loc 2 410 35 is_stmt 1 view .LVU215
 878              		.loc 2 411 21 view .LVU216
 879              	.LBB563:
 880              	.LBB550:
 881              		.loc 1 120 5 view .LVU217
 882              		.loc 1 120 14 is_stmt 0 view .LVU218
 883 0078 0820     		movs	r0, #8
 884 007a FFF7FEFF 		bl	chSysIntegrityCheckI
 885              	.LVL33:
 886              		.loc 1 121 5 is_stmt 1 view .LVU219
 887              	.LBB532:
 888              	.LBI532:
 889              		.loc 2 421 20 view .LVU220
 890              	.LBB533:
 891              		.loc 2 423 23 view .LVU221
 892              		.loc 2 424 34 view .LVU222
 893              		.loc 2 430 3 view .LVU223
 894              		.loc 2 430 3 view .LVU224
 895              		.loc 2 430 3 view .LVU225
 896              		.loc 2 434 3 view .LVU226
ARM GAS  /tmp/ccfrLUJI.s 			page 17


 897              	.LBB534:
 898              	.LBI534:
 899              		.loc 3 830 27 view .LVU227
 900              	.LBE534:
 901              	.LBE533:
 902              	.LBE532:
 903              	.LBE550:
 904              	.LBE563:
 905              		.loc 3 833 3 view .LVU228
 906              	.LBB564:
 907              	.LBB551:
 908              	.LBB539:
 909              	.LBB538:
 910              	.LBB537:
 911              	.LBB535:
 912              	.LBI535:
 913              		.loc 4 491 27 view .LVU229
 914              	.LBB536:
 915              		.loc 4 493 3 view .LVU230
 916              		.syntax unified
 917              	@ 493 "../ChibiOS/os/common/ext/ARM/CMSIS/Core/Include/cmsis_gcc.h" 1
 918 007e 84F31188 		MSR basepri, r4
 919              	@ 0 "" 2
 920              	.LVL34:
 921              		.loc 4 493 3 is_stmt 0 view .LVU231
 922              		.thumb
 923              		.syntax unified
 924              	.LBE536:
 925              	.LBE535:
 926              	.LBE537:
 927              	.LBE538:
 928              	.LBE539:
 929              		.loc 1 122 5 is_stmt 1 view .LVU232
 930 0082 80F00100 		eor	r0, r0, #1
 931              	.LVL35:
 932              		.loc 1 122 5 is_stmt 0 view .LVU233
 933              	.LBE551:
 934              	.LBE564:
 935              		.loc 1 125 1 view .LVU234
 936 0086 BDE87040 		pop	{r4, r5, r6, lr}
 937              		.cfi_restore 14
 938              		.cfi_restore 6
 939              		.cfi_restore 5
 940              		.cfi_restore 4
 941              		.cfi_def_cfa_offset 0
 942              	.LBB565:
 943              	.LBB552:
 944              		.loc 1 122 5 view .LVU235
 945 008a 0649     		ldr	r1, .L13+16
 946 008c C0B2     		uxtb	r0, r0
 947 008e FFF7FEBF 		b	__test_assert
 948              	.LVL36:
 949              	.L14:
 950 0092 00BF     		.align	2
 951              	.L13:
 952 0094 00000000 		.word	chtest
 953 0098 00000000 		.word	.LC0
ARM GAS  /tmp/ccfrLUJI.s 			page 18


 954 009c 18000000 		.word	.LC1
 955 00a0 3C000000 		.word	.LC2
 956 00a4 58000000 		.word	.LC3
 957              	.LBE552:
 958              	.LBE565:
 959              		.cfi_endproc
 960              	.LFE405:
 961              		.size	rt_test_002_001_execute, .-rt_test_002_001_execute
 962              		.section	.rodata.rt_test_002_002_execute.str1.4,"aMS",%progbits,1
 963              		.align	2
 964              	.LC4:
 965 0000 74696D65 		.ascii	"timer still armed\000"
 965      72207374 
 965      696C6C20 
 965      61726D65 
 965      6400
 966              		.section	.text.rt_test_002_002_execute,"ax",%progbits
 967              		.align	1
 968              		.p2align 4,,15
 969              		.syntax unified
 970              		.thumb
 971              		.thumb_func
 972              		.fpu softvfp
 973              		.type	rt_test_002_002_execute, %function
 974              	rt_test_002_002_execute:
 975              	.LFB406:
 976              		.loc 1 151 43 is_stmt 1 view -0
 977              		.cfi_startproc
 978              		@ args = 0, pretend = 0, frame = 24
 979              		@ frame_needed = 0, uses_anonymous_args = 0
 980              		.loc 1 152 3 view .LVU237
 981              		.loc 1 153 3 view .LVU238
 982              		.loc 1 157 3 view .LVU239
 983              		.loc 1 151 43 is_stmt 0 view .LVU240
 984 0000 30B5     		push	{r4, r5, lr}
 985              		.cfi_def_cfa_offset 12
 986              		.cfi_offset 4, -12
 987              		.cfi_offset 5, -8
 988              		.cfi_offset 14, -4
 989              		.loc 1 157 3 view .LVU241
 990 0002 2D4C     		ldr	r4, .L31
 991 0004 0123     		movs	r3, #1
 992              		.loc 1 151 43 view .LVU242
 993 0006 87B0     		sub	sp, sp, #28
 994              		.cfi_def_cfa_offset 40
 995              		.loc 1 157 3 view .LVU243
 996 0008 2360     		str	r3, [r4]
 997              		.loc 1 159 5 is_stmt 1 view .LVU244
 998              		.loc 1 159 11 is_stmt 0 view .LVU245
 999 000a FFF7FEFF 		bl	chSysGetStatusAndLockX
 1000              	.LVL37:
 1001              		.loc 1 160 5 is_stmt 1 view .LVU246
 1002 000e FFF7FEFF 		bl	chSysRestoreStatusX
 1003              	.LVL38:
 1004              		.loc 1 162 3 view .LVU247
 1005              		.loc 1 162 19 view .LVU248
 1006              		.loc 1 166 3 view .LVU249
ARM GAS  /tmp/ccfrLUJI.s 			page 19


 1007 0012 0223     		movs	r3, #2
 1008 0014 2360     		str	r3, [r4]
 1009              		.loc 1 168 5 view .LVU250
 1010              	.LBB660:
 1011              	.LBI660:
 1012              		.loc 2 407 20 view .LVU251
 1013              	.LBE660:
 1014              		.loc 2 409 3 view .LVU252
 1015              	.LBB665:
 1016              	.LBB661:
 1017              	.LBI661:
 1018              		.loc 3 806 27 view .LVU253
 1019              	.LBE661:
 1020              	.LBE665:
 1021              		.loc 3 814 3 view .LVU254
 1022              	.LVL39:
 1023              	.LBB666:
 1024              	.LBB664:
 1025              	.LBB662:
 1026              	.LBI662:
 1027              		.loc 4 491 27 view .LVU255
 1028              	.LBB663:
 1029              		.loc 4 493 3 view .LVU256
 1030 0016 3025     		movs	r5, #48
 1031              		.syntax unified
 1032              	@ 493 "../ChibiOS/os/common/ext/ARM/CMSIS/Core/Include/cmsis_gcc.h" 1
 1033 0018 85F31188 		MSR basepri, r5
 1034              	@ 0 "" 2
 1035              	.LVL40:
 1036              		.loc 4 493 3 is_stmt 0 view .LVU257
 1037              		.thumb
 1038              		.syntax unified
 1039              	.LBE663:
 1040              	.LBE662:
 1041              	.LBE664:
 1042              	.LBE666:
 1043              		.loc 2 410 35 is_stmt 1 view .LVU258
 1044              		.loc 2 411 21 view .LVU259
 1045              		.loc 1 169 5 view .LVU260
 1046              		.loc 1 169 11 is_stmt 0 view .LVU261
 1047 001c FFF7FEFF 		bl	chSysGetStatusAndLockX
 1048              	.LVL41:
 1049              		.loc 1 170 5 is_stmt 1 view .LVU262
 1050 0020 FFF7FEFF 		bl	chSysRestoreStatusX
 1051              	.LVL42:
 1052              		.loc 1 171 5 view .LVU263
 1053              	.LBB667:
 1054              	.LBI667:
 1055              		.loc 2 421 20 view .LVU264
 1056              	.LBB668:
 1057              		.loc 2 423 23 view .LVU265
 1058              		.loc 2 424 34 view .LVU266
 1059              		.loc 2 430 3 view .LVU267
 1060              		.loc 2 430 3 view .LVU268
 1061              		.loc 2 430 3 view .LVU269
 1062              		.loc 2 434 3 view .LVU270
 1063              	.LBB669:
ARM GAS  /tmp/ccfrLUJI.s 			page 20


 1064              	.LBI669:
 1065              		.loc 3 830 27 view .LVU271
 1066              	.LBE669:
 1067              	.LBE668:
 1068              	.LBE667:
 1069              		.loc 3 833 3 view .LVU272
 1070              	.LBB674:
 1071              	.LBB673:
 1072              	.LBB672:
 1073              	.LBB670:
 1074              	.LBI670:
 1075              		.loc 4 491 27 view .LVU273
 1076              	.LBB671:
 1077              		.loc 4 493 3 view .LVU274
 1078 0024 0023     		movs	r3, #0
 1079              		.syntax unified
 1080              	@ 493 "../ChibiOS/os/common/ext/ARM/CMSIS/Core/Include/cmsis_gcc.h" 1
 1081 0026 83F31188 		MSR basepri, r3
 1082              	@ 0 "" 2
 1083              	.LVL43:
 1084              		.loc 4 493 3 is_stmt 0 view .LVU275
 1085              		.thumb
 1086              		.syntax unified
 1087              	.LBE671:
 1088              	.LBE670:
 1089              	.LBE672:
 1090              	.LBE673:
 1091              	.LBE674:
 1092              		.loc 1 173 3 is_stmt 1 view .LVU276
 1093              		.loc 1 173 19 view .LVU277
 1094              		.loc 1 176 3 view .LVU278
 1095 002a 0323     		movs	r3, #3
 1096 002c 2360     		str	r3, [r4]
 1097              		.loc 1 178 5 view .LVU279
 1098              	.LBB675:
 1099              	.LBI675:
 1100              		.loc 2 487 20 view .LVU280
 1101              	.LBB676:
 1102              		.loc 2 489 3 view .LVU281
 1103              	.LBB677:
 1104              	.LBI677:
 1105              		.loc 3 760 31 view .LVU282
 1106              	.LBB678:
 1107              		.loc 3 761 3 view .LVU283
 1108              		.loc 3 764 3 view .LVU284
 1109              	.LBB679:
 1110              	.LBI679:
 1111              		.loc 4 461 31 view .LVU285
 1112              	.LBB680:
 1113              		.loc 4 463 3 view .LVU286
 1114              		.loc 4 465 3 view .LVU287
 1115              		.syntax unified
 1116              	@ 465 "../ChibiOS/os/common/ext/ARM/CMSIS/Core/Include/cmsis_gcc.h" 1
 1117 002e EFF31183 		MRS r3, basepri
 1118              	@ 0 "" 2
 1119              	.LVL44:
 1120              		.loc 4 466 3 view .LVU288
ARM GAS  /tmp/ccfrLUJI.s 			page 21


 1121              		.loc 4 466 3 is_stmt 0 view .LVU289
 1122              		.thumb
 1123              		.syntax unified
 1124              	.LBE680:
 1125              	.LBE679:
 1126              		.loc 3 768 3 is_stmt 1 view .LVU290
 1127              		.loc 3 768 3 is_stmt 0 view .LVU291
 1128              	.LBE678:
 1129              	.LBE677:
 1130              	.LBE676:
 1131              	.LBE675:
 1132              		.loc 3 783 3 is_stmt 1 view .LVU292
 1133              	.LBB691:
 1134              	.LBB689:
 1135              		.loc 2 489 6 is_stmt 0 view .LVU293
 1136 0032 0BB9     		cbnz	r3, .L16
 1137              		.loc 2 490 5 is_stmt 1 view .LVU294
 1138              	.LBB681:
 1139              	.LBI681:
 1140              		.loc 2 407 20 view .LVU295
 1141              	.LBB682:
 1142              		.loc 2 409 3 view .LVU296
 1143              	.LBB683:
 1144              	.LBI683:
 1145              		.loc 3 806 27 view .LVU297
 1146              	.LBE683:
 1147              	.LBE682:
 1148              	.LBE681:
 1149              	.LBE689:
 1150              	.LBE691:
 1151              		.loc 3 814 3 view .LVU298
 1152              	.LVL45:
 1153              	.LBB692:
 1154              	.LBB690:
 1155              	.LBB688:
 1156              	.LBB687:
 1157              	.LBB686:
 1158              	.LBB684:
 1159              	.LBI684:
 1160              		.loc 4 491 27 view .LVU299
 1161              	.LBB685:
 1162              		.loc 4 493 3 view .LVU300
 1163              		.syntax unified
 1164              	@ 493 "../ChibiOS/os/common/ext/ARM/CMSIS/Core/Include/cmsis_gcc.h" 1
 1165 0034 85F31188 		MSR basepri, r5
 1166              	@ 0 "" 2
 1167              	.LVL46:
 1168              		.loc 4 493 3 is_stmt 0 view .LVU301
 1169              		.thumb
 1170              		.syntax unified
 1171              	.LBE685:
 1172              	.LBE684:
 1173              	.LBE686:
 1174              		.loc 2 410 35 is_stmt 1 view .LVU302
 1175              		.loc 2 411 21 view .LVU303
 1176              	.L16:
 1177              	.LBE687:
ARM GAS  /tmp/ccfrLUJI.s 			page 22


 1178              	.LBE688:
 1179              	.LBE690:
 1180              	.LBE692:
 1181              		.loc 1 179 5 view .LVU304
 1182              	.LBB693:
 1183              	.LBI693:
 1184              		.loc 2 487 20 view .LVU305
 1185              	.LBB694:
 1186              		.loc 2 489 3 view .LVU306
 1187              	.LBB695:
 1188              	.LBI695:
 1189              		.loc 3 760 31 view .LVU307
 1190              	.LBB696:
 1191              		.loc 3 761 3 view .LVU308
 1192              		.loc 3 764 3 view .LVU309
 1193              	.LBB697:
 1194              	.LBI697:
 1195              		.loc 4 461 31 view .LVU310
 1196              	.LBB698:
 1197              		.loc 4 463 3 view .LVU311
 1198              		.loc 4 465 3 view .LVU312
 1199              		.syntax unified
 1200              	@ 465 "../ChibiOS/os/common/ext/ARM/CMSIS/Core/Include/cmsis_gcc.h" 1
 1201 0038 EFF31183 		MRS r3, basepri
 1202              	@ 0 "" 2
 1203              	.LVL47:
 1204              		.loc 4 466 3 view .LVU313
 1205              		.loc 4 466 3 is_stmt 0 view .LVU314
 1206              		.thumb
 1207              		.syntax unified
 1208              	.LBE698:
 1209              	.LBE697:
 1210              		.loc 3 768 3 is_stmt 1 view .LVU315
 1211              		.loc 3 768 3 is_stmt 0 view .LVU316
 1212              	.LBE696:
 1213              	.LBE695:
 1214              	.LBE694:
 1215              	.LBE693:
 1216              		.loc 3 783 3 is_stmt 1 view .LVU317
 1217              	.LBB709:
 1218              	.LBB707:
 1219              		.loc 2 489 6 is_stmt 0 view .LVU318
 1220 003c 13B9     		cbnz	r3, .L17
 1221              		.loc 2 490 5 is_stmt 1 view .LVU319
 1222              	.LBB699:
 1223              	.LBI699:
 1224              		.loc 2 407 20 view .LVU320
 1225              	.LBB700:
 1226              		.loc 2 409 3 view .LVU321
 1227              	.LBB701:
 1228              	.LBI701:
 1229              		.loc 3 806 27 view .LVU322
 1230              	.LBE701:
 1231              	.LBE700:
 1232              	.LBE699:
 1233              	.LBE707:
 1234              	.LBE709:
ARM GAS  /tmp/ccfrLUJI.s 			page 23


 1235              		.loc 3 814 3 view .LVU323
 1236              	.LVL48:
 1237              	.LBB710:
 1238              	.LBB708:
 1239              	.LBB706:
 1240              	.LBB705:
 1241              	.LBB704:
 1242              	.LBB702:
 1243              	.LBI702:
 1244              		.loc 4 491 27 view .LVU324
 1245              	.LBB703:
 1246              		.loc 4 493 3 view .LVU325
 1247 003e 3023     		movs	r3, #48
 1248              	.LVL49:
 1249              		.loc 4 493 3 is_stmt 0 view .LVU326
 1250              		.syntax unified
 1251              	@ 493 "../ChibiOS/os/common/ext/ARM/CMSIS/Core/Include/cmsis_gcc.h" 1
 1252 0040 83F31188 		MSR basepri, r3
 1253              	@ 0 "" 2
 1254              	.LVL50:
 1255              		.loc 4 493 3 view .LVU327
 1256              		.thumb
 1257              		.syntax unified
 1258              	.LBE703:
 1259              	.LBE702:
 1260              	.LBE704:
 1261              		.loc 2 410 35 is_stmt 1 view .LVU328
 1262              		.loc 2 411 21 view .LVU329
 1263              	.L17:
 1264              	.LBE705:
 1265              	.LBE706:
 1266              	.LBE708:
 1267              	.LBE710:
 1268              		.loc 1 180 5 view .LVU330
 1269              	.LBB711:
 1270              	.LBI711:
 1271              		.loc 2 421 20 view .LVU331
 1272              	.LBB712:
 1273              		.loc 2 423 23 view .LVU332
 1274              		.loc 2 424 34 view .LVU333
 1275              		.loc 2 430 3 view .LVU334
 1276              		.loc 2 430 3 view .LVU335
 1277              		.loc 2 430 3 view .LVU336
 1278              		.loc 2 434 3 view .LVU337
 1279              	.LBB713:
 1280              	.LBI713:
 1281              		.loc 3 830 27 view .LVU338
 1282              	.LBE713:
 1283              	.LBE712:
 1284              	.LBE711:
 1285              		.loc 3 833 3 view .LVU339
 1286              	.LBB718:
 1287              	.LBB717:
 1288              	.LBB716:
 1289              	.LBB714:
 1290              	.LBI714:
 1291              		.loc 4 491 27 view .LVU340
ARM GAS  /tmp/ccfrLUJI.s 			page 24


 1292              	.LBB715:
 1293              		.loc 4 493 3 view .LVU341
 1294 0044 0023     		movs	r3, #0
 1295              		.syntax unified
 1296              	@ 493 "../ChibiOS/os/common/ext/ARM/CMSIS/Core/Include/cmsis_gcc.h" 1
 1297 0046 83F31188 		MSR basepri, r3
 1298              	@ 0 "" 2
 1299              	.LVL51:
 1300              		.loc 4 493 3 is_stmt 0 view .LVU342
 1301              		.thumb
 1302              		.syntax unified
 1303              	.LBE715:
 1304              	.LBE714:
 1305              	.LBE716:
 1306              	.LBE717:
 1307              	.LBE718:
 1308              		.loc 1 182 3 is_stmt 1 view .LVU343
 1309              		.loc 1 182 19 view .LVU344
 1310              		.loc 1 185 3 view .LVU345
 1311 004a 0422     		movs	r2, #4
 1312 004c 2260     		str	r2, [r4]
 1313              		.loc 1 187 5 view .LVU346
 1314              	.LBB719:
 1315              	.LBI719:
 1316              		.loc 2 407 20 view .LVU347
 1317              	.LBE719:
 1318              		.loc 2 409 3 view .LVU348
 1319              	.LBB724:
 1320              	.LBB720:
 1321              	.LBI720:
 1322              		.loc 3 806 27 view .LVU349
 1323              	.LBE720:
 1324              	.LBE724:
 1325              		.loc 3 814 3 view .LVU350
 1326              	.LVL52:
 1327              	.LBB725:
 1328              	.LBB723:
 1329              	.LBB721:
 1330              	.LBI721:
 1331              		.loc 4 491 27 view .LVU351
 1332              	.LBB722:
 1333              		.loc 4 493 3 view .LVU352
 1334 004e 3022     		movs	r2, #48
 1335              		.syntax unified
 1336              	@ 493 "../ChibiOS/os/common/ext/ARM/CMSIS/Core/Include/cmsis_gcc.h" 1
 1337 0050 82F31188 		MSR basepri, r2
 1338              	@ 0 "" 2
 1339              	.LVL53:
 1340              		.loc 4 493 3 is_stmt 0 view .LVU353
 1341              		.thumb
 1342              		.syntax unified
 1343              	.LBE722:
 1344              	.LBE721:
 1345              	.LBE723:
 1346              	.LBE725:
 1347              		.loc 2 410 35 is_stmt 1 view .LVU354
 1348              		.loc 2 411 21 view .LVU355
ARM GAS  /tmp/ccfrLUJI.s 			page 25


 1349              		.loc 1 188 5 view .LVU356
 1350              	.LBB726:
 1351              	.LBI726:
 1352              		.loc 2 501 20 view .LVU357
 1353              	.LBB727:
 1354              		.loc 2 503 3 view .LVU358
 1355              	.LBB728:
 1356              	.LBI728:
 1357              		.loc 3 760 31 view .LVU359
 1358              	.LBB729:
 1359              		.loc 3 761 3 view .LVU360
 1360              		.loc 3 764 3 view .LVU361
 1361              	.LBB730:
 1362              	.LBI730:
 1363              		.loc 4 461 31 view .LVU362
 1364              	.LBB731:
 1365              		.loc 4 463 3 view .LVU363
 1366              		.loc 4 465 3 view .LVU364
 1367              		.syntax unified
 1368              	@ 465 "../ChibiOS/os/common/ext/ARM/CMSIS/Core/Include/cmsis_gcc.h" 1
 1369 0054 EFF31182 		MRS r2, basepri
 1370              	@ 0 "" 2
 1371              	.LVL54:
 1372              		.loc 4 466 3 view .LVU365
 1373              		.loc 4 466 3 is_stmt 0 view .LVU366
 1374              		.thumb
 1375              		.syntax unified
 1376              	.LBE731:
 1377              	.LBE730:
 1378              		.loc 3 768 3 is_stmt 1 view .LVU367
 1379              		.loc 3 768 3 is_stmt 0 view .LVU368
 1380              	.LBE729:
 1381              	.LBE728:
 1382              	.LBE727:
 1383              	.LBE726:
 1384              		.loc 3 783 3 is_stmt 1 view .LVU369
 1385              	.LBB742:
 1386              	.LBB740:
 1387              		.loc 2 503 6 is_stmt 0 view .LVU370
 1388 0058 0AB1     		cbz	r2, .L18
 1389              		.loc 2 504 5 is_stmt 1 view .LVU371
 1390              	.LBB732:
 1391              	.LBI732:
 1392              		.loc 2 421 20 view .LVU372
 1393              	.LBB733:
 1394              		.loc 2 423 23 view .LVU373
 1395              		.loc 2 424 34 view .LVU374
 1396              		.loc 2 430 3 view .LVU375
 1397              		.loc 2 430 3 view .LVU376
 1398              		.loc 2 430 3 view .LVU377
 1399              		.loc 2 434 3 view .LVU378
 1400              	.LBB734:
 1401              	.LBI734:
 1402              		.loc 3 830 27 view .LVU379
 1403              	.LBE734:
 1404              	.LBE733:
 1405              	.LBE732:
ARM GAS  /tmp/ccfrLUJI.s 			page 26


 1406              	.LBE740:
 1407              	.LBE742:
 1408              		.loc 3 833 3 view .LVU380
 1409              	.LVL55:
 1410              	.LBB743:
 1411              	.LBB741:
 1412              	.LBB739:
 1413              	.LBB738:
 1414              	.LBB737:
 1415              	.LBB735:
 1416              	.LBI735:
 1417              		.loc 4 491 27 view .LVU381
 1418              	.LBB736:
 1419              		.loc 4 493 3 view .LVU382
 1420              		.syntax unified
 1421              	@ 493 "../ChibiOS/os/common/ext/ARM/CMSIS/Core/Include/cmsis_gcc.h" 1
 1422 005a 83F31188 		MSR basepri, r3
 1423              	@ 0 "" 2
 1424              	.LVL56:
 1425              		.thumb
 1426              		.syntax unified
 1427              	.L18:
 1428              		.loc 4 493 3 is_stmt 0 view .LVU383
 1429              	.LBE736:
 1430              	.LBE735:
 1431              	.LBE737:
 1432              	.LBE738:
 1433              	.LBE739:
 1434              	.LBE741:
 1435              	.LBE743:
 1436              		.loc 1 189 5 is_stmt 1 view .LVU384
 1437              	.LBB744:
 1438              	.LBI744:
 1439              		.loc 2 501 20 view .LVU385
 1440              	.LBB745:
 1441              		.loc 2 503 3 view .LVU386
 1442              	.LBB746:
 1443              	.LBI746:
 1444              		.loc 3 760 31 view .LVU387
 1445              	.LBB747:
 1446              		.loc 3 761 3 view .LVU388
 1447              		.loc 3 764 3 view .LVU389
 1448              	.LBB748:
 1449              	.LBI748:
 1450              		.loc 4 461 31 view .LVU390
 1451              	.LBB749:
 1452              		.loc 4 463 3 view .LVU391
 1453              		.loc 4 465 3 view .LVU392
 1454              		.syntax unified
 1455              	@ 465 "../ChibiOS/os/common/ext/ARM/CMSIS/Core/Include/cmsis_gcc.h" 1
 1456 005e EFF31183 		MRS r3, basepri
 1457              	@ 0 "" 2
 1458              	.LVL57:
 1459              		.loc 4 466 3 view .LVU393
 1460              		.loc 4 466 3 is_stmt 0 view .LVU394
 1461              		.thumb
 1462              		.syntax unified
ARM GAS  /tmp/ccfrLUJI.s 			page 27


 1463              	.LBE749:
 1464              	.LBE748:
 1465              		.loc 3 768 3 is_stmt 1 view .LVU395
 1466              		.loc 3 768 3 is_stmt 0 view .LVU396
 1467              	.LBE747:
 1468              	.LBE746:
 1469              	.LBE745:
 1470              	.LBE744:
 1471              		.loc 3 783 3 is_stmt 1 view .LVU397
 1472              	.LBB760:
 1473              	.LBB758:
 1474              		.loc 2 503 6 is_stmt 0 view .LVU398
 1475 0062 13B1     		cbz	r3, .L19
 1476              		.loc 2 504 5 is_stmt 1 view .LVU399
 1477              	.LBB750:
 1478              	.LBI750:
 1479              		.loc 2 421 20 view .LVU400
 1480              	.LBB751:
 1481              		.loc 2 423 23 view .LVU401
 1482              		.loc 2 424 34 view .LVU402
 1483              		.loc 2 430 3 view .LVU403
 1484              		.loc 2 430 3 view .LVU404
 1485              		.loc 2 430 3 view .LVU405
 1486              		.loc 2 434 3 view .LVU406
 1487              	.LBB752:
 1488              	.LBI752:
 1489              		.loc 3 830 27 view .LVU407
 1490              	.LBE752:
 1491              	.LBE751:
 1492              	.LBE750:
 1493              	.LBE758:
 1494              	.LBE760:
 1495              		.loc 3 833 3 view .LVU408
 1496              	.LVL58:
 1497              	.LBB761:
 1498              	.LBB759:
 1499              	.LBB757:
 1500              	.LBB756:
 1501              	.LBB755:
 1502              	.LBB753:
 1503              	.LBI753:
 1504              		.loc 4 491 27 view .LVU409
 1505              	.LBB754:
 1506              		.loc 4 493 3 view .LVU410
 1507 0064 0023     		movs	r3, #0
 1508              	.LVL59:
 1509              		.loc 4 493 3 is_stmt 0 view .LVU411
 1510              		.syntax unified
 1511              	@ 493 "../ChibiOS/os/common/ext/ARM/CMSIS/Core/Include/cmsis_gcc.h" 1
 1512 0066 83F31188 		MSR basepri, r3
 1513              	@ 0 "" 2
 1514              	.LVL60:
 1515              		.thumb
 1516              		.syntax unified
 1517              	.L19:
 1518              		.loc 4 493 3 view .LVU412
 1519              	.LBE754:
ARM GAS  /tmp/ccfrLUJI.s 			page 28


 1520              	.LBE753:
 1521              	.LBE755:
 1522              	.LBE756:
 1523              	.LBE757:
 1524              	.LBE759:
 1525              	.LBE761:
 1526              		.loc 1 191 3 is_stmt 1 view .LVU413
 1527              		.loc 1 191 19 view .LVU414
 1528              		.loc 1 194 3 view .LVU415
 1529 006a 0522     		movs	r2, #5
 1530              	.LVL61:
 1531              	.LBB762:
 1532              	.LBB763:
 1533              		.file 5 "../ChibiOS/os/rt/include/chvt.h"
 1534              		.loc 5 106 19 is_stmt 0 view .LVU416
 1535 006c 0023     		movs	r3, #0
 1536 006e 0093     		str	r3, [sp]
 1537              	.LBE763:
 1538              	.LBE762:
 1539              		.loc 1 194 3 view .LVU417
 1540 0070 2260     		str	r2, [r4]
 1541              		.loc 1 196 5 is_stmt 1 view .LVU418
 1542              	.LVL62:
 1543              	.LBB765:
 1544              	.LBI762:
 1545              		.loc 5 104 20 view .LVU419
 1546              	.LBB764:
 1547              		.loc 5 106 3 view .LVU420
 1548              		.loc 5 106 3 is_stmt 0 view .LVU421
 1549              	.LBE764:
 1550              	.LBE765:
 1551              		.loc 1 197 5 is_stmt 1 view .LVU422
 1552              	.LBB766:
 1553              	.LBI766:
 1554              		.loc 5 360 20 view .LVU423
 1555              	.LBE766:
 1556              		.loc 5 363 3 view .LVU424
 1557              	.LBB788:
 1558              	.LBB767:
 1559              	.LBI767:
 1560              		.loc 2 407 20 view .LVU425
 1561              	.LBE767:
 1562              	.LBE788:
 1563              		.loc 2 409 3 view .LVU426
 1564              	.LBB789:
 1565              	.LBB772:
 1566              	.LBB768:
 1567              	.LBI768:
 1568              		.loc 3 806 27 view .LVU427
 1569              	.LBE768:
 1570              	.LBE772:
 1571              	.LBE789:
 1572              		.loc 3 814 3 view .LVU428
 1573              	.LBB790:
 1574              	.LBB773:
 1575              	.LBB771:
 1576              	.LBB769:
ARM GAS  /tmp/ccfrLUJI.s 			page 29


 1577              	.LBI769:
 1578              		.loc 4 491 27 view .LVU429
 1579              	.LBB770:
 1580              		.loc 4 493 3 view .LVU430
 1581 0072 3023     		movs	r3, #48
 1582              		.syntax unified
 1583              	@ 493 "../ChibiOS/os/common/ext/ARM/CMSIS/Core/Include/cmsis_gcc.h" 1
 1584 0074 83F31188 		MSR basepri, r3
 1585              	@ 0 "" 2
 1586              	.LVL63:
 1587              		.loc 4 493 3 is_stmt 0 view .LVU431
 1588              		.thumb
 1589              		.syntax unified
 1590              	.LBE770:
 1591              	.LBE769:
 1592              	.LBE771:
 1593              	.LBE773:
 1594              	.LBE790:
 1595              		.loc 2 410 35 is_stmt 1 view .LVU432
 1596              		.loc 2 411 21 view .LVU433
 1597              		.loc 5 364 3 view .LVU434
 1598              	.LBB791:
 1599              	.LBB774:
 1600              	.LBI774:
 1601              		.loc 5 331 20 view .LVU435
 1602              	.LBB775:
 1603              		.loc 5 334 3 view .LVU436
 1604              	.LBB776:
 1605              	.LBI776:
 1606              		.loc 5 285 20 view .LVU437
 1607              	.LBB777:
 1608              		.loc 5 287 3 view .LVU438
 1609              	.LBB778:
 1610              	.LBI778:
 1611              		.loc 5 248 20 view .LVU439
 1612              	.LBB779:
 1613              		.loc 5 250 21 view .LVU440
 1614              		.loc 5 252 3 view .LVU441
 1615              		.loc 5 252 3 is_stmt 0 view .LVU442
 1616              	.LBE779:
 1617              	.LBE778:
 1618              		.loc 5 287 6 view .LVU443
 1619 0078 009B     		ldr	r3, [sp]
 1620              		.loc 5 288 5 view .LVU444
 1621 007a 6C46     		mov	r4, sp
 1622              		.loc 5 287 6 view .LVU445
 1623 007c 13B1     		cbz	r3, .L20
 1624              		.loc 5 288 5 is_stmt 1 view .LVU446
 1625 007e 2046     		mov	r0, r4
 1626 0080 FFF7FEFF 		bl	chVTDoResetI
 1627              	.LVL64:
 1628              	.L20:
 1629              		.loc 5 288 5 is_stmt 0 view .LVU447
 1630              	.LBE777:
 1631              	.LBE776:
 1632              		.loc 5 335 3 is_stmt 1 view .LVU448
 1633 0084 2046     		mov	r0, r4
ARM GAS  /tmp/ccfrLUJI.s 			page 30


 1634 0086 0D4A     		ldr	r2, .L31+4
 1635 0088 0023     		movs	r3, #0
 1636 008a 0121     		movs	r1, #1
 1637 008c FFF7FEFF 		bl	chVTDoSetI
 1638              	.LVL65:
 1639              		.loc 5 335 3 is_stmt 0 view .LVU449
 1640              	.LBE775:
 1641              	.LBE774:
 1642              	.LBE791:
 1643              		.loc 5 365 3 is_stmt 1 view .LVU450
 1644              	.LBB792:
 1645              	.LBB780:
 1646              	.LBI780:
 1647              		.loc 2 421 20 view .LVU451
 1648              	.LBB781:
 1649              		.loc 2 423 23 view .LVU452
 1650              		.loc 2 424 34 view .LVU453
 1651              		.loc 2 430 3 view .LVU454
 1652              		.loc 2 430 3 view .LVU455
 1653              		.loc 2 430 3 view .LVU456
 1654              		.loc 2 434 3 view .LVU457
 1655              	.LBB782:
 1656              	.LBI782:
 1657              		.loc 3 830 27 view .LVU458
 1658              	.LBE782:
 1659              	.LBE781:
 1660              	.LBE780:
 1661              	.LBE792:
 1662              		.loc 3 833 3 view .LVU459
 1663              	.LBB793:
 1664              	.LBB787:
 1665              	.LBB786:
 1666              	.LBB785:
 1667              	.LBB783:
 1668              	.LBI783:
 1669              		.loc 4 491 27 view .LVU460
 1670              	.LBB784:
 1671              		.loc 4 493 3 view .LVU461
 1672 0090 0024     		movs	r4, #0
 1673              		.syntax unified
 1674              	@ 493 "../ChibiOS/os/common/ext/ARM/CMSIS/Core/Include/cmsis_gcc.h" 1
 1675 0092 84F31188 		MSR basepri, r4
 1676              	@ 0 "" 2
 1677              	.LVL66:
 1678              		.loc 4 493 3 is_stmt 0 view .LVU462
 1679              		.thumb
 1680              		.syntax unified
 1681              	.LBE784:
 1682              	.LBE783:
 1683              	.LBE785:
 1684              	.LBE786:
 1685              	.LBE787:
 1686              	.LBE793:
 1687              		.loc 1 198 5 is_stmt 1 view .LVU463
 1688 0096 0A20     		movs	r0, #10
 1689 0098 FFF7FEFF 		bl	chThdSleep
 1690              	.LVL67:
ARM GAS  /tmp/ccfrLUJI.s 			page 31


 1691              		.loc 1 200 5 view .LVU464
 1692              	.LBB794:
 1693              	.LBI794:
 1694              		.loc 5 265 20 view .LVU465
 1695              	.LBB795:
 1696              		.loc 5 266 3 view .LVU466
 1697              		.loc 5 268 3 view .LVU467
 1698              	.LBB796:
 1699              	.LBI796:
 1700              		.loc 2 407 20 view .LVU468
 1701              	.LBE796:
 1702              	.LBE795:
 1703              	.LBE794:
 1704              		.loc 2 409 3 view .LVU469
 1705              	.LBB817:
 1706              	.LBB813:
 1707              	.LBB801:
 1708              	.LBB797:
 1709              	.LBI797:
 1710              		.loc 3 806 27 view .LVU470
 1711              	.LBE797:
 1712              	.LBE801:
 1713              	.LBE813:
 1714              	.LBE817:
 1715              		.loc 3 814 3 view .LVU471
 1716              	.LBB818:
 1717              	.LBB814:
 1718              	.LBB802:
 1719              	.LBB800:
 1720              	.LBB798:
 1721              	.LBI798:
 1722              		.loc 4 491 27 view .LVU472
 1723              	.LBB799:
 1724              		.loc 4 493 3 view .LVU473
 1725 009c 3023     		movs	r3, #48
 1726              		.syntax unified
 1727              	@ 493 "../ChibiOS/os/common/ext/ARM/CMSIS/Core/Include/cmsis_gcc.h" 1
 1728 009e 83F31188 		MSR basepri, r3
 1729              	@ 0 "" 2
 1730              	.LVL68:
 1731              		.loc 4 493 3 is_stmt 0 view .LVU474
 1732              		.thumb
 1733              		.syntax unified
 1734              	.LBE799:
 1735              	.LBE798:
 1736              	.LBE800:
 1737              	.LBE802:
 1738              	.LBE814:
 1739              	.LBE818:
 1740              		.loc 2 410 35 is_stmt 1 view .LVU475
 1741              		.loc 2 411 21 view .LVU476
 1742              	.LBB819:
 1743              	.LBB815:
 1744              		.loc 5 269 3 view .LVU477
 1745              	.LBB803:
 1746              	.LBI803:
 1747              		.loc 5 248 20 view .LVU478
ARM GAS  /tmp/ccfrLUJI.s 			page 32


 1748              	.LBB804:
 1749              		.loc 5 250 21 view .LVU479
 1750              		.loc 5 252 3 view .LVU480
 1751              		.loc 5 252 27 is_stmt 0 view .LVU481
 1752 00a2 0098     		ldr	r0, [sp]
 1753              	.LVL69:
 1754              		.loc 5 252 27 view .LVU482
 1755              	.LBE804:
 1756              	.LBE803:
 1757              		.loc 5 270 3 is_stmt 1 view .LVU483
 1758              	.LBB805:
 1759              	.LBI805:
 1760              		.loc 2 421 20 view .LVU484
 1761              	.LBB806:
 1762              		.loc 2 423 23 view .LVU485
 1763              		.loc 2 424 34 view .LVU486
 1764              		.loc 2 430 3 view .LVU487
 1765              		.loc 2 430 3 view .LVU488
 1766              		.loc 2 430 3 view .LVU489
 1767              		.loc 2 434 3 view .LVU490
 1768              	.LBB807:
 1769              	.LBI807:
 1770              		.loc 3 830 27 view .LVU491
 1771              	.LBE807:
 1772              	.LBE806:
 1773              	.LBE805:
 1774              	.LBE815:
 1775              	.LBE819:
 1776              		.loc 3 833 3 view .LVU492
 1777              	.LBB820:
 1778              	.LBB816:
 1779              	.LBB812:
 1780              	.LBB811:
 1781              	.LBB810:
 1782              	.LBB808:
 1783              	.LBI808:
 1784              		.loc 4 491 27 view .LVU493
 1785              	.LBB809:
 1786              		.loc 4 493 3 view .LVU494
 1787              		.syntax unified
 1788              	@ 493 "../ChibiOS/os/common/ext/ARM/CMSIS/Core/Include/cmsis_gcc.h" 1
 1789 00a4 84F31188 		MSR basepri, r4
 1790              	@ 0 "" 2
 1791              	.LVL70:
 1792              		.loc 4 493 3 is_stmt 0 view .LVU495
 1793              		.thumb
 1794              		.syntax unified
 1795              	.LBE809:
 1796              	.LBE808:
 1797              	.LBE810:
 1798              	.LBE811:
 1799              	.LBE812:
 1800              		.loc 5 272 3 is_stmt 1 view .LVU496
 1801              		.loc 5 272 3 is_stmt 0 view .LVU497
 1802              	.LBE816:
 1803              	.LBE820:
 1804              		.loc 1 200 5 view .LVU498
ARM GAS  /tmp/ccfrLUJI.s 			page 33


 1805 00a8 B0FA80F0 		clz	r0, r0
 1806              	.LVL71:
 1807              		.loc 1 200 5 view .LVU499
 1808 00ac 0449     		ldr	r1, .L31+8
 1809 00ae 4009     		lsrs	r0, r0, #5
 1810 00b0 FFF7FEFF 		bl	__test_assert
 1811              	.LVL72:
 1812              		.loc 1 200 5 is_stmt 1 view .LVU500
 1813              		.loc 1 203 1 is_stmt 0 view .LVU501
 1814 00b4 07B0     		add	sp, sp, #28
 1815              		.cfi_def_cfa_offset 12
 1816              		@ sp needed
 1817 00b6 30BD     		pop	{r4, r5, pc}
 1818              	.L32:
 1819              		.align	2
 1820              	.L31:
 1821 00b8 00000000 		.word	chtest
 1822 00bc 00000000 		.word	vtcb
 1823 00c0 00000000 		.word	.LC4
 1824              		.cfi_endproc
 1825              	.LFE406:
 1826              		.size	rt_test_002_002_execute, .-rt_test_002_002_execute
 1827              		.global	rt_test_sequence_002
 1828              		.section	.rodata.str1.4,"aMS",%progbits,1
 1829              		.align	2
 1830              	.LC5:
 1831 0000 53797374 		.ascii	"System layer and port interface\000"
 1831      656D206C 
 1831      61796572 
 1831      20616E64 
 1831      20706F72 
 1832              		.global	rt_test_sequence_002_array
 1833              		.align	2
 1834              	.LC6:
 1835 0020 496E7465 		.ascii	"Interrupts handling functionality\000"
 1835      72727570 
 1835      74732068 
 1835      616E646C 
 1835      696E6720 
 1836 0042 0000     		.align	2
 1837              	.LC7:
 1838 0044 43726974 		.ascii	"Critical zones functionality\000"
 1838      6963616C 
 1838      207A6F6E 
 1838      65732066 
 1838      756E6374 
 1839 0061 000000   		.align	2
 1840              	.LC8:
 1841 0064 53797374 		.ascii	"System integrity functionality\000"
 1841      656D2069 
 1841      6E746567 
 1841      72697479 
 1841      2066756E 
 1842              		.section	.rodata.rt_test_002_001,"a"
 1843              		.align	2
 1844              		.type	rt_test_002_001, %object
 1845              		.size	rt_test_002_001, 16
ARM GAS  /tmp/ccfrLUJI.s 			page 34


 1846              	rt_test_002_001:
 1847 0000 64000000 		.word	.LC8
 1848 0004 00000000 		.word	0
 1849 0008 00000000 		.word	0
 1850 000c 00000000 		.word	rt_test_002_001_execute
 1851              		.section	.rodata.rt_test_002_002,"a"
 1852              		.align	2
 1853              		.type	rt_test_002_002, %object
 1854              		.size	rt_test_002_002, 16
 1855              	rt_test_002_002:
 1856 0000 44000000 		.word	.LC7
 1857 0004 00000000 		.word	0
 1858 0008 00000000 		.word	0
 1859 000c 00000000 		.word	rt_test_002_002_execute
 1860              		.section	.rodata.rt_test_002_003,"a"
 1861              		.align	2
 1862              		.type	rt_test_002_003, %object
 1863              		.size	rt_test_002_003, 16
 1864              	rt_test_002_003:
 1865 0000 20000000 		.word	.LC6
 1866 0004 00000000 		.word	0
 1867 0008 00000000 		.word	0
 1868 000c 00000000 		.word	rt_test_002_003_execute
 1869              		.section	.rodata.rt_test_sequence_002,"a"
 1870              		.align	2
 1871              		.type	rt_test_sequence_002, %object
 1872              		.size	rt_test_sequence_002, 8
 1873              	rt_test_sequence_002:
 1874 0000 00000000 		.word	.LC5
 1875 0004 00000000 		.word	rt_test_sequence_002_array
 1876              		.section	.rodata.rt_test_sequence_002_array,"a"
 1877              		.align	2
 1878              		.type	rt_test_sequence_002_array, %object
 1879              		.size	rt_test_sequence_002_array, 16
 1880              	rt_test_sequence_002_array:
 1881 0000 00000000 		.word	rt_test_002_001
 1882 0004 00000000 		.word	rt_test_002_002
 1883 0008 00000000 		.word	rt_test_002_003
 1884 000c 00000000 		.word	0
 1885              		.text
 1886              	.Letext0:
 1887              		.file 6 "/opt/gcc-arm-none-eabi/gcc-arm-none-eabi-10.3-2021.07/lib/gcc/arm-none-eabi/10.3.1/includ
 1888              		.file 7 "/opt/gcc-arm-none-eabi/gcc-arm-none-eabi-10.3-2021.07/arm-none-eabi/include/machine/_defa
 1889              		.file 8 "/opt/gcc-arm-none-eabi/gcc-arm-none-eabi-10.3-2021.07/arm-none-eabi/include/sys/_stdint.h
 1890              		.file 9 "../ChibiOS/os/common/ports/ARM-common/chtypes.h"
 1891              		.file 10 "../ChibiOS/os/rt/include/chearly.h"
 1892              		.file 11 "../ChibiOS/os/rt/include/chtime.h"
 1893              		.file 12 "../ChibiOS/os/rt/include/chlists.h"
 1894              		.file 13 "../ChibiOS/os/rt/include/chobjects.h"
 1895              		.file 14 "../ChibiOS/os/hal/include/hal_streams.h"
 1896              		.file 15 "../ChibiOS/os/test/include/ch_test.h"
 1897              		.file 16 "../ChibiOS/test/rt/source/test/rt_test_sequence_002.h"
 1898              		.file 17 "../ChibiOS/os/rt/include/chthreads.h"