ARM GAS  /tmp/cc7i0MP1.s 			page 1


   1              		.cpu cortex-m4
   2              		.eabi_attribute 20, 1
   3              		.eabi_attribute 21, 1
   4              		.eabi_attribute 23, 3
   5              		.eabi_attribute 24, 1
   6              		.eabi_attribute 25, 1
   7              		.eabi_attribute 26, 1
   8              		.eabi_attribute 30, 2
   9              		.eabi_attribute 34, 1
  10              		.eabi_attribute 18, 4
  11              		.file	"stm32_isr.c"
  12              		.text
  13              	.Ltext0:
  14              		.cfi_sections	.debug_frame
  15              		.section	.text.VectorD8,"ax",%progbits
  16              		.align	1
  17              		.p2align 4,,15
  18              		.global	VectorD8
  19              		.arch armv7e-m
  20              		.syntax unified
  21              		.thumb
  22              		.thumb_func
  23              		.fpu softvfp
  24              		.type	VectorD8, %function
  25              	VectorD8:
  26              	.LFB428:
  27              		.file 1 "../ChibiOS/os/hal/ports/STM32/LLD/USART/stm32_usart2.inc"
  28              		.loc 1 85 40 view -0
  29              		.cfi_startproc
  30              		@ args = 0, pretend = 0, frame = 0
  31              		@ frame_needed = 0, uses_anonymous_args = 0
  32              		.loc 1 87 3 view .LVU1
  33              		.loc 1 87 3 view .LVU2
  34              		.loc 1 87 3 view .LVU3
  35              		.loc 1 87 3 view .LVU4
  36              		.loc 1 87 3 view .LVU5
  37              		.loc 1 87 22 view .LVU6
  38              		.loc 1 91 3 view .LVU7
  39              		.loc 1 85 40 is_stmt 0 view .LVU8
  40 0000 08B5     		push	{r3, lr}
  41              		.cfi_def_cfa_offset 8
  42              		.cfi_offset 3, -8
  43              		.cfi_offset 14, -4
  44              		.loc 1 91 3 view .LVU9
  45 0002 0348     		ldr	r0, .L4
  46 0004 FFF7FEFF 		bl	sd_lld_serve_interrupt
  47              	.LVL0:
  48              		.loc 1 107 3 is_stmt 1 view .LVU10
  49              		.loc 1 107 3 view .LVU11
  50              		.loc 1 107 3 view .LVU12
  51              		.loc 1 107 3 view .LVU13
  52              		.loc 1 107 3 view .LVU14
  53              		.loc 1 108 1 is_stmt 0 view .LVU15
  54 0008 BDE80840 		pop	{r3, lr}
  55              		.cfi_restore 14
  56              		.cfi_restore 3
  57              		.cfi_def_cfa_offset 0
ARM GAS  /tmp/cc7i0MP1.s 			page 2


  58              		.loc 1 107 3 view .LVU16
  59 000c FFF7FEBF 		b	__port_irq_epilogue
  60              	.LVL1:
  61              	.L5:
  62              		.align	2
  63              	.L4:
  64 0010 00000000 		.word	SD2
  65              		.cfi_endproc
  66              	.LFE428:
  67              		.size	VectorD8, .-VectorD8
  68              		.section	.text.VectorB0,"ax",%progbits
  69              		.align	1
  70              		.p2align 4,,15
  71              		.global	VectorB0
  72              		.syntax unified
  73              		.thumb
  74              		.thumb_func
  75              		.fpu softvfp
  76              		.type	VectorB0, %function
  77              	VectorB0:
  78              	.LFB441:
  79              		.file 2 "../ChibiOS/os/hal/ports/STM32/LLD/TIMv1/stm32_tim2.inc"
  80              		.loc 2 100 38 is_stmt 1 view -0
  81              		.cfi_startproc
  82              		@ args = 0, pretend = 0, frame = 0
  83              		@ frame_needed = 0, uses_anonymous_args = 0
  84              		.loc 2 102 3 view .LVU18
  85              		.loc 2 102 3 view .LVU19
  86              		.loc 2 102 3 view .LVU20
  87              		.loc 2 102 3 view .LVU21
  88              		.loc 2 102 3 view .LVU22
  89              		.loc 2 102 22 view .LVU23
  90              		.loc 2 121 3 view .LVU24
  91              		.loc 2 100 38 is_stmt 0 view .LVU25
  92 0000 08B5     		push	{r3, lr}
  93              		.cfi_def_cfa_offset 8
  94              		.cfi_offset 3, -8
  95              		.cfi_offset 14, -4
  96              		.loc 2 121 3 view .LVU26
  97 0002 FFF7FEFF 		bl	st_lld_serve_interrupt
  98              	.LVL2:
  99              		.loc 2 125 3 is_stmt 1 view .LVU27
 100              		.loc 2 125 3 view .LVU28
 101              		.loc 2 125 3 view .LVU29
 102              		.loc 2 125 3 view .LVU30
 103              		.loc 2 125 3 view .LVU31
 104              		.loc 2 126 1 is_stmt 0 view .LVU32
 105 0006 BDE80840 		pop	{r3, lr}
 106              		.cfi_restore 14
 107              		.cfi_restore 3
 108              		.cfi_def_cfa_offset 0
 109              		.loc 2 125 3 view .LVU33
 110 000a FFF7FEBF 		b	__port_irq_epilogue
 111              	.LVL3:
 112              		.cfi_endproc
 113              	.LFE441:
 114              		.size	VectorB0, .-VectorB0
ARM GAS  /tmp/cc7i0MP1.s 			page 3


 115 000e 00BF     		.section	.text.irqInit,"ax",%progbits
 116              		.align	1
 117              		.p2align 4,,15
 118              		.global	irqInit
 119              		.syntax unified
 120              		.thumb
 121              		.thumb_func
 122              		.fpu softvfp
 123              		.type	irqInit, %function
 124              	irqInit:
 125              	.LFB454:
 126              		.file 3 "../ChibiOS/os/hal/ports/STM32/STM32L4xx/stm32_isr.c"
 127              		.loc 3 92 20 is_stmt 1 view -0
 128              		.cfi_startproc
 129              		@ args = 0, pretend = 0, frame = 0
 130              		@ frame_needed = 0, uses_anonymous_args = 0
 131              		.loc 3 94 3 view .LVU35
 132              		.file 4 "../ChibiOS/os/hal/ports/STM32/LLD/EXTIv1/stm32_exti0.inc"
 133              		.loc 4 58 1 view .LVU36
 134              		.loc 3 95 3 view .LVU37
 135              		.file 5 "../ChibiOS/os/hal/ports/STM32/LLD/EXTIv1/stm32_exti1.inc"
 136              		.loc 5 58 1 view .LVU38
 137              		.loc 3 96 3 view .LVU39
 138              		.file 6 "../ChibiOS/os/hal/ports/STM32/LLD/EXTIv1/stm32_exti2.inc"
 139              		.loc 6 58 1 view .LVU40
 140              		.loc 3 97 3 view .LVU41
 141              		.file 7 "../ChibiOS/os/hal/ports/STM32/LLD/EXTIv1/stm32_exti3.inc"
 142              		.loc 7 58 1 view .LVU42
 143              		.loc 3 98 3 view .LVU43
 144              		.file 8 "../ChibiOS/os/hal/ports/STM32/LLD/EXTIv1/stm32_exti4.inc"
 145              		.loc 8 58 1 view .LVU44
 146              		.loc 3 99 3 view .LVU45
 147              		.file 9 "../ChibiOS/os/hal/ports/STM32/LLD/EXTIv1/stm32_exti5_9.inc"
 148              		.loc 9 58 1 view .LVU46
 149              		.loc 3 100 3 view .LVU47
 150              		.file 10 "../ChibiOS/os/hal/ports/STM32/LLD/EXTIv1/stm32_exti10_15.inc"
 151              		.loc 10 58 1 view .LVU48
 152              		.loc 3 101 3 view .LVU49
 153              		.file 11 "../ChibiOS/os/hal/ports/STM32/LLD/EXTIv1/stm32_exti16-35_38.inc"
 154              		.loc 11 60 1 view .LVU50
 155              		.loc 3 102 3 view .LVU51
 156              		.file 12 "../ChibiOS/os/hal/ports/STM32/LLD/EXTIv1/stm32_exti18.inc"
 157              		.loc 12 58 1 view .LVU52
 158              		.loc 3 103 3 view .LVU53
 159              		.file 13 "../ChibiOS/os/hal/ports/STM32/LLD/EXTIv1/stm32_exti19.inc"
 160              		.loc 13 58 1 view .LVU54
 161              		.loc 3 104 3 view .LVU55
 162              		.file 14 "../ChibiOS/os/hal/ports/STM32/LLD/EXTIv1/stm32_exti21_22.inc"
 163              		.loc 14 58 1 view .LVU56
 164              		.loc 3 106 3 view .LVU57
 165              		.file 15 "../ChibiOS/os/hal/ports/STM32/LLD/TIMv1/stm32_tim1_15_16_17.inc"
 166              		.loc 15 170 1 view .LVU58
 167              		.loc 3 107 3 view .LVU59
 168              	.LBB102:
 169              	.LBI102:
 170              		.loc 2 78 20 view .LVU60
 171              	.LBB103:
ARM GAS  /tmp/cc7i0MP1.s 			page 4


 172              		.loc 2 80 3 view .LVU61
 173              	.LBE103:
 174              	.LBE102:
 175              		.loc 3 92 20 is_stmt 0 view .LVU62
 176 0000 08B5     		push	{r3, lr}
 177              		.cfi_def_cfa_offset 8
 178              		.cfi_offset 3, -8
 179              		.cfi_offset 14, -4
 180              	.LBB105:
 181              	.LBB104:
 182              		.loc 2 80 3 view .LVU63
 183 0002 0721     		movs	r1, #7
 184 0004 1C20     		movs	r0, #28
 185 0006 FFF7FEFF 		bl	nvicEnableVector
 186              	.LVL4:
 187              	.LBE104:
 188              	.LBE105:
 189              		.loc 3 108 3 is_stmt 1 view .LVU64
 190              		.file 16 "../ChibiOS/os/hal/ports/STM32/LLD/TIMv1/stm32_tim3.inc"
 191              		.loc 16 82 1 view .LVU65
 192              		.loc 3 109 3 view .LVU66
 193              		.file 17 "../ChibiOS/os/hal/ports/STM32/LLD/TIMv1/stm32_tim4.inc"
 194              		.loc 17 82 1 view .LVU67
 195              		.loc 3 110 3 view .LVU68
 196              		.file 18 "../ChibiOS/os/hal/ports/STM32/LLD/TIMv1/stm32_tim5.inc"
 197              		.loc 18 82 1 view .LVU69
 198              		.loc 3 111 3 view .LVU70
 199              		.file 19 "../ChibiOS/os/hal/ports/STM32/LLD/TIMv1/stm32_tim6.inc"
 200              		.loc 19 82 1 view .LVU71
 201              		.loc 3 112 3 view .LVU72
 202              		.file 20 "../ChibiOS/os/hal/ports/STM32/LLD/TIMv1/stm32_tim7.inc"
 203              		.loc 20 82 1 view .LVU73
 204              		.loc 3 113 3 view .LVU74
 205              		.file 21 "../ChibiOS/os/hal/ports/STM32/LLD/TIMv1/stm32_tim8.inc"
 206              		.loc 21 91 1 view .LVU75
 207              		.loc 3 115 3 view .LVU76
 208              		.file 22 "../ChibiOS/os/hal/ports/STM32/LLD/USART/stm32_usart1.inc"
 209              		.loc 22 67 1 view .LVU77
 210              		.loc 3 116 3 view .LVU78
 211              	.LBB106:
 212              	.LBI106:
 213              		.loc 1 63 20 view .LVU79
 214              	.LBB107:
 215              		.loc 1 65 3 view .LVU80
 216              	.LBE107:
 217              	.LBE106:
 218              		.loc 3 121 1 is_stmt 0 view .LVU81
 219 000a BDE80840 		pop	{r3, lr}
 220              		.cfi_restore 14
 221              		.cfi_restore 3
 222              		.cfi_def_cfa_offset 0
 223              	.LBB109:
 224              	.LBB108:
 225              		.loc 1 65 3 view .LVU82
 226 000e 0C21     		movs	r1, #12
 227 0010 2620     		movs	r0, #38
 228 0012 FFF7FEBF 		b	nvicEnableVector
ARM GAS  /tmp/cc7i0MP1.s 			page 5


 229              	.LVL5:
 230              	.LBE108:
 231              	.LBE109:
 232              		.cfi_endproc
 233              	.LFE454:
 234              		.size	irqInit, .-irqInit
 235 0016 00BF     		.section	.text.irqDeinit,"ax",%progbits
 236              		.align	1
 237              		.p2align 4,,15
 238              		.global	irqDeinit
 239              		.syntax unified
 240              		.thumb
 241              		.thumb_func
 242              		.fpu softvfp
 243              		.type	irqDeinit, %function
 244              	irqDeinit:
 245              	.LFB455:
 246              		.loc 3 128 22 is_stmt 1 view -0
 247              		.cfi_startproc
 248              		@ args = 0, pretend = 0, frame = 0
 249              		@ frame_needed = 0, uses_anonymous_args = 0
 250              		.loc 3 130 3 view .LVU84
 251              		.loc 4 64 1 view .LVU85
 252              		.loc 3 131 3 view .LVU86
 253              		.loc 5 64 1 view .LVU87
 254              		.loc 3 132 3 view .LVU88
 255              		.loc 6 64 1 view .LVU89
 256              		.loc 3 133 3 view .LVU90
 257              		.loc 7 64 1 view .LVU91
 258              		.loc 3 134 3 view .LVU92
 259              		.loc 8 64 1 view .LVU93
 260              		.loc 3 135 3 view .LVU94
 261              		.loc 9 64 1 view .LVU95
 262              		.loc 3 136 3 view .LVU96
 263              		.loc 10 64 1 view .LVU97
 264              		.loc 3 137 3 view .LVU98
 265              		.loc 11 68 1 view .LVU99
 266              		.loc 3 138 3 view .LVU100
 267              		.loc 12 64 1 view .LVU101
 268              		.loc 3 139 3 view .LVU102
 269              		.loc 13 64 1 view .LVU103
 270              		.loc 3 140 3 view .LVU104
 271              		.loc 14 64 1 view .LVU105
 272              		.loc 3 142 3 view .LVU106
 273              		.loc 15 185 1 view .LVU107
 274              		.loc 3 143 3 view .LVU108
 275              	.LBB110:
 276              	.LBI110:
 277              		.loc 2 84 20 view .LVU109
 278              	.LBB111:
 279              		.loc 2 86 3 view .LVU110
 280              	.LBE111:
 281              	.LBE110:
 282              		.loc 3 128 22 is_stmt 0 view .LVU111
 283 0000 08B5     		push	{r3, lr}
 284              		.cfi_def_cfa_offset 8
 285              		.cfi_offset 3, -8
ARM GAS  /tmp/cc7i0MP1.s 			page 6


 286              		.cfi_offset 14, -4
 287              	.LBB113:
 288              	.LBB112:
 289              		.loc 2 86 3 view .LVU112
 290 0002 1C20     		movs	r0, #28
 291 0004 FFF7FEFF 		bl	nvicDisableVector
 292              	.LVL6:
 293              	.LBE112:
 294              	.LBE113:
 295              		.loc 3 144 3 is_stmt 1 view .LVU113
 296              		.loc 16 88 1 view .LVU114
 297              		.loc 3 145 3 view .LVU115
 298              		.loc 17 88 1 view .LVU116
 299              		.loc 3 146 3 view .LVU117
 300              		.loc 18 88 1 view .LVU118
 301              		.loc 3 147 3 view .LVU119
 302              		.loc 19 88 1 view .LVU120
 303              		.loc 3 148 3 view .LVU121
 304              		.loc 20 88 1 view .LVU122
 305              		.loc 3 149 3 view .LVU123
 306              		.loc 21 98 1 view .LVU124
 307              		.loc 3 151 3 view .LVU125
 308              		.loc 22 73 1 view .LVU126
 309              		.loc 3 152 3 view .LVU127
 310              	.LBB114:
 311              	.LBI114:
 312              		.loc 1 69 20 view .LVU128
 313              	.LBB115:
 314              		.loc 1 71 3 view .LVU129
 315              	.LBE115:
 316              	.LBE114:
 317              		.loc 3 157 1 is_stmt 0 view .LVU130
 318 0008 BDE80840 		pop	{r3, lr}
 319              		.cfi_restore 14
 320              		.cfi_restore 3
 321              		.cfi_def_cfa_offset 0
 322              	.LBB117:
 323              	.LBB116:
 324              		.loc 1 71 3 view .LVU131
 325 000c 2620     		movs	r0, #38
 326 000e FFF7FEBF 		b	nvicDisableVector
 327              	.LVL7:
 328              	.LBE116:
 329              	.LBE117:
 330              		.cfi_endproc
 331              	.LFE455:
 332              		.size	irqDeinit, .-irqDeinit
 333 0012 00BF     		.text
 334              	.Letext0:
 335              		.file 23 "/opt/gcc-arm-none-eabi/gcc-arm-none-eabi-10.3-2021.07/lib/gcc/arm-none-eabi/10.3.1/inclu
 336              		.file 24 "/opt/gcc-arm-none-eabi/gcc-arm-none-eabi-10.3-2021.07/arm-none-eabi/include/machine/_def
 337              		.file 25 "/opt/gcc-arm-none-eabi/gcc-arm-none-eabi-10.3-2021.07/arm-none-eabi/include/sys/_stdint.
 338              		.file 26 "../ChibiOS/os/common/ports/ARM-common/chtypes.h"
 339              		.file 27 "../ChibiOS/os/rt/include/chearly.h"
 340              		.file 28 "../ChibiOS/os/rt/include/chobjects.h"
 341              		.file 29 "../ChibiOS/os/rt/include/chrfcu.h"
 342              		.file 30 "../ChibiOS/os/rt/include/chdebug.h"
ARM GAS  /tmp/cc7i0MP1.s 			page 7


 343              		.file 31 "../ChibiOS/os/rt/include/chtime.h"
 344              		.file 32 "../ChibiOS/os/rt/include/chlists.h"
 345              		.file 33 "../ChibiOS/os/common/ext/ST/STM32L4xx/stm32l432xx.h"
 346              		.file 34 "../ChibiOS/os/common/ports/ARMv7-M/chcore.h"
 347              		.file 35 "../ChibiOS/os/rt/include/chsem.h"
 348              		.file 36 "../ChibiOS/os/rt/include/chmtx.h"
 349              		.file 37 "../ChibiOS/os/rt/include/chevents.h"
 350              		.file 38 "../ChibiOS/os/hal/include/hal_queues.h"
 351              		.file 39 "../ChibiOS/os/hal/include/hal_serial.h"
 352              		.file 40 "../ChibiOS/os/hal/ports/STM32/LLD/USART/stm32_lpuart1.inc"
 353              		.file 41 "../ChibiOS/os/hal/ports/STM32/LLD/USART/stm32_uart5.inc"
 354              		.file 42 "../ChibiOS/os/hal/ports/STM32/LLD/USART/stm32_uart4.inc"
 355              		.file 43 "../ChibiOS/os/hal/ports/STM32/LLD/USART/stm32_usart3.inc"
 356              		.file 44 "../ChibiOS/os/hal/ports/common/ARMCMx/nvic.h"
 357              		.file 45 "../ChibiOS/os/hal/ports/STM32/LLD/SYSTICKv1/hal_st_lld.h"
 358              		.file 46 "../ChibiOS/os/hal/ports/STM32/LLD/USARTv2/hal_serial_lld.h"
 359              		.section	.debug_info,"",%progbits
 360              	.Ldebug_info0:
 361 0000 5B0F0000 		.4byte	0xf5b
 362 0004 0400     		.2byte	0x4
 363 0006 00000000 		.4byte	.Ldebug_abbrev0
 364 000a 04       		.byte	0x4
 365 000b 01       		.uleb128 0x1
 366 000c 310A0000 		.4byte	.LASF219
 367 0010 0C       		.byte	0xc
 368 0011 A9030000 		.4byte	.LASF220
 369 0015 31090000 		.4byte	.LASF221
 370 0019 60000000 		.4byte	.Ldebug_ranges0+0x60
 371 001d 00000000 		.4byte	0
 372 0021 00000000 		.4byte	.Ldebug_line0
 373 0025 02       		.uleb128 0x2
 374 0026 04       		.byte	0x4
 375 0027 05       		.byte	0x5
 376 0028 696E7400 		.ascii	"int\000"
 377 002c 03       		.uleb128 0x3
 378 002d 39000000 		.4byte	.LASF4
 379 0031 17       		.byte	0x17
 380 0032 D1       		.byte	0xd1
 381 0033 17       		.byte	0x17
 382 0034 3D000000 		.4byte	0x3d
 383 0038 04       		.uleb128 0x4
 384 0039 2C000000 		.4byte	0x2c
 385 003d 05       		.uleb128 0x5
 386 003e 04       		.byte	0x4
 387 003f 07       		.byte	0x7
 388 0040 23030000 		.4byte	.LASF0
 389 0044 05       		.uleb128 0x5
 390 0045 08       		.byte	0x8
 391 0046 05       		.byte	0x5
 392 0047 8A010000 		.4byte	.LASF1
 393 004b 05       		.uleb128 0x5
 394 004c 08       		.byte	0x8
 395 004d 04       		.byte	0x4
 396 004e 9D050000 		.4byte	.LASF2
 397 0052 05       		.uleb128 0x5
 398 0053 01       		.byte	0x1
 399 0054 06       		.byte	0x6
ARM GAS  /tmp/cc7i0MP1.s 			page 8


 400 0055 98010000 		.4byte	.LASF3
 401 0059 03       		.uleb128 0x3
 402 005a 98000000 		.4byte	.LASF5
 403 005e 18       		.byte	0x18
 404 005f 2B       		.byte	0x2b
 405 0060 18       		.byte	0x18
 406 0061 65000000 		.4byte	0x65
 407 0065 05       		.uleb128 0x5
 408 0066 01       		.byte	0x1
 409 0067 08       		.byte	0x8
 410 0068 D8060000 		.4byte	.LASF6
 411 006c 05       		.uleb128 0x5
 412 006d 02       		.byte	0x2
 413 006e 05       		.byte	0x5
 414 006f 1B070000 		.4byte	.LASF7
 415 0073 03       		.uleb128 0x3
 416 0074 8B080000 		.4byte	.LASF8
 417 0078 18       		.byte	0x18
 418 0079 39       		.byte	0x39
 419 007a 19       		.byte	0x19
 420 007b 7F000000 		.4byte	0x7f
 421 007f 05       		.uleb128 0x5
 422 0080 02       		.byte	0x2
 423 0081 07       		.byte	0x7
 424 0082 E9030000 		.4byte	.LASF9
 425 0086 03       		.uleb128 0x3
 426 0087 BD080000 		.4byte	.LASF10
 427 008b 18       		.byte	0x18
 428 008c 4D       		.byte	0x4d
 429 008d 18       		.byte	0x18
 430 008e 92000000 		.4byte	0x92
 431 0092 05       		.uleb128 0x5
 432 0093 04       		.byte	0x4
 433 0094 05       		.byte	0x5
 434 0095 07020000 		.4byte	.LASF11
 435 0099 03       		.uleb128 0x3
 436 009a BF020000 		.4byte	.LASF12
 437 009e 18       		.byte	0x18
 438 009f 4F       		.byte	0x4f
 439 00a0 19       		.byte	0x19
 440 00a1 A5000000 		.4byte	0xa5
 441 00a5 05       		.uleb128 0x5
 442 00a6 04       		.byte	0x4
 443 00a7 07       		.byte	0x7
 444 00a8 43080000 		.4byte	.LASF13
 445 00ac 03       		.uleb128 0x3
 446 00ad 08060000 		.4byte	.LASF14
 447 00b1 18       		.byte	0x18
 448 00b2 69       		.byte	0x69
 449 00b3 19       		.byte	0x19
 450 00b4 B8000000 		.4byte	0xb8
 451 00b8 05       		.uleb128 0x5
 452 00b9 08       		.byte	0x8
 453 00ba 07       		.byte	0x7
 454 00bb 0F010000 		.4byte	.LASF15
 455 00bf 03       		.uleb128 0x3
 456 00c0 F1090000 		.4byte	.LASF16
ARM GAS  /tmp/cc7i0MP1.s 			page 9


 457 00c4 19       		.byte	0x19
 458 00c5 18       		.byte	0x18
 459 00c6 13       		.byte	0x13
 460 00c7 59000000 		.4byte	0x59
 461 00cb 06       		.uleb128 0x6
 462 00cc BF000000 		.4byte	0xbf
 463 00d0 03       		.uleb128 0x3
 464 00d1 30030000 		.4byte	.LASF17
 465 00d5 19       		.byte	0x19
 466 00d6 24       		.byte	0x24
 467 00d7 14       		.byte	0x14
 468 00d8 73000000 		.4byte	0x73
 469 00dc 04       		.uleb128 0x4
 470 00dd D0000000 		.4byte	0xd0
 471 00e1 03       		.uleb128 0x3
 472 00e2 D0060000 		.4byte	.LASF18
 473 00e6 19       		.byte	0x19
 474 00e7 2C       		.byte	0x2c
 475 00e8 13       		.byte	0x13
 476 00e9 86000000 		.4byte	0x86
 477 00ed 03       		.uleb128 0x3
 478 00ee F7070000 		.4byte	.LASF19
 479 00f2 19       		.byte	0x19
 480 00f3 30       		.byte	0x30
 481 00f4 14       		.byte	0x14
 482 00f5 99000000 		.4byte	0x99
 483 00f9 04       		.uleb128 0x4
 484 00fa ED000000 		.4byte	0xed
 485 00fe 03       		.uleb128 0x3
 486 00ff 8F000000 		.4byte	.LASF20
 487 0103 19       		.byte	0x19
 488 0104 3C       		.byte	0x3c
 489 0105 14       		.byte	0x14
 490 0106 AC000000 		.4byte	0xac
 491 010a 04       		.uleb128 0x4
 492 010b FE000000 		.4byte	0xfe
 493 010f 03       		.uleb128 0x3
 494 0110 07080000 		.4byte	.LASF21
 495 0114 1A       		.byte	0x1a
 496 0115 48       		.byte	0x48
 497 0116 1D       		.byte	0x1d
 498 0117 FE000000 		.4byte	0xfe
 499 011b 03       		.uleb128 0x3
 500 011c F6040000 		.4byte	.LASF22
 501 0120 1B       		.byte	0x1b
 502 0121 50       		.byte	0x50
 503 0122 19       		.byte	0x19
 504 0123 0F010000 		.4byte	0x10f
 505 0127 03       		.uleb128 0x3
 506 0128 5A070000 		.4byte	.LASF23
 507 012c 1B       		.byte	0x1b
 508 012d 53       		.byte	0x53
 509 012e 19       		.byte	0x19
 510 012f BF000000 		.4byte	0xbf
 511 0133 03       		.uleb128 0x3
 512 0134 35020000 		.4byte	.LASF24
 513 0138 1B       		.byte	0x1b
ARM GAS  /tmp/cc7i0MP1.s 			page 10


 514 0139 54       		.byte	0x54
 515 013a 19       		.byte	0x19
 516 013b BF000000 		.4byte	0xbf
 517 013f 03       		.uleb128 0x3
 518 0140 BA090000 		.4byte	.LASF25
 519 0144 1B       		.byte	0x1b
 520 0145 55       		.byte	0x55
 521 0146 19       		.byte	0x19
 522 0147 BF000000 		.4byte	0xbf
 523 014b 03       		.uleb128 0x3
 524 014c 98060000 		.4byte	.LASF26
 525 0150 1B       		.byte	0x1b
 526 0151 57       		.byte	0x57
 527 0152 19       		.byte	0x19
 528 0153 ED000000 		.4byte	0xed
 529 0157 03       		.uleb128 0x3
 530 0158 28040000 		.4byte	.LASF27
 531 015c 1B       		.byte	0x1b
 532 015d 58       		.byte	0x58
 533 015e 19       		.byte	0x19
 534 015f E1000000 		.4byte	0xe1
 535 0163 03       		.uleb128 0x3
 536 0164 9B040000 		.4byte	.LASF28
 537 0168 1B       		.byte	0x1b
 538 0169 5A       		.byte	0x5a
 539 016a 19       		.byte	0x19
 540 016b ED000000 		.4byte	0xed
 541 016f 03       		.uleb128 0x3
 542 0170 1B040000 		.4byte	.LASF29
 543 0174 1B       		.byte	0x1b
 544 0175 5B       		.byte	0x5b
 545 0176 19       		.byte	0x19
 546 0177 ED000000 		.4byte	0xed
 547 017b 03       		.uleb128 0x3
 548 017c 17030000 		.4byte	.LASF30
 549 0180 1B       		.byte	0x1b
 550 0181 5C       		.byte	0x5c
 551 0182 19       		.byte	0x19
 552 0183 E1000000 		.4byte	0xe1
 553 0187 03       		.uleb128 0x3
 554 0188 46060000 		.4byte	.LASF31
 555 018c 1B       		.byte	0x1b
 556 018d 80       		.byte	0x80
 557 018e 12       		.byte	0x12
 558 018f 3D000000 		.4byte	0x3d
 559 0193 03       		.uleb128 0x3
 560 0194 A4080000 		.4byte	.LASF32
 561 0198 1B       		.byte	0x1b
 562 0199 85       		.byte	0x85
 563 019a 1A       		.byte	0x1a
 564 019b 9F010000 		.4byte	0x19f
 565 019f 07       		.uleb128 0x7
 566 01a0 06040000 		.4byte	.LASF47
 567 01a4 48       		.byte	0x48
 568 01a5 1C       		.byte	0x1c
 569 01a6 9C       		.byte	0x9c
 570 01a7 08       		.byte	0x8
ARM GAS  /tmp/cc7i0MP1.s 			page 11


 571 01a8 82020000 		.4byte	0x282
 572 01ac 08       		.uleb128 0x8
 573 01ad 68647200 		.ascii	"hdr\000"
 574 01b1 1C       		.byte	0x1c
 575 01b2 AD       		.byte	0xad
 576 01b3 05       		.byte	0x5
 577 01b4 C0060000 		.4byte	0x6c0
 578 01b8 00       		.byte	0
 579 01b9 08       		.uleb128 0x8
 580 01ba 63747800 		.ascii	"ctx\000"
 581 01be 1C       		.byte	0x1c
 582 01bf B1       		.byte	0xb1
 583 01c0 21       		.byte	0x21
 584 01c1 FB050000 		.4byte	0x5fb
 585 01c5 0C       		.byte	0xc
 586 01c6 09       		.uleb128 0x9
 587 01c7 77030000 		.4byte	.LASF33
 588 01cb 1C       		.byte	0x1c
 589 01cc B6       		.byte	0xb6
 590 01cd 21       		.byte	0x21
 591 01ce C3030000 		.4byte	0x3c3
 592 01d2 10       		.byte	0x10
 593 01d3 09       		.uleb128 0x9
 594 01d4 17080000 		.4byte	.LASF34
 595 01d8 1C       		.byte	0x1c
 596 01d9 BB       		.byte	0xbb
 597 01da 22       		.byte	0x22
 598 01db CD070000 		.4byte	0x7cd
 599 01df 18       		.byte	0x18
 600 01e0 09       		.uleb128 0x9
 601 01e1 8E030000 		.4byte	.LASF35
 602 01e5 1C       		.byte	0x1c
 603 01e6 C0       		.byte	0xc0
 604 01e7 22       		.byte	0x22
 605 01e8 5B030000 		.4byte	0x35b
 606 01ec 1C       		.byte	0x1c
 607 01ed 09       		.uleb128 0x9
 608 01ee 55080000 		.4byte	.LASF36
 609 01f2 1C       		.byte	0x1c
 610 01f3 C9       		.byte	0xc9
 611 01f4 22       		.byte	0x22
 612 01f5 D3070000 		.4byte	0x7d3
 613 01f9 20       		.byte	0x20
 614 01fa 09       		.uleb128 0x9
 615 01fb 01020000 		.4byte	.LASF37
 616 01ff 1C       		.byte	0x1c
 617 0200 CE       		.byte	0xce
 618 0201 21       		.byte	0x21
 619 0202 33010000 		.4byte	0x133
 620 0206 24       		.byte	0x24
 621 0207 09       		.uleb128 0x9
 622 0208 0B0A0000 		.4byte	.LASF38
 623 020c 1C       		.byte	0x1c
 624 020d D2       		.byte	0xd2
 625 020e 21       		.byte	0x21
 626 020f 27010000 		.4byte	0x127
 627 0213 25       		.byte	0x25
ARM GAS  /tmp/cc7i0MP1.s 			page 12


 628 0214 09       		.uleb128 0x9
 629 0215 75010000 		.4byte	.LASF39
 630 0219 1C       		.byte	0x1c
 631 021a D7       		.byte	0xd7
 632 021b 21       		.byte	0x21
 633 021c 3F010000 		.4byte	0x13f
 634 0220 26       		.byte	0x26
 635 0221 0A       		.uleb128 0xa
 636 0222 7500     		.ascii	"u\000"
 637 0224 1C       		.byte	0x1c
 638 0225 2801     		.2byte	0x128
 639 0227 21       		.byte	0x21
 640 0228 EE060000 		.4byte	0x6ee
 641 022c 28       		.byte	0x28
 642 022d 0B       		.uleb128 0xb
 643 022e D6020000 		.4byte	.LASF40
 644 0232 1C       		.byte	0x1c
 645 0233 2D01     		.2byte	0x12d
 646 0235 21       		.byte	0x21
 647 0236 96030000 		.4byte	0x396
 648 023a 2C       		.byte	0x2c
 649 023b 0B       		.uleb128 0xb
 650 023c F1010000 		.4byte	.LASF41
 651 0240 1C       		.byte	0x1c
 652 0241 3301     		.2byte	0x133
 653 0243 21       		.byte	0x21
 654 0244 C3030000 		.4byte	0x3c3
 655 0248 30       		.byte	0x30
 656 0249 0B       		.uleb128 0xb
 657 024a 45040000 		.4byte	.LASF42
 658 024e 1C       		.byte	0x1c
 659 024f 3901     		.2byte	0x139
 660 0251 21       		.byte	0x21
 661 0252 63010000 		.4byte	0x163
 662 0256 38       		.byte	0x38
 663 0257 0B       		.uleb128 0xb
 664 0258 640B0000 		.4byte	.LASF43
 665 025c 1C       		.byte	0x1c
 666 025d 4001     		.2byte	0x140
 667 025f 22       		.byte	0x22
 668 0260 C7070000 		.4byte	0x7c7
 669 0264 3C       		.byte	0x3c
 670 0265 0B       		.uleb128 0xb
 671 0266 2A080000 		.4byte	.LASF44
 672 026a 1C       		.byte	0x1c
 673 026b 4401     		.2byte	0x144
 674 026d 21       		.byte	0x21
 675 026e 4B010000 		.4byte	0x14b
 676 0272 40       		.byte	0x40
 677 0273 0B       		.uleb128 0xb
 678 0274 DD030000 		.4byte	.LASF45
 679 0278 1C       		.byte	0x1c
 680 0279 4B01     		.2byte	0x14b
 681 027b 22       		.byte	0x22
 682 027c 1D060000 		.4byte	0x61d
 683 0280 44       		.byte	0x44
 684 0281 00       		.byte	0
ARM GAS  /tmp/cc7i0MP1.s 			page 13


 685 0282 03       		.uleb128 0x3
 686 0283 D6080000 		.4byte	.LASF46
 687 0287 1B       		.byte	0x1b
 688 0288 8A       		.byte	0x8a
 689 0289 1F       		.byte	0x1f
 690 028a 8E020000 		.4byte	0x28e
 691 028e 0C       		.uleb128 0xc
 692 028f EC050000 		.4byte	.LASF48
 693 0293 88       		.byte	0x88
 694 0294 1C       		.byte	0x1c
 695 0295 8A01     		.2byte	0x18a
 696 0297 08       		.byte	0x8
 697 0298 0D030000 		.4byte	0x30d
 698 029c 0B       		.uleb128 0xb
 699 029d DE090000 		.4byte	.LASF49
 700 02a1 1C       		.byte	0x1c
 701 02a2 8E01     		.2byte	0x18e
 702 02a4 21       		.byte	0x21
 703 02a5 04080000 		.4byte	0x804
 704 02a9 00       		.byte	0
 705 02aa 0B       		.uleb128 0xb
 706 02ab CF020000 		.4byte	.LASF50
 707 02af 1C       		.byte	0x1c
 708 02b0 9201     		.2byte	0x192
 709 02b2 21       		.byte	0x21
 710 02b3 54060000 		.4byte	0x654
 711 02b7 10       		.byte	0x10
 712 02b8 0B       		.uleb128 0xb
 713 02b9 290A0000 		.4byte	.LASF51
 714 02bd 1C       		.byte	0x1c
 715 02be 9901     		.2byte	0x199
 716 02c0 21       		.byte	0x21
 717 02c1 7B060000 		.4byte	0x67b
 718 02c5 28       		.byte	0x28
 719 02c6 0B       		.uleb128 0xb
 720 02c7 DD000000 		.4byte	.LASF52
 721 02cb 1C       		.byte	0x1c
 722 02cc 9E01     		.2byte	0x19e
 723 02ce 21       		.byte	0x21
 724 02cf 87010000 		.4byte	0x187
 725 02d3 30       		.byte	0x30
 726 02d4 0B       		.uleb128 0xb
 727 02d5 34000000 		.4byte	.LASF53
 728 02d9 1C       		.byte	0x1c
 729 02da A401     		.2byte	0x1a4
 730 02dc 21       		.byte	0x21
 731 02dd 34030000 		.4byte	0x334
 732 02e1 34       		.byte	0x34
 733 02e2 0B       		.uleb128 0xb
 734 02e3 72080000 		.4byte	.LASF54
 735 02e7 1C       		.byte	0x1c
 736 02e8 A901     		.2byte	0x1a9
 737 02ea 22       		.byte	0x22
 738 02eb 78080000 		.4byte	0x878
 739 02ef 38       		.byte	0x38
 740 02f0 0B       		.uleb128 0xb
 741 02f1 10040000 		.4byte	.LASF55
ARM GAS  /tmp/cc7i0MP1.s 			page 14


 742 02f5 1C       		.byte	0x1c
 743 02f6 AD01     		.2byte	0x1ad
 744 02f8 21       		.byte	0x21
 745 02f9 93010000 		.4byte	0x193
 746 02fd 3C       		.byte	0x3c
 747 02fe 0A       		.uleb128 0xa
 748 02ff 64626700 		.ascii	"dbg\000"
 749 0303 1C       		.byte	0x1c
 750 0304 B101     		.2byte	0x1b1
 751 0306 21       		.byte	0x21
 752 0307 72030000 		.4byte	0x372
 753 030b 84       		.byte	0x84
 754 030c 00       		.byte	0
 755 030d 03       		.uleb128 0x3
 756 030e 44050000 		.4byte	.LASF56
 757 0312 1D       		.byte	0x1d
 758 0313 3F       		.byte	0x3f
 759 0314 12       		.byte	0x12
 760 0315 ED000000 		.4byte	0xed
 761 0319 07       		.uleb128 0x7
 762 031a 3E020000 		.4byte	.LASF57
 763 031e 04       		.byte	0x4
 764 031f 1D       		.byte	0x1d
 765 0320 44       		.byte	0x44
 766 0321 10       		.byte	0x10
 767 0322 34030000 		.4byte	0x334
 768 0326 09       		.uleb128 0x9
 769 0327 CA020000 		.4byte	.LASF58
 770 032b 1D       		.byte	0x1d
 771 032c 48       		.byte	0x48
 772 032d 21       		.byte	0x21
 773 032e 0D030000 		.4byte	0x30d
 774 0332 00       		.byte	0
 775 0333 00       		.byte	0
 776 0334 03       		.uleb128 0x3
 777 0335 F4060000 		.4byte	.LASF59
 778 0339 1D       		.byte	0x1d
 779 033a 49       		.byte	0x49
 780 033b 03       		.byte	0x3
 781 033c 19030000 		.4byte	0x319
 782 0340 07       		.uleb128 0x7
 783 0341 BA060000 		.4byte	.LASF60
 784 0345 04       		.byte	0x4
 785 0346 1E       		.byte	0x1e
 786 0347 3E       		.byte	0x3e
 787 0348 10       		.byte	0x10
 788 0349 5B030000 		.4byte	0x35b
 789 034d 09       		.uleb128 0x9
 790 034e C7080000 		.4byte	.LASF61
 791 0352 1E       		.byte	0x1e
 792 0353 46       		.byte	0x46
 793 0354 24       		.byte	0x24
 794 0355 61030000 		.4byte	0x361
 795 0359 00       		.byte	0
 796 035a 00       		.byte	0
 797 035b 0D       		.uleb128 0xd
 798 035c 04       		.byte	0x4
ARM GAS  /tmp/cc7i0MP1.s 			page 15


 799 035d 6D030000 		.4byte	0x36d
 800 0361 04       		.uleb128 0x4
 801 0362 5B030000 		.4byte	0x35b
 802 0366 05       		.uleb128 0x5
 803 0367 01       		.byte	0x1
 804 0368 08       		.byte	0x8
 805 0369 6D080000 		.4byte	.LASF62
 806 036d 06       		.uleb128 0x6
 807 036e 66030000 		.4byte	0x366
 808 0372 03       		.uleb128 0x3
 809 0373 C4000000 		.4byte	.LASF63
 810 0377 1E       		.byte	0x1e
 811 0378 51       		.byte	0x51
 812 0379 03       		.byte	0x3
 813 037a 40030000 		.4byte	0x340
 814 037e 03       		.uleb128 0x3
 815 037f B3080000 		.4byte	.LASF64
 816 0383 1F       		.byte	0x1f
 817 0384 6D       		.byte	0x6d
 818 0385 12       		.byte	0x12
 819 0386 ED000000 		.4byte	0xed
 820 038a 03       		.uleb128 0x3
 821 038b 09030000 		.4byte	.LASF65
 822 038f 1F       		.byte	0x1f
 823 0390 79       		.byte	0x79
 824 0391 12       		.byte	0x12
 825 0392 ED000000 		.4byte	0xed
 826 0396 03       		.uleb128 0x3
 827 0397 FC030000 		.4byte	.LASF66
 828 039b 20       		.byte	0x20
 829 039c 32       		.byte	0x32
 830 039d 18       		.byte	0x18
 831 039e A2030000 		.4byte	0x3a2
 832 03a2 07       		.uleb128 0x7
 833 03a3 85040000 		.4byte	.LASF67
 834 03a7 04       		.byte	0x4
 835 03a8 20       		.byte	0x20
 836 03a9 38       		.byte	0x38
 837 03aa 08       		.byte	0x8
 838 03ab BD030000 		.4byte	0x3bd
 839 03af 09       		.uleb128 0x9
 840 03b0 59010000 		.4byte	.LASF68
 841 03b4 20       		.byte	0x20
 842 03b5 39       		.byte	0x39
 843 03b6 1A       		.byte	0x1a
 844 03b7 BD030000 		.4byte	0x3bd
 845 03bb 00       		.byte	0
 846 03bc 00       		.byte	0
 847 03bd 0D       		.uleb128 0xd
 848 03be 04       		.byte	0x4
 849 03bf 96030000 		.4byte	0x396
 850 03c3 03       		.uleb128 0x3
 851 03c4 7E030000 		.4byte	.LASF69
 852 03c8 20       		.byte	0x20
 853 03c9 3F       		.byte	0x3f
 854 03ca 19       		.byte	0x19
 855 03cb CF030000 		.4byte	0x3cf
ARM GAS  /tmp/cc7i0MP1.s 			page 16


 856 03cf 07       		.uleb128 0x7
 857 03d0 4F020000 		.4byte	.LASF70
 858 03d4 08       		.byte	0x8
 859 03d5 20       		.byte	0x20
 860 03d6 45       		.byte	0x45
 861 03d7 08       		.byte	0x8
 862 03d8 F7030000 		.4byte	0x3f7
 863 03dc 09       		.uleb128 0x9
 864 03dd 59010000 		.4byte	.LASF68
 865 03e1 20       		.byte	0x20
 866 03e2 46       		.byte	0x46
 867 03e3 1A       		.byte	0x1a
 868 03e4 F7030000 		.4byte	0x3f7
 869 03e8 00       		.byte	0
 870 03e9 09       		.uleb128 0x9
 871 03ea A2000000 		.4byte	.LASF71
 872 03ee 20       		.byte	0x20
 873 03ef 47       		.byte	0x47
 874 03f0 1A       		.byte	0x1a
 875 03f1 F7030000 		.4byte	0x3f7
 876 03f5 04       		.byte	0x4
 877 03f6 00       		.byte	0
 878 03f7 0D       		.uleb128 0xd
 879 03f8 04       		.byte	0x4
 880 03f9 C3030000 		.4byte	0x3c3
 881 03fd 03       		.uleb128 0x3
 882 03fe E5000000 		.4byte	.LASF72
 883 0402 20       		.byte	0x20
 884 0403 4E       		.byte	0x4e
 885 0404 22       		.byte	0x22
 886 0405 09040000 		.4byte	0x409
 887 0409 07       		.uleb128 0x7
 888 040a 0F090000 		.4byte	.LASF73
 889 040e 0C       		.byte	0xc
 890 040f 20       		.byte	0x20
 891 0410 55       		.byte	0x55
 892 0411 08       		.byte	0x8
 893 0412 3E040000 		.4byte	0x43e
 894 0416 09       		.uleb128 0x9
 895 0417 59010000 		.4byte	.LASF68
 896 041b 20       		.byte	0x20
 897 041c 56       		.byte	0x56
 898 041d 1A       		.byte	0x1a
 899 041e 3E040000 		.4byte	0x43e
 900 0422 00       		.byte	0
 901 0423 09       		.uleb128 0x9
 902 0424 A2000000 		.4byte	.LASF71
 903 0428 20       		.byte	0x20
 904 0429 57       		.byte	0x57
 905 042a 1A       		.byte	0x1a
 906 042b 3E040000 		.4byte	0x43e
 907 042f 04       		.byte	0x4
 908 0430 09       		.uleb128 0x9
 909 0431 FB050000 		.4byte	.LASF74
 910 0435 20       		.byte	0x20
 911 0436 58       		.byte	0x58
 912 0437 19       		.byte	0x19
ARM GAS  /tmp/cc7i0MP1.s 			page 17


 913 0438 4B010000 		.4byte	0x14b
 914 043c 08       		.byte	0x8
 915 043d 00       		.byte	0
 916 043e 0D       		.uleb128 0xd
 917 043f 04       		.byte	0x4
 918 0440 FD030000 		.4byte	0x3fd
 919 0444 03       		.uleb128 0x3
 920 0445 78020000 		.4byte	.LASF75
 921 0449 20       		.byte	0x20
 922 044a 5F       		.byte	0x5f
 923 044b 1E       		.byte	0x1e
 924 044c 50040000 		.4byte	0x450
 925 0450 07       		.uleb128 0x7
 926 0451 B9010000 		.4byte	.LASF76
 927 0455 0C       		.byte	0xc
 928 0456 20       		.byte	0x20
 929 0457 64       		.byte	0x64
 930 0458 08       		.byte	0x8
 931 0459 85040000 		.4byte	0x485
 932 045d 09       		.uleb128 0x9
 933 045e 59010000 		.4byte	.LASF68
 934 0462 20       		.byte	0x20
 935 0463 65       		.byte	0x65
 936 0464 1A       		.byte	0x1a
 937 0465 85040000 		.4byte	0x485
 938 0469 00       		.byte	0
 939 046a 09       		.uleb128 0x9
 940 046b A2000000 		.4byte	.LASF71
 941 046f 20       		.byte	0x20
 942 0470 66       		.byte	0x66
 943 0471 1A       		.byte	0x1a
 944 0472 85040000 		.4byte	0x485
 945 0476 04       		.byte	0x4
 946 0477 09       		.uleb128 0x9
 947 0478 62000000 		.4byte	.LASF77
 948 047c 20       		.byte	0x20
 949 047d 67       		.byte	0x67
 950 047e 19       		.byte	0x19
 951 047f 8A030000 		.4byte	0x38a
 952 0483 08       		.byte	0x8
 953 0484 00       		.byte	0
 954 0485 0D       		.uleb128 0xd
 955 0486 04       		.byte	0x4
 956 0487 44040000 		.4byte	0x444
 957 048b 0E       		.uleb128 0xe
 958 048c 2C       		.byte	0x2c
 959 048d 21       		.byte	0x21
 960 048e 3C03     		.2byte	0x33c
 961 0490 09       		.byte	0x9
 962 0491 68050000 		.4byte	0x568
 963 0495 0A       		.uleb128 0xa
 964 0496 43523100 		.ascii	"CR1\000"
 965 049a 21       		.byte	0x21
 966 049b 3E03     		.2byte	0x33e
 967 049d 11       		.byte	0x11
 968 049e F9000000 		.4byte	0xf9
 969 04a2 00       		.byte	0
ARM GAS  /tmp/cc7i0MP1.s 			page 18


 970 04a3 0A       		.uleb128 0xa
 971 04a4 43523200 		.ascii	"CR2\000"
 972 04a8 21       		.byte	0x21
 973 04a9 3F03     		.2byte	0x33f
 974 04ab 11       		.byte	0x11
 975 04ac F9000000 		.4byte	0xf9
 976 04b0 04       		.byte	0x4
 977 04b1 0A       		.uleb128 0xa
 978 04b2 43523300 		.ascii	"CR3\000"
 979 04b6 21       		.byte	0x21
 980 04b7 4003     		.2byte	0x340
 981 04b9 11       		.byte	0x11
 982 04ba F9000000 		.4byte	0xf9
 983 04be 08       		.byte	0x8
 984 04bf 0A       		.uleb128 0xa
 985 04c0 42525200 		.ascii	"BRR\000"
 986 04c4 21       		.byte	0x21
 987 04c5 4103     		.2byte	0x341
 988 04c7 11       		.byte	0x11
 989 04c8 F9000000 		.4byte	0xf9
 990 04cc 0C       		.byte	0xc
 991 04cd 0B       		.uleb128 0xb
 992 04ce B4010000 		.4byte	.LASF78
 993 04d2 21       		.byte	0x21
 994 04d3 4203     		.2byte	0x342
 995 04d5 11       		.byte	0x11
 996 04d6 DC000000 		.4byte	0xdc
 997 04da 10       		.byte	0x10
 998 04db 0B       		.uleb128 0xb
 999 04dc CE070000 		.4byte	.LASF79
 1000 04e0 21       		.byte	0x21
 1001 04e1 4303     		.2byte	0x343
 1002 04e3 0D       		.byte	0xd
 1003 04e4 D0000000 		.4byte	0xd0
 1004 04e8 12       		.byte	0x12
 1005 04e9 0B       		.uleb128 0xb
 1006 04ea D1080000 		.4byte	.LASF80
 1007 04ee 21       		.byte	0x21
 1008 04ef 4403     		.2byte	0x344
 1009 04f1 11       		.byte	0x11
 1010 04f2 F9000000 		.4byte	0xf9
 1011 04f6 14       		.byte	0x14
 1012 04f7 0A       		.uleb128 0xa
 1013 04f8 52515200 		.ascii	"RQR\000"
 1014 04fc 21       		.byte	0x21
 1015 04fd 4503     		.2byte	0x345
 1016 04ff 11       		.byte	0x11
 1017 0500 DC000000 		.4byte	0xdc
 1018 0504 18       		.byte	0x18
 1019 0505 0B       		.uleb128 0xb
 1020 0506 6C060000 		.4byte	.LASF81
 1021 050a 21       		.byte	0x21
 1022 050b 4603     		.2byte	0x346
 1023 050d 0D       		.byte	0xd
 1024 050e D0000000 		.4byte	0xd0
 1025 0512 1A       		.byte	0x1a
 1026 0513 0A       		.uleb128 0xa
ARM GAS  /tmp/cc7i0MP1.s 			page 19


 1027 0514 49535200 		.ascii	"ISR\000"
 1028 0518 21       		.byte	0x21
 1029 0519 4703     		.2byte	0x347
 1030 051b 11       		.byte	0x11
 1031 051c F9000000 		.4byte	0xf9
 1032 0520 1C       		.byte	0x1c
 1033 0521 0A       		.uleb128 0xa
 1034 0522 49435200 		.ascii	"ICR\000"
 1035 0526 21       		.byte	0x21
 1036 0527 4803     		.2byte	0x348
 1037 0529 11       		.byte	0x11
 1038 052a F9000000 		.4byte	0xf9
 1039 052e 20       		.byte	0x20
 1040 052f 0A       		.uleb128 0xa
 1041 0530 52445200 		.ascii	"RDR\000"
 1042 0534 21       		.byte	0x21
 1043 0535 4903     		.2byte	0x349
 1044 0537 11       		.byte	0x11
 1045 0538 DC000000 		.4byte	0xdc
 1046 053c 24       		.byte	0x24
 1047 053d 0B       		.uleb128 0xb
 1048 053e 76060000 		.4byte	.LASF82
 1049 0542 21       		.byte	0x21
 1050 0543 4A03     		.2byte	0x34a
 1051 0545 0D       		.byte	0xd
 1052 0546 D0000000 		.4byte	0xd0
 1053 054a 26       		.byte	0x26
 1054 054b 0A       		.uleb128 0xa
 1055 054c 54445200 		.ascii	"TDR\000"
 1056 0550 21       		.byte	0x21
 1057 0551 4B03     		.2byte	0x34b
 1058 0553 11       		.byte	0x11
 1059 0554 DC000000 		.4byte	0xdc
 1060 0558 28       		.byte	0x28
 1061 0559 0B       		.uleb128 0xb
 1062 055a 80060000 		.4byte	.LASF83
 1063 055e 21       		.byte	0x21
 1064 055f 4C03     		.2byte	0x34c
 1065 0561 0D       		.byte	0xd
 1066 0562 D0000000 		.4byte	0xd0
 1067 0566 2A       		.byte	0x2a
 1068 0567 00       		.byte	0
 1069 0568 0F       		.uleb128 0xf
 1070 0569 E6060000 		.4byte	.LASF84
 1071 056d 21       		.byte	0x21
 1072 056e 4D03     		.2byte	0x34d
 1073 0570 03       		.byte	0x3
 1074 0571 8B040000 		.4byte	0x48b
 1075 0575 0C       		.uleb128 0xc
 1076 0576 A7000000 		.4byte	.LASF85
 1077 057a 24       		.byte	0x24
 1078 057b 22       		.byte	0x22
 1079 057c E001     		.2byte	0x1e0
 1080 057e 08       		.byte	0x8
 1081 057f FB050000 		.4byte	0x5fb
 1082 0583 0A       		.uleb128 0xa
 1083 0584 723400   		.ascii	"r4\000"
ARM GAS  /tmp/cc7i0MP1.s 			page 20


 1084 0587 22       		.byte	0x22
 1085 0588 F901     		.2byte	0x1f9
 1086 058a 11       		.byte	0x11
 1087 058b ED000000 		.4byte	0xed
 1088 058f 00       		.byte	0
 1089 0590 0A       		.uleb128 0xa
 1090 0591 723500   		.ascii	"r5\000"
 1091 0594 22       		.byte	0x22
 1092 0595 FA01     		.2byte	0x1fa
 1093 0597 11       		.byte	0x11
 1094 0598 ED000000 		.4byte	0xed
 1095 059c 04       		.byte	0x4
 1096 059d 0A       		.uleb128 0xa
 1097 059e 723600   		.ascii	"r6\000"
 1098 05a1 22       		.byte	0x22
 1099 05a2 FB01     		.2byte	0x1fb
 1100 05a4 11       		.byte	0x11
 1101 05a5 ED000000 		.4byte	0xed
 1102 05a9 08       		.byte	0x8
 1103 05aa 0A       		.uleb128 0xa
 1104 05ab 723700   		.ascii	"r7\000"
 1105 05ae 22       		.byte	0x22
 1106 05af FC01     		.2byte	0x1fc
 1107 05b1 11       		.byte	0x11
 1108 05b2 ED000000 		.4byte	0xed
 1109 05b6 0C       		.byte	0xc
 1110 05b7 0A       		.uleb128 0xa
 1111 05b8 723800   		.ascii	"r8\000"
 1112 05bb 22       		.byte	0x22
 1113 05bc FD01     		.2byte	0x1fd
 1114 05be 11       		.byte	0x11
 1115 05bf ED000000 		.4byte	0xed
 1116 05c3 10       		.byte	0x10
 1117 05c4 0A       		.uleb128 0xa
 1118 05c5 723900   		.ascii	"r9\000"
 1119 05c8 22       		.byte	0x22
 1120 05c9 FE01     		.2byte	0x1fe
 1121 05cb 11       		.byte	0x11
 1122 05cc ED000000 		.4byte	0xed
 1123 05d0 14       		.byte	0x14
 1124 05d1 0A       		.uleb128 0xa
 1125 05d2 72313000 		.ascii	"r10\000"
 1126 05d6 22       		.byte	0x22
 1127 05d7 FF01     		.2byte	0x1ff
 1128 05d9 11       		.byte	0x11
 1129 05da ED000000 		.4byte	0xed
 1130 05de 18       		.byte	0x18
 1131 05df 0A       		.uleb128 0xa
 1132 05e0 72313100 		.ascii	"r11\000"
 1133 05e4 22       		.byte	0x22
 1134 05e5 0002     		.2byte	0x200
 1135 05e7 11       		.byte	0x11
 1136 05e8 ED000000 		.4byte	0xed
 1137 05ec 1C       		.byte	0x1c
 1138 05ed 0A       		.uleb128 0xa
 1139 05ee 6C7200   		.ascii	"lr\000"
 1140 05f1 22       		.byte	0x22
ARM GAS  /tmp/cc7i0MP1.s 			page 21


 1141 05f2 0102     		.2byte	0x201
 1142 05f4 11       		.byte	0x11
 1143 05f5 ED000000 		.4byte	0xed
 1144 05f9 20       		.byte	0x20
 1145 05fa 00       		.byte	0
 1146 05fb 0C       		.uleb128 0xc
 1147 05fc DF050000 		.4byte	.LASF86
 1148 0600 04       		.byte	0x4
 1149 0601 22       		.byte	0x22
 1150 0602 0A02     		.2byte	0x20a
 1151 0604 08       		.byte	0x8
 1152 0605 17060000 		.4byte	0x617
 1153 0609 0A       		.uleb128 0xa
 1154 060a 737000   		.ascii	"sp\000"
 1155 060d 22       		.byte	0x22
 1156 060e 0B02     		.2byte	0x20b
 1157 0610 1A       		.byte	0x1a
 1158 0611 17060000 		.4byte	0x617
 1159 0615 00       		.byte	0
 1160 0616 00       		.byte	0
 1161 0617 0D       		.uleb128 0xd
 1162 0618 04       		.byte	0x4
 1163 0619 75050000 		.4byte	0x575
 1164 061d 10       		.uleb128 0x10
 1165 061e 04       		.byte	0x4
 1166 061f 07       		.uleb128 0x7
 1167 0620 7C050000 		.4byte	.LASF87
 1168 0624 18       		.byte	0x18
 1169 0625 1C       		.byte	0x1c
 1170 0626 64       		.byte	0x64
 1171 0627 10       		.byte	0x10
 1172 0628 54060000 		.4byte	0x654
 1173 062c 09       		.uleb128 0x9
 1174 062d AD080000 		.4byte	.LASF88
 1175 0631 1C       		.byte	0x1c
 1176 0632 68       		.byte	0x68
 1177 0633 21       		.byte	0x21
 1178 0634 44040000 		.4byte	0x444
 1179 0638 00       		.byte	0
 1180 0639 09       		.uleb128 0x9
 1181 063a 25070000 		.4byte	.LASF89
 1182 063e 1C       		.byte	0x1c
 1183 063f 73       		.byte	0x73
 1184 0640 21       		.byte	0x21
 1185 0641 7E030000 		.4byte	0x37e
 1186 0645 0C       		.byte	0xc
 1187 0646 09       		.uleb128 0x9
 1188 0647 11050000 		.4byte	.LASF90
 1189 064b 1C       		.byte	0x1c
 1190 064c 79       		.byte	0x79
 1191 064d 21       		.byte	0x21
 1192 064e 0A010000 		.4byte	0x10a
 1193 0652 10       		.byte	0x10
 1194 0653 00       		.byte	0
 1195 0654 03       		.uleb128 0x3
 1196 0655 E0040000 		.4byte	.LASF91
 1197 0659 1C       		.byte	0x1c
ARM GAS  /tmp/cc7i0MP1.s 			page 22


 1198 065a 7B       		.byte	0x7b
 1199 065b 03       		.byte	0x3
 1200 065c 1F060000 		.4byte	0x61f
 1201 0660 07       		.uleb128 0x7
 1202 0661 88020000 		.4byte	.LASF92
 1203 0665 08       		.byte	0x8
 1204 0666 1C       		.byte	0x1c
 1205 0667 80       		.byte	0x80
 1206 0668 10       		.byte	0x10
 1207 0669 7B060000 		.4byte	0x67b
 1208 066d 09       		.uleb128 0x9
 1209 066e 93030000 		.4byte	.LASF93
 1210 0672 1C       		.byte	0x1c
 1211 0673 84       		.byte	0x84
 1212 0674 21       		.byte	0x21
 1213 0675 C3030000 		.4byte	0x3c3
 1214 0679 00       		.byte	0
 1215 067a 00       		.byte	0
 1216 067b 03       		.uleb128 0x3
 1217 067c E5070000 		.4byte	.LASF94
 1218 0680 1C       		.byte	0x1c
 1219 0681 85       		.byte	0x85
 1220 0682 03       		.byte	0x3
 1221 0683 60060000 		.4byte	0x660
 1222 0687 03       		.uleb128 0x3
 1223 0688 60050000 		.4byte	.LASF95
 1224 068c 1C       		.byte	0x1c
 1225 068d 8A       		.byte	0x8a
 1226 068e 14       		.byte	0x14
 1227 068f 93060000 		.4byte	0x693
 1228 0693 0D       		.uleb128 0xd
 1229 0694 04       		.byte	0x4
 1230 0695 93010000 		.4byte	0x193
 1231 0699 07       		.uleb128 0x7
 1232 069a B3000000 		.4byte	.LASF96
 1233 069e 08       		.byte	0x8
 1234 069f 1C       		.byte	0x1c
 1235 06a0 8F       		.byte	0x8f
 1236 06a1 10       		.byte	0x10
 1237 06a2 B4060000 		.4byte	0x6b4
 1238 06a6 09       		.uleb128 0x9
 1239 06a7 93030000 		.4byte	.LASF93
 1240 06ab 1C       		.byte	0x1c
 1241 06ac 93       		.byte	0x93
 1242 06ad 21       		.byte	0x21
 1243 06ae C3030000 		.4byte	0x3c3
 1244 06b2 00       		.byte	0
 1245 06b3 00       		.byte	0
 1246 06b4 03       		.uleb128 0x3
 1247 06b5 BE070000 		.4byte	.LASF97
 1248 06b9 1C       		.byte	0x1c
 1249 06ba 94       		.byte	0x94
 1250 06bb 03       		.byte	0x3
 1251 06bc 99060000 		.4byte	0x699
 1252 06c0 11       		.uleb128 0x11
 1253 06c1 0C       		.byte	0xc
 1254 06c2 1C       		.byte	0x1c
ARM GAS  /tmp/cc7i0MP1.s 			page 23


 1255 06c3 A0       		.byte	0xa0
 1256 06c4 03       		.byte	0x3
 1257 06c5 EE060000 		.4byte	0x6ee
 1258 06c9 12       		.uleb128 0x12
 1259 06ca 40040000 		.4byte	.LASF98
 1260 06ce 1C       		.byte	0x1c
 1261 06cf A4       		.byte	0xa4
 1262 06d0 21       		.byte	0x21
 1263 06d1 96030000 		.4byte	0x396
 1264 06d5 12       		.uleb128 0x12
 1265 06d6 93030000 		.4byte	.LASF93
 1266 06da 1C       		.byte	0x1c
 1267 06db A8       		.byte	0xa8
 1268 06dc 21       		.byte	0x21
 1269 06dd C3030000 		.4byte	0x3c3
 1270 06e1 12       		.uleb128 0x12
 1271 06e2 FA010000 		.4byte	.LASF99
 1272 06e6 1C       		.byte	0x1c
 1273 06e7 AC       		.byte	0xac
 1274 06e8 21       		.byte	0x21
 1275 06e9 FD030000 		.4byte	0x3fd
 1276 06ed 00       		.byte	0
 1277 06ee 11       		.uleb128 0x11
 1278 06ef 04       		.byte	0x4
 1279 06f0 1C       		.byte	0x1c
 1280 06f1 EB       		.byte	0xeb
 1281 06f2 03       		.byte	0x3
 1282 06f3 5E070000 		.4byte	0x75e
 1283 06f7 12       		.uleb128 0x12
 1284 06f8 68000000 		.4byte	.LASF100
 1285 06fc 1C       		.byte	0x1c
 1286 06fd F2       		.byte	0xf2
 1287 06fe 21       		.byte	0x21
 1288 06ff 57010000 		.4byte	0x157
 1289 0703 12       		.uleb128 0x12
 1290 0704 26010000 		.4byte	.LASF101
 1291 0708 1C       		.byte	0x1c
 1292 0709 F9       		.byte	0xf9
 1293 070a 21       		.byte	0x21
 1294 070b 57010000 		.4byte	0x157
 1295 070f 13       		.uleb128 0x13
 1296 0710 220A0000 		.4byte	.LASF102
 1297 0714 1C       		.byte	0x1c
 1298 0715 0001     		.2byte	0x100
 1299 0717 22       		.byte	0x22
 1300 0718 1D060000 		.4byte	0x61d
 1301 071c 13       		.uleb128 0x13
 1302 071d 71030000 		.4byte	.LASF103
 1303 0721 1C       		.byte	0x1c
 1304 0722 0701     		.2byte	0x107
 1305 0724 22       		.byte	0x22
 1306 0725 5E070000 		.4byte	0x75e
 1307 0729 13       		.uleb128 0x13
 1308 072a 36010000 		.4byte	.LASF104
 1309 072e 1C       		.byte	0x1c
 1310 072f 0C01     		.2byte	0x10c
 1311 0731 21       		.byte	0x21
ARM GAS  /tmp/cc7i0MP1.s 			page 24


 1312 0732 57010000 		.4byte	0x157
 1313 0736 13       		.uleb128 0x13
 1314 0737 49030000 		.4byte	.LASF105
 1315 073b 1C       		.byte	0x1c
 1316 073c 1501     		.2byte	0x115
 1317 073e 22       		.byte	0x22
 1318 073f 8C070000 		.4byte	0x78c
 1319 0743 13       		.uleb128 0x13
 1320 0744 00080000 		.4byte	.LASF106
 1321 0748 1C       		.byte	0x1c
 1322 0749 1E01     		.2byte	0x11e
 1323 074b 22       		.byte	0x22
 1324 074c C7070000 		.4byte	0x7c7
 1325 0750 13       		.uleb128 0x13
 1326 0751 4C070000 		.4byte	.LASF107
 1327 0755 1C       		.byte	0x1c
 1328 0756 2601     		.2byte	0x126
 1329 0758 21       		.byte	0x21
 1330 0759 63010000 		.4byte	0x163
 1331 075d 00       		.byte	0
 1332 075e 0D       		.uleb128 0xd
 1333 075f 04       		.byte	0x4
 1334 0760 87060000 		.4byte	0x687
 1335 0764 07       		.uleb128 0x7
 1336 0765 D8070000 		.4byte	.LASF108
 1337 0769 0C       		.byte	0xc
 1338 076a 23       		.byte	0x23
 1339 076b 34       		.byte	0x34
 1340 076c 10       		.byte	0x10
 1341 076d 8C070000 		.4byte	0x78c
 1342 0771 09       		.uleb128 0x9
 1343 0772 93030000 		.4byte	.LASF93
 1344 0776 23       		.byte	0x23
 1345 0777 35       		.byte	0x35
 1346 0778 19       		.byte	0x19
 1347 0779 C3030000 		.4byte	0x3c3
 1348 077d 00       		.byte	0
 1349 077e 08       		.uleb128 0x8
 1350 077f 636E7400 		.ascii	"cnt\000"
 1351 0783 23       		.byte	0x23
 1352 0784 37       		.byte	0x37
 1353 0785 19       		.byte	0x19
 1354 0786 7B010000 		.4byte	0x17b
 1355 078a 08       		.byte	0x8
 1356 078b 00       		.byte	0
 1357 078c 0D       		.uleb128 0xd
 1358 078d 04       		.byte	0x4
 1359 078e 64070000 		.4byte	0x764
 1360 0792 07       		.uleb128 0x7
 1361 0793 E4080000 		.4byte	.LASF109
 1362 0797 10       		.byte	0x10
 1363 0798 24       		.byte	0x24
 1364 0799 39       		.byte	0x39
 1365 079a 08       		.byte	0x8
 1366 079b C7070000 		.4byte	0x7c7
 1367 079f 09       		.uleb128 0x9
 1368 07a0 93030000 		.4byte	.LASF93
ARM GAS  /tmp/cc7i0MP1.s 			page 25


 1369 07a4 24       		.byte	0x24
 1370 07a5 3A       		.byte	0x3a
 1371 07a6 19       		.byte	0x19
 1372 07a7 C3030000 		.4byte	0x3c3
 1373 07ab 00       		.byte	0
 1374 07ac 09       		.uleb128 0x9
 1375 07ad 17080000 		.4byte	.LASF34
 1376 07b1 24       		.byte	0x24
 1377 07b2 3C       		.byte	0x3c
 1378 07b3 1A       		.byte	0x1a
 1379 07b4 93060000 		.4byte	0x693
 1380 07b8 08       		.byte	0x8
 1381 07b9 09       		.uleb128 0x9
 1382 07ba 59010000 		.4byte	.LASF68
 1383 07be 24       		.byte	0x24
 1384 07bf 3E       		.byte	0x3e
 1385 07c0 1A       		.byte	0x1a
 1386 07c1 8A080000 		.4byte	0x88a
 1387 07c5 0C       		.byte	0xc
 1388 07c6 00       		.byte	0
 1389 07c7 0D       		.uleb128 0xd
 1390 07c8 04       		.byte	0x4
 1391 07c9 92070000 		.4byte	0x792
 1392 07cd 0D       		.uleb128 0xd
 1393 07ce 04       		.byte	0x4
 1394 07cf 82020000 		.4byte	0x282
 1395 07d3 0D       		.uleb128 0xd
 1396 07d4 04       		.byte	0x4
 1397 07d5 1B010000 		.4byte	0x11b
 1398 07d9 0C       		.uleb128 0xc
 1399 07da 8D040000 		.4byte	.LASF110
 1400 07de 10       		.byte	0x10
 1401 07df 1C       		.byte	0x1c
 1402 07e0 5C01     		.2byte	0x15c
 1403 07e2 10       		.byte	0x10
 1404 07e3 04080000 		.4byte	0x804
 1405 07e7 0B       		.uleb128 0xb
 1406 07e8 FA010000 		.4byte	.LASF99
 1407 07ec 1C       		.byte	0x1c
 1408 07ed 6101     		.2byte	0x161
 1409 07ef 21       		.byte	0x21
 1410 07f0 FD030000 		.4byte	0x3fd
 1411 07f4 00       		.byte	0
 1412 07f5 0B       		.uleb128 0xb
 1413 07f6 00060000 		.4byte	.LASF111
 1414 07fa 1C       		.byte	0x1c
 1415 07fb 6501     		.2byte	0x165
 1416 07fd 22       		.byte	0x22
 1417 07fe 93060000 		.4byte	0x693
 1418 0802 0C       		.byte	0xc
 1419 0803 00       		.byte	0
 1420 0804 0F       		.uleb128 0xf
 1421 0805 27000000 		.4byte	.LASF112
 1422 0809 1C       		.byte	0x1c
 1423 080a 6601     		.2byte	0x166
 1424 080c 03       		.byte	0x3
 1425 080d D9070000 		.4byte	0x7d9
ARM GAS  /tmp/cc7i0MP1.s 			page 26


 1426 0811 0C       		.uleb128 0xc
 1427 0812 F9000000 		.4byte	.LASF113
 1428 0816 14       		.byte	0x14
 1429 0817 1C       		.byte	0x1c
 1430 0818 6B01     		.2byte	0x16b
 1431 081a 10       		.byte	0x10
 1432 081b 66080000 		.4byte	0x866
 1433 081f 0B       		.uleb128 0xb
 1434 0820 8E030000 		.4byte	.LASF35
 1435 0824 1C       		.byte	0x1c
 1436 0825 6F01     		.2byte	0x16f
 1437 0827 22       		.byte	0x22
 1438 0828 5B030000 		.4byte	0x35b
 1439 082c 00       		.byte	0
 1440 082d 0B       		.uleb128 0xb
 1441 082e DE020000 		.4byte	.LASF114
 1442 0832 1C       		.byte	0x1c
 1443 0833 7501     		.2byte	0x175
 1444 0835 22       		.byte	0x22
 1445 0836 D3070000 		.4byte	0x7d3
 1446 083a 04       		.byte	0x4
 1447 083b 0B       		.uleb128 0xb
 1448 083c 60090000 		.4byte	.LASF115
 1449 0840 1C       		.byte	0x1c
 1450 0841 7901     		.2byte	0x179
 1451 0843 22       		.byte	0x22
 1452 0844 D3070000 		.4byte	0x7d3
 1453 0848 08       		.byte	0x8
 1454 0849 0B       		.uleb128 0xb
 1455 084a 01050000 		.4byte	.LASF116
 1456 084e 1C       		.byte	0x1c
 1457 084f 7F01     		.2byte	0x17f
 1458 0851 22       		.byte	0x22
 1459 0852 D3070000 		.4byte	0x7d3
 1460 0856 0C       		.byte	0xc
 1461 0857 0B       		.uleb128 0xb
 1462 0858 FB060000 		.4byte	.LASF117
 1463 085c 1C       		.byte	0x1c
 1464 085d 8301     		.2byte	0x183
 1465 085f 22       		.byte	0x22
 1466 0860 D3070000 		.4byte	0x7d3
 1467 0864 10       		.byte	0x10
 1468 0865 00       		.byte	0
 1469 0866 0F       		.uleb128 0xf
 1470 0867 8D090000 		.4byte	.LASF118
 1471 086b 1C       		.byte	0x1c
 1472 086c 8501     		.2byte	0x185
 1473 086e 03       		.byte	0x3
 1474 086f 11080000 		.4byte	0x811
 1475 0873 06       		.uleb128 0x6
 1476 0874 66080000 		.4byte	0x866
 1477 0878 0D       		.uleb128 0xd
 1478 0879 04       		.byte	0x4
 1479 087a 73080000 		.4byte	0x873
 1480 087e 03       		.uleb128 0x3
 1481 087f EE020000 		.4byte	.LASF119
 1482 0883 24       		.byte	0x24
ARM GAS  /tmp/cc7i0MP1.s 			page 27


 1483 0884 34       		.byte	0x34
 1484 0885 19       		.byte	0x19
 1485 0886 92070000 		.4byte	0x792
 1486 088a 0D       		.uleb128 0xd
 1487 088b 04       		.byte	0x4
 1488 088c 7E080000 		.4byte	0x87e
 1489 0890 03       		.uleb128 0x3
 1490 0891 ED080000 		.4byte	.LASF120
 1491 0895 25       		.byte	0x25
 1492 0896 34       		.byte	0x34
 1493 0897 1F       		.byte	0x1f
 1494 0898 9C080000 		.4byte	0x89c
 1495 089c 07       		.uleb128 0x7
 1496 089d 6C0B0000 		.4byte	.LASF121
 1497 08a1 14       		.byte	0x14
 1498 08a2 25       		.byte	0x25
 1499 08a3 39       		.byte	0x39
 1500 08a4 08       		.byte	0x8
 1501 08a5 EB080000 		.4byte	0x8eb
 1502 08a9 09       		.uleb128 0x9
 1503 08aa 59010000 		.4byte	.LASF68
 1504 08ae 25       		.byte	0x25
 1505 08af 3A       		.byte	0x3a
 1506 08b0 1A       		.byte	0x1a
 1507 08b1 EB080000 		.4byte	0x8eb
 1508 08b5 00       		.byte	0
 1509 08b6 09       		.uleb128 0x9
 1510 08b7 73050000 		.4byte	.LASF122
 1511 08bb 25       		.byte	0x25
 1512 08bc 3D       		.byte	0x3d
 1513 08bd 1A       		.byte	0x1a
 1514 08be 93060000 		.4byte	0x693
 1515 08c2 04       		.byte	0x4
 1516 08c3 09       		.uleb128 0x9
 1517 08c4 F0070000 		.4byte	.LASF123
 1518 08c8 25       		.byte	0x25
 1519 08c9 3F       		.byte	0x3f
 1520 08ca 19       		.byte	0x19
 1521 08cb 63010000 		.4byte	0x163
 1522 08cf 08       		.byte	0x8
 1523 08d0 09       		.uleb128 0x9
 1524 08d1 0B0A0000 		.4byte	.LASF38
 1525 08d5 25       		.byte	0x25
 1526 08d6 41       		.byte	0x41
 1527 08d7 19       		.byte	0x19
 1528 08d8 6F010000 		.4byte	0x16f
 1529 08dc 0C       		.byte	0xc
 1530 08dd 09       		.uleb128 0x9
 1531 08de 94020000 		.4byte	.LASF124
 1532 08e2 25       		.byte	0x25
 1533 08e3 43       		.byte	0x43
 1534 08e4 19       		.byte	0x19
 1535 08e5 6F010000 		.4byte	0x16f
 1536 08e9 10       		.byte	0x10
 1537 08ea 00       		.byte	0
 1538 08eb 0D       		.uleb128 0xd
 1539 08ec 04       		.byte	0x4
ARM GAS  /tmp/cc7i0MP1.s 			page 28


 1540 08ed 90080000 		.4byte	0x890
 1541 08f1 07       		.uleb128 0x7
 1542 08f2 E4090000 		.4byte	.LASF125
 1543 08f6 04       		.byte	0x4
 1544 08f7 25       		.byte	0x25
 1545 08f8 4A       		.byte	0x4a
 1546 08f9 10       		.byte	0x10
 1547 08fa 0C090000 		.4byte	0x90c
 1548 08fe 09       		.uleb128 0x9
 1549 08ff 59010000 		.4byte	.LASF68
 1550 0903 25       		.byte	0x25
 1551 0904 4B       		.byte	0x4b
 1552 0905 1A       		.byte	0x1a
 1553 0906 EB080000 		.4byte	0x8eb
 1554 090a 00       		.byte	0
 1555 090b 00       		.byte	0
 1556 090c 03       		.uleb128 0x3
 1557 090d 2E070000 		.4byte	.LASF126
 1558 0911 25       		.byte	0x25
 1559 0912 4E       		.byte	0x4e
 1560 0913 03       		.byte	0x3
 1561 0914 F1080000 		.4byte	0x8f1
 1562 0918 05       		.uleb128 0x5
 1563 0919 01       		.byte	0x1
 1564 091a 02       		.byte	0x2
 1565 091b CA060000 		.4byte	.LASF127
 1566 091f 0D       		.uleb128 0xd
 1567 0920 04       		.byte	0x4
 1568 0921 BF000000 		.4byte	0xbf
 1569 0925 14       		.uleb128 0x14
 1570 0926 2C000000 		.4byte	0x2c
 1571 092a 3E090000 		.4byte	0x93e
 1572 092e 15       		.uleb128 0x15
 1573 092f 1D060000 		.4byte	0x61d
 1574 0933 15       		.uleb128 0x15
 1575 0934 3E090000 		.4byte	0x93e
 1576 0938 15       		.uleb128 0x15
 1577 0939 2C000000 		.4byte	0x2c
 1578 093d 00       		.byte	0
 1579 093e 0D       		.uleb128 0xd
 1580 093f 04       		.byte	0x4
 1581 0940 CB000000 		.4byte	0xcb
 1582 0944 0D       		.uleb128 0xd
 1583 0945 04       		.byte	0x4
 1584 0946 25090000 		.4byte	0x925
 1585 094a 14       		.uleb128 0x14
 1586 094b 2C000000 		.4byte	0x2c
 1587 094f 63090000 		.4byte	0x963
 1588 0953 15       		.uleb128 0x15
 1589 0954 1D060000 		.4byte	0x61d
 1590 0958 15       		.uleb128 0x15
 1591 0959 1F090000 		.4byte	0x91f
 1592 095d 15       		.uleb128 0x15
 1593 095e 2C000000 		.4byte	0x2c
 1594 0962 00       		.byte	0
 1595 0963 0D       		.uleb128 0xd
 1596 0964 04       		.byte	0x4
ARM GAS  /tmp/cc7i0MP1.s 			page 29


 1597 0965 4A090000 		.4byte	0x94a
 1598 0969 14       		.uleb128 0x14
 1599 096a 57010000 		.4byte	0x157
 1600 096e 7D090000 		.4byte	0x97d
 1601 0972 15       		.uleb128 0x15
 1602 0973 1D060000 		.4byte	0x61d
 1603 0977 15       		.uleb128 0x15
 1604 0978 BF000000 		.4byte	0xbf
 1605 097c 00       		.byte	0
 1606 097d 0D       		.uleb128 0xd
 1607 097e 04       		.byte	0x4
 1608 097f 69090000 		.4byte	0x969
 1609 0983 14       		.uleb128 0x14
 1610 0984 57010000 		.4byte	0x157
 1611 0988 92090000 		.4byte	0x992
 1612 098c 15       		.uleb128 0x15
 1613 098d 1D060000 		.4byte	0x61d
 1614 0991 00       		.byte	0
 1615 0992 0D       		.uleb128 0xd
 1616 0993 04       		.byte	0x4
 1617 0994 83090000 		.4byte	0x983
 1618 0998 14       		.uleb128 0x14
 1619 0999 57010000 		.4byte	0x157
 1620 099d B1090000 		.4byte	0x9b1
 1621 09a1 15       		.uleb128 0x15
 1622 09a2 1D060000 		.4byte	0x61d
 1623 09a6 15       		.uleb128 0x15
 1624 09a7 BF000000 		.4byte	0xbf
 1625 09ab 15       		.uleb128 0x15
 1626 09ac 8A030000 		.4byte	0x38a
 1627 09b0 00       		.byte	0
 1628 09b1 0D       		.uleb128 0xd
 1629 09b2 04       		.byte	0x4
 1630 09b3 98090000 		.4byte	0x998
 1631 09b7 14       		.uleb128 0x14
 1632 09b8 57010000 		.4byte	0x157
 1633 09bc CB090000 		.4byte	0x9cb
 1634 09c0 15       		.uleb128 0x15
 1635 09c1 1D060000 		.4byte	0x61d
 1636 09c5 15       		.uleb128 0x15
 1637 09c6 8A030000 		.4byte	0x38a
 1638 09ca 00       		.byte	0
 1639 09cb 0D       		.uleb128 0xd
 1640 09cc 04       		.byte	0x4
 1641 09cd B7090000 		.4byte	0x9b7
 1642 09d1 14       		.uleb128 0x14
 1643 09d2 2C000000 		.4byte	0x2c
 1644 09d6 EF090000 		.4byte	0x9ef
 1645 09da 15       		.uleb128 0x15
 1646 09db 1D060000 		.4byte	0x61d
 1647 09df 15       		.uleb128 0x15
 1648 09e0 3E090000 		.4byte	0x93e
 1649 09e4 15       		.uleb128 0x15
 1650 09e5 2C000000 		.4byte	0x2c
 1651 09e9 15       		.uleb128 0x15
 1652 09ea 8A030000 		.4byte	0x38a
 1653 09ee 00       		.byte	0
ARM GAS  /tmp/cc7i0MP1.s 			page 30


 1654 09ef 0D       		.uleb128 0xd
 1655 09f0 04       		.byte	0x4
 1656 09f1 D1090000 		.4byte	0x9d1
 1657 09f5 14       		.uleb128 0x14
 1658 09f6 2C000000 		.4byte	0x2c
 1659 09fa 130A0000 		.4byte	0xa13
 1660 09fe 15       		.uleb128 0x15
 1661 09ff 1D060000 		.4byte	0x61d
 1662 0a03 15       		.uleb128 0x15
 1663 0a04 1F090000 		.4byte	0x91f
 1664 0a08 15       		.uleb128 0x15
 1665 0a09 2C000000 		.4byte	0x2c
 1666 0a0d 15       		.uleb128 0x15
 1667 0a0e 8A030000 		.4byte	0x38a
 1668 0a12 00       		.byte	0
 1669 0a13 0D       		.uleb128 0xd
 1670 0a14 04       		.byte	0x4
 1671 0a15 F5090000 		.4byte	0x9f5
 1672 0a19 14       		.uleb128 0x14
 1673 0a1a 57010000 		.4byte	0x157
 1674 0a1e 320A0000 		.4byte	0xa32
 1675 0a22 15       		.uleb128 0x15
 1676 0a23 1D060000 		.4byte	0x61d
 1677 0a27 15       		.uleb128 0x15
 1678 0a28 3D000000 		.4byte	0x3d
 1679 0a2c 15       		.uleb128 0x15
 1680 0a2d 1D060000 		.4byte	0x61d
 1681 0a31 00       		.byte	0
 1682 0a32 0D       		.uleb128 0xd
 1683 0a33 04       		.byte	0x4
 1684 0a34 190A0000 		.4byte	0xa19
 1685 0a38 03       		.uleb128 0x3
 1686 0a39 4E010000 		.4byte	.LASF128
 1687 0a3d 26       		.byte	0x26
 1688 0a3e 3A       		.byte	0x3a
 1689 0a3f 19       		.byte	0x19
 1690 0a40 440A0000 		.4byte	0xa44
 1691 0a44 07       		.uleb128 0x7
 1692 0a45 F6020000 		.4byte	.LASF129
 1693 0a49 24       		.byte	0x24
 1694 0a4a 26       		.byte	0x26
 1695 0a4b 4B       		.byte	0x4b
 1696 0a4c 08       		.byte	0x8
 1697 0a4d BA0A0000 		.4byte	0xaba
 1698 0a51 09       		.uleb128 0x9
 1699 0a52 D3000000 		.4byte	.LASF130
 1700 0a56 26       		.byte	0x26
 1701 0a57 4C       		.byte	0x4c
 1702 0a58 19       		.byte	0x19
 1703 0a59 B4060000 		.4byte	0x6b4
 1704 0a5d 00       		.byte	0
 1705 0a5e 09       		.uleb128 0x9
 1706 0a5f 93050000 		.4byte	.LASF131
 1707 0a63 26       		.byte	0x26
 1708 0a64 4D       		.byte	0x4d
 1709 0a65 19       		.byte	0x19
 1710 0a66 38000000 		.4byte	0x38
ARM GAS  /tmp/cc7i0MP1.s 			page 31


 1711 0a6a 08       		.byte	0x8
 1712 0a6b 09       		.uleb128 0x9
 1713 0a6c 58020000 		.4byte	.LASF132
 1714 0a70 26       		.byte	0x26
 1715 0a71 4E       		.byte	0x4e
 1716 0a72 1A       		.byte	0x1a
 1717 0a73 1F090000 		.4byte	0x91f
 1718 0a77 0C       		.byte	0xc
 1719 0a78 09       		.uleb128 0x9
 1720 0a79 A2090000 		.4byte	.LASF133
 1721 0a7d 26       		.byte	0x26
 1722 0a7e 4F       		.byte	0x4f
 1723 0a7f 1A       		.byte	0x1a
 1724 0a80 1F090000 		.4byte	0x91f
 1725 0a84 10       		.byte	0x10
 1726 0a85 09       		.uleb128 0x9
 1727 0a86 61020000 		.4byte	.LASF134
 1728 0a8a 26       		.byte	0x26
 1729 0a8b 51       		.byte	0x51
 1730 0a8c 1A       		.byte	0x1a
 1731 0a8d 1F090000 		.4byte	0x91f
 1732 0a91 14       		.byte	0x14
 1733 0a92 09       		.uleb128 0x9
 1734 0a93 A0060000 		.4byte	.LASF135
 1735 0a97 26       		.byte	0x26
 1736 0a98 52       		.byte	0x52
 1737 0a99 1A       		.byte	0x1a
 1738 0a9a 1F090000 		.4byte	0x91f
 1739 0a9e 18       		.byte	0x18
 1740 0a9f 09       		.uleb128 0x9
 1741 0aa0 D5090000 		.4byte	.LASF136
 1742 0aa4 26       		.byte	0x26
 1743 0aa5 53       		.byte	0x53
 1744 0aa6 19       		.byte	0x19
 1745 0aa7 BA0A0000 		.4byte	0xaba
 1746 0aab 1C       		.byte	0x1c
 1747 0aac 09       		.uleb128 0x9
 1748 0aad 5D0B0000 		.4byte	.LASF137
 1749 0ab1 26       		.byte	0x26
 1750 0ab2 54       		.byte	0x54
 1751 0ab3 1A       		.byte	0x1a
 1752 0ab4 1D060000 		.4byte	0x61d
 1753 0ab8 20       		.byte	0x20
 1754 0ab9 00       		.byte	0
 1755 0aba 03       		.uleb128 0x3
 1756 0abb D6040000 		.4byte	.LASF138
 1757 0abf 26       		.byte	0x26
 1758 0ac0 41       		.byte	0x41
 1759 0ac1 10       		.byte	0x10
 1760 0ac2 C60A0000 		.4byte	0xac6
 1761 0ac6 0D       		.uleb128 0xd
 1762 0ac7 04       		.byte	0x4
 1763 0ac8 CC0A0000 		.4byte	0xacc
 1764 0acc 16       		.uleb128 0x16
 1765 0acd D70A0000 		.4byte	0xad7
 1766 0ad1 15       		.uleb128 0x15
 1767 0ad2 D70A0000 		.4byte	0xad7
ARM GAS  /tmp/cc7i0MP1.s 			page 32


 1768 0ad6 00       		.byte	0
 1769 0ad7 0D       		.uleb128 0xd
 1770 0ad8 04       		.byte	0x4
 1771 0ad9 380A0000 		.4byte	0xa38
 1772 0add 03       		.uleb128 0x3
 1773 0ade 21050000 		.4byte	.LASF139
 1774 0ae2 26       		.byte	0x26
 1775 0ae3 61       		.byte	0x61
 1776 0ae4 14       		.byte	0x14
 1777 0ae5 380A0000 		.4byte	0xa38
 1778 0ae9 03       		.uleb128 0x3
 1779 0aea C7010000 		.4byte	.LASF140
 1780 0aee 26       		.byte	0x26
 1781 0aef 6D       		.byte	0x6d
 1782 0af0 14       		.byte	0x14
 1783 0af1 380A0000 		.4byte	0xa38
 1784 0af5 17       		.uleb128 0x17
 1785 0af6 07       		.byte	0x7
 1786 0af7 01       		.byte	0x1
 1787 0af8 65000000 		.4byte	0x65
 1788 0afc 27       		.byte	0x27
 1789 0afd 58       		.byte	0x58
 1790 0afe 0E       		.byte	0xe
 1791 0aff 160B0000 		.4byte	0xb16
 1792 0b03 18       		.uleb128 0x18
 1793 0b04 7B040000 		.4byte	.LASF141
 1794 0b08 00       		.byte	0
 1795 0b09 18       		.uleb128 0x18
 1796 0b0a 83070000 		.4byte	.LASF142
 1797 0b0e 01       		.byte	0x1
 1798 0b0f 18       		.uleb128 0x18
 1799 0b10 46020000 		.4byte	.LASF143
 1800 0b14 02       		.byte	0x2
 1801 0b15 00       		.byte	0
 1802 0b16 03       		.uleb128 0x3
 1803 0b17 83090000 		.4byte	.LASF144
 1804 0b1b 27       		.byte	0x27
 1805 0b1c 5C       		.byte	0x5c
 1806 0b1d 03       		.byte	0x3
 1807 0b1e F50A0000 		.4byte	0xaf5
 1808 0b22 03       		.uleb128 0x3
 1809 0b23 1D080000 		.4byte	.LASF145
 1810 0b27 27       		.byte	0x27
 1811 0b28 61       		.byte	0x61
 1812 0b29 22       		.byte	0x22
 1813 0b2a 2E0B0000 		.4byte	0xb2e
 1814 0b2e 07       		.uleb128 0x7
 1815 0b2f 23020000 		.4byte	.LASF146
 1816 0b33 5C       		.byte	0x5c
 1817 0b34 27       		.byte	0x27
 1818 0b35 7B       		.byte	0x7b
 1819 0b36 08       		.byte	0x8
 1820 0b37 970B0000 		.4byte	0xb97
 1821 0b3b 08       		.uleb128 0x8
 1822 0b3c 766D7400 		.ascii	"vmt\000"
 1823 0b40 27       		.byte	0x27
 1824 0b41 7D       		.byte	0x7d
ARM GAS  /tmp/cc7i0MP1.s 			page 33


 1825 0b42 21       		.byte	0x21
 1826 0b43 390C0000 		.4byte	0xc39
 1827 0b47 00       		.byte	0
 1828 0b48 09       		.uleb128 0x9
 1829 0b49 E3030000 		.4byte	.LASF147
 1830 0b4d 27       		.byte	0x27
 1831 0b4e 7E       		.byte	0x7e
 1832 0b4f 03       		.byte	0x3
 1833 0b50 0C090000 		.4byte	0x90c
 1834 0b54 04       		.byte	0x4
 1835 0b55 09       		.uleb128 0x9
 1836 0b56 01020000 		.4byte	.LASF37
 1837 0b5a 27       		.byte	0x27
 1838 0b5b 7E       		.byte	0x7e
 1839 0b5c 03       		.byte	0x3
 1840 0b5d 160B0000 		.4byte	0xb16
 1841 0b61 08       		.byte	0x8
 1842 0b62 09       		.uleb128 0x9
 1843 0b63 6A030000 		.4byte	.LASF148
 1844 0b67 27       		.byte	0x27
 1845 0b68 7E       		.byte	0x7e
 1846 0b69 03       		.byte	0x3
 1847 0b6a DD0A0000 		.4byte	0xadd
 1848 0b6e 0C       		.byte	0xc
 1849 0b6f 09       		.uleb128 0x9
 1850 0b70 53070000 		.4byte	.LASF149
 1851 0b74 27       		.byte	0x27
 1852 0b75 7E       		.byte	0x7e
 1853 0b76 03       		.byte	0x3
 1854 0b77 E90A0000 		.4byte	0xae9
 1855 0b7b 30       		.byte	0x30
 1856 0b7c 09       		.uleb128 0x9
 1857 0b7d 1D030000 		.4byte	.LASF150
 1858 0b81 27       		.byte	0x27
 1859 0b82 7E       		.byte	0x7e
 1860 0b83 03       		.byte	0x3
 1861 0b84 3F0C0000 		.4byte	0xc3f
 1862 0b88 54       		.byte	0x54
 1863 0b89 09       		.uleb128 0x9
 1864 0b8a 2F010000 		.4byte	.LASF151
 1865 0b8e 27       		.byte	0x27
 1866 0b8f 7E       		.byte	0x7e
 1867 0b90 03       		.byte	0x3
 1868 0b91 BF000000 		.4byte	0xbf
 1869 0b95 58       		.byte	0x58
 1870 0b96 00       		.byte	0
 1871 0b97 19       		.uleb128 0x19
 1872 0b98 53443200 		.ascii	"SD2\000"
 1873 0b9c 2E       		.byte	0x2e
 1874 0b9d 3002     		.2byte	0x230
 1875 0b9f 15       		.byte	0x15
 1876 0ba0 220B0000 		.4byte	0xb22
 1877 0ba4 07       		.uleb128 0x7
 1878 0ba5 39030000 		.4byte	.LASF152
 1879 0ba9 28       		.byte	0x28
 1880 0baa 27       		.byte	0x27
 1881 0bab 70       		.byte	0x70
ARM GAS  /tmp/cc7i0MP1.s 			page 34


 1882 0bac 08       		.byte	0x8
 1883 0bad 340C0000 		.4byte	0xc34
 1884 0bb1 09       		.uleb128 0x9
 1885 0bb2 00000000 		.4byte	.LASF153
 1886 0bb6 27       		.byte	0x27
 1887 0bb7 71       		.byte	0x71
 1888 0bb8 03       		.byte	0x3
 1889 0bb9 2C000000 		.4byte	0x2c
 1890 0bbd 00       		.byte	0
 1891 0bbe 09       		.uleb128 0x9
 1892 0bbf 1B050000 		.4byte	.LASF154
 1893 0bc3 27       		.byte	0x27
 1894 0bc4 71       		.byte	0x71
 1895 0bc5 03       		.byte	0x3
 1896 0bc6 44090000 		.4byte	0x944
 1897 0bca 04       		.byte	0x4
 1898 0bcb 09       		.uleb128 0x9
 1899 0bcc 5C040000 		.4byte	.LASF155
 1900 0bd0 27       		.byte	0x27
 1901 0bd1 71       		.byte	0x71
 1902 0bd2 03       		.byte	0x3
 1903 0bd3 63090000 		.4byte	0x963
 1904 0bd7 08       		.byte	0x8
 1905 0bd8 08       		.uleb128 0x8
 1906 0bd9 70757400 		.ascii	"put\000"
 1907 0bdd 27       		.byte	0x27
 1908 0bde 71       		.byte	0x71
 1909 0bdf 03       		.byte	0x3
 1910 0be0 7D090000 		.4byte	0x97d
 1911 0be4 0C       		.byte	0xc
 1912 0be5 08       		.uleb128 0x8
 1913 0be6 67657400 		.ascii	"get\000"
 1914 0bea 27       		.byte	0x27
 1915 0beb 71       		.byte	0x71
 1916 0bec 03       		.byte	0x3
 1917 0bed 92090000 		.4byte	0x992
 1918 0bf1 10       		.byte	0x10
 1919 0bf2 09       		.uleb128 0x9
 1920 0bf3 2F050000 		.4byte	.LASF156
 1921 0bf7 27       		.byte	0x27
 1922 0bf8 71       		.byte	0x71
 1923 0bf9 03       		.byte	0x3
 1924 0bfa B1090000 		.4byte	0x9b1
 1925 0bfe 14       		.byte	0x14
 1926 0bff 09       		.uleb128 0x9
 1927 0c00 89030000 		.4byte	.LASF157
 1928 0c04 27       		.byte	0x27
 1929 0c05 71       		.byte	0x71
 1930 0c06 03       		.byte	0x3
 1931 0c07 CB090000 		.4byte	0x9cb
 1932 0c0b 18       		.byte	0x18
 1933 0c0c 09       		.uleb128 0x9
 1934 0c0d 74040000 		.4byte	.LASF158
 1935 0c11 27       		.byte	0x27
 1936 0c12 71       		.byte	0x71
 1937 0c13 03       		.byte	0x3
 1938 0c14 EF090000 		.4byte	0x9ef
ARM GAS  /tmp/cc7i0MP1.s 			page 35


 1939 0c18 1C       		.byte	0x1c
 1940 0c19 09       		.uleb128 0x9
 1941 0c1a 6F010000 		.4byte	.LASF159
 1942 0c1e 27       		.byte	0x27
 1943 0c1f 71       		.byte	0x71
 1944 0c20 03       		.byte	0x3
 1945 0c21 130A0000 		.4byte	0xa13
 1946 0c25 20       		.byte	0x20
 1947 0c26 08       		.uleb128 0x8
 1948 0c27 63746C00 		.ascii	"ctl\000"
 1949 0c2b 27       		.byte	0x27
 1950 0c2c 71       		.byte	0x71
 1951 0c2d 03       		.byte	0x3
 1952 0c2e 320A0000 		.4byte	0xa32
 1953 0c32 24       		.byte	0x24
 1954 0c33 00       		.byte	0
 1955 0c34 06       		.uleb128 0x6
 1956 0c35 A40B0000 		.4byte	0xba4
 1957 0c39 0D       		.uleb128 0xd
 1958 0c3a 04       		.byte	0x4
 1959 0c3b 340C0000 		.4byte	0xc34
 1960 0c3f 0D       		.uleb128 0xd
 1961 0c40 04       		.byte	0x4
 1962 0c41 68050000 		.4byte	0x568
 1963 0c45 1A       		.uleb128 0x1a
 1964 0c46 FF020000 		.4byte	.LASF160
 1965 0c4a 03       		.byte	0x3
 1966 0c4b 80       		.byte	0x80
 1967 0c4c 06       		.byte	0x6
 1968 0c4d 00000000 		.4byte	.LFB455
 1969 0c51 12000000 		.4byte	.LFE455-.LFB455
 1970 0c55 01       		.uleb128 0x1
 1971 0c56 9C       		.byte	0x9c
 1972 0c57 A30C0000 		.4byte	0xca3
 1973 0c5b 1B       		.uleb128 0x1b
 1974 0c5c A00D0000 		.4byte	0xda0
 1975 0c60 00000000 		.4byte	.LBI110
 1976 0c64 1A       		.byte	.LVU109
 1977 0c65 30000000 		.4byte	.Ldebug_ranges0+0x30
 1978 0c69 03       		.byte	0x3
 1979 0c6a 8F       		.byte	0x8f
 1980 0c6b 03       		.byte	0x3
 1981 0c6c 800C0000 		.4byte	0xc80
 1982 0c70 1C       		.uleb128 0x1c
 1983 0c71 08000000 		.4byte	.LVL6
 1984 0c75 1F0F0000 		.4byte	0xf1f
 1985 0c79 1D       		.uleb128 0x1d
 1986 0c7a 01       		.uleb128 0x1
 1987 0c7b 50       		.byte	0x50
 1988 0c7c 01       		.uleb128 0x1
 1989 0c7d 4C       		.byte	0x4c
 1990 0c7e 00       		.byte	0
 1991 0c7f 00       		.byte	0
 1992 0c80 1E       		.uleb128 0x1e
 1993 0c81 350E0000 		.4byte	0xe35
 1994 0c85 08000000 		.4byte	.LBI114
 1995 0c89 0F       		.byte	.LVU128
ARM GAS  /tmp/cc7i0MP1.s 			page 36


 1996 0c8a 48000000 		.4byte	.Ldebug_ranges0+0x48
 1997 0c8e 03       		.byte	0x3
 1998 0c8f 98       		.byte	0x98
 1999 0c90 03       		.byte	0x3
 2000 0c91 1F       		.uleb128 0x1f
 2001 0c92 12000000 		.4byte	.LVL7
 2002 0c96 1F0F0000 		.4byte	0xf1f
 2003 0c9a 1D       		.uleb128 0x1d
 2004 0c9b 01       		.uleb128 0x1
 2005 0c9c 50       		.byte	0x50
 2006 0c9d 02       		.uleb128 0x2
 2007 0c9e 08       		.byte	0x8
 2008 0c9f 26       		.byte	0x26
 2009 0ca0 00       		.byte	0
 2010 0ca1 00       		.byte	0
 2011 0ca2 00       		.byte	0
 2012 0ca3 1A       		.uleb128 0x1a
 2013 0ca4 13060000 		.4byte	.LASF161
 2014 0ca8 03       		.byte	0x3
 2015 0ca9 5C       		.byte	0x5c
 2016 0caa 06       		.byte	0x6
 2017 0cab 00000000 		.4byte	.LFB454
 2018 0caf 16000000 		.4byte	.LFE454-.LFB454
 2019 0cb3 01       		.uleb128 0x1
 2020 0cb4 9C       		.byte	0x9c
 2021 0cb5 0B0D0000 		.4byte	0xd0b
 2022 0cb9 1B       		.uleb128 0x1b
 2023 0cba A90D0000 		.4byte	0xda9
 2024 0cbe 00000000 		.4byte	.LBI102
 2025 0cc2 1A       		.byte	.LVU60
 2026 0cc3 00000000 		.4byte	.Ldebug_ranges0+0
 2027 0cc7 03       		.byte	0x3
 2028 0cc8 6B       		.byte	0x6b
 2029 0cc9 03       		.byte	0x3
 2030 0cca E30C0000 		.4byte	0xce3
 2031 0cce 1C       		.uleb128 0x1c
 2032 0ccf 0A000000 		.4byte	.LVL4
 2033 0cd3 2B0F0000 		.4byte	0xf2b
 2034 0cd7 1D       		.uleb128 0x1d
 2035 0cd8 01       		.uleb128 0x1
 2036 0cd9 50       		.byte	0x50
 2037 0cda 01       		.uleb128 0x1
 2038 0cdb 4C       		.byte	0x4c
 2039 0cdc 1D       		.uleb128 0x1d
 2040 0cdd 01       		.uleb128 0x1
 2041 0cde 51       		.byte	0x51
 2042 0cdf 01       		.uleb128 0x1
 2043 0ce0 37       		.byte	0x37
 2044 0ce1 00       		.byte	0
 2045 0ce2 00       		.byte	0
 2046 0ce3 1E       		.uleb128 0x1e
 2047 0ce4 3E0E0000 		.4byte	0xe3e
 2048 0ce8 0A000000 		.4byte	.LBI106
 2049 0cec 0F       		.byte	.LVU79
 2050 0ced 18000000 		.4byte	.Ldebug_ranges0+0x18
 2051 0cf1 03       		.byte	0x3
 2052 0cf2 74       		.byte	0x74
ARM GAS  /tmp/cc7i0MP1.s 			page 37


 2053 0cf3 03       		.byte	0x3
 2054 0cf4 1F       		.uleb128 0x1f
 2055 0cf5 16000000 		.4byte	.LVL5
 2056 0cf9 2B0F0000 		.4byte	0xf2b
 2057 0cfd 1D       		.uleb128 0x1d
 2058 0cfe 01       		.uleb128 0x1
 2059 0cff 50       		.byte	0x50
 2060 0d00 02       		.uleb128 0x2
 2061 0d01 08       		.byte	0x8
 2062 0d02 26       		.byte	0x26
 2063 0d03 1D       		.uleb128 0x1d
 2064 0d04 01       		.uleb128 0x1
 2065 0d05 51       		.byte	0x51
 2066 0d06 01       		.uleb128 0x1
 2067 0d07 3C       		.byte	0x3c
 2068 0d08 00       		.byte	0
 2069 0d09 00       		.byte	0
 2070 0d0a 00       		.byte	0
 2071 0d0b 20       		.uleb128 0x20
 2072 0d0c BE050000 		.4byte	.LASF162
 2073 0d10 15       		.byte	0x15
 2074 0d11 5D       		.byte	0x5d
 2075 0d12 14       		.byte	0x14
 2076 0d13 03       		.byte	0x3
 2077 0d14 20       		.uleb128 0x20
 2078 0d15 8A060000 		.4byte	.LASF163
 2079 0d19 15       		.byte	0x15
 2080 0d1a 56       		.byte	0x56
 2081 0d1b 14       		.byte	0x14
 2082 0d1c 03       		.byte	0x3
 2083 0d1d 20       		.uleb128 0x20
 2084 0d1e 99030000 		.4byte	.LASF164
 2085 0d22 14       		.byte	0x14
 2086 0d23 54       		.byte	0x54
 2087 0d24 14       		.byte	0x14
 2088 0d25 03       		.byte	0x3
 2089 0d26 20       		.uleb128 0x20
 2090 0d27 96080000 		.4byte	.LASF165
 2091 0d2b 14       		.byte	0x14
 2092 0d2c 4E       		.byte	0x4e
 2093 0d2d 14       		.byte	0x14
 2094 0d2e 03       		.byte	0x3
 2095 0d2f 20       		.uleb128 0x20
 2096 0d30 3E010000 		.4byte	.LASF166
 2097 0d34 13       		.byte	0x13
 2098 0d35 54       		.byte	0x54
 2099 0d36 14       		.byte	0x14
 2100 0d37 03       		.byte	0x3
 2101 0d38 20       		.uleb128 0x20
 2102 0d39 4E040000 		.4byte	.LASF167
 2103 0d3d 13       		.byte	0x13
 2104 0d3e 4E       		.byte	0x4e
 2105 0d3f 14       		.byte	0x14
 2106 0d40 03       		.byte	0x3
 2107 0d41 20       		.uleb128 0x20
 2108 0d42 73070000 		.4byte	.LASF168
 2109 0d46 12       		.byte	0x12
ARM GAS  /tmp/cc7i0MP1.s 			page 38


 2110 0d47 54       		.byte	0x54
 2111 0d48 14       		.byte	0x14
 2112 0d49 03       		.byte	0x3
 2113 0d4a 20       		.uleb128 0x20
 2114 0d4b 5E060000 		.4byte	.LASF169
 2115 0d4f 12       		.byte	0x12
 2116 0d50 4E       		.byte	0x4e
 2117 0d51 14       		.byte	0x14
 2118 0d52 03       		.byte	0x3
 2119 0d53 20       		.uleb128 0x20
 2120 0d54 21090000 		.4byte	.LASF170
 2121 0d58 11       		.byte	0x11
 2122 0d59 54       		.byte	0x54
 2123 0d5a 14       		.byte	0x14
 2124 0d5b 03       		.byte	0x3
 2125 0d5c 20       		.uleb128 0x20
 2126 0d5d 50060000 		.4byte	.LASF171
 2127 0d61 11       		.byte	0x11
 2128 0d62 4E       		.byte	0x4e
 2129 0d63 14       		.byte	0x14
 2130 0d64 03       		.byte	0x3
 2131 0d65 20       		.uleb128 0x20
 2132 0d66 4D0B0000 		.4byte	.LASF172
 2133 0d6a 10       		.byte	0x10
 2134 0d6b 54       		.byte	0x54
 2135 0d6c 14       		.byte	0x14
 2136 0d6d 03       		.byte	0x3
 2137 0d6e 20       		.uleb128 0x20
 2138 0d6f 38060000 		.4byte	.LASF173
 2139 0d73 10       		.byte	0x10
 2140 0d74 4E       		.byte	0x4e
 2141 0d75 14       		.byte	0x14
 2142 0d76 03       		.byte	0x3
 2143 0d77 1A       		.uleb128 0x1a
 2144 0d78 E8010000 		.4byte	.LASF174
 2145 0d7c 02       		.byte	0x2
 2146 0d7d 64       		.byte	0x64
 2147 0d7e 01       		.byte	0x1
 2148 0d7f 00000000 		.4byte	.LFB441
 2149 0d83 0E000000 		.4byte	.LFE441-.LFB441
 2150 0d87 01       		.uleb128 0x1
 2151 0d88 9C       		.byte	0x9c
 2152 0d89 A00D0000 		.4byte	0xda0
 2153 0d8d 21       		.uleb128 0x21
 2154 0d8e 06000000 		.4byte	.LVL2
 2155 0d92 370F0000 		.4byte	0xf37
 2156 0d96 22       		.uleb128 0x22
 2157 0d97 0E000000 		.4byte	.LVL3
 2158 0d9b 440F0000 		.4byte	0xf44
 2159 0d9f 00       		.byte	0
 2160 0da0 20       		.uleb128 0x20
 2161 0da1 100B0000 		.4byte	.LASF175
 2162 0da5 02       		.byte	0x2
 2163 0da6 54       		.byte	0x54
 2164 0da7 14       		.byte	0x14
 2165 0da8 03       		.byte	0x3
 2166 0da9 20       		.uleb128 0x20
ARM GAS  /tmp/cc7i0MP1.s 			page 39


 2167 0daa 1B060000 		.4byte	.LASF176
 2168 0dae 02       		.byte	0x2
 2169 0daf 4E       		.byte	0x4e
 2170 0db0 14       		.byte	0x14
 2171 0db1 03       		.byte	0x3
 2172 0db2 20       		.uleb128 0x20
 2173 0db3 40000000 		.4byte	.LASF177
 2174 0db7 0F       		.byte	0xf
 2175 0db8 AC       		.byte	0xac
 2176 0db9 14       		.byte	0x14
 2177 0dba 03       		.byte	0x3
 2178 0dbb 20       		.uleb128 0x20
 2179 0dbc 6F000000 		.4byte	.LASF178
 2180 0dc0 0F       		.byte	0xf
 2181 0dc1 99       		.byte	0x99
 2182 0dc2 14       		.byte	0x14
 2183 0dc3 03       		.byte	0x3
 2184 0dc4 20       		.uleb128 0x20
 2185 0dc5 10020000 		.4byte	.LASF179
 2186 0dc9 28       		.byte	0x28
 2187 0dca 45       		.byte	0x45
 2188 0dcb 14       		.byte	0x14
 2189 0dcc 03       		.byte	0x3
 2190 0dcd 20       		.uleb128 0x20
 2191 0dce 5E010000 		.4byte	.LASF180
 2192 0dd2 28       		.byte	0x28
 2193 0dd3 3F       		.byte	0x3f
 2194 0dd4 14       		.byte	0x14
 2195 0dd5 03       		.byte	0x3
 2196 0dd6 20       		.uleb128 0x20
 2197 0dd7 110A0000 		.4byte	.LASF181
 2198 0ddb 29       		.byte	0x29
 2199 0ddc 45       		.byte	0x45
 2200 0ddd 14       		.byte	0x14
 2201 0dde 03       		.byte	0x3
 2202 0ddf 20       		.uleb128 0x20
 2203 0de0 29060000 		.4byte	.LASF182
 2204 0de4 29       		.byte	0x29
 2205 0de5 3F       		.byte	0x3f
 2206 0de6 14       		.byte	0x14
 2207 0de7 03       		.byte	0x3
 2208 0de8 20       		.uleb128 0x20
 2209 0de9 0A070000 		.4byte	.LASF183
 2210 0ded 2A       		.byte	0x2a
 2211 0dee 45       		.byte	0x45
 2212 0def 14       		.byte	0x14
 2213 0df0 03       		.byte	0x3
 2214 0df1 20       		.uleb128 0x20
 2215 0df2 69020000 		.4byte	.LASF184
 2216 0df6 2A       		.byte	0x2a
 2217 0df7 3F       		.byte	0x3f
 2218 0df8 14       		.byte	0x14
 2219 0df9 03       		.byte	0x3
 2220 0dfa 20       		.uleb128 0x20
 2221 0dfb A8060000 		.4byte	.LASF185
 2222 0dff 2B       		.byte	0x2b
 2223 0e00 45       		.byte	0x45
ARM GAS  /tmp/cc7i0MP1.s 			page 40


 2224 0e01 14       		.byte	0x14
 2225 0e02 03       		.byte	0x3
 2226 0e03 20       		.uleb128 0x20
 2227 0e04 50050000 		.4byte	.LASF186
 2228 0e08 2B       		.byte	0x2b
 2229 0e09 3F       		.byte	0x3f
 2230 0e0a 14       		.byte	0x14
 2231 0e0b 03       		.byte	0x3
 2232 0e0c 1A       		.uleb128 0x1a
 2233 0e0d CD040000 		.4byte	.LASF187
 2234 0e11 01       		.byte	0x1
 2235 0e12 55       		.byte	0x55
 2236 0e13 01       		.byte	0x1
 2237 0e14 00000000 		.4byte	.LFB428
 2238 0e18 14000000 		.4byte	.LFE428-.LFB428
 2239 0e1c 01       		.uleb128 0x1
 2240 0e1d 9C       		.byte	0x9c
 2241 0e1e 350E0000 		.4byte	0xe35
 2242 0e22 21       		.uleb128 0x21
 2243 0e23 08000000 		.4byte	.LVL0
 2244 0e27 510F0000 		.4byte	0xf51
 2245 0e2b 22       		.uleb128 0x22
 2246 0e2c 10000000 		.4byte	.LVL1
 2247 0e30 440F0000 		.4byte	0xf44
 2248 0e34 00       		.byte	0
 2249 0e35 20       		.uleb128 0x20
 2250 0e36 A8090000 		.4byte	.LASF188
 2251 0e3a 01       		.byte	0x1
 2252 0e3b 45       		.byte	0x45
 2253 0e3c 14       		.byte	0x14
 2254 0e3d 03       		.byte	0x3
 2255 0e3e 20       		.uleb128 0x20
 2256 0e3f 34050000 		.4byte	.LASF189
 2257 0e43 01       		.byte	0x1
 2258 0e44 3F       		.byte	0x3f
 2259 0e45 14       		.byte	0x14
 2260 0e46 03       		.byte	0x3
 2261 0e47 20       		.uleb128 0x20
 2262 0e48 F9090000 		.4byte	.LASF190
 2263 0e4c 16       		.byte	0x16
 2264 0e4d 45       		.byte	0x45
 2265 0e4e 14       		.byte	0x14
 2266 0e4f 03       		.byte	0x3
 2267 0e50 20       		.uleb128 0x20
 2268 0e51 7A010000 		.4byte	.LASF191
 2269 0e55 16       		.byte	0x16
 2270 0e56 3F       		.byte	0x3f
 2271 0e57 14       		.byte	0x14
 2272 0e58 03       		.byte	0x3
 2273 0e59 20       		.uleb128 0x20
 2274 0e5a A9050000 		.4byte	.LASF192
 2275 0e5e 0E       		.byte	0xe
 2276 0e5f 3C       		.byte	0x3c
 2277 0e60 14       		.byte	0x14
 2278 0e61 03       		.byte	0x3
 2279 0e62 20       		.uleb128 0x20
 2280 0e63 AC020000 		.4byte	.LASF193
ARM GAS  /tmp/cc7i0MP1.s 			page 41


 2281 0e67 0E       		.byte	0xe
 2282 0e68 36       		.byte	0x36
 2283 0e69 14       		.byte	0x14
 2284 0e6a 03       		.byte	0x3
 2285 0e6b 20       		.uleb128 0x20
 2286 0e6c 79080000 		.4byte	.LASF194
 2287 0e70 0D       		.byte	0xd
 2288 0e71 3C       		.byte	0x3c
 2289 0e72 14       		.byte	0x14
 2290 0e73 03       		.byte	0x3
 2291 0e74 20       		.uleb128 0x20
 2292 0e75 A4010000 		.4byte	.LASF195
 2293 0e79 0D       		.byte	0xd
 2294 0e7a 36       		.byte	0x36
 2295 0e7b 14       		.byte	0x14
 2296 0e7c 03       		.byte	0x3
 2297 0e7d 20       		.uleb128 0x20
 2298 0e7e 2E040000 		.4byte	.LASF196
 2299 0e82 0C       		.byte	0xc
 2300 0e83 3C       		.byte	0x3c
 2301 0e84 14       		.byte	0x14
 2302 0e85 03       		.byte	0x3
 2303 0e86 20       		.uleb128 0x20
 2304 0e87 33080000 		.4byte	.LASF197
 2305 0e8b 0C       		.byte	0xc
 2306 0e8c 36       		.byte	0x36
 2307 0e8d 14       		.byte	0x14
 2308 0e8e 03       		.byte	0x3
 2309 0e8f 20       		.uleb128 0x20
 2310 0e90 A2070000 		.4byte	.LASF198
 2311 0e94 0B       		.byte	0xb
 2312 0e95 3E       		.byte	0x3e
 2313 0e96 14       		.byte	0x14
 2314 0e97 03       		.byte	0x3
 2315 0e98 20       		.uleb128 0x20
 2316 0e99 50030000 		.4byte	.LASF199
 2317 0e9d 0B       		.byte	0xb
 2318 0e9e 36       		.byte	0x36
 2319 0e9f 14       		.byte	0x14
 2320 0ea0 03       		.byte	0x3
 2321 0ea1 20       		.uleb128 0x20
 2322 0ea2 B8040000 		.4byte	.LASF200
 2323 0ea6 0A       		.byte	0xa
 2324 0ea7 3C       		.byte	0x3c
 2325 0ea8 14       		.byte	0x14
 2326 0ea9 03       		.byte	0x3
 2327 0eaa 20       		.uleb128 0x20
 2328 0eab C2090000 		.4byte	.LASF201
 2329 0eaf 0A       		.byte	0xa
 2330 0eb0 36       		.byte	0x36
 2331 0eb1 14       		.byte	0x14
 2332 0eb2 03       		.byte	0x3
 2333 0eb3 20       		.uleb128 0x20
 2334 0eb4 61040000 		.4byte	.LASF202
 2335 0eb8 09       		.byte	0x9
 2336 0eb9 3C       		.byte	0x3c
 2337 0eba 14       		.byte	0x14
ARM GAS  /tmp/cc7i0MP1.s 			page 42


 2338 0ebb 03       		.byte	0x3
 2339 0ebc 20       		.uleb128 0x20
 2340 0ebd 62070000 		.4byte	.LASF203
 2341 0ec1 09       		.byte	0x9
 2342 0ec2 36       		.byte	0x36
 2343 0ec3 14       		.byte	0x14
 2344 0ec4 03       		.byte	0x3
 2345 0ec5 20       		.uleb128 0x20
 2346 0ec6 A7040000 		.4byte	.LASF204
 2347 0eca 08       		.byte	0x8
 2348 0ecb 3C       		.byte	0x3c
 2349 0ecc 14       		.byte	0x14
 2350 0ecd 03       		.byte	0x3
 2351 0ece 20       		.uleb128 0x20
 2352 0ecf 3E0B0000 		.4byte	.LASF205
 2353 0ed3 08       		.byte	0x8
 2354 0ed4 36       		.byte	0x36
 2355 0ed5 14       		.byte	0x14
 2356 0ed6 03       		.byte	0x3
 2357 0ed7 20       		.uleb128 0x20
 2358 0ed8 CE050000 		.4byte	.LASF206
 2359 0edc 07       		.byte	0x7
 2360 0edd 3C       		.byte	0x3c
 2361 0ede 14       		.byte	0x14
 2362 0edf 03       		.byte	0x3
 2363 0ee0 20       		.uleb128 0x20
 2364 0ee1 2F0B0000 		.4byte	.LASF207
 2365 0ee5 07       		.byte	0x7
 2366 0ee6 36       		.byte	0x36
 2367 0ee7 14       		.byte	0x14
 2368 0ee8 03       		.byte	0x3
 2369 0ee9 20       		.uleb128 0x20
 2370 0eea 9B020000 		.4byte	.LASF208
 2371 0eee 06       		.byte	0x6
 2372 0eef 3C       		.byte	0x3c
 2373 0ef0 14       		.byte	0x14
 2374 0ef1 03       		.byte	0x3
 2375 0ef2 20       		.uleb128 0x20
 2376 0ef3 200B0000 		.4byte	.LASF209
 2377 0ef7 06       		.byte	0x6
 2378 0ef8 36       		.byte	0x36
 2379 0ef9 14       		.byte	0x14
 2380 0efa 03       		.byte	0x3
 2381 0efb 20       		.uleb128 0x20
 2382 0efc FE080000 		.4byte	.LASF210
 2383 0f00 05       		.byte	0x5
 2384 0f01 3C       		.byte	0x3c
 2385 0f02 14       		.byte	0x14
 2386 0f03 03       		.byte	0x3
 2387 0f04 20       		.uleb128 0x20
 2388 0f05 3D070000 		.4byte	.LASF211
 2389 0f09 05       		.byte	0x5
 2390 0f0a 36       		.byte	0x36
 2391 0f0b 14       		.byte	0x14
 2392 0f0c 03       		.byte	0x3
 2393 0f0d 20       		.uleb128 0x20
 2394 0f0e 5C080000 		.4byte	.LASF212
ARM GAS  /tmp/cc7i0MP1.s 			page 43


 2395 0f12 04       		.byte	0x4
 2396 0f13 3C       		.byte	0x3c
 2397 0f14 14       		.byte	0x14
 2398 0f15 03       		.byte	0x3
 2399 0f16 20       		.uleb128 0x20
 2400 0f17 010B0000 		.4byte	.LASF213
 2401 0f1b 04       		.byte	0x4
 2402 0f1c 36       		.byte	0x36
 2403 0f1d 14       		.byte	0x14
 2404 0f1e 03       		.byte	0x3
 2405 0f1f 23       		.uleb128 0x23
 2406 0f20 D6010000 		.4byte	.LASF214
 2407 0f24 D6010000 		.4byte	.LASF214
 2408 0f28 2C       		.byte	0x2c
 2409 0f29 50       		.byte	0x50
 2410 0f2a 08       		.byte	0x8
 2411 0f2b 23       		.uleb128 0x23
 2412 0f2c F00A0000 		.4byte	.LASF215
 2413 0f30 F00A0000 		.4byte	.LASF215
 2414 0f34 2C       		.byte	0x2c
 2415 0f35 4F       		.byte	0x4f
 2416 0f36 08       		.byte	0x8
 2417 0f37 24       		.uleb128 0x24
 2418 0f38 10000000 		.4byte	.LASF216
 2419 0f3c 10000000 		.4byte	.LASF216
 2420 0f40 2D       		.byte	0x2d
 2421 0f41 A602     		.2byte	0x2a6
 2422 0f43 08       		.byte	0x8
 2423 0f44 24       		.uleb128 0x24
 2424 0f45 6F090000 		.4byte	.LASF217
 2425 0f49 6F090000 		.4byte	.LASF217
 2426 0f4d 22       		.byte	0x22
 2427 0f4e E302     		.2byte	0x2e3
 2428 0f50 08       		.byte	0x8
 2429 0f51 24       		.uleb128 0x24
 2430 0f52 8B070000 		.4byte	.LASF218
 2431 0f56 8B070000 		.4byte	.LASF218
 2432 0f5a 2E       		.byte	0x2e
 2433 0f5b 4E02     		.2byte	0x24e
 2434 0f5d 08       		.byte	0x8
 2435 0f5e 00       		.byte	0
 2436              		.section	.debug_abbrev,"",%progbits
 2437              	.Ldebug_abbrev0:
 2438 0000 01       		.uleb128 0x1
 2439 0001 11       		.uleb128 0x11
 2440 0002 01       		.byte	0x1
 2441 0003 25       		.uleb128 0x25
 2442 0004 0E       		.uleb128 0xe
 2443 0005 13       		.uleb128 0x13
 2444 0006 0B       		.uleb128 0xb
 2445 0007 03       		.uleb128 0x3
 2446 0008 0E       		.uleb128 0xe
 2447 0009 1B       		.uleb128 0x1b
 2448 000a 0E       		.uleb128 0xe
 2449 000b 55       		.uleb128 0x55
 2450 000c 17       		.uleb128 0x17
 2451 000d 11       		.uleb128 0x11
ARM GAS  /tmp/cc7i0MP1.s 			page 44


 2452 000e 01       		.uleb128 0x1
 2453 000f 10       		.uleb128 0x10
 2454 0010 17       		.uleb128 0x17
 2455 0011 00       		.byte	0
 2456 0012 00       		.byte	0
 2457 0013 02       		.uleb128 0x2
 2458 0014 24       		.uleb128 0x24
 2459 0015 00       		.byte	0
 2460 0016 0B       		.uleb128 0xb
 2461 0017 0B       		.uleb128 0xb
 2462 0018 3E       		.uleb128 0x3e
 2463 0019 0B       		.uleb128 0xb
 2464 001a 03       		.uleb128 0x3
 2465 001b 08       		.uleb128 0x8
 2466 001c 00       		.byte	0
 2467 001d 00       		.byte	0
 2468 001e 03       		.uleb128 0x3
 2469 001f 16       		.uleb128 0x16
 2470 0020 00       		.byte	0
 2471 0021 03       		.uleb128 0x3
 2472 0022 0E       		.uleb128 0xe
 2473 0023 3A       		.uleb128 0x3a
 2474 0024 0B       		.uleb128 0xb
 2475 0025 3B       		.uleb128 0x3b
 2476 0026 0B       		.uleb128 0xb
 2477 0027 39       		.uleb128 0x39
 2478 0028 0B       		.uleb128 0xb
 2479 0029 49       		.uleb128 0x49
 2480 002a 13       		.uleb128 0x13
 2481 002b 00       		.byte	0
 2482 002c 00       		.byte	0
 2483 002d 04       		.uleb128 0x4
 2484 002e 35       		.uleb128 0x35
 2485 002f 00       		.byte	0
 2486 0030 49       		.uleb128 0x49
 2487 0031 13       		.uleb128 0x13
 2488 0032 00       		.byte	0
 2489 0033 00       		.byte	0
 2490 0034 05       		.uleb128 0x5
 2491 0035 24       		.uleb128 0x24
 2492 0036 00       		.byte	0
 2493 0037 0B       		.uleb128 0xb
 2494 0038 0B       		.uleb128 0xb
 2495 0039 3E       		.uleb128 0x3e
 2496 003a 0B       		.uleb128 0xb
 2497 003b 03       		.uleb128 0x3
 2498 003c 0E       		.uleb128 0xe
 2499 003d 00       		.byte	0
 2500 003e 00       		.byte	0
 2501 003f 06       		.uleb128 0x6
 2502 0040 26       		.uleb128 0x26
 2503 0041 00       		.byte	0
 2504 0042 49       		.uleb128 0x49
 2505 0043 13       		.uleb128 0x13
 2506 0044 00       		.byte	0
 2507 0045 00       		.byte	0
 2508 0046 07       		.uleb128 0x7
ARM GAS  /tmp/cc7i0MP1.s 			page 45


 2509 0047 13       		.uleb128 0x13
 2510 0048 01       		.byte	0x1
 2511 0049 03       		.uleb128 0x3
 2512 004a 0E       		.uleb128 0xe
 2513 004b 0B       		.uleb128 0xb
 2514 004c 0B       		.uleb128 0xb
 2515 004d 3A       		.uleb128 0x3a
 2516 004e 0B       		.uleb128 0xb
 2517 004f 3B       		.uleb128 0x3b
 2518 0050 0B       		.uleb128 0xb
 2519 0051 39       		.uleb128 0x39
 2520 0052 0B       		.uleb128 0xb
 2521 0053 01       		.uleb128 0x1
 2522 0054 13       		.uleb128 0x13
 2523 0055 00       		.byte	0
 2524 0056 00       		.byte	0
 2525 0057 08       		.uleb128 0x8
 2526 0058 0D       		.uleb128 0xd
 2527 0059 00       		.byte	0
 2528 005a 03       		.uleb128 0x3
 2529 005b 08       		.uleb128 0x8
 2530 005c 3A       		.uleb128 0x3a
 2531 005d 0B       		.uleb128 0xb
 2532 005e 3B       		.uleb128 0x3b
 2533 005f 0B       		.uleb128 0xb
 2534 0060 39       		.uleb128 0x39
 2535 0061 0B       		.uleb128 0xb
 2536 0062 49       		.uleb128 0x49
 2537 0063 13       		.uleb128 0x13
 2538 0064 38       		.uleb128 0x38
 2539 0065 0B       		.uleb128 0xb
 2540 0066 00       		.byte	0
 2541 0067 00       		.byte	0
 2542 0068 09       		.uleb128 0x9
 2543 0069 0D       		.uleb128 0xd
 2544 006a 00       		.byte	0
 2545 006b 03       		.uleb128 0x3
 2546 006c 0E       		.uleb128 0xe
 2547 006d 3A       		.uleb128 0x3a
 2548 006e 0B       		.uleb128 0xb
 2549 006f 3B       		.uleb128 0x3b
 2550 0070 0B       		.uleb128 0xb
 2551 0071 39       		.uleb128 0x39
 2552 0072 0B       		.uleb128 0xb
 2553 0073 49       		.uleb128 0x49
 2554 0074 13       		.uleb128 0x13
 2555 0075 38       		.uleb128 0x38
 2556 0076 0B       		.uleb128 0xb
 2557 0077 00       		.byte	0
 2558 0078 00       		.byte	0
 2559 0079 0A       		.uleb128 0xa
 2560 007a 0D       		.uleb128 0xd
 2561 007b 00       		.byte	0
 2562 007c 03       		.uleb128 0x3
 2563 007d 08       		.uleb128 0x8
 2564 007e 3A       		.uleb128 0x3a
 2565 007f 0B       		.uleb128 0xb
ARM GAS  /tmp/cc7i0MP1.s 			page 46


 2566 0080 3B       		.uleb128 0x3b
 2567 0081 05       		.uleb128 0x5
 2568 0082 39       		.uleb128 0x39
 2569 0083 0B       		.uleb128 0xb
 2570 0084 49       		.uleb128 0x49
 2571 0085 13       		.uleb128 0x13
 2572 0086 38       		.uleb128 0x38
 2573 0087 0B       		.uleb128 0xb
 2574 0088 00       		.byte	0
 2575 0089 00       		.byte	0
 2576 008a 0B       		.uleb128 0xb
 2577 008b 0D       		.uleb128 0xd
 2578 008c 00       		.byte	0
 2579 008d 03       		.uleb128 0x3
 2580 008e 0E       		.uleb128 0xe
 2581 008f 3A       		.uleb128 0x3a
 2582 0090 0B       		.uleb128 0xb
 2583 0091 3B       		.uleb128 0x3b
 2584 0092 05       		.uleb128 0x5
 2585 0093 39       		.uleb128 0x39
 2586 0094 0B       		.uleb128 0xb
 2587 0095 49       		.uleb128 0x49
 2588 0096 13       		.uleb128 0x13
 2589 0097 38       		.uleb128 0x38
 2590 0098 0B       		.uleb128 0xb
 2591 0099 00       		.byte	0
 2592 009a 00       		.byte	0
 2593 009b 0C       		.uleb128 0xc
 2594 009c 13       		.uleb128 0x13
 2595 009d 01       		.byte	0x1
 2596 009e 03       		.uleb128 0x3
 2597 009f 0E       		.uleb128 0xe
 2598 00a0 0B       		.uleb128 0xb
 2599 00a1 0B       		.uleb128 0xb
 2600 00a2 3A       		.uleb128 0x3a
 2601 00a3 0B       		.uleb128 0xb
 2602 00a4 3B       		.uleb128 0x3b
 2603 00a5 05       		.uleb128 0x5
 2604 00a6 39       		.uleb128 0x39
 2605 00a7 0B       		.uleb128 0xb
 2606 00a8 01       		.uleb128 0x1
 2607 00a9 13       		.uleb128 0x13
 2608 00aa 00       		.byte	0
 2609 00ab 00       		.byte	0
 2610 00ac 0D       		.uleb128 0xd
 2611 00ad 0F       		.uleb128 0xf
 2612 00ae 00       		.byte	0
 2613 00af 0B       		.uleb128 0xb
 2614 00b0 0B       		.uleb128 0xb
 2615 00b1 49       		.uleb128 0x49
 2616 00b2 13       		.uleb128 0x13
 2617 00b3 00       		.byte	0
 2618 00b4 00       		.byte	0
 2619 00b5 0E       		.uleb128 0xe
 2620 00b6 13       		.uleb128 0x13
 2621 00b7 01       		.byte	0x1
 2622 00b8 0B       		.uleb128 0xb
ARM GAS  /tmp/cc7i0MP1.s 			page 47


 2623 00b9 0B       		.uleb128 0xb
 2624 00ba 3A       		.uleb128 0x3a
 2625 00bb 0B       		.uleb128 0xb
 2626 00bc 3B       		.uleb128 0x3b
 2627 00bd 05       		.uleb128 0x5
 2628 00be 39       		.uleb128 0x39
 2629 00bf 0B       		.uleb128 0xb
 2630 00c0 01       		.uleb128 0x1
 2631 00c1 13       		.uleb128 0x13
 2632 00c2 00       		.byte	0
 2633 00c3 00       		.byte	0
 2634 00c4 0F       		.uleb128 0xf
 2635 00c5 16       		.uleb128 0x16
 2636 00c6 00       		.byte	0
 2637 00c7 03       		.uleb128 0x3
 2638 00c8 0E       		.uleb128 0xe
 2639 00c9 3A       		.uleb128 0x3a
 2640 00ca 0B       		.uleb128 0xb
 2641 00cb 3B       		.uleb128 0x3b
 2642 00cc 05       		.uleb128 0x5
 2643 00cd 39       		.uleb128 0x39
 2644 00ce 0B       		.uleb128 0xb
 2645 00cf 49       		.uleb128 0x49
 2646 00d0 13       		.uleb128 0x13
 2647 00d1 00       		.byte	0
 2648 00d2 00       		.byte	0
 2649 00d3 10       		.uleb128 0x10
 2650 00d4 0F       		.uleb128 0xf
 2651 00d5 00       		.byte	0
 2652 00d6 0B       		.uleb128 0xb
 2653 00d7 0B       		.uleb128 0xb
 2654 00d8 00       		.byte	0
 2655 00d9 00       		.byte	0
 2656 00da 11       		.uleb128 0x11
 2657 00db 17       		.uleb128 0x17
 2658 00dc 01       		.byte	0x1
 2659 00dd 0B       		.uleb128 0xb
 2660 00de 0B       		.uleb128 0xb
 2661 00df 3A       		.uleb128 0x3a
 2662 00e0 0B       		.uleb128 0xb
 2663 00e1 3B       		.uleb128 0x3b
 2664 00e2 0B       		.uleb128 0xb
 2665 00e3 39       		.uleb128 0x39
 2666 00e4 0B       		.uleb128 0xb
 2667 00e5 01       		.uleb128 0x1
 2668 00e6 13       		.uleb128 0x13
 2669 00e7 00       		.byte	0
 2670 00e8 00       		.byte	0
 2671 00e9 12       		.uleb128 0x12
 2672 00ea 0D       		.uleb128 0xd
 2673 00eb 00       		.byte	0
 2674 00ec 03       		.uleb128 0x3
 2675 00ed 0E       		.uleb128 0xe
 2676 00ee 3A       		.uleb128 0x3a
 2677 00ef 0B       		.uleb128 0xb
 2678 00f0 3B       		.uleb128 0x3b
 2679 00f1 0B       		.uleb128 0xb
ARM GAS  /tmp/cc7i0MP1.s 			page 48


 2680 00f2 39       		.uleb128 0x39
 2681 00f3 0B       		.uleb128 0xb
 2682 00f4 49       		.uleb128 0x49
 2683 00f5 13       		.uleb128 0x13
 2684 00f6 00       		.byte	0
 2685 00f7 00       		.byte	0
 2686 00f8 13       		.uleb128 0x13
 2687 00f9 0D       		.uleb128 0xd
 2688 00fa 00       		.byte	0
 2689 00fb 03       		.uleb128 0x3
 2690 00fc 0E       		.uleb128 0xe
 2691 00fd 3A       		.uleb128 0x3a
 2692 00fe 0B       		.uleb128 0xb
 2693 00ff 3B       		.uleb128 0x3b
 2694 0100 05       		.uleb128 0x5
 2695 0101 39       		.uleb128 0x39
 2696 0102 0B       		.uleb128 0xb
 2697 0103 49       		.uleb128 0x49
 2698 0104 13       		.uleb128 0x13
 2699 0105 00       		.byte	0
 2700 0106 00       		.byte	0
 2701 0107 14       		.uleb128 0x14
 2702 0108 15       		.uleb128 0x15
 2703 0109 01       		.byte	0x1
 2704 010a 27       		.uleb128 0x27
 2705 010b 19       		.uleb128 0x19
 2706 010c 49       		.uleb128 0x49
 2707 010d 13       		.uleb128 0x13
 2708 010e 01       		.uleb128 0x1
 2709 010f 13       		.uleb128 0x13
 2710 0110 00       		.byte	0
 2711 0111 00       		.byte	0
 2712 0112 15       		.uleb128 0x15
 2713 0113 05       		.uleb128 0x5
 2714 0114 00       		.byte	0
 2715 0115 49       		.uleb128 0x49
 2716 0116 13       		.uleb128 0x13
 2717 0117 00       		.byte	0
 2718 0118 00       		.byte	0
 2719 0119 16       		.uleb128 0x16
 2720 011a 15       		.uleb128 0x15
 2721 011b 01       		.byte	0x1
 2722 011c 27       		.uleb128 0x27
 2723 011d 19       		.uleb128 0x19
 2724 011e 01       		.uleb128 0x1
 2725 011f 13       		.uleb128 0x13
 2726 0120 00       		.byte	0
 2727 0121 00       		.byte	0
 2728 0122 17       		.uleb128 0x17
 2729 0123 04       		.uleb128 0x4
 2730 0124 01       		.byte	0x1
 2731 0125 3E       		.uleb128 0x3e
 2732 0126 0B       		.uleb128 0xb
 2733 0127 0B       		.uleb128 0xb
 2734 0128 0B       		.uleb128 0xb
 2735 0129 49       		.uleb128 0x49
 2736 012a 13       		.uleb128 0x13
ARM GAS  /tmp/cc7i0MP1.s 			page 49


 2737 012b 3A       		.uleb128 0x3a
 2738 012c 0B       		.uleb128 0xb
 2739 012d 3B       		.uleb128 0x3b
 2740 012e 0B       		.uleb128 0xb
 2741 012f 39       		.uleb128 0x39
 2742 0130 0B       		.uleb128 0xb
 2743 0131 01       		.uleb128 0x1
 2744 0132 13       		.uleb128 0x13
 2745 0133 00       		.byte	0
 2746 0134 00       		.byte	0
 2747 0135 18       		.uleb128 0x18
 2748 0136 28       		.uleb128 0x28
 2749 0137 00       		.byte	0
 2750 0138 03       		.uleb128 0x3
 2751 0139 0E       		.uleb128 0xe
 2752 013a 1C       		.uleb128 0x1c
 2753 013b 0B       		.uleb128 0xb
 2754 013c 00       		.byte	0
 2755 013d 00       		.byte	0
 2756 013e 19       		.uleb128 0x19
 2757 013f 34       		.uleb128 0x34
 2758 0140 00       		.byte	0
 2759 0141 03       		.uleb128 0x3
 2760 0142 08       		.uleb128 0x8
 2761 0143 3A       		.uleb128 0x3a
 2762 0144 0B       		.uleb128 0xb
 2763 0145 3B       		.uleb128 0x3b
 2764 0146 05       		.uleb128 0x5
 2765 0147 39       		.uleb128 0x39
 2766 0148 0B       		.uleb128 0xb
 2767 0149 49       		.uleb128 0x49
 2768 014a 13       		.uleb128 0x13
 2769 014b 3F       		.uleb128 0x3f
 2770 014c 19       		.uleb128 0x19
 2771 014d 3C       		.uleb128 0x3c
 2772 014e 19       		.uleb128 0x19
 2773 014f 00       		.byte	0
 2774 0150 00       		.byte	0
 2775 0151 1A       		.uleb128 0x1a
 2776 0152 2E       		.uleb128 0x2e
 2777 0153 01       		.byte	0x1
 2778 0154 3F       		.uleb128 0x3f
 2779 0155 19       		.uleb128 0x19
 2780 0156 03       		.uleb128 0x3
 2781 0157 0E       		.uleb128 0xe
 2782 0158 3A       		.uleb128 0x3a
 2783 0159 0B       		.uleb128 0xb
 2784 015a 3B       		.uleb128 0x3b
 2785 015b 0B       		.uleb128 0xb
 2786 015c 39       		.uleb128 0x39
 2787 015d 0B       		.uleb128 0xb
 2788 015e 27       		.uleb128 0x27
 2789 015f 19       		.uleb128 0x19
 2790 0160 11       		.uleb128 0x11
 2791 0161 01       		.uleb128 0x1
 2792 0162 12       		.uleb128 0x12
 2793 0163 06       		.uleb128 0x6
ARM GAS  /tmp/cc7i0MP1.s 			page 50


 2794 0164 40       		.uleb128 0x40
 2795 0165 18       		.uleb128 0x18
 2796 0166 9742     		.uleb128 0x2117
 2797 0168 19       		.uleb128 0x19
 2798 0169 01       		.uleb128 0x1
 2799 016a 13       		.uleb128 0x13
 2800 016b 00       		.byte	0
 2801 016c 00       		.byte	0
 2802 016d 1B       		.uleb128 0x1b
 2803 016e 1D       		.uleb128 0x1d
 2804 016f 01       		.byte	0x1
 2805 0170 31       		.uleb128 0x31
 2806 0171 13       		.uleb128 0x13
 2807 0172 52       		.uleb128 0x52
 2808 0173 01       		.uleb128 0x1
 2809 0174 B842     		.uleb128 0x2138
 2810 0176 0B       		.uleb128 0xb
 2811 0177 55       		.uleb128 0x55
 2812 0178 17       		.uleb128 0x17
 2813 0179 58       		.uleb128 0x58
 2814 017a 0B       		.uleb128 0xb
 2815 017b 59       		.uleb128 0x59
 2816 017c 0B       		.uleb128 0xb
 2817 017d 57       		.uleb128 0x57
 2818 017e 0B       		.uleb128 0xb
 2819 017f 01       		.uleb128 0x1
 2820 0180 13       		.uleb128 0x13
 2821 0181 00       		.byte	0
 2822 0182 00       		.byte	0
 2823 0183 1C       		.uleb128 0x1c
 2824 0184 898201   		.uleb128 0x4109
 2825 0187 01       		.byte	0x1
 2826 0188 11       		.uleb128 0x11
 2827 0189 01       		.uleb128 0x1
 2828 018a 31       		.uleb128 0x31
 2829 018b 13       		.uleb128 0x13
 2830 018c 00       		.byte	0
 2831 018d 00       		.byte	0
 2832 018e 1D       		.uleb128 0x1d
 2833 018f 8A8201   		.uleb128 0x410a
 2834 0192 00       		.byte	0
 2835 0193 02       		.uleb128 0x2
 2836 0194 18       		.uleb128 0x18
 2837 0195 9142     		.uleb128 0x2111
 2838 0197 18       		.uleb128 0x18
 2839 0198 00       		.byte	0
 2840 0199 00       		.byte	0
 2841 019a 1E       		.uleb128 0x1e
 2842 019b 1D       		.uleb128 0x1d
 2843 019c 01       		.byte	0x1
 2844 019d 31       		.uleb128 0x31
 2845 019e 13       		.uleb128 0x13
 2846 019f 52       		.uleb128 0x52
 2847 01a0 01       		.uleb128 0x1
 2848 01a1 B842     		.uleb128 0x2138
 2849 01a3 0B       		.uleb128 0xb
 2850 01a4 55       		.uleb128 0x55
ARM GAS  /tmp/cc7i0MP1.s 			page 51


 2851 01a5 17       		.uleb128 0x17
 2852 01a6 58       		.uleb128 0x58
 2853 01a7 0B       		.uleb128 0xb
 2854 01a8 59       		.uleb128 0x59
 2855 01a9 0B       		.uleb128 0xb
 2856 01aa 57       		.uleb128 0x57
 2857 01ab 0B       		.uleb128 0xb
 2858 01ac 00       		.byte	0
 2859 01ad 00       		.byte	0
 2860 01ae 1F       		.uleb128 0x1f
 2861 01af 898201   		.uleb128 0x4109
 2862 01b2 01       		.byte	0x1
 2863 01b3 11       		.uleb128 0x11
 2864 01b4 01       		.uleb128 0x1
 2865 01b5 9542     		.uleb128 0x2115
 2866 01b7 19       		.uleb128 0x19
 2867 01b8 31       		.uleb128 0x31
 2868 01b9 13       		.uleb128 0x13
 2869 01ba 00       		.byte	0
 2870 01bb 00       		.byte	0
 2871 01bc 20       		.uleb128 0x20
 2872 01bd 2E       		.uleb128 0x2e
 2873 01be 00       		.byte	0
 2874 01bf 03       		.uleb128 0x3
 2875 01c0 0E       		.uleb128 0xe
 2876 01c1 3A       		.uleb128 0x3a
 2877 01c2 0B       		.uleb128 0xb
 2878 01c3 3B       		.uleb128 0x3b
 2879 01c4 0B       		.uleb128 0xb
 2880 01c5 39       		.uleb128 0x39
 2881 01c6 0B       		.uleb128 0xb
 2882 01c7 27       		.uleb128 0x27
 2883 01c8 19       		.uleb128 0x19
 2884 01c9 20       		.uleb128 0x20
 2885 01ca 0B       		.uleb128 0xb
 2886 01cb 00       		.byte	0
 2887 01cc 00       		.byte	0
 2888 01cd 21       		.uleb128 0x21
 2889 01ce 898201   		.uleb128 0x4109
 2890 01d1 00       		.byte	0
 2891 01d2 11       		.uleb128 0x11
 2892 01d3 01       		.uleb128 0x1
 2893 01d4 31       		.uleb128 0x31
 2894 01d5 13       		.uleb128 0x13
 2895 01d6 00       		.byte	0
 2896 01d7 00       		.byte	0
 2897 01d8 22       		.uleb128 0x22
 2898 01d9 898201   		.uleb128 0x4109
 2899 01dc 00       		.byte	0
 2900 01dd 11       		.uleb128 0x11
 2901 01de 01       		.uleb128 0x1
 2902 01df 9542     		.uleb128 0x2115
 2903 01e1 19       		.uleb128 0x19
 2904 01e2 31       		.uleb128 0x31
 2905 01e3 13       		.uleb128 0x13
 2906 01e4 00       		.byte	0
 2907 01e5 00       		.byte	0
ARM GAS  /tmp/cc7i0MP1.s 			page 52


 2908 01e6 23       		.uleb128 0x23
 2909 01e7 2E       		.uleb128 0x2e
 2910 01e8 00       		.byte	0
 2911 01e9 3F       		.uleb128 0x3f
 2912 01ea 19       		.uleb128 0x19
 2913 01eb 3C       		.uleb128 0x3c
 2914 01ec 19       		.uleb128 0x19
 2915 01ed 6E       		.uleb128 0x6e
 2916 01ee 0E       		.uleb128 0xe
 2917 01ef 03       		.uleb128 0x3
 2918 01f0 0E       		.uleb128 0xe
 2919 01f1 3A       		.uleb128 0x3a
 2920 01f2 0B       		.uleb128 0xb
 2921 01f3 3B       		.uleb128 0x3b
 2922 01f4 0B       		.uleb128 0xb
 2923 01f5 39       		.uleb128 0x39
 2924 01f6 0B       		.uleb128 0xb
 2925 01f7 00       		.byte	0
 2926 01f8 00       		.byte	0
 2927 01f9 24       		.uleb128 0x24
 2928 01fa 2E       		.uleb128 0x2e
 2929 01fb 00       		.byte	0
 2930 01fc 3F       		.uleb128 0x3f
 2931 01fd 19       		.uleb128 0x19
 2932 01fe 3C       		.uleb128 0x3c
 2933 01ff 19       		.uleb128 0x19
 2934 0200 6E       		.uleb128 0x6e
 2935 0201 0E       		.uleb128 0xe
 2936 0202 03       		.uleb128 0x3
 2937 0203 0E       		.uleb128 0xe
 2938 0204 3A       		.uleb128 0x3a
 2939 0205 0B       		.uleb128 0xb
 2940 0206 3B       		.uleb128 0x3b
 2941 0207 05       		.uleb128 0x5
 2942 0208 39       		.uleb128 0x39
 2943 0209 0B       		.uleb128 0xb
 2944 020a 00       		.byte	0
 2945 020b 00       		.byte	0
 2946 020c 00       		.byte	0
 2947              		.section	.debug_aranges,"",%progbits
 2948 0000 34000000 		.4byte	0x34
 2949 0004 0200     		.2byte	0x2
 2950 0006 00000000 		.4byte	.Ldebug_info0
 2951 000a 04       		.byte	0x4
 2952 000b 00       		.byte	0
 2953 000c 0000     		.2byte	0
 2954 000e 0000     		.2byte	0
 2955 0010 00000000 		.4byte	.LFB428
 2956 0014 14000000 		.4byte	.LFE428-.LFB428
 2957 0018 00000000 		.4byte	.LFB441
 2958 001c 0E000000 		.4byte	.LFE441-.LFB441
 2959 0020 00000000 		.4byte	.LFB454
 2960 0024 16000000 		.4byte	.LFE454-.LFB454
 2961 0028 00000000 		.4byte	.LFB455
 2962 002c 12000000 		.4byte	.LFE455-.LFB455
 2963 0030 00000000 		.4byte	0
 2964 0034 00000000 		.4byte	0
ARM GAS  /tmp/cc7i0MP1.s 			page 53


 2965              		.section	.debug_ranges,"",%progbits
 2966              	.Ldebug_ranges0:
 2967 0000 00000000 		.4byte	.LBB102
 2968 0004 00000000 		.4byte	.LBE102
 2969 0008 02000000 		.4byte	.LBB105
 2970 000c 0A000000 		.4byte	.LBE105
 2971 0010 00000000 		.4byte	0
 2972 0014 00000000 		.4byte	0
 2973 0018 0A000000 		.4byte	.LBB106
 2974 001c 0A000000 		.4byte	.LBE106
 2975 0020 0E000000 		.4byte	.LBB109
 2976 0024 16000000 		.4byte	.LBE109
 2977 0028 00000000 		.4byte	0
 2978 002c 00000000 		.4byte	0
 2979 0030 00000000 		.4byte	.LBB110
 2980 0034 00000000 		.4byte	.LBE110
 2981 0038 02000000 		.4byte	.LBB113
 2982 003c 08000000 		.4byte	.LBE113
 2983 0040 00000000 		.4byte	0
 2984 0044 00000000 		.4byte	0
 2985 0048 08000000 		.4byte	.LBB114
 2986 004c 08000000 		.4byte	.LBE114
 2987 0050 0C000000 		.4byte	.LBB117
 2988 0054 12000000 		.4byte	.LBE117
 2989 0058 00000000 		.4byte	0
 2990 005c 00000000 		.4byte	0
 2991 0060 00000000 		.4byte	.LFB428
 2992 0064 14000000 		.4byte	.LFE428
 2993 0068 00000000 		.4byte	.LFB441
 2994 006c 0E000000 		.4byte	.LFE441
 2995 0070 00000000 		.4byte	.LFB454
 2996 0074 16000000 		.4byte	.LFE454
 2997 0078 00000000 		.4byte	.LFB455
 2998 007c 12000000 		.4byte	.LFE455
 2999 0080 00000000 		.4byte	0
 3000 0084 00000000 		.4byte	0
 3001              		.section	.debug_line,"",%progbits
 3002              	.Ldebug_line0:
 3003 0000 31090000 		.section	.debug_str,"MS",%progbits,1
 3003      0300EB05 
 3003      00000201 
 3003      FB0E0D00 
 3003      01010101 
 3004              	.LASF153:
 3005 0000 696E7374 		.ascii	"instance_offset\000"
 3005      616E6365 
 3005      5F6F6666 
 3005      73657400 
 3006              	.LASF216:
 3007 0010 73745F6C 		.ascii	"st_lld_serve_interrupt\000"
 3007      6C645F73 
 3007      65727665 
 3007      5F696E74 
 3007      65727275 
 3008              	.LASF112:
 3009 0027 72656164 		.ascii	"ready_list_t\000"
 3009      795F6C69 
ARM GAS  /tmp/cc7i0MP1.s 			page 54


 3009      73745F74 
 3009      00
 3010              	.LASF53:
 3011 0034 72666375 		.ascii	"rfcu\000"
 3011      00
 3012              	.LASF4:
 3013 0039 73697A65 		.ascii	"size_t\000"
 3013      5F7400
 3014              	.LASF177:
 3015 0040 74696D31 		.ascii	"tim1_tim15_tim16_tim17_irq_deinit\000"
 3015      5F74696D 
 3015      31355F74 
 3015      696D3136 
 3015      5F74696D 
 3016              	.LASF77:
 3017 0062 64656C74 		.ascii	"delta\000"
 3017      6100
 3018              	.LASF100:
 3019 0068 7264796D 		.ascii	"rdymsg\000"
 3019      736700
 3020              	.LASF178:
 3021 006f 74696D31 		.ascii	"tim1_tim15_tim16_tim17_irq_init\000"
 3021      5F74696D 
 3021      31355F74 
 3021      696D3136 
 3021      5F74696D 
 3022              	.LASF20:
 3023 008f 75696E74 		.ascii	"uint64_t\000"
 3023      36345F74 
 3023      00
 3024              	.LASF5:
 3025 0098 5F5F7569 		.ascii	"__uint8_t\000"
 3025      6E74385F 
 3025      7400
 3026              	.LASF71:
 3027 00a2 70726576 		.ascii	"prev\000"
 3027      00
 3028              	.LASF85:
 3029 00a7 706F7274 		.ascii	"port_intctx\000"
 3029      5F696E74 
 3029      63747800 
 3030              	.LASF96:
 3031 00b3 63685F74 		.ascii	"ch_threads_queue\000"
 3031      68726561 
 3031      64735F71 
 3031      75657565 
 3031      00
 3032              	.LASF63:
 3033 00c4 73797374 		.ascii	"system_debug_t\000"
 3033      656D5F64 
 3033      65627567 
 3033      5F7400
 3034              	.LASF130:
 3035 00d3 715F7761 		.ascii	"q_waiting\000"
 3035      6974696E 
 3035      6700
 3036              	.LASF52:
ARM GAS  /tmp/cc7i0MP1.s 			page 55


 3037 00dd 636F7265 		.ascii	"core_id\000"
 3037      5F696400 
 3038              	.LASF72:
 3039 00e5 63685F70 		.ascii	"ch_priority_queue_t\000"
 3039      72696F72 
 3039      6974795F 
 3039      71756575 
 3039      655F7400 
 3040              	.LASF113:
 3041 00f9 63685F6F 		.ascii	"ch_os_instance_config\000"
 3041      735F696E 
 3041      7374616E 
 3041      63655F63 
 3041      6F6E6669 
 3042              	.LASF15:
 3043 010f 6C6F6E67 		.ascii	"long long unsigned int\000"
 3043      206C6F6E 
 3043      6720756E 
 3043      7369676E 
 3043      65642069 
 3044              	.LASF101:
 3045 0126 65786974 		.ascii	"exitcode\000"
 3045      636F6465 
 3045      00
 3046              	.LASF151:
 3047 012f 72786D61 		.ascii	"rxmask\000"
 3047      736B00
 3048              	.LASF104:
 3049 0136 73656E74 		.ascii	"sentmsg\000"
 3049      6D736700 
 3050              	.LASF166:
 3051 013e 74696D36 		.ascii	"tim6_irq_deinit\000"
 3051      5F697271 
 3051      5F646569 
 3051      6E697400 
 3052              	.LASF128:
 3053 014e 696F5F71 		.ascii	"io_queue_t\000"
 3053      75657565 
 3053      5F7400
 3054              	.LASF68:
 3055 0159 6E657874 		.ascii	"next\000"
 3055      00
 3056              	.LASF180:
 3057 015e 6C707561 		.ascii	"lpuart1_irq_init\000"
 3057      7274315F 
 3057      6972715F 
 3057      696E6974 
 3057      00
 3058              	.LASF159:
 3059 016f 72656164 		.ascii	"readt\000"
 3059      7400
 3060              	.LASF39:
 3061 0175 72656673 		.ascii	"refs\000"
 3061      00
 3062              	.LASF191:
 3063 017a 75736172 		.ascii	"usart1_irq_init\000"
 3063      74315F69 
ARM GAS  /tmp/cc7i0MP1.s 			page 56


 3063      72715F69 
 3063      6E697400 
 3064              	.LASF1:
 3065 018a 6C6F6E67 		.ascii	"long long int\000"
 3065      206C6F6E 
 3065      6720696E 
 3065      7400
 3066              	.LASF3:
 3067 0198 7369676E 		.ascii	"signed char\000"
 3067      65642063 
 3067      68617200 
 3068              	.LASF195:
 3069 01a4 65787469 		.ascii	"exti19_irq_init\000"
 3069      31395F69 
 3069      72715F69 
 3069      6E697400 
 3070              	.LASF78:
 3071 01b4 47545052 		.ascii	"GTPR\000"
 3071      00
 3072              	.LASF76:
 3073 01b9 63685F64 		.ascii	"ch_delta_list\000"
 3073      656C7461 
 3073      5F6C6973 
 3073      7400
 3074              	.LASF140:
 3075 01c7 6F757470 		.ascii	"output_queue_t\000"
 3075      75745F71 
 3075      75657565 
 3075      5F7400
 3076              	.LASF214:
 3077 01d6 6E766963 		.ascii	"nvicDisableVector\000"
 3077      44697361 
 3077      626C6556 
 3077      6563746F 
 3077      7200
 3078              	.LASF174:
 3079 01e8 56656374 		.ascii	"VectorB0\000"
 3079      6F724230 
 3079      00
 3080              	.LASF41:
 3081 01f1 6D736771 		.ascii	"msgqueue\000"
 3081      75657565 
 3081      00
 3082              	.LASF99:
 3083 01fa 70717565 		.ascii	"pqueue\000"
 3083      756500
 3084              	.LASF37:
 3085 0201 73746174 		.ascii	"state\000"
 3085      6500
 3086              	.LASF11:
 3087 0207 6C6F6E67 		.ascii	"long int\000"
 3087      20696E74 
 3087      00
 3088              	.LASF179:
 3089 0210 6C707561 		.ascii	"lpuart1_irq_deinit\000"
 3089      7274315F 
 3089      6972715F 
ARM GAS  /tmp/cc7i0MP1.s 			page 57


 3089      6465696E 
 3089      697400
 3090              	.LASF146:
 3091 0223 68616C5F 		.ascii	"hal_serial_driver\000"
 3091      73657269 
 3091      616C5F64 
 3091      72697665 
 3091      7200
 3092              	.LASF24:
 3093 0235 74737461 		.ascii	"tstate_t\000"
 3093      74655F74 
 3093      00
 3094              	.LASF57:
 3095 023e 63685F72 		.ascii	"ch_rfcu\000"
 3095      66637500 
 3096              	.LASF143:
 3097 0246 53445F52 		.ascii	"SD_READY\000"
 3097      45414459 
 3097      00
 3098              	.LASF70:
 3099 024f 63685F71 		.ascii	"ch_queue\000"
 3099      75657565 
 3099      00
 3100              	.LASF132:
 3101 0258 715F6275 		.ascii	"q_buffer\000"
 3101      66666572 
 3101      00
 3102              	.LASF134:
 3103 0261 715F7772 		.ascii	"q_wrptr\000"
 3103      70747200 
 3104              	.LASF184:
 3105 0269 75617274 		.ascii	"uart4_irq_init\000"
 3105      345F6972 
 3105      715F696E 
 3105      697400
 3106              	.LASF75:
 3107 0278 63685F64 		.ascii	"ch_delta_list_t\000"
 3107      656C7461 
 3107      5F6C6973 
 3107      745F7400 
 3108              	.LASF92:
 3109 0288 63685F72 		.ascii	"ch_registry\000"
 3109      65676973 
 3109      74727900 
 3110              	.LASF124:
 3111 0294 77666C61 		.ascii	"wflags\000"
 3111      677300
 3112              	.LASF208:
 3113 029b 65787469 		.ascii	"exti2_irq_deinit\000"
 3113      325F6972 
 3113      715F6465 
 3113      696E6974 
 3113      00
 3114              	.LASF193:
 3115 02ac 65787469 		.ascii	"exti21_22_irq_init\000"
 3115      32315F32 
 3115      325F6972 
ARM GAS  /tmp/cc7i0MP1.s 			page 58


 3115      715F696E 
 3115      697400
 3116              	.LASF12:
 3117 02bf 5F5F7569 		.ascii	"__uint32_t\000"
 3117      6E743332 
 3117      5F7400
 3118              	.LASF58:
 3119 02ca 6D61736B 		.ascii	"mask\000"
 3119      00
 3120              	.LASF50:
 3121 02cf 76746C69 		.ascii	"vtlist\000"
 3121      737400
 3122              	.LASF40:
 3123 02d6 77616974 		.ascii	"waiting\000"
 3123      696E6700 
 3124              	.LASF114:
 3125 02de 6D61696E 		.ascii	"mainthread_base\000"
 3125      74687265 
 3125      61645F62 
 3125      61736500 
 3126              	.LASF119:
 3127 02ee 6D757465 		.ascii	"mutex_t\000"
 3127      785F7400 
 3128              	.LASF129:
 3129 02f6 696F5F71 		.ascii	"io_queue\000"
 3129      75657565 
 3129      00
 3130              	.LASF160:
 3131 02ff 69727144 		.ascii	"irqDeinit\000"
 3131      65696E69 
 3131      7400
 3132              	.LASF65:
 3133 0309 73797369 		.ascii	"sysinterval_t\000"
 3133      6E746572 
 3133      76616C5F 
 3133      7400
 3134              	.LASF30:
 3135 0317 636E745F 		.ascii	"cnt_t\000"
 3135      7400
 3136              	.LASF150:
 3137 031d 75736172 		.ascii	"usart\000"
 3137      7400
 3138              	.LASF0:
 3139 0323 756E7369 		.ascii	"unsigned int\000"
 3139      676E6564 
 3139      20696E74 
 3139      00
 3140              	.LASF17:
 3141 0330 75696E74 		.ascii	"uint16_t\000"
 3141      31365F74 
 3141      00
 3142              	.LASF152:
 3143 0339 53657269 		.ascii	"SerialDriverVMT\000"
 3143      616C4472 
 3143      69766572 
 3143      564D5400 
 3144              	.LASF105:
ARM GAS  /tmp/cc7i0MP1.s 			page 59


 3145 0349 77747365 		.ascii	"wtsemp\000"
 3145      6D7000
 3146              	.LASF199:
 3147 0350 65787469 		.ascii	"exti16_exti35_38_irq_init\000"
 3147      31365F65 
 3147      78746933 
 3147      355F3338 
 3147      5F697271 
 3148              	.LASF148:
 3149 036a 69717565 		.ascii	"iqueue\000"
 3149      756500
 3150              	.LASF103:
 3151 0371 77747472 		.ascii	"wttrp\000"
 3151      7000
 3152              	.LASF33:
 3153 0377 72717565 		.ascii	"rqueue\000"
 3153      756500
 3154              	.LASF69:
 3155 037e 63685F71 		.ascii	"ch_queue_t\000"
 3155      75657565 
 3155      5F7400
 3156              	.LASF157:
 3157 0389 67657474 		.ascii	"gett\000"
 3157      00
 3158              	.LASF35:
 3159 038e 6E616D65 		.ascii	"name\000"
 3159      00
 3160              	.LASF93:
 3161 0393 71756575 		.ascii	"queue\000"
 3161      6500
 3162              	.LASF164:
 3163 0399 74696D37 		.ascii	"tim7_irq_deinit\000"
 3163      5F697271 
 3163      5F646569 
 3163      6E697400 
 3164              	.LASF220:
 3165 03a9 2E2E2F43 		.ascii	"../ChibiOS/os/hal/ports/STM32/STM32L4xx/stm32_isr.c"
 3165      68696269 
 3165      4F532F6F 
 3165      732F6861 
 3165      6C2F706F 
 3166 03dc 00       		.ascii	"\000"
 3167              	.LASF45:
 3168 03dd 6D706F6F 		.ascii	"mpool\000"
 3168      6C00
 3169              	.LASF147:
 3170 03e3 6576656E 		.ascii	"event\000"
 3170      7400
 3171              	.LASF9:
 3172 03e9 73686F72 		.ascii	"short unsigned int\000"
 3172      7420756E 
 3172      7369676E 
 3172      65642069 
 3172      6E7400
 3173              	.LASF66:
 3174 03fc 63685F6C 		.ascii	"ch_list_t\000"
 3174      6973745F 
ARM GAS  /tmp/cc7i0MP1.s 			page 60


 3174      7400
 3175              	.LASF47:
 3176 0406 63685F74 		.ascii	"ch_thread\000"
 3176      68726561 
 3176      6400
 3177              	.LASF55:
 3178 0410 6D61696E 		.ascii	"mainthread\000"
 3178      74687265 
 3178      616400
 3179              	.LASF29:
 3180 041b 6576656E 		.ascii	"eventflags_t\000"
 3180      74666C61 
 3180      67735F74 
 3180      00
 3181              	.LASF27:
 3182 0428 6D73675F 		.ascii	"msg_t\000"
 3182      7400
 3183              	.LASF196:
 3184 042e 65787469 		.ascii	"exti18_irq_deinit\000"
 3184      31385F69 
 3184      72715F64 
 3184      65696E69 
 3184      7400
 3185              	.LASF98:
 3186 0440 6C697374 		.ascii	"list\000"
 3186      00
 3187              	.LASF42:
 3188 0445 6570656E 		.ascii	"epending\000"
 3188      64696E67 
 3188      00
 3189              	.LASF167:
 3190 044e 74696D36 		.ascii	"tim6_irq_init\000"
 3190      5F697271 
 3190      5F696E69 
 3190      7400
 3191              	.LASF155:
 3192 045c 72656164 		.ascii	"read\000"
 3192      00
 3193              	.LASF202:
 3194 0461 65787469 		.ascii	"exti5_9_irq_deinit\000"
 3194      355F395F 
 3194      6972715F 
 3194      6465696E 
 3194      697400
 3195              	.LASF158:
 3196 0474 77726974 		.ascii	"writet\000"
 3196      657400
 3197              	.LASF141:
 3198 047b 53445F55 		.ascii	"SD_UNINIT\000"
 3198      4E494E49 
 3198      5400
 3199              	.LASF67:
 3200 0485 63685F6C 		.ascii	"ch_list\000"
 3200      69737400 
 3201              	.LASF110:
 3202 048d 63685F72 		.ascii	"ch_ready_list\000"
 3202      65616479 
ARM GAS  /tmp/cc7i0MP1.s 			page 61


 3202      5F6C6973 
 3202      7400
 3203              	.LASF28:
 3204 049b 6576656E 		.ascii	"eventmask_t\000"
 3204      746D6173 
 3204      6B5F7400 
 3205              	.LASF204:
 3206 04a7 65787469 		.ascii	"exti4_irq_deinit\000"
 3206      345F6972 
 3206      715F6465 
 3206      696E6974 
 3206      00
 3207              	.LASF200:
 3208 04b8 65787469 		.ascii	"exti10_15_irq_deinit\000"
 3208      31305F31 
 3208      355F6972 
 3208      715F6465 
 3208      696E6974 
 3209              	.LASF187:
 3210 04cd 56656374 		.ascii	"VectorD8\000"
 3210      6F724438 
 3210      00
 3211              	.LASF138:
 3212 04d6 716E6F74 		.ascii	"qnotify_t\000"
 3212      6966795F 
 3212      7400
 3213              	.LASF91:
 3214 04e0 76697274 		.ascii	"virtual_timers_list_t\000"
 3214      75616C5F 
 3214      74696D65 
 3214      72735F6C 
 3214      6973745F 
 3215              	.LASF22:
 3216 04f6 73746B61 		.ascii	"stkalign_t\000"
 3216      6C69676E 
 3216      5F7400
 3217              	.LASF116:
 3218 0501 69646C65 		.ascii	"idlethread_base\000"
 3218      74687265 
 3218      61645F62 
 3218      61736500 
 3219              	.LASF90:
 3220 0511 6C617374 		.ascii	"laststamp\000"
 3220      7374616D 
 3220      7000
 3221              	.LASF154:
 3222 051b 77726974 		.ascii	"write\000"
 3222      6500
 3223              	.LASF139:
 3224 0521 696E7075 		.ascii	"input_queue_t\000"
 3224      745F7175 
 3224      6575655F 
 3224      7400
 3225              	.LASF156:
 3226 052f 70757474 		.ascii	"putt\000"
 3226      00
 3227              	.LASF189:
ARM GAS  /tmp/cc7i0MP1.s 			page 62


 3228 0534 75736172 		.ascii	"usart2_irq_init\000"
 3228      74325F69 
 3228      72715F69 
 3228      6E697400 
 3229              	.LASF56:
 3230 0544 72666375 		.ascii	"rfcu_mask_t\000"
 3230      5F6D6173 
 3230      6B5F7400 
 3231              	.LASF186:
 3232 0550 75736172 		.ascii	"usart3_irq_init\000"
 3232      74335F69 
 3232      72715F69 
 3232      6E697400 
 3233              	.LASF95:
 3234 0560 74687265 		.ascii	"thread_reference_t\000"
 3234      61645F72 
 3234      65666572 
 3234      656E6365 
 3234      5F7400
 3235              	.LASF122:
 3236 0573 6C697374 		.ascii	"listener\000"
 3236      656E6572 
 3236      00
 3237              	.LASF87:
 3238 057c 63685F76 		.ascii	"ch_virtual_timers_list\000"
 3238      69727475 
 3238      616C5F74 
 3238      696D6572 
 3238      735F6C69 
 3239              	.LASF131:
 3240 0593 715F636F 		.ascii	"q_counter\000"
 3240      756E7465 
 3240      7200
 3241              	.LASF2:
 3242 059d 6C6F6E67 		.ascii	"long double\000"
 3242      20646F75 
 3242      626C6500 
 3243              	.LASF192:
 3244 05a9 65787469 		.ascii	"exti21_22_irq_deinit\000"
 3244      32315F32 
 3244      325F6972 
 3244      715F6465 
 3244      696E6974 
 3245              	.LASF162:
 3246 05be 74696D38 		.ascii	"tim8_irq_deinit\000"
 3246      5F697271 
 3246      5F646569 
 3246      6E697400 
 3247              	.LASF206:
 3248 05ce 65787469 		.ascii	"exti3_irq_deinit\000"
 3248      335F6972 
 3248      715F6465 
 3248      696E6974 
 3248      00
 3249              	.LASF86:
 3250 05df 706F7274 		.ascii	"port_context\000"
 3250      5F636F6E 
ARM GAS  /tmp/cc7i0MP1.s 			page 63


 3250      74657874 
 3250      00
 3251              	.LASF48:
 3252 05ec 63685F6F 		.ascii	"ch_os_instance\000"
 3252      735F696E 
 3252      7374616E 
 3252      636500
 3253              	.LASF74:
 3254 05fb 7072696F 		.ascii	"prio\000"
 3254      00
 3255              	.LASF111:
 3256 0600 63757272 		.ascii	"current\000"
 3256      656E7400 
 3257              	.LASF14:
 3258 0608 5F5F7569 		.ascii	"__uint64_t\000"
 3258      6E743634 
 3258      5F7400
 3259              	.LASF161:
 3260 0613 69727149 		.ascii	"irqInit\000"
 3260      6E697400 
 3261              	.LASF176:
 3262 061b 74696D32 		.ascii	"tim2_irq_init\000"
 3262      5F697271 
 3262      5F696E69 
 3262      7400
 3263              	.LASF182:
 3264 0629 75617274 		.ascii	"uart5_irq_init\000"
 3264      355F6972 
 3264      715F696E 
 3264      697400
 3265              	.LASF173:
 3266 0638 74696D33 		.ascii	"tim3_irq_init\000"
 3266      5F697271 
 3266      5F696E69 
 3266      7400
 3267              	.LASF31:
 3268 0646 636F7265 		.ascii	"core_id_t\000"
 3268      5F69645F 
 3268      7400
 3269              	.LASF171:
 3270 0650 74696D34 		.ascii	"tim4_irq_init\000"
 3270      5F697271 
 3270      5F696E69 
 3270      7400
 3271              	.LASF169:
 3272 065e 74696D35 		.ascii	"tim5_irq_init\000"
 3272      5F697271 
 3272      5F696E69 
 3272      7400
 3273              	.LASF81:
 3274 066c 52455345 		.ascii	"RESERVED3\000"
 3274      52564544 
 3274      3300
 3275              	.LASF82:
 3276 0676 52455345 		.ascii	"RESERVED4\000"
 3276      52564544 
 3276      3400
ARM GAS  /tmp/cc7i0MP1.s 			page 64


 3277              	.LASF83:
 3278 0680 52455345 		.ascii	"RESERVED5\000"
 3278      52564544 
 3278      3500
 3279              	.LASF163:
 3280 068a 74696D38 		.ascii	"tim8_irq_init\000"
 3280      5F697271 
 3280      5F696E69 
 3280      7400
 3281              	.LASF26:
 3282 0698 74707269 		.ascii	"tprio_t\000"
 3282      6F5F7400 
 3283              	.LASF135:
 3284 06a0 715F7264 		.ascii	"q_rdptr\000"
 3284      70747200 
 3285              	.LASF185:
 3286 06a8 75736172 		.ascii	"usart3_irq_deinit\000"
 3286      74335F69 
 3286      72715F64 
 3286      65696E69 
 3286      7400
 3287              	.LASF60:
 3288 06ba 63685F73 		.ascii	"ch_system_debug\000"
 3288      79737465 
 3288      6D5F6465 
 3288      62756700 
 3289              	.LASF127:
 3290 06ca 5F426F6F 		.ascii	"_Bool\000"
 3290      6C00
 3291              	.LASF18:
 3292 06d0 696E7433 		.ascii	"int32_t\000"
 3292      325F7400 
 3293              	.LASF6:
 3294 06d8 756E7369 		.ascii	"unsigned char\000"
 3294      676E6564 
 3294      20636861 
 3294      7200
 3295              	.LASF84:
 3296 06e6 55534152 		.ascii	"USART_TypeDef\000"
 3296      545F5479 
 3296      70654465 
 3296      6600
 3297              	.LASF59:
 3298 06f4 72666375 		.ascii	"rfcu_t\000"
 3298      5F7400
 3299              	.LASF117:
 3300 06fb 69646C65 		.ascii	"idlethread_end\000"
 3300      74687265 
 3300      61645F65 
 3300      6E6400
 3301              	.LASF183:
 3302 070a 75617274 		.ascii	"uart4_irq_deinit\000"
 3302      345F6972 
 3302      715F6465 
 3302      696E6974 
 3302      00
 3303              	.LASF7:
ARM GAS  /tmp/cc7i0MP1.s 			page 65


 3304 071b 73686F72 		.ascii	"short int\000"
 3304      7420696E 
 3304      7400
 3305              	.LASF89:
 3306 0725 6C617374 		.ascii	"lasttime\000"
 3306      74696D65 
 3306      00
 3307              	.LASF126:
 3308 072e 6576656E 		.ascii	"event_source_t\000"
 3308      745F736F 
 3308      75726365 
 3308      5F7400
 3309              	.LASF211:
 3310 073d 65787469 		.ascii	"exti1_irq_init\000"
 3310      315F6972 
 3310      715F696E 
 3310      697400
 3311              	.LASF107:
 3312 074c 65776D61 		.ascii	"ewmask\000"
 3312      736B00
 3313              	.LASF149:
 3314 0753 6F717565 		.ascii	"oqueue\000"
 3314      756500
 3315              	.LASF23:
 3316 075a 746D6F64 		.ascii	"tmode_t\000"
 3316      655F7400 
 3317              	.LASF203:
 3318 0762 65787469 		.ascii	"exti5_9_irq_init\000"
 3318      355F395F 
 3318      6972715F 
 3318      696E6974 
 3318      00
 3319              	.LASF168:
 3320 0773 74696D35 		.ascii	"tim5_irq_deinit\000"
 3320      5F697271 
 3320      5F646569 
 3320      6E697400 
 3321              	.LASF142:
 3322 0783 53445F53 		.ascii	"SD_STOP\000"
 3322      544F5000 
 3323              	.LASF218:
 3324 078b 73645F6C 		.ascii	"sd_lld_serve_interrupt\000"
 3324      6C645F73 
 3324      65727665 
 3324      5F696E74 
 3324      65727275 
 3325              	.LASF198:
 3326 07a2 65787469 		.ascii	"exti16_exti35_38_irq_deinit\000"
 3326      31365F65 
 3326      78746933 
 3326      355F3338 
 3326      5F697271 
 3327              	.LASF97:
 3328 07be 74687265 		.ascii	"threads_queue_t\000"
 3328      6164735F 
 3328      71756575 
 3328      655F7400 
ARM GAS  /tmp/cc7i0MP1.s 			page 66


 3329              	.LASF79:
 3330 07ce 52455345 		.ascii	"RESERVED2\000"
 3330      52564544 
 3330      3200
 3331              	.LASF108:
 3332 07d8 63685F73 		.ascii	"ch_semaphore\000"
 3332      656D6170 
 3332      686F7265 
 3332      00
 3333              	.LASF94:
 3334 07e5 72656769 		.ascii	"registry_t\000"
 3334      73747279 
 3334      5F7400
 3335              	.LASF123:
 3336 07f0 6576656E 		.ascii	"events\000"
 3336      747300
 3337              	.LASF19:
 3338 07f7 75696E74 		.ascii	"uint32_t\000"
 3338      33325F74 
 3338      00
 3339              	.LASF106:
 3340 0800 77746D74 		.ascii	"wtmtxp\000"
 3340      787000
 3341              	.LASF21:
 3342 0807 706F7274 		.ascii	"port_stkalign_t\000"
 3342      5F73746B 
 3342      616C6967 
 3342      6E5F7400 
 3343              	.LASF34:
 3344 0817 6F776E65 		.ascii	"owner\000"
 3344      7200
 3345              	.LASF145:
 3346 081d 53657269 		.ascii	"SerialDriver\000"
 3346      616C4472 
 3346      69766572 
 3346      00
 3347              	.LASF44:
 3348 082a 7265616C 		.ascii	"realprio\000"
 3348      7072696F 
 3348      00
 3349              	.LASF197:
 3350 0833 65787469 		.ascii	"exti18_irq_init\000"
 3350      31385F69 
 3350      72715F69 
 3350      6E697400 
 3351              	.LASF13:
 3352 0843 6C6F6E67 		.ascii	"long unsigned int\000"
 3352      20756E73 
 3352      69676E65 
 3352      6420696E 
 3352      7400
 3353              	.LASF36:
 3354 0855 77616261 		.ascii	"wabase\000"
 3354      736500
 3355              	.LASF212:
 3356 085c 65787469 		.ascii	"exti0_irq_deinit\000"
 3356      305F6972 
ARM GAS  /tmp/cc7i0MP1.s 			page 67


 3356      715F6465 
 3356      696E6974 
 3356      00
 3357              	.LASF62:
 3358 086d 63686172 		.ascii	"char\000"
 3358      00
 3359              	.LASF54:
 3360 0872 636F6E66 		.ascii	"config\000"
 3360      696700
 3361              	.LASF194:
 3362 0879 65787469 		.ascii	"exti19_irq_deinit\000"
 3362      31395F69 
 3362      72715F64 
 3362      65696E69 
 3362      7400
 3363              	.LASF8:
 3364 088b 5F5F7569 		.ascii	"__uint16_t\000"
 3364      6E743136 
 3364      5F7400
 3365              	.LASF165:
 3366 0896 74696D37 		.ascii	"tim7_irq_init\000"
 3366      5F697271 
 3366      5F696E69 
 3366      7400
 3367              	.LASF32:
 3368 08a4 74687265 		.ascii	"thread_t\000"
 3368      61645F74 
 3368      00
 3369              	.LASF88:
 3370 08ad 646C6973 		.ascii	"dlist\000"
 3370      7400
 3371              	.LASF64:
 3372 08b3 73797374 		.ascii	"systime_t\000"
 3372      696D655F 
 3372      7400
 3373              	.LASF10:
 3374 08bd 5F5F696E 		.ascii	"__int32_t\000"
 3374      7433325F 
 3374      7400
 3375              	.LASF61:
 3376 08c7 70616E69 		.ascii	"panic_msg\000"
 3376      635F6D73 
 3376      6700
 3377              	.LASF80:
 3378 08d1 52544F52 		.ascii	"RTOR\000"
 3378      00
 3379              	.LASF46:
 3380 08d6 6F735F69 		.ascii	"os_instance_t\000"
 3380      6E737461 
 3380      6E63655F 
 3380      7400
 3381              	.LASF109:
 3382 08e4 63685F6D 		.ascii	"ch_mutex\000"
 3382      75746578 
 3382      00
 3383              	.LASF120:
 3384 08ed 6576656E 		.ascii	"event_listener_t\000"
ARM GAS  /tmp/cc7i0MP1.s 			page 68


 3384      745F6C69 
 3384      7374656E 
 3384      65725F74 
 3384      00
 3385              	.LASF210:
 3386 08fe 65787469 		.ascii	"exti1_irq_deinit\000"
 3386      315F6972 
 3386      715F6465 
 3386      696E6974 
 3386      00
 3387              	.LASF73:
 3388 090f 63685F70 		.ascii	"ch_priority_queue\000"
 3388      72696F72 
 3388      6974795F 
 3388      71756575 
 3388      6500
 3389              	.LASF170:
 3390 0921 74696D34 		.ascii	"tim4_irq_deinit\000"
 3390      5F697271 
 3390      5F646569 
 3390      6E697400 
 3391              	.LASF221:
 3392 0931 2F686F6D 		.ascii	"/home/bhimebau/forge/analog_in_out/application\000"
 3392      652F6268 
 3392      696D6562 
 3392      61752F66 
 3392      6F726765 
 3393              	.LASF115:
 3394 0960 6D61696E 		.ascii	"mainthread_end\000"
 3394      74687265 
 3394      61645F65 
 3394      6E6400
 3395              	.LASF217:
 3396 096f 5F5F706F 		.ascii	"__port_irq_epilogue\000"
 3396      72745F69 
 3396      72715F65 
 3396      70696C6F 
 3396      67756500 
 3397              	.LASF144:
 3398 0983 73647374 		.ascii	"sdstate_t\000"
 3398      6174655F 
 3398      7400
 3399              	.LASF118:
 3400 098d 6F735F69 		.ascii	"os_instance_config_t\000"
 3400      6E737461 
 3400      6E63655F 
 3400      636F6E66 
 3400      69675F74 
 3401              	.LASF133:
 3402 09a2 715F746F 		.ascii	"q_top\000"
 3402      7000
 3403              	.LASF188:
 3404 09a8 75736172 		.ascii	"usart2_irq_deinit\000"
 3404      74325F69 
 3404      72715F64 
 3404      65696E69 
 3404      7400
ARM GAS  /tmp/cc7i0MP1.s 			page 69


 3405              	.LASF25:
 3406 09ba 74726566 		.ascii	"trefs_t\000"
 3406      735F7400 
 3407              	.LASF201:
 3408 09c2 65787469 		.ascii	"exti10_15_irq_init\000"
 3408      31305F31 
 3408      355F6972 
 3408      715F696E 
 3408      697400
 3409              	.LASF136:
 3410 09d5 715F6E6F 		.ascii	"q_notify\000"
 3410      74696679 
 3410      00
 3411              	.LASF49:
 3412 09de 726C6973 		.ascii	"rlist\000"
 3412      7400
 3413              	.LASF125:
 3414 09e4 6576656E 		.ascii	"event_source\000"
 3414      745F736F 
 3414      75726365 
 3414      00
 3415              	.LASF16:
 3416 09f1 75696E74 		.ascii	"uint8_t\000"
 3416      385F7400 
 3417              	.LASF190:
 3418 09f9 75736172 		.ascii	"usart1_irq_deinit\000"
 3418      74315F69 
 3418      72715F64 
 3418      65696E69 
 3418      7400
 3419              	.LASF38:
 3420 0a0b 666C6167 		.ascii	"flags\000"
 3420      7300
 3421              	.LASF181:
 3422 0a11 75617274 		.ascii	"uart5_irq_deinit\000"
 3422      355F6972 
 3422      715F6465 
 3422      696E6974 
 3422      00
 3423              	.LASF102:
 3424 0a22 77746F62 		.ascii	"wtobjp\000"
 3424      6A7000
 3425              	.LASF51:
 3426 0a29 7265676C 		.ascii	"reglist\000"
 3426      69737400 
 3427              	.LASF219:
 3428 0a31 474E5520 		.ascii	"GNU C17 10.3.1 20210621 (release) -mcpu=cortex-m4 -"
 3428      43313720 
 3428      31302E33 
 3428      2E312032 
 3428      30323130 
 3429 0a64 6D746875 		.ascii	"mthumb -mfloat-abi=soft -march=armv7e-m -ggdb -O2 -"
 3429      6D62202D 
 3429      6D666C6F 
 3429      61742D61 
 3429      62693D73 
 3430 0a97 666F6D69 		.ascii	"fomit-frame-pointer -falign-functions=16 -ffunction"
ARM GAS  /tmp/cc7i0MP1.s 			page 70


 3430      742D6672 
 3430      616D652D 
 3430      706F696E 
 3430      74657220 
 3431 0aca 2D736563 		.ascii	"-sections -fdata-sections -fno-common\000"
 3431      74696F6E 
 3431      73202D66 
 3431      64617461 
 3431      2D736563 
 3432              	.LASF215:
 3433 0af0 6E766963 		.ascii	"nvicEnableVector\000"
 3433      456E6162 
 3433      6C655665 
 3433      63746F72 
 3433      00
 3434              	.LASF213:
 3435 0b01 65787469 		.ascii	"exti0_irq_init\000"
 3435      305F6972 
 3435      715F696E 
 3435      697400
 3436              	.LASF175:
 3437 0b10 74696D32 		.ascii	"tim2_irq_deinit\000"
 3437      5F697271 
 3437      5F646569 
 3437      6E697400 
 3438              	.LASF209:
 3439 0b20 65787469 		.ascii	"exti2_irq_init\000"
 3439      325F6972 
 3439      715F696E 
 3439      697400
 3440              	.LASF207:
 3441 0b2f 65787469 		.ascii	"exti3_irq_init\000"
 3441      335F6972 
 3441      715F696E 
 3441      697400
 3442              	.LASF205:
 3443 0b3e 65787469 		.ascii	"exti4_irq_init\000"
 3443      345F6972 
 3443      715F696E 
 3443      697400
 3444              	.LASF172:
 3445 0b4d 74696D33 		.ascii	"tim3_irq_deinit\000"
 3445      5F697271 
 3445      5F646569 
 3445      6E697400 
 3446              	.LASF137:
 3447 0b5d 715F6C69 		.ascii	"q_link\000"
 3447      6E6B00
 3448              	.LASF43:
 3449 0b64 6D74786C 		.ascii	"mtxlist\000"
 3449      69737400 
 3450              	.LASF121:
 3451 0b6c 6576656E 		.ascii	"event_listener\000"
 3451      745F6C69 
 3451      7374656E 
 3451      657200
 3452              		.ident	"GCC: (GNU Arm Embedded Toolchain 10.3-2021.07) 10.3.1 20210621 (release)"
ARM GAS  /tmp/cc7i0MP1.s 			page 71


ARM GAS  /tmp/cc7i0MP1.s 			page 72


DEFINED SYMBOLS
                            *ABS*:0000000000000000 stm32_isr.c
     /tmp/cc7i0MP1.s:16     .text.VectorD8:0000000000000000 $t
     /tmp/cc7i0MP1.s:25     .text.VectorD8:0000000000000000 VectorD8
     /tmp/cc7i0MP1.s:64     .text.VectorD8:0000000000000010 $d
     /tmp/cc7i0MP1.s:69     .text.VectorB0:0000000000000000 $t
     /tmp/cc7i0MP1.s:77     .text.VectorB0:0000000000000000 VectorB0
     /tmp/cc7i0MP1.s:116    .text.irqInit:0000000000000000 $t
     /tmp/cc7i0MP1.s:124    .text.irqInit:0000000000000000 irqInit
     /tmp/cc7i0MP1.s:236    .text.irqDeinit:0000000000000000 $t
     /tmp/cc7i0MP1.s:244    .text.irqDeinit:0000000000000000 irqDeinit

UNDEFINED SYMBOLS
sd_lld_serve_interrupt
__port_irq_epilogue
SD2
st_lld_serve_interrupt
nvicEnableVector
nvicDisableVector
