ARM GAS  /tmp/cc7i0MP1.s 			page 1


   1              		.cpu cortex-m4
   2              		.eabi_attribute 20, 1
   3              		.eabi_attribute 21, 1
   4              		.eabi_attribute 23, 3
   5              		.eabi_attribute 24, 1
   6              		.eabi_attribute 25, 1
   7              		.eabi_attribute 26, 1
   8              		.eabi_attribute 30, 2
   9              		.eabi_attribute 34, 1
  10              		.eabi_attribute 18, 4
  11              		.file	"stm32_isr.c"
  12              		.text
  13              	.Ltext0:
  14              		.cfi_sections	.debug_frame
  15              		.section	.text.VectorD8,"ax",%progbits
  16              		.align	1
  17              		.p2align 4,,15
  18              		.global	VectorD8
  19              		.arch armv7e-m
  20              		.syntax unified
  21              		.thumb
  22              		.thumb_func
  23              		.fpu softvfp
  24              		.type	VectorD8, %function
  25              	VectorD8:
  26              	.LFB428:
  27              		.file 1 "../ChibiOS/os/hal/ports/STM32/LLD/USART/stm32_usart2.inc"
  28              		.loc 1 85 40 view -0
  29              		.cfi_startproc
  30              		@ args = 0, pretend = 0, frame = 0
  31              		@ frame_needed = 0, uses_anonymous_args = 0
  32              		.loc 1 87 3 view .LVU1
  33              		.loc 1 87 3 view .LVU2
  34              		.loc 1 87 3 view .LVU3
  35              		.loc 1 87 3 view .LVU4
  36              		.loc 1 87 3 view .LVU5
  37              		.loc 1 87 22 view .LVU6
  38              		.loc 1 91 3 view .LVU7
  39              		.loc 1 85 40 is_stmt 0 view .LVU8
  40 0000 08B5     		push	{r3, lr}
  41              		.cfi_def_cfa_offset 8
  42              		.cfi_offset 3, -8
  43              		.cfi_offset 14, -4
  44              		.loc 1 91 3 view .LVU9
  45 0002 0348     		ldr	r0, .L4
  46 0004 FFF7FEFF 		bl	sd_lld_serve_interrupt
  47              	.LVL0:
  48              		.loc 1 107 3 is_stmt 1 view .LVU10
  49              		.loc 1 107 3 view .LVU11
  50              		.loc 1 107 3 view .LVU12
  51              		.loc 1 107 3 view .LVU13
  52              		.loc 1 107 3 view .LVU14
  53              		.loc 1 108 1 is_stmt 0 view .LVU15
  54 0008 BDE80840 		pop	{r3, lr}
  55              		.cfi_restore 14
  56              		.cfi_restore 3
  57              		.cfi_def_cfa_offset 0
ARM GAS  /tmp/cc7i0MP1.s 			page 2


  58              		.loc 1 107 3 view .LVU16
  59 000c FFF7FEBF 		b	__port_irq_epilogue
  60              	.LVL1:
  61              	.L5:
  62              		.align	2
  63              	.L4:
  64 0010 00000000 		.word	SD2
  65              		.cfi_endproc
  66              	.LFE428:
  67              		.size	VectorD8, .-VectorD8
  68              		.section	.text.VectorB0,"ax",%progbits
  69              		.align	1
  70              		.p2align 4,,15
  71              		.global	VectorB0
  72              		.syntax unified
  73              		.thumb
  74              		.thumb_func
  75              		.fpu softvfp
  76              		.type	VectorB0, %function
  77              	VectorB0:
  78              	.LFB441:
  79              		.file 2 "../ChibiOS/os/hal/ports/STM32/LLD/TIMv1/stm32_tim2.inc"
  80              		.loc 2 100 38 is_stmt 1 view -0
  81              		.cfi_startproc
  82              		@ args = 0, pretend = 0, frame = 0
  83              		@ frame_needed = 0, uses_anonymous_args = 0
  84              		.loc 2 102 3 view .LVU18
  85              		.loc 2 102 3 view .LVU19
  86              		.loc 2 102 3 view .LVU20
  87              		.loc 2 102 3 view .LVU21
  88              		.loc 2 102 3 view .LVU22
  89              		.loc 2 102 22 view .LVU23
  90              		.loc 2 121 3 view .LVU24
  91              		.loc 2 100 38 is_stmt 0 view .LVU25
  92 0000 08B5     		push	{r3, lr}
  93              		.cfi_def_cfa_offset 8
  94              		.cfi_offset 3, -8
  95              		.cfi_offset 14, -4
  96              		.loc 2 121 3 view .LVU26
  97 0002 FFF7FEFF 		bl	st_lld_serve_interrupt
  98              	.LVL2:
  99              		.loc 2 125 3 is_stmt 1 view .LVU27
 100              		.loc 2 125 3 view .LVU28
 101              		.loc 2 125 3 view .LVU29
 102              		.loc 2 125 3 view .LVU30
 103              		.loc 2 125 3 view .LVU31
 104              		.loc 2 126 1 is_stmt 0 view .LVU32
 105 0006 BDE80840 		pop	{r3, lr}
 106              		.cfi_restore 14
 107              		.cfi_restore 3
 108              		.cfi_def_cfa_offset 0
 109              		.loc 2 125 3 view .LVU33
 110 000a FFF7FEBF 		b	__port_irq_epilogue
 111              	.LVL3:
 112              		.cfi_endproc
 113              	.LFE441:
 114              		.size	VectorB0, .-VectorB0
ARM GAS  /tmp/cc7i0MP1.s 			page 3


 115 000e 00BF     		.section	.text.irqInit,"ax",%progbits
 116              		.align	1
 117              		.p2align 4,,15
 118              		.global	irqInit
 119              		.syntax unified
 120              		.thumb
 121              		.thumb_func
 122              		.fpu softvfp
 123              		.type	irqInit, %function
 124              	irqInit:
 125              	.LFB454:
 126              		.file 3 "../ChibiOS/os/hal/ports/STM32/STM32L4xx/stm32_isr.c"
 127              		.loc 3 92 20 is_stmt 1 view -0
 128              		.cfi_startproc
 129              		@ args = 0, pretend = 0, frame = 0
 130              		@ frame_needed = 0, uses_anonymous_args = 0
 131              		.loc 3 94 3 view .LVU35
 132              		.file 4 "../ChibiOS/os/hal/ports/STM32/LLD/EXTIv1/stm32_exti0.inc"
 133              		.loc 4 58 1 view .LVU36
 134              		.loc 3 95 3 view .LVU37
 135              		.file 5 "../ChibiOS/os/hal/ports/STM32/LLD/EXTIv1/stm32_exti1.inc"
 136              		.loc 5 58 1 view .LVU38
 137              		.loc 3 96 3 view .LVU39
 138              		.file 6 "../ChibiOS/os/hal/ports/STM32/LLD/EXTIv1/stm32_exti2.inc"
 139              		.loc 6 58 1 view .LVU40
 140              		.loc 3 97 3 view .LVU41
 141              		.file 7 "../ChibiOS/os/hal/ports/STM32/LLD/EXTIv1/stm32_exti3.inc"
 142              		.loc 7 58 1 view .LVU42
 143              		.loc 3 98 3 view .LVU43
 144              		.file 8 "../ChibiOS/os/hal/ports/STM32/LLD/EXTIv1/stm32_exti4.inc"
 145              		.loc 8 58 1 view .LVU44
 146              		.loc 3 99 3 view .LVU45
 147              		.file 9 "../ChibiOS/os/hal/ports/STM32/LLD/EXTIv1/stm32_exti5_9.inc"
 148              		.loc 9 58 1 view .LVU46
 149              		.loc 3 100 3 view .LVU47
 150              		.file 10 "../ChibiOS/os/hal/ports/STM32/LLD/EXTIv1/stm32_exti10_15.inc"
 151              		.loc 10 58 1 view .LVU48
 152              		.loc 3 101 3 view .LVU49
 153              		.file 11 "../ChibiOS/os/hal/ports/STM32/LLD/EXTIv1/stm32_exti16-35_38.inc"
 154              		.loc 11 60 1 view .LVU50
 155              		.loc 3 102 3 view .LVU51
 156              		.file 12 "../ChibiOS/os/hal/ports/STM32/LLD/EXTIv1/stm32_exti18.inc"
 157              		.loc 12 58 1 view .LVU52
 158              		.loc 3 103 3 view .LVU53
 159              		.file 13 "../ChibiOS/os/hal/ports/STM32/LLD/EXTIv1/stm32_exti19.inc"
 160              		.loc 13 58 1 view .LVU54
 161              		.loc 3 104 3 view .LVU55
 162              		.file 14 "../ChibiOS/os/hal/ports/STM32/LLD/EXTIv1/stm32_exti21_22.inc"
 163              		.loc 14 58 1 view .LVU56
 164              		.loc 3 106 3 view .LVU57
 165              		.file 15 "../ChibiOS/os/hal/ports/STM32/LLD/TIMv1/stm32_tim1_15_16_17.inc"
 166              		.loc 15 170 1 view .LVU58
 167              		.loc 3 107 3 view .LVU59
 168              	.LBB102:
 169              	.LBI102:
 170              		.loc 2 78 20 view .LVU60
 171              	.LBB103:
ARM GAS  /tmp/cc7i0MP1.s 			page 4


 172              		.loc 2 80 3 view .LVU61
 173              	.LBE103:
 174              	.LBE102:
 175              		.loc 3 92 20 is_stmt 0 view .LVU62
 176 0000 08B5     		push	{r3, lr}
 177              		.cfi_def_cfa_offset 8
 178              		.cfi_offset 3, -8
 179              		.cfi_offset 14, -4
 180              	.LBB105:
 181              	.LBB104:
 182              		.loc 2 80 3 view .LVU63
 183 0002 0721     		movs	r1, #7
 184 0004 1C20     		movs	r0, #28
 185 0006 FFF7FEFF 		bl	nvicEnableVector
 186              	.LVL4:
 187              	.LBE104:
 188              	.LBE105:
 189              		.loc 3 108 3 is_stmt 1 view .LVU64
 190              		.file 16 "../ChibiOS/os/hal/ports/STM32/LLD/TIMv1/stm32_tim3.inc"
 191              		.loc 16 82 1 view .LVU65
 192              		.loc 3 109 3 view .LVU66
 193              		.file 17 "../ChibiOS/os/hal/ports/STM32/LLD/TIMv1/stm32_tim4.inc"
 194              		.loc 17 82 1 view .LVU67
 195              		.loc 3 110 3 view .LVU68
 196              		.file 18 "../ChibiOS/os/hal/ports/STM32/LLD/TIMv1/stm32_tim5.inc"
 197              		.loc 18 82 1 view .LVU69
 198              		.loc 3 111 3 view .LVU70
 199              		.file 19 "../ChibiOS/os/hal/ports/STM32/LLD/TIMv1/stm32_tim6.inc"
 200              		.loc 19 82 1 view .LVU71
 201              		.loc 3 112 3 view .LVU72
 202              		.file 20 "../ChibiOS/os/hal/ports/STM32/LLD/TIMv1/stm32_tim7.inc"
 203              		.loc 20 82 1 view .LVU73
 204              		.loc 3 113 3 view .LVU74
 205              		.file 21 "../ChibiOS/os/hal/ports/STM32/LLD/TIMv1/stm32_tim8.inc"
 206              		.loc 21 91 1 view .LVU75
 207              		.loc 3 115 3 view .LVU76
 208              		.file 22 "../ChibiOS/os/hal/ports/STM32/LLD/USART/stm32_usart1.inc"
 209              		.loc 22 67 1 view .LVU77
 210              		.loc 3 116 3 view .LVU78
 211              	.LBB106:
 212              	.LBI106:
 213              		.loc 1 63 20 view .LVU79
 214              	.LBB107:
 215              		.loc 1 65 3 view .LVU80
 216              	.LBE107:
 217              	.LBE106:
 218              		.loc 3 121 1 is_stmt 0 view .LVU81
 219 000a BDE80840 		pop	{r3, lr}
 220              		.cfi_restore 14
 221              		.cfi_restore 3
 222              		.cfi_def_cfa_offset 0
 223              	.LBB109:
 224              	.LBB108:
 225              		.loc 1 65 3 view .LVU82
 226 000e 0C21     		movs	r1, #12
 227 0010 2620     		movs	r0, #38
 228 0012 FFF7FEBF 		b	nvicEnableVector
ARM GAS  /tmp/cc7i0MP1.s 			page 5


 229              	.LVL5:
 230              	.LBE108:
 231              	.LBE109:
 232              		.cfi_endproc
 233              	.LFE454:
 234              		.size	irqInit, .-irqInit
 235 0016 00BF     		.section	.text.irqDeinit,"ax",%progbits
 236              		.align	1
 237              		.p2align 4,,15
 238              		.global	irqDeinit
 239              		.syntax unified
 240              		.thumb
 241              		.thumb_func
 242              		.fpu softvfp
 243              		.type	irqDeinit, %function
 244              	irqDeinit:
 245              	.LFB455:
 246              		.loc 3 128 22 is_stmt 1 view -0
 247              		.cfi_startproc
 248              		@ args = 0, pretend = 0, frame = 0
 249              		@ frame_needed = 0, uses_anonymous_args = 0
 250              		.loc 3 130 3 view .LVU84
 251              		.loc 4 64 1 view .LVU85
 252              		.loc 3 131 3 view .LVU86
 253              		.loc 5 64 1 view .LVU87
 254              		.loc 3 132 3 view .LVU88
 255              		.loc 6 64 1 view .LVU89
 256              		.loc 3 133 3 view .LVU90
 257              		.loc 7 64 1 view .LVU91
 258              		.loc 3 134 3 view .LVU92
 259              		.loc 8 64 1 view .LVU93
 260              		.loc 3 135 3 view .LVU94
 261              		.loc 9 64 1 view .LVU95
 262              		.loc 3 136 3 view .LVU96
 263              		.loc 10 64 1 view .LVU97
 264              		.loc 3 137 3 view .LVU98
 265              		.loc 11 68 1 view .LVU99
 266              		.loc 3 138 3 view .LVU100
 267              		.loc 12 64 1 view .LVU101
 268              		.loc 3 139 3 view .LVU102
 269              		.loc 13 64 1 view .LVU103
 270              		.loc 3 140 3 view .LVU104
 271              		.loc 14 64 1 view .LVU105
 272              		.loc 3 142 3 view .LVU106
 273              		.loc 15 185 1 view .LVU107
 274              		.loc 3 143 3 view .LVU108
 275              	.LBB110:
 276              	.LBI110:
 277              		.loc 2 84 20 view .LVU109
 278              	.LBB111:
 279              		.loc 2 86 3 view .LVU110
 280              	.LBE111:
 281              	.LBE110:
 282              		.loc 3 128 22 is_stmt 0 view .LVU111
 283 0000 08B5     		push	{r3, lr}
 284              		.cfi_def_cfa_offset 8
 285              		.cfi_offset 3, -8
ARM GAS  /tmp/cc7i0MP1.s 			page 6


 286              		.cfi_offset 14, -4
 287              	.LBB113:
 288              	.LBB112:
 289              		.loc 2 86 3 view .LVU112
 290 0002 1C20     		movs	r0, #28
 291 0004 FFF7FEFF 		bl	nvicDisableVector
 292              	.LVL6:
 293              	.LBE112:
 294              	.LBE113:
 295              		.loc 3 144 3 is_stmt 1 view .LVU113
 296              		.loc 16 88 1 view .LVU114
 297              		.loc 3 145 3 view .LVU115
 298              		.loc 17 88 1 view .LVU116
 299              		.loc 3 146 3 view .LVU117
 300              		.loc 18 88 1 view .LVU118
 301              		.loc 3 147 3 view .LVU119
 302              		.loc 19 88 1 view .LVU120
 303              		.loc 3 148 3 view .LVU121
 304              		.loc 20 88 1 view .LVU122
 305              		.loc 3 149 3 view .LVU123
 306              		.loc 21 98 1 view .LVU124
 307              		.loc 3 151 3 view .LVU125
 308              		.loc 22 73 1 view .LVU126
 309              		.loc 3 152 3 view .LVU127
 310              	.LBB114:
 311              	.LBI114:
 312              		.loc 1 69 20 view .LVU128
 313              	.LBB115:
 314              		.loc 1 71 3 view .LVU129
 315              	.LBE115:
 316              	.LBE114:
 317              		.loc 3 157 1 is_stmt 0 view .LVU130
 318 0008 BDE80840 		pop	{r3, lr}
 319              		.cfi_restore 14
 320              		.cfi_restore 3
 321              		.cfi_def_cfa_offset 0
 322              	.LBB117:
 323              	.LBB116:
 324              		.loc 1 71 3 view .LVU131
 325 000c 2620     		movs	r0, #38
 326 000e FFF7FEBF 		b	nvicDisableVector
 327              	.LVL7:
 328              	.LBE116:
 329              	.LBE117:
 330              		.cfi_endproc
 331              	.LFE455:
 332              		.size	irqDeinit, .-irqDeinit
 333 0012 00BF     		.text
 334              	.Letext0:
 335              		.file 23 "/opt/gcc-arm-none-eabi/gcc-arm-none-eabi-10.3-2021.07/lib/gcc/arm-none-eabi/10.3.1/inclu
 336              		.file 24 "/opt/gcc-arm-none-eabi/gcc-arm-none-eabi-10.3-2021.07/arm-none-eabi/include/machine/_def
 337              		.file 25 "/opt/gcc-arm-none-eabi/gcc-arm-none-eabi-10.3-2021.07/arm-none-eabi/include/sys/_stdint.
 338              		.file 26 "../ChibiOS/os/common/ports/ARM-common/chtypes.h"
 339              		.file 27 "../ChibiOS/os/rt/include/chearly.h"
 340              		.file 28 "../ChibiOS/os/rt/include/chobjects.h"
 341              		.file 29 "../ChibiOS/os/rt/include/chrfcu.h"
 342              		.file 30 "../ChibiOS/os/rt/include/chdebug.h"
ARM GAS  /tmp/cc7i0MP1.s 			page 7


 343              		.file 31 "../ChibiOS/os/rt/include/chtime.h"
 344              		.file 32 "../ChibiOS/os/rt/include/chlists.h"
 345              		.file 33 "../ChibiOS/os/common/ext/ST/STM32L4xx/stm32l432xx.h"
 346              		.file 34 "../ChibiOS/os/common/ports/ARMv7-M/chcore.h"
 347              		.file 35 "../ChibiOS/os/rt/include/chsem.h"
 348              		.file 36 "../ChibiOS/os/rt/include/chmtx.h"
 349              		.file 37 "../ChibiOS/os/rt/include/chevents.h"
 350              		.file 38 "../ChibiOS/os/hal/include/hal_queues.h"
 351              		.file 39 "../ChibiOS/os/hal/include/hal_serial.h"
 352              		.file 40 "../ChibiOS/os/hal/ports/STM32/LLD/USART/stm32_lpuart1.inc"
 353              		.file 41 "../ChibiOS/os/hal/ports/STM32/LLD/USART/stm32_uart5.inc"
 354              		.file 42 "../ChibiOS/os/hal/ports/STM32/LLD/USART/stm32_uart4.inc"
 355              		.file 43 "../ChibiOS/os/hal/ports/STM32/LLD/USART/stm32_usart3.inc"
 356              		.file 44 "../ChibiOS/os/hal/ports/common/ARMCMx/nvic.h"
 357              		.file 45 "../ChibiOS/os/hal/ports/STM32/LLD/SYSTICKv1/hal_st_lld.h"
 358              		.file 46 "../ChibiOS/os/hal/ports/STM32/LLD/USARTv2/hal_serial_lld.h"